
484d4143-2d53-4841-3120-4a6f636b6542.elf:     file format elf32-littlearm
484d4143-2d53-4841-3120-4a6f636b6542.elf
architecture: arm, flags 0x00000150:
HAS_SYMS, DYNAMIC, D_PAGED
start address 0x00000020

Program Header:
0x70000001 off    0x00018e30 vaddr 0x00008e30 paddr 0x00008e30 align 2**2
         filesz 0x00000650 memsz 0x00000650 flags r--
    LOAD off    0x00010000 vaddr 0x00000000 paddr 0x00000000 align 2**16
         filesz 0x00007c88 memsz 0x00007c88 flags r-x
    LOAD off    0x00017c88 vaddr 0x00007c88 paddr 0x00007c88 align 2**16
         filesz 0x00001bbc memsz 0x00001bbc flags r--
    LOAD off    0x0001a000 vaddr 0x0000a000 paddr 0x0000a000 align 2**16
         filesz 0x00000080 memsz 0x0000a0f0 flags rw-
 DYNAMIC off    0x000195b4 vaddr 0x000095b4 paddr 0x000095b4 align 2**2
         filesz 0x00000080 memsz 0x00000080 flags rw-

Dynamic Section:
  HASH                 0x000097f4
  STRTAB               0x00009724
  SYMTAB               0x00009634
  STRSZ                0x000000ce
  SYMENT               0x00000010
  DEBUG                0x00000000
  REL                  0x000094bc
  RELSZ                0x000000f8
  RELENT               0x00000008
  FLAGS_1              0x08000000
  RELCOUNT             0x00000013
private flags = 5000400: [Version5 EABI] [hard-float ABI]

Sections:
Idx Name          Size      VMA       LMA       File off  Algn
  0 .ta_head      00000020  00000000  00000000  00010000  2**3
                  CONTENTS, ALLOC, LOAD, DATA
  1 .text         00007c68  00000020  00000020  00010020  2**3
                  CONTENTS, ALLOC, LOAD, READONLY, CODE
  2 .rodata       0000107c  00007c88  00007c88  00017c88  2**2
                  CONTENTS, ALLOC, LOAD, READONLY, DATA
  3 .ARM.extab    000000fc  00008d04  00008d04  00018d04  2**2
                  CONTENTS, ALLOC, LOAD, READONLY, DATA
  4 .ARM.extab.text.__aeabi_ldivmod 0000000c  00008e00  00008e00  00018e00  2**2
                  CONTENTS, ALLOC, LOAD, READONLY, DATA
  5 .ARM.extab.text.__aeabi_uldivmod 0000000c  00008e0c  00008e0c  00018e0c  2**2
                  CONTENTS, ALLOC, LOAD, READONLY, DATA
  6 .ARM.extab.text.utee_panic 0000000c  00008e18  00008e18  00018e18  2**2
                  CONTENTS, ALLOC, LOAD, READONLY, DATA
  7 .ARM.extab.text.unlikely 0000000c  00008e24  00008e24  00018e24  2**2
                  CONTENTS, ALLOC, LOAD, READONLY, DATA
  8 .ARM.exidx    00000650  00008e30  00008e30  00018e30  2**2
                  CONTENTS, ALLOC, LOAD, READONLY, DATA
  9 .got          0000003c  00009480  00009480  00019480  2**2
                  CONTENTS, ALLOC, LOAD, DATA
 10 .dynsym       000000f0  00009634  00009634  00019634  2**2
                  CONTENTS, ALLOC, LOAD, READONLY, DATA
 11 .rel.got      00000060  00009554  00009554  00019554  2**2
                  CONTENTS, ALLOC, LOAD, READONLY, DATA
 12 .dynamic      00000080  000095b4  000095b4  000195b4  2**2
                  CONTENTS, ALLOC, LOAD, DATA
 13 .dynstr       000000ce  00009724  00009724  00019724  2**0
                  CONTENTS, ALLOC, LOAD, READONLY, DATA
 14 .hash         00000050  000097f4  000097f4  000197f4  2**2
                  CONTENTS, ALLOC, LOAD, READONLY, DATA
 15 .data         00000080  0000a000  0000a000  0001a000  2**2
                  CONTENTS, ALLOC, LOAD, DATA
 16 .bss          0000a070  0000a080  0000a080  0001a080  2**2
                  ALLOC
 17 .debug_info   0001188b  00000000  00000000  0001a080  2**0
                  CONTENTS, READONLY, DEBUGGING
 18 .debug_abbrev 00002d79  00000000  00000000  0002b90b  2**0
                  CONTENTS, READONLY, DEBUGGING
 19 .debug_loc    0001123a  00000000  00000000  0002e684  2**0
                  CONTENTS, READONLY, DEBUGGING
 20 .debug_aranges 00000550  00000000  00000000  0003f8c0  2**3
                  CONTENTS, READONLY, DEBUGGING
 21 .debug_ranges 00000840  00000000  00000000  0003fe10  2**3
                  CONTENTS, READONLY, DEBUGGING
 22 .debug_macro  00011836  00000000  00000000  00040650  2**0
                  CONTENTS, READONLY, DEBUGGING
 23 .debug_line   00005710  00000000  00000000  00051e86  2**0
                  CONTENTS, READONLY, DEBUGGING
 24 .debug_str    0001165f  00000000  00000000  00057596  2**0
                  CONTENTS, READONLY, DEBUGGING
 25 .comment      00000024  00000000  00000000  00068bf5  2**0
                  CONTENTS, READONLY
 26 .ARM.attributes 00000036  00000000  00000000  00068c19  2**0
                  CONTENTS, READONLY
 27 .debug_frame  00001f64  00000000  00000000  00068c50  2**2
                  CONTENTS, READONLY, DEBUGGING
 28 .rel.dyn      00000098  000094bc  000094bc  000194bc  2**2
                  CONTENTS, ALLOC, LOAD, READONLY, DATA
SYMBOL TABLE:
00000000 l    d  .ta_head	00000000 .ta_head
00000020 l    d  .text	00000000 .text
00007c88 l    d  .rodata	00000000 .rodata
00008d04 l    d  .ARM.extab	00000000 .ARM.extab
00008e00 l    d  .ARM.extab.text.__aeabi_ldivmod	00000000 .ARM.extab.text.__aeabi_ldivmod
00008e0c l    d  .ARM.extab.text.__aeabi_uldivmod	00000000 .ARM.extab.text.__aeabi_uldivmod
00008e18 l    d  .ARM.extab.text.utee_panic	00000000 .ARM.extab.text.utee_panic
00008e24 l    d  .ARM.extab.text.unlikely	00000000 .ARM.extab.text.unlikely
00008e30 l    d  .ARM.exidx	00000000 .ARM.exidx
00009480 l    d  .got	00000000 .got
00009554 l    d  .rel.got	00000000 .rel.got
000095b4 l    d  .dynamic	00000000 .dynamic
00009634 l    d  .dynsym	00000000 .dynsym
00009724 l    d  .dynstr	00000000 .dynstr
000097f4 l    d  .hash	00000000 .hash
0000a000 l    d  .data	00000000 .data
0000a080 l    d  .bss	00000000 .bss
00000000 l    d  .debug_info	00000000 .debug_info
00000000 l    d  .debug_abbrev	00000000 .debug_abbrev
00000000 l    d  .debug_loc	00000000 .debug_loc
00000000 l    d  .debug_aranges	00000000 .debug_aranges
00000000 l    d  .debug_ranges	00000000 .debug_ranges
00000000 l    d  .debug_macro	00000000 .debug_macro
00000000 l    d  .debug_line	00000000 .debug_line
00000000 l    d  .debug_str	00000000 .debug_str
00000000 l    d  .comment	00000000 .comment
00000000 l    d  .ARM.attributes	00000000 .ARM.attributes
00000000 l    d  .debug_frame	00000000 .debug_frame
000094bc l    d  .rel.dyn	00000000 .rel.dyn
00000000 l    df *ABS*	00000000 user_ta_header.c
00007c8c l     O .rodata	00000004 __compound_literal.4
00007c90 l     O .rodata	00000004 __compound_literal.3
00007c94 l     O .rodata	00000001 __compound_literal.2
00007c95 l     O .rodata	00000001 __compound_literal.1
00007c96 l     O .rodata	00000001 __compound_literal.0
00000000 l    df *ABS*	00000000 hotp_ta.c
00007f64 l     O .rodata	00000014 __func__.6216
00007f78 l     O .rodata	00000009 __func__.6228
00007f81 l     O .rodata	0000000a __func__.6202
00000000 l    df *ABS*	00000000 trace.c
000002a0 l     F .text	0000004e append
0000809d l     O .rodata	00000005 lvl_strs.5561
000080a2 l     O .rodata	0000000a __func__.5615
00000000 l    df *ABS*	00000000 snprintk.c
000080e6 l     O .rodata	00000011 HEXDIGITS
000080f7 l     O .rodata	00000011 hexdigits
00000000 l    df *ABS*	00000000 arm32_aeabi_ldivmod_a32.o
00000000 l    df *ABS*	00000000 trace_ext.c
00000000 l    df *ABS*	00000000 tee_api.c
00008140 l     O .rodata	0000000b __func__.6728
0000a080 l     O .bss	00000004 tee_api_instance_data
00000000 l    df *ABS*	00000000 tee_api_objects.c
00000000 l    df *ABS*	00000000 tee_api_operations.c
000017f4 l     F .text	00000160 tee_buffer_update
00000000 l    df *ABS*	00000000 user_ta_entry.c
00002dbc l     F .text	0000001c ta_header_get_session
00002dd8 l     F .text	00000068 ta_header_remove_session
0000a084 l     O .bss	00000001 init_done
0000a05c l     O .data	00000008 ta_sessions
00000000 l    df *ABS*	00000000 utee_syscalls_a32.o
00000000 l    df *ABS*	00000000 gprof_a32.o
00000000 l    df *ABS*	00000000 tee_api_arith_mpi.c
000044a0 l     F .text	00000020 api_panic
0000348c l     F .text	00000020 mpi_panic
000034ac l     F .text	00000044 get_const_mpi
000034f0 l     F .text	00000010 mpi_is_odd
00003500 l     F .text	00000016 rng_read
00003516 l     F .text	0000001c put_mpi
00003532 l     F .text	0000045a mpi_egcd
0000398c l     F .text	00000024 get_mpi
000039b0 l     F .text	00000088 bigint_binary
0000a0ac l     O .bss	00002000 data.6728
00003c3e l     F .text	000000ea bigint_binary_mod
0000815c l     O .rodata	0000000e __func__.6757
0000816a l     O .rodata	00000009 __func__.6996
00008173 l     O .rodata	0000000e __func__.6856
00008181 l     O .rodata	00000012 __func__.6729
00008193 l     O .rodata	0000000f __func__.6767
000081a2 l     O .rodata	0000001f __func__.6785
000081c1 l     O .rodata	00000019 __func__.6792
000081da l     O .rodata	00000012 __func__.6867
000081ec l     O .rodata	00000015 __func__.6822
00008201 l     O .rodata	0000000e __func__.6894
0000820f l     O .rodata	0000000e __func__.6922
0000821d l     O .rodata	0000000e __func__.6928
0000822b l     O .rodata	00000011 __func__.6957
0000823c l     O .rodata	00000018 __func__.6973
00008254 l     O .rodata	0000001d __func__.7053
00008271 l     O .rodata	00000019 __func__.7103
0000828a l     O .rodata	00000015 __func__.7117
00000000 l    df *ABS*	00000000 bignum.c
000044c0 l     F .text	00000038 mpi_get_digit
000044f8 l     F .text	0000005e mpi_sub_hlp
00004556 l     F .text	00000492 mpi_mul_hlp
000049e8 l     F .text	00000048 mbedtls_mpi_mod_int.part.1
00005a8a l     F .text	0000006c mpi_write_hlp
00005c30 l     F .text	00000050 mpi_check_small_factors
0000631c l     F .text	00000216 mpi_miller_rabin
00007ca0 l     O .rodata	000002a0 small_prime
00007f40 l     O .rodata	00000024 gcd_pairs
00000000 l    df *ABS*	00000000 bget_malloc.c
00006cc0 l     F .text	00000030 raw_malloc_return_hook.isra.3
00006cf0 l     F .text	000000d8 create_free_block.constprop.11
00006efc l     F .text	00000038 raw_malloc.constprop.15
000087b3 l     O .rodata	00000012 __func__.5854
000087c5 l     O .rodata	00000005 __func__.5710
000087ca l     O .rodata	00000006 __func__.5725
000087d0 l     O .rodata	00000005 __func__.5742
000087d5 l     O .rodata	00000006 __func__.5734
000087db l     O .rodata	00000006 __func__.5751
000087e1 l     O .rodata	00000007 __func__.5761
000087e8 l     O .rodata	0000000d __func__.5890
000087f5 l     O .rodata	0000000c __func__.5864
00008801 l     O .rodata	0000000b __func__.5875
0000880c l     O .rodata	00000010 __func__.5942
0000881c l     O .rodata	0000000e __func__.5896
0000882a l     O .rodata	00000013 __func__.5802
0000c0b0 l     O .bss	00000038 mstats
0000c0e8 l     O .bss	00000004 malloc_pool_len
0000c0ec l     O .bss	00000004 malloc_pool
0000a064 l     O .data	0000001c malloc_poolset
00000000 l    df *ABS*	00000000 mempool.c
00008c45 l     O .rodata	00000013 __func__.5618
00008c58 l     O .rodata	0000000e __func__.5627
00000000 l    df *ABS*	00000000 assert.c
00000000 l    df *ABS*	00000000 memcpy.c
00000000 l    df *ABS*	00000000 memset.c
00000000 l    df *ABS*	00000000 aeabi_unwind.c
00000000 l    df *ABS*	00000000 memchr.c
00000000 l    df *ABS*	00000000 strlen.c
00000000 l    df *ABS*	00000000 arm32_aeabi_ldivmod.c
00000000 l    df *ABS*	00000000 tee_api_panic.c
00000000 l    df *ABS*	00000000 snprintf.c
00000000 l    df *ABS*	00000000 memcmp.c
00000000 l    df *ABS*	00000000 memmove.c
00000000 l    df *ABS*	00000000 buf_compare_ct.c
00000000 l    df *ABS*	00000000 
000095b4 l     O *ABS*	00000000 _DYNAMIC
00009480 l     O *ABS*	00000000 _GLOBAL_OFFSET_TABLE_
00007c48 l     F .text	00000010 __utee_log_from_thumb
00007c58 l     F .text	00000010 __utee_check_access_rights_from_thumb
00007c68 l     F .text	00000010 __utee_cache_operation_from_thumb
00007c78 l     F .text	00000010 __utee_panic_from_thumb
00000d60 g     F .text	00000022 putchar
000012d0 g     F .text	00000070 TEE_PopulateTransientObject
000043b2 g     F .text	00000004 TEE_BigIntConvertToFMM
000040f4 g     F .text	00000008 TEE_BigIntSquareMod
00003d28 g     F .text	000000f4 TEE_BigIntShiftRight
00003364 g     F .text	00000018 utee_storage_obj_create
00004ac8 g     F .text	000000a8 mbedtls_mpi_grow
00007aa8 g     F .text	000000ec __l_divmod
00002fe4 g     F .text	00000014 utee_return
000021fc g     F .text	00000030 TEE_DigestUpdate
0000104c g     F .text	00000004 TEE_Realloc
00002064 g     F .text	000000f4 TEE_SetOperationKey2
00000d02 g     F .text	0000003a printf
00002ff8 g     F .text	00000014 utee_log
00001340 g     F .text	00000022 TEE_InitRefAttribute
00000e6a g     F .text	00000066 TEE_InvokeTACommand
00004a42 g     F .text	00000026 mbedtls_mpi_init_mempool
00004f3c g     F .text	00000046 mbedtls_mpi_write_binary
000027dc g     F .text	00000118 TEE_AEEncryptFinal
00000c90 g     F .text	0000000e vsnprintk
000053c6 g     F .text	00000030 mbedtls_mpi_sub_int
00007be2 g     F .text	00000034 memmove
00007b98 g     F .text	0000001e snprintf
00003c18 g     F .text	00000026 TEE_BigIntCmpS32
00001362 g     F .text	00000022 TEE_InitValueAttribute
00004b70 g     F .text	000000cc mbedtls_mpi_shrink
00007a02 g     F .text	00000002 __aeabi_unwind_cpp_pr0
00003e68 g     F .text	0000001c TEE_BigIntAdd
00003038 g     F .text	00000014 utee_get_property_name_to_index
00007c98 g     O .rodata	00000004 ta_heap_size
000012a0 g     F .text	00000030 TEE_ResetTransientObject
0000311c g     F .text	00000018 utee_cryp_state_alloc
000032ec g     F .text	00000018 utee_authenc_enc_final
000054f0 g     F .text	0000012c mbedtls_mpi_read_string
0000229c g     F .text	00000056 TEE_CipherInit
00003ea0 g     F .text	00000058 TEE_BigIntNeg
00000020 g       .text	00000000 __text_start
00001640 g     F .text	0000002c TEE_StartPersistentObjectEnumerator
0000501a g     F .text	00000078 mbedtls_mpi_shift_r
00007850 g     F .text	0000004c malloc_buffer_overlaps_heap
000040bc g     F .text	0000001c TEE_BigIntSubMod
0000685e g     F .text	00000136 mbedtls_mpi_gen_prime
00004dea g     F .text	00000020 mbedtls_mpi_get_bit
00004ed6 g     F .text	00000066 mbedtls_mpi_read_binary
00002658 g     F .text	00000070 TEE_AEInit
00000320 g     F .text	0000013c trace_printf
00005ca8 g     F .text	000000c4 mbedtls_mpi_montmul
000079dc g     F .text	00000016 memcpy
00003148 g     F .text	00000014 utee_cryp_state_free
000043b6 g     F .text	0000004a TEE_BigIntConvertFromFMM
00007b94 g     F .text	00000004 TEE_Panic
00000cd0 g     F .text	00000018 __aeabi_uldivmod
00002158 g     F .text	000000a4 TEE_CopyOperation
00000d3c g     F .text	00000024 puts
00004400 g     F .text	000000a0 TEE_BigIntComputeFMM
00007318 g     F .text	00000020 malloc_get_stats
000031c8 g     F .text	00000018 utee_cipher_final
00000fec g     F .text	00000016 TEE_GetREETime
000015e0 g     F .text	00000038 TEE_AllocatePersistentObjectEnumerator
0000a004 g     O .data	00000054 ta_props
000029fc g     F .text	000000bc TEE_AsymmetricEncrypt
00007338 g     F .text	00000002 malloc
00003230 g     F .text	00000014 utee_cryp_obj_close
0000141c g     F .text	00000048 TEE_GenerateKey
00007bb6 g     F .text	0000000e vsnprintf
0000a000 g     O .data	00000004 trace_level
00003be4 g     F .text	00000034 TEE_BigIntCmp
00007c88 g     O .rodata	00000004 ta_num_props
00007188 g     F .text	0000007c bgetr
000032d4 g     F .text	00000018 utee_authenc_update_payload
00007970 g     F .text	0000002e mempool_free
000022f2 g     F .text	000000e6 TEE_CipherUpdate
00003afc g     F .text	00000058 TEE_BigIntConvertToOctetString
00001ee2 g     F .text	000000b6 TEE_GetOperationInfoMultiple
0000346c g     F .text	00000014 utee_cache_operation
00004e88 g     F .text	00000042 mbedtls_mpi_bitlen
000032a8 g     F .text	00000018 utee_authenc_init
00003e1c g     F .text	0000002a TEE_BigIntGetBit
00007c9c g     O .rodata	00000003 trace_ext_prefix
00006f34 g     F .text	0000005c bgetz
00000f3c g     F .text	0000000c TEE_GetInstanceData
00000f6a g     F .text	0000001e TEE_Wait
0000341c g     F .text	00000014 utee_storage_obj_write
000053f6 g     F .text	000000dc mbedtls_mpi_mul_mpi
00007a06 g     F .text	00000002 __aeabi_unwind_cpp_pr2
0000105a g     F .text	00000006 TEE_CacheFlush
00000024 g     F .text	00000002 TA_DestroyEntryPoint
00004a30 g     F .text	00000012 mbedtls_mpi_init
00004e5a g     F .text	0000002e mbedtls_mpi_lsb
000079a0 g     F .text	00000028 _assert_log
000043ae g     F .text	00000004 TEE_BigIntFMMContextSizeInU32
000025f4 g     F .text	00000064 TEE_MACCompareFinal
0000159a g     F .text	00000046 TEE_RenamePersistentObject
0000222c g     F .text	00000070 TEE_DigestDoFinal
00003a38 g     F .text	00000044 _TEE_MathAPI_Init
00005302 g     F .text	00000048 mbedtls_mpi_add_mpi
000033f4 g     F .text	00000014 utee_storage_next_enum
0000c0f0 g     O .bss	00008000 ta_heap
000040fc g     F .text	000000a4 TEE_BigIntInvMod
00000050 g     F .text	00000004 TA_CloseSessionEntryPoint
00002ab8 g     F .text	000000c0 TEE_AsymmetricDecrypt
00001464 g     F .text	00000064 TEE_OpenPersistentObject
0000534a g     F .text	0000004c mbedtls_mpi_sub_mpi
0000300c g     F .text	00000014 __utee_panic
00003134 g     F .text	00000014 utee_cryp_state_copy
00000054 g     F .text	0000024c TA_InvokeCommandEntryPoint
000078e0 g     F .text	0000006c mempool_alloc
0000321c g     F .text	00000014 utee_cryp_obj_alloc
00003108 g     F .text	00000014 utee_set_ta_time
00003208 g     F .text	00000014 utee_cryp_obj_get_attr
0000794c g     F .text	00000024 mempool_calloc
000013ec g     F .text	00000030 TEE_CopyObjectAttributes
0000734c g     F .text	00000048 calloc
00001002 g     F .text	0000004a TEE_Malloc
000030cc g     F .text	00000014 utee_mask_cancellation
00003244 g     F .text	00000014 utee_cryp_obj_reset
00000f24 g     F .text	0000000a TEE_CheckMemoryAccessRights
000140f0 g       .bss	00000000 __gprof_buf_end
00007a34 g     F .text	00000074 __ul_divmod
00004db2 g     F .text	00000038 mbedtls_mpi_lset
000016c0 g     F .text	00000040 TEE_ReadObjectData
00001138 g     F .text	00000070 TEE_GetObjectBufferAttribute
00000026 g     F .text	0000002a TA_OpenSessionEntryPoint
000033e0 g     F .text	00000014 utee_storage_start_enum
00001954 g     F .text	00000026 TEE_FreeOperation
00003390 g     F .text	00000014 utee_storage_obj_rename
0000a088 g     O .bss	00000004 ta_param_types
000059be g     F .text	0000002e mbedtls_mpi_div_int
00001068 g     F .text	0000003a __utee_from_attr
00004370 g     F .text	00000030 TEE_BigIntIsProbablePrime
000054d2 g     F .text	0000001e mbedtls_mpi_mul_int
00001560 g     F .text	00000024 TEE_CloseAndDeletePersistentObject1
00005d90 g     F .text	00000446 mbedtls_mpi_exp_mod
00004cc0 g     F .text	0000006c mbedtls_mpi_safe_cond_assign
00003020 g     F .text	00000018 utee_get_property
000028f4 g     F .text	00000108 TEE_AEDecryptFinal
00003a7c g     F .text	00000040 TEE_BigIntInit
00000f48 g     F .text	00000004 TEE_MemMove
00003abc g     F .text	00000040 TEE_BigIntConvertFromOctetString
0000a058 g     O .data	00000004 _ref__utee_mcount
00005092 g     F .text	0000006e mbedtls_mpi_cmp_abs
000024e8 g     F .text	00000056 TEE_MACInit
00002b78 g     F .text	000000b4 TEE_AsymmetricSignDigest
00007a08 g     F .text	0000001c memchr
00000eec g     F .text	0000001c TEE_UnmaskCancellation
000010a2 g     F .text	0000002a TEE_GetObjectInfo
00006994 g     F .text	0000032c mbedtls_mpi_self_test
0000337c g     F .text	00000014 utee_storage_obj_del
0000270e g     F .text	000000ce TEE_AEUpdate
00003444 g     F .text	00000014 utee_storage_obj_seek
00001270 g     F .text	00000030 TEE_FreeTransientObject
00005196 g     F .text	00000030 mbedtls_mpi_cmp_int
00003170 g     F .text	00000014 utee_hash_update
00002da4 g     F .text	00000018 rand
00003480  w    F .text	0000000c __utee_mcount
00001ec0 g     F .text	00000022 TEE_GetOperationInfo
00004050 g     F .text	00000050 TEE_BigIntMod
00005a50 g     F .text	0000003a mbedtls_mpi_mod_int
00003064 g     F .text	00000014 utee_close_ta_session
00003fa2 g     F .text	000000ae TEE_BigIntDiv
00004c3c g     F .text	00000056 mbedtls_mpi_copy
00007304 g     F .text	00000014 malloc_reset_stats
000031b0 g     F .text	00000018 utee_cipher_update
000010ec g     F .text	00000020 TEE_RestrictObjectUsage1
00007394 g     F .text	00000038 realloc
00004c92 g     F .text	0000002e mbedtls_mpi_swap
0000789c g     F .text	00000044 mempool_alloc_pool
00003334 g     F .text	00000018 utee_asymm_verify
00003ef8 g     F .text	000000a4 TEE_BigIntMul
00001f98 g     F .text	00000040 TEE_ResetOperation
00004f82 g     F .text	00000098 mbedtls_mpi_shift_l
00005100 g     F .text	00000096 mbedtls_mpi_cmp_mpi
00000f50 g     F .text	00000004 TEE_MemFill
00007bc4 g     F .text	0000001e memcmp
0000767c g     F .text	000000f8 malloc_add_pool
0000253e g     F .text	0000004e TEE_MACUpdate
0000030c g     F .text	00000014 trace_get_level
000051c6 g     F .text	000000bc mbedtls_mpi_add_abs
00003294 g     F .text	00000014 utee_cryp_random_number_generate
0000110c g     F .text	0000002c TEE_RestrictObjectUsage
000043a6 g     F .text	00000008 TEE_BigIntFMMSizeInU32
000043a0 g     F .text	00000004 TEE_BigIntInitFMM
0000331c g     F .text	00000018 utee_asymm_operate
0000122c g     F .text	00000014 TEE_CloseObject
00002e40 g     F .text	00000190 __utee_entry
00007c88 g       .text	00000000 __text_end
000041a0 g     F .text	0000007c TEE_BigIntRelativePrime
000059ec g     F .text	00000064 mbedtls_mpi_mod_mpi
00007204 g     F .text	0000009c bpool
00000ed0 g     F .text	0000001c TEE_GetCancellationFlag
000061d6 g     F .text	00000114 mbedtls_mpi_gcd
00000fc4 g     F .text	00000028 TEE_SetTAPersistentTime
000079f2 g     F .text	00000010 memset
00000f88 g     F .text	0000003c TEE_GetTAPersistentTime
0000045c g     F .text	00000100 dhex_dump
000014c8 g     F .text	00000098 TEE_CreatePersistentObject
00000f08 g     F .text	0000001c TEE_MaskCancellation
000026c8 g     F .text	00000046 TEE_AEUpdateAAD
00003408 g     F .text	00000014 utee_storage_obj_read
00001740 g     F .text	00000038 TEE_TruncateObjectData
00003258 g     F .text	00000014 utee_cryp_obj_populate
000010cc g     F .text	00000020 TEE_GetObjectInfo1
000002ee g     F .text	0000001e trace_set_level
000031e0 g     F .text	00000014 utee_cryp_obj_get_info
000011a8 g     F .text	00000084 TEE_GetObjectValueAttribute
00001fd8 g     F .text	0000008c TEE_SetOperationKey
000033a4 g     F .text	00000014 utee_storage_alloc_enum
000033cc g     F .text	00000014 utee_storage_reset_enum
00003430 g     F .text	00000014 utee_storage_obj_trunc
00003b8c g     F .text	00000058 TEE_BigIntConvertToS32
00003e84 g     F .text	0000001c TEE_BigIntSub
00003090 g     F .text	00000014 utee_get_cancellation_flag
0000315c g     F .text	00000014 utee_hash_init
000079d8 g     F .text	00000004 tahead_get_trace_level
00000d84 g     F .text	00000050 __utee_from_param
00001778 g     F .text	0000007c TEE_SeekObjectData
00000dd4 g     F .text	0000003e __utee_to_param
00005d6c g     F .text	00000024 mbedtls_mpi_montred
000073cc g     F .text	000002b0 memalign
000023d8 g     F .text	00000110 TEE_CipherDoFinal
00003b54 g     F .text	00000038 TEE_BigIntConvertFromS32
00005396 g     F .text	00000030 mbedtls_mpi_add_int
000031f4 g     F .text	00000014 utee_cryp_obj_restrict_usage
00007774 g     F .text	000000dc malloc_buffer_is_within_alloced
0000326c g     F .text	00000014 utee_cryp_obj_copy
000043a4 g     F .text	00000002 TEE_BigIntInitFMMContext
00003280 g     F .text	00000014 utee_cryp_derive_key
00003304 g     F .text	00000018 utee_authenc_dec_final
00001700 g     F .text	00000040 TEE_WriteObjectData
0000162c g     F .text	00000014 TEE_ResetPersistentObjectEnumerator
00003f9c g     F .text	00000006 TEE_BigIntSquare
00000020 g     F .text	00000004 TA_CreateEntryPoint
00005c80 g     F .text	00000028 mbedtls_mpi_montg_init
00000c9e g     F .text	0000001a snprintk
00003e46 g     F .text	00000022 TEE_BigIntGetBitCount
000040d8 g     F .text	0000001c TEE_BigIntMulMod
00006532 g     F .text	000002d0 mbedtls_mpi_inv_mod
00002cd8 g     F .text	000000ba TEE_DeriveKey
0000a08c g     O .bss	00000020 ta_params
0000561c g     F .text	000003a2 mbedtls_mpi_div_mpi
00004eca g     F .text	0000000c mbedtls_mpi_size
00006dc8 g     F .text	00000134 bget
00001240 g     F .text	00000030 TEE_AllocateTransientObject
00004e0a g     F .text	00000050 mbedtls_mpi_set_bit
00004a68 g     F .text	00000012 mbedtls_mpi_init_static
00001050 g     F .text	00000004 TEE_Free
00006802 g     F .text	0000005c mbedtls_mpi_is_prime
00001060 g     F .text	00000006 TEE_CacheInvalidate
0000319c g     F .text	00000014 utee_cipher_init
000079c8 g     F .text	00000010 _assert_break
000040a0 g     F .text	0000001c TEE_BigIntAddMod
000033b8 g     F .text	00000014 utee_storage_free_enum
000032c0 g     F .text	00000014 utee_authenc_update_aad
0000197a g     F .text	00000546 TEE_AllocateOperation
00002d92 g     F .text	00000012 TEE_GenerateRandom
00000f4c g     F .text	00000004 TEE_MemCompare
0000055c g     F .text	00000734 __vsnprintf
00001618 g     F .text	00000014 TEE_FreePersistentObjectEnumerator
00002fd0 g     F .text	00000014 utee_panic
00000e12 g     F .text	00000044 TEE_OpenTASession
00000ce8 g     F .text	00000014 trace_ext_puts
00000cfc g     F .text	00000006 trace_ext_get_thread_id
00001584 g     F .text	00000016 TEE_CloseAndDeletePersistentObject
00004a7a g     F .text	0000004e mbedtls_mpi_free
00001054 g     F .text	00000006 TEE_CacheClean
0000304c g     F .text	00000018 utee_open_ta_session
00007c16 g     F .text	0000002c buf_compare_ct
00004d2c g     F .text	00000086 mbedtls_mpi_safe_cond_swap
00001384 g     F .text	00000068 TEE_CopyObjectAttributes1
00003184 g     F .text	00000018 utee_hash_final
00007a24 g     F .text	00000010 strlen
0000421c g     F .text	00000154 TEE_BigIntComputeExtendedGcd
00007a04 g     F .text	00000002 __aeabi_unwind_cpp_pr1
0000334c g     F .text	00000018 utee_storage_obj_open
00003078 g     F .text	00000018 utee_invoke_ta_command
000030e0 g     F .text	00000014 utee_wait
00000f54 g     F .text	00000016 TEE_GetSystemTime
00000000 g     O .ta_head	00000020 ta_head
00006f90 g     F .text	000001f8 brel
00005282 g     F .text	00000080 mbedtls_mpi_sub_abs
000030f4 g     F .text	00000014 utee_get_time
000062ea g     F .text	00000032 mbedtls_mpi_fill_random
00000f2e g     F .text	0000000e TEE_SetInstanceData
000030b8 g     F .text	00000014 utee_unmask_cancellation
00000cb8 g     F .text	00000018 __aeabi_ldivmod
000030a4 g     F .text	00000014 utee_check_access_rights
00005af6 g     F .text	0000013a mbedtls_mpi_write_string
0000166c g     F .text	00000054 TEE_GetNextPersistentObject
00003458 g     F .text	00000014 utee_cryp_obj_generate_key
00000e56 g     F .text	00000014 TEE_CloseTASession
00002c2c g     F .text	000000ac TEE_AsymmetricVerifyDigest
000140f0 g       .bss	00000000 __gprof_buf_start
0000733a g     F .text	00000012 free
000072a0 g     F .text	00000064 bstats
0000258c g     F .text	00000068 TEE_MACComputeFinal
0000c0ac g     O .bss	00000004 mbedtls_mpi_mempool



Disassembly of section .text:

00000020 <TA_CreateEntryPoint>:
TA_CreateEntryPoint():
/workspace/benchmark/hotp/ta/hotp_ta.c:202
      20:	2000      	movs	r0, #0
      22:	4770      	bx	lr

00000024 <TA_DestroyEntryPoint>:
TA_DestroyEntryPoint():
/workspace/benchmark/hotp/ta/hotp_ta.c:205
      24:	4770      	bx	lr

00000026 <TA_OpenSessionEntryPoint>:
TA_OpenSessionEntryPoint():
/workspace/benchmark/hotp/ta/hotp_ta.c:211
      26:	b538      	push	{r3, r4, r5, lr}
      28:	4615      	mov	r5, r2
/workspace/benchmark/hotp/ta/hotp_ta.c:218
      2a:	4604      	mov	r4, r0
      2c:	b938      	cbnz	r0, 3e <TA_OpenSessionEntryPoint+0x18>
/workspace/benchmark/hotp/ta/hotp_ta.c:224
      2e:	4601      	mov	r1, r0
      30:	204c      	movs	r0, #76	; 0x4c
      32:	f000 ffe6 	bl	1002 <TEE_Malloc>
/workspace/benchmark/hotp/ta/hotp_ta.c:225
      36:	b120      	cbz	r0, 42 <TA_OpenSessionEntryPoint+0x1c>
/workspace/benchmark/hotp/ta/hotp_ta.c:228
      38:	6028      	str	r0, [r5, #0]
/workspace/benchmark/hotp/ta/hotp_ta.c:230
      3a:	4620      	mov	r0, r4
      3c:	bd38      	pop	{r3, r4, r5, pc}
/workspace/benchmark/hotp/ta/hotp_ta.c:219
      3e:	4802      	ldr	r0, [pc, #8]	; (48 <TA_OpenSessionEntryPoint+0x22>)
      40:	bd38      	pop	{r3, r4, r5, pc}
/workspace/benchmark/hotp/ta/hotp_ta.c:226
      42:	4802      	ldr	r0, [pc, #8]	; (4c <TA_OpenSessionEntryPoint+0x26>)
/workspace/benchmark/hotp/ta/hotp_ta.c:231
      44:	bd38      	pop	{r3, r4, r5, pc}
      46:	bf00      	nop
      48:	ffff0006 	.word	0xffff0006
      4c:	ffff000c 	.word	0xffff000c

00000050 <TA_CloseSessionEntryPoint>:
TA_CloseSessionEntryPoint():
/workspace/benchmark/hotp/ta/hotp_ta.c:235
      50:	f000 bffe 	b.w	1050 <TEE_Free>

00000054 <TA_InvokeCommandEntryPoint>:
TA_InvokeCommandEntryPoint():
/workspace/benchmark/hotp/ta/hotp_ta.c:242
      54:	e92d 47f0 	stmdb	sp!, {r4, r5, r6, r7, r8, r9, sl, lr}
      58:	4606      	mov	r6, r0
      5a:	461d      	mov	r5, r3
      5c:	b090      	sub	sp, #64	; 0x40
/workspace/benchmark/hotp/ta/hotp_ta.c:243
      5e:	460f      	mov	r7, r1
      60:	b119      	cbz	r1, 6a <TA_InvokeCommandEntryPoint+0x16>
      62:	2901      	cmp	r1, #1
      64:	d02f      	beq.n	c6 <TA_InvokeCommandEntryPoint+0x72>
register_shared_key():
/workspace/benchmark/hotp/ta/hotp_ta.c:150
      66:	4c7a      	ldr	r4, [pc, #488]	; (250 <TA_InvokeCommandEntryPoint+0x1fc>)
      68:	e029      	b.n	be <TA_InvokeCommandEntryPoint+0x6a>
/workspace/benchmark/hotp/ta/hotp_ta.c:144
      6a:	2a05      	cmp	r2, #5
      6c:	d00d      	beq.n	8a <TA_InvokeCommandEntryPoint+0x36>
/workspace/benchmark/hotp/ta/hotp_ta.c:145
      6e:	2305      	movs	r3, #5
      70:	9301      	str	r3, [sp, #4]
      72:	4b7b      	ldr	r3, [pc, #492]	; (260 <TA_InvokeCommandEntryPoint+0x20c>)
      74:	2191      	movs	r1, #145	; 0x91
      76:	487b      	ldr	r0, [pc, #492]	; (264 <TA_InvokeCommandEntryPoint+0x210>)
      78:	447b      	add	r3, pc
      7a:	9300      	str	r3, [sp, #0]
      7c:	2301      	movs	r3, #1
      7e:	9202      	str	r2, [sp, #8]
      80:	4478      	add	r0, pc
      82:	461a      	mov	r2, r3
get_hotp():
/workspace/benchmark/hotp/ta/hotp_ta.c:176
      84:	f000 f94c 	bl	320 <trace_printf>
      88:	e7ed      	b.n	66 <TA_InvokeCommandEntryPoint+0x12>
register_shared_key():
/workspace/benchmark/hotp/ta/hotp_ta.c:149
      8a:	685b      	ldr	r3, [r3, #4]
      8c:	2b40      	cmp	r3, #64	; 0x40
      8e:	d8ea      	bhi.n	66 <TA_InvokeCommandEntryPoint+0x12>
/workspace/benchmark/hotp/ta/hotp_ta.c:152
      90:	2240      	movs	r2, #64	; 0x40
/workspace/benchmark/hotp/ta/hotp_ta.c:158
      92:	463c      	mov	r4, r7
/workspace/benchmark/hotp/ta/hotp_ta.c:152
      94:	f007 fcad 	bl	79f2 <memset>
/workspace/benchmark/hotp/ta/hotp_ta.c:153
      98:	4630      	mov	r0, r6
      9a:	e895 0006 	ldmia.w	r5, {r1, r2}
      9e:	f007 fc9d 	bl	79dc <memcpy>
/workspace/benchmark/hotp/ta/hotp_ta.c:155
      a2:	686b      	ldr	r3, [r5, #4]
/workspace/benchmark/hotp/ta/hotp_ta.c:156
      a4:	2203      	movs	r2, #3
/workspace/benchmark/hotp/ta/hotp_ta.c:155
      a6:	6433      	str	r3, [r6, #64]	; 0x40
/workspace/benchmark/hotp/ta/hotp_ta.c:156
      a8:	219c      	movs	r1, #156	; 0x9c
      aa:	9302      	str	r3, [sp, #8]
      ac:	486e      	ldr	r0, [pc, #440]	; (268 <TA_InvokeCommandEntryPoint+0x214>)
      ae:	4b6f      	ldr	r3, [pc, #444]	; (26c <TA_InvokeCommandEntryPoint+0x218>)
      b0:	9601      	str	r6, [sp, #4]
      b2:	4478      	add	r0, pc
      b4:	447b      	add	r3, pc
      b6:	9300      	str	r3, [sp, #0]
      b8:	2301      	movs	r3, #1
      ba:	f000 f931 	bl	320 <trace_printf>
TA_InvokeCommandEntryPoint():
/workspace/benchmark/hotp/ta/hotp_ta.c:253
      be:	4620      	mov	r0, r4
      c0:	b010      	add	sp, #64	; 0x40
      c2:	e8bd 87f0 	ldmia.w	sp!, {r4, r5, r6, r7, r8, r9, sl, pc}
get_hotp():
/workspace/benchmark/hotp/ta/hotp_ta.c:167
      c6:	2314      	movs	r3, #20
/workspace/benchmark/hotp/ta/hotp_ta.c:175
      c8:	2a02      	cmp	r2, #2
/workspace/benchmark/hotp/ta/hotp_ta.c:167
      ca:	9305      	str	r3, [sp, #20]
/workspace/benchmark/hotp/ta/hotp_ta.c:175
      cc:	d00c      	beq.n	e8 <TA_InvokeCommandEntryPoint+0x94>
/workspace/benchmark/hotp/ta/hotp_ta.c:176
      ce:	4868      	ldr	r0, [pc, #416]	; (270 <TA_InvokeCommandEntryPoint+0x21c>)
      d0:	2302      	movs	r3, #2
      d2:	9301      	str	r3, [sp, #4]
      d4:	4b67      	ldr	r3, [pc, #412]	; (274 <TA_InvokeCommandEntryPoint+0x220>)
      d6:	4478      	add	r0, pc
      d8:	9202      	str	r2, [sp, #8]
      da:	3014      	adds	r0, #20
      dc:	447b      	add	r3, pc
      de:	460a      	mov	r2, r1
      e0:	9300      	str	r3, [sp, #0]
      e2:	460b      	mov	r3, r1
      e4:	21b0      	movs	r1, #176	; 0xb0
      e6:	e7cd      	b.n	84 <TA_InvokeCommandEntryPoint+0x30>
hmac_sha1():
/workspace/benchmark/hotp/ta/hotp_ta.c:51
      e8:	f10d 0820 	add.w	r8, sp, #32
get_hotp():
/workspace/benchmark/hotp/ta/hotp_ta.c:180
      ec:	f8d0 9040 	ldr.w	r9, [r0, #64]	; 0x40
hmac_sha1():
/workspace/benchmark/hotp/ta/hotp_ta.c:51
      f0:	2300      	movs	r3, #0
      f2:	9308      	str	r3, [sp, #32]
/workspace/benchmark/hotp/ta/hotp_ta.c:52
      f4:	9306      	str	r3, [sp, #24]
/workspace/benchmark/hotp/ta/hotp_ta.c:51
      f6:	f8c8 3004 	str.w	r3, [r8, #4]
      fa:	f8c8 3008 	str.w	r3, [r8, #8]
/workspace/benchmark/hotp/ta/hotp_ta.c:53
      fe:	9307      	str	r3, [sp, #28]
/workspace/benchmark/hotp/ta/hotp_ta.c:56
     100:	f1a9 030a 	sub.w	r3, r9, #10
     104:	2b36      	cmp	r3, #54	; 0x36
     106:	f200 80a0 	bhi.w	24a <TA_InvokeCommandEntryPoint+0x1f6>
/workspace/benchmark/hotp/ta/hotp_ta.c:67
     10a:	ea4f 0ac9 	mov.w	sl, r9, lsl #3
     10e:	2204      	movs	r2, #4
     110:	4653      	mov	r3, sl
     112:	4950      	ldr	r1, [pc, #320]	; (254 <TA_InvokeCommandEntryPoint+0x200>)
     114:	a807      	add	r0, sp, #28
     116:	f001 fc30 	bl	197a <TEE_AllocateOperation>
/workspace/benchmark/hotp/ta/hotp_ta.c:69
     11a:	4604      	mov	r4, r0
     11c:	2800      	cmp	r0, #0
     11e:	d046      	beq.n	1ae <TA_InvokeCommandEntryPoint+0x15a>
/workspace/benchmark/hotp/ta/hotp_ta.c:70
     120:	9001      	str	r0, [sp, #4]
     122:	463a      	mov	r2, r7
     124:	4b54      	ldr	r3, [pc, #336]	; (278 <TA_InvokeCommandEntryPoint+0x224>)
     126:	2146      	movs	r1, #70	; 0x46
     128:	4854      	ldr	r0, [pc, #336]	; (27c <TA_InvokeCommandEntryPoint+0x228>)
     12a:	447b      	add	r3, pc
     12c:	9300      	str	r3, [sp, #0]
     12e:	4478      	add	r0, pc
     130:	463b      	mov	r3, r7
/workspace/benchmark/hotp/ta/hotp_ta.c:81
     132:	301d      	adds	r0, #29
     134:	f000 f8f4 	bl	320 <trace_printf>
/workspace/benchmark/hotp/ta/hotp_ta.c:110
     138:	9807      	ldr	r0, [sp, #28]
     13a:	b108      	cbz	r0, 140 <TA_InvokeCommandEntryPoint+0xec>
/workspace/benchmark/hotp/ta/hotp_ta.c:111
     13c:	f001 fc0a 	bl	1954 <TEE_FreeOperation>
/workspace/benchmark/hotp/ta/hotp_ta.c:114
     140:	9806      	ldr	r0, [sp, #24]
     142:	f001 f895 	bl	1270 <TEE_FreeTransientObject>
     146:	f106 024b 	add.w	r2, r6, #75	; 0x4b
     14a:	3643      	adds	r6, #67	; 0x43
get_hotp():
/workspace/benchmark/hotp/ta/hotp_ta.c:185
     14c:	7813      	ldrb	r3, [r2, #0]
     14e:	3301      	adds	r3, #1
     150:	b2db      	uxtb	r3, r3
     152:	f802 3901 	strb.w	r3, [r2], #-1
     156:	b90b      	cbnz	r3, 15c <TA_InvokeCommandEntryPoint+0x108>
/workspace/benchmark/hotp/ta/hotp_ta.c:184
     158:	4296      	cmp	r6, r2
     15a:	d1f7      	bne.n	14c <TA_InvokeCommandEntryPoint+0xf8>
truncate():
/workspace/benchmark/hotp/ta/hotp_ta.c:126
     15c:	f89d 203f 	ldrb.w	r2, [sp, #63]	; 0x3f
     160:	ab10      	add	r3, sp, #64	; 0x40
get_hotp():
/workspace/benchmark/hotp/ta/hotp_ta.c:190
     162:	4847      	ldr	r0, [pc, #284]	; (280 <TA_InvokeCommandEntryPoint+0x22c>)
truncate():
/workspace/benchmark/hotp/ta/hotp_ta.c:126
     164:	f002 020f 	and.w	r2, r2, #15
     168:	441a      	add	r2, r3
get_hotp():
/workspace/benchmark/hotp/ta/hotp_ta.c:190
     16a:	4478      	add	r0, pc
     16c:	3014      	adds	r0, #20
truncate():
/workspace/benchmark/hotp/ta/hotp_ta.c:126
     16e:	f812 3c14 	ldrb.w	r3, [r2, #-20]
/workspace/benchmark/hotp/ta/hotp_ta.c:127
     172:	f812 1c13 	ldrb.w	r1, [r2, #-19]
/workspace/benchmark/hotp/ta/hotp_ta.c:126
     176:	061b      	lsls	r3, r3, #24
     178:	f003 43fe 	and.w	r3, r3, #2130706432	; 0x7f000000
     17c:	ea43 4301 	orr.w	r3, r3, r1, lsl #16
/workspace/benchmark/hotp/ta/hotp_ta.c:129
     180:	f812 1c11 	ldrb.w	r1, [r2, #-17]
/workspace/benchmark/hotp/ta/hotp_ta.c:128
     184:	f812 2c12 	ldrb.w	r2, [r2, #-18]
     188:	430b      	orrs	r3, r1
get_hotp():
/workspace/benchmark/hotp/ta/hotp_ta.c:190
     18a:	21be      	movs	r1, #190	; 0xbe
truncate():
/workspace/benchmark/hotp/ta/hotp_ta.c:128
     18c:	ea43 2302 	orr.w	r3, r3, r2, lsl #8
/workspace/benchmark/hotp/ta/hotp_ta.c:131
     190:	4a31      	ldr	r2, [pc, #196]	; (258 <TA_InvokeCommandEntryPoint+0x204>)
     192:	fbb3 f6f2 	udiv	r6, r3, r2
     196:	fb02 3616 	mls	r6, r2, r6, r3
get_hotp():
/workspace/benchmark/hotp/ta/hotp_ta.c:190
     19a:	4b3a      	ldr	r3, [pc, #232]	; (284 <TA_InvokeCommandEntryPoint+0x230>)
     19c:	9601      	str	r6, [sp, #4]
     19e:	2203      	movs	r2, #3
     1a0:	447b      	add	r3, pc
     1a2:	9300      	str	r3, [sp, #0]
     1a4:	2301      	movs	r3, #1
     1a6:	f000 f8bb 	bl	320 <trace_printf>
/workspace/benchmark/hotp/ta/hotp_ta.c:191
     1aa:	602e      	str	r6, [r5, #0]
TA_InvokeCommandEntryPoint():
/workspace/benchmark/hotp/ta/hotp_ta.c:248
     1ac:	e787      	b.n	be <TA_InvokeCommandEntryPoint+0x6a>
hmac_sha1():
/workspace/benchmark/hotp/ta/hotp_ta.c:78
     1ae:	aa06      	add	r2, sp, #24
     1b0:	4651      	mov	r1, sl
     1b2:	482a      	ldr	r0, [pc, #168]	; (25c <TA_InvokeCommandEntryPoint+0x208>)
     1b4:	f001 f844 	bl	1240 <TEE_AllocateTransientObject>
/workspace/benchmark/hotp/ta/hotp_ta.c:80
     1b8:	4604      	mov	r4, r0
     1ba:	b148      	cbz	r0, 1d0 <TA_InvokeCommandEntryPoint+0x17c>
/workspace/benchmark/hotp/ta/hotp_ta.c:81
     1bc:	9001      	str	r0, [sp, #4]
     1be:	463a      	mov	r2, r7
     1c0:	4b31      	ldr	r3, [pc, #196]	; (288 <TA_InvokeCommandEntryPoint+0x234>)
     1c2:	2151      	movs	r1, #81	; 0x51
     1c4:	4831      	ldr	r0, [pc, #196]	; (28c <TA_InvokeCommandEntryPoint+0x238>)
     1c6:	447b      	add	r3, pc
     1c8:	9300      	str	r3, [sp, #0]
     1ca:	4478      	add	r0, pc
     1cc:	463b      	mov	r3, r7
     1ce:	e7b0      	b.n	132 <TA_InvokeCommandEntryPoint+0xde>
/workspace/benchmark/hotp/ta/hotp_ta.c:89
     1d0:	464b      	mov	r3, r9
     1d2:	4632      	mov	r2, r6
     1d4:	f04f 4140 	mov.w	r1, #3221225472	; 0xc0000000
     1d8:	4640      	mov	r0, r8
     1da:	f001 f8b1 	bl	1340 <TEE_InitRefAttribute>
/workspace/benchmark/hotp/ta/hotp_ta.c:92
     1de:	463a      	mov	r2, r7
     1e0:	4641      	mov	r1, r8
     1e2:	9806      	ldr	r0, [sp, #24]
     1e4:	f001 f874 	bl	12d0 <TEE_PopulateTransientObject>
/workspace/benchmark/hotp/ta/hotp_ta.c:93
     1e8:	4604      	mov	r4, r0
     1ea:	b148      	cbz	r0, 200 <TA_InvokeCommandEntryPoint+0x1ac>
/workspace/benchmark/hotp/ta/hotp_ta.c:94
     1ec:	9001      	str	r0, [sp, #4]
     1ee:	463a      	mov	r2, r7
     1f0:	4b27      	ldr	r3, [pc, #156]	; (290 <TA_InvokeCommandEntryPoint+0x23c>)
     1f2:	215e      	movs	r1, #94	; 0x5e
     1f4:	4827      	ldr	r0, [pc, #156]	; (294 <TA_InvokeCommandEntryPoint+0x240>)
     1f6:	447b      	add	r3, pc
     1f8:	9300      	str	r3, [sp, #0]
     1fa:	4478      	add	r0, pc
     1fc:	463b      	mov	r3, r7
     1fe:	e798      	b.n	132 <TA_InvokeCommandEntryPoint+0xde>
/workspace/benchmark/hotp/ta/hotp_ta.c:99
     200:	9906      	ldr	r1, [sp, #24]
     202:	9807      	ldr	r0, [sp, #28]
     204:	f001 fee8 	bl	1fd8 <TEE_SetOperationKey>
/workspace/benchmark/hotp/ta/hotp_ta.c:100
     208:	4604      	mov	r4, r0
     20a:	b148      	cbz	r0, 220 <TA_InvokeCommandEntryPoint+0x1cc>
/workspace/benchmark/hotp/ta/hotp_ta.c:101
     20c:	9001      	str	r0, [sp, #4]
     20e:	463a      	mov	r2, r7
     210:	4b21      	ldr	r3, [pc, #132]	; (298 <TA_InvokeCommandEntryPoint+0x244>)
     212:	2165      	movs	r1, #101	; 0x65
     214:	4821      	ldr	r0, [pc, #132]	; (29c <TA_InvokeCommandEntryPoint+0x248>)
     216:	447b      	add	r3, pc
     218:	9300      	str	r3, [sp, #0]
     21a:	4478      	add	r0, pc
     21c:	463b      	mov	r3, r7
     21e:	e788      	b.n	132 <TA_InvokeCommandEntryPoint+0xde>
/workspace/benchmark/hotp/ta/hotp_ta.c:106
     220:	4602      	mov	r2, r0
     222:	4601      	mov	r1, r0
     224:	9807      	ldr	r0, [sp, #28]
     226:	f002 f95f 	bl	24e8 <TEE_MACInit>
/workspace/benchmark/hotp/ta/hotp_ta.c:107
     22a:	2208      	movs	r2, #8
     22c:	f106 0144 	add.w	r1, r6, #68	; 0x44
     230:	9807      	ldr	r0, [sp, #28]
     232:	f002 f984 	bl	253e <TEE_MACUpdate>
/workspace/benchmark/hotp/ta/hotp_ta.c:108
     236:	ab05      	add	r3, sp, #20
     238:	4622      	mov	r2, r4
     23a:	9300      	str	r3, [sp, #0]
     23c:	4621      	mov	r1, r4
     23e:	ab0b      	add	r3, sp, #44	; 0x2c
     240:	9807      	ldr	r0, [sp, #28]
     242:	f002 f9a3 	bl	258c <TEE_MACComputeFinal>
     246:	4604      	mov	r4, r0
     248:	e776      	b.n	138 <TA_InvokeCommandEntryPoint+0xe4>
/workspace/benchmark/hotp/ta/hotp_ta.c:57
     24a:	4c01      	ldr	r4, [pc, #4]	; (250 <TA_InvokeCommandEntryPoint+0x1fc>)
     24c:	e77b      	b.n	146 <TA_InvokeCommandEntryPoint+0xf2>
     24e:	bf00      	nop
     250:	ffff0006 	.word	0xffff0006
     254:	30000002 	.word	0x30000002
     258:	000f4240 	.word	0x000f4240
     25c:	a0000002 	.word	0xa0000002
     260:	00007f0f 	.word	0x00007f0f
     264:	00007ee0 	.word	0x00007ee0
     268:	00007eae 	.word	0x00007eae
     26c:	00007eed 	.word	0x00007eed
     270:	00007e8a 	.word	0x00007e8a
     274:	00007eab 	.word	0x00007eab
     278:	00007e95 	.word	0x00007e95
     27c:	00007e32 	.word	0x00007e32
     280:	00007df6 	.word	0x00007df6
     284:	00007e26 	.word	0x00007e26
     288:	00007df9 	.word	0x00007df9
     28c:	00007d96 	.word	0x00007d96
     290:	00007dc9 	.word	0x00007dc9
     294:	00007d66 	.word	0x00007d66
     298:	00007da9 	.word	0x00007da9
     29c:	00007d46 	.word	0x00007d46

000002a0 <append>:
append():
/mnt/disk/raspbian-tee/optee_os/lib/libutils/ext/trace.c:198
     2a0:	b40e      	push	{r1, r2, r3}
/mnt/disk/raspbian-tee/optee_os/lib/libutils/ext/trace.c:203
     2a2:	f8d0 3100 	ldr.w	r3, [r0, #256]	; 0x100
/mnt/disk/raspbian-tee/optee_os/lib/libutils/ext/trace.c:198
     2a6:	b533      	push	{r0, r1, r4, r5, lr}
     2a8:	4604      	mov	r4, r0
/mnt/disk/raspbian-tee/optee_os/lib/libutils/ext/trace.c:203
     2aa:	b90b      	cbnz	r3, 2b0 <append+0x10>
/mnt/disk/raspbian-tee/optee_os/lib/libutils/ext/trace.c:204
     2ac:	f8c4 0100 	str.w	r0, [r4, #256]	; 0x100
/mnt/disk/raspbian-tee/optee_os/lib/libutils/ext/trace.c:205
     2b0:	f8d4 0100 	ldr.w	r0, [r4, #256]	; 0x100
/mnt/disk/raspbian-tee/optee_os/lib/libutils/ext/trace.c:206
     2b4:	ab06      	add	r3, sp, #24
/mnt/disk/raspbian-tee/optee_os/lib/libutils/ext/trace.c:207
     2b6:	9a05      	ldr	r2, [sp, #20]
/mnt/disk/raspbian-tee/optee_os/lib/libutils/ext/trace.c:205
     2b8:	1b05      	subs	r5, r0, r4
/mnt/disk/raspbian-tee/optee_os/lib/libutils/ext/trace.c:206
     2ba:	9301      	str	r3, [sp, #4]
/mnt/disk/raspbian-tee/optee_os/lib/libutils/ext/trace.c:205
     2bc:	f5c5 7580 	rsb	r5, r5, #256	; 0x100
/mnt/disk/raspbian-tee/optee_os/lib/libutils/ext/trace.c:207
     2c0:	4629      	mov	r1, r5
     2c2:	f000 fce5 	bl	c90 <vsnprintk>
/mnt/disk/raspbian-tee/optee_os/lib/libutils/ext/trace.c:209
     2c6:	2800      	cmp	r0, #0
     2c8:	db0f      	blt.n	2ea <append+0x4a>
/mnt/disk/raspbian-tee/optee_os/lib/libutils/ext/trace.c:213
     2ca:	4285      	cmp	r5, r0
     2cc:	dd0d      	ble.n	2ea <append+0x4a>
/mnt/disk/raspbian-tee/optee_os/lib/libutils/ext/trace.c:217
     2ce:	4285      	cmp	r5, r0
     2d0:	bfa8      	it	ge
     2d2:	4605      	movge	r5, r0
     2d4:	f8d4 0100 	ldr.w	r0, [r4, #256]	; 0x100
     2d8:	4405      	add	r5, r0
/mnt/disk/raspbian-tee/optee_os/lib/libutils/ext/trace.c:218
     2da:	2001      	movs	r0, #1
/mnt/disk/raspbian-tee/optee_os/lib/libutils/ext/trace.c:217
     2dc:	f8c4 5100 	str.w	r5, [r4, #256]	; 0x100
/mnt/disk/raspbian-tee/optee_os/lib/libutils/ext/trace.c:219
     2e0:	b002      	add	sp, #8
     2e2:	e8bd 4030 	ldmia.w	sp!, {r4, r5, lr}
     2e6:	b003      	add	sp, #12
     2e8:	4770      	bx	lr
/mnt/disk/raspbian-tee/optee_os/lib/libutils/ext/trace.c:211
     2ea:	2000      	movs	r0, #0
     2ec:	e7f8      	b.n	2e0 <append+0x40>

000002ee <trace_set_level>:
trace_set_level():
/mnt/disk/raspbian-tee/optee_os/lib/libutils/ext/trace.c:25
     2ee:	4b05      	ldr	r3, [pc, #20]	; (304 <trace_set_level+0x16>)
/mnt/disk/raspbian-tee/optee_os/lib/libutils/ext/trace.c:26
     2f0:	2804      	cmp	r0, #4
     2f2:	4a05      	ldr	r2, [pc, #20]	; (308 <trace_set_level+0x1a>)
/mnt/disk/raspbian-tee/optee_os/lib/libutils/ext/trace.c:25
     2f4:	447b      	add	r3, pc
     2f6:	589b      	ldr	r3, [r3, r2]
/mnt/disk/raspbian-tee/optee_os/lib/libutils/ext/trace.c:26
     2f8:	d801      	bhi.n	2fe <trace_set_level+0x10>
/mnt/disk/raspbian-tee/optee_os/lib/libutils/ext/trace.c:27
     2fa:	6018      	str	r0, [r3, #0]
     2fc:	4770      	bx	lr
/mnt/disk/raspbian-tee/optee_os/lib/libutils/ext/trace.c:29
     2fe:	2204      	movs	r2, #4
     300:	601a      	str	r2, [r3, #0]
     302:	4770      	bx	lr
     304:	00009188 	.word	0x00009188
     308:	00000010 	.word	0x00000010

0000030c <trace_get_level>:
trace_get_level():
/mnt/disk/raspbian-tee/optee_os/lib/libutils/ext/trace.c:33
     30c:	4b02      	ldr	r3, [pc, #8]	; (318 <trace_get_level+0xc>)
/mnt/disk/raspbian-tee/optee_os/lib/libutils/ext/trace.c:34
     30e:	4a03      	ldr	r2, [pc, #12]	; (31c <trace_get_level+0x10>)
/mnt/disk/raspbian-tee/optee_os/lib/libutils/ext/trace.c:33
     310:	447b      	add	r3, pc
/mnt/disk/raspbian-tee/optee_os/lib/libutils/ext/trace.c:34
     312:	589b      	ldr	r3, [r3, r2]
/mnt/disk/raspbian-tee/optee_os/lib/libutils/ext/trace.c:35
     314:	6818      	ldr	r0, [r3, #0]
     316:	4770      	bx	lr
     318:	0000916c 	.word	0x0000916c
     31c:	00000010 	.word	0x00000010

00000320 <trace_printf>:
trace_printf():
/mnt/disk/raspbian-tee/optee_os/lib/libutils/ext/trace.c:97
     320:	e92d 47f0 	stmdb	sp!, {r4, r5, r6, r7, r8, r9, sl, lr}
     324:	4607      	mov	r7, r0
     326:	f8df 910c 	ldr.w	r9, [pc, #268]	; 434 <trace_printf+0x114>
     32a:	b0c6      	sub	sp, #280	; 0x118
     32c:	4688      	mov	r8, r1
     32e:	44f9      	add	r9, pc
     330:	4614      	mov	r4, r2
/mnt/disk/raspbian-tee/optee_os/lib/libutils/ext/trace.c:103
     332:	469a      	mov	sl, r3
     334:	2b00      	cmp	r3, #0
     336:	d06a      	beq.n	40e <trace_printf+0xee>
/mnt/disk/raspbian-tee/optee_os/lib/libutils/ext/trace.c:103 (discriminator 1)
     338:	4b3f      	ldr	r3, [pc, #252]	; (438 <trace_printf+0x118>)
     33a:	f859 3003 	ldr.w	r3, [r9, r3]
     33e:	681b      	ldr	r3, [r3, #0]
     340:	4293      	cmp	r3, r2
     342:	db61      	blt.n	408 <trace_printf+0xe8>
trace_level_to_string():
/mnt/disk/raspbian-tee/optee_os/lib/libutils/ext/trace.c:52
     344:	4613      	mov	r3, r2
     346:	2a04      	cmp	r2, #4
/mnt/disk/raspbian-tee/optee_os/lib/libutils/ext/trace.c:55
     348:	4a3c      	ldr	r2, [pc, #240]	; (43c <trace_printf+0x11c>)
/mnt/disk/raspbian-tee/optee_os/lib/libutils/ext/trace.c:52
     34a:	bf88      	it	hi
     34c:	2300      	movhi	r3, #0
/mnt/disk/raspbian-tee/optee_os/lib/libutils/ext/trace.c:55
     34e:	447a      	add	r2, pc
     350:	5cd3      	ldrb	r3, [r2, r3]
trace_printf():
/mnt/disk/raspbian-tee/optee_os/lib/libutils/ext/trace.c:107
     352:	4a3b      	ldr	r2, [pc, #236]	; (440 <trace_printf+0x120>)
     354:	ad06      	add	r5, sp, #24
     356:	f44f 7180 	mov.w	r1, #256	; 0x100
     35a:	4628      	mov	r0, r5
     35c:	447a      	add	r2, pc
     35e:	f000 fc9e 	bl	c9e <snprintk>
/mnt/disk/raspbian-tee/optee_os/lib/libutils/ext/trace.c:109
     362:	1e06      	subs	r6, r0, #0
     364:	db50      	blt.n	408 <trace_printf+0xe8>
/mnt/disk/raspbian-tee/optee_os/lib/libutils/ext/trace.c:114
     366:	4b37      	ldr	r3, [pc, #220]	; (444 <trace_printf+0x124>)
     368:	f5c6 7180 	rsb	r1, r6, #256	; 0x100
     36c:	4a36      	ldr	r2, [pc, #216]	; (448 <trace_printf+0x128>)
     36e:	19a8      	adds	r0, r5, r6
     370:	447a      	add	r2, pc
     372:	f859 3003 	ldr.w	r3, [r9, r3]
     376:	9303      	str	r3, [sp, #12]
     378:	f000 fc91 	bl	c9e <snprintk>
/mnt/disk/raspbian-tee/optee_os/lib/libutils/ext/trace.c:116
     37c:	2800      	cmp	r0, #0
     37e:	db43      	blt.n	408 <trace_printf+0xe8>
/mnt/disk/raspbian-tee/optee_os/lib/libutils/ext/trace.c:118
     380:	4406      	add	r6, r0
/mnt/disk/raspbian-tee/optee_os/lib/libutils/ext/trace.c:120
     382:	f1ba 0f00 	cmp.w	sl, #0
     386:	d04b      	beq.n	420 <trace_printf+0x100>
/mnt/disk/raspbian-tee/optee_os/lib/libutils/ext/trace.c:120 (discriminator 1)
     388:	231a      	movs	r3, #26
     38a:	fa23 f404 	lsr.w	r4, r3, r4
     38e:	07e3      	lsls	r3, r4, #31
     390:	d546      	bpl.n	420 <trace_printf+0x100>
print_thread_id():
/mnt/disk/raspbian-tee/optee_os/lib/libutils/ext/trace.c:65
     392:	f000 fcb3 	bl	cfc <trace_ext_get_thread_id>
trace_printf():
/mnt/disk/raspbian-tee/optee_os/lib/libutils/ext/trace.c:122
     396:	19ac      	adds	r4, r5, r6
     398:	f5c6 7980 	rsb	r9, r6, #256	; 0x100
print_thread_id():
/mnt/disk/raspbian-tee/optee_os/lib/libutils/ext/trace.c:67
     39c:	2800      	cmp	r0, #0
     39e:	db38      	blt.n	412 <trace_printf+0xf2>
/mnt/disk/raspbian-tee/optee_os/lib/libutils/ext/trace.c:68
     3a0:	4a2a      	ldr	r2, [pc, #168]	; (44c <trace_printf+0x12c>)
     3a2:	2301      	movs	r3, #1
     3a4:	9000      	str	r0, [sp, #0]
     3a6:	447a      	add	r2, pc
/mnt/disk/raspbian-tee/optee_os/lib/libutils/ext/trace.c:70
     3a8:	4649      	mov	r1, r9
     3aa:	4620      	mov	r0, r4
     3ac:	f000 fc77 	bl	c9e <snprintk>
trace_printf():
/mnt/disk/raspbian-tee/optee_os/lib/libutils/ext/trace.c:129
     3b0:	2800      	cmp	r0, #0
     3b2:	db29      	blt.n	408 <trace_printf+0xe8>
/mnt/disk/raspbian-tee/optee_os/lib/libutils/ext/trace.c:131
     3b4:	1984      	adds	r4, r0, r6
/mnt/disk/raspbian-tee/optee_os/lib/libutils/ext/trace.c:133
     3b6:	b167      	cbz	r7, 3d2 <trace_printf+0xb2>
/mnt/disk/raspbian-tee/optee_os/lib/libutils/ext/trace.c:134
     3b8:	4a25      	ldr	r2, [pc, #148]	; (450 <trace_printf+0x130>)
     3ba:	463b      	mov	r3, r7
     3bc:	f8cd 8000 	str.w	r8, [sp]
     3c0:	f5c4 7180 	rsb	r1, r4, #256	; 0x100
     3c4:	447a      	add	r2, pc
     3c6:	1928      	adds	r0, r5, r4
     3c8:	f000 fc69 	bl	c9e <snprintk>
/mnt/disk/raspbian-tee/optee_os/lib/libutils/ext/trace.c:136
     3cc:	2800      	cmp	r0, #0
     3ce:	db1b      	blt.n	408 <trace_printf+0xe8>
/mnt/disk/raspbian-tee/optee_os/lib/libutils/ext/trace.c:138
     3d0:	4404      	add	r4, r0
/mnt/disk/raspbian-tee/optee_os/lib/libutils/ext/trace.c:148
     3d2:	ab4f      	add	r3, sp, #316	; 0x13c
/mnt/disk/raspbian-tee/optee_os/lib/libutils/ext/trace.c:149
     3d4:	f5c4 7180 	rsb	r1, r4, #256	; 0x100
     3d8:	1928      	adds	r0, r5, r4
     3da:	9a4e      	ldr	r2, [sp, #312]	; 0x138
/mnt/disk/raspbian-tee/optee_os/lib/libutils/ext/trace.c:148
     3dc:	9305      	str	r3, [sp, #20]
/mnt/disk/raspbian-tee/optee_os/lib/libutils/ext/trace.c:149
     3de:	f000 fc57 	bl	c90 <vsnprintk>
/mnt/disk/raspbian-tee/optee_os/lib/libutils/ext/trace.c:151
     3e2:	2800      	cmp	r0, #0
/mnt/disk/raspbian-tee/optee_os/lib/libutils/ext/trace.c:157
     3e4:	f04f 030a 	mov.w	r3, #10
/mnt/disk/raspbian-tee/optee_os/lib/libutils/ext/trace.c:152
     3e8:	bfc8      	it	gt
     3ea:	1824      	addgt	r4, r4, r0
     3ec:	2cfe      	cmp	r4, #254	; 0xfe
     3ee:	bf28      	it	cs
     3f0:	24fe      	movcs	r4, #254	; 0xfe
/mnt/disk/raspbian-tee/optee_os/lib/libutils/ext/trace.c:157
     3f2:	552b      	strb	r3, [r5, r4]
/mnt/disk/raspbian-tee/optee_os/lib/libutils/ext/trace.c:158
     3f4:	b114      	cbz	r4, 3fc <trace_printf+0xdc>
/mnt/disk/raspbian-tee/optee_os/lib/libutils/ext/trace.c:158 (discriminator 1)
     3f6:	5d2b      	ldrb	r3, [r5, r4]
     3f8:	2b0a      	cmp	r3, #10
     3fa:	d019      	beq.n	430 <trace_printf+0x110>
/mnt/disk/raspbian-tee/optee_os/lib/libutils/ext/trace.c:161
     3fc:	442c      	add	r4, r5
/mnt/disk/raspbian-tee/optee_os/lib/libutils/ext/trace.c:163
     3fe:	4628      	mov	r0, r5
/mnt/disk/raspbian-tee/optee_os/lib/libutils/ext/trace.c:161
     400:	2300      	movs	r3, #0
     402:	70a3      	strb	r3, [r4, #2]
/mnt/disk/raspbian-tee/optee_os/lib/libutils/ext/trace.c:163
     404:	f000 fc70 	bl	ce8 <trace_ext_puts>
/mnt/disk/raspbian-tee/optee_os/lib/libutils/ext/trace.c:164
     408:	b046      	add	sp, #280	; 0x118
     40a:	e8bd 87f0 	ldmia.w	sp!, {r4, r5, r6, r7, r8, r9, sl, pc}
trace_level_to_string():
/mnt/disk/raspbian-tee/optee_os/lib/libutils/ext/trace.c:50
     40e:	234d      	movs	r3, #77	; 0x4d
     410:	e79f      	b.n	352 <trace_printf+0x32>
print_thread_id():
/mnt/disk/raspbian-tee/optee_os/lib/libutils/ext/trace.c:70
     412:	4b10      	ldr	r3, [pc, #64]	; (454 <trace_printf+0x134>)
     414:	4a10      	ldr	r2, [pc, #64]	; (458 <trace_printf+0x138>)
     416:	447b      	add	r3, pc
     418:	9300      	str	r3, [sp, #0]
     41a:	447a      	add	r2, pc
     41c:	2301      	movs	r3, #1
     41e:	e7c3      	b.n	3a8 <trace_printf+0x88>
trace_printf():
/mnt/disk/raspbian-tee/optee_os/lib/libutils/ext/trace.c:142
     420:	2efe      	cmp	r6, #254	; 0xfe
     422:	d8f1      	bhi.n	408 <trace_printf+0xe8>
/mnt/disk/raspbian-tee/optee_os/lib/libutils/ext/trace.c:144
     424:	1c74      	adds	r4, r6, #1
     426:	2320      	movs	r3, #32
     428:	55ab      	strb	r3, [r5, r6]
/mnt/disk/raspbian-tee/optee_os/lib/libutils/ext/trace.c:145
     42a:	2300      	movs	r3, #0
     42c:	552b      	strb	r3, [r5, r4]
     42e:	e7d0      	b.n	3d2 <trace_printf+0xb2>
/mnt/disk/raspbian-tee/optee_os/lib/libutils/ext/trace.c:159
     430:	3c01      	subs	r4, #1
     432:	e7df      	b.n	3f4 <trace_printf+0xd4>
     434:	0000914e 	.word	0x0000914e
     438:	00000010 	.word	0x00000010
     43c:	00007d4b 	.word	0x00007d4b
     440:	00007d4c 	.word	0x00007d4c
     444:	00000018 	.word	0x00000018
     448:	00007d3c 	.word	0x00007d3c
     44c:	00007d0a 	.word	0x00007d0a
     450:	00007cf7 	.word	0x00007cf7
     454:	00008398 	.word	0x00008398
     458:	00007c9c 	.word	0x00007c9c

0000045c <dhex_dump>:
dhex_dump():
/mnt/disk/raspbian-tee/optee_os/lib/libutils/ext/trace.c:225
     45c:	e92d 4ff0 	stmdb	sp!, {r4, r5, r6, r7, r8, r9, sl, fp, lr}
     460:	4690      	mov	r8, r2
     462:	4a35      	ldr	r2, [pc, #212]	; (538 <dhex_dump+0xdc>)
     464:	468a      	mov	sl, r1
/mnt/disk/raspbian-tee/optee_os/lib/libutils/ext/trace.c:231
     466:	4935      	ldr	r1, [pc, #212]	; (53c <dhex_dump+0xe0>)
/mnt/disk/raspbian-tee/optee_os/lib/libutils/ext/trace.c:225
     468:	447a      	add	r2, pc
     46a:	b0c7      	sub	sp, #284	; 0x11c
     46c:	4681      	mov	r9, r0
/mnt/disk/raspbian-tee/optee_os/lib/libutils/ext/trace.c:231
     46e:	5852      	ldr	r2, [r2, r1]
     470:	6812      	ldr	r2, [r2, #0]
     472:	4542      	cmp	r2, r8
     474:	db1d      	blt.n	4b2 <dhex_dump+0x56>
     476:	461e      	mov	r6, r3
/mnt/disk/raspbian-tee/optee_os/lib/libutils/ext/trace.c:240
     478:	4b31      	ldr	r3, [pc, #196]	; (540 <dhex_dump+0xe4>)
/mnt/disk/raspbian-tee/optee_os/lib/libutils/ext/trace.c:232
     47a:	ad05      	add	r5, sp, #20
/mnt/disk/raspbian-tee/optee_os/lib/libutils/ext/trace.c:235
     47c:	f8df b0c4 	ldr.w	fp, [pc, #196]	; 544 <dhex_dump+0xe8>
/mnt/disk/raspbian-tee/optee_os/lib/libutils/ext/trace.c:240
     480:	447b      	add	r3, pc
     482:	9302      	str	r3, [sp, #8]
/mnt/disk/raspbian-tee/optee_os/lib/libutils/ext/trace.c:248
     484:	4b30      	ldr	r3, [pc, #192]	; (548 <dhex_dump+0xec>)
/mnt/disk/raspbian-tee/optee_os/lib/libutils/ext/trace.c:235
     486:	44fb      	add	fp, pc
/mnt/disk/raspbian-tee/optee_os/lib/libutils/ext/trace.c:232
     488:	2400      	movs	r4, #0
     48a:	f8c5 4100 	str.w	r4, [r5, #256]	; 0x100
/mnt/disk/raspbian-tee/optee_os/lib/libutils/ext/trace.c:248
     48e:	447b      	add	r3, pc
     490:	9303      	str	r3, [sp, #12]
/mnt/disk/raspbian-tee/optee_os/lib/libutils/ext/trace.c:233 (discriminator 1)
     492:	9b50      	ldr	r3, [sp, #320]	; 0x140
     494:	429c      	cmp	r4, r3
     496:	db0f      	blt.n	4b8 <dhex_dump+0x5c>
/mnt/disk/raspbian-tee/optee_os/lib/libutils/ext/trace.c:253
     498:	f8d5 3100 	ldr.w	r3, [r5, #256]	; 0x100
     49c:	b14b      	cbz	r3, 4b2 <dhex_dump+0x56>
/mnt/disk/raspbian-tee/optee_os/lib/libutils/ext/trace.c:255
     49e:	4b2b      	ldr	r3, [pc, #172]	; (54c <dhex_dump+0xf0>)
     4a0:	4642      	mov	r2, r8
     4a2:	9501      	str	r5, [sp, #4]
     4a4:	4651      	mov	r1, sl
     4a6:	447b      	add	r3, pc
     4a8:	4648      	mov	r0, r9
     4aa:	9300      	str	r3, [sp, #0]
     4ac:	2301      	movs	r3, #1
     4ae:	f7ff ff37 	bl	320 <trace_printf>
/mnt/disk/raspbian-tee/optee_os/lib/libutils/ext/trace.c:263
     4b2:	b047      	add	sp, #284	; 0x11c
     4b4:	e8bd 8ff0 	ldmia.w	sp!, {r4, r5, r6, r7, r8, r9, sl, fp, pc}
/mnt/disk/raspbian-tee/optee_os/lib/libutils/ext/trace.c:234
     4b8:	f014 070f 	ands.w	r7, r4, #15
     4bc:	d013      	beq.n	4e6 <dhex_dump+0x8a>
/mnt/disk/raspbian-tee/optee_os/lib/libutils/ext/trace.c:240
     4be:	f816 2b01 	ldrb.w	r2, [r6], #1
     4c2:	4628      	mov	r0, r5
     4c4:	9902      	ldr	r1, [sp, #8]
     4c6:	f7ff feeb 	bl	2a0 <append>
/mnt/disk/raspbian-tee/optee_os/lib/libutils/ext/trace.c:241
     4ca:	b9a8      	cbnz	r0, 4f8 <dhex_dump+0x9c>
/mnt/disk/raspbian-tee/optee_os/lib/libutils/ext/trace.c:262
     4cc:	4820      	ldr	r0, [pc, #128]	; (550 <dhex_dump+0xf4>)
     4ce:	2203      	movs	r2, #3
     4d0:	4b20      	ldr	r3, [pc, #128]	; (554 <dhex_dump+0xf8>)
     4d2:	f44f 7183 	mov.w	r1, #262	; 0x106
     4d6:	4478      	add	r0, pc
     4d8:	447b      	add	r3, pc
     4da:	3005      	adds	r0, #5
     4dc:	9300      	str	r3, [sp, #0]
     4de:	2301      	movs	r3, #1
     4e0:	f7ff ff1e 	bl	320 <trace_printf>
     4e4:	e7e5      	b.n	4b2 <dhex_dump+0x56>
/mnt/disk/raspbian-tee/optee_os/lib/libutils/ext/trace.c:235
     4e6:	4633      	mov	r3, r6
     4e8:	2208      	movs	r2, #8
     4ea:	4659      	mov	r1, fp
     4ec:	4628      	mov	r0, r5
     4ee:	f7ff fed7 	bl	2a0 <append>
/mnt/disk/raspbian-tee/optee_os/lib/libutils/ext/trace.c:237
     4f2:	2800      	cmp	r0, #0
     4f4:	d1e3      	bne.n	4be <dhex_dump+0x62>
     4f6:	e7e9      	b.n	4cc <dhex_dump+0x70>
/mnt/disk/raspbian-tee/optee_os/lib/libutils/ext/trace.c:243
     4f8:	4263      	negs	r3, r4
     4fa:	f003 030f 	and.w	r3, r3, #15
     4fe:	bf58      	it	pl
     500:	425f      	negpl	r7, r3
     502:	2f07      	cmp	r7, #7
     504:	d108      	bne.n	518 <dhex_dump+0xbc>
/mnt/disk/raspbian-tee/optee_os/lib/libutils/ext/trace.c:244
     506:	4914      	ldr	r1, [pc, #80]	; (558 <dhex_dump+0xfc>)
     508:	4628      	mov	r0, r5
     50a:	4479      	add	r1, pc
     50c:	f7ff fec8 	bl	2a0 <append>
/mnt/disk/raspbian-tee/optee_os/lib/libutils/ext/trace.c:245
     510:	2800      	cmp	r0, #0
     512:	d0db      	beq.n	4cc <dhex_dump+0x70>
/mnt/disk/raspbian-tee/optee_os/lib/libutils/ext/trace.c:233 (discriminator 2)
     514:	3401      	adds	r4, #1
     516:	e7bc      	b.n	492 <dhex_dump+0x36>
/mnt/disk/raspbian-tee/optee_os/lib/libutils/ext/trace.c:247
     518:	2f0f      	cmp	r7, #15
     51a:	d1fb      	bne.n	514 <dhex_dump+0xb8>
/mnt/disk/raspbian-tee/optee_os/lib/libutils/ext/trace.c:248
     51c:	9b03      	ldr	r3, [sp, #12]
     51e:	4642      	mov	r2, r8
     520:	9300      	str	r3, [sp, #0]
     522:	4651      	mov	r1, sl
     524:	2301      	movs	r3, #1
     526:	9501      	str	r5, [sp, #4]
     528:	4648      	mov	r0, r9
     52a:	f7ff fef9 	bl	320 <trace_printf>
/mnt/disk/raspbian-tee/optee_os/lib/libutils/ext/trace.c:250
     52e:	2300      	movs	r3, #0
     530:	f8c5 3100 	str.w	r3, [r5, #256]	; 0x100
     534:	e7ee      	b.n	514 <dhex_dump+0xb8>
     536:	bf00      	nop
     538:	00009014 	.word	0x00009014
     53c:	00000010 	.word	0x00000010
     540:	00007c42 	.word	0x00007c42
     544:	00007c42 	.word	0x00007c42
     548:	00007c42 	.word	0x00007c42
     54c:	00007c2a 	.word	0x00007c2a
     550:	00007bc3 	.word	0x00007bc3
     554:	00007bfb 	.word	0x00007bfb
     558:	00007bc4 	.word	0x00007bc4

0000055c <__vsnprintf>:
__vsnprintf():
/mnt/disk/raspbian-tee/optee_os/lib/libutils/ext/snprintk.c:137
     55c:	e92d 4ff0 	stmdb	sp!, {r4, r5, r6, r7, r8, r9, sl, fp, lr}
/mnt/disk/raspbian-tee/optee_os/lib/libutils/ext/snprintk.c:141
     560:	4680      	mov	r8, r0
     562:	461f      	mov	r7, r3
/mnt/disk/raspbian-tee/optee_os/lib/libutils/ext/snprintk.c:137
     564:	b09f      	sub	sp, #124	; 0x7c
kprintf():
/mnt/disk/raspbian-tee/optee_os/lib/libutils/ext/snprintk.c:269
     566:	2300      	movs	r3, #0
__vsnprintf():
/mnt/disk/raspbian-tee/optee_os/lib/libutils/ext/snprintk.c:137
     568:	920b      	str	r2, [sp, #44]	; 0x2c
     56a:	f89d 20a0 	ldrb.w	r2, [sp, #160]	; 0xa0
     56e:	9213      	str	r2, [sp, #76]	; 0x4c
/mnt/disk/raspbian-tee/optee_os/lib/libutils/ext/snprintk.c:141
     570:	4602      	mov	r2, r0
     572:	440a      	add	r2, r1
/mnt/disk/raspbian-tee/optee_os/lib/libutils/ext/snprintk.c:137
     574:	9010      	str	r0, [sp, #64]	; 0x40
     576:	9112      	str	r1, [sp, #72]	; 0x48
/mnt/disk/raspbian-tee/optee_os/lib/libutils/ext/snprintk.c:141
     578:	920e      	str	r2, [sp, #56]	; 0x38
kprintf():
/mnt/disk/raspbian-tee/optee_os/lib/libutils/ext/snprintk.c:269
     57a:	930f      	str	r3, [sp, #60]	; 0x3c
/mnt/disk/raspbian-tee/optee_os/lib/libutils/ext/snprintk.c:267
     57c:	930c      	str	r3, [sp, #48]	; 0x30
/mnt/disk/raspbian-tee/optee_os/lib/libutils/ext/snprintk.c:275
     57e:	9b0b      	ldr	r3, [sp, #44]	; 0x2c
     580:	781b      	ldrb	r3, [r3, #0]
     582:	2b25      	cmp	r3, #37	; 0x25
     584:	d024      	beq.n	5d0 <__vsnprintf+0x74>
     586:	b993      	cbnz	r3, 5ae <__vsnprintf+0x52>
__vsnprintf():
/mnt/disk/raspbian-tee/optee_os/lib/libutils/ext/snprintk.c:143
     588:	9b10      	ldr	r3, [sp, #64]	; 0x40
     58a:	b163      	cbz	r3, 5a6 <__vsnprintf+0x4a>
/mnt/disk/raspbian-tee/optee_os/lib/libutils/ext/snprintk.c:143 (discriminator 1)
     58c:	9b12      	ldr	r3, [sp, #72]	; 0x48
     58e:	b153      	cbz	r3, 5a6 <__vsnprintf+0x4a>
/mnt/disk/raspbian-tee/optee_os/lib/libutils/ext/snprintk.c:145
     590:	9a0c      	ldr	r2, [sp, #48]	; 0x30
     592:	4293      	cmp	r3, r2
     594:	f04f 0300 	mov.w	r3, #0
/mnt/disk/raspbian-tee/optee_os/lib/libutils/ext/snprintk.c:146
     598:	9a10      	ldr	r2, [sp, #64]	; 0x40
/mnt/disk/raspbian-tee/optee_os/lib/libutils/ext/snprintk.c:145
     59a:	f200 835f 	bhi.w	c5c <__vsnprintf+0x700>
/mnt/disk/raspbian-tee/optee_os/lib/libutils/ext/snprintk.c:146
     59e:	9912      	ldr	r1, [sp, #72]	; 0x48
     5a0:	440a      	add	r2, r1
     5a2:	f802 3c01 	strb.w	r3, [r2, #-1]
/mnt/disk/raspbian-tee/optee_os/lib/libutils/ext/snprintk.c:151
     5a6:	980c      	ldr	r0, [sp, #48]	; 0x30
     5a8:	b01f      	add	sp, #124	; 0x7c
     5aa:	e8bd 8ff0 	ldmia.w	sp!, {r4, r5, r6, r7, r8, r9, sl, fp, pc}
kprintf():
/mnt/disk/raspbian-tee/optee_os/lib/libutils/ext/snprintk.c:276
     5ae:	9a0c      	ldr	r2, [sp, #48]	; 0x30
     5b0:	3201      	adds	r2, #1
     5b2:	920c      	str	r2, [sp, #48]	; 0x30
/mnt/disk/raspbian-tee/optee_os/lib/libutils/ext/snprintk.c:277
     5b4:	f1b8 0f00 	cmp.w	r8, #0
     5b8:	d006      	beq.n	5c8 <__vsnprintf+0x6c>
     5ba:	9a0e      	ldr	r2, [sp, #56]	; 0x38
     5bc:	4542      	cmp	r2, r8
     5be:	d903      	bls.n	5c8 <__vsnprintf+0x6c>
     5c0:	f888 3000 	strb.w	r3, [r8]
     5c4:	f108 0801 	add.w	r8, r8, #1
/mnt/disk/raspbian-tee/optee_os/lib/libutils/ext/snprintk.c:275
     5c8:	9b0b      	ldr	r3, [sp, #44]	; 0x2c
     5ca:	3301      	adds	r3, #1
     5cc:	930b      	str	r3, [sp, #44]	; 0x2c
     5ce:	e7d6      	b.n	57e <__vsnprintf+0x22>
/mnt/disk/raspbian-tee/optee_os/lib/libutils/ext/snprintk.c:282
     5d0:	9b0b      	ldr	r3, [sp, #44]	; 0x2c
/mnt/disk/raspbian-tee/optee_os/lib/libutils/ext/snprintk.c:288
     5d2:	f04f 0a00 	mov.w	sl, #0
/mnt/disk/raspbian-tee/optee_os/lib/libutils/ext/snprintk.c:282
     5d6:	463a      	mov	r2, r7
/mnt/disk/raspbian-tee/optee_os/lib/libutils/ext/snprintk.c:287
     5d8:	f04f 3bff 	mov.w	fp, #4294967295	; 0xffffffff
/mnt/disk/raspbian-tee/optee_os/lib/libutils/ext/snprintk.c:282
     5dc:	3301      	adds	r3, #1
/mnt/disk/raspbian-tee/optee_os/lib/libutils/ext/snprintk.c:284
     5de:	4656      	mov	r6, sl
/mnt/disk/raspbian-tee/optee_os/lib/libutils/ext/snprintk.c:286
     5e0:	f8cd a034 	str.w	sl, [sp, #52]	; 0x34
/mnt/disk/raspbian-tee/optee_os/lib/libutils/ext/snprintk.c:290
     5e4:	f893 9000 	ldrb.w	r9, [r3]
     5e8:	1c59      	adds	r1, r3, #1
     5ea:	910b      	str	r1, [sp, #44]	; 0x2c
/mnt/disk/raspbian-tee/optee_os/lib/libutils/ext/snprintk.c:291
     5ec:	f1b9 0f63 	cmp.w	r9, #99	; 0x63
     5f0:	f000 8163 	beq.w	8ba <__vsnprintf+0x35e>
     5f4:	f300 8095 	bgt.w	722 <__vsnprintf+0x1c6>
     5f8:	f1b9 0f30 	cmp.w	r9, #48	; 0x30
     5fc:	f000 8147 	beq.w	88e <__vsnprintf+0x332>
     600:	dc26      	bgt.n	650 <__vsnprintf+0xf4>
     602:	f1b9 0f2a 	cmp.w	r9, #42	; 0x2a
     606:	f000 8119 	beq.w	83c <__vsnprintf+0x2e0>
     60a:	dc13      	bgt.n	634 <__vsnprintf+0xd8>
     60c:	f1b9 0f20 	cmp.w	r9, #32
     610:	f000 810a 	beq.w	828 <__vsnprintf+0x2cc>
     614:	f1b9 0f23 	cmp.w	r9, #35	; 0x23
     618:	f000 810d 	beq.w	836 <__vsnprintf+0x2da>
/mnt/disk/raspbian-tee/optee_os/lib/libutils/ext/snprintk.c:541
     61c:	f1b9 0f00 	cmp.w	r9, #0
     620:	d0b2      	beq.n	588 <__vsnprintf+0x2c>
/mnt/disk/raspbian-tee/optee_os/lib/libutils/ext/snprintk.c:545
     622:	ab1e      	add	r3, sp, #120	; 0x78
     624:	4617      	mov	r7, r2
/mnt/disk/raspbian-tee/optee_os/lib/libutils/ext/snprintk.c:546
     626:	f04f 0b01 	mov.w	fp, #1
/mnt/disk/raspbian-tee/optee_os/lib/libutils/ext/snprintk.c:545
     62a:	f803 9d28 	strb.w	r9, [r3, #-40]!
     62e:	e0c0      	b.n	7b2 <__vsnprintf+0x256>
/mnt/disk/raspbian-tee/optee_os/lib/libutils/ext/snprintk.c:311
     630:	461a      	mov	r2, r3
     632:	e00b      	b.n	64c <__vsnprintf+0xf0>
/mnt/disk/raspbian-tee/optee_os/lib/libutils/ext/snprintk.c:291
     634:	f1b9 0f2d 	cmp.w	r9, #45	; 0x2d
     638:	f000 8109 	beq.w	84e <__vsnprintf+0x2f2>
     63c:	f1b9 0f2e 	cmp.w	r9, #46	; 0x2e
     640:	f000 8108 	beq.w	854 <__vsnprintf+0x2f8>
     644:	f1b9 0f2b 	cmp.w	r9, #43	; 0x2b
     648:	d1e8      	bne.n	61c <__vsnprintf+0xc0>
/mnt/disk/raspbian-tee/optee_os/lib/libutils/ext/snprintk.c:319
     64a:	46ca      	mov	sl, r9
/mnt/disk/raspbian-tee/optee_os/lib/libutils/ext/snprintk.c:322
     64c:	9b0b      	ldr	r3, [sp, #44]	; 0x2c
     64e:	e7c9      	b.n	5e4 <__vsnprintf+0x88>
/mnt/disk/raspbian-tee/optee_os/lib/libutils/ext/snprintk.c:291
     650:	f1b9 0f44 	cmp.w	r9, #68	; 0x44
     654:	f000 818a 	beq.w	96c <__vsnprintf+0x410>
     658:	dc14      	bgt.n	684 <__vsnprintf+0x128>
     65a:	f1b9 0f39 	cmp.w	r9, #57	; 0x39
     65e:	dcdd      	bgt.n	61c <__vsnprintf+0xc0>
     660:	2300      	movs	r3, #0
     662:	930d      	str	r3, [sp, #52]	; 0x34
/mnt/disk/raspbian-tee/optee_os/lib/libutils/ext/snprintk.c:346
     664:	9b0d      	ldr	r3, [sp, #52]	; 0x34
     666:	f1a9 0930 	sub.w	r9, r9, #48	; 0x30
     66a:	210a      	movs	r1, #10
     66c:	fb01 9303 	mla	r3, r1, r3, r9
     670:	930d      	str	r3, [sp, #52]	; 0x34
/mnt/disk/raspbian-tee/optee_os/lib/libutils/ext/snprintk.c:347
     672:	9b0b      	ldr	r3, [sp, #44]	; 0x2c
     674:	f813 9b01 	ldrb.w	r9, [r3], #1
     678:	930b      	str	r3, [sp, #44]	; 0x2c
/mnt/disk/raspbian-tee/optee_os/lib/libutils/ext/snprintk.c:348
     67a:	f1a9 0330 	sub.w	r3, r9, #48	; 0x30
     67e:	2b09      	cmp	r3, #9
     680:	d9f0      	bls.n	664 <__vsnprintf+0x108>
     682:	e7b3      	b.n	5ec <__vsnprintf+0x90>
/mnt/disk/raspbian-tee/optee_os/lib/libutils/ext/snprintk.c:291
     684:	f1b9 0f55 	cmp.w	r9, #85	; 0x55
     688:	f000 823d 	beq.w	b06 <__vsnprintf+0x5aa>
     68c:	f1b9 0f58 	cmp.w	r9, #88	; 0x58
     690:	f000 80ab 	beq.w	7ea <__vsnprintf+0x28e>
     694:	f1b9 0f4f 	cmp.w	r9, #79	; 0x4f
     698:	d1c0      	bne.n	61c <__vsnprintf+0xc0>
/mnt/disk/raspbian-tee/optee_os/lib/libutils/ext/snprintk.c:408
     69a:	f046 0610 	orr.w	r6, r6, #16
/mnt/disk/raspbian-tee/optee_os/lib/libutils/ext/snprintk.c:411
     69e:	0635      	lsls	r5, r6, #24
     6a0:	f140 81c0 	bpl.w	a24 <__vsnprintf+0x4c8>
     6a4:	3207      	adds	r2, #7
     6a6:	f022 0207 	bic.w	r2, r2, #7
     6aa:	f102 0708 	add.w	r7, r2, #8
     6ae:	e9d2 4500 	ldrd	r4, r5, [r2]
/mnt/disk/raspbian-tee/optee_os/lib/libutils/ext/snprintk.c:488
     6b2:	f04f 0a00 	mov.w	sl, #0
     6b6:	f1bb 3fff 	cmp.w	fp, #4294967295	; 0xffffffff
     6ba:	d011      	beq.n	6e0 <__vsnprintf+0x184>
     6bc:	4653      	mov	r3, sl
/mnt/disk/raspbian-tee/optee_os/lib/libutils/ext/snprintk.c:489
     6be:	f426 6680 	bic.w	r6, r6, #1024	; 0x400
/mnt/disk/raspbian-tee/optee_os/lib/libutils/ext/snprintk.c:497
     6c2:	ea54 0205 	orrs.w	r2, r4, r5
     6c6:	d105      	bne.n	6d4 <__vsnprintf+0x178>
     6c8:	f1bb 0f00 	cmp.w	fp, #0
     6cc:	f000 8269 	beq.w	ba2 <__vsnprintf+0x646>
     6d0:	2400      	movs	r4, #0
     6d2:	2500      	movs	r5, #0
/mnt/disk/raspbian-tee/optee_os/lib/libutils/ext/snprintk.c:503
     6d4:	2b01      	cmp	r3, #1
     6d6:	f000 8161 	beq.w	99c <__vsnprintf+0x440>
     6da:	2b02      	cmp	r3, #2
     6dc:	f000 81f8 	beq.w	ad0 <__vsnprintf+0x574>
/mnt/disk/raspbian-tee/optee_os/lib/libutils/ext/snprintk.c:488
     6e0:	f10d 0275 	add.w	r2, sp, #117	; 0x75
/mnt/disk/raspbian-tee/optee_os/lib/libutils/ext/snprintk.c:507
     6e4:	08e0      	lsrs	r0, r4, #3
     6e6:	ea4f 0cd5 	mov.w	ip, r5, lsr #3
     6ea:	ea40 7045 	orr.w	r0, r0, r5, lsl #29
/mnt/disk/raspbian-tee/optee_os/lib/libutils/ext/snprintk.c:506
     6ee:	f004 0107 	and.w	r1, r4, #7
/mnt/disk/raspbian-tee/optee_os/lib/libutils/ext/snprintk.c:507
     6f2:	4665      	mov	r5, ip
     6f4:	4604      	mov	r4, r0
/mnt/disk/raspbian-tee/optee_os/lib/libutils/ext/snprintk.c:506
     6f6:	3130      	adds	r1, #48	; 0x30
     6f8:	1e53      	subs	r3, r2, #1
     6fa:	f802 1c01 	strb.w	r1, [r2, #-1]
/mnt/disk/raspbian-tee/optee_os/lib/libutils/ext/snprintk.c:508
     6fe:	ea54 0005 	orrs.w	r0, r4, r5
     702:	f040 8239 	bne.w	b78 <__vsnprintf+0x61c>
/mnt/disk/raspbian-tee/optee_os/lib/libutils/ext/snprintk.c:510
     706:	07f5      	lsls	r5, r6, #31
     708:	d505      	bpl.n	716 <__vsnprintf+0x1ba>
     70a:	2930      	cmp	r1, #48	; 0x30
     70c:	d003      	beq.n	716 <__vsnprintf+0x1ba>
/mnt/disk/raspbian-tee/optee_os/lib/libutils/ext/snprintk.c:511
     70e:	2130      	movs	r1, #48	; 0x30
     710:	f803 1c01 	strb.w	r1, [r3, #-1]
     714:	1e93      	subs	r3, r2, #2
/mnt/disk/raspbian-tee/optee_os/lib/libutils/ext/snprintk.c:537
     716:	f10d 0275 	add.w	r2, sp, #117	; 0x75
     71a:	4658      	mov	r0, fp
     71c:	eba2 0b03 	sub.w	fp, r2, r3
     720:	e0d5      	b.n	8ce <__vsnprintf+0x372>
/mnt/disk/raspbian-tee/optee_os/lib/libutils/ext/snprintk.c:291
     722:	f1b9 0f6f 	cmp.w	r9, #111	; 0x6f
     726:	d0ba      	beq.n	69e <__vsnprintf+0x142>
     728:	dc1e      	bgt.n	768 <__vsnprintf+0x20c>
     72a:	f1b9 0f69 	cmp.w	r9, #105	; 0x69
     72e:	f000 811f 	beq.w	970 <__vsnprintf+0x414>
     732:	dc0a      	bgt.n	74a <__vsnprintf+0x1ee>
     734:	f1b9 0f64 	cmp.w	r9, #100	; 0x64
     738:	f000 811a 	beq.w	970 <__vsnprintf+0x414>
     73c:	f1b9 0f68 	cmp.w	r9, #104	; 0x68
     740:	f47f af6c 	bne.w	61c <__vsnprintf+0xc0>
/mnt/disk/raspbian-tee/optee_os/lib/libutils/ext/snprintk.c:352
     744:	f046 0640 	orr.w	r6, r6, #64	; 0x40
     748:	e780      	b.n	64c <__vsnprintf+0xf0>
/mnt/disk/raspbian-tee/optee_os/lib/libutils/ext/snprintk.c:291
     74a:	f1b9 0f6c 	cmp.w	r9, #108	; 0x6c
     74e:	f000 80a1 	beq.w	894 <__vsnprintf+0x338>
     752:	f1b9 0f6e 	cmp.w	r9, #110	; 0x6e
     756:	f000 8146 	beq.w	9e6 <__vsnprintf+0x48a>
     75a:	f1b9 0f6a 	cmp.w	r9, #106	; 0x6a
     75e:	f47f af5d 	bne.w	61c <__vsnprintf+0xc0>
/mnt/disk/raspbian-tee/optee_os/lib/libutils/ext/snprintk.c:355
     762:	f046 0680 	orr.w	r6, r6, #128	; 0x80
     766:	e771      	b.n	64c <__vsnprintf+0xf0>
/mnt/disk/raspbian-tee/optee_os/lib/libutils/ext/snprintk.c:291
     768:	f1b9 0f74 	cmp.w	r9, #116	; 0x74
     76c:	f000 809f 	beq.w	8ae <__vsnprintf+0x352>
     770:	dc22      	bgt.n	7b8 <__vsnprintf+0x25c>
     772:	f1b9 0f71 	cmp.w	r9, #113	; 0x71
     776:	f000 8094 	beq.w	8a2 <__vsnprintf+0x346>
     77a:	f2c0 8167 	blt.w	a4c <__vsnprintf+0x4f0>
     77e:	f1b9 0f73 	cmp.w	r9, #115	; 0x73
     782:	f47f af4b 	bne.w	61c <__vsnprintf+0xc0>
/mnt/disk/raspbian-tee/optee_os/lib/libutils/ext/snprintk.c:442
     786:	6813      	ldr	r3, [r2, #0]
     788:	1d17      	adds	r7, r2, #4
     78a:	b913      	cbnz	r3, 792 <__vsnprintf+0x236>
/mnt/disk/raspbian-tee/optee_os/lib/libutils/ext/snprintk.c:444
     78c:	f8df 34ec 	ldr.w	r3, [pc, #1260]	; c7c <__vsnprintf+0x720>
     790:	447b      	add	r3, pc
/mnt/disk/raspbian-tee/optee_os/lib/libutils/ext/snprintk.c:445
     792:	f1bb 3fff 	cmp.w	fp, #4294967295	; 0xffffffff
     796:	f000 81ad 	beq.w	af4 <__vsnprintf+0x598>
/mnt/disk/raspbian-tee/optee_os/lib/libutils/ext/snprintk.c:451
     79a:	4618      	mov	r0, r3
     79c:	465a      	mov	r2, fp
     79e:	2100      	movs	r1, #0
     7a0:	9311      	str	r3, [sp, #68]	; 0x44
     7a2:	f007 f931 	bl	7a08 <memchr>
/mnt/disk/raspbian-tee/optee_os/lib/libutils/ext/snprintk.c:453
     7a6:	9b11      	ldr	r3, [sp, #68]	; 0x44
     7a8:	b120      	cbz	r0, 7b4 <__vsnprintf+0x258>
/mnt/disk/raspbian-tee/optee_os/lib/libutils/ext/snprintk.c:454
     7aa:	1ac0      	subs	r0, r0, r3
     7ac:	4583      	cmp	fp, r0
     7ae:	bfa8      	it	ge
     7b0:	4683      	movge	fp, r0
/mnt/disk/raspbian-tee/optee_os/lib/libutils/ext/snprintk.c:285
     7b2:	2000      	movs	r0, #0
/mnt/disk/raspbian-tee/optee_os/lib/libutils/ext/snprintk.c:461
     7b4:	4682      	mov	sl, r0
     7b6:	e08a      	b.n	8ce <__vsnprintf+0x372>
/mnt/disk/raspbian-tee/optee_os/lib/libutils/ext/snprintk.c:291
     7b8:	f1b9 0f78 	cmp.w	r9, #120	; 0x78
     7bc:	f000 81c2 	beq.w	b44 <__vsnprintf+0x5e8>
     7c0:	f1b9 0f7a 	cmp.w	r9, #122	; 0x7a
     7c4:	d076      	beq.n	8b4 <__vsnprintf+0x358>
     7c6:	f1b9 0f75 	cmp.w	r9, #117	; 0x75
     7ca:	f47f af27 	bne.w	61c <__vsnprintf+0xc0>
/mnt/disk/raspbian-tee/optee_os/lib/libutils/ext/snprintk.c:467
     7ce:	f016 0380 	ands.w	r3, r6, #128	; 0x80
     7d2:	f000 819b 	beq.w	b0c <__vsnprintf+0x5b0>
     7d6:	3207      	adds	r2, #7
     7d8:	f022 0207 	bic.w	r2, r2, #7
     7dc:	f102 0708 	add.w	r7, r2, #8
     7e0:	e9d2 4500 	ldrd	r4, r5, [r2]
/mnt/disk/raspbian-tee/optee_os/lib/libutils/ext/snprintk.c:482
     7e4:	f04f 0a00 	mov.w	sl, #0
     7e8:	e0d4      	b.n	994 <__vsnprintf+0x438>
/mnt/disk/raspbian-tee/optee_os/lib/libutils/ext/snprintk.c:471
     7ea:	f8df 3494 	ldr.w	r3, [pc, #1172]	; c80 <__vsnprintf+0x724>
     7ee:	447b      	add	r3, pc
/mnt/disk/raspbian-tee/optee_os/lib/libutils/ext/snprintk.c:474
     7f0:	930f      	str	r3, [sp, #60]	; 0x3c
/mnt/disk/raspbian-tee/optee_os/lib/libutils/ext/snprintk.c:475
     7f2:	0637      	lsls	r7, r6, #24
     7f4:	f140 81aa 	bpl.w	b4c <__vsnprintf+0x5f0>
     7f8:	3207      	adds	r2, #7
     7fa:	f022 0207 	bic.w	r2, r2, #7
     7fe:	f102 0708 	add.w	r7, r2, #8
     802:	e9d2 4500 	ldrd	r4, r5, [r2]
/mnt/disk/raspbian-tee/optee_os/lib/libutils/ext/snprintk.c:478
     806:	07f3      	lsls	r3, r6, #31
     808:	f140 815c 	bpl.w	ac4 <__vsnprintf+0x568>
     80c:	ea54 0305 	orrs.w	r3, r4, r5
     810:	f000 822d 	beq.w	c6e <__vsnprintf+0x712>
/mnt/disk/raspbian-tee/optee_os/lib/libutils/ext/snprintk.c:479
     814:	f046 0602 	orr.w	r6, r6, #2
/mnt/disk/raspbian-tee/optee_os/lib/libutils/ext/snprintk.c:488
     818:	f1bb 3fff 	cmp.w	fp, #4294967295	; 0xffffffff
     81c:	f000 822a 	beq.w	c74 <__vsnprintf+0x718>
     820:	f04f 0a00 	mov.w	sl, #0
     824:	2302      	movs	r3, #2
     826:	e74a      	b.n	6be <__vsnprintf+0x162>
/mnt/disk/raspbian-tee/optee_os/lib/libutils/ext/snprintk.c:299
     828:	f1ba 0f00 	cmp.w	sl, #0
     82c:	f04f 0320 	mov.w	r3, #32
     830:	bf08      	it	eq
     832:	469a      	moveq	sl, r3
     834:	e70a      	b.n	64c <__vsnprintf+0xf0>
/mnt/disk/raspbian-tee/optee_os/lib/libutils/ext/snprintk.c:302
     836:	f046 0601 	orr.w	r6, r6, #1
     83a:	e707      	b.n	64c <__vsnprintf+0xf0>
/mnt/disk/raspbian-tee/optee_os/lib/libutils/ext/snprintk.c:311
     83c:	1d13      	adds	r3, r2, #4
     83e:	6812      	ldr	r2, [r2, #0]
     840:	920d      	str	r2, [sp, #52]	; 0x34
     842:	2a00      	cmp	r2, #0
     844:	f6bf aef4 	bge.w	630 <__vsnprintf+0xd4>
/mnt/disk/raspbian-tee/optee_os/lib/libutils/ext/snprintk.c:313
     848:	4252      	negs	r2, r2
     84a:	920d      	str	r2, [sp, #52]	; 0x34
/mnt/disk/raspbian-tee/optee_os/lib/libutils/ext/snprintk.c:311
     84c:	461a      	mov	r2, r3
/mnt/disk/raspbian-tee/optee_os/lib/libutils/ext/snprintk.c:316
     84e:	f046 0604 	orr.w	r6, r6, #4
     852:	e6fb      	b.n	64c <__vsnprintf+0xf0>
/mnt/disk/raspbian-tee/optee_os/lib/libutils/ext/snprintk.c:322
     854:	990b      	ldr	r1, [sp, #44]	; 0x2c
     856:	9b0b      	ldr	r3, [sp, #44]	; 0x2c
     858:	f891 9000 	ldrb.w	r9, [r1]
     85c:	3301      	adds	r3, #1
     85e:	f1b9 0f2a 	cmp.w	r9, #42	; 0x2a
     862:	d00e      	beq.n	882 <__vsnprintf+0x326>
     864:	f04f 0b00 	mov.w	fp, #0
/mnt/disk/raspbian-tee/optee_os/lib/libutils/ext/snprintk.c:330
     868:	930b      	str	r3, [sp, #44]	; 0x2c
/mnt/disk/raspbian-tee/optee_os/lib/libutils/ext/snprintk.c:328
     86a:	f1a9 0330 	sub.w	r3, r9, #48	; 0x30
     86e:	2b09      	cmp	r3, #9
     870:	f63f aebc 	bhi.w	5ec <__vsnprintf+0x90>
/mnt/disk/raspbian-tee/optee_os/lib/libutils/ext/snprintk.c:329
     874:	210a      	movs	r1, #10
     876:	fb01 3b0b 	mla	fp, r1, fp, r3
/mnt/disk/raspbian-tee/optee_os/lib/libutils/ext/snprintk.c:330
     87a:	9b0b      	ldr	r3, [sp, #44]	; 0x2c
     87c:	f813 9b01 	ldrb.w	r9, [r3], #1
     880:	e7f2      	b.n	868 <__vsnprintf+0x30c>
/mnt/disk/raspbian-tee/optee_os/lib/libutils/ext/snprintk.c:324
     882:	6811      	ldr	r1, [r2, #0]
/mnt/disk/raspbian-tee/optee_os/lib/libutils/ext/snprintk.c:323
     884:	3204      	adds	r2, #4
/mnt/disk/raspbian-tee/optee_os/lib/libutils/ext/snprintk.c:322
     886:	930b      	str	r3, [sp, #44]	; 0x2c
/mnt/disk/raspbian-tee/optee_os/lib/libutils/ext/snprintk.c:324
     888:	ea41 7be1 	orr.w	fp, r1, r1, asr #31
     88c:	e6de      	b.n	64c <__vsnprintf+0xf0>
/mnt/disk/raspbian-tee/optee_os/lib/libutils/ext/snprintk.c:340
     88e:	f446 6680 	orr.w	r6, r6, #1024	; 0x400
     892:	e6db      	b.n	64c <__vsnprintf+0xf0>
/mnt/disk/raspbian-tee/optee_os/lib/libutils/ext/snprintk.c:358
     894:	9b0b      	ldr	r3, [sp, #44]	; 0x2c
     896:	781b      	ldrb	r3, [r3, #0]
     898:	2b6c      	cmp	r3, #108	; 0x6c
     89a:	d105      	bne.n	8a8 <__vsnprintf+0x34c>
/mnt/disk/raspbian-tee/optee_os/lib/libutils/ext/snprintk.c:359
     89c:	9b0b      	ldr	r3, [sp, #44]	; 0x2c
     89e:	3301      	adds	r3, #1
     8a0:	930b      	str	r3, [sp, #44]	; 0x2c
/mnt/disk/raspbian-tee/optee_os/lib/libutils/ext/snprintk.c:366
     8a2:	f046 0620 	orr.w	r6, r6, #32
     8a6:	e6d1      	b.n	64c <__vsnprintf+0xf0>
/mnt/disk/raspbian-tee/optee_os/lib/libutils/ext/snprintk.c:362
     8a8:	f046 0610 	orr.w	r6, r6, #16
     8ac:	e6ce      	b.n	64c <__vsnprintf+0xf0>
/mnt/disk/raspbian-tee/optee_os/lib/libutils/ext/snprintk.c:369
     8ae:	f446 7680 	orr.w	r6, r6, #256	; 0x100
     8b2:	e6cb      	b.n	64c <__vsnprintf+0xf0>
/mnt/disk/raspbian-tee/optee_os/lib/libutils/ext/snprintk.c:372
     8b4:	f446 7600 	orr.w	r6, r6, #512	; 0x200
     8b8:	e6c8      	b.n	64c <__vsnprintf+0xf0>
/mnt/disk/raspbian-tee/optee_os/lib/libutils/ext/snprintk.c:375
     8ba:	ab1e      	add	r3, sp, #120	; 0x78
/mnt/disk/raspbian-tee/optee_os/lib/libutils/ext/snprintk.c:285
     8bc:	f04f 0a00 	mov.w	sl, #0
/mnt/disk/raspbian-tee/optee_os/lib/libutils/ext/snprintk.c:375
     8c0:	1d17      	adds	r7, r2, #4
/mnt/disk/raspbian-tee/optee_os/lib/libutils/ext/snprintk.c:376
     8c2:	f04f 0b01 	mov.w	fp, #1
/mnt/disk/raspbian-tee/optee_os/lib/libutils/ext/snprintk.c:375
     8c6:	6812      	ldr	r2, [r2, #0]
/mnt/disk/raspbian-tee/optee_os/lib/libutils/ext/snprintk.c:377
     8c8:	4650      	mov	r0, sl
/mnt/disk/raspbian-tee/optee_os/lib/libutils/ext/snprintk.c:375
     8ca:	f803 2d28 	strb.w	r2, [r3, #-40]!
/mnt/disk/raspbian-tee/optee_os/lib/libutils/ext/snprintk.c:565
     8ce:	4558      	cmp	r0, fp
     8d0:	4602      	mov	r2, r0
     8d2:	bfb8      	it	lt
     8d4:	465a      	movlt	r2, fp
/mnt/disk/raspbian-tee/optee_os/lib/libutils/ext/snprintk.c:566
     8d6:	f1ba 0f00 	cmp.w	sl, #0
     8da:	f000 8165 	beq.w	ba8 <__vsnprintf+0x64c>
/mnt/disk/raspbian-tee/optee_os/lib/libutils/ext/snprintk.c:567
     8de:	3201      	adds	r2, #1
/mnt/disk/raspbian-tee/optee_os/lib/libutils/ext/snprintk.c:572
     8e0:	990d      	ldr	r1, [sp, #52]	; 0x34
     8e2:	9c0c      	ldr	r4, [sp, #48]	; 0x30
     8e4:	4291      	cmp	r1, r2
     8e6:	bfb8      	it	lt
     8e8:	4611      	movlt	r1, r2
     8ea:	440c      	add	r4, r1
/mnt/disk/raspbian-tee/optee_os/lib/libutils/ext/snprintk.c:575
     8ec:	f240 4104 	movw	r1, #1028	; 0x404
/mnt/disk/raspbian-tee/optee_os/lib/libutils/ext/snprintk.c:572
     8f0:	940c      	str	r4, [sp, #48]	; 0x30
/mnt/disk/raspbian-tee/optee_os/lib/libutils/ext/snprintk.c:575
     8f2:	ea16 0401 	ands.w	r4, r6, r1
     8f6:	d106      	bne.n	906 <__vsnprintf+0x3aa>
/mnt/disk/raspbian-tee/optee_os/lib/libutils/ext/snprintk.c:576
     8f8:	990d      	ldr	r1, [sp, #52]	; 0x34
/mnt/disk/raspbian-tee/optee_os/lib/libutils/ext/snprintk.c:578
     8fa:	f04f 0c20 	mov.w	ip, #32
/mnt/disk/raspbian-tee/optee_os/lib/libutils/ext/snprintk.c:576
     8fe:	1a89      	subs	r1, r1, r2
/mnt/disk/raspbian-tee/optee_os/lib/libutils/ext/snprintk.c:577
     900:	2900      	cmp	r1, #0
     902:	f300 8155 	bgt.w	bb0 <__vsnprintf+0x654>
/mnt/disk/raspbian-tee/optee_os/lib/libutils/ext/snprintk.c:582
     906:	f1ba 0f00 	cmp.w	sl, #0
     90a:	f000 8166 	beq.w	bda <__vsnprintf+0x67e>
/mnt/disk/raspbian-tee/optee_os/lib/libutils/ext/snprintk.c:583
     90e:	f1b8 0f00 	cmp.w	r8, #0
     912:	f040 8159 	bne.w	bc8 <__vsnprintf+0x66c>
/mnt/disk/raspbian-tee/optee_os/lib/libutils/ext/snprintk.c:586
     916:	f04f 0800 	mov.w	r8, #0
/mnt/disk/raspbian-tee/optee_os/lib/libutils/ext/snprintk.c:590
     91a:	f5b4 6f80 	cmp.w	r4, #1024	; 0x400
     91e:	d105      	bne.n	92c <__vsnprintf+0x3d0>
/mnt/disk/raspbian-tee/optee_os/lib/libutils/ext/snprintk.c:591
     920:	990d      	ldr	r1, [sp, #52]	; 0x34
/mnt/disk/raspbian-tee/optee_os/lib/libutils/ext/snprintk.c:593
     922:	2430      	movs	r4, #48	; 0x30
/mnt/disk/raspbian-tee/optee_os/lib/libutils/ext/snprintk.c:591
     924:	1a89      	subs	r1, r1, r2
/mnt/disk/raspbian-tee/optee_os/lib/libutils/ext/snprintk.c:592
     926:	2900      	cmp	r1, #0
     928:	f300 8173 	bgt.w	c12 <__vsnprintf+0x6b6>
/mnt/disk/raspbian-tee/optee_os/lib/libutils/ext/snprintk.c:597
     92c:	eba0 000b 	sub.w	r0, r0, fp
/mnt/disk/raspbian-tee/optee_os/lib/libutils/ext/snprintk.c:599
     930:	2130      	movs	r1, #48	; 0x30
/mnt/disk/raspbian-tee/optee_os/lib/libutils/ext/snprintk.c:598
     932:	2800      	cmp	r0, #0
     934:	f300 8179 	bgt.w	c2a <__vsnprintf+0x6ce>
     938:	eb03 010b 	add.w	r1, r3, fp
/mnt/disk/raspbian-tee/optee_os/lib/libutils/ext/snprintk.c:602
     93c:	428b      	cmp	r3, r1
     93e:	f040 8180 	bne.w	c42 <__vsnprintf+0x6e6>
/mnt/disk/raspbian-tee/optee_os/lib/libutils/ext/snprintk.c:605
     942:	0773      	lsls	r3, r6, #29
     944:	f57f ae1b 	bpl.w	57e <__vsnprintf+0x22>
/mnt/disk/raspbian-tee/optee_os/lib/libutils/ext/snprintk.c:606
     948:	9b0d      	ldr	r3, [sp, #52]	; 0x34
     94a:	1a9b      	subs	r3, r3, r2
/mnt/disk/raspbian-tee/optee_os/lib/libutils/ext/snprintk.c:608
     94c:	2220      	movs	r2, #32
/mnt/disk/raspbian-tee/optee_os/lib/libutils/ext/snprintk.c:607
     94e:	2b00      	cmp	r3, #0
     950:	f77f ae15 	ble.w	57e <__vsnprintf+0x22>
/mnt/disk/raspbian-tee/optee_os/lib/libutils/ext/snprintk.c:608
     954:	f1b8 0f00 	cmp.w	r8, #0
     958:	d006      	beq.n	968 <__vsnprintf+0x40c>
     95a:	990e      	ldr	r1, [sp, #56]	; 0x38
     95c:	4541      	cmp	r1, r8
     95e:	d903      	bls.n	968 <__vsnprintf+0x40c>
     960:	f888 2000 	strb.w	r2, [r8]
     964:	f108 0801 	add.w	r8, r8, #1
     968:	3b01      	subs	r3, #1
     96a:	e7f0      	b.n	94e <__vsnprintf+0x3f2>
/mnt/disk/raspbian-tee/optee_os/lib/libutils/ext/snprintk.c:380
     96c:	f046 0610 	orr.w	r6, r6, #16
/mnt/disk/raspbian-tee/optee_os/lib/libutils/ext/snprintk.c:384
     970:	0631      	lsls	r1, r6, #24
     972:	d523      	bpl.n	9bc <__vsnprintf+0x460>
     974:	3207      	adds	r2, #7
     976:	f022 0207 	bic.w	r2, r2, #7
     97a:	f102 0708 	add.w	r7, r2, #8
     97e:	e9d2 4500 	ldrd	r4, r5, [r2]
/mnt/disk/raspbian-tee/optee_os/lib/libutils/ext/snprintk.c:385
     982:	2c00      	cmp	r4, #0
     984:	f175 0300 	sbcs.w	r3, r5, #0
     988:	da04      	bge.n	994 <__vsnprintf+0x438>
/mnt/disk/raspbian-tee/optee_os/lib/libutils/ext/snprintk.c:386
     98a:	4264      	negs	r4, r4
/mnt/disk/raspbian-tee/optee_os/lib/libutils/ext/snprintk.c:387
     98c:	f04f 0a2d 	mov.w	sl, #45	; 0x2d
/mnt/disk/raspbian-tee/optee_os/lib/libutils/ext/snprintk.c:386
     990:	eb65 0545 	sbc.w	r5, r5, r5, lsl #1
/mnt/disk/raspbian-tee/optee_os/lib/libutils/ext/snprintk.c:488
     994:	f1bb 3fff 	cmp.w	fp, #4294967295	; 0xffffffff
     998:	f040 80ec 	bne.w	b74 <__vsnprintf+0x618>
/mnt/disk/raspbian-tee/optee_os/lib/libutils/ext/snprintk.c:508
     99c:	f10d 0375 	add.w	r3, sp, #117	; 0x75
     9a0:	9311      	str	r3, [sp, #68]	; 0x44
     9a2:	9b11      	ldr	r3, [sp, #68]	; 0x44
/mnt/disk/raspbian-tee/optee_os/lib/libutils/ext/snprintk.c:516
     9a4:	2d00      	cmp	r5, #0
     9a6:	bf08      	it	eq
     9a8:	2c0a      	cmpeq	r4, #10
     9aa:	f103 33ff 	add.w	r3, r3, #4294967295	; 0xffffffff
     9ae:	f080 80e5 	bcs.w	b7c <__vsnprintf+0x620>
/mnt/disk/raspbian-tee/optee_os/lib/libutils/ext/snprintk.c:520
     9b2:	9a11      	ldr	r2, [sp, #68]	; 0x44
     9b4:	3430      	adds	r4, #48	; 0x30
     9b6:	f802 4c01 	strb.w	r4, [r2, #-1]
     9ba:	e6ac      	b.n	716 <__vsnprintf+0x1ba>
/mnt/disk/raspbian-tee/optee_os/lib/libutils/ext/snprintk.c:384
     9bc:	05f3      	lsls	r3, r6, #23
     9be:	d503      	bpl.n	9c8 <__vsnprintf+0x46c>
     9c0:	1d17      	adds	r7, r2, #4
     9c2:	6814      	ldr	r4, [r2, #0]
     9c4:	17e5      	asrs	r5, r4, #31
     9c6:	e7dc      	b.n	982 <__vsnprintf+0x426>
     9c8:	05b7      	lsls	r7, r6, #22
     9ca:	d4f9      	bmi.n	9c0 <__vsnprintf+0x464>
     9cc:	06b5      	lsls	r5, r6, #26
     9ce:	d4d1      	bmi.n	974 <__vsnprintf+0x418>
     9d0:	f016 0f10 	tst.w	r6, #16
     9d4:	f102 0704 	add.w	r7, r2, #4
     9d8:	d1f3      	bne.n	9c2 <__vsnprintf+0x466>
     9da:	f016 0f40 	tst.w	r6, #64	; 0x40
     9de:	6814      	ldr	r4, [r2, #0]
     9e0:	d0f0      	beq.n	9c4 <__vsnprintf+0x468>
     9e2:	b224      	sxth	r4, r4
     9e4:	e7ee      	b.n	9c4 <__vsnprintf+0x468>
/mnt/disk/raspbian-tee/optee_os/lib/libutils/ext/snprintk.c:392
     9e6:	f016 0f80 	tst.w	r6, #128	; 0x80
     9ea:	f102 0704 	add.w	r7, r2, #4
     9ee:	d006      	beq.n	9fe <__vsnprintf+0x4a2>
/mnt/disk/raspbian-tee/optee_os/lib/libutils/ext/snprintk.c:399
     9f0:	6813      	ldr	r3, [r2, #0]
     9f2:	9a0c      	ldr	r2, [sp, #48]	; 0x30
     9f4:	4610      	mov	r0, r2
     9f6:	17d1      	asrs	r1, r2, #31
     9f8:	e9c3 0100 	strd	r0, r1, [r3]
     9fc:	e5bf      	b.n	57e <__vsnprintf+0x22>
/mnt/disk/raspbian-tee/optee_os/lib/libutils/ext/snprintk.c:394
     9fe:	05f4      	lsls	r4, r6, #23
     a00:	d503      	bpl.n	a0a <__vsnprintf+0x4ae>
/mnt/disk/raspbian-tee/optee_os/lib/libutils/ext/snprintk.c:405
     a02:	6813      	ldr	r3, [r2, #0]
     a04:	9a0c      	ldr	r2, [sp, #48]	; 0x30
     a06:	601a      	str	r2, [r3, #0]
     a08:	e5b9      	b.n	57e <__vsnprintf+0x22>
/mnt/disk/raspbian-tee/optee_os/lib/libutils/ext/snprintk.c:396
     a0a:	05b0      	lsls	r0, r6, #22
     a0c:	d4f9      	bmi.n	a02 <__vsnprintf+0x4a6>
/mnt/disk/raspbian-tee/optee_os/lib/libutils/ext/snprintk.c:398
     a0e:	06b1      	lsls	r1, r6, #26
     a10:	d4ee      	bmi.n	9f0 <__vsnprintf+0x494>
/mnt/disk/raspbian-tee/optee_os/lib/libutils/ext/snprintk.c:400
     a12:	06f3      	lsls	r3, r6, #27
     a14:	d4f5      	bmi.n	a02 <__vsnprintf+0x4a6>
/mnt/disk/raspbian-tee/optee_os/lib/libutils/ext/snprintk.c:402
     a16:	0676      	lsls	r6, r6, #25
     a18:	d5f3      	bpl.n	a02 <__vsnprintf+0x4a6>
/mnt/disk/raspbian-tee/optee_os/lib/libutils/ext/snprintk.c:403
     a1a:	6813      	ldr	r3, [r2, #0]
     a1c:	f8bd 2030 	ldrh.w	r2, [sp, #48]	; 0x30
     a20:	801a      	strh	r2, [r3, #0]
     a22:	e5ac      	b.n	57e <__vsnprintf+0x22>
/mnt/disk/raspbian-tee/optee_os/lib/libutils/ext/snprintk.c:411
     a24:	05f4      	lsls	r4, r6, #23
     a26:	d502      	bpl.n	a2e <__vsnprintf+0x4d2>
     a28:	1d17      	adds	r7, r2, #4
     a2a:	6814      	ldr	r4, [r2, #0]
     a2c:	e00c      	b.n	a48 <__vsnprintf+0x4ec>
     a2e:	05b0      	lsls	r0, r6, #22
     a30:	d4fa      	bmi.n	a28 <__vsnprintf+0x4cc>
     a32:	06b1      	lsls	r1, r6, #26
     a34:	f53f ae36 	bmi.w	6a4 <__vsnprintf+0x148>
     a38:	f016 0f10 	tst.w	r6, #16
     a3c:	f102 0704 	add.w	r7, r2, #4
     a40:	d1f3      	bne.n	a2a <__vsnprintf+0x4ce>
     a42:	0673      	lsls	r3, r6, #25
     a44:	d5f1      	bpl.n	a2a <__vsnprintf+0x4ce>
     a46:	8814      	ldrh	r4, [r2, #0]
     a48:	2500      	movs	r5, #0
     a4a:	e632      	b.n	6b2 <__vsnprintf+0x156>
/mnt/disk/raspbian-tee/optee_os/lib/libutils/ext/snprintk.c:415
     a4c:	9b13      	ldr	r3, [sp, #76]	; 0x4c
     a4e:	2b00      	cmp	r3, #0
     a50:	d02d      	beq.n	aae <__vsnprintf+0x552>
     a52:	9b0b      	ldr	r3, [sp, #44]	; 0x2c
     a54:	781b      	ldrb	r3, [r3, #0]
     a56:	2b55      	cmp	r3, #85	; 0x55
     a58:	d129      	bne.n	aae <__vsnprintf+0x552>
     a5a:	9b0b      	ldr	r3, [sp, #44]	; 0x2c
     a5c:	785b      	ldrb	r3, [r3, #1]
     a5e:	2b6c      	cmp	r3, #108	; 0x6c
     a60:	d125      	bne.n	aae <__vsnprintf+0x552>
/mnt/disk/raspbian-tee/optee_os/lib/libutils/ext/snprintk.c:420
     a62:	9b0b      	ldr	r3, [sp, #44]	; 0x2c
/mnt/disk/raspbian-tee/optee_os/lib/libutils/ext/snprintk.c:421
     a64:	1d17      	adds	r7, r2, #4
uuid2str():
/mnt/disk/raspbian-tee/optee_os/lib/libutils/ext/snprintk.c:223
     a66:	ac14      	add	r4, sp, #80	; 0x50
     a68:	2125      	movs	r1, #37	; 0x25
kprintf():
/mnt/disk/raspbian-tee/optee_os/lib/libutils/ext/snprintk.c:420
     a6a:	3302      	adds	r3, #2
     a6c:	930b      	str	r3, [sp, #44]	; 0x2c
/mnt/disk/raspbian-tee/optee_os/lib/libutils/ext/snprintk.c:421
     a6e:	6813      	ldr	r3, [r2, #0]
uuid2str():
/mnt/disk/raspbian-tee/optee_os/lib/libutils/ext/snprintk.c:223
     a70:	4620      	mov	r0, r4
     a72:	7bda      	ldrb	r2, [r3, #15]
     a74:	9209      	str	r2, [sp, #36]	; 0x24
     a76:	7b9a      	ldrb	r2, [r3, #14]
     a78:	9208      	str	r2, [sp, #32]
     a7a:	7b5a      	ldrb	r2, [r3, #13]
     a7c:	9207      	str	r2, [sp, #28]
     a7e:	7b1a      	ldrb	r2, [r3, #12]
     a80:	9206      	str	r2, [sp, #24]
     a82:	7ada      	ldrb	r2, [r3, #11]
     a84:	9205      	str	r2, [sp, #20]
     a86:	7a9a      	ldrb	r2, [r3, #10]
     a88:	9204      	str	r2, [sp, #16]
     a8a:	7a5a      	ldrb	r2, [r3, #9]
     a8c:	9203      	str	r2, [sp, #12]
     a8e:	7a1a      	ldrb	r2, [r3, #8]
     a90:	9202      	str	r2, [sp, #8]
     a92:	88da      	ldrh	r2, [r3, #6]
     a94:	9201      	str	r2, [sp, #4]
     a96:	889a      	ldrh	r2, [r3, #4]
     a98:	9200      	str	r2, [sp, #0]
     a9a:	4a7a      	ldr	r2, [pc, #488]	; (c84 <__vsnprintf+0x728>)
     a9c:	681b      	ldr	r3, [r3, #0]
     a9e:	447a      	add	r2, pc
     aa0:	f000 f8fd 	bl	c9e <snprintk>
     aa4:	4683      	mov	fp, r0
kprintf():
/mnt/disk/raspbian-tee/optee_os/lib/libutils/ext/snprintk.c:285
     aa6:	2000      	movs	r0, #0
/mnt/disk/raspbian-tee/optee_os/lib/libutils/ext/snprintk.c:423
     aa8:	4623      	mov	r3, r4
/mnt/disk/raspbian-tee/optee_os/lib/libutils/ext/snprintk.c:424
     aaa:	4682      	mov	sl, r0
     aac:	e70f      	b.n	8ce <__vsnprintf+0x372>
/mnt/disk/raspbian-tee/optee_os/lib/libutils/ext/snprintk.c:437
     aae:	4b76      	ldr	r3, [pc, #472]	; (c88 <__vsnprintf+0x72c>)
/mnt/disk/raspbian-tee/optee_os/lib/libutils/ext/snprintk.c:435
     ab0:	1d17      	adds	r7, r2, #4
     ab2:	6814      	ldr	r4, [r2, #0]
     ab4:	2500      	movs	r5, #0
/mnt/disk/raspbian-tee/optee_os/lib/libutils/ext/snprintk.c:437
     ab6:	447b      	add	r3, pc
/mnt/disk/raspbian-tee/optee_os/lib/libutils/ext/snprintk.c:438
     ab8:	f046 0602 	orr.w	r6, r6, #2
/mnt/disk/raspbian-tee/optee_os/lib/libutils/ext/snprintk.c:439
     abc:	f04f 0978 	mov.w	r9, #120	; 0x78
/mnt/disk/raspbian-tee/optee_os/lib/libutils/ext/snprintk.c:437
     ac0:	3311      	adds	r3, #17
     ac2:	930f      	str	r3, [sp, #60]	; 0x3c
/mnt/disk/raspbian-tee/optee_os/lib/libutils/ext/snprintk.c:488
     ac4:	f1bb 3fff 	cmp.w	fp, #4294967295	; 0xffffffff
     ac8:	f47f aeaa 	bne.w	820 <__vsnprintf+0x2c4>
     acc:	f04f 0a00 	mov.w	sl, #0
     ad0:	f10d 0375 	add.w	r3, sp, #117	; 0x75
/mnt/disk/raspbian-tee/optee_os/lib/libutils/ext/snprintk.c:525
     ad4:	f004 020f 	and.w	r2, r4, #15
     ad8:	990f      	ldr	r1, [sp, #60]	; 0x3c
     ada:	5c8a      	ldrb	r2, [r1, r2]
/mnt/disk/raspbian-tee/optee_os/lib/libutils/ext/snprintk.c:526
     adc:	0929      	lsrs	r1, r5, #4
/mnt/disk/raspbian-tee/optee_os/lib/libutils/ext/snprintk.c:525
     ade:	f803 2d01 	strb.w	r2, [r3, #-1]!
/mnt/disk/raspbian-tee/optee_os/lib/libutils/ext/snprintk.c:526
     ae2:	0922      	lsrs	r2, r4, #4
     ae4:	ea42 7205 	orr.w	r2, r2, r5, lsl #28
     ae8:	460d      	mov	r5, r1
     aea:	4614      	mov	r4, r2
/mnt/disk/raspbian-tee/optee_os/lib/libutils/ext/snprintk.c:527
     aec:	ea54 0205 	orrs.w	r2, r4, r5
     af0:	d1f0      	bne.n	ad4 <__vsnprintf+0x578>
     af2:	e610      	b.n	716 <__vsnprintf+0x1ba>
/mnt/disk/raspbian-tee/optee_os/lib/libutils/ext/snprintk.c:460
     af4:	4618      	mov	r0, r3
     af6:	9311      	str	r3, [sp, #68]	; 0x44
     af8:	f006 ff94 	bl	7a24 <strlen>
     afc:	4683      	mov	fp, r0
/mnt/disk/raspbian-tee/optee_os/lib/libutils/ext/snprintk.c:285
     afe:	2000      	movs	r0, #0
     b00:	9b11      	ldr	r3, [sp, #68]	; 0x44
/mnt/disk/raspbian-tee/optee_os/lib/libutils/ext/snprintk.c:461
     b02:	4682      	mov	sl, r0
     b04:	e6e3      	b.n	8ce <__vsnprintf+0x372>
/mnt/disk/raspbian-tee/optee_os/lib/libutils/ext/snprintk.c:464
     b06:	f046 0610 	orr.w	r6, r6, #16
     b0a:	e660      	b.n	7ce <__vsnprintf+0x272>
/mnt/disk/raspbian-tee/optee_os/lib/libutils/ext/snprintk.c:467
     b0c:	f416 7a80 	ands.w	sl, r6, #256	; 0x100
     b10:	d003      	beq.n	b1a <__vsnprintf+0x5be>
     b12:	6814      	ldr	r4, [r2, #0]
     b14:	1d17      	adds	r7, r2, #4
     b16:	2500      	movs	r5, #0
     b18:	e664      	b.n	7e4 <__vsnprintf+0x288>
     b1a:	f416 7300 	ands.w	r3, r6, #512	; 0x200
     b1e:	d003      	beq.n	b28 <__vsnprintf+0x5cc>
     b20:	1d17      	adds	r7, r2, #4
     b22:	6814      	ldr	r4, [r2, #0]
     b24:	2500      	movs	r5, #0
     b26:	e735      	b.n	994 <__vsnprintf+0x438>
     b28:	f016 0a20 	ands.w	sl, r6, #32
     b2c:	f47f ae53 	bne.w	7d6 <__vsnprintf+0x27a>
     b30:	f016 0310 	ands.w	r3, r6, #16
     b34:	f102 0704 	add.w	r7, r2, #4
     b38:	d1f3      	bne.n	b22 <__vsnprintf+0x5c6>
     b3a:	f016 0a40 	ands.w	sl, r6, #64	; 0x40
     b3e:	d0f0      	beq.n	b22 <__vsnprintf+0x5c6>
     b40:	8814      	ldrh	r4, [r2, #0]
     b42:	e7e8      	b.n	b16 <__vsnprintf+0x5ba>
/mnt/disk/raspbian-tee/optee_os/lib/libutils/ext/snprintk.c:474
     b44:	4b51      	ldr	r3, [pc, #324]	; (c8c <__vsnprintf+0x730>)
     b46:	447b      	add	r3, pc
     b48:	3311      	adds	r3, #17
     b4a:	e651      	b.n	7f0 <__vsnprintf+0x294>
/mnt/disk/raspbian-tee/optee_os/lib/libutils/ext/snprintk.c:475
     b4c:	05f5      	lsls	r5, r6, #23
     b4e:	d502      	bpl.n	b56 <__vsnprintf+0x5fa>
     b50:	1d17      	adds	r7, r2, #4
     b52:	6814      	ldr	r4, [r2, #0]
     b54:	e00c      	b.n	b70 <__vsnprintf+0x614>
     b56:	05b4      	lsls	r4, r6, #22
     b58:	d4fa      	bmi.n	b50 <__vsnprintf+0x5f4>
     b5a:	06b0      	lsls	r0, r6, #26
     b5c:	f53f ae4c 	bmi.w	7f8 <__vsnprintf+0x29c>
     b60:	f016 0f10 	tst.w	r6, #16
     b64:	f102 0704 	add.w	r7, r2, #4
     b68:	d1f3      	bne.n	b52 <__vsnprintf+0x5f6>
     b6a:	0671      	lsls	r1, r6, #25
     b6c:	d5f1      	bpl.n	b52 <__vsnprintf+0x5f6>
     b6e:	8814      	ldrh	r4, [r2, #0]
     b70:	2500      	movs	r5, #0
     b72:	e648      	b.n	806 <__vsnprintf+0x2aa>
/mnt/disk/raspbian-tee/optee_os/lib/libutils/ext/snprintk.c:488
     b74:	2301      	movs	r3, #1
     b76:	e5a2      	b.n	6be <__vsnprintf+0x162>
/mnt/disk/raspbian-tee/optee_os/lib/libutils/ext/snprintk.c:508
     b78:	461a      	mov	r2, r3
     b7a:	e5b3      	b.n	6e4 <__vsnprintf+0x188>
/mnt/disk/raspbian-tee/optee_os/lib/libutils/ext/snprintk.c:517
     b7c:	9311      	str	r3, [sp, #68]	; 0x44
     b7e:	4620      	mov	r0, r4
     b80:	4629      	mov	r1, r5
     b82:	220a      	movs	r2, #10
     b84:	2300      	movs	r3, #0
     b86:	f000 e8a4 	blx	cd0 <__aeabi_uldivmod>
     b8a:	9b11      	ldr	r3, [sp, #68]	; 0x44
     b8c:	3230      	adds	r2, #48	; 0x30
/mnt/disk/raspbian-tee/optee_os/lib/libutils/ext/snprintk.c:518
     b8e:	4620      	mov	r0, r4
     b90:	4629      	mov	r1, r5
/mnt/disk/raspbian-tee/optee_os/lib/libutils/ext/snprintk.c:517
     b92:	701a      	strb	r2, [r3, #0]
/mnt/disk/raspbian-tee/optee_os/lib/libutils/ext/snprintk.c:518
     b94:	220a      	movs	r2, #10
     b96:	2300      	movs	r3, #0
     b98:	f000 e89a 	blx	cd0 <__aeabi_uldivmod>
     b9c:	4604      	mov	r4, r0
     b9e:	460d      	mov	r5, r1
     ba0:	e6ff      	b.n	9a2 <__vsnprintf+0x446>
/mnt/disk/raspbian-tee/optee_os/lib/libutils/ext/snprintk.c:496
     ba2:	f10d 0375 	add.w	r3, sp, #117	; 0x75
     ba6:	e5b6      	b.n	716 <__vsnprintf+0x1ba>
/mnt/disk/raspbian-tee/optee_os/lib/libutils/ext/snprintk.c:568
     ba8:	07b4      	lsls	r4, r6, #30
/mnt/disk/raspbian-tee/optee_os/lib/libutils/ext/snprintk.c:569
     baa:	bf48      	it	mi
     bac:	3202      	addmi	r2, #2
     bae:	e697      	b.n	8e0 <__vsnprintf+0x384>
/mnt/disk/raspbian-tee/optee_os/lib/libutils/ext/snprintk.c:578
     bb0:	f1b8 0f00 	cmp.w	r8, #0
     bb4:	d006      	beq.n	bc4 <__vsnprintf+0x668>
     bb6:	9d0e      	ldr	r5, [sp, #56]	; 0x38
     bb8:	4545      	cmp	r5, r8
     bba:	d903      	bls.n	bc4 <__vsnprintf+0x668>
     bbc:	f888 c000 	strb.w	ip, [r8]
     bc0:	f108 0801 	add.w	r8, r8, #1
     bc4:	3901      	subs	r1, #1
     bc6:	e69b      	b.n	900 <__vsnprintf+0x3a4>
/mnt/disk/raspbian-tee/optee_os/lib/libutils/ext/snprintk.c:583
     bc8:	990e      	ldr	r1, [sp, #56]	; 0x38
     bca:	4541      	cmp	r1, r8
     bcc:	f67f aea5 	bls.w	91a <__vsnprintf+0x3be>
     bd0:	f888 a000 	strb.w	sl, [r8]
     bd4:	f108 0801 	add.w	r8, r8, #1
     bd8:	e69f      	b.n	91a <__vsnprintf+0x3be>
/mnt/disk/raspbian-tee/optee_os/lib/libutils/ext/snprintk.c:584
     bda:	07b1      	lsls	r1, r6, #30
     bdc:	f57f ae9d 	bpl.w	91a <__vsnprintf+0x3be>
/mnt/disk/raspbian-tee/optee_os/lib/libutils/ext/snprintk.c:585
     be0:	f1b8 0f00 	cmp.w	r8, #0
     be4:	f43f ae97 	beq.w	916 <__vsnprintf+0x3ba>
     be8:	990e      	ldr	r1, [sp, #56]	; 0x38
     bea:	4541      	cmp	r1, r8
     bec:	f67f ae95 	bls.w	91a <__vsnprintf+0x3be>
     bf0:	2130      	movs	r1, #48	; 0x30
     bf2:	f888 1000 	strb.w	r1, [r8]
/mnt/disk/raspbian-tee/optee_os/lib/libutils/ext/snprintk.c:586
     bf6:	f118 0101 	adds.w	r1, r8, #1
     bfa:	f43f ae8c 	beq.w	916 <__vsnprintf+0x3ba>
     bfe:	9d0e      	ldr	r5, [sp, #56]	; 0x38
     c00:	428d      	cmp	r5, r1
     c02:	d904      	bls.n	c0e <__vsnprintf+0x6b2>
     c04:	f888 9001 	strb.w	r9, [r8, #1]
     c08:	f108 0802 	add.w	r8, r8, #2
     c0c:	e685      	b.n	91a <__vsnprintf+0x3be>
     c0e:	4688      	mov	r8, r1
     c10:	e683      	b.n	91a <__vsnprintf+0x3be>
/mnt/disk/raspbian-tee/optee_os/lib/libutils/ext/snprintk.c:593
     c12:	f1b8 0f00 	cmp.w	r8, #0
     c16:	d006      	beq.n	c26 <__vsnprintf+0x6ca>
     c18:	9d0e      	ldr	r5, [sp, #56]	; 0x38
     c1a:	4545      	cmp	r5, r8
     c1c:	d903      	bls.n	c26 <__vsnprintf+0x6ca>
     c1e:	f888 4000 	strb.w	r4, [r8]
     c22:	f108 0801 	add.w	r8, r8, #1
     c26:	3901      	subs	r1, #1
     c28:	e67d      	b.n	926 <__vsnprintf+0x3ca>
/mnt/disk/raspbian-tee/optee_os/lib/libutils/ext/snprintk.c:599
     c2a:	f1b8 0f00 	cmp.w	r8, #0
     c2e:	d006      	beq.n	c3e <__vsnprintf+0x6e2>
     c30:	9c0e      	ldr	r4, [sp, #56]	; 0x38
     c32:	4544      	cmp	r4, r8
     c34:	d903      	bls.n	c3e <__vsnprintf+0x6e2>
     c36:	f888 1000 	strb.w	r1, [r8]
     c3a:	f108 0801 	add.w	r8, r8, #1
     c3e:	3801      	subs	r0, #1
     c40:	e677      	b.n	932 <__vsnprintf+0x3d6>
/mnt/disk/raspbian-tee/optee_os/lib/libutils/ext/snprintk.c:603
     c42:	f1b8 0f00 	cmp.w	r8, #0
     c46:	d007      	beq.n	c58 <__vsnprintf+0x6fc>
     c48:	980e      	ldr	r0, [sp, #56]	; 0x38
     c4a:	4540      	cmp	r0, r8
     c4c:	d904      	bls.n	c58 <__vsnprintf+0x6fc>
     c4e:	7818      	ldrb	r0, [r3, #0]
     c50:	f108 0801 	add.w	r8, r8, #1
     c54:	f808 0c01 	strb.w	r0, [r8, #-1]
/mnt/disk/raspbian-tee/optee_os/lib/libutils/ext/snprintk.c:602
     c58:	3301      	adds	r3, #1
     c5a:	e66f      	b.n	93c <__vsnprintf+0x3e0>
__vsnprintf():
/mnt/disk/raspbian-tee/optee_os/lib/libutils/ext/snprintk.c:148
     c5c:	990c      	ldr	r1, [sp, #48]	; 0x30
     c5e:	5453      	strb	r3, [r2, r1]
/mnt/disk/raspbian-tee/optee_os/lib/libutils/ext/snprintk.c:150
     c60:	e4a1      	b.n	5a6 <__vsnprintf+0x4a>
kprintf():
/mnt/disk/raspbian-tee/optee_os/lib/libutils/ext/snprintk.c:489
     c62:	f426 6680 	bic.w	r6, r6, #1024	; 0x400
/mnt/disk/raspbian-tee/optee_os/lib/libutils/ext/snprintk.c:482
     c66:	f04f 0a00 	mov.w	sl, #0
/mnt/disk/raspbian-tee/optee_os/lib/libutils/ext/snprintk.c:476
     c6a:	2302      	movs	r3, #2
     c6c:	e52c      	b.n	6c8 <__vsnprintf+0x16c>
/mnt/disk/raspbian-tee/optee_os/lib/libutils/ext/snprintk.c:488
     c6e:	f1bb 3fff 	cmp.w	fp, #4294967295	; 0xffffffff
     c72:	d1f6      	bne.n	c62 <__vsnprintf+0x706>
     c74:	f04f 3bff 	mov.w	fp, #4294967295	; 0xffffffff
     c78:	e728      	b.n	acc <__vsnprintf+0x570>
     c7a:	bf00      	nop
     c7c:	00007974 	.word	0x00007974
     c80:	000078f4 	.word	0x000078f4
     c84:	0000766d 	.word	0x0000766d
     c88:	0000762c 	.word	0x0000762c
     c8c:	0000759c 	.word	0x0000759c

00000c90 <vsnprintk>:
vsnprintk():
/mnt/disk/raspbian-tee/optee_os/lib/libutils/ext/snprintk.c:129
     c90:	b513      	push	{r0, r1, r4, lr}
/mnt/disk/raspbian-tee/optee_os/lib/libutils/ext/snprintk.c:130
     c92:	2401      	movs	r4, #1
     c94:	9400      	str	r4, [sp, #0]
     c96:	f7ff fc61 	bl	55c <__vsnprintf>
/mnt/disk/raspbian-tee/optee_os/lib/libutils/ext/snprintk.c:131
     c9a:	b002      	add	sp, #8
     c9c:	bd10      	pop	{r4, pc}

00000c9e <snprintk>:
snprintk():
/mnt/disk/raspbian-tee/optee_os/lib/libutils/ext/snprintk.c:112
     c9e:	b40c      	push	{r2, r3}
     ca0:	b507      	push	{r0, r1, r2, lr}
     ca2:	ab04      	add	r3, sp, #16
     ca4:	f853 2b04 	ldr.w	r2, [r3], #4
/mnt/disk/raspbian-tee/optee_os/lib/libutils/ext/snprintk.c:116
     ca8:	9301      	str	r3, [sp, #4]
/mnt/disk/raspbian-tee/optee_os/lib/libutils/ext/snprintk.c:117
     caa:	f7ff fff1 	bl	c90 <vsnprintk>
/mnt/disk/raspbian-tee/optee_os/lib/libutils/ext/snprintk.c:121
     cae:	b003      	add	sp, #12
     cb0:	f85d eb04 	ldr.w	lr, [sp], #4
     cb4:	b002      	add	sp, #8
     cb6:	4770      	bx	lr

00000cb8 <__aeabi_ldivmod>:
__aeabi_ldivmod():
/mnt/disk/raspbian-tee/optee_os/lib/libutils/isoc/arch/arm/arm32_aeabi_ldivmod_a32.S:24
     cb8:	e92d5000 	push	{ip, lr}
/mnt/disk/raspbian-tee/optee_os/lib/libutils/isoc/arch/arm/arm32_aeabi_ldivmod_a32.S:26
     cbc:	e92d000f 	push	{r0, r1, r2, r3}
/mnt/disk/raspbian-tee/optee_os/lib/libutils/isoc/arch/arm/arm32_aeabi_ldivmod_a32.S:28
     cc0:	e1a0000d 	mov	r0, sp
/mnt/disk/raspbian-tee/optee_os/lib/libutils/isoc/arch/arm/arm32_aeabi_ldivmod_a32.S:29
     cc4:	fa001b77 	blx	7aa8 <__l_divmod>
/mnt/disk/raspbian-tee/optee_os/lib/libutils/isoc/arch/arm/arm32_aeabi_ldivmod_a32.S:30
     cc8:	e8bd000f 	pop	{r0, r1, r2, r3}
/mnt/disk/raspbian-tee/optee_os/lib/libutils/isoc/arch/arm/arm32_aeabi_ldivmod_a32.S:31
     ccc:	e8bd9000 	pop	{ip, pc}

00000cd0 <__aeabi_uldivmod>:
__aeabi_uldivmod():
/mnt/disk/raspbian-tee/optee_os/lib/libutils/isoc/arch/arm/arm32_aeabi_ldivmod_a32.S:42
     cd0:	e92d5000 	push	{ip, lr}
/mnt/disk/raspbian-tee/optee_os/lib/libutils/isoc/arch/arm/arm32_aeabi_ldivmod_a32.S:44
     cd4:	e92d000f 	push	{r0, r1, r2, r3}
/mnt/disk/raspbian-tee/optee_os/lib/libutils/isoc/arch/arm/arm32_aeabi_ldivmod_a32.S:46
     cd8:	e1a0000d 	mov	r0, sp
/mnt/disk/raspbian-tee/optee_os/lib/libutils/isoc/arch/arm/arm32_aeabi_ldivmod_a32.S:47
     cdc:	fa001b54 	blx	7a34 <__ul_divmod>
/mnt/disk/raspbian-tee/optee_os/lib/libutils/isoc/arch/arm/arm32_aeabi_ldivmod_a32.S:48
     ce0:	e8bd000f 	pop	{r0, r1, r2, r3}
/mnt/disk/raspbian-tee/optee_os/lib/libutils/isoc/arch/arm/arm32_aeabi_ldivmod_a32.S:49
     ce4:	e8bd9000 	pop	{ip, pc}

00000ce8 <trace_ext_puts>:
trace_ext_puts():
/mnt/disk/raspbian-tee/optee_os/lib/libutee/trace_ext.c:17
     ce8:	b510      	push	{r4, lr}
     cea:	4604      	mov	r4, r0
/mnt/disk/raspbian-tee/optee_os/lib/libutee/trace_ext.c:18
     cec:	f006 fe9a 	bl	7a24 <strlen>
     cf0:	4601      	mov	r1, r0
     cf2:	4620      	mov	r0, r4
/mnt/disk/raspbian-tee/optee_os/lib/libutee/trace_ext.c:19
     cf4:	e8bd 4010 	ldmia.w	sp!, {r4, lr}
/mnt/disk/raspbian-tee/optee_os/lib/libutee/trace_ext.c:18
     cf8:	f006 bfa6 	b.w	7c48 <__utee_log_from_thumb>

00000cfc <trace_ext_get_thread_id>:
trace_ext_get_thread_id():
/mnt/disk/raspbian-tee/optee_os/lib/libutee/trace_ext.c:24
     cfc:	f04f 30ff 	mov.w	r0, #4294967295	; 0xffffffff
     d00:	4770      	bx	lr

00000d02 <printf>:
printf():
/mnt/disk/raspbian-tee/optee_os/lib/libutee/trace_ext.c:32
     d02:	b40f      	push	{r0, r1, r2, r3}
     d04:	b530      	push	{r4, r5, lr}
     d06:	b0c3      	sub	sp, #268	; 0x10c
/mnt/disk/raspbian-tee/optee_os/lib/libutee/trace_ext.c:37
     d08:	f7ff fb00 	bl	30c <trace_get_level>
     d0c:	2800      	cmp	r0, #0
     d0e:	dd13      	ble.n	d38 <printf+0x36>
/mnt/disk/raspbian-tee/optee_os/lib/libutee/trace_ext.c:41
     d10:	ad02      	add	r5, sp, #8
/mnt/disk/raspbian-tee/optee_os/lib/libutee/trace_ext.c:40
     d12:	ab47      	add	r3, sp, #284	; 0x11c
/mnt/disk/raspbian-tee/optee_os/lib/libutee/trace_ext.c:41
     d14:	9a46      	ldr	r2, [sp, #280]	; 0x118
     d16:	f44f 7180 	mov.w	r1, #256	; 0x100
     d1a:	4628      	mov	r0, r5
/mnt/disk/raspbian-tee/optee_os/lib/libutee/trace_ext.c:40
     d1c:	9301      	str	r3, [sp, #4]
/mnt/disk/raspbian-tee/optee_os/lib/libutee/trace_ext.c:41
     d1e:	f006 ff4a 	bl	7bb6 <vsnprintf>
/mnt/disk/raspbian-tee/optee_os/lib/libutee/trace_ext.c:44
     d22:	1e04      	subs	r4, r0, #0
     d24:	db02      	blt.n	d2c <printf+0x2a>
/mnt/disk/raspbian-tee/optee_os/lib/libutee/trace_ext.c:47
     d26:	4628      	mov	r0, r5
     d28:	f7ff ffde 	bl	ce8 <trace_ext_puts>
/mnt/disk/raspbian-tee/optee_os/lib/libutee/trace_ext.c:50
     d2c:	4620      	mov	r0, r4
     d2e:	b043      	add	sp, #268	; 0x10c
     d30:	e8bd 4030 	ldmia.w	sp!, {r4, r5, lr}
     d34:	b004      	add	sp, #16
     d36:	4770      	bx	lr
/mnt/disk/raspbian-tee/optee_os/lib/libutee/trace_ext.c:38
     d38:	2400      	movs	r4, #0
     d3a:	e7f7      	b.n	d2c <printf+0x2a>

00000d3c <puts>:
puts():
/mnt/disk/raspbian-tee/optee_os/lib/libutee/trace_ext.c:53
     d3c:	b510      	push	{r4, lr}
     d3e:	4604      	mov	r4, r0
/mnt/disk/raspbian-tee/optee_os/lib/libutee/trace_ext.c:54
     d40:	f7ff fae4 	bl	30c <trace_get_level>
     d44:	2800      	cmp	r0, #0
     d46:	dd06      	ble.n	d56 <puts+0x1a>
/mnt/disk/raspbian-tee/optee_os/lib/libutee/trace_ext.c:55
     d48:	4620      	mov	r0, r4
     d4a:	f7ff ffcd 	bl	ce8 <trace_ext_puts>
/mnt/disk/raspbian-tee/optee_os/lib/libutee/trace_ext.c:56
     d4e:	4803      	ldr	r0, [pc, #12]	; (d5c <puts+0x20>)
     d50:	4478      	add	r0, pc
     d52:	f7ff ffc9 	bl	ce8 <trace_ext_puts>
/mnt/disk/raspbian-tee/optee_os/lib/libutee/trace_ext.c:59
     d56:	2001      	movs	r0, #1
     d58:	bd10      	pop	{r4, pc}
     d5a:	bf00      	nop
     d5c:	00007a5d 	.word	0x00007a5d

00000d60 <putchar>:
putchar():
/mnt/disk/raspbian-tee/optee_os/lib/libutee/trace_ext.c:62
     d60:	b513      	push	{r0, r1, r4, lr}
/mnt/disk/raspbian-tee/optee_os/lib/libutee/trace_ext.c:63
     d62:	2300      	movs	r3, #0
/mnt/disk/raspbian-tee/optee_os/lib/libutee/trace_ext.c:62
     d64:	4604      	mov	r4, r0
/mnt/disk/raspbian-tee/optee_os/lib/libutee/trace_ext.c:63
     d66:	f88d 0004 	strb.w	r0, [sp, #4]
     d6a:	f88d 3005 	strb.w	r3, [sp, #5]
/mnt/disk/raspbian-tee/optee_os/lib/libutee/trace_ext.c:65
     d6e:	f7ff facd 	bl	30c <trace_get_level>
     d72:	2800      	cmp	r0, #0
     d74:	dd02      	ble.n	d7c <putchar+0x1c>
/mnt/disk/raspbian-tee/optee_os/lib/libutee/trace_ext.c:66
     d76:	a801      	add	r0, sp, #4
     d78:	f7ff ffb6 	bl	ce8 <trace_ext_puts>
/mnt/disk/raspbian-tee/optee_os/lib/libutee/trace_ext.c:73
     d7c:	b2e0      	uxtb	r0, r4
     d7e:	b002      	add	sp, #8
     d80:	bd10      	pop	{r4, pc}
     d82:	bf00      	nop

00000d84 <__utee_from_param>:
__utee_from_param():
/mnt/disk/raspbian-tee/optee_os/lib/libutee/tee_api.c:23
     d84:	2300      	movs	r3, #0
/mnt/disk/raspbian-tee/optee_os/lib/libutee/tee_api.c:20
     d86:	b5f0      	push	{r4, r5, r6, r7, lr}
     d88:	4694      	mov	ip, r2
     d8a:	4615      	mov	r5, r2
/mnt/disk/raspbian-tee/optee_os/lib/libutee/tee_api.c:39
     d8c:	2600      	movs	r6, #0
     d8e:	2700      	movs	r7, #0
/mnt/disk/raspbian-tee/optee_os/lib/libutee/tee_api.c:35
     d90:	461a      	mov	r2, r3
/mnt/disk/raspbian-tee/optee_os/lib/libutee/tee_api.c:23
     d92:	e880 000a 	stmia.w	r0, {r1, r3}
/mnt/disk/raspbian-tee/optee_os/lib/libutee/tee_api.c:25
     d96:	fa21 f403 	lsr.w	r4, r1, r3
     d9a:	f004 040f 	and.w	r4, r4, #15
     d9e:	3c01      	subs	r4, #1
     da0:	2c06      	cmp	r4, #6
     da2:	d812      	bhi.n	dca <__utee_from_param+0x46>
     da4:	e8df f004 	tbb	[pc, r4]
     da8:	11040404 	.word	0x11040404
     dac:	0404      	.short	0x0404
     dae:	04          	.byte	0x04
     daf:	00          	.byte	0x00
/mnt/disk/raspbian-tee/optee_os/lib/libutee/tee_api.c:35
     db0:	f85c 4013 	ldr.w	r4, [ip, r3, lsl #1]
     db4:	6084      	str	r4, [r0, #8]
     db6:	60c2      	str	r2, [r0, #12]
/mnt/disk/raspbian-tee/optee_os/lib/libutee/tee_api.c:36
     db8:	686c      	ldr	r4, [r5, #4]
     dba:	6104      	str	r4, [r0, #16]
     dbc:	6142      	str	r2, [r0, #20]
     dbe:	3304      	adds	r3, #4
     dc0:	3508      	adds	r5, #8
     dc2:	3010      	adds	r0, #16
/mnt/disk/raspbian-tee/optee_os/lib/libutee/tee_api.c:24 (discriminator 2)
     dc4:	2b10      	cmp	r3, #16
     dc6:	d1e6      	bne.n	d96 <__utee_from_param+0x12>
/mnt/disk/raspbian-tee/optee_os/lib/libutee/tee_api.c:44
     dc8:	bdf0      	pop	{r4, r5, r6, r7, pc}
/mnt/disk/raspbian-tee/optee_os/lib/libutee/tee_api.c:39
     dca:	e9c0 6702 	strd	r6, r7, [r0, #8]
/mnt/disk/raspbian-tee/optee_os/lib/libutee/tee_api.c:40
     dce:	e9c0 6704 	strd	r6, r7, [r0, #16]
/mnt/disk/raspbian-tee/optee_os/lib/libutee/tee_api.c:41
     dd2:	e7f4      	b.n	dbe <__utee_from_param+0x3a>

00000dd4 <__utee_to_param>:
__utee_to_param():
/mnt/disk/raspbian-tee/optee_os/lib/libutee/tee_api.c:48
     dd4:	b5f0      	push	{r4, r5, r6, r7, lr}
/mnt/disk/raspbian-tee/optee_os/lib/libutee/tee_api.c:50
     dd6:	2300      	movs	r3, #0
     dd8:	6816      	ldr	r6, [r2, #0]
     dda:	4605      	mov	r5, r0
/mnt/disk/raspbian-tee/optee_os/lib/libutee/tee_api.c:56
     ddc:	fa26 f403 	lsr.w	r4, r6, r3
/mnt/disk/raspbian-tee/optee_os/lib/libutee/tee_api.c:53
     de0:	f8d2 c008 	ldr.w	ip, [r2, #8]
/mnt/disk/raspbian-tee/optee_os/lib/libutee/tee_api.c:56
     de4:	f004 040f 	and.w	r4, r4, #15
/mnt/disk/raspbian-tee/optee_os/lib/libutee/tee_api.c:54
     de8:	6917      	ldr	r7, [r2, #16]
/mnt/disk/raspbian-tee/optee_os/lib/libutee/tee_api.c:56
     dea:	3c01      	subs	r4, #1
     dec:	2c06      	cmp	r4, #6
     dee:	d808      	bhi.n	e02 <__utee_to_param+0x2e>
     df0:	e8df f004 	tbb	[pc, r4]
     df4:	07040404 	.word	0x07040404
     df8:	0404      	.short	0x0404
     dfa:	04          	.byte	0x04
     dfb:	00          	.byte	0x00
/mnt/disk/raspbian-tee/optee_os/lib/libutee/tee_api.c:66
     dfc:	f840 c013 	str.w	ip, [r0, r3, lsl #1]
/mnt/disk/raspbian-tee/optee_os/lib/libutee/tee_api.c:67
     e00:	606f      	str	r7, [r5, #4]
     e02:	3304      	adds	r3, #4
     e04:	3210      	adds	r2, #16
     e06:	3508      	adds	r5, #8
/mnt/disk/raspbian-tee/optee_os/lib/libutee/tee_api.c:52 (discriminator 2)
     e08:	2b10      	cmp	r3, #16
     e0a:	d1e7      	bne.n	ddc <__utee_to_param+0x8>
/mnt/disk/raspbian-tee/optee_os/lib/libutee/tee_api.c:74
     e0c:	b101      	cbz	r1, e10 <__utee_to_param+0x3c>
/mnt/disk/raspbian-tee/optee_os/lib/libutee/tee_api.c:75
     e0e:	600e      	str	r6, [r1, #0]
     e10:	bdf0      	pop	{r4, r5, r6, r7, pc}

00000e12 <TEE_OpenTASession>:
TEE_OpenTASession():
/mnt/disk/raspbian-tee/optee_os/lib/libutee/tee_api.c:84
     e12:	b5f0      	push	{r4, r5, r6, r7, lr}
     e14:	4605      	mov	r5, r0
     e16:	460f      	mov	r7, r1
     e18:	b097      	sub	sp, #92	; 0x5c
     e1a:	4611      	mov	r1, r2
/mnt/disk/raspbian-tee/optee_os/lib/libutee/tee_api.c:89
     e1c:	ac04      	add	r4, sp, #16
     e1e:	461a      	mov	r2, r3
     e20:	4620      	mov	r0, r4
/mnt/disk/raspbian-tee/optee_os/lib/libutee/tee_api.c:84
     e22:	461e      	mov	r6, r3
/mnt/disk/raspbian-tee/optee_os/lib/libutee/tee_api.c:89
     e24:	f7ff ffae 	bl	d84 <__utee_from_param>
/mnt/disk/raspbian-tee/optee_os/lib/libutee/tee_api.c:90
     e28:	9b1d      	ldr	r3, [sp, #116]	; 0x74
     e2a:	9300      	str	r3, [sp, #0]
     e2c:	4622      	mov	r2, r4
     e2e:	4639      	mov	r1, r7
     e30:	4628      	mov	r0, r5
     e32:	ab03      	add	r3, sp, #12
     e34:	f002 e90a 	blx	304c <utee_open_ta_session>
/mnt/disk/raspbian-tee/optee_os/lib/libutee/tee_api.c:92
     e38:	4622      	mov	r2, r4
/mnt/disk/raspbian-tee/optee_os/lib/libutee/tee_api.c:90
     e3a:	4605      	mov	r5, r0
/mnt/disk/raspbian-tee/optee_os/lib/libutee/tee_api.c:92
     e3c:	2100      	movs	r1, #0
     e3e:	4630      	mov	r0, r6
     e40:	f7ff ffc8 	bl	dd4 <__utee_to_param>
/mnt/disk/raspbian-tee/optee_os/lib/libutee/tee_api.c:98
     e44:	b10d      	cbz	r5, e4a <TEE_OpenTASession+0x38>
/mnt/disk/raspbian-tee/optee_os/lib/libutee/tee_api.c:99
     e46:	2300      	movs	r3, #0
     e48:	9303      	str	r3, [sp, #12]
/mnt/disk/raspbian-tee/optee_os/lib/libutee/tee_api.c:101
     e4a:	9b1c      	ldr	r3, [sp, #112]	; 0x70
/mnt/disk/raspbian-tee/optee_os/lib/libutee/tee_api.c:103
     e4c:	4628      	mov	r0, r5
/mnt/disk/raspbian-tee/optee_os/lib/libutee/tee_api.c:101
     e4e:	9a03      	ldr	r2, [sp, #12]
     e50:	601a      	str	r2, [r3, #0]
/mnt/disk/raspbian-tee/optee_os/lib/libutee/tee_api.c:103
     e52:	b017      	add	sp, #92	; 0x5c
     e54:	bdf0      	pop	{r4, r5, r6, r7, pc}

00000e56 <TEE_CloseTASession>:
TEE_CloseTASession():
/mnt/disk/raspbian-tee/optee_os/lib/libutee/tee_api.c:106
     e56:	b508      	push	{r3, lr}
/mnt/disk/raspbian-tee/optee_os/lib/libutee/tee_api.c:107
     e58:	b130      	cbz	r0, e68 <TEE_CloseTASession+0x12>
/mnt/disk/raspbian-tee/optee_os/lib/libutee/tee_api.c:108
     e5a:	f002 e904 	blx	3064 <utee_close_ta_session>
/mnt/disk/raspbian-tee/optee_os/lib/libutee/tee_api.c:110
     e5e:	b118      	cbz	r0, e68 <TEE_CloseTASession+0x12>
/mnt/disk/raspbian-tee/optee_os/lib/libutee/tee_api.c:113
     e60:	e8bd 4008 	ldmia.w	sp!, {r3, lr}
/mnt/disk/raspbian-tee/optee_os/lib/libutee/tee_api.c:111
     e64:	f006 be96 	b.w	7b94 <TEE_Panic>
     e68:	bd08      	pop	{r3, pc}

00000e6a <TEE_InvokeTACommand>:
TEE_InvokeTACommand():
/mnt/disk/raspbian-tee/optee_os/lib/libutee/tee_api.c:120
     e6a:	e92d 41f0 	stmdb	sp!, {r4, r5, r6, r7, r8, lr}
     e6e:	4604      	mov	r4, r0
     e70:	460f      	mov	r7, r1
     e72:	b096      	sub	sp, #88	; 0x58
/mnt/disk/raspbian-tee/optee_os/lib/libutee/tee_api.c:125
     e74:	4619      	mov	r1, r3
     e76:	ad04      	add	r5, sp, #16
/mnt/disk/raspbian-tee/optee_os/lib/libutee/tee_api.c:120
     e78:	4690      	mov	r8, r2
/mnt/disk/raspbian-tee/optee_os/lib/libutee/tee_api.c:125
     e7a:	4628      	mov	r0, r5
/mnt/disk/raspbian-tee/optee_os/lib/libutee/tee_api.c:120
     e7c:	9e1d      	ldr	r6, [sp, #116]	; 0x74
/mnt/disk/raspbian-tee/optee_os/lib/libutee/tee_api.c:125
     e7e:	9a1c      	ldr	r2, [sp, #112]	; 0x70
     e80:	f7ff ff80 	bl	d84 <__utee_from_param>
/mnt/disk/raspbian-tee/optee_os/lib/libutee/tee_api.c:126
     e84:	ab03      	add	r3, sp, #12
     e86:	4642      	mov	r2, r8
     e88:	9300      	str	r3, [sp, #0]
     e8a:	4639      	mov	r1, r7
     e8c:	462b      	mov	r3, r5
     e8e:	4620      	mov	r0, r4
     e90:	f002 e8f2 	blx	3078 <utee_invoke_ta_command>
/mnt/disk/raspbian-tee/optee_os/lib/libutee/tee_api.c:129
     e94:	462a      	mov	r2, r5
/mnt/disk/raspbian-tee/optee_os/lib/libutee/tee_api.c:126
     e96:	4604      	mov	r4, r0
/mnt/disk/raspbian-tee/optee_os/lib/libutee/tee_api.c:129
     e98:	2100      	movs	r1, #0
     e9a:	981c      	ldr	r0, [sp, #112]	; 0x70
     e9c:	f7ff ff9a 	bl	dd4 <__utee_to_param>
     ea0:	9b03      	ldr	r3, [sp, #12]
/mnt/disk/raspbian-tee/optee_os/lib/libutee/tee_api.c:131
     ea2:	b106      	cbz	r6, ea6 <TEE_InvokeTACommand+0x3c>
/mnt/disk/raspbian-tee/optee_os/lib/libutee/tee_api.c:132
     ea4:	6033      	str	r3, [r6, #0]
/mnt/disk/raspbian-tee/optee_os/lib/libutee/tee_api.c:134
     ea6:	2b04      	cmp	r3, #4
     ea8:	d009      	beq.n	ebe <TEE_InvokeTACommand+0x54>
/mnt/disk/raspbian-tee/optee_os/lib/libutee/tee_api.c:137
     eaa:	b144      	cbz	r4, ebe <TEE_InvokeTACommand+0x54>
/mnt/disk/raspbian-tee/optee_os/lib/libutee/tee_api.c:137 (discriminator 1)
     eac:	4b06      	ldr	r3, [pc, #24]	; (ec8 <TEE_InvokeTACommand+0x5e>)
     eae:	429c      	cmp	r4, r3
     eb0:	d005      	beq.n	ebe <TEE_InvokeTACommand+0x54>
/mnt/disk/raspbian-tee/optee_os/lib/libutee/tee_api.c:138
     eb2:	4b06      	ldr	r3, [pc, #24]	; (ecc <TEE_InvokeTACommand+0x62>)
     eb4:	429c      	cmp	r4, r3
     eb6:	d002      	beq.n	ebe <TEE_InvokeTACommand+0x54>
/mnt/disk/raspbian-tee/optee_os/lib/libutee/tee_api.c:140
     eb8:	4620      	mov	r0, r4
     eba:	f006 fe6b 	bl	7b94 <TEE_Panic>
/mnt/disk/raspbian-tee/optee_os/lib/libutee/tee_api.c:143
     ebe:	4620      	mov	r0, r4
     ec0:	b016      	add	sp, #88	; 0x58
     ec2:	e8bd 81f0 	ldmia.w	sp!, {r4, r5, r6, r7, r8, pc}
     ec6:	bf00      	nop
     ec8:	ffff000c 	.word	0xffff000c
     ecc:	ffff3024 	.word	0xffff3024

00000ed0 <TEE_GetCancellationFlag>:
TEE_GetCancellationFlag():
/mnt/disk/raspbian-tee/optee_os/lib/libutee/tee_api.c:148
     ed0:	b507      	push	{r0, r1, r2, lr}
/mnt/disk/raspbian-tee/optee_os/lib/libutee/tee_api.c:150
     ed2:	a801      	add	r0, sp, #4
     ed4:	f002 e8dc 	blx	3090 <utee_get_cancellation_flag>
/mnt/disk/raspbian-tee/optee_os/lib/libutee/tee_api.c:152
     ed8:	b108      	cbz	r0, ede <TEE_GetCancellationFlag+0xe>
/mnt/disk/raspbian-tee/optee_os/lib/libutee/tee_api.c:153
     eda:	2300      	movs	r3, #0
     edc:	9301      	str	r3, [sp, #4]
/mnt/disk/raspbian-tee/optee_os/lib/libutee/tee_api.c:155
     ede:	9801      	ldr	r0, [sp, #4]
     ee0:	3000      	adds	r0, #0
     ee2:	bf18      	it	ne
     ee4:	2001      	movne	r0, #1
     ee6:	b003      	add	sp, #12
     ee8:	f85d fb04 	ldr.w	pc, [sp], #4

00000eec <TEE_UnmaskCancellation>:
TEE_UnmaskCancellation():
/mnt/disk/raspbian-tee/optee_os/lib/libutee/tee_api.c:158
     eec:	b507      	push	{r0, r1, r2, lr}
/mnt/disk/raspbian-tee/optee_os/lib/libutee/tee_api.c:160
     eee:	a801      	add	r0, sp, #4
     ef0:	f002 e8e2 	blx	30b8 <utee_unmask_cancellation>
/mnt/disk/raspbian-tee/optee_os/lib/libutee/tee_api.c:162
     ef4:	b108      	cbz	r0, efa <TEE_UnmaskCancellation+0xe>
/mnt/disk/raspbian-tee/optee_os/lib/libutee/tee_api.c:163
     ef6:	f006 fe4d 	bl	7b94 <TEE_Panic>
/mnt/disk/raspbian-tee/optee_os/lib/libutee/tee_api.c:165
     efa:	9801      	ldr	r0, [sp, #4]
     efc:	3000      	adds	r0, #0
     efe:	bf18      	it	ne
     f00:	2001      	movne	r0, #1
     f02:	b003      	add	sp, #12
     f04:	f85d fb04 	ldr.w	pc, [sp], #4

00000f08 <TEE_MaskCancellation>:
TEE_MaskCancellation():
/mnt/disk/raspbian-tee/optee_os/lib/libutee/tee_api.c:168
     f08:	b507      	push	{r0, r1, r2, lr}
/mnt/disk/raspbian-tee/optee_os/lib/libutee/tee_api.c:170
     f0a:	a801      	add	r0, sp, #4
     f0c:	f002 e8de 	blx	30cc <utee_mask_cancellation>
/mnt/disk/raspbian-tee/optee_os/lib/libutee/tee_api.c:172
     f10:	b108      	cbz	r0, f16 <TEE_MaskCancellation+0xe>
/mnt/disk/raspbian-tee/optee_os/lib/libutee/tee_api.c:173
     f12:	f006 fe3f 	bl	7b94 <TEE_Panic>
/mnt/disk/raspbian-tee/optee_os/lib/libutee/tee_api.c:175
     f16:	9801      	ldr	r0, [sp, #4]
     f18:	3000      	adds	r0, #0
     f1a:	bf18      	it	ne
     f1c:	2001      	movne	r0, #1
     f1e:	b003      	add	sp, #12
     f20:	f85d fb04 	ldr.w	pc, [sp], #4

00000f24 <TEE_CheckMemoryAccessRights>:
TEE_CheckMemoryAccessRights():
/mnt/disk/raspbian-tee/optee_os/lib/libutee/tee_api.c:184
     f24:	b10a      	cbz	r2, f2a <TEE_CheckMemoryAccessRights+0x6>
/mnt/disk/raspbian-tee/optee_os/lib/libutee/tee_api.c:188
     f26:	f006 be97 	b.w	7c58 <__utee_check_access_rights_from_thumb>
/mnt/disk/raspbian-tee/optee_os/lib/libutee/tee_api.c:200
     f2a:	4610      	mov	r0, r2
     f2c:	4770      	bx	lr

00000f2e <TEE_SetInstanceData>:
TEE_SetInstanceData():
/mnt/disk/raspbian-tee/optee_os/lib/libutee/tee_api.c:204
     f2e:	4b02      	ldr	r3, [pc, #8]	; (f38 <TEE_SetInstanceData+0xa>)
     f30:	447b      	add	r3, pc
     f32:	6018      	str	r0, [r3, #0]
     f34:	4770      	bx	lr
     f36:	bf00      	nop
     f38:	0000914c 	.word	0x0000914c

00000f3c <TEE_GetInstanceData>:
TEE_GetInstanceData():
/mnt/disk/raspbian-tee/optee_os/lib/libutee/tee_api.c:210
     f3c:	4b01      	ldr	r3, [pc, #4]	; (f44 <TEE_GetInstanceData+0x8>)
     f3e:	447b      	add	r3, pc
     f40:	6818      	ldr	r0, [r3, #0]
     f42:	4770      	bx	lr
     f44:	0000913e 	.word	0x0000913e

00000f48 <TEE_MemMove>:
TEE_MemMove():
/mnt/disk/raspbian-tee/optee_os/lib/libutee/tee_api.c:214
     f48:	f006 be4b 	b.w	7be2 <memmove>

00000f4c <TEE_MemCompare>:
TEE_MemCompare():
/mnt/disk/raspbian-tee/optee_os/lib/libutee/tee_api.c:219
     f4c:	f006 be3a 	b.w	7bc4 <memcmp>

00000f50 <TEE_MemFill>:
TEE_MemFill():
/mnt/disk/raspbian-tee/optee_os/lib/libutee/tee_api.c:224
     f50:	f006 bd4f 	b.w	79f2 <memset>

00000f54 <TEE_GetSystemTime>:
TEE_GetSystemTime():
/mnt/disk/raspbian-tee/optee_os/lib/libutee/tee_api.c:230
     f54:	b508      	push	{r3, lr}
/mnt/disk/raspbian-tee/optee_os/lib/libutee/tee_api.c:231
     f56:	4601      	mov	r1, r0
     f58:	2000      	movs	r0, #0
     f5a:	f002 e8cc 	blx	30f4 <utee_get_time>
/mnt/disk/raspbian-tee/optee_os/lib/libutee/tee_api.c:233
     f5e:	b118      	cbz	r0, f68 <TEE_GetSystemTime+0x14>
/mnt/disk/raspbian-tee/optee_os/lib/libutee/tee_api.c:235
     f60:	e8bd 4008 	ldmia.w	sp!, {r3, lr}
/mnt/disk/raspbian-tee/optee_os/lib/libutee/tee_api.c:234
     f64:	f006 be16 	b.w	7b94 <TEE_Panic>
     f68:	bd08      	pop	{r3, pc}

00000f6a <TEE_Wait>:
TEE_Wait():
/mnt/disk/raspbian-tee/optee_os/lib/libutee/tee_api.c:238
     f6a:	b510      	push	{r4, lr}
/mnt/disk/raspbian-tee/optee_os/lib/libutee/tee_api.c:239
     f6c:	f002 e8b8 	blx	30e0 <utee_wait>
/mnt/disk/raspbian-tee/optee_os/lib/libutee/tee_api.c:241
     f70:	4604      	mov	r4, r0
     f72:	b120      	cbz	r0, f7e <TEE_Wait+0x14>
/mnt/disk/raspbian-tee/optee_os/lib/libutee/tee_api.c:241 (discriminator 1)
     f74:	4b03      	ldr	r3, [pc, #12]	; (f84 <TEE_Wait+0x1a>)
     f76:	4298      	cmp	r0, r3
     f78:	d001      	beq.n	f7e <TEE_Wait+0x14>
/mnt/disk/raspbian-tee/optee_os/lib/libutee/tee_api.c:242
     f7a:	f006 fe0b 	bl	7b94 <TEE_Panic>
/mnt/disk/raspbian-tee/optee_os/lib/libutee/tee_api.c:245
     f7e:	4620      	mov	r0, r4
     f80:	bd10      	pop	{r4, pc}
     f82:	bf00      	nop
     f84:	ffff0002 	.word	0xffff0002

00000f88 <TEE_GetTAPersistentTime>:
TEE_GetTAPersistentTime():
/mnt/disk/raspbian-tee/optee_os/lib/libutee/tee_api.c:248
     f88:	b538      	push	{r3, r4, r5, lr}
/mnt/disk/raspbian-tee/optee_os/lib/libutee/tee_api.c:251
     f8a:	4601      	mov	r1, r0
/mnt/disk/raspbian-tee/optee_os/lib/libutee/tee_api.c:248
     f8c:	4605      	mov	r5, r0
/mnt/disk/raspbian-tee/optee_os/lib/libutee/tee_api.c:251
     f8e:	2001      	movs	r0, #1
     f90:	f002 e8b0 	blx	30f4 <utee_get_time>
/mnt/disk/raspbian-tee/optee_os/lib/libutee/tee_api.c:253
     f94:	4604      	mov	r4, r0
     f96:	b170      	cbz	r0, fb6 <TEE_GetTAPersistentTime+0x2e>
/mnt/disk/raspbian-tee/optee_os/lib/libutee/tee_api.c:253 (discriminator 1)
     f98:	4b08      	ldr	r3, [pc, #32]	; (fbc <TEE_GetTAPersistentTime+0x34>)
     f9a:	4298      	cmp	r0, r3
     f9c:	d00b      	beq.n	fb6 <TEE_GetTAPersistentTime+0x2e>
/mnt/disk/raspbian-tee/optee_os/lib/libutee/tee_api.c:254
     f9e:	2300      	movs	r3, #0
     fa0:	602b      	str	r3, [r5, #0]
/mnt/disk/raspbian-tee/optee_os/lib/libutee/tee_api.c:255
     fa2:	606b      	str	r3, [r5, #4]
/mnt/disk/raspbian-tee/optee_os/lib/libutee/tee_api.c:258
     fa4:	f500 4330 	add.w	r3, r0, #45056	; 0xb000
     fa8:	2b01      	cmp	r3, #1
     faa:	d904      	bls.n	fb6 <TEE_GetTAPersistentTime+0x2e>
/mnt/disk/raspbian-tee/optee_os/lib/libutee/tee_api.c:261
     fac:	4b04      	ldr	r3, [pc, #16]	; (fc0 <TEE_GetTAPersistentTime+0x38>)
     fae:	4298      	cmp	r0, r3
     fb0:	d001      	beq.n	fb6 <TEE_GetTAPersistentTime+0x2e>
/mnt/disk/raspbian-tee/optee_os/lib/libutee/tee_api.c:263
     fb2:	f006 fdef 	bl	7b94 <TEE_Panic>
/mnt/disk/raspbian-tee/optee_os/lib/libutee/tee_api.c:266
     fb6:	4620      	mov	r0, r4
     fb8:	bd38      	pop	{r3, r4, r5, pc}
     fba:	bf00      	nop
     fbc:	ffff300f 	.word	0xffff300f
     fc0:	ffff000c 	.word	0xffff000c

00000fc4 <TEE_SetTAPersistentTime>:
TEE_SetTAPersistentTime():
/mnt/disk/raspbian-tee/optee_os/lib/libutee/tee_api.c:269
     fc4:	b510      	push	{r4, lr}
/mnt/disk/raspbian-tee/optee_os/lib/libutee/tee_api.c:272
     fc6:	f002 e8a0 	blx	3108 <utee_set_ta_time>
/mnt/disk/raspbian-tee/optee_os/lib/libutee/tee_api.c:274
     fca:	4604      	mov	r4, r0
     fcc:	b138      	cbz	r0, fde <TEE_SetTAPersistentTime+0x1a>
/mnt/disk/raspbian-tee/optee_os/lib/libutee/tee_api.c:274 (discriminator 1)
     fce:	4b05      	ldr	r3, [pc, #20]	; (fe4 <TEE_SetTAPersistentTime+0x20>)
     fd0:	4298      	cmp	r0, r3
     fd2:	d004      	beq.n	fde <TEE_SetTAPersistentTime+0x1a>
/mnt/disk/raspbian-tee/optee_os/lib/libutee/tee_api.c:275
     fd4:	4b04      	ldr	r3, [pc, #16]	; (fe8 <TEE_SetTAPersistentTime+0x24>)
     fd6:	4298      	cmp	r0, r3
     fd8:	d001      	beq.n	fde <TEE_SetTAPersistentTime+0x1a>
/mnt/disk/raspbian-tee/optee_os/lib/libutee/tee_api.c:277
     fda:	f006 fddb 	bl	7b94 <TEE_Panic>
/mnt/disk/raspbian-tee/optee_os/lib/libutee/tee_api.c:280
     fde:	4620      	mov	r0, r4
     fe0:	bd10      	pop	{r4, pc}
     fe2:	bf00      	nop
     fe4:	ffff000c 	.word	0xffff000c
     fe8:	ffff3041 	.word	0xffff3041

00000fec <TEE_GetREETime>:
TEE_GetREETime():
/mnt/disk/raspbian-tee/optee_os/lib/libutee/tee_api.c:283
     fec:	b508      	push	{r3, lr}
/mnt/disk/raspbian-tee/optee_os/lib/libutee/tee_api.c:284
     fee:	4601      	mov	r1, r0
     ff0:	2002      	movs	r0, #2
     ff2:	f002 e880 	blx	30f4 <utee_get_time>
/mnt/disk/raspbian-tee/optee_os/lib/libutee/tee_api.c:286
     ff6:	b118      	cbz	r0, 1000 <TEE_GetREETime+0x14>
/mnt/disk/raspbian-tee/optee_os/lib/libutee/tee_api.c:288
     ff8:	e8bd 4008 	ldmia.w	sp!, {r3, lr}
/mnt/disk/raspbian-tee/optee_os/lib/libutee/tee_api.c:287
     ffc:	f006 bdca 	b.w	7b94 <TEE_Panic>
    1000:	bd08      	pop	{r3, pc}

00001002 <TEE_Malloc>:
TEE_Malloc():
/mnt/disk/raspbian-tee/optee_os/lib/libutee/tee_api.c:291
    1002:	b507      	push	{r0, r1, r2, lr}
/mnt/disk/raspbian-tee/optee_os/lib/libutee/tee_api.c:292
    1004:	b931      	cbnz	r1, 1014 <TEE_Malloc+0x12>
/mnt/disk/raspbian-tee/optee_os/lib/libutee/tee_api.c:293
    1006:	4601      	mov	r1, r0
    1008:	2001      	movs	r0, #1
/mnt/disk/raspbian-tee/optee_os/lib/libutee/tee_api.c:300
    100a:	b003      	add	sp, #12
    100c:	f85d eb04 	ldr.w	lr, [sp], #4
/mnt/disk/raspbian-tee/optee_os/lib/libutee/tee_api.c:293
    1010:	f006 b99c 	b.w	734c <calloc>
/mnt/disk/raspbian-tee/optee_os/lib/libutee/tee_api.c:294
    1014:	f1b1 4f00 	cmp.w	r1, #2147483648	; 0x80000000
    1018:	d104      	bne.n	1024 <TEE_Malloc+0x22>
/mnt/disk/raspbian-tee/optee_os/lib/libutee/tee_api.c:300
    101a:	b003      	add	sp, #12
    101c:	f85d eb04 	ldr.w	lr, [sp], #4
/mnt/disk/raspbian-tee/optee_os/lib/libutee/tee_api.c:295
    1020:	f006 b98a 	b.w	7338 <malloc>
/mnt/disk/raspbian-tee/optee_os/lib/libutee/tee_api.c:297
    1024:	4b07      	ldr	r3, [pc, #28]	; (1044 <TEE_Malloc+0x42>)
    1026:	4808      	ldr	r0, [pc, #32]	; (1048 <TEE_Malloc+0x46>)
    1028:	447b      	add	r3, pc
    102a:	9300      	str	r3, [sp, #0]
    102c:	2301      	movs	r3, #1
    102e:	9101      	str	r1, [sp, #4]
    1030:	461a      	mov	r2, r3
    1032:	f240 1129 	movw	r1, #297	; 0x129
    1036:	4478      	add	r0, pc
    1038:	f7ff f972 	bl	320 <trace_printf>
/mnt/disk/raspbian-tee/optee_os/lib/libutee/tee_api.c:300
    103c:	2000      	movs	r0, #0
    103e:	b003      	add	sp, #12
    1040:	f85d fb04 	ldr.w	pc, [sp], #4
    1044:	0000711f 	.word	0x0000711f
    1048:	00007106 	.word	0x00007106

0000104c <TEE_Realloc>:
TEE_Realloc():
/mnt/disk/raspbian-tee/optee_os/lib/libutee/tee_api.c:304
    104c:	f006 b9a2 	b.w	7394 <realloc>

00001050 <TEE_Free>:
TEE_Free():
/mnt/disk/raspbian-tee/optee_os/lib/libutee/tee_api.c:309
    1050:	f006 b973 	b.w	733a <free>

00001054 <TEE_CacheClean>:
TEE_CacheClean():
/mnt/disk/raspbian-tee/optee_os/lib/libutee/tee_api.c:315
    1054:	2200      	movs	r2, #0
    1056:	f006 be07 	b.w	7c68 <__utee_cache_operation_from_thumb>

0000105a <TEE_CacheFlush>:
TEE_CacheFlush():
/mnt/disk/raspbian-tee/optee_os/lib/libutee/tee_api.c:319
    105a:	2201      	movs	r2, #1
    105c:	f006 be04 	b.w	7c68 <__utee_cache_operation_from_thumb>

00001060 <TEE_CacheInvalidate>:
TEE_CacheInvalidate():
/mnt/disk/raspbian-tee/optee_os/lib/libutee/tee_api.c:324
    1060:	2202      	movs	r2, #2
    1062:	f006 be01 	b.w	7c68 <__utee_cache_operation_from_thumb>
    1066:	bf00      	nop

00001068 <__utee_from_attr>:
__utee_from_attr():
/mnt/disk/raspbian-tee/optee_os/lib/libutee/tee_api_objects.c:19
    1068:	2318      	movs	r3, #24
    106a:	b530      	push	{r4, r5, lr}
/mnt/disk/raspbian-tee/optee_os/lib/libutee/tee_api_objects.c:25
    106c:	2400      	movs	r4, #0
    106e:	fb03 0202 	mla	r2, r3, r2, r0
/mnt/disk/raspbian-tee/optee_os/lib/libutee/tee_api_objects.c:22 (discriminator 1)
    1072:	4290      	cmp	r0, r2
    1074:	d100      	bne.n	1078 <__utee_from_attr+0x10>
/mnt/disk/raspbian-tee/optee_os/lib/libutee/tee_api_objects.c:32
    1076:	bd30      	pop	{r4, r5, pc}
/mnt/disk/raspbian-tee/optee_os/lib/libutee/tee_api_objects.c:23
    1078:	680b      	ldr	r3, [r1, #0]
    107a:	6103      	str	r3, [r0, #16]
/mnt/disk/raspbian-tee/optee_os/lib/libutee/tee_api_objects.c:24
    107c:	f013 5300 	ands.w	r3, r3, #536870912	; 0x20000000
    1080:	d008      	beq.n	1094 <__utee_from_attr+0x2c>
/mnt/disk/raspbian-tee/optee_os/lib/libutee/tee_api_objects.c:25
    1082:	684b      	ldr	r3, [r1, #4]
    1084:	e880 0018 	stmia.w	r0, {r3, r4}
/mnt/disk/raspbian-tee/optee_os/lib/libutee/tee_api_objects.c:26
    1088:	688b      	ldr	r3, [r1, #8]
    108a:	6083      	str	r3, [r0, #8]
    108c:	60c4      	str	r4, [r0, #12]
    108e:	310c      	adds	r1, #12
    1090:	3018      	adds	r0, #24
    1092:	e7ee      	b.n	1072 <__utee_from_attr+0xa>
/mnt/disk/raspbian-tee/optee_os/lib/libutee/tee_api_objects.c:28
    1094:	684d      	ldr	r5, [r1, #4]
    1096:	6005      	str	r5, [r0, #0]
    1098:	6043      	str	r3, [r0, #4]
/mnt/disk/raspbian-tee/optee_os/lib/libutee/tee_api_objects.c:29
    109a:	688d      	ldr	r5, [r1, #8]
    109c:	6085      	str	r5, [r0, #8]
    109e:	60c3      	str	r3, [r0, #12]
    10a0:	e7f5      	b.n	108e <__utee_from_attr+0x26>

000010a2 <TEE_GetObjectInfo>:
TEE_GetObjectInfo():
/mnt/disk/raspbian-tee/optee_os/lib/libutee/tee_api_objects.c:42
    10a2:	b510      	push	{r4, lr}
    10a4:	460c      	mov	r4, r1
/mnt/disk/raspbian-tee/optee_os/lib/libutee/tee_api_objects.c:45
    10a6:	f002 e89c 	blx	31e0 <utee_cryp_obj_get_info>
/mnt/disk/raspbian-tee/optee_os/lib/libutee/tee_api_objects.c:47
    10aa:	b108      	cbz	r0, 10b0 <TEE_GetObjectInfo+0xe>
/mnt/disk/raspbian-tee/optee_os/lib/libutee/tee_api_objects.c:48
    10ac:	f006 fd72 	bl	7b94 <TEE_Panic>
/mnt/disk/raspbian-tee/optee_os/lib/libutee/tee_api_objects.c:50
    10b0:	6822      	ldr	r2, [r4, #0]
    10b2:	4b05      	ldr	r3, [pc, #20]	; (10c8 <TEE_GetObjectInfo+0x26>)
    10b4:	429a      	cmp	r2, r3
    10b6:	d106      	bne.n	10c6 <TEE_GetObjectInfo+0x24>
/mnt/disk/raspbian-tee/optee_os/lib/libutee/tee_api_objects.c:51
    10b8:	2300      	movs	r3, #0
    10ba:	6063      	str	r3, [r4, #4]
/mnt/disk/raspbian-tee/optee_os/lib/libutee/tee_api_objects.c:52
    10bc:	60a3      	str	r3, [r4, #8]
/mnt/disk/raspbian-tee/optee_os/lib/libutee/tee_api_objects.c:53
    10be:	60e3      	str	r3, [r4, #12]
/mnt/disk/raspbian-tee/optee_os/lib/libutee/tee_api_objects.c:54
    10c0:	6123      	str	r3, [r4, #16]
/mnt/disk/raspbian-tee/optee_os/lib/libutee/tee_api_objects.c:55
    10c2:	6163      	str	r3, [r4, #20]
/mnt/disk/raspbian-tee/optee_os/lib/libutee/tee_api_objects.c:56
    10c4:	61a3      	str	r3, [r4, #24]
    10c6:	bd10      	pop	{r4, pc}
    10c8:	a00000be 	.word	0xa00000be

000010cc <TEE_GetObjectInfo1>:
TEE_GetObjectInfo1():
/mnt/disk/raspbian-tee/optee_os/lib/libutee/tee_api_objects.c:61
    10cc:	b510      	push	{r4, lr}
/mnt/disk/raspbian-tee/optee_os/lib/libutee/tee_api_objects.c:64
    10ce:	f002 e888 	blx	31e0 <utee_cryp_obj_get_info>
/mnt/disk/raspbian-tee/optee_os/lib/libutee/tee_api_objects.c:66
    10d2:	4604      	mov	r4, r0
    10d4:	b130      	cbz	r0, 10e4 <TEE_GetObjectInfo1+0x18>
/mnt/disk/raspbian-tee/optee_os/lib/libutee/tee_api_objects.c:66 (discriminator 1)
    10d6:	4b04      	ldr	r3, [pc, #16]	; (10e8 <TEE_GetObjectInfo1+0x1c>)
    10d8:	f020 0202 	bic.w	r2, r0, #2
    10dc:	429a      	cmp	r2, r3
    10de:	d001      	beq.n	10e4 <TEE_GetObjectInfo1+0x18>
/mnt/disk/raspbian-tee/optee_os/lib/libutee/tee_api_objects.c:69
    10e0:	f006 fd58 	bl	7b94 <TEE_Panic>
/mnt/disk/raspbian-tee/optee_os/lib/libutee/tee_api_objects.c:72
    10e4:	4620      	mov	r0, r4
    10e6:	bd10      	pop	{r4, pc}
    10e8:	f0100001 	.word	0xf0100001

000010ec <TEE_RestrictObjectUsage1>:
TEE_RestrictObjectUsage1():
/mnt/disk/raspbian-tee/optee_os/lib/libutee/tee_api_objects.c:96
    10ec:	b510      	push	{r4, lr}
/mnt/disk/raspbian-tee/optee_os/lib/libutee/tee_api_objects.c:99
    10ee:	f002 e882 	blx	31f4 <utee_cryp_obj_restrict_usage>
/mnt/disk/raspbian-tee/optee_os/lib/libutee/tee_api_objects.c:101
    10f2:	4604      	mov	r4, r0
    10f4:	b130      	cbz	r0, 1104 <TEE_RestrictObjectUsage1+0x18>
/mnt/disk/raspbian-tee/optee_os/lib/libutee/tee_api_objects.c:101 (discriminator 1)
    10f6:	4b04      	ldr	r3, [pc, #16]	; (1108 <TEE_RestrictObjectUsage1+0x1c>)
    10f8:	f020 0202 	bic.w	r2, r0, #2
    10fc:	429a      	cmp	r2, r3
    10fe:	d001      	beq.n	1104 <TEE_RestrictObjectUsage1+0x18>
/mnt/disk/raspbian-tee/optee_os/lib/libutee/tee_api_objects.c:104
    1100:	f006 fd48 	bl	7b94 <TEE_Panic>
/mnt/disk/raspbian-tee/optee_os/lib/libutee/tee_api_objects.c:107
    1104:	4620      	mov	r0, r4
    1106:	bd10      	pop	{r4, pc}
    1108:	f0100001 	.word	0xf0100001

0000110c <TEE_RestrictObjectUsage>:
TEE_RestrictObjectUsage():
/mnt/disk/raspbian-tee/optee_os/lib/libutee/tee_api_objects.c:81
    110c:	b530      	push	{r4, r5, lr}
    110e:	460d      	mov	r5, r1
    1110:	4604      	mov	r4, r0
    1112:	b089      	sub	sp, #36	; 0x24
/mnt/disk/raspbian-tee/optee_os/lib/libutee/tee_api_objects.c:85
    1114:	a901      	add	r1, sp, #4
    1116:	f002 e864 	blx	31e0 <utee_cryp_obj_get_info>
/mnt/disk/raspbian-tee/optee_os/lib/libutee/tee_api_objects.c:86
    111a:	4b06      	ldr	r3, [pc, #24]	; (1134 <TEE_RestrictObjectUsage+0x28>)
    111c:	9a01      	ldr	r2, [sp, #4]
    111e:	429a      	cmp	r2, r3
    1120:	d006      	beq.n	1130 <TEE_RestrictObjectUsage+0x24>
/mnt/disk/raspbian-tee/optee_os/lib/libutee/tee_api_objects.c:89
    1122:	4629      	mov	r1, r5
    1124:	4620      	mov	r0, r4
    1126:	f7ff ffe1 	bl	10ec <TEE_RestrictObjectUsage1>
/mnt/disk/raspbian-tee/optee_os/lib/libutee/tee_api_objects.c:91
    112a:	b108      	cbz	r0, 1130 <TEE_RestrictObjectUsage+0x24>
/mnt/disk/raspbian-tee/optee_os/lib/libutee/tee_api_objects.c:92
    112c:	f006 fd32 	bl	7b94 <TEE_Panic>
/mnt/disk/raspbian-tee/optee_os/lib/libutee/tee_api_objects.c:93
    1130:	b009      	add	sp, #36	; 0x24
    1132:	bd30      	pop	{r4, r5, pc}
    1134:	a00000be 	.word	0xa00000be

00001138 <TEE_GetObjectBufferAttribute>:
TEE_GetObjectBufferAttribute():
/mnt/disk/raspbian-tee/optee_os/lib/libutee/tee_api_objects.c:112
    1138:	e92d 41f0 	stmdb	sp!, {r4, r5, r6, r7, r8, lr}
    113c:	460e      	mov	r6, r1
    113e:	4607      	mov	r7, r0
    1140:	b08a      	sub	sp, #40	; 0x28
    1142:	4690      	mov	r8, r2
/mnt/disk/raspbian-tee/optee_os/lib/libutee/tee_api_objects.c:117
    1144:	a903      	add	r1, sp, #12
/mnt/disk/raspbian-tee/optee_os/lib/libutee/tee_api_objects.c:112
    1146:	461d      	mov	r5, r3
/mnt/disk/raspbian-tee/optee_os/lib/libutee/tee_api_objects.c:117
    1148:	f002 e84a 	blx	31e0 <utee_cryp_obj_get_info>
/mnt/disk/raspbian-tee/optee_os/lib/libutee/tee_api_objects.c:118
    114c:	4604      	mov	r4, r0
    114e:	b970      	cbnz	r0, 116e <TEE_GetObjectBufferAttribute+0x36>
/mnt/disk/raspbian-tee/optee_os/lib/libutee/tee_api_objects.c:122
    1150:	00b3      	lsls	r3, r6, #2
    1152:	d422      	bmi.n	119a <TEE_GetObjectBufferAttribute+0x62>
/mnt/disk/raspbian-tee/optee_os/lib/libutee/tee_api_objects.c:127
    1154:	682b      	ldr	r3, [r5, #0]
/mnt/disk/raspbian-tee/optee_os/lib/libutee/tee_api_objects.c:128
    1156:	4642      	mov	r2, r8
/mnt/disk/raspbian-tee/optee_os/lib/libutee/tee_api_objects.c:127
    1158:	e88d 0018 	stmia.w	sp, {r3, r4}
/mnt/disk/raspbian-tee/optee_os/lib/libutee/tee_api_objects.c:128
    115c:	4631      	mov	r1, r6
    115e:	466b      	mov	r3, sp
    1160:	4638      	mov	r0, r7
    1162:	f002 e852 	blx	3208 <utee_cryp_obj_get_attr>
/mnt/disk/raspbian-tee/optee_os/lib/libutee/tee_api_objects.c:130
    1166:	9b00      	ldr	r3, [sp, #0]
    1168:	602b      	str	r3, [r5, #0]
/mnt/disk/raspbian-tee/optee_os/lib/libutee/tee_api_objects.c:133
    116a:	4604      	mov	r4, r0
    116c:	b188      	cbz	r0, 1192 <TEE_GetObjectBufferAttribute+0x5a>
/mnt/disk/raspbian-tee/optee_os/lib/libutee/tee_api_objects.c:133 (discriminator 1)
    116e:	4b0c      	ldr	r3, [pc, #48]	; (11a0 <TEE_GetObjectBufferAttribute+0x68>)
    1170:	429c      	cmp	r4, r3
    1172:	d00e      	beq.n	1192 <TEE_GetObjectBufferAttribute+0x5a>
/mnt/disk/raspbian-tee/optee_os/lib/libutee/tee_api_objects.c:134
    1174:	3308      	adds	r3, #8
    1176:	429c      	cmp	r4, r3
    1178:	d00b      	beq.n	1192 <TEE_GetObjectBufferAttribute+0x5a>
/mnt/disk/raspbian-tee/optee_os/lib/libutee/tee_api_objects.c:135
    117a:	f1a3 637e 	sub.w	r3, r3, #266338304	; 0xfe00000
    117e:	f1a3 130f 	sub.w	r3, r3, #983055	; 0xf000f
    1182:	429c      	cmp	r4, r3
    1184:	d005      	beq.n	1192 <TEE_GetObjectBufferAttribute+0x5a>
/mnt/disk/raspbian-tee/optee_os/lib/libutee/tee_api_objects.c:136
    1186:	3302      	adds	r3, #2
    1188:	429c      	cmp	r4, r3
    118a:	d002      	beq.n	1192 <TEE_GetObjectBufferAttribute+0x5a>
/mnt/disk/raspbian-tee/optee_os/lib/libutee/tee_api_objects.c:138
    118c:	4620      	mov	r0, r4
    118e:	f006 fd01 	bl	7b94 <TEE_Panic>
/mnt/disk/raspbian-tee/optee_os/lib/libutee/tee_api_objects.c:141
    1192:	4620      	mov	r0, r4
    1194:	b00a      	add	sp, #40	; 0x28
    1196:	e8bd 81f0 	ldmia.w	sp!, {r4, r5, r6, r7, r8, pc}
/mnt/disk/raspbian-tee/optee_os/lib/libutee/tee_api_objects.c:123
    119a:	4c02      	ldr	r4, [pc, #8]	; (11a4 <TEE_GetObjectBufferAttribute+0x6c>)
    119c:	e7f6      	b.n	118c <TEE_GetObjectBufferAttribute+0x54>
    119e:	bf00      	nop
    11a0:	ffff0008 	.word	0xffff0008
    11a4:	ffff0006 	.word	0xffff0006

000011a8 <TEE_GetObjectValueAttribute>:
TEE_GetObjectValueAttribute():
/mnt/disk/raspbian-tee/optee_os/lib/libutee/tee_api_objects.c:146
    11a8:	e92d 41f0 	stmdb	sp!, {r4, r5, r6, r7, r8, lr}
    11ac:	460f      	mov	r7, r1
    11ae:	4680      	mov	r8, r0
    11b0:	b08c      	sub	sp, #48	; 0x30
    11b2:	4616      	mov	r6, r2
/mnt/disk/raspbian-tee/optee_os/lib/libutee/tee_api_objects.c:152
    11b4:	a905      	add	r1, sp, #20
/mnt/disk/raspbian-tee/optee_os/lib/libutee/tee_api_objects.c:150
    11b6:	2208      	movs	r2, #8
/mnt/disk/raspbian-tee/optee_os/lib/libutee/tee_api_objects.c:146
    11b8:	461d      	mov	r5, r3
/mnt/disk/raspbian-tee/optee_os/lib/libutee/tee_api_objects.c:150
    11ba:	2300      	movs	r3, #0
    11bc:	e9cd 2300 	strd	r2, r3, [sp]
/mnt/disk/raspbian-tee/optee_os/lib/libutee/tee_api_objects.c:152
    11c0:	f002 e80e 	blx	31e0 <utee_cryp_obj_get_info>
/mnt/disk/raspbian-tee/optee_os/lib/libutee/tee_api_objects.c:153
    11c4:	4604      	mov	r4, r0
    11c6:	b948      	cbnz	r0, 11dc <TEE_GetObjectValueAttribute+0x34>
/mnt/disk/raspbian-tee/optee_os/lib/libutee/tee_api_objects.c:157
    11c8:	00bb      	lsls	r3, r7, #2
    11ca:	d527      	bpl.n	121c <TEE_GetObjectValueAttribute+0x74>
/mnt/disk/raspbian-tee/optee_os/lib/libutee/tee_api_objects.c:162
    11cc:	466b      	mov	r3, sp
    11ce:	aa03      	add	r2, sp, #12
    11d0:	4639      	mov	r1, r7
    11d2:	4640      	mov	r0, r8
    11d4:	f002 e818 	blx	3208 <utee_cryp_obj_get_attr>
/mnt/disk/raspbian-tee/optee_os/lib/libutee/tee_api_objects.c:166
    11d8:	4604      	mov	r4, r0
    11da:	b158      	cbz	r0, 11f4 <TEE_GetObjectValueAttribute+0x4c>
/mnt/disk/raspbian-tee/optee_os/lib/libutee/tee_api_objects.c:166 (discriminator 1)
    11dc:	4b10      	ldr	r3, [pc, #64]	; (1220 <TEE_GetObjectValueAttribute+0x78>)
    11de:	429c      	cmp	r4, r3
    11e0:	d008      	beq.n	11f4 <TEE_GetObjectValueAttribute+0x4c>
/mnt/disk/raspbian-tee/optee_os/lib/libutee/tee_api_objects.c:167
    11e2:	4b10      	ldr	r3, [pc, #64]	; (1224 <TEE_GetObjectValueAttribute+0x7c>)
    11e4:	429c      	cmp	r4, r3
    11e6:	d005      	beq.n	11f4 <TEE_GetObjectValueAttribute+0x4c>
/mnt/disk/raspbian-tee/optee_os/lib/libutee/tee_api_objects.c:168
    11e8:	3302      	adds	r3, #2
    11ea:	429c      	cmp	r4, r3
    11ec:	d002      	beq.n	11f4 <TEE_GetObjectValueAttribute+0x4c>
/mnt/disk/raspbian-tee/optee_os/lib/libutee/tee_api_objects.c:170
    11ee:	4620      	mov	r0, r4
    11f0:	f006 fcd0 	bl	7b94 <TEE_Panic>
/mnt/disk/raspbian-tee/optee_os/lib/libutee/tee_api_objects.c:172
    11f4:	e9dd 2300 	ldrd	r2, r3, [sp]
    11f8:	2b00      	cmp	r3, #0
    11fa:	bf08      	it	eq
    11fc:	2a08      	cmpeq	r2, #8
    11fe:	d002      	beq.n	1206 <TEE_GetObjectValueAttribute+0x5e>
/mnt/disk/raspbian-tee/optee_os/lib/libutee/tee_api_objects.c:173
    1200:	2000      	movs	r0, #0
    1202:	f006 fcc7 	bl	7b94 <TEE_Panic>
/mnt/disk/raspbian-tee/optee_os/lib/libutee/tee_api_objects.c:175
    1206:	b92c      	cbnz	r4, 1214 <TEE_GetObjectValueAttribute+0x6c>
/mnt/disk/raspbian-tee/optee_os/lib/libutee/tee_api_objects.c:176
    1208:	b10e      	cbz	r6, 120e <TEE_GetObjectValueAttribute+0x66>
/mnt/disk/raspbian-tee/optee_os/lib/libutee/tee_api_objects.c:177
    120a:	9b03      	ldr	r3, [sp, #12]
    120c:	6033      	str	r3, [r6, #0]
/mnt/disk/raspbian-tee/optee_os/lib/libutee/tee_api_objects.c:178
    120e:	b10d      	cbz	r5, 1214 <TEE_GetObjectValueAttribute+0x6c>
/mnt/disk/raspbian-tee/optee_os/lib/libutee/tee_api_objects.c:179
    1210:	9b04      	ldr	r3, [sp, #16]
    1212:	602b      	str	r3, [r5, #0]
/mnt/disk/raspbian-tee/optee_os/lib/libutee/tee_api_objects.c:183
    1214:	4620      	mov	r0, r4
    1216:	b00c      	add	sp, #48	; 0x30
    1218:	e8bd 81f0 	ldmia.w	sp!, {r4, r5, r6, r7, r8, pc}
/mnt/disk/raspbian-tee/optee_os/lib/libutee/tee_api_objects.c:158
    121c:	4c02      	ldr	r4, [pc, #8]	; (1228 <TEE_GetObjectValueAttribute+0x80>)
    121e:	e7e6      	b.n	11ee <TEE_GetObjectValueAttribute+0x46>
    1220:	ffff0008 	.word	0xffff0008
    1224:	f0100001 	.word	0xf0100001
    1228:	ffff0006 	.word	0xffff0006

0000122c <TEE_CloseObject>:
TEE_CloseObject():
/mnt/disk/raspbian-tee/optee_os/lib/libutee/tee_api_objects.c:186
    122c:	b508      	push	{r3, lr}
/mnt/disk/raspbian-tee/optee_os/lib/libutee/tee_api_objects.c:189
    122e:	b130      	cbz	r0, 123e <TEE_CloseObject+0x12>
/mnt/disk/raspbian-tee/optee_os/lib/libutee/tee_api_objects.c:192
    1230:	f001 effe 	blx	3230 <utee_cryp_obj_close>
/mnt/disk/raspbian-tee/optee_os/lib/libutee/tee_api_objects.c:193
    1234:	b118      	cbz	r0, 123e <TEE_CloseObject+0x12>
/mnt/disk/raspbian-tee/optee_os/lib/libutee/tee_api_objects.c:195
    1236:	e8bd 4008 	ldmia.w	sp!, {r3, lr}
/mnt/disk/raspbian-tee/optee_os/lib/libutee/tee_api_objects.c:194
    123a:	f006 bcab 	b.w	7b94 <TEE_Panic>
    123e:	bd08      	pop	{r3, pc}

00001240 <TEE_AllocateTransientObject>:
TEE_AllocateTransientObject():
/mnt/disk/raspbian-tee/optee_os/lib/libutee/tee_api_objects.c:202
    1240:	b537      	push	{r0, r1, r2, r4, r5, lr}
    1242:	4615      	mov	r5, r2
/mnt/disk/raspbian-tee/optee_os/lib/libutee/tee_api_objects.c:206
    1244:	aa01      	add	r2, sp, #4
    1246:	f001 efea 	blx	321c <utee_cryp_obj_alloc>
/mnt/disk/raspbian-tee/optee_os/lib/libutee/tee_api_objects.c:208
    124a:	4604      	mov	r4, r0
    124c:	b150      	cbz	r0, 1264 <TEE_AllocateTransientObject+0x24>
/mnt/disk/raspbian-tee/optee_os/lib/libutee/tee_api_objects.c:208 (discriminator 1)
    124e:	4b07      	ldr	r3, [pc, #28]	; (126c <TEE_AllocateTransientObject+0x2c>)
    1250:	4298      	cmp	r0, r3
    1252:	d004      	beq.n	125e <TEE_AllocateTransientObject+0x1e>
/mnt/disk/raspbian-tee/optee_os/lib/libutee/tee_api_objects.c:209
    1254:	3b02      	subs	r3, #2
    1256:	4298      	cmp	r0, r3
    1258:	d001      	beq.n	125e <TEE_AllocateTransientObject+0x1e>
/mnt/disk/raspbian-tee/optee_os/lib/libutee/tee_api_objects.c:211
    125a:	f006 fc9b 	bl	7b94 <TEE_Panic>
/mnt/disk/raspbian-tee/optee_os/lib/libutee/tee_api_objects.c:217
    125e:	4620      	mov	r0, r4
    1260:	b003      	add	sp, #12
    1262:	bd30      	pop	{r4, r5, pc}
/mnt/disk/raspbian-tee/optee_os/lib/libutee/tee_api_objects.c:214
    1264:	9b01      	ldr	r3, [sp, #4]
    1266:	602b      	str	r3, [r5, #0]
    1268:	e7f9      	b.n	125e <TEE_AllocateTransientObject+0x1e>
    126a:	bf00      	nop
    126c:	ffff000c 	.word	0xffff000c

00001270 <TEE_FreeTransientObject>:
TEE_FreeTransientObject():
/mnt/disk/raspbian-tee/optee_os/lib/libutee/tee_api_objects.c:220
    1270:	b510      	push	{r4, lr}
/mnt/disk/raspbian-tee/optee_os/lib/libutee/tee_api_objects.c:224
    1272:	4604      	mov	r4, r0
/mnt/disk/raspbian-tee/optee_os/lib/libutee/tee_api_objects.c:220
    1274:	b088      	sub	sp, #32
/mnt/disk/raspbian-tee/optee_os/lib/libutee/tee_api_objects.c:224
    1276:	b188      	cbz	r0, 129c <TEE_FreeTransientObject+0x2c>
/mnt/disk/raspbian-tee/optee_os/lib/libutee/tee_api_objects.c:227
    1278:	a901      	add	r1, sp, #4
    127a:	f001 efb2 	blx	31e0 <utee_cryp_obj_get_info>
/mnt/disk/raspbian-tee/optee_os/lib/libutee/tee_api_objects.c:228
    127e:	b108      	cbz	r0, 1284 <TEE_FreeTransientObject+0x14>
/mnt/disk/raspbian-tee/optee_os/lib/libutee/tee_api_objects.c:229
    1280:	f006 fc88 	bl	7b94 <TEE_Panic>
/mnt/disk/raspbian-tee/optee_os/lib/libutee/tee_api_objects.c:231
    1284:	9b07      	ldr	r3, [sp, #28]
    1286:	03db      	lsls	r3, r3, #15
    1288:	d502      	bpl.n	1290 <TEE_FreeTransientObject+0x20>
/mnt/disk/raspbian-tee/optee_os/lib/libutee/tee_api_objects.c:232
    128a:	2000      	movs	r0, #0
    128c:	f006 fc82 	bl	7b94 <TEE_Panic>
/mnt/disk/raspbian-tee/optee_os/lib/libutee/tee_api_objects.c:234
    1290:	4620      	mov	r0, r4
    1292:	f001 efce 	blx	3230 <utee_cryp_obj_close>
/mnt/disk/raspbian-tee/optee_os/lib/libutee/tee_api_objects.c:235
    1296:	b108      	cbz	r0, 129c <TEE_FreeTransientObject+0x2c>
/mnt/disk/raspbian-tee/optee_os/lib/libutee/tee_api_objects.c:236
    1298:	f006 fc7c 	bl	7b94 <TEE_Panic>
/mnt/disk/raspbian-tee/optee_os/lib/libutee/tee_api_objects.c:237
    129c:	b008      	add	sp, #32
    129e:	bd10      	pop	{r4, pc}

000012a0 <TEE_ResetTransientObject>:
TEE_ResetTransientObject():
/mnt/disk/raspbian-tee/optee_os/lib/libutee/tee_api_objects.c:240
    12a0:	b510      	push	{r4, lr}
/mnt/disk/raspbian-tee/optee_os/lib/libutee/tee_api_objects.c:244
    12a2:	4604      	mov	r4, r0
/mnt/disk/raspbian-tee/optee_os/lib/libutee/tee_api_objects.c:240
    12a4:	b088      	sub	sp, #32
/mnt/disk/raspbian-tee/optee_os/lib/libutee/tee_api_objects.c:244
    12a6:	b188      	cbz	r0, 12cc <TEE_ResetTransientObject+0x2c>
/mnt/disk/raspbian-tee/optee_os/lib/libutee/tee_api_objects.c:247
    12a8:	a901      	add	r1, sp, #4
    12aa:	f001 ef9a 	blx	31e0 <utee_cryp_obj_get_info>
/mnt/disk/raspbian-tee/optee_os/lib/libutee/tee_api_objects.c:248
    12ae:	b108      	cbz	r0, 12b4 <TEE_ResetTransientObject+0x14>
/mnt/disk/raspbian-tee/optee_os/lib/libutee/tee_api_objects.c:249
    12b0:	f006 fc70 	bl	7b94 <TEE_Panic>
/mnt/disk/raspbian-tee/optee_os/lib/libutee/tee_api_objects.c:251
    12b4:	9b07      	ldr	r3, [sp, #28]
    12b6:	03db      	lsls	r3, r3, #15
    12b8:	d502      	bpl.n	12c0 <TEE_ResetTransientObject+0x20>
/mnt/disk/raspbian-tee/optee_os/lib/libutee/tee_api_objects.c:252
    12ba:	2000      	movs	r0, #0
    12bc:	f006 fc6a 	bl	7b94 <TEE_Panic>
/mnt/disk/raspbian-tee/optee_os/lib/libutee/tee_api_objects.c:254
    12c0:	4620      	mov	r0, r4
    12c2:	f001 efc0 	blx	3244 <utee_cryp_obj_reset>
/mnt/disk/raspbian-tee/optee_os/lib/libutee/tee_api_objects.c:255
    12c6:	b108      	cbz	r0, 12cc <TEE_ResetTransientObject+0x2c>
/mnt/disk/raspbian-tee/optee_os/lib/libutee/tee_api_objects.c:256
    12c8:	f006 fc64 	bl	7b94 <TEE_Panic>
/mnt/disk/raspbian-tee/optee_os/lib/libutee/tee_api_objects.c:257
    12cc:	b008      	add	sp, #32
    12ce:	bd10      	pop	{r4, pc}

000012d0 <TEE_PopulateTransientObject>:
TEE_PopulateTransientObject():
/mnt/disk/raspbian-tee/optee_os/lib/libutee/tee_api_objects.c:265
    12d0:	2318      	movs	r3, #24
/mnt/disk/raspbian-tee/optee_os/lib/libutee/tee_api_objects.c:262
    12d2:	e92d 41f0 	stmdb	sp!, {r4, r5, r6, r7, r8, lr}
    12d6:	4688      	mov	r8, r1
    12d8:	b088      	sub	sp, #32
/mnt/disk/raspbian-tee/optee_os/lib/libutee/tee_api_objects.c:265
    12da:	4353      	muls	r3, r2
/mnt/disk/raspbian-tee/optee_os/lib/libutee/tee_api_objects.c:262
    12dc:	af00      	add	r7, sp, #0
/mnt/disk/raspbian-tee/optee_os/lib/libutee/tee_api_objects.c:267
    12de:	1d39      	adds	r1, r7, #4
/mnt/disk/raspbian-tee/optee_os/lib/libutee/tee_api_objects.c:262
    12e0:	4606      	mov	r6, r0
/mnt/disk/raspbian-tee/optee_os/lib/libutee/tee_api_objects.c:265
    12e2:	3308      	adds	r3, #8
/mnt/disk/raspbian-tee/optee_os/lib/libutee/tee_api_objects.c:262
    12e4:	4614      	mov	r4, r2
/mnt/disk/raspbian-tee/optee_os/lib/libutee/tee_api_objects.c:265
    12e6:	ebad 0d03 	sub.w	sp, sp, r3
    12ea:	466d      	mov	r5, sp
/mnt/disk/raspbian-tee/optee_os/lib/libutee/tee_api_objects.c:267
    12ec:	f001 ef78 	blx	31e0 <utee_cryp_obj_get_info>
/mnt/disk/raspbian-tee/optee_os/lib/libutee/tee_api_objects.c:268
    12f0:	b108      	cbz	r0, 12f6 <TEE_PopulateTransientObject+0x26>
/mnt/disk/raspbian-tee/optee_os/lib/libutee/tee_api_objects.c:269
    12f2:	f006 fc4f 	bl	7b94 <TEE_Panic>
/mnt/disk/raspbian-tee/optee_os/lib/libutee/tee_api_objects.c:272
    12f6:	69fb      	ldr	r3, [r7, #28]
    12f8:	03da      	lsls	r2, r3, #15
    12fa:	d502      	bpl.n	1302 <TEE_PopulateTransientObject+0x32>
/mnt/disk/raspbian-tee/optee_os/lib/libutee/tee_api_objects.c:273
    12fc:	2000      	movs	r0, #0
    12fe:	f006 fc49 	bl	7b94 <TEE_Panic>
/mnt/disk/raspbian-tee/optee_os/lib/libutee/tee_api_objects.c:276
    1302:	69fb      	ldr	r3, [r7, #28]
    1304:	039b      	lsls	r3, r3, #14
    1306:	d502      	bpl.n	130e <TEE_PopulateTransientObject+0x3e>
/mnt/disk/raspbian-tee/optee_os/lib/libutee/tee_api_objects.c:277
    1308:	2000      	movs	r0, #0
    130a:	f006 fc43 	bl	7b94 <TEE_Panic>
/mnt/disk/raspbian-tee/optee_os/lib/libutee/tee_api_objects.c:279
    130e:	4622      	mov	r2, r4
    1310:	4641      	mov	r1, r8
    1312:	4628      	mov	r0, r5
    1314:	f7ff fea8 	bl	1068 <__utee_from_attr>
/mnt/disk/raspbian-tee/optee_os/lib/libutee/tee_api_objects.c:280
    1318:	4622      	mov	r2, r4
    131a:	4629      	mov	r1, r5
    131c:	4630      	mov	r0, r6
    131e:	f001 ef9c 	blx	3258 <utee_cryp_obj_populate>
/mnt/disk/raspbian-tee/optee_os/lib/libutee/tee_api_objects.c:281
    1322:	4604      	mov	r4, r0
    1324:	b120      	cbz	r0, 1330 <TEE_PopulateTransientObject+0x60>
/mnt/disk/raspbian-tee/optee_os/lib/libutee/tee_api_objects.c:281 (discriminator 1)
    1326:	4b05      	ldr	r3, [pc, #20]	; (133c <TEE_PopulateTransientObject+0x6c>)
    1328:	4298      	cmp	r0, r3
    132a:	d001      	beq.n	1330 <TEE_PopulateTransientObject+0x60>
/mnt/disk/raspbian-tee/optee_os/lib/libutee/tee_api_objects.c:282
    132c:	f006 fc32 	bl	7b94 <TEE_Panic>
/mnt/disk/raspbian-tee/optee_os/lib/libutee/tee_api_objects.c:284
    1330:	4620      	mov	r0, r4
    1332:	3720      	adds	r7, #32
    1334:	46bd      	mov	sp, r7
    1336:	e8bd 81f0 	ldmia.w	sp!, {r4, r5, r6, r7, r8, pc}
    133a:	bf00      	nop
    133c:	ffff0006 	.word	0xffff0006

00001340 <TEE_InitRefAttribute>:
TEE_InitRefAttribute():
/mnt/disk/raspbian-tee/optee_os/lib/libutee/tee_api_objects.c:288
    1340:	b5f8      	push	{r3, r4, r5, r6, r7, lr}
    1342:	460d      	mov	r5, r1
    1344:	4617      	mov	r7, r2
    1346:	461e      	mov	r6, r3
/mnt/disk/raspbian-tee/optee_os/lib/libutee/tee_api_objects.c:289
    1348:	4604      	mov	r4, r0
    134a:	b908      	cbnz	r0, 1350 <TEE_InitRefAttribute+0x10>
/mnt/disk/raspbian-tee/optee_os/lib/libutee/tee_api_objects.c:290
    134c:	f006 fc22 	bl	7b94 <TEE_Panic>
/mnt/disk/raspbian-tee/optee_os/lib/libutee/tee_api_objects.c:291
    1350:	00ab      	lsls	r3, r5, #2
    1352:	d502      	bpl.n	135a <TEE_InitRefAttribute+0x1a>
/mnt/disk/raspbian-tee/optee_os/lib/libutee/tee_api_objects.c:292
    1354:	2000      	movs	r0, #0
    1356:	f006 fc1d 	bl	7b94 <TEE_Panic>
/mnt/disk/raspbian-tee/optee_os/lib/libutee/tee_api_objects.c:294
    135a:	e884 00a0 	stmia.w	r4, {r5, r7}
/mnt/disk/raspbian-tee/optee_os/lib/libutee/tee_api_objects.c:295
    135e:	60a6      	str	r6, [r4, #8]
    1360:	bdf8      	pop	{r3, r4, r5, r6, r7, pc}

00001362 <TEE_InitValueAttribute>:
TEE_InitValueAttribute():
/mnt/disk/raspbian-tee/optee_os/lib/libutee/tee_api_objects.c:300
    1362:	b5f8      	push	{r3, r4, r5, r6, r7, lr}
    1364:	460d      	mov	r5, r1
    1366:	4617      	mov	r7, r2
    1368:	461e      	mov	r6, r3
/mnt/disk/raspbian-tee/optee_os/lib/libutee/tee_api_objects.c:301
    136a:	4604      	mov	r4, r0
    136c:	b908      	cbnz	r0, 1372 <TEE_InitValueAttribute+0x10>
/mnt/disk/raspbian-tee/optee_os/lib/libutee/tee_api_objects.c:302
    136e:	f006 fc11 	bl	7b94 <TEE_Panic>
/mnt/disk/raspbian-tee/optee_os/lib/libutee/tee_api_objects.c:303
    1372:	f015 5000 	ands.w	r0, r5, #536870912	; 0x20000000
    1376:	d101      	bne.n	137c <TEE_InitValueAttribute+0x1a>
/mnt/disk/raspbian-tee/optee_os/lib/libutee/tee_api_objects.c:304
    1378:	f006 fc0c 	bl	7b94 <TEE_Panic>
/mnt/disk/raspbian-tee/optee_os/lib/libutee/tee_api_objects.c:306
    137c:	e884 00a0 	stmia.w	r4, {r5, r7}
/mnt/disk/raspbian-tee/optee_os/lib/libutee/tee_api_objects.c:307
    1380:	60a6      	str	r6, [r4, #8]
    1382:	bdf8      	pop	{r3, r4, r5, r6, r7, pc}

00001384 <TEE_CopyObjectAttributes1>:
TEE_CopyObjectAttributes1():
/mnt/disk/raspbian-tee/optee_os/lib/libutee/tee_api_objects.c:333
    1384:	b570      	push	{r4, r5, r6, lr}
    1386:	460d      	mov	r5, r1
    1388:	4606      	mov	r6, r0
    138a:	b08e      	sub	sp, #56	; 0x38
/mnt/disk/raspbian-tee/optee_os/lib/libutee/tee_api_objects.c:338
    138c:	4669      	mov	r1, sp
    138e:	f001 ef28 	blx	31e0 <utee_cryp_obj_get_info>
/mnt/disk/raspbian-tee/optee_os/lib/libutee/tee_api_objects.c:339
    1392:	4604      	mov	r4, r0
    1394:	b9e0      	cbnz	r0, 13d0 <TEE_CopyObjectAttributes1+0x4c>
/mnt/disk/raspbian-tee/optee_os/lib/libutee/tee_api_objects.c:342
    1396:	a907      	add	r1, sp, #28
    1398:	4628      	mov	r0, r5
    139a:	f001 ef22 	blx	31e0 <utee_cryp_obj_get_info>
/mnt/disk/raspbian-tee/optee_os/lib/libutee/tee_api_objects.c:343
    139e:	4604      	mov	r4, r0
    13a0:	b9b0      	cbnz	r0, 13d0 <TEE_CopyObjectAttributes1+0x4c>
/mnt/disk/raspbian-tee/optee_os/lib/libutee/tee_api_objects.c:346
    13a2:	9b0d      	ldr	r3, [sp, #52]	; 0x34
    13a4:	0399      	lsls	r1, r3, #14
    13a6:	d401      	bmi.n	13ac <TEE_CopyObjectAttributes1+0x28>
/mnt/disk/raspbian-tee/optee_os/lib/libutee/tee_api_objects.c:347
    13a8:	f006 fbf4 	bl	7b94 <TEE_Panic>
/mnt/disk/raspbian-tee/optee_os/lib/libutee/tee_api_objects.c:349
    13ac:	9b06      	ldr	r3, [sp, #24]
    13ae:	03da      	lsls	r2, r3, #15
    13b0:	d502      	bpl.n	13b8 <TEE_CopyObjectAttributes1+0x34>
/mnt/disk/raspbian-tee/optee_os/lib/libutee/tee_api_objects.c:350
    13b2:	2000      	movs	r0, #0
    13b4:	f006 fbee 	bl	7b94 <TEE_Panic>
/mnt/disk/raspbian-tee/optee_os/lib/libutee/tee_api_objects.c:352
    13b8:	9b06      	ldr	r3, [sp, #24]
    13ba:	039b      	lsls	r3, r3, #14
    13bc:	d502      	bpl.n	13c4 <TEE_CopyObjectAttributes1+0x40>
/mnt/disk/raspbian-tee/optee_os/lib/libutee/tee_api_objects.c:353
    13be:	2000      	movs	r0, #0
    13c0:	f006 fbe8 	bl	7b94 <TEE_Panic>
/mnt/disk/raspbian-tee/optee_os/lib/libutee/tee_api_objects.c:355
    13c4:	4629      	mov	r1, r5
    13c6:	4630      	mov	r0, r6
    13c8:	f001 ef50 	blx	326c <utee_cryp_obj_copy>
/mnt/disk/raspbian-tee/optee_os/lib/libutee/tee_api_objects.c:359
    13cc:	4604      	mov	r4, r0
    13ce:	b140      	cbz	r0, 13e2 <TEE_CopyObjectAttributes1+0x5e>
/mnt/disk/raspbian-tee/optee_os/lib/libutee/tee_api_objects.c:359 (discriminator 1)
    13d0:	4b05      	ldr	r3, [pc, #20]	; (13e8 <TEE_CopyObjectAttributes1+0x64>)
    13d2:	429c      	cmp	r4, r3
    13d4:	d005      	beq.n	13e2 <TEE_CopyObjectAttributes1+0x5e>
/mnt/disk/raspbian-tee/optee_os/lib/libutee/tee_api_objects.c:360
    13d6:	3302      	adds	r3, #2
    13d8:	429c      	cmp	r4, r3
    13da:	d002      	beq.n	13e2 <TEE_CopyObjectAttributes1+0x5e>
/mnt/disk/raspbian-tee/optee_os/lib/libutee/tee_api_objects.c:362
    13dc:	4620      	mov	r0, r4
    13de:	f006 fbd9 	bl	7b94 <TEE_Panic>
/mnt/disk/raspbian-tee/optee_os/lib/libutee/tee_api_objects.c:365
    13e2:	4620      	mov	r0, r4
    13e4:	b00e      	add	sp, #56	; 0x38
    13e6:	bd70      	pop	{r4, r5, r6, pc}
    13e8:	f0100001 	.word	0xf0100001

000013ec <TEE_CopyObjectAttributes>:
TEE_CopyObjectAttributes():
/mnt/disk/raspbian-tee/optee_os/lib/libutee/tee_api_objects.c:318
    13ec:	b530      	push	{r4, r5, lr}
    13ee:	460c      	mov	r4, r1
    13f0:	4605      	mov	r5, r0
    13f2:	b089      	sub	sp, #36	; 0x24
/mnt/disk/raspbian-tee/optee_os/lib/libutee/tee_api_objects.c:322
    13f4:	4620      	mov	r0, r4
    13f6:	a901      	add	r1, sp, #4
    13f8:	f001 eef2 	blx	31e0 <utee_cryp_obj_get_info>
/mnt/disk/raspbian-tee/optee_os/lib/libutee/tee_api_objects.c:323
    13fc:	4b06      	ldr	r3, [pc, #24]	; (1418 <TEE_CopyObjectAttributes+0x2c>)
    13fe:	9a01      	ldr	r2, [sp, #4]
    1400:	429a      	cmp	r2, r3
    1402:	d006      	beq.n	1412 <TEE_CopyObjectAttributes+0x26>
/mnt/disk/raspbian-tee/optee_os/lib/libutee/tee_api_objects.c:326
    1404:	4621      	mov	r1, r4
    1406:	4628      	mov	r0, r5
    1408:	f7ff ffbc 	bl	1384 <TEE_CopyObjectAttributes1>
/mnt/disk/raspbian-tee/optee_os/lib/libutee/tee_api_objects.c:327
    140c:	b108      	cbz	r0, 1412 <TEE_CopyObjectAttributes+0x26>
/mnt/disk/raspbian-tee/optee_os/lib/libutee/tee_api_objects.c:328
    140e:	f006 fbc1 	bl	7b94 <TEE_Panic>
/mnt/disk/raspbian-tee/optee_os/lib/libutee/tee_api_objects.c:329
    1412:	b009      	add	sp, #36	; 0x24
    1414:	bd30      	pop	{r4, r5, pc}
    1416:	bf00      	nop
    1418:	a00000be 	.word	0xa00000be

0000141c <TEE_GenerateKey>:
TEE_GenerateKey():
/mnt/disk/raspbian-tee/optee_os/lib/libutee/tee_api_objects.c:369
    141c:	e92d 41f0 	stmdb	sp!, {r4, r5, r6, r7, r8, lr}
    1420:	4688      	mov	r8, r1
    1422:	4611      	mov	r1, r2
/mnt/disk/raspbian-tee/optee_os/lib/libutee/tee_api_objects.c:371
    1424:	2218      	movs	r2, #24
/mnt/disk/raspbian-tee/optee_os/lib/libutee/tee_api_objects.c:369
    1426:	af00      	add	r7, sp, #0
    1428:	461c      	mov	r4, r3
    142a:	4606      	mov	r6, r0
/mnt/disk/raspbian-tee/optee_os/lib/libutee/tee_api_objects.c:371
    142c:	435a      	muls	r2, r3
    142e:	3208      	adds	r2, #8
    1430:	ebad 0d02 	sub.w	sp, sp, r2
/mnt/disk/raspbian-tee/optee_os/lib/libutee/tee_api_objects.c:373
    1434:	461a      	mov	r2, r3
    1436:	4668      	mov	r0, sp
    1438:	f7ff fe16 	bl	1068 <__utee_from_attr>
/mnt/disk/raspbian-tee/optee_os/lib/libutee/tee_api_objects.c:374
    143c:	4623      	mov	r3, r4
    143e:	466a      	mov	r2, sp
    1440:	4641      	mov	r1, r8
    1442:	4630      	mov	r0, r6
    1444:	f002 e808 	blx	3458 <utee_cryp_obj_generate_key>
/mnt/disk/raspbian-tee/optee_os/lib/libutee/tee_api_objects.c:377
    1448:	4604      	mov	r4, r0
    144a:	b120      	cbz	r0, 1456 <TEE_GenerateKey+0x3a>
/mnt/disk/raspbian-tee/optee_os/lib/libutee/tee_api_objects.c:377 (discriminator 1)
    144c:	4b04      	ldr	r3, [pc, #16]	; (1460 <TEE_GenerateKey+0x44>)
    144e:	4298      	cmp	r0, r3
    1450:	d001      	beq.n	1456 <TEE_GenerateKey+0x3a>
/mnt/disk/raspbian-tee/optee_os/lib/libutee/tee_api_objects.c:378
    1452:	f006 fb9f 	bl	7b94 <TEE_Panic>
/mnt/disk/raspbian-tee/optee_os/lib/libutee/tee_api_objects.c:381
    1456:	4620      	mov	r0, r4
    1458:	46bd      	mov	sp, r7
    145a:	e8bd 81f0 	ldmia.w	sp!, {r4, r5, r6, r7, r8, pc}
    145e:	bf00      	nop
    1460:	ffff0006 	.word	0xffff0006

00001464 <TEE_OpenPersistentObject>:
TEE_OpenPersistentObject():
/mnt/disk/raspbian-tee/optee_os/lib/libutee/tee_api_objects.c:388
    1464:	b530      	push	{r4, r5, lr}
    1466:	b085      	sub	sp, #20
    1468:	9d08      	ldr	r5, [sp, #32]
/mnt/disk/raspbian-tee/optee_os/lib/libutee/tee_api_objects.c:392
    146a:	b919      	cbnz	r1, 1474 <TEE_OpenPersistentObject+0x10>
    146c:	4c12      	ldr	r4, [pc, #72]	; (14b8 <TEE_OpenPersistentObject+0x54>)
/mnt/disk/raspbian-tee/optee_os/lib/libutee/tee_api_objects.c:422
    146e:	4620      	mov	r0, r4
    1470:	b005      	add	sp, #20
    1472:	bd30      	pop	{r4, r5, pc}
/mnt/disk/raspbian-tee/optee_os/lib/libutee/tee_api_objects.c:397
    1474:	2a40      	cmp	r2, #64	; 0x40
    1476:	d809      	bhi.n	148c <TEE_OpenPersistentObject+0x28>
/mnt/disk/raspbian-tee/optee_os/lib/libutee/tee_api_objects.c:402
    1478:	b145      	cbz	r5, 148c <TEE_OpenPersistentObject+0x28>
/mnt/disk/raspbian-tee/optee_os/lib/libutee/tee_api_objects.c:407
    147a:	ac03      	add	r4, sp, #12
    147c:	9400      	str	r4, [sp, #0]
    147e:	f001 ef66 	blx	334c <utee_storage_obj_open>
/mnt/disk/raspbian-tee/optee_os/lib/libutee/tee_api_objects.c:409
    1482:	4604      	mov	r4, r0
    1484:	b920      	cbnz	r0, 1490 <TEE_OpenPersistentObject+0x2c>
/mnt/disk/raspbian-tee/optee_os/lib/libutee/tee_api_objects.c:410
    1486:	9b03      	ldr	r3, [sp, #12]
    1488:	602b      	str	r3, [r5, #0]
    148a:	e7f0      	b.n	146e <TEE_OpenPersistentObject+0xa>
    148c:	4c0b      	ldr	r4, [pc, #44]	; (14bc <TEE_OpenPersistentObject+0x58>)
    148e:	e00e      	b.n	14ae <TEE_OpenPersistentObject+0x4a>
/mnt/disk/raspbian-tee/optee_os/lib/libutee/tee_api_objects.c:413
    1490:	4b09      	ldr	r3, [pc, #36]	; (14b8 <TEE_OpenPersistentObject+0x54>)
    1492:	4298      	cmp	r0, r3
    1494:	d0ea      	beq.n	146c <TEE_OpenPersistentObject+0x8>
/mnt/disk/raspbian-tee/optee_os/lib/libutee/tee_api_objects.c:414
    1496:	4b0a      	ldr	r3, [pc, #40]	; (14c0 <TEE_OpenPersistentObject+0x5c>)
    1498:	429c      	cmp	r4, r3
    149a:	d0e8      	beq.n	146e <TEE_OpenPersistentObject+0xa>
/mnt/disk/raspbian-tee/optee_os/lib/libutee/tee_api_objects.c:415
    149c:	3309      	adds	r3, #9
    149e:	429c      	cmp	r4, r3
    14a0:	d0e5      	beq.n	146e <TEE_OpenPersistentObject+0xa>
/mnt/disk/raspbian-tee/optee_os/lib/libutee/tee_api_objects.c:416
    14a2:	4b08      	ldr	r3, [pc, #32]	; (14c4 <TEE_OpenPersistentObject+0x60>)
    14a4:	429c      	cmp	r4, r3
    14a6:	d0e2      	beq.n	146e <TEE_OpenPersistentObject+0xa>
/mnt/disk/raspbian-tee/optee_os/lib/libutee/tee_api_objects.c:417
    14a8:	3302      	adds	r3, #2
    14aa:	429c      	cmp	r4, r3
    14ac:	d0df      	beq.n	146e <TEE_OpenPersistentObject+0xa>
/mnt/disk/raspbian-tee/optee_os/lib/libutee/tee_api_objects.c:419
    14ae:	4620      	mov	r0, r4
    14b0:	f006 fb70 	bl	7b94 <TEE_Panic>
/mnt/disk/raspbian-tee/optee_os/lib/libutee/tee_api_objects.c:421
    14b4:	e7db      	b.n	146e <TEE_OpenPersistentObject+0xa>
    14b6:	bf00      	nop
    14b8:	ffff0008 	.word	0xffff0008
    14bc:	ffff0006 	.word	0xffff0006
    14c0:	ffff0003 	.word	0xffff0003
    14c4:	f0100001 	.word	0xf0100001

000014c8 <TEE_CreatePersistentObject>:
TEE_CreatePersistentObject():
/mnt/disk/raspbian-tee/optee_os/lib/libutee/tee_api_objects.c:430
    14c8:	b530      	push	{r4, r5, lr}
    14ca:	b087      	sub	sp, #28
    14cc:	9c0d      	ldr	r4, [sp, #52]	; 0x34
/mnt/disk/raspbian-tee/optee_os/lib/libutee/tee_api_objects.c:434
    14ce:	2900      	cmp	r1, #0
    14d0:	d033      	beq.n	153a <TEE_CreatePersistentObject+0x72>
/mnt/disk/raspbian-tee/optee_os/lib/libutee/tee_api_objects.c:439
    14d2:	2a40      	cmp	r2, #64	; 0x40
    14d4:	d835      	bhi.n	1542 <TEE_CreatePersistentObject+0x7a>
/mnt/disk/raspbian-tee/optee_os/lib/libutee/tee_api_objects.c:444
    14d6:	ad05      	add	r5, sp, #20
    14d8:	9503      	str	r5, [sp, #12]
    14da:	9d0c      	ldr	r5, [sp, #48]	; 0x30
    14dc:	9502      	str	r5, [sp, #8]
    14de:	9d0b      	ldr	r5, [sp, #44]	; 0x2c
    14e0:	9501      	str	r5, [sp, #4]
    14e2:	9d0a      	ldr	r5, [sp, #40]	; 0x28
    14e4:	9500      	str	r5, [sp, #0]
    14e6:	f001 ef3e 	blx	3364 <utee_storage_obj_create>
/mnt/disk/raspbian-tee/optee_os/lib/libutee/tee_api_objects.c:447
    14ea:	b970      	cbnz	r0, 150a <TEE_CreatePersistentObject+0x42>
/mnt/disk/raspbian-tee/optee_os/lib/libutee/tee_api_objects.c:448
    14ec:	b11c      	cbz	r4, 14f6 <TEE_CreatePersistentObject+0x2e>
/mnt/disk/raspbian-tee/optee_os/lib/libutee/tee_api_objects.c:449
    14ee:	9b05      	ldr	r3, [sp, #20]
    14f0:	6023      	str	r3, [r4, #0]
/mnt/disk/raspbian-tee/optee_os/lib/libutee/tee_api_objects.c:468
    14f2:	b007      	add	sp, #28
    14f4:	bd30      	pop	{r4, r5, pc}
/mnt/disk/raspbian-tee/optee_os/lib/libutee/tee_api_objects.c:451
    14f6:	9805      	ldr	r0, [sp, #20]
    14f8:	f001 ee9a 	blx	3230 <utee_cryp_obj_close>
/mnt/disk/raspbian-tee/optee_os/lib/libutee/tee_api_objects.c:452
    14fc:	2800      	cmp	r0, #0
    14fe:	d0f8      	beq.n	14f2 <TEE_CreatePersistentObject+0x2a>
/mnt/disk/raspbian-tee/optee_os/lib/libutee/tee_api_objects.c:458
    1500:	4b12      	ldr	r3, [pc, #72]	; (154c <TEE_CreatePersistentObject+0x84>)
    1502:	4298      	cmp	r0, r3
    1504:	d106      	bne.n	1514 <TEE_CreatePersistentObject+0x4c>
/mnt/disk/raspbian-tee/optee_os/lib/libutee/tee_api_objects.c:467
    1506:	4811      	ldr	r0, [pc, #68]	; (154c <TEE_CreatePersistentObject+0x84>)
    1508:	e7f3      	b.n	14f2 <TEE_CreatePersistentObject+0x2a>
/mnt/disk/raspbian-tee/optee_os/lib/libutee/tee_api_objects.c:456
    150a:	2c00      	cmp	r4, #0
    150c:	d0f8      	beq.n	1500 <TEE_CreatePersistentObject+0x38>
/mnt/disk/raspbian-tee/optee_os/lib/libutee/tee_api_objects.c:457
    150e:	2300      	movs	r3, #0
    1510:	6023      	str	r3, [r4, #0]
    1512:	e7f5      	b.n	1500 <TEE_CreatePersistentObject+0x38>
/mnt/disk/raspbian-tee/optee_os/lib/libutee/tee_api_objects.c:458 (discriminator 1)
    1514:	4b0e      	ldr	r3, [pc, #56]	; (1550 <TEE_CreatePersistentObject+0x88>)
    1516:	4298      	cmp	r0, r3
    1518:	d0eb      	beq.n	14f2 <TEE_CreatePersistentObject+0x2a>
/mnt/disk/raspbian-tee/optee_os/lib/libutee/tee_api_objects.c:459
    151a:	3309      	adds	r3, #9
    151c:	4298      	cmp	r0, r3
    151e:	d0e8      	beq.n	14f2 <TEE_CreatePersistentObject+0x2a>
/mnt/disk/raspbian-tee/optee_os/lib/libutee/tee_api_objects.c:460
    1520:	4b0c      	ldr	r3, [pc, #48]	; (1554 <TEE_CreatePersistentObject+0x8c>)
    1522:	4298      	cmp	r0, r3
    1524:	d0e5      	beq.n	14f2 <TEE_CreatePersistentObject+0x2a>
/mnt/disk/raspbian-tee/optee_os/lib/libutee/tee_api_objects.c:461
    1526:	4b0c      	ldr	r3, [pc, #48]	; (1558 <TEE_CreatePersistentObject+0x90>)
    1528:	4298      	cmp	r0, r3
    152a:	d0e2      	beq.n	14f2 <TEE_CreatePersistentObject+0x2a>
/mnt/disk/raspbian-tee/optee_os/lib/libutee/tee_api_objects.c:462
    152c:	3302      	adds	r3, #2
    152e:	4298      	cmp	r0, r3
    1530:	d0df      	beq.n	14f2 <TEE_CreatePersistentObject+0x2a>
/mnt/disk/raspbian-tee/optee_os/lib/libutee/tee_api_objects.c:465
    1532:	f006 fb2f 	bl	7b94 <TEE_Panic>
/mnt/disk/raspbian-tee/optee_os/lib/libutee/tee_api_objects.c:467
    1536:	2000      	movs	r0, #0
    1538:	e7db      	b.n	14f2 <TEE_CreatePersistentObject+0x2a>
/mnt/disk/raspbian-tee/optee_os/lib/libutee/tee_api_objects.c:456
    153a:	2c00      	cmp	r4, #0
    153c:	d0e3      	beq.n	1506 <TEE_CreatePersistentObject+0x3e>
/mnt/disk/raspbian-tee/optee_os/lib/libutee/tee_api_objects.c:435
    153e:	4803      	ldr	r0, [pc, #12]	; (154c <TEE_CreatePersistentObject+0x84>)
    1540:	e7e5      	b.n	150e <TEE_CreatePersistentObject+0x46>
/mnt/disk/raspbian-tee/optee_os/lib/libutee/tee_api_objects.c:440
    1542:	4806      	ldr	r0, [pc, #24]	; (155c <TEE_CreatePersistentObject+0x94>)
/mnt/disk/raspbian-tee/optee_os/lib/libutee/tee_api_objects.c:456
    1544:	2c00      	cmp	r4, #0
    1546:	d1e2      	bne.n	150e <TEE_CreatePersistentObject+0x46>
    1548:	e7f3      	b.n	1532 <TEE_CreatePersistentObject+0x6a>
    154a:	bf00      	nop
    154c:	ffff0008 	.word	0xffff0008
    1550:	ffff0003 	.word	0xffff0003
    1554:	ffff3041 	.word	0xffff3041
    1558:	f0100001 	.word	0xf0100001
    155c:	ffff0006 	.word	0xffff0006

00001560 <TEE_CloseAndDeletePersistentObject1>:
TEE_CloseAndDeletePersistentObject1():
/mnt/disk/raspbian-tee/optee_os/lib/libutee/tee_api_objects.c:490
    1560:	b510      	push	{r4, lr}
/mnt/disk/raspbian-tee/optee_os/lib/libutee/tee_api_objects.c:493
    1562:	b150      	cbz	r0, 157a <TEE_CloseAndDeletePersistentObject1+0x1a>
/mnt/disk/raspbian-tee/optee_os/lib/libutee/tee_api_objects.c:496
    1564:	f001 ef0a 	blx	337c <utee_storage_obj_del>
/mnt/disk/raspbian-tee/optee_os/lib/libutee/tee_api_objects.c:498
    1568:	4604      	mov	r4, r0
    156a:	b120      	cbz	r0, 1576 <TEE_CloseAndDeletePersistentObject1+0x16>
    156c:	4b04      	ldr	r3, [pc, #16]	; (1580 <TEE_CloseAndDeletePersistentObject1+0x20>)
    156e:	4298      	cmp	r0, r3
    1570:	d001      	beq.n	1576 <TEE_CloseAndDeletePersistentObject1+0x16>
/mnt/disk/raspbian-tee/optee_os/lib/libutee/tee_api_objects.c:499
    1572:	f006 fb0f 	bl	7b94 <TEE_Panic>
/mnt/disk/raspbian-tee/optee_os/lib/libutee/tee_api_objects.c:502
    1576:	4620      	mov	r0, r4
    1578:	bd10      	pop	{r4, pc}
/mnt/disk/raspbian-tee/optee_os/lib/libutee/tee_api_objects.c:494
    157a:	4c01      	ldr	r4, [pc, #4]	; (1580 <TEE_CloseAndDeletePersistentObject1+0x20>)
    157c:	e7fb      	b.n	1576 <TEE_CloseAndDeletePersistentObject1+0x16>
    157e:	bf00      	nop
    1580:	f0100003 	.word	0xf0100003

00001584 <TEE_CloseAndDeletePersistentObject>:
TEE_CloseAndDeletePersistentObject():
/mnt/disk/raspbian-tee/optee_os/lib/libutee/tee_api_objects.c:477
    1584:	b508      	push	{r3, lr}
/mnt/disk/raspbian-tee/optee_os/lib/libutee/tee_api_objects.c:480
    1586:	b138      	cbz	r0, 1598 <TEE_CloseAndDeletePersistentObject+0x14>
/mnt/disk/raspbian-tee/optee_os/lib/libutee/tee_api_objects.c:483
    1588:	f7ff ffea 	bl	1560 <TEE_CloseAndDeletePersistentObject1>
/mnt/disk/raspbian-tee/optee_os/lib/libutee/tee_api_objects.c:485
    158c:	b120      	cbz	r0, 1598 <TEE_CloseAndDeletePersistentObject+0x14>
/mnt/disk/raspbian-tee/optee_os/lib/libutee/tee_api_objects.c:486
    158e:	2000      	movs	r0, #0
/mnt/disk/raspbian-tee/optee_os/lib/libutee/tee_api_objects.c:487
    1590:	e8bd 4008 	ldmia.w	sp!, {r3, lr}
/mnt/disk/raspbian-tee/optee_os/lib/libutee/tee_api_objects.c:486
    1594:	f006 bafe 	b.w	7b94 <TEE_Panic>
    1598:	bd08      	pop	{r3, pc}

0000159a <TEE_RenamePersistentObject>:
TEE_RenamePersistentObject():
/mnt/disk/raspbian-tee/optee_os/lib/libutee/tee_api_objects.c:508
    159a:	b510      	push	{r4, lr}
/mnt/disk/raspbian-tee/optee_os/lib/libutee/tee_api_objects.c:511
    159c:	b1a0      	cbz	r0, 15c8 <TEE_RenamePersistentObject+0x2e>
/mnt/disk/raspbian-tee/optee_os/lib/libutee/tee_api_objects.c:516
    159e:	b1a9      	cbz	r1, 15cc <TEE_RenamePersistentObject+0x32>
/mnt/disk/raspbian-tee/optee_os/lib/libutee/tee_api_objects.c:521
    15a0:	2a40      	cmp	r2, #64	; 0x40
    15a2:	d813      	bhi.n	15cc <TEE_RenamePersistentObject+0x32>
/mnt/disk/raspbian-tee/optee_os/lib/libutee/tee_api_objects.c:526
    15a4:	f001 eef4 	blx	3390 <utee_storage_obj_rename>
/mnt/disk/raspbian-tee/optee_os/lib/libutee/tee_api_objects.c:530
    15a8:	4604      	mov	r4, r0
    15aa:	b158      	cbz	r0, 15c4 <TEE_RenamePersistentObject+0x2a>
/mnt/disk/raspbian-tee/optee_os/lib/libutee/tee_api_objects.c:530 (discriminator 1)
    15ac:	4b08      	ldr	r3, [pc, #32]	; (15d0 <TEE_RenamePersistentObject+0x36>)
    15ae:	4298      	cmp	r0, r3
    15b0:	d008      	beq.n	15c4 <TEE_RenamePersistentObject+0x2a>
/mnt/disk/raspbian-tee/optee_os/lib/libutee/tee_api_objects.c:531
    15b2:	4b08      	ldr	r3, [pc, #32]	; (15d4 <TEE_RenamePersistentObject+0x3a>)
    15b4:	4298      	cmp	r0, r3
    15b6:	d005      	beq.n	15c4 <TEE_RenamePersistentObject+0x2a>
/mnt/disk/raspbian-tee/optee_os/lib/libutee/tee_api_objects.c:532
    15b8:	3302      	adds	r3, #2
    15ba:	4298      	cmp	r0, r3
    15bc:	d002      	beq.n	15c4 <TEE_RenamePersistentObject+0x2a>
/mnt/disk/raspbian-tee/optee_os/lib/libutee/tee_api_objects.c:534
    15be:	4620      	mov	r0, r4
    15c0:	f006 fae8 	bl	7b94 <TEE_Panic>
/mnt/disk/raspbian-tee/optee_os/lib/libutee/tee_api_objects.c:537
    15c4:	4620      	mov	r0, r4
    15c6:	bd10      	pop	{r4, pc}
/mnt/disk/raspbian-tee/optee_os/lib/libutee/tee_api_objects.c:512
    15c8:	4c03      	ldr	r4, [pc, #12]	; (15d8 <TEE_RenamePersistentObject+0x3e>)
    15ca:	e7f8      	b.n	15be <TEE_RenamePersistentObject+0x24>
/mnt/disk/raspbian-tee/optee_os/lib/libutee/tee_api_objects.c:517
    15cc:	4c03      	ldr	r4, [pc, #12]	; (15dc <TEE_RenamePersistentObject+0x42>)
    15ce:	e7f6      	b.n	15be <TEE_RenamePersistentObject+0x24>
    15d0:	ffff0003 	.word	0xffff0003
    15d4:	f0100001 	.word	0xf0100001
    15d8:	ffff0008 	.word	0xffff0008
    15dc:	ffff0006 	.word	0xffff0006

000015e0 <TEE_AllocatePersistentObjectEnumerator>:
TEE_AllocatePersistentObjectEnumerator():
/mnt/disk/raspbian-tee/optee_os/lib/libutee/tee_api_objects.c:541
    15e0:	b537      	push	{r0, r1, r2, r4, r5, lr}
/mnt/disk/raspbian-tee/optee_os/lib/libutee/tee_api_objects.c:545
    15e2:	4605      	mov	r5, r0
    15e4:	b190      	cbz	r0, 160c <TEE_AllocatePersistentObjectEnumerator+0x2c>
/mnt/disk/raspbian-tee/optee_os/lib/libutee/tee_api_objects.c:548
    15e6:	a801      	add	r0, sp, #4
    15e8:	f001 eedc 	blx	33a4 <utee_storage_alloc_enum>
/mnt/disk/raspbian-tee/optee_os/lib/libutee/tee_api_objects.c:550
    15ec:	4604      	mov	r4, r0
    15ee:	b108      	cbz	r0, 15f4 <TEE_AllocatePersistentObjectEnumerator+0x14>
/mnt/disk/raspbian-tee/optee_os/lib/libutee/tee_api_objects.c:551
    15f0:	2300      	movs	r3, #0
    15f2:	9301      	str	r3, [sp, #4]
/mnt/disk/raspbian-tee/optee_os/lib/libutee/tee_api_objects.c:553
    15f4:	9b01      	ldr	r3, [sp, #4]
    15f6:	602b      	str	r3, [r5, #0]
/mnt/disk/raspbian-tee/optee_os/lib/libutee/tee_api_objects.c:555
    15f8:	b12c      	cbz	r4, 1606 <TEE_AllocatePersistentObjectEnumerator+0x26>
/mnt/disk/raspbian-tee/optee_os/lib/libutee/tee_api_objects.c:555 (discriminator 1)
    15fa:	4b05      	ldr	r3, [pc, #20]	; (1610 <TEE_AllocatePersistentObjectEnumerator+0x30>)
    15fc:	429c      	cmp	r4, r3
    15fe:	d002      	beq.n	1606 <TEE_AllocatePersistentObjectEnumerator+0x26>
/mnt/disk/raspbian-tee/optee_os/lib/libutee/tee_api_objects.c:557
    1600:	4620      	mov	r0, r4
    1602:	f006 fac7 	bl	7b94 <TEE_Panic>
/mnt/disk/raspbian-tee/optee_os/lib/libutee/tee_api_objects.c:560
    1606:	4620      	mov	r0, r4
    1608:	b003      	add	sp, #12
    160a:	bd30      	pop	{r4, r5, pc}
/mnt/disk/raspbian-tee/optee_os/lib/libutee/tee_api_objects.c:546
    160c:	4c01      	ldr	r4, [pc, #4]	; (1614 <TEE_AllocatePersistentObjectEnumerator+0x34>)
    160e:	e7fa      	b.n	1606 <TEE_AllocatePersistentObjectEnumerator+0x26>
    1610:	ffff0003 	.word	0xffff0003
    1614:	ffff0006 	.word	0xffff0006

00001618 <TEE_FreePersistentObjectEnumerator>:
TEE_FreePersistentObjectEnumerator():
/mnt/disk/raspbian-tee/optee_os/lib/libutee/tee_api_objects.c:563
    1618:	b508      	push	{r3, lr}
/mnt/disk/raspbian-tee/optee_os/lib/libutee/tee_api_objects.c:566
    161a:	b130      	cbz	r0, 162a <TEE_FreePersistentObjectEnumerator+0x12>
/mnt/disk/raspbian-tee/optee_os/lib/libutee/tee_api_objects.c:569
    161c:	f001 eecc 	blx	33b8 <utee_storage_free_enum>
/mnt/disk/raspbian-tee/optee_os/lib/libutee/tee_api_objects.c:571
    1620:	b118      	cbz	r0, 162a <TEE_FreePersistentObjectEnumerator+0x12>
/mnt/disk/raspbian-tee/optee_os/lib/libutee/tee_api_objects.c:573
    1622:	e8bd 4008 	ldmia.w	sp!, {r3, lr}
/mnt/disk/raspbian-tee/optee_os/lib/libutee/tee_api_objects.c:572
    1626:	f006 bab5 	b.w	7b94 <TEE_Panic>
    162a:	bd08      	pop	{r3, pc}

0000162c <TEE_ResetPersistentObjectEnumerator>:
TEE_ResetPersistentObjectEnumerator():
/mnt/disk/raspbian-tee/optee_os/lib/libutee/tee_api_objects.c:576
    162c:	b508      	push	{r3, lr}
/mnt/disk/raspbian-tee/optee_os/lib/libutee/tee_api_objects.c:579
    162e:	b130      	cbz	r0, 163e <TEE_ResetPersistentObjectEnumerator+0x12>
/mnt/disk/raspbian-tee/optee_os/lib/libutee/tee_api_objects.c:582
    1630:	f001 eecc 	blx	33cc <utee_storage_reset_enum>
/mnt/disk/raspbian-tee/optee_os/lib/libutee/tee_api_objects.c:584
    1634:	b118      	cbz	r0, 163e <TEE_ResetPersistentObjectEnumerator+0x12>
/mnt/disk/raspbian-tee/optee_os/lib/libutee/tee_api_objects.c:586
    1636:	e8bd 4008 	ldmia.w	sp!, {r3, lr}
/mnt/disk/raspbian-tee/optee_os/lib/libutee/tee_api_objects.c:585
    163a:	f006 baab 	b.w	7b94 <TEE_Panic>
    163e:	bd08      	pop	{r3, pc}

00001640 <TEE_StartPersistentObjectEnumerator>:
TEE_StartPersistentObjectEnumerator():
/mnt/disk/raspbian-tee/optee_os/lib/libutee/tee_api_objects.c:591
    1640:	b510      	push	{r4, lr}
/mnt/disk/raspbian-tee/optee_os/lib/libutee/tee_api_objects.c:594
    1642:	f001 eece 	blx	33e0 <utee_storage_start_enum>
/mnt/disk/raspbian-tee/optee_os/lib/libutee/tee_api_objects.c:597
    1646:	4604      	mov	r4, r0
    1648:	b148      	cbz	r0, 165e <TEE_StartPersistentObjectEnumerator+0x1e>
/mnt/disk/raspbian-tee/optee_os/lib/libutee/tee_api_objects.c:597 (discriminator 1)
    164a:	4b06      	ldr	r3, [pc, #24]	; (1664 <TEE_StartPersistentObjectEnumerator+0x24>)
    164c:	4298      	cmp	r0, r3
    164e:	d006      	beq.n	165e <TEE_StartPersistentObjectEnumerator+0x1e>
/mnt/disk/raspbian-tee/optee_os/lib/libutee/tee_api_objects.c:598
    1650:	4b05      	ldr	r3, [pc, #20]	; (1668 <TEE_StartPersistentObjectEnumerator+0x28>)
    1652:	f020 0202 	bic.w	r2, r0, #2
    1656:	429a      	cmp	r2, r3
    1658:	d001      	beq.n	165e <TEE_StartPersistentObjectEnumerator+0x1e>
/mnt/disk/raspbian-tee/optee_os/lib/libutee/tee_api_objects.c:601
    165a:	f006 fa9b 	bl	7b94 <TEE_Panic>
/mnt/disk/raspbian-tee/optee_os/lib/libutee/tee_api_objects.c:604
    165e:	4620      	mov	r0, r4
    1660:	bd10      	pop	{r4, pc}
    1662:	bf00      	nop
    1664:	ffff0008 	.word	0xffff0008
    1668:	f0100001 	.word	0xf0100001

0000166c <TEE_GetNextPersistentObject>:
TEE_GetNextPersistentObject():
/mnt/disk/raspbian-tee/optee_os/lib/libutee/tee_api_objects.c:609
    166c:	b510      	push	{r4, lr}
    166e:	461c      	mov	r4, r3
    1670:	b08a      	sub	sp, #40	; 0x28
/mnt/disk/raspbian-tee/optee_os/lib/libutee/tee_api_objects.c:615
    1672:	b1e2      	cbz	r2, 16ae <TEE_GetNextPersistentObject+0x42>
/mnt/disk/raspbian-tee/optee_os/lib/libutee/tee_api_objects.c:620
    1674:	b1db      	cbz	r3, 16ae <TEE_GetNextPersistentObject+0x42>
/mnt/disk/raspbian-tee/optee_os/lib/libutee/tee_api_objects.c:625
    1676:	b901      	cbnz	r1, 167a <TEE_GetNextPersistentObject+0xe>
/mnt/disk/raspbian-tee/optee_os/lib/libutee/tee_api_objects.c:628
    1678:	a903      	add	r1, sp, #12
/mnt/disk/raspbian-tee/optee_os/lib/libutee/tee_api_objects.c:629
    167a:	6823      	ldr	r3, [r4, #0]
    167c:	9300      	str	r3, [sp, #0]
    167e:	2300      	movs	r3, #0
    1680:	9301      	str	r3, [sp, #4]
/mnt/disk/raspbian-tee/optee_os/lib/libutee/tee_api_objects.c:630
    1682:	466b      	mov	r3, sp
    1684:	f001 eeb6 	blx	33f4 <utee_storage_next_enum>
/mnt/disk/raspbian-tee/optee_os/lib/libutee/tee_api_objects.c:632
    1688:	9b00      	ldr	r3, [sp, #0]
    168a:	6023      	str	r3, [r4, #0]
/mnt/disk/raspbian-tee/optee_os/lib/libutee/tee_api_objects.c:635
    168c:	4604      	mov	r4, r0
    168e:	b158      	cbz	r0, 16a8 <TEE_GetNextPersistentObject+0x3c>
/mnt/disk/raspbian-tee/optee_os/lib/libutee/tee_api_objects.c:635 (discriminator 1)
    1690:	4b08      	ldr	r3, [pc, #32]	; (16b4 <TEE_GetNextPersistentObject+0x48>)
    1692:	4298      	cmp	r0, r3
    1694:	d008      	beq.n	16a8 <TEE_GetNextPersistentObject+0x3c>
/mnt/disk/raspbian-tee/optee_os/lib/libutee/tee_api_objects.c:636
    1696:	4b08      	ldr	r3, [pc, #32]	; (16b8 <TEE_GetNextPersistentObject+0x4c>)
    1698:	4298      	cmp	r0, r3
    169a:	d005      	beq.n	16a8 <TEE_GetNextPersistentObject+0x3c>
/mnt/disk/raspbian-tee/optee_os/lib/libutee/tee_api_objects.c:637
    169c:	3302      	adds	r3, #2
    169e:	4298      	cmp	r0, r3
    16a0:	d002      	beq.n	16a8 <TEE_GetNextPersistentObject+0x3c>
/mnt/disk/raspbian-tee/optee_os/lib/libutee/tee_api_objects.c:639
    16a2:	4620      	mov	r0, r4
    16a4:	f006 fa76 	bl	7b94 <TEE_Panic>
/mnt/disk/raspbian-tee/optee_os/lib/libutee/tee_api_objects.c:642
    16a8:	4620      	mov	r0, r4
    16aa:	b00a      	add	sp, #40	; 0x28
    16ac:	bd10      	pop	{r4, pc}
    16ae:	4c03      	ldr	r4, [pc, #12]	; (16bc <TEE_GetNextPersistentObject+0x50>)
    16b0:	e7f7      	b.n	16a2 <TEE_GetNextPersistentObject+0x36>
    16b2:	bf00      	nop
    16b4:	ffff0008 	.word	0xffff0008
    16b8:	f0100001 	.word	0xf0100001
    16bc:	ffff0006 	.word	0xffff0006

000016c0 <TEE_ReadObjectData>:
TEE_ReadObjectData():
/mnt/disk/raspbian-tee/optee_os/lib/libutee/tee_api_objects.c:648
    16c0:	b513      	push	{r0, r1, r4, lr}
    16c2:	461c      	mov	r4, r3
/mnt/disk/raspbian-tee/optee_os/lib/libutee/tee_api_objects.c:652
    16c4:	b1b0      	cbz	r0, 16f4 <TEE_ReadObjectData+0x34>
/mnt/disk/raspbian-tee/optee_os/lib/libutee/tee_api_objects.c:657
    16c6:	681b      	ldr	r3, [r3, #0]
    16c8:	9300      	str	r3, [sp, #0]
    16ca:	2300      	movs	r3, #0
    16cc:	9301      	str	r3, [sp, #4]
/mnt/disk/raspbian-tee/optee_os/lib/libutee/tee_api_objects.c:658
    16ce:	466b      	mov	r3, sp
    16d0:	f001 ee9a 	blx	3408 <utee_storage_obj_read>
/mnt/disk/raspbian-tee/optee_os/lib/libutee/tee_api_objects.c:660
    16d4:	9b00      	ldr	r3, [sp, #0]
    16d6:	6023      	str	r3, [r4, #0]
/mnt/disk/raspbian-tee/optee_os/lib/libutee/tee_api_objects.c:663
    16d8:	4604      	mov	r4, r0
    16da:	b140      	cbz	r0, 16ee <TEE_ReadObjectData+0x2e>
/mnt/disk/raspbian-tee/optee_os/lib/libutee/tee_api_objects.c:663 (discriminator 1)
    16dc:	4b06      	ldr	r3, [pc, #24]	; (16f8 <TEE_ReadObjectData+0x38>)
    16de:	4298      	cmp	r0, r3
    16e0:	d005      	beq.n	16ee <TEE_ReadObjectData+0x2e>
/mnt/disk/raspbian-tee/optee_os/lib/libutee/tee_api_objects.c:664
    16e2:	3302      	adds	r3, #2
    16e4:	4298      	cmp	r0, r3
    16e6:	d002      	beq.n	16ee <TEE_ReadObjectData+0x2e>
/mnt/disk/raspbian-tee/optee_os/lib/libutee/tee_api_objects.c:666
    16e8:	4620      	mov	r0, r4
    16ea:	f006 fa53 	bl	7b94 <TEE_Panic>
/mnt/disk/raspbian-tee/optee_os/lib/libutee/tee_api_objects.c:669
    16ee:	4620      	mov	r0, r4
    16f0:	b002      	add	sp, #8
    16f2:	bd10      	pop	{r4, pc}
/mnt/disk/raspbian-tee/optee_os/lib/libutee/tee_api_objects.c:653
    16f4:	4c01      	ldr	r4, [pc, #4]	; (16fc <TEE_ReadObjectData+0x3c>)
    16f6:	e7f7      	b.n	16e8 <TEE_ReadObjectData+0x28>
    16f8:	f0100001 	.word	0xf0100001
    16fc:	ffff0006 	.word	0xffff0006

00001700 <TEE_WriteObjectData>:
TEE_WriteObjectData():
/mnt/disk/raspbian-tee/optee_os/lib/libutee/tee_api_objects.c:673
    1700:	b510      	push	{r4, lr}
/mnt/disk/raspbian-tee/optee_os/lib/libutee/tee_api_objects.c:676
    1702:	b1a0      	cbz	r0, 172e <TEE_WriteObjectData+0x2e>
/mnt/disk/raspbian-tee/optee_os/lib/libutee/tee_api_objects.c:686
    1704:	f001 ee8a 	blx	341c <utee_storage_obj_write>
/mnt/disk/raspbian-tee/optee_os/lib/libutee/tee_api_objects.c:689
    1708:	4604      	mov	r4, r0
    170a:	b170      	cbz	r0, 172a <TEE_WriteObjectData+0x2a>
/mnt/disk/raspbian-tee/optee_os/lib/libutee/tee_api_objects.c:689 (discriminator 1)
    170c:	4b09      	ldr	r3, [pc, #36]	; (1734 <TEE_WriteObjectData+0x34>)
    170e:	4298      	cmp	r0, r3
    1710:	d00b      	beq.n	172a <TEE_WriteObjectData+0x2a>
/mnt/disk/raspbian-tee/optee_os/lib/libutee/tee_api_objects.c:690
    1712:	3b32      	subs	r3, #50	; 0x32
    1714:	4298      	cmp	r0, r3
    1716:	d008      	beq.n	172a <TEE_WriteObjectData+0x2a>
/mnt/disk/raspbian-tee/optee_os/lib/libutee/tee_api_objects.c:691
    1718:	4b07      	ldr	r3, [pc, #28]	; (1738 <TEE_WriteObjectData+0x38>)
    171a:	4298      	cmp	r0, r3
    171c:	d005      	beq.n	172a <TEE_WriteObjectData+0x2a>
/mnt/disk/raspbian-tee/optee_os/lib/libutee/tee_api_objects.c:692
    171e:	3302      	adds	r3, #2
    1720:	4298      	cmp	r0, r3
    1722:	d002      	beq.n	172a <TEE_WriteObjectData+0x2a>
/mnt/disk/raspbian-tee/optee_os/lib/libutee/tee_api_objects.c:694
    1724:	4620      	mov	r0, r4
    1726:	f006 fa35 	bl	7b94 <TEE_Panic>
/mnt/disk/raspbian-tee/optee_os/lib/libutee/tee_api_objects.c:697
    172a:	4620      	mov	r0, r4
    172c:	bd10      	pop	{r4, pc}
/mnt/disk/raspbian-tee/optee_os/lib/libutee/tee_api_objects.c:677
    172e:	4c03      	ldr	r4, [pc, #12]	; (173c <TEE_WriteObjectData+0x3c>)
    1730:	e7f8      	b.n	1724 <TEE_WriteObjectData+0x24>
    1732:	bf00      	nop
    1734:	ffff3041 	.word	0xffff3041
    1738:	f0100001 	.word	0xf0100001
    173c:	ffff0006 	.word	0xffff0006

00001740 <TEE_TruncateObjectData>:
TEE_TruncateObjectData():
/mnt/disk/raspbian-tee/optee_os/lib/libutee/tee_api_objects.c:700
    1740:	b510      	push	{r4, lr}
/mnt/disk/raspbian-tee/optee_os/lib/libutee/tee_api_objects.c:703
    1742:	b188      	cbz	r0, 1768 <TEE_TruncateObjectData+0x28>
/mnt/disk/raspbian-tee/optee_os/lib/libutee/tee_api_objects.c:708
    1744:	f001 ee74 	blx	3430 <utee_storage_obj_trunc>
/mnt/disk/raspbian-tee/optee_os/lib/libutee/tee_api_objects.c:711
    1748:	4604      	mov	r4, r0
    174a:	b158      	cbz	r0, 1764 <TEE_TruncateObjectData+0x24>
/mnt/disk/raspbian-tee/optee_os/lib/libutee/tee_api_objects.c:711 (discriminator 1)
    174c:	4b07      	ldr	r3, [pc, #28]	; (176c <TEE_TruncateObjectData+0x2c>)
    174e:	4298      	cmp	r0, r3
    1750:	d008      	beq.n	1764 <TEE_TruncateObjectData+0x24>
/mnt/disk/raspbian-tee/optee_os/lib/libutee/tee_api_objects.c:712
    1752:	4b07      	ldr	r3, [pc, #28]	; (1770 <TEE_TruncateObjectData+0x30>)
    1754:	4298      	cmp	r0, r3
    1756:	d005      	beq.n	1764 <TEE_TruncateObjectData+0x24>
/mnt/disk/raspbian-tee/optee_os/lib/libutee/tee_api_objects.c:713
    1758:	3302      	adds	r3, #2
    175a:	4298      	cmp	r0, r3
    175c:	d002      	beq.n	1764 <TEE_TruncateObjectData+0x24>
/mnt/disk/raspbian-tee/optee_os/lib/libutee/tee_api_objects.c:715
    175e:	4620      	mov	r0, r4
    1760:	f006 fa18 	bl	7b94 <TEE_Panic>
/mnt/disk/raspbian-tee/optee_os/lib/libutee/tee_api_objects.c:718
    1764:	4620      	mov	r0, r4
    1766:	bd10      	pop	{r4, pc}
/mnt/disk/raspbian-tee/optee_os/lib/libutee/tee_api_objects.c:704
    1768:	4c02      	ldr	r4, [pc, #8]	; (1774 <TEE_TruncateObjectData+0x34>)
    176a:	e7f8      	b.n	175e <TEE_TruncateObjectData+0x1e>
    176c:	ffff3041 	.word	0xffff3041
    1770:	f0100001 	.word	0xf0100001
    1774:	ffff0006 	.word	0xffff0006

00001778 <TEE_SeekObjectData>:
TEE_SeekObjectData():
/mnt/disk/raspbian-tee/optee_os/lib/libutee/tee_api_objects.c:722
    1778:	b5f0      	push	{r4, r5, r6, r7, lr}
    177a:	460d      	mov	r5, r1
    177c:	4616      	mov	r6, r2
    177e:	b089      	sub	sp, #36	; 0x24
/mnt/disk/raspbian-tee/optee_os/lib/libutee/tee_api_objects.c:726
    1780:	4607      	mov	r7, r0
    1782:	b368      	cbz	r0, 17e0 <TEE_SeekObjectData+0x68>
/mnt/disk/raspbian-tee/optee_os/lib/libutee/tee_api_objects.c:731
    1784:	a901      	add	r1, sp, #4
    1786:	f001 ed2c 	blx	31e0 <utee_cryp_obj_get_info>
/mnt/disk/raspbian-tee/optee_os/lib/libutee/tee_api_objects.c:732
    178a:	4604      	mov	r4, r0
    178c:	b9d8      	cbnz	r0, 17c6 <TEE_SeekObjectData+0x4e>
/mnt/disk/raspbian-tee/optee_os/lib/libutee/tee_api_objects.c:735
    178e:	2e01      	cmp	r6, #1
    1790:	d004      	beq.n	179c <TEE_SeekObjectData+0x24>
    1792:	d310      	bcc.n	17b6 <TEE_SeekObjectData+0x3e>
    1794:	2e02      	cmp	r6, #2
    1796:	d00a      	beq.n	17ae <TEE_SeekObjectData+0x36>
/mnt/disk/raspbian-tee/optee_os/lib/libutee/tee_api_objects.c:761
    1798:	4c12      	ldr	r4, [pc, #72]	; (17e4 <TEE_SeekObjectData+0x6c>)
    179a:	e017      	b.n	17cc <TEE_SeekObjectData+0x54>
/mnt/disk/raspbian-tee/optee_os/lib/libutee/tee_api_objects.c:743
    179c:	2d00      	cmp	r5, #0
    179e:	dd0a      	ble.n	17b6 <TEE_SeekObjectData+0x3e>
/mnt/disk/raspbian-tee/optee_os/lib/libutee/tee_api_objects.c:743 (discriminator 1)
    17a0:	9b06      	ldr	r3, [sp, #24]
    17a2:	42dd      	cmn	r5, r3
    17a4:	d307      	bcc.n	17b6 <TEE_SeekObjectData+0x3e>
/mnt/disk/raspbian-tee/optee_os/lib/libutee/tee_api_objects.c:727
    17a6:	4c10      	ldr	r4, [pc, #64]	; (17e8 <TEE_SeekObjectData+0x70>)
/mnt/disk/raspbian-tee/optee_os/lib/libutee/tee_api_objects.c:775
    17a8:	4620      	mov	r0, r4
    17aa:	b009      	add	sp, #36	; 0x24
    17ac:	bdf0      	pop	{r4, r5, r6, r7, pc}
/mnt/disk/raspbian-tee/optee_os/lib/libutee/tee_api_objects.c:753
    17ae:	2d00      	cmp	r5, #0
    17b0:	dd01      	ble.n	17b6 <TEE_SeekObjectData+0x3e>
/mnt/disk/raspbian-tee/optee_os/lib/libutee/tee_api_objects.c:753 (discriminator 1)
    17b2:	9b05      	ldr	r3, [sp, #20]
    17b4:	e7f5      	b.n	17a2 <TEE_SeekObjectData+0x2a>
/mnt/disk/raspbian-tee/optee_os/lib/libutee/tee_api_objects.c:765
    17b6:	4632      	mov	r2, r6
    17b8:	4629      	mov	r1, r5
    17ba:	4638      	mov	r0, r7
    17bc:	f001 ee42 	blx	3444 <utee_storage_obj_seek>
/mnt/disk/raspbian-tee/optee_os/lib/libutee/tee_api_objects.c:768
    17c0:	4604      	mov	r4, r0
    17c2:	2800      	cmp	r0, #0
    17c4:	d0f0      	beq.n	17a8 <TEE_SeekObjectData+0x30>
/mnt/disk/raspbian-tee/optee_os/lib/libutee/tee_api_objects.c:768 (discriminator 1)
    17c6:	4b08      	ldr	r3, [pc, #32]	; (17e8 <TEE_SeekObjectData+0x70>)
    17c8:	429c      	cmp	r4, r3
    17ca:	d0ec      	beq.n	17a6 <TEE_SeekObjectData+0x2e>
/mnt/disk/raspbian-tee/optee_os/lib/libutee/tee_api_objects.c:769
    17cc:	4b07      	ldr	r3, [pc, #28]	; (17ec <TEE_SeekObjectData+0x74>)
    17ce:	429c      	cmp	r4, r3
    17d0:	d0ea      	beq.n	17a8 <TEE_SeekObjectData+0x30>
/mnt/disk/raspbian-tee/optee_os/lib/libutee/tee_api_objects.c:770
    17d2:	3302      	adds	r3, #2
    17d4:	429c      	cmp	r4, r3
    17d6:	d0e7      	beq.n	17a8 <TEE_SeekObjectData+0x30>
/mnt/disk/raspbian-tee/optee_os/lib/libutee/tee_api_objects.c:772
    17d8:	4620      	mov	r0, r4
    17da:	f006 f9db 	bl	7b94 <TEE_Panic>
/mnt/disk/raspbian-tee/optee_os/lib/libutee/tee_api_objects.c:774
    17de:	e7e3      	b.n	17a8 <TEE_SeekObjectData+0x30>
/mnt/disk/raspbian-tee/optee_os/lib/libutee/tee_api_objects.c:727
    17e0:	4c03      	ldr	r4, [pc, #12]	; (17f0 <TEE_SeekObjectData+0x78>)
    17e2:	e7f9      	b.n	17d8 <TEE_SeekObjectData+0x60>
    17e4:	ffff0008 	.word	0xffff0008
    17e8:	ffff300f 	.word	0xffff300f
    17ec:	f0100001 	.word	0xf0100001
    17f0:	ffff0006 	.word	0xffff0006

000017f4 <tee_buffer_update>:
tee_buffer_update():
/mnt/disk/raspbian-tee/optee_os/lib/libutee/tee_api_operations.c:852
    17f4:	e92d 4ff0 	stmdb	sp!, {r4, r5, r6, r7, r8, r9, sl, fp, lr}
    17f8:	461f      	mov	r7, r3
    17fa:	4604      	mov	r4, r0
    17fc:	b087      	sub	sp, #28
    17fe:	468b      	mov	fp, r1
/mnt/disk/raspbian-tee/optee_os/lib/libutee/tee_api_operations.c:864
    1800:	4692      	mov	sl, r2
/mnt/disk/raspbian-tee/optee_os/lib/libutee/tee_api_operations.c:857
    1802:	9b11      	ldr	r3, [sp, #68]	; 0x44
/mnt/disk/raspbian-tee/optee_os/lib/libutee/tee_api_operations.c:852
    1804:	f8dd 8040 	ldr.w	r8, [sp, #64]	; 0x40
/mnt/disk/raspbian-tee/optee_os/lib/libutee/tee_api_operations.c:857
    1808:	e9d3 0100 	ldrd	r0, r1, [r3]
    180c:	e9cd 0102 	strd	r0, r1, [sp, #8]
/mnt/disk/raspbian-tee/optee_os/lib/libutee/tee_api_operations.c:864
    1810:	b962      	cbnz	r2, 182c <tee_buffer_update+0x38>
/mnt/disk/raspbian-tee/optee_os/lib/libutee/tee_api_operations.c:865
    1812:	b93f      	cbnz	r7, 1824 <tee_buffer_update+0x30>
/mnt/disk/raspbian-tee/optee_os/lib/libutee/tee_api_operations.c:858
    1814:	2500      	movs	r5, #0
/mnt/disk/raspbian-tee/optee_os/lib/libutee/tee_api_operations.c:940
    1816:	9b11      	ldr	r3, [sp, #68]	; 0x44
    1818:	2000      	movs	r0, #0
    181a:	601d      	str	r5, [r3, #0]
    181c:	6058      	str	r0, [r3, #4]
/mnt/disk/raspbian-tee/optee_os/lib/libutee/tee_api_operations.c:942
    181e:	b007      	add	sp, #28
    1820:	e8bd 8ff0 	ldmia.w	sp!, {r4, r5, r6, r7, r8, r9, sl, fp, pc}
/mnt/disk/raspbian-tee/optee_os/lib/libutee/tee_api_operations.c:866
    1824:	4610      	mov	r0, r2
    1826:	f006 f9b5 	bl	7b94 <TEE_Panic>
    182a:	e7f3      	b.n	1814 <tee_buffer_update+0x20>
/mnt/disk/raspbian-tee/optee_os/lib/libutee/tee_api_operations.c:870
    182c:	f894 3030 	ldrb.w	r3, [r4, #48]	; 0x30
    1830:	6b65      	ldr	r5, [r4, #52]	; 0x34
    1832:	2b00      	cmp	r3, #0
    1834:	d05b      	beq.n	18ee <tee_buffer_update+0xfa>
/mnt/disk/raspbian-tee/optee_os/lib/libutee/tee_api_operations.c:871
    1836:	006e      	lsls	r6, r5, #1
/mnt/disk/raspbian-tee/optee_os/lib/libutee/tee_api_operations.c:872
    1838:	f04f 0901 	mov.w	r9, #1
/mnt/disk/raspbian-tee/optee_os/lib/libutee/tee_api_operations.c:878
    183c:	6ba0      	ldr	r0, [r4, #56]	; 0x38
    183e:	b1c8      	cbz	r0, 1874 <tee_buffer_update+0x80>
/mnt/disk/raspbian-tee/optee_os/lib/libutee/tee_api_operations.c:880
    1840:	42a8      	cmp	r0, r5
/mnt/disk/raspbian-tee/optee_os/lib/libutee/tee_api_operations.c:884
    1842:	6ae3      	ldr	r3, [r4, #44]	; 0x2c
/mnt/disk/raspbian-tee/optee_os/lib/libutee/tee_api_operations.c:883
    1844:	bf28      	it	cs
    1846:	1a35      	subcs	r5, r6, r0
/mnt/disk/raspbian-tee/optee_os/lib/libutee/tee_api_operations.c:881
    1848:	bf38      	it	cc
    184a:	1a2d      	subcc	r5, r5, r0
/mnt/disk/raspbian-tee/optee_os/lib/libutee/tee_api_operations.c:883
    184c:	42bd      	cmp	r5, r7
/mnt/disk/raspbian-tee/optee_os/lib/libutee/tee_api_operations.c:884
    184e:	4651      	mov	r1, sl
/mnt/disk/raspbian-tee/optee_os/lib/libutee/tee_api_operations.c:883
    1850:	bf28      	it	cs
    1852:	463d      	movcs	r5, r7
/mnt/disk/raspbian-tee/optee_os/lib/libutee/tee_api_operations.c:884
    1854:	4418      	add	r0, r3
    1856:	462a      	mov	r2, r5
    1858:	f006 f8c0 	bl	79dc <memcpy>
/mnt/disk/raspbian-tee/optee_os/lib/libutee/tee_api_operations.c:885
    185c:	6ba3      	ldr	r3, [r4, #56]	; 0x38
/mnt/disk/raspbian-tee/optee_os/lib/libutee/tee_api_operations.c:888
    185e:	6b61      	ldr	r1, [r4, #52]	; 0x34
/mnt/disk/raspbian-tee/optee_os/lib/libutee/tee_api_operations.c:885
    1860:	442b      	add	r3, r5
    1862:	63a3      	str	r3, [r4, #56]	; 0x38
/mnt/disk/raspbian-tee/optee_os/lib/libutee/tee_api_operations.c:888
    1864:	fbb3 f2f1 	udiv	r2, r3, r1
    1868:	fb01 3312 	mls	r3, r1, r2, r3
    186c:	2b00      	cmp	r3, #0
    186e:	d1d1      	bne.n	1814 <tee_buffer_update+0x20>
/mnt/disk/raspbian-tee/optee_os/lib/libutee/tee_api_operations.c:886
    1870:	44aa      	add	sl, r5
/mnt/disk/raspbian-tee/optee_os/lib/libutee/tee_api_operations.c:887
    1872:	1b7f      	subs	r7, r7, r5
/mnt/disk/raspbian-tee/optee_os/lib/libutee/tee_api_operations.c:893
    1874:	6ba5      	ldr	r5, [r4, #56]	; 0x38
/mnt/disk/raspbian-tee/optee_os/lib/libutee/tee_api_operations.c:857
    1876:	9902      	ldr	r1, [sp, #8]
/mnt/disk/raspbian-tee/optee_os/lib/libutee/tee_api_operations.c:893
    1878:	2d00      	cmp	r5, #0
    187a:	d03c      	beq.n	18f6 <tee_buffer_update+0x102>
/mnt/disk/raspbian-tee/optee_os/lib/libutee/tee_api_operations.c:894 (discriminator 1)
    187c:	1978      	adds	r0, r7, r5
    187e:	eb06 0309 	add.w	r3, r6, r9
/mnt/disk/raspbian-tee/optee_os/lib/libutee/tee_api_operations.c:893 (discriminator 1)
    1882:	4298      	cmp	r0, r3
    1884:	d336      	bcc.n	18f4 <tee_buffer_update+0x100>
/mnt/disk/raspbian-tee/optee_os/lib/libutee/tee_api_operations.c:895
    1886:	6b62      	ldr	r2, [r4, #52]	; 0x34
    1888:	1e53      	subs	r3, r2, #1
    188a:	4252      	negs	r2, r2
    188c:	1b9b      	subs	r3, r3, r6
    188e:	4403      	add	r3, r0
    1890:	4013      	ands	r3, r2
/mnt/disk/raspbian-tee/optee_os/lib/libutee/tee_api_operations.c:897
    1892:	429d      	cmp	r5, r3
    1894:	bf28      	it	cs
    1896:	461d      	movcs	r5, r3
/mnt/disk/raspbian-tee/optee_os/lib/libutee/tee_api_operations.c:898
    1898:	ab06      	add	r3, sp, #24
    189a:	e9dd 0102 	ldrd	r0, r1, [sp, #8]
    189e:	2100      	movs	r1, #0
    18a0:	e963 0102 	strd	r0, r1, [r3, #-8]!
/mnt/disk/raspbian-tee/optee_os/lib/libutee/tee_api_operations.c:899
    18a4:	462a      	mov	r2, r5
    18a6:	6ae1      	ldr	r1, [r4, #44]	; 0x2c
    18a8:	9300      	str	r3, [sp, #0]
    18aa:	4643      	mov	r3, r8
    18ac:	6be0      	ldr	r0, [r4, #60]	; 0x3c
    18ae:	47d8      	blx	fp
/mnt/disk/raspbian-tee/optee_os/lib/libutee/tee_api_operations.c:900
    18b0:	b108      	cbz	r0, 18b6 <tee_buffer_update+0xc2>
/mnt/disk/raspbian-tee/optee_os/lib/libutee/tee_api_operations.c:901
    18b2:	f006 f96f 	bl	7b94 <TEE_Panic>
/mnt/disk/raspbian-tee/optee_os/lib/libutee/tee_api_operations.c:902
    18b6:	9b04      	ldr	r3, [sp, #16]
/mnt/disk/raspbian-tee/optee_os/lib/libutee/tee_api_operations.c:903
    18b8:	9a02      	ldr	r2, [sp, #8]
/mnt/disk/raspbian-tee/optee_os/lib/libutee/tee_api_operations.c:902
    18ba:	4498      	add	r8, r3
/mnt/disk/raspbian-tee/optee_os/lib/libutee/tee_api_operations.c:903
    18bc:	1ad1      	subs	r1, r2, r3
/mnt/disk/raspbian-tee/optee_os/lib/libutee/tee_api_operations.c:905
    18be:	6ba2      	ldr	r2, [r4, #56]	; 0x38
    18c0:	1b52      	subs	r2, r2, r5
    18c2:	63a2      	str	r2, [r4, #56]	; 0x38
/mnt/disk/raspbian-tee/optee_os/lib/libutee/tee_api_operations.c:906
    18c4:	2a00      	cmp	r2, #0
    18c6:	d03f      	beq.n	1948 <tee_buffer_update+0x154>
/mnt/disk/raspbian-tee/optee_os/lib/libutee/tee_api_operations.c:910
    18c8:	6ae0      	ldr	r0, [r4, #44]	; 0x2c
    18ca:	1b72      	subs	r2, r6, r5
    18cc:	9302      	str	r3, [sp, #8]
    18ce:	1941      	adds	r1, r0, r5
    18d0:	f006 f884 	bl	79dc <memcpy>
/mnt/disk/raspbian-tee/optee_os/lib/libutee/tee_api_operations.c:911
    18d4:	6ae5      	ldr	r5, [r4, #44]	; 0x2c
    18d6:	6ba0      	ldr	r0, [r4, #56]	; 0x38
    18d8:	463a      	mov	r2, r7
    18da:	4651      	mov	r1, sl
    18dc:	4428      	add	r0, r5
    18de:	f006 f87d 	bl	79dc <memcpy>
/mnt/disk/raspbian-tee/optee_os/lib/libutee/tee_api_operations.c:912
    18e2:	6ba2      	ldr	r2, [r4, #56]	; 0x38
/mnt/disk/raspbian-tee/optee_os/lib/libutee/tee_api_operations.c:904
    18e4:	9b02      	ldr	r3, [sp, #8]
/mnt/disk/raspbian-tee/optee_os/lib/libutee/tee_api_operations.c:912
    18e6:	4417      	add	r7, r2
    18e8:	63a7      	str	r7, [r4, #56]	; 0x38
/mnt/disk/raspbian-tee/optee_os/lib/libutee/tee_api_operations.c:904
    18ea:	461d      	mov	r5, r3
/mnt/disk/raspbian-tee/optee_os/lib/libutee/tee_api_operations.c:913
    18ec:	e793      	b.n	1816 <tee_buffer_update+0x22>
/mnt/disk/raspbian-tee/optee_os/lib/libutee/tee_api_operations.c:874
    18ee:	462e      	mov	r6, r5
/mnt/disk/raspbian-tee/optee_os/lib/libutee/tee_api_operations.c:875
    18f0:	4699      	mov	r9, r3
    18f2:	e7a3      	b.n	183c <tee_buffer_update+0x48>
/mnt/disk/raspbian-tee/optee_os/lib/libutee/tee_api_operations.c:858
    18f4:	2500      	movs	r5, #0
/mnt/disk/raspbian-tee/optee_os/lib/libutee/tee_api_operations.c:917
    18f6:	44b1      	add	r9, r6
    18f8:	454f      	cmp	r7, r9
    18fa:	d31a      	bcc.n	1932 <tee_buffer_update+0x13e>
/mnt/disk/raspbian-tee/optee_os/lib/libutee/tee_api_operations.c:919
    18fc:	6822      	ldr	r2, [r4, #0]
    18fe:	4b14      	ldr	r3, [pc, #80]	; (1950 <tee_buffer_update+0x15c>)
    1900:	429a      	cmp	r2, r3
    1902:	6b62      	ldr	r2, [r4, #52]	; 0x34
    1904:	d122      	bne.n	194c <tee_buffer_update+0x158>
/mnt/disk/raspbian-tee/optee_os/lib/libutee/tee_api_operations.c:920
    1906:	1e53      	subs	r3, r2, #1
    1908:	1b9e      	subs	r6, r3, r6
/mnt/disk/raspbian-tee/optee_os/lib/libutee/tee_api_operations.c:922
    190a:	4252      	negs	r2, r2
    190c:	443e      	add	r6, r7
    190e:	4016      	ands	r6, r2
/mnt/disk/raspbian-tee/optee_os/lib/libutee/tee_api_operations.c:924
    1910:	2300      	movs	r3, #0
    1912:	9104      	str	r1, [sp, #16]
/mnt/disk/raspbian-tee/optee_os/lib/libutee/tee_api_operations.c:925
    1914:	4632      	mov	r2, r6
/mnt/disk/raspbian-tee/optee_os/lib/libutee/tee_api_operations.c:924
    1916:	9305      	str	r3, [sp, #20]
/mnt/disk/raspbian-tee/optee_os/lib/libutee/tee_api_operations.c:925
    1918:	4651      	mov	r1, sl
    191a:	ab04      	add	r3, sp, #16
    191c:	6be0      	ldr	r0, [r4, #60]	; 0x3c
    191e:	9300      	str	r3, [sp, #0]
    1920:	4643      	mov	r3, r8
    1922:	47d8      	blx	fp
/mnt/disk/raspbian-tee/optee_os/lib/libutee/tee_api_operations.c:926
    1924:	b108      	cbz	r0, 192a <tee_buffer_update+0x136>
/mnt/disk/raspbian-tee/optee_os/lib/libutee/tee_api_operations.c:927
    1926:	f006 f935 	bl	7b94 <TEE_Panic>
/mnt/disk/raspbian-tee/optee_os/lib/libutee/tee_api_operations.c:932
    192a:	9b04      	ldr	r3, [sp, #16]
/mnt/disk/raspbian-tee/optee_os/lib/libutee/tee_api_operations.c:928
    192c:	44b2      	add	sl, r6
/mnt/disk/raspbian-tee/optee_os/lib/libutee/tee_api_operations.c:929
    192e:	1bbf      	subs	r7, r7, r6
/mnt/disk/raspbian-tee/optee_os/lib/libutee/tee_api_operations.c:932
    1930:	441d      	add	r5, r3
/mnt/disk/raspbian-tee/optee_os/lib/libutee/tee_api_operations.c:936
    1932:	6ba3      	ldr	r3, [r4, #56]	; 0x38
    1934:	463a      	mov	r2, r7
    1936:	6ae0      	ldr	r0, [r4, #44]	; 0x2c
    1938:	4651      	mov	r1, sl
    193a:	4418      	add	r0, r3
    193c:	f006 f84e 	bl	79dc <memcpy>
/mnt/disk/raspbian-tee/optee_os/lib/libutee/tee_api_operations.c:937
    1940:	6ba3      	ldr	r3, [r4, #56]	; 0x38
    1942:	441f      	add	r7, r3
    1944:	63a7      	str	r7, [r4, #56]	; 0x38
    1946:	e766      	b.n	1816 <tee_buffer_update+0x22>
/mnt/disk/raspbian-tee/optee_os/lib/libutee/tee_api_operations.c:904
    1948:	461d      	mov	r5, r3
    194a:	e7d4      	b.n	18f6 <tee_buffer_update+0x102>
/mnt/disk/raspbian-tee/optee_os/lib/libutee/tee_api_operations.c:922
    194c:	1b96      	subs	r6, r2, r6
    194e:	e7dc      	b.n	190a <tee_buffer_update+0x116>
    1950:	10000310 	.word	0x10000310

00001954 <TEE_FreeOperation>:
TEE_FreeOperation():
/mnt/disk/raspbian-tee/optee_os/lib/libutee/tee_api_operations.c:351
    1954:	b510      	push	{r4, lr}
/mnt/disk/raspbian-tee/optee_os/lib/libutee/tee_api_operations.c:354
    1956:	4604      	mov	r4, r0
    1958:	b908      	cbnz	r0, 195e <TEE_FreeOperation+0xa>
/mnt/disk/raspbian-tee/optee_os/lib/libutee/tee_api_operations.c:355
    195a:	f006 f91b 	bl	7b94 <TEE_Panic>
/mnt/disk/raspbian-tee/optee_os/lib/libutee/tee_api_operations.c:362
    195e:	6be0      	ldr	r0, [r4, #60]	; 0x3c
    1960:	f001 ebf2 	blx	3148 <utee_cryp_state_free>
/mnt/disk/raspbian-tee/optee_os/lib/libutee/tee_api_operations.c:363
    1964:	b108      	cbz	r0, 196a <TEE_FreeOperation+0x16>
/mnt/disk/raspbian-tee/optee_os/lib/libutee/tee_api_operations.c:364
    1966:	f006 f915 	bl	7b94 <TEE_Panic>
/mnt/disk/raspbian-tee/optee_os/lib/libutee/tee_api_operations.c:366
    196a:	6ae0      	ldr	r0, [r4, #44]	; 0x2c
    196c:	f7ff fb70 	bl	1050 <TEE_Free>
/mnt/disk/raspbian-tee/optee_os/lib/libutee/tee_api_operations.c:367
    1970:	4620      	mov	r0, r4
/mnt/disk/raspbian-tee/optee_os/lib/libutee/tee_api_operations.c:368
    1972:	e8bd 4010 	ldmia.w	sp!, {r4, lr}
/mnt/disk/raspbian-tee/optee_os/lib/libutee/tee_api_operations.c:367
    1976:	f7ff bb6b 	b.w	1050 <TEE_Free>

0000197a <TEE_AllocateOperation>:
TEE_AllocateOperation():
/mnt/disk/raspbian-tee/optee_os/lib/libutee/tee_api_operations.c:37
    197a:	e92d 4ff0 	stmdb	sp!, {r4, r5, r6, r7, r8, r9, sl, fp, lr}
    197e:	460c      	mov	r4, r1
    1980:	4617      	mov	r7, r2
    1982:	b087      	sub	sp, #28
    1984:	4699      	mov	r9, r3
/mnt/disk/raspbian-tee/optee_os/lib/libutee/tee_api_operations.c:46
    1986:	9003      	str	r0, [sp, #12]
    1988:	b908      	cbnz	r0, 198e <TEE_AllocateOperation+0x14>
/mnt/disk/raspbian-tee/optee_os/lib/libutee/tee_api_operations.c:47
    198a:	f006 f903 	bl	7b94 <TEE_Panic>
/mnt/disk/raspbian-tee/optee_os/lib/libutee/tee_api_operations.c:49
    198e:	4bba      	ldr	r3, [pc, #744]	; (1c78 <TEE_AllocateOperation+0x2fe>)
    1990:	429c      	cmp	r4, r3
    1992:	f000 81b6 	beq.w	1d02 <TEE_AllocateOperation+0x388>
/mnt/disk/raspbian-tee/optee_os/lib/libutee/tee_api_operations.c:53
    1996:	4bb9      	ldr	r3, [pc, #740]	; (1c7c <TEE_AllocateOperation+0x302>)
    1998:	429c      	cmp	r4, r3
    199a:	d06e      	beq.n	1a7a <TEE_AllocateOperation+0x100>
    199c:	d83f      	bhi.n	1a1e <TEE_AllocateOperation+0xa4>
    199e:	4ab8      	ldr	r2, [pc, #736]	; (1c80 <TEE_AllocateOperation+0x306>)
    19a0:	4294      	cmp	r4, r2
    19a2:	d055      	beq.n	1a50 <TEE_AllocateOperation+0xd6>
    19a4:	d82d      	bhi.n	1a02 <TEE_AllocateOperation+0x88>
    19a6:	f5a2 5287 	sub.w	r2, r2, #4320	; 0x10e0
    19aa:	3a10      	subs	r2, #16
    19ac:	4294      	cmp	r4, r2
    19ae:	d040      	beq.n	1a32 <TEE_AllocateOperation+0xb8>
    19b0:	f502 5280 	add.w	r2, r2, #4096	; 0x1000
    19b4:	4294      	cmp	r4, r2
    19b6:	d065      	beq.n	1a84 <TEE_AllocateOperation+0x10a>
/mnt/disk/raspbian-tee/optee_os/lib/libutee/tee_api_operations.c:108
    19b8:	4ab2      	ldr	r2, [pc, #712]	; (1c84 <TEE_AllocateOperation+0x30a>)
    19ba:	4294      	cmp	r4, r2
    19bc:	d050      	beq.n	1a60 <TEE_AllocateOperation+0xe6>
    19be:	f200 80d8 	bhi.w	1b72 <TEE_AllocateOperation+0x1f8>
    19c2:	4bb1      	ldr	r3, [pc, #708]	; (1c88 <TEE_AllocateOperation+0x30e>)
    19c4:	429c      	cmp	r4, r3
    19c6:	d07d      	beq.n	1ac4 <TEE_AllocateOperation+0x14a>
    19c8:	f200 808e 	bhi.w	1ae8 <TEE_AllocateOperation+0x16e>
    19cc:	4baf      	ldr	r3, [pc, #700]	; (1c8c <TEE_AllocateOperation+0x312>)
    19ce:	429c      	cmp	r4, r3
    19d0:	f000 81a9 	beq.w	1d26 <TEE_AllocateOperation+0x3ac>
    19d4:	d86b      	bhi.n	1aae <TEE_AllocateOperation+0x134>
    19d6:	f46f 71ff 	mvn.w	r1, #510	; 0x1fe
    19da:	440b      	add	r3, r1
    19dc:	429c      	cmp	r4, r3
    19de:	d85b      	bhi.n	1a98 <TEE_AllocateOperation+0x11e>
    19e0:	3b01      	subs	r3, #1
    19e2:	429c      	cmp	r4, r3
    19e4:	d209      	bcs.n	19fa <TEE_AllocateOperation+0x80>
    19e6:	f5a3 7380 	sub.w	r3, r3, #256	; 0x100
    19ea:	429c      	cmp	r4, r3
    19ec:	d324      	bcc.n	1a38 <TEE_AllocateOperation+0xbe>
    19ee:	3301      	adds	r3, #1
    19f0:	429c      	cmp	r4, r3
    19f2:	d902      	bls.n	19fa <TEE_AllocateOperation+0x80>
    19f4:	3302      	adds	r3, #2
    19f6:	429c      	cmp	r4, r3
    19f8:	d11e      	bne.n	1a38 <TEE_AllocateOperation+0xbe>
    19fa:	f04f 0800 	mov.w	r8, #0
/mnt/disk/raspbian-tee/optee_os/lib/libutee/tee_api_operations.c:44
    19fe:	4646      	mov	r6, r8
    1a00:	e182      	b.n	1d08 <TEE_AllocateOperation+0x38e>
/mnt/disk/raspbian-tee/optee_os/lib/libutee/tee_api_operations.c:53
    1a02:	4aa3      	ldr	r2, [pc, #652]	; (1c90 <TEE_AllocateOperation+0x316>)
    1a04:	4294      	cmp	r4, r2
    1a06:	d034      	beq.n	1a72 <TEE_AllocateOperation+0xf8>
    1a08:	f502 6271 	add.w	r2, r2, #3856	; 0xf10
    1a0c:	4294      	cmp	r4, r2
    1a0e:	d03c      	beq.n	1a8a <TEE_AllocateOperation+0x110>
    1a10:	f5a2 5280 	sub.w	r2, r2, #4096	; 0x1000
    1a14:	4294      	cmp	r4, r2
    1a16:	d1cf      	bne.n	19b8 <TEE_AllocateOperation+0x3e>
/mnt/disk/raspbian-tee/optee_os/lib/libutee/tee_api_operations.c:87
    1a18:	f5b9 7f80 	cmp.w	r9, #256	; 0x100
    1a1c:	e00b      	b.n	1a36 <TEE_AllocateOperation+0xbc>
/mnt/disk/raspbian-tee/optee_os/lib/libutee/tee_api_operations.c:53
    1a1e:	4a9d      	ldr	r2, [pc, #628]	; (1c94 <TEE_AllocateOperation+0x31a>)
    1a20:	4294      	cmp	r4, r2
    1a22:	d02f      	beq.n	1a84 <TEE_AllocateOperation+0x10a>
    1a24:	d80a      	bhi.n	1a3c <TEE_AllocateOperation+0xc2>
    1a26:	4a9c      	ldr	r2, [pc, #624]	; (1c98 <TEE_AllocateOperation+0x31e>)
    1a28:	4294      	cmp	r4, r2
    1a2a:	d031      	beq.n	1a90 <TEE_AllocateOperation+0x116>
    1a2c:	4a9b      	ldr	r2, [pc, #620]	; (1c9c <TEE_AllocateOperation+0x322>)
    1a2e:	4294      	cmp	r4, r2
    1a30:	d1c2      	bne.n	19b8 <TEE_AllocateOperation+0x3e>
/mnt/disk/raspbian-tee/optee_os/lib/libutee/tee_api_operations.c:75
    1a32:	f1b9 0fc0 	cmp.w	r9, #192	; 0xc0
/mnt/disk/raspbian-tee/optee_os/lib/libutee/tee_api_operations.c:99
    1a36:	d0bf      	beq.n	19b8 <TEE_AllocateOperation+0x3e>
/mnt/disk/raspbian-tee/optee_os/lib/libutee/tee_api_operations.c:56
    1a38:	4e99      	ldr	r6, [pc, #612]	; (1ca0 <TEE_AllocateOperation+0x326>)
    1a3a:	e1ca      	b.n	1dd2 <TEE_AllocateOperation+0x458>
/mnt/disk/raspbian-tee/optee_os/lib/libutee/tee_api_operations.c:53
    1a3c:	4a99      	ldr	r2, [pc, #612]	; (1ca4 <TEE_AllocateOperation+0x32a>)
    1a3e:	4294      	cmp	r4, r2
    1a40:	d023      	beq.n	1a8a <TEE_AllocateOperation+0x110>
    1a42:	f502 5280 	add.w	r2, r2, #4096	; 0x1000
    1a46:	4294      	cmp	r4, r2
    1a48:	d022      	beq.n	1a90 <TEE_AllocateOperation+0x116>
    1a4a:	f5a2 5200 	sub.w	r2, r2, #8192	; 0x2000
    1a4e:	e7e1      	b.n	1a14 <TEE_AllocateOperation+0x9a>
/mnt/disk/raspbian-tee/optee_os/lib/libutee/tee_api_operations.c:55
    1a50:	f5a9 7300 	sub.w	r3, r9, #512	; 0x200
    1a54:	f5b3 7f00 	cmp.w	r3, #512	; 0x200
    1a58:	d8ee      	bhi.n	1a38 <TEE_AllocateOperation+0xbe>
/mnt/disk/raspbian-tee/optee_os/lib/libutee/tee_api_operations.c:59
    1a5a:	f019 0f3f 	tst.w	r9, #63	; 0x3f
    1a5e:	d1eb      	bne.n	1a38 <TEE_AllocateOperation+0xbe>
/mnt/disk/raspbian-tee/optee_os/lib/libutee/tee_api_operations.c:157
    1a60:	2f02      	cmp	r7, #2
    1a62:	f000 81bd 	beq.w	1de0 <TEE_AllocateOperation+0x466>
/mnt/disk/raspbian-tee/optee_os/lib/libutee/tee_api_operations.c:160
    1a66:	2f03      	cmp	r7, #3
    1a68:	d1e6      	bne.n	1a38 <TEE_AllocateOperation+0xbe>
/mnt/disk/raspbian-tee/optee_os/lib/libutee/tee_api_operations.c:44
    1a6a:	2600      	movs	r6, #0
/mnt/disk/raspbian-tee/optee_os/lib/libutee/tee_api_operations.c:161
    1a6c:	2220      	movs	r2, #32
/mnt/disk/raspbian-tee/optee_os/lib/libutee/tee_api_operations.c:43
    1a6e:	46b2      	mov	sl, r6
    1a70:	e02d      	b.n	1ace <TEE_AllocateOperation+0x154>
/mnt/disk/raspbian-tee/optee_os/lib/libutee/tee_api_operations.c:64
    1a72:	f5b9 6f00 	cmp.w	r9, #2048	; 0x800
/mnt/disk/raspbian-tee/optee_os/lib/libutee/tee_api_operations.c:108
    1a76:	d1df      	bne.n	1a38 <TEE_AllocateOperation+0xbe>
    1a78:	e7f2      	b.n	1a60 <TEE_AllocateOperation+0xe6>
/mnt/disk/raspbian-tee/optee_os/lib/libutee/tee_api_operations.c:69
    1a7a:	f429 6380 	bic.w	r3, r9, #1024	; 0x400
    1a7e:	f5b3 6f00 	cmp.w	r3, #2048	; 0x800
    1a82:	e7f8      	b.n	1a76 <TEE_AllocateOperation+0xfc>
/mnt/disk/raspbian-tee/optee_os/lib/libutee/tee_api_operations.c:81
    1a84:	f1b9 0fe0 	cmp.w	r9, #224	; 0xe0
    1a88:	e7d5      	b.n	1a36 <TEE_AllocateOperation+0xbc>
/mnt/disk/raspbian-tee/optee_os/lib/libutee/tee_api_operations.c:93
    1a8a:	f5b9 7fc0 	cmp.w	r9, #384	; 0x180
    1a8e:	e7d2      	b.n	1a36 <TEE_AllocateOperation+0xbc>
/mnt/disk/raspbian-tee/optee_os/lib/libutee/tee_api_operations.c:99
    1a90:	f240 2209 	movw	r2, #521	; 0x209
    1a94:	4591      	cmp	r9, r2
    1a96:	e7ce      	b.n	1a36 <TEE_AllocateOperation+0xbc>
/mnt/disk/raspbian-tee/optee_os/lib/libutee/tee_api_operations.c:108
    1a98:	4b83      	ldr	r3, [pc, #524]	; (1ca8 <TEE_AllocateOperation+0x32e>)
    1a9a:	429c      	cmp	r4, r3
    1a9c:	d0ad      	beq.n	19fa <TEE_AllocateOperation+0x80>
    1a9e:	33fd      	adds	r3, #253	; 0xfd
    1aa0:	429c      	cmp	r4, r3
    1aa2:	d1c9      	bne.n	1a38 <TEE_AllocateOperation+0xbe>
    1aa4:	f04f 0800 	mov.w	r8, #0
/mnt/disk/raspbian-tee/optee_os/lib/libutee/tee_api_operations.c:41
    1aa8:	2301      	movs	r3, #1
/mnt/disk/raspbian-tee/optee_os/lib/libutee/tee_api_operations.c:44
    1aaa:	4646      	mov	r6, r8
    1aac:	e132      	b.n	1d14 <TEE_AllocateOperation+0x39a>
/mnt/disk/raspbian-tee/optee_os/lib/libutee/tee_api_operations.c:108
    1aae:	4b7f      	ldr	r3, [pc, #508]	; (1cac <TEE_AllocateOperation+0x332>)
    1ab0:	429c      	cmp	r4, r3
    1ab2:	d80f      	bhi.n	1ad4 <TEE_AllocateOperation+0x15a>
    1ab4:	3b01      	subs	r3, #1
    1ab6:	429c      	cmp	r4, r3
    1ab8:	d204      	bcs.n	1ac4 <TEE_AllocateOperation+0x14a>
    1aba:	f104 4350 	add.w	r3, r4, #3489660928	; 0xd0000000
    1abe:	3b01      	subs	r3, #1
    1ac0:	2b05      	cmp	r3, #5
    1ac2:	d8b9      	bhi.n	1a38 <TEE_AllocateOperation+0xbe>
/mnt/disk/raspbian-tee/optee_os/lib/libutee/tee_api_operations.c:244
    1ac4:	2f04      	cmp	r7, #4
    1ac6:	d1b7      	bne.n	1a38 <TEE_AllocateOperation+0xbe>
/mnt/disk/raspbian-tee/optee_os/lib/libutee/tee_api_operations.c:44
    1ac8:	2600      	movs	r6, #0
/mnt/disk/raspbian-tee/optee_os/lib/libutee/tee_api_operations.c:246
    1aca:	2208      	movs	r2, #8
/mnt/disk/raspbian-tee/optee_os/lib/libutee/tee_api_operations.c:43
    1acc:	46b2      	mov	sl, r6
/mnt/disk/raspbian-tee/optee_os/lib/libutee/tee_api_operations.c:41
    1ace:	2301      	movs	r3, #1
    1ad0:	46b0      	mov	r8, r6
    1ad2:	e13e      	b.n	1d52 <TEE_AllocateOperation+0x3d8>
/mnt/disk/raspbian-tee/optee_os/lib/libutee/tee_api_operations.c:108
    1ad4:	4b76      	ldr	r3, [pc, #472]	; (1cb0 <TEE_AllocateOperation+0x336>)
    1ad6:	429c      	cmp	r4, r3
    1ad8:	d0f4      	beq.n	1ac4 <TEE_AllocateOperation+0x14a>
    1ada:	d3ad      	bcc.n	1a38 <TEE_AllocateOperation+0xbe>
    1adc:	f104 4350 	add.w	r3, r4, #3489660928	; 0xd0000000
    1ae0:	f5a3 63a2 	sub.w	r3, r3, #1296	; 0x510
    1ae4:	2b01      	cmp	r3, #1
    1ae6:	e7ec      	b.n	1ac2 <TEE_AllocateOperation+0x148>
    1ae8:	4b72      	ldr	r3, [pc, #456]	; (1cb4 <TEE_AllocateOperation+0x33a>)
    1aea:	429c      	cmp	r4, r3
    1aec:	d01b      	beq.n	1b26 <TEE_AllocateOperation+0x1ac>
    1aee:	d823      	bhi.n	1b38 <TEE_AllocateOperation+0x1be>
    1af0:	4b71      	ldr	r3, [pc, #452]	; (1cb8 <TEE_AllocateOperation+0x33e>)
    1af2:	429c      	cmp	r4, r3
    1af4:	d80f      	bhi.n	1b16 <TEE_AllocateOperation+0x19c>
    1af6:	f1b4 4fa0 	cmp.w	r4, #1342177280	; 0x50000000
    1afa:	f200 8121 	bhi.w	1d40 <TEE_AllocateOperation+0x3c6>
    1afe:	4b6f      	ldr	r3, [pc, #444]	; (1cbc <TEE_AllocateOperation+0x342>)
    1b00:	429c      	cmp	r4, r3
    1b02:	f43f af7a 	beq.w	19fa <TEE_AllocateOperation+0x80>
    1b06:	f503 7380 	add.w	r3, r3, #256	; 0x100
    1b0a:	429c      	cmp	r4, r3
    1b0c:	d0ca      	beq.n	1aa4 <TEE_AllocateOperation+0x12a>
    1b0e:	4b6c      	ldr	r3, [pc, #432]	; (1cc0 <TEE_AllocateOperation+0x346>)
    1b10:	429c      	cmp	r4, r3
    1b12:	d191      	bne.n	1a38 <TEE_AllocateOperation+0xbe>
    1b14:	e7d6      	b.n	1ac4 <TEE_AllocateOperation+0x14a>
    1b16:	4b6b      	ldr	r3, [pc, #428]	; (1cc4 <TEE_AllocateOperation+0x34a>)
    1b18:	429c      	cmp	r4, r3
    1b1a:	f000 8107 	beq.w	1d2c <TEE_AllocateOperation+0x3b2>
    1b1e:	f503 7380 	add.w	r3, r3, #256	; 0x100
    1b22:	429c      	cmp	r4, r3
    1b24:	d188      	bne.n	1a38 <TEE_AllocateOperation+0xbe>
/mnt/disk/raspbian-tee/optee_os/lib/libutee/tee_api_operations.c:173
    1b26:	2f00      	cmp	r7, #0
    1b28:	f000 815f 	beq.w	1dea <TEE_AllocateOperation+0x470>
/mnt/disk/raspbian-tee/optee_os/lib/libutee/tee_api_operations.c:175
    1b2c:	2f01      	cmp	r7, #1
    1b2e:	d183      	bne.n	1a38 <TEE_AllocateOperation+0xbe>
/mnt/disk/raspbian-tee/optee_os/lib/libutee/tee_api_operations.c:44
    1b30:	2600      	movs	r6, #0
/mnt/disk/raspbian-tee/optee_os/lib/libutee/tee_api_operations.c:176
    1b32:	46ba      	mov	sl, r7
/mnt/disk/raspbian-tee/optee_os/lib/libutee/tee_api_operations.c:177
    1b34:	2204      	movs	r2, #4
    1b36:	e7ca      	b.n	1ace <TEE_AllocateOperation+0x154>
/mnt/disk/raspbian-tee/optee_os/lib/libutee/tee_api_operations.c:108
    1b38:	4b63      	ldr	r3, [pc, #396]	; (1cc8 <TEE_AllocateOperation+0x34e>)
    1b3a:	429c      	cmp	r4, r3
    1b3c:	d0f3      	beq.n	1b26 <TEE_AllocateOperation+0x1ac>
    1b3e:	d80a      	bhi.n	1b56 <TEE_AllocateOperation+0x1dc>
    1b40:	f5a3 1300 	sub.w	r3, r3, #2097152	; 0x200000
    1b44:	429c      	cmp	r4, r3
    1b46:	d0ee      	beq.n	1b26 <TEE_AllocateOperation+0x1ac>
    1b48:	f503 1380 	add.w	r3, r3, #1048576	; 0x100000
    1b4c:	429c      	cmp	r4, r3
    1b4e:	d0ea      	beq.n	1b26 <TEE_AllocateOperation+0x1ac>
    1b50:	f5a3 1300 	sub.w	r3, r3, #2097152	; 0x200000
    1b54:	e7e5      	b.n	1b22 <TEE_AllocateOperation+0x1a8>
    1b56:	4b5d      	ldr	r3, [pc, #372]	; (1ccc <TEE_AllocateOperation+0x352>)
    1b58:	429c      	cmp	r4, r3
    1b5a:	d081      	beq.n	1a60 <TEE_AllocateOperation+0xe6>
    1b5c:	d802      	bhi.n	1b64 <TEE_AllocateOperation+0x1ea>
    1b5e:	f2a3 73ef 	subw	r3, r3, #2031	; 0x7ef
    1b62:	e004      	b.n	1b6e <TEE_AllocateOperation+0x1f4>
    1b64:	4b5a      	ldr	r3, [pc, #360]	; (1cd0 <TEE_AllocateOperation+0x356>)
    1b66:	429c      	cmp	r4, r3
    1b68:	f43f af7a 	beq.w	1a60 <TEE_AllocateOperation+0xe6>
    1b6c:	33f0      	adds	r3, #240	; 0xf0
    1b6e:	429c      	cmp	r4, r3
    1b70:	e781      	b.n	1a76 <TEE_AllocateOperation+0xfc>
    1b72:	4a4a      	ldr	r2, [pc, #296]	; (1c9c <TEE_AllocateOperation+0x322>)
    1b74:	4294      	cmp	r4, r2
    1b76:	d064      	beq.n	1c42 <TEE_AllocateOperation+0x2c8>
    1b78:	d843      	bhi.n	1c02 <TEE_AllocateOperation+0x288>
    1b7a:	4a56      	ldr	r2, [pc, #344]	; (1cd4 <TEE_AllocateOperation+0x35a>)
    1b7c:	4294      	cmp	r4, r2
    1b7e:	f43f af6f 	beq.w	1a60 <TEE_AllocateOperation+0xe6>
    1b82:	d818      	bhi.n	1bb6 <TEE_AllocateOperation+0x23c>
    1b84:	f5a2 52bf 	sub.w	r2, r2, #6112	; 0x17e0
    1b88:	3a0f      	subs	r2, #15
    1b8a:	4294      	cmp	r4, r2
    1b8c:	f43f af68 	beq.w	1a60 <TEE_AllocateOperation+0xe6>
    1b90:	d808      	bhi.n	1ba4 <TEE_AllocateOperation+0x22a>
    1b92:	4b3f      	ldr	r3, [pc, #252]	; (1c90 <TEE_AllocateOperation+0x316>)
    1b94:	429c      	cmp	r4, r3
    1b96:	f43f af63 	beq.w	1a60 <TEE_AllocateOperation+0xe6>
    1b9a:	f203 63ff 	addw	r3, r3, #1791	; 0x6ff
    1b9e:	429c      	cmp	r4, r3
    1ba0:	d1dd      	bne.n	1b5e <TEE_AllocateOperation+0x1e4>
    1ba2:	e75d      	b.n	1a60 <TEE_AllocateOperation+0xe6>
    1ba4:	4a4c      	ldr	r2, [pc, #304]	; (1cd8 <TEE_AllocateOperation+0x35e>)
    1ba6:	4294      	cmp	r4, r2
    1ba8:	f43f af5a 	beq.w	1a60 <TEE_AllocateOperation+0xe6>
    1bac:	f602 0211 	addw	r2, r2, #2065	; 0x811
    1bb0:	4294      	cmp	r4, r2
    1bb2:	d1dc      	bne.n	1b6e <TEE_AllocateOperation+0x1f4>
    1bb4:	e754      	b.n	1a60 <TEE_AllocateOperation+0xe6>
    1bb6:	4b49      	ldr	r3, [pc, #292]	; (1cdc <TEE_AllocateOperation+0x362>)
    1bb8:	429c      	cmp	r4, r3
    1bba:	f43f af51 	beq.w	1a60 <TEE_AllocateOperation+0xe6>
    1bbe:	d812      	bhi.n	1be6 <TEE_AllocateOperation+0x26c>
    1bc0:	f5a3 1300 	sub.w	r3, r3, #2097152	; 0x200000
    1bc4:	f5a3 5300 	sub.w	r3, r3, #8192	; 0x2000
    1bc8:	429c      	cmp	r4, r3
    1bca:	f43f af49 	beq.w	1a60 <TEE_AllocateOperation+0xe6>
    1bce:	f503 1380 	add.w	r3, r3, #1048576	; 0x100000
    1bd2:	f503 5380 	add.w	r3, r3, #4096	; 0x1000
    1bd6:	429c      	cmp	r4, r3
    1bd8:	f43f af42 	beq.w	1a60 <TEE_AllocateOperation+0xe6>
    1bdc:	f5a3 1343 	sub.w	r3, r3, #3194880	; 0x30c000
    1be0:	f5a3 5388 	sub.w	r3, r3, #4352	; 0x1100
    1be4:	e7c3      	b.n	1b6e <TEE_AllocateOperation+0x1f4>
    1be6:	4b3e      	ldr	r3, [pc, #248]	; (1ce0 <TEE_AllocateOperation+0x366>)
    1be8:	429c      	cmp	r4, r3
    1bea:	f43f af39 	beq.w	1a60 <TEE_AllocateOperation+0xe6>
    1bee:	4b3d      	ldr	r3, [pc, #244]	; (1ce4 <TEE_AllocateOperation+0x36a>)
    1bf0:	429c      	cmp	r4, r3
    1bf2:	d026      	beq.n	1c42 <TEE_AllocateOperation+0x2c8>
    1bf4:	f1a3 637a 	sub.w	r3, r3, #262144000	; 0xfa00000
    1bf8:	f5a3 236a 	sub.w	r3, r3, #958464	; 0xea000
    1bfc:	f2a3 7302 	subw	r3, r3, #1794	; 0x702
    1c00:	e7b5      	b.n	1b6e <TEE_AllocateOperation+0x1f4>
    1c02:	4b28      	ldr	r3, [pc, #160]	; (1ca4 <TEE_AllocateOperation+0x32a>)
    1c04:	429c      	cmp	r4, r3
    1c06:	d01c      	beq.n	1c42 <TEE_AllocateOperation+0x2c8>
    1c08:	d824      	bhi.n	1c54 <TEE_AllocateOperation+0x2da>
    1c0a:	f5a3 53fc 	sub.w	r3, r3, #8064	; 0x1f80
    1c0e:	429c      	cmp	r4, r3
    1c10:	d80b      	bhi.n	1c2a <TEE_AllocateOperation+0x2b0>
    1c12:	3b02      	subs	r3, #2
    1c14:	429c      	cmp	r4, r3
    1c16:	d214      	bcs.n	1c42 <TEE_AllocateOperation+0x2c8>
    1c18:	f5a3 5380 	sub.w	r3, r3, #4096	; 0x1000
    1c1c:	429c      	cmp	r4, r3
    1c1e:	d010      	beq.n	1c42 <TEE_AllocateOperation+0x2c8>
    1c20:	f603 7382 	addw	r3, r3, #3970	; 0xf82
    1c24:	429c      	cmp	r4, r3
    1c26:	d00c      	beq.n	1c42 <TEE_AllocateOperation+0x2c8>
    1c28:	e706      	b.n	1a38 <TEE_AllocateOperation+0xbe>
    1c2a:	4b2f      	ldr	r3, [pc, #188]	; (1ce8 <TEE_AllocateOperation+0x36e>)
    1c2c:	429c      	cmp	r4, r3
    1c2e:	d008      	beq.n	1c42 <TEE_AllocateOperation+0x2c8>
    1c30:	f4ff af02 	bcc.w	1a38 <TEE_AllocateOperation+0xbe>
    1c34:	f104 4300 	add.w	r3, r4, #2147483648	; 0x80000000
    1c38:	f5a3 5343 	sub.w	r3, r3, #12480	; 0x30c0
    1c3c:	2b01      	cmp	r3, #1
    1c3e:	f63f aefb 	bhi.w	1a38 <TEE_AllocateOperation+0xbe>
/mnt/disk/raspbian-tee/optee_os/lib/libutee/tee_api_operations.c:212
    1c42:	2f06      	cmp	r7, #6
    1c44:	f47f aef8 	bne.w	1a38 <TEE_AllocateOperation+0xbe>
/mnt/disk/raspbian-tee/optee_os/lib/libutee/tee_api_operations.c:44
    1c48:	2600      	movs	r6, #0
/mnt/disk/raspbian-tee/optee_os/lib/libutee/tee_api_operations.c:214
    1c4a:	f04f 0a01 	mov.w	sl, #1
/mnt/disk/raspbian-tee/optee_os/lib/libutee/tee_api_operations.c:215
    1c4e:	2240      	movs	r2, #64	; 0x40
/mnt/disk/raspbian-tee/optee_os/lib/libutee/tee_api_operations.c:41
    1c50:	4653      	mov	r3, sl
    1c52:	e73d      	b.n	1ad0 <TEE_AllocateOperation+0x156>
/mnt/disk/raspbian-tee/optee_os/lib/libutee/tee_api_operations.c:108
    1c54:	4b25      	ldr	r3, [pc, #148]	; (1cec <TEE_AllocateOperation+0x372>)
    1c56:	429c      	cmp	r4, r3
    1c58:	d84a      	bhi.n	1cf0 <TEE_AllocateOperation+0x376>
    1c5a:	3b01      	subs	r3, #1
    1c5c:	429c      	cmp	r4, r3
    1c5e:	d2f0      	bcs.n	1c42 <TEE_AllocateOperation+0x2c8>
    1c60:	f5a3 5380 	sub.w	r3, r3, #4096	; 0x1000
    1c64:	429c      	cmp	r4, r3
    1c66:	f4ff aee7 	bcc.w	1a38 <TEE_AllocateOperation+0xbe>
    1c6a:	3301      	adds	r3, #1
    1c6c:	429c      	cmp	r4, r3
    1c6e:	d9e8      	bls.n	1c42 <TEE_AllocateOperation+0x2c8>
    1c70:	f603 7381 	addw	r3, r3, #3969	; 0xf81
    1c74:	e7d6      	b.n	1c24 <TEE_AllocateOperation+0x2aa>
    1c76:	bf00      	nop
    1c78:	10000410 	.word	0x10000410
    1c7c:	70004131 	.word	0x70004131
    1c80:	70002131 	.word	0x70002131
    1c84:	70002830 	.word	0x70002830
    1c88:	30000513 	.word	0x30000513
    1c8c:	10000310 	.word	0x10000310
    1c90:	70003131 	.word	0x70003131
    1c94:	80002042 	.word	0x80002042
    1c98:	70005041 	.word	0x70005041
    1c9c:	80001042 	.word	0x80001042
    1ca0:	ffff000a 	.word	0xffff000a
    1ca4:	80004042 	.word	0x80004042
    1ca8:	10000113 	.word	0x10000113
    1cac:	30000111 	.word	0x30000111
    1cb0:	30000113 	.word	0x30000113
    1cb4:	60210230 	.word	0x60210230
    1cb8:	50000006 	.word	0x50000006
    1cbc:	40000710 	.word	0x40000710
    1cc0:	30000610 	.word	0x30000610
    1cc4:	60000030 	.word	0x60000030
    1cc8:	60610230 	.word	0x60610230
    1ccc:	70001830 	.word	0x70001830
    1cd0:	70002041 	.word	0x70002041
    1cd4:	70005830 	.word	0x70005830
    1cd8:	70004830 	.word	0x70004830
    1cdc:	70414930 	.word	0x70414930
    1ce0:	70616930 	.word	0x70616930
    1ce4:	80000032 	.word	0x80000032
    1ce8:	80003042 	.word	0x80003042
    1cec:	800050c1 	.word	0x800050c1
    1cf0:	4b6f      	ldr	r3, [pc, #444]	; (1eb0 <TEE_AllocateOperation+0x536>)
    1cf2:	429c      	cmp	r4, r3
    1cf4:	f4ff aea0 	bcc.w	1a38 <TEE_AllocateOperation+0xbe>
    1cf8:	3301      	adds	r3, #1
    1cfa:	429c      	cmp	r4, r3
    1cfc:	d9a1      	bls.n	1c42 <TEE_AllocateOperation+0x2c8>
    1cfe:	4b6d      	ldr	r3, [pc, #436]	; (1eb4 <TEE_AllocateOperation+0x53a>)
    1d00:	e735      	b.n	1b6e <TEE_AllocateOperation+0x1f4>
/mnt/disk/raspbian-tee/optee_os/lib/libutee/tee_api_operations.c:50
    1d02:	f44f 2800 	mov.w	r8, #524288	; 0x80000
/mnt/disk/raspbian-tee/optee_os/lib/libutee/tee_api_operations.c:111
    1d06:	2601      	movs	r6, #1
/mnt/disk/raspbian-tee/optee_os/lib/libutee/tee_api_operations.c:120
    1d08:	b2e3      	uxtb	r3, r4
/mnt/disk/raspbian-tee/optee_os/lib/libutee/tee_api_operations.c:123
    1d0a:	2b10      	cmp	r3, #16
    1d0c:	f04f 0310 	mov.w	r3, #16
    1d10:	bf18      	it	ne
    1d12:	2308      	movne	r3, #8
/mnt/disk/raspbian-tee/optee_os/lib/libutee/tee_api_operations.c:127
    1d14:	2f00      	cmp	r7, #0
    1d16:	d060      	beq.n	1dda <TEE_AllocateOperation+0x460>
/mnt/disk/raspbian-tee/optee_os/lib/libutee/tee_api_operations.c:129
    1d18:	2f01      	cmp	r7, #1
    1d1a:	f47f ae8d 	bne.w	1a38 <TEE_AllocateOperation+0xbe>
/mnt/disk/raspbian-tee/optee_os/lib/libutee/tee_api_operations.c:43
    1d1e:	f04f 0a00 	mov.w	sl, #0
/mnt/disk/raspbian-tee/optee_os/lib/libutee/tee_api_operations.c:130
    1d22:	2204      	movs	r2, #4
    1d24:	e015      	b.n	1d52 <TEE_AllocateOperation+0x3d8>
/mnt/disk/raspbian-tee/optee_os/lib/libutee/tee_api_operations.c:108
    1d26:	f04f 0800 	mov.w	r8, #0
    1d2a:	e7ec      	b.n	1d06 <TEE_AllocateOperation+0x38c>
/mnt/disk/raspbian-tee/optee_os/lib/libutee/tee_api_operations.c:184
    1d2c:	2f00      	cmp	r7, #0
    1d2e:	d062      	beq.n	1df6 <TEE_AllocateOperation+0x47c>
/mnt/disk/raspbian-tee/optee_os/lib/libutee/tee_api_operations.c:186
    1d30:	2f01      	cmp	r7, #1
    1d32:	f47f ae81 	bne.w	1a38 <TEE_AllocateOperation+0xbe>
/mnt/disk/raspbian-tee/optee_os/lib/libutee/tee_api_operations.c:44
    1d36:	2600      	movs	r6, #0
/mnt/disk/raspbian-tee/optee_os/lib/libutee/tee_api_operations.c:187
    1d38:	f04f 0a01 	mov.w	sl, #1
/mnt/disk/raspbian-tee/optee_os/lib/libutee/tee_api_operations.c:188
    1d3c:	2214      	movs	r2, #20
    1d3e:	e787      	b.n	1c50 <TEE_AllocateOperation+0x2d6>
/mnt/disk/raspbian-tee/optee_os/lib/libutee/tee_api_operations.c:224
    1d40:	2f05      	cmp	r7, #5
    1d42:	f47f ae79 	bne.w	1a38 <TEE_AllocateOperation+0xbe>
/mnt/disk/raspbian-tee/optee_os/lib/libutee/tee_api_operations.c:44
    1d46:	2600      	movs	r6, #0
/mnt/disk/raspbian-tee/optee_os/lib/libutee/tee_api_operations.c:41
    1d48:	2301      	movs	r3, #1
/mnt/disk/raspbian-tee/optee_os/lib/libutee/tee_api_operations.c:43
    1d4a:	46b2      	mov	sl, r6
/mnt/disk/raspbian-tee/optee_os/lib/libutee/tee_api_operations.c:228
    1d4c:	4632      	mov	r2, r6
/mnt/disk/raspbian-tee/optee_os/lib/libutee/tee_api_operations.c:227
    1d4e:	f44f 2880 	mov.w	r8, #262144	; 0x40000
/mnt/disk/raspbian-tee/optee_os/lib/libutee/tee_api_operations.c:253
    1d52:	2100      	movs	r1, #0
    1d54:	2044      	movs	r0, #68	; 0x44
    1d56:	9205      	str	r2, [sp, #20]
    1d58:	9304      	str	r3, [sp, #16]
    1d5a:	f7ff f952 	bl	1002 <TEE_Malloc>
/mnt/disk/raspbian-tee/optee_os/lib/libutee/tee_api_operations.c:254
    1d5e:	4605      	mov	r5, r0
    1d60:	2800      	cmp	r0, #0
    1d62:	f000 80a0 	beq.w	1ea6 <TEE_AllocateOperation+0x52c>
/mnt/disk/raspbian-tee/optee_os/lib/libutee/tee_api_operations.c:260
    1d66:	4953      	ldr	r1, [pc, #332]	; (1eb4 <TEE_AllocateOperation+0x53a>)
/mnt/disk/raspbian-tee/optee_os/lib/libutee/tee_api_operations.c:258
    1d68:	ea4f 7b14 	mov.w	fp, r4, lsr #28
/mnt/disk/raspbian-tee/optee_os/lib/libutee/tee_api_operations.c:257
    1d6c:	6004      	str	r4, [r0, #0]
/mnt/disk/raspbian-tee/optee_os/lib/libutee/tee_api_operations.c:260
    1d6e:	428c      	cmp	r4, r1
    1d70:	9b04      	ldr	r3, [sp, #16]
    1d72:	9a05      	ldr	r2, [sp, #20]
    1d74:	d044      	beq.n	1e00 <TEE_AllocateOperation+0x486>
/mnt/disk/raspbian-tee/optee_os/lib/libutee/tee_api_operations.c:258
    1d76:	f8c0 b004 	str.w	fp, [r0, #4]
/mnt/disk/raspbian-tee/optee_os/lib/libutee/tee_api_operations.c:263
    1d7a:	60af      	str	r7, [r5, #8]
/mnt/disk/raspbian-tee/optee_os/lib/libutee/tee_api_operations.c:268
    1d7c:	2b01      	cmp	r3, #1
/mnt/disk/raspbian-tee/optee_os/lib/libutee/tee_api_operations.c:264
    1d7e:	f8c5 9010 	str.w	r9, [r5, #16]
/mnt/disk/raspbian-tee/optee_os/lib/libutee/tee_api_operations.c:265
    1d82:	61aa      	str	r2, [r5, #24]
/mnt/disk/raspbian-tee/optee_os/lib/libutee/tee_api_operations.c:266
    1d84:	f8c5 801c 	str.w	r8, [r5, #28]
/mnt/disk/raspbian-tee/optee_os/lib/libutee/tee_api_operations.c:268
    1d88:	d13d      	bne.n	1e06 <TEE_AllocateOperation+0x48c>
/mnt/disk/raspbian-tee/optee_os/lib/libutee/tee_api_operations.c:281
    1d8a:	636b      	str	r3, [r5, #52]	; 0x34
/mnt/disk/raspbian-tee/optee_os/lib/libutee/tee_api_operations.c:284
    1d8c:	f1bb 0f05 	cmp.w	fp, #5
/mnt/disk/raspbian-tee/optee_os/lib/libutee/tee_api_operations.c:282
    1d90:	f885 6030 	strb.w	r6, [r5, #48]	; 0x30
/mnt/disk/raspbian-tee/optee_os/lib/libutee/tee_api_operations.c:284
    1d94:	d146      	bne.n	1e24 <TEE_AllocateOperation+0x4aa>
/mnt/disk/raspbian-tee/optee_os/lib/libutee/tee_api_operations.c:308
    1d96:	f105 033c 	add.w	r3, r5, #60	; 0x3c
    1d9a:	9300      	str	r3, [sp, #0]
    1d9c:	4639      	mov	r1, r7
    1d9e:	4620      	mov	r0, r4
    1da0:	6a2a      	ldr	r2, [r5, #32]
    1da2:	6a6b      	ldr	r3, [r5, #36]	; 0x24
    1da4:	f001 e9ba 	blx	311c <utee_cryp_state_alloc>
/mnt/disk/raspbian-tee/optee_os/lib/libutee/tee_api_operations.c:310
    1da8:	4602      	mov	r2, r0
    1daa:	2800      	cmp	r0, #0
    1dac:	d17d      	bne.n	1eaa <TEE_AllocateOperation+0x530>
/mnt/disk/raspbian-tee/optee_os/lib/libutee/tee_api_operations.c:318
    1dae:	f1bb 0f05 	cmp.w	fp, #5
    1db2:	d10a      	bne.n	1dca <TEE_AllocateOperation+0x450>
/mnt/disk/raspbian-tee/optee_os/lib/libutee/tee_api_operations.c:319
    1db4:	4601      	mov	r1, r0
    1db6:	6be8      	ldr	r0, [r5, #60]	; 0x3c
    1db8:	f001 e9d0 	blx	315c <utee_hash_init>
/mnt/disk/raspbian-tee/optee_os/lib/libutee/tee_api_operations.c:320
    1dbc:	4606      	mov	r6, r0
    1dbe:	2800      	cmp	r0, #0
    1dc0:	d155      	bne.n	1e6e <TEE_AllocateOperation+0x4f4>
/mnt/disk/raspbian-tee/optee_os/lib/libutee/tee_api_operations.c:323
    1dc2:	69eb      	ldr	r3, [r5, #28]
    1dc4:	f443 3300 	orr.w	r3, r3, #131072	; 0x20000
    1dc8:	61eb      	str	r3, [r5, #28]
/mnt/disk/raspbian-tee/optee_os/lib/libutee/tee_api_operations.c:328
    1dca:	9b03      	ldr	r3, [sp, #12]
/mnt/disk/raspbian-tee/optee_os/lib/libutee/tee_api_operations.c:326
    1dcc:	2600      	movs	r6, #0
    1dce:	62ae      	str	r6, [r5, #40]	; 0x28
/mnt/disk/raspbian-tee/optee_os/lib/libutee/tee_api_operations.c:328
    1dd0:	601d      	str	r5, [r3, #0]
/mnt/disk/raspbian-tee/optee_os/lib/libutee/tee_api_operations.c:348
    1dd2:	4630      	mov	r0, r6
    1dd4:	b007      	add	sp, #28
    1dd6:	e8bd 8ff0 	ldmia.w	sp!, {r4, r5, r6, r7, r8, r9, sl, fp, pc}
/mnt/disk/raspbian-tee/optee_os/lib/libutee/tee_api_operations.c:43
    1dda:	46ba      	mov	sl, r7
/mnt/disk/raspbian-tee/optee_os/lib/libutee/tee_api_operations.c:128
    1ddc:	2202      	movs	r2, #2
    1dde:	e7b8      	b.n	1d52 <TEE_AllocateOperation+0x3d8>
/mnt/disk/raspbian-tee/optee_os/lib/libutee/tee_api_operations.c:44
    1de0:	2600      	movs	r6, #0
/mnt/disk/raspbian-tee/optee_os/lib/libutee/tee_api_operations.c:158
    1de2:	f04f 0a01 	mov.w	sl, #1
/mnt/disk/raspbian-tee/optee_os/lib/libutee/tee_api_operations.c:159
    1de6:	2210      	movs	r2, #16
    1de8:	e732      	b.n	1c50 <TEE_AllocateOperation+0x2d6>
    1dea:	46b8      	mov	r8, r7
/mnt/disk/raspbian-tee/optee_os/lib/libutee/tee_api_operations.c:44
    1dec:	463e      	mov	r6, r7
/mnt/disk/raspbian-tee/optee_os/lib/libutee/tee_api_operations.c:43
    1dee:	46ba      	mov	sl, r7
/mnt/disk/raspbian-tee/optee_os/lib/libutee/tee_api_operations.c:174
    1df0:	2202      	movs	r2, #2
/mnt/disk/raspbian-tee/optee_os/lib/libutee/tee_api_operations.c:41
    1df2:	2301      	movs	r3, #1
    1df4:	e7ad      	b.n	1d52 <TEE_AllocateOperation+0x3d8>
    1df6:	46b8      	mov	r8, r7
/mnt/disk/raspbian-tee/optee_os/lib/libutee/tee_api_operations.c:44
    1df8:	463e      	mov	r6, r7
/mnt/disk/raspbian-tee/optee_os/lib/libutee/tee_api_operations.c:43
    1dfa:	46ba      	mov	sl, r7
/mnt/disk/raspbian-tee/optee_os/lib/libutee/tee_api_operations.c:185
    1dfc:	2222      	movs	r2, #34	; 0x22
    1dfe:	e7f8      	b.n	1df2 <TEE_AllocateOperation+0x478>
/mnt/disk/raspbian-tee/optee_os/lib/libutee/tee_api_operations.c:261
    1e00:	2107      	movs	r1, #7
    1e02:	6041      	str	r1, [r0, #4]
    1e04:	e7b9      	b.n	1d7a <TEE_AllocateOperation+0x400>
/mnt/disk/raspbian-tee/optee_os/lib/libutee/tee_api_operations.c:271
    1e06:	b15e      	cbz	r6, 1e20 <TEE_AllocateOperation+0x4a6>
/mnt/disk/raspbian-tee/optee_os/lib/libutee/tee_api_operations.c:272
    1e08:	0058      	lsls	r0, r3, #1
/mnt/disk/raspbian-tee/optee_os/lib/libutee/tee_api_operations.c:274
    1e0a:	f04f 4100 	mov.w	r1, #2147483648	; 0x80000000
    1e0e:	9304      	str	r3, [sp, #16]
    1e10:	f7ff f8f7 	bl	1002 <TEE_Malloc>
/mnt/disk/raspbian-tee/optee_os/lib/libutee/tee_api_operations.c:276
    1e14:	9b04      	ldr	r3, [sp, #16]
/mnt/disk/raspbian-tee/optee_os/lib/libutee/tee_api_operations.c:274
    1e16:	62e8      	str	r0, [r5, #44]	; 0x2c
/mnt/disk/raspbian-tee/optee_os/lib/libutee/tee_api_operations.c:276
    1e18:	2800      	cmp	r0, #0
    1e1a:	d1b6      	bne.n	1d8a <TEE_AllocateOperation+0x410>
/mnt/disk/raspbian-tee/optee_os/lib/libutee/tee_api_operations.c:277
    1e1c:	4e26      	ldr	r6, [pc, #152]	; (1eb8 <TEE_AllocateOperation+0x53e>)
    1e1e:	e02f      	b.n	1e80 <TEE_AllocateOperation+0x506>
    1e20:	4618      	mov	r0, r3
    1e22:	e7f2      	b.n	1e0a <TEE_AllocateOperation+0x490>
/mnt/disk/raspbian-tee/optee_os/lib/libutee/tee_api_operations.c:286
    1e24:	f1ba 0f00 	cmp.w	sl, #0
    1e28:	f04f 4220 	mov.w	r2, #2684354560	; 0xa0000000
    1e2c:	f04f 4321 	mov.w	r3, #2701131776	; 0xa1000000
    1e30:	fa5f f884 	uxtb.w	r8, r4
    1e34:	bf08      	it	eq
    1e36:	4613      	moveq	r3, r2
    1e38:	ea43 0808 	orr.w	r8, r3, r8
/mnt/disk/raspbian-tee/optee_os/lib/libutee/tee_api_operations.c:293
    1e3c:	69eb      	ldr	r3, [r5, #28]
    1e3e:	031a      	lsls	r2, r3, #12
    1e40:	d501      	bpl.n	1e46 <TEE_AllocateOperation+0x4cc>
/mnt/disk/raspbian-tee/optee_os/lib/libutee/tee_api_operations.c:294
    1e42:	ea4f 0959 	mov.w	r9, r9, lsr #1
/mnt/disk/raspbian-tee/optee_os/lib/libutee/tee_api_operations.c:296
    1e46:	f105 0220 	add.w	r2, r5, #32
    1e4a:	4649      	mov	r1, r9
    1e4c:	4640      	mov	r0, r8
    1e4e:	f7ff f9f7 	bl	1240 <TEE_AllocateTransientObject>
/mnt/disk/raspbian-tee/optee_os/lib/libutee/tee_api_operations.c:297
    1e52:	4606      	mov	r6, r0
    1e54:	b958      	cbnz	r0, 1e6e <TEE_AllocateOperation+0x4f4>
/mnt/disk/raspbian-tee/optee_os/lib/libutee/tee_api_operations.c:300
    1e56:	69eb      	ldr	r3, [r5, #28]
    1e58:	031b      	lsls	r3, r3, #12
    1e5a:	d59c      	bpl.n	1d96 <TEE_AllocateOperation+0x41c>
/mnt/disk/raspbian-tee/optee_os/lib/libutee/tee_api_operations.c:301
    1e5c:	f105 0224 	add.w	r2, r5, #36	; 0x24
    1e60:	4649      	mov	r1, r9
    1e62:	4640      	mov	r0, r8
    1e64:	f7ff f9ec 	bl	1240 <TEE_AllocateTransientObject>
/mnt/disk/raspbian-tee/optee_os/lib/libutee/tee_api_operations.c:303
    1e68:	4606      	mov	r6, r0
    1e6a:	2800      	cmp	r0, #0
    1e6c:	d093      	beq.n	1d96 <TEE_AllocateOperation+0x41c>
/mnt/disk/raspbian-tee/optee_os/lib/libutee/tee_api_operations.c:332
    1e6e:	4b12      	ldr	r3, [pc, #72]	; (1eb8 <TEE_AllocateOperation+0x53e>)
    1e70:	429e      	cmp	r6, r3
    1e72:	d005      	beq.n	1e80 <TEE_AllocateOperation+0x506>
/mnt/disk/raspbian-tee/optee_os/lib/libutee/tee_api_operations.c:332 (discriminator 1)
    1e74:	4b11      	ldr	r3, [pc, #68]	; (1ebc <TEE_AllocateOperation+0x542>)
    1e76:	429e      	cmp	r6, r3
    1e78:	d002      	beq.n	1e80 <TEE_AllocateOperation+0x506>
/mnt/disk/raspbian-tee/optee_os/lib/libutee/tee_api_operations.c:334
    1e7a:	4630      	mov	r0, r6
    1e7c:	f005 fe8a 	bl	7b94 <TEE_Panic>
/mnt/disk/raspbian-tee/optee_os/lib/libutee/tee_api_operations.c:336
    1e80:	6beb      	ldr	r3, [r5, #60]	; 0x3c
    1e82:	b11b      	cbz	r3, 1e8c <TEE_AllocateOperation+0x512>
/mnt/disk/raspbian-tee/optee_os/lib/libutee/tee_api_operations.c:337
    1e84:	4628      	mov	r0, r5
    1e86:	f7ff fd65 	bl	1954 <TEE_FreeOperation>
    1e8a:	e7a2      	b.n	1dd2 <TEE_AllocateOperation+0x458>
/mnt/disk/raspbian-tee/optee_os/lib/libutee/tee_api_operations.c:339
    1e8c:	6ae8      	ldr	r0, [r5, #44]	; 0x2c
    1e8e:	f7ff f8df 	bl	1050 <TEE_Free>
/mnt/disk/raspbian-tee/optee_os/lib/libutee/tee_api_operations.c:340
    1e92:	6a28      	ldr	r0, [r5, #32]
    1e94:	f7ff f9ec 	bl	1270 <TEE_FreeTransientObject>
/mnt/disk/raspbian-tee/optee_os/lib/libutee/tee_api_operations.c:341
    1e98:	6a68      	ldr	r0, [r5, #36]	; 0x24
    1e9a:	f7ff f9e9 	bl	1270 <TEE_FreeTransientObject>
/mnt/disk/raspbian-tee/optee_os/lib/libutee/tee_api_operations.c:342
    1e9e:	4628      	mov	r0, r5
    1ea0:	f7ff f8d6 	bl	1050 <TEE_Free>
    1ea4:	e795      	b.n	1dd2 <TEE_AllocateOperation+0x458>
/mnt/disk/raspbian-tee/optee_os/lib/libutee/tee_api_operations.c:255
    1ea6:	4e04      	ldr	r6, [pc, #16]	; (1eb8 <TEE_AllocateOperation+0x53e>)
    1ea8:	e793      	b.n	1dd2 <TEE_AllocateOperation+0x458>
    1eaa:	4606      	mov	r6, r0
    1eac:	e7df      	b.n	1e6e <TEE_AllocateOperation+0x4f4>
    1eae:	bf00      	nop
    1eb0:	800060c0 	.word	0x800060c0
    1eb4:	f0000830 	.word	0xf0000830
    1eb8:	ffff000c 	.word	0xffff000c
    1ebc:	ffff000a 	.word	0xffff000a

00001ec0 <TEE_GetOperationInfo>:
TEE_GetOperationInfo():
/mnt/disk/raspbian-tee/optee_os/lib/libutee/tee_api_operations.c:372
    1ec0:	b538      	push	{r3, r4, r5, lr}
    1ec2:	460c      	mov	r4, r1
/mnt/disk/raspbian-tee/optee_os/lib/libutee/tee_api_operations.c:373
    1ec4:	4605      	mov	r5, r0
    1ec6:	b908      	cbnz	r0, 1ecc <TEE_GetOperationInfo+0xc>
/mnt/disk/raspbian-tee/optee_os/lib/libutee/tee_api_operations.c:374
    1ec8:	f005 fe64 	bl	7b94 <TEE_Panic>
/mnt/disk/raspbian-tee/optee_os/lib/libutee/tee_api_operations.c:376
    1ecc:	b914      	cbnz	r4, 1ed4 <TEE_GetOperationInfo+0x14>
/mnt/disk/raspbian-tee/optee_os/lib/libutee/tee_api_operations.c:377
    1ece:	4620      	mov	r0, r4
    1ed0:	f005 fe60 	bl	7b94 <TEE_Panic>
/mnt/disk/raspbian-tee/optee_os/lib/libutee/tee_api_operations.c:379
    1ed4:	cd0f      	ldmia	r5!, {r0, r1, r2, r3}
    1ed6:	c40f      	stmia	r4!, {r0, r1, r2, r3}
    1ed8:	e895 000f 	ldmia.w	r5, {r0, r1, r2, r3}
    1edc:	e884 000f 	stmia.w	r4, {r0, r1, r2, r3}
    1ee0:	bd38      	pop	{r3, r4, r5, pc}

00001ee2 <TEE_GetOperationInfoMultiple>:
TEE_GetOperationInfoMultiple():
/mnt/disk/raspbian-tee/optee_os/lib/libutee/tee_api_operations.c:385
    1ee2:	b5f0      	push	{r4, r5, r6, r7, lr}
    1ee4:	460c      	mov	r4, r1
/mnt/disk/raspbian-tee/optee_os/lib/libutee/tee_api_operations.c:392
    1ee6:	4605      	mov	r5, r0
/mnt/disk/raspbian-tee/optee_os/lib/libutee/tee_api_operations.c:385
    1ee8:	b08f      	sub	sp, #60	; 0x3c
/mnt/disk/raspbian-tee/optee_os/lib/libutee/tee_api_operations.c:392
    1eea:	2800      	cmp	r0, #0
    1eec:	d04a      	beq.n	1f84 <TEE_GetOperationInfoMultiple+0xa2>
/mnt/disk/raspbian-tee/optee_os/lib/libutee/tee_api_operations.c:397
    1eee:	2900      	cmp	r1, #0
    1ef0:	d048      	beq.n	1f84 <TEE_GetOperationInfoMultiple+0xa2>
/mnt/disk/raspbian-tee/optee_os/lib/libutee/tee_api_operations.c:402
    1ef2:	2a00      	cmp	r2, #0
    1ef4:	d046      	beq.n	1f84 <TEE_GetOperationInfoMultiple+0xa2>
/mnt/disk/raspbian-tee/optee_os/lib/libutee/tee_api_operations.c:407
    1ef6:	6817      	ldr	r7, [r2, #0]
    1ef8:	3f20      	subs	r7, #32
    1efa:	08ff      	lsrs	r7, r7, #3
/mnt/disk/raspbian-tee/optee_os/lib/libutee/tee_api_operations.c:410
    1efc:	2f02      	cmp	r7, #2
    1efe:	d841      	bhi.n	1f84 <TEE_GetOperationInfoMultiple+0xa2>
/mnt/disk/raspbian-tee/optee_os/lib/libutee/tee_api_operations.c:416
    1f00:	69c3      	ldr	r3, [r0, #28]
    1f02:	031b      	lsls	r3, r3, #12
    1f04:	d420      	bmi.n	1f48 <TEE_GetOperationInfoMultiple+0x66>
/mnt/disk/raspbian-tee/optee_os/lib/libutee/tee_api_operations.c:424 (discriminator 1)
    1f06:	b33f      	cbz	r7, 1f58 <TEE_GetOperationInfoMultiple+0x76>
/mnt/disk/raspbian-tee/optee_os/lib/libutee/tee_api_operations.c:425
    1f08:	2300      	movs	r3, #0
/mnt/disk/raspbian-tee/optee_os/lib/libutee/tee_api_operations.c:424
    1f0a:	2f02      	cmp	r7, #2
/mnt/disk/raspbian-tee/optee_os/lib/libutee/tee_api_operations.c:425
    1f0c:	6223      	str	r3, [r4, #32]
/mnt/disk/raspbian-tee/optee_os/lib/libutee/tee_api_operations.c:426
    1f0e:	6263      	str	r3, [r4, #36]	; 0x24
/mnt/disk/raspbian-tee/optee_os/lib/libutee/tee_api_operations.c:424
    1f10:	d120      	bne.n	1f54 <TEE_GetOperationInfoMultiple+0x72>
/mnt/disk/raspbian-tee/optee_os/lib/libutee/tee_api_operations.c:425
    1f12:	62a3      	str	r3, [r4, #40]	; 0x28
/mnt/disk/raspbian-tee/optee_os/lib/libutee/tee_api_operations.c:430
    1f14:	a907      	add	r1, sp, #28
/mnt/disk/raspbian-tee/optee_os/lib/libutee/tee_api_operations.c:426
    1f16:	62e3      	str	r3, [r4, #44]	; 0x2c
/mnt/disk/raspbian-tee/optee_os/lib/libutee/tee_api_operations.c:430
    1f18:	6a68      	ldr	r0, [r5, #36]	; 0x24
    1f1a:	f7ff f8d7 	bl	10cc <TEE_GetObjectInfo1>
/mnt/disk/raspbian-tee/optee_os/lib/libutee/tee_api_operations.c:432
    1f1e:	4606      	mov	r6, r0
    1f20:	b970      	cbnz	r0, 1f40 <TEE_GetOperationInfoMultiple+0x5e>
/mnt/disk/raspbian-tee/optee_os/lib/libutee/tee_api_operations.c:435
    1f22:	9b08      	ldr	r3, [sp, #32]
    1f24:	62a3      	str	r3, [r4, #40]	; 0x28
/mnt/disk/raspbian-tee/optee_os/lib/libutee/tee_api_operations.c:437
    1f26:	69ab      	ldr	r3, [r5, #24]
    1f28:	62e3      	str	r3, [r4, #44]	; 0x2c
/mnt/disk/raspbian-tee/optee_os/lib/libutee/tee_api_operations.c:442
    1f2a:	4669      	mov	r1, sp
    1f2c:	6a28      	ldr	r0, [r5, #32]
    1f2e:	f7ff f8cd 	bl	10cc <TEE_GetObjectInfo1>
/mnt/disk/raspbian-tee/optee_os/lib/libutee/tee_api_operations.c:444
    1f32:	4606      	mov	r6, r0
    1f34:	b308      	cbz	r0, 1f7a <TEE_GetOperationInfoMultiple+0x98>
/mnt/disk/raspbian-tee/optee_os/lib/libutee/tee_api_operations.c:445
    1f36:	2f02      	cmp	r7, #2
    1f38:	d102      	bne.n	1f40 <TEE_GetOperationInfoMultiple+0x5e>
/mnt/disk/raspbian-tee/optee_os/lib/libutee/tee_api_operations.c:447
    1f3a:	2300      	movs	r3, #0
    1f3c:	62a3      	str	r3, [r4, #40]	; 0x28
/mnt/disk/raspbian-tee/optee_os/lib/libutee/tee_api_operations.c:449
    1f3e:	62e3      	str	r3, [r4, #44]	; 0x2c
/mnt/disk/raspbian-tee/optee_os/lib/libutee/tee_api_operations.c:471
    1f40:	4b13      	ldr	r3, [pc, #76]	; (1f90 <TEE_GetOperationInfoMultiple+0xae>)
    1f42:	429e      	cmp	r6, r3
    1f44:	d002      	beq.n	1f4c <TEE_GetOperationInfoMultiple+0x6a>
    1f46:	e01e      	b.n	1f86 <TEE_GetOperationInfoMultiple+0xa4>
/mnt/disk/raspbian-tee/optee_os/lib/libutee/tee_api_operations.c:417
    1f48:	2f02      	cmp	r7, #2
    1f4a:	d0dd      	beq.n	1f08 <TEE_GetOperationInfoMultiple+0x26>
/mnt/disk/raspbian-tee/optee_os/lib/libutee/tee_api_operations.c:468
    1f4c:	4e10      	ldr	r6, [pc, #64]	; (1f90 <TEE_GetOperationInfoMultiple+0xae>)
/mnt/disk/raspbian-tee/optee_os/lib/libutee/tee_api_operations.c:476
    1f4e:	4630      	mov	r0, r6
    1f50:	b00f      	add	sp, #60	; 0x3c
    1f52:	bdf0      	pop	{r4, r5, r6, r7, pc}
/mnt/disk/raspbian-tee/optee_os/lib/libutee/tee_api_operations.c:441
    1f54:	2f00      	cmp	r7, #0
    1f56:	d1e8      	bne.n	1f2a <TEE_GetOperationInfoMultiple+0x48>
/mnt/disk/raspbian-tee/optee_os/lib/libutee/tee_api_operations.c:461
    1f58:	682b      	ldr	r3, [r5, #0]
/mnt/disk/raspbian-tee/optee_os/lib/libutee/tee_api_operations.c:468
    1f5a:	2600      	movs	r6, #0
/mnt/disk/raspbian-tee/optee_os/lib/libutee/tee_api_operations.c:461
    1f5c:	6023      	str	r3, [r4, #0]
/mnt/disk/raspbian-tee/optee_os/lib/libutee/tee_api_operations.c:462
    1f5e:	686b      	ldr	r3, [r5, #4]
    1f60:	6063      	str	r3, [r4, #4]
/mnt/disk/raspbian-tee/optee_os/lib/libutee/tee_api_operations.c:463
    1f62:	68ab      	ldr	r3, [r5, #8]
    1f64:	60a3      	str	r3, [r4, #8]
/mnt/disk/raspbian-tee/optee_os/lib/libutee/tee_api_operations.c:464
    1f66:	68eb      	ldr	r3, [r5, #12]
    1f68:	60e3      	str	r3, [r4, #12]
/mnt/disk/raspbian-tee/optee_os/lib/libutee/tee_api_operations.c:465
    1f6a:	692b      	ldr	r3, [r5, #16]
    1f6c:	6123      	str	r3, [r4, #16]
/mnt/disk/raspbian-tee/optee_os/lib/libutee/tee_api_operations.c:466
    1f6e:	69eb      	ldr	r3, [r5, #28]
    1f70:	6163      	str	r3, [r4, #20]
/mnt/disk/raspbian-tee/optee_os/lib/libutee/tee_api_operations.c:467
    1f72:	6aab      	ldr	r3, [r5, #40]	; 0x28
    1f74:	61a3      	str	r3, [r4, #24]
/mnt/disk/raspbian-tee/optee_os/lib/libutee/tee_api_operations.c:468
    1f76:	61e7      	str	r7, [r4, #28]
    1f78:	e7e9      	b.n	1f4e <TEE_GetOperationInfoMultiple+0x6c>
/mnt/disk/raspbian-tee/optee_os/lib/libutee/tee_api_operations.c:454
    1f7a:	9b01      	ldr	r3, [sp, #4]
    1f7c:	6223      	str	r3, [r4, #32]
/mnt/disk/raspbian-tee/optee_os/lib/libutee/tee_api_operations.c:456
    1f7e:	69ab      	ldr	r3, [r5, #24]
    1f80:	6263      	str	r3, [r4, #36]	; 0x24
    1f82:	e7e9      	b.n	1f58 <TEE_GetOperationInfoMultiple+0x76>
    1f84:	4e03      	ldr	r6, [pc, #12]	; (1f94 <TEE_GetOperationInfoMultiple+0xb2>)
/mnt/disk/raspbian-tee/optee_os/lib/libutee/tee_api_operations.c:473
    1f86:	4630      	mov	r0, r6
    1f88:	f005 fe04 	bl	7b94 <TEE_Panic>
/mnt/disk/raspbian-tee/optee_os/lib/libutee/tee_api_operations.c:475
    1f8c:	e7df      	b.n	1f4e <TEE_GetOperationInfoMultiple+0x6c>
    1f8e:	bf00      	nop
    1f90:	ffff0010 	.word	0xffff0010
    1f94:	ffff0006 	.word	0xffff0006

00001f98 <TEE_ResetOperation>:
TEE_ResetOperation():
/mnt/disk/raspbian-tee/optee_os/lib/libutee/tee_api_operations.c:479
    1f98:	b510      	push	{r4, lr}
/mnt/disk/raspbian-tee/optee_os/lib/libutee/tee_api_operations.c:482
    1f9a:	4604      	mov	r4, r0
    1f9c:	b908      	cbnz	r0, 1fa2 <TEE_ResetOperation+0xa>
/mnt/disk/raspbian-tee/optee_os/lib/libutee/tee_api_operations.c:483
    1f9e:	f005 fdf9 	bl	7b94 <TEE_Panic>
/mnt/disk/raspbian-tee/optee_os/lib/libutee/tee_api_operations.c:485
    1fa2:	69e0      	ldr	r0, [r4, #28]
    1fa4:	f410 2080 	ands.w	r0, r0, #262144	; 0x40000
    1fa8:	d101      	bne.n	1fae <TEE_ResetOperation+0x16>
/mnt/disk/raspbian-tee/optee_os/lib/libutee/tee_api_operations.c:486
    1faa:	f005 fdf3 	bl	7b94 <TEE_Panic>
/mnt/disk/raspbian-tee/optee_os/lib/libutee/tee_api_operations.c:490
    1fae:	6863      	ldr	r3, [r4, #4]
