
484d4143-2d53-4841-3120-4a6f636b6542.elf:     file format elf32-littlearm
484d4143-2d53-4841-3120-4a6f636b6542.elf
architecture: armv8-a, flags 0x00000150:
HAS_SYMS, DYNAMIC, D_PAGED
start address 0x00000020

Program Header:
0x70000001 off    0x00018e78 vaddr 0x00008e78 paddr 0x00008e78 align 2**2
         filesz 0x00000650 memsz 0x00000650 flags r--
    LOAD off    0x00010000 vaddr 0x00000000 paddr 0x00000000 align 2**16
         filesz 0x00007cb8 memsz 0x00007cb8 flags r-x
    LOAD off    0x00017cb8 vaddr 0x00007cb8 paddr 0x00007cb8 align 2**16
         filesz 0x00001a24 memsz 0x00001a24 flags r--
    LOAD off    0x0001a000 vaddr 0x0000a000 paddr 0x0000a000 align 2**16
         filesz 0x00000084 memsz 0x0000a0f8 flags rw-
 DYNAMIC off    0x00019608 vaddr 0x00009608 paddr 0x00009608 align 2**2
         filesz 0x00000088 memsz 0x00000088 flags rw-

Dynamic Section:
  HASH                 0x000096c4
  GNU_HASH             0x00008e30
  STRTAB               0x000096c0
  SYMTAB               0x00009690
  STRSZ                0x00000001
  SYMENT               0x00000010
  DEBUG                0x00000000
  REL                  0x00009508
  RELSZ                0x00000100
  RELENT               0x00000008
  FLAGS_1              0x08000000
  RELCOUNT             0x00000013
private flags = 0x5000400: [Version5 EABI] [hard-float ABI]

Sections:
Idx Name          Size      VMA       LMA       File off  Algn
  0 .ta_head      00000020  00000000  00000000  00010000  2**3
                  CONTENTS, ALLOC, LOAD, DATA
  1 .text         00007c98  00000020  00000020  00010020  2**3
                  CONTENTS, ALLOC, LOAD, READONLY, CODE
  2 .rodata       0000107c  00007cb8  00007cb8  00017cb8  2**2
                  CONTENTS, ALLOC, LOAD, READONLY, DATA
  3 .ARM.extab    000000fc  00008d34  00008d34  00018d34  2**2
                  CONTENTS, ALLOC, LOAD, READONLY, DATA
  4 .gnu.hash     00000018  00008e30  00008e30  00018e30  2**2
                  CONTENTS, ALLOC, LOAD, READONLY, DATA
  5 .ARM.extab.text.__aeabi_ldivmod 0000000c  00008e48  00008e48  00018e48  2**2
                  CONTENTS, ALLOC, LOAD, READONLY, DATA
  6 .ARM.extab.text.__aeabi_uldivmod 0000000c  00008e54  00008e54  00018e54  2**2
                  CONTENTS, ALLOC, LOAD, READONLY, DATA
  7 .ARM.extab.text.utee_panic 0000000c  00008e60  00008e60  00018e60  2**2
                  CONTENTS, ALLOC, LOAD, READONLY, DATA
  8 .ARM.extab.text.unlikely 0000000c  00008e6c  00008e6c  00018e6c  2**2
                  CONTENTS, ALLOC, LOAD, READONLY, DATA
  9 .ARM.exidx    00000650  00008e78  00008e78  00018e78  2**2
                  CONTENTS, ALLOC, LOAD, READONLY, DATA
 10 .got          00000040  000094c8  000094c8  000194c8  2**2
                  CONTENTS, ALLOC, LOAD, DATA
 11 .dynsym       00000030  00009690  00009690  00019690  2**2
                  CONTENTS, ALLOC, LOAD, READONLY, DATA
 12 .rel.got      00000068  000095a0  000095a0  000195a0  2**2
                  CONTENTS, ALLOC, LOAD, READONLY, DATA
 13 .dynamic      00000088  00009608  00009608  00019608  2**2
                  CONTENTS, ALLOC, LOAD, DATA
 14 .dynstr       00000001  000096c0  000096c0  000196c0  2**0
                  CONTENTS, ALLOC, LOAD, READONLY, DATA
 15 .hash         00000018  000096c4  000096c4  000196c4  2**2
                  CONTENTS, ALLOC, LOAD, READONLY, DATA
 16 .data         00000084  0000a000  0000a000  0001a000  2**2
                  CONTENTS, ALLOC, LOAD, DATA
 17 .bss          0000a074  0000a084  0000a084  0001a084  2**2
                  ALLOC
 18 .debug_info   00011a7c  00000000  00000000  0001a084  2**0
                  CONTENTS, READONLY, DEBUGGING, OCTETS
 19 .debug_abbrev 00002e54  00000000  00000000  0002bb00  2**0
                  CONTENTS, READONLY, DEBUGGING, OCTETS
 20 .debug_loclists 0000058c  00000000  00000000  0002e954  2**0
                  CONTENTS, READONLY, DEBUGGING, OCTETS
 21 .debug_aranges 00000570  00000000  00000000  0002eee0  2**3
                  CONTENTS, READONLY, DEBUGGING, OCTETS
 22 .debug_rnglists 0000004a  00000000  00000000  0002f450  2**0
                  CONTENTS, READONLY, DEBUGGING, OCTETS
 23 .debug_macro  000126f1  00000000  00000000  0002f49a  2**0
                  CONTENTS, READONLY, DEBUGGING, OCTETS
 24 .debug_line   000058e2  00000000  00000000  00041b8b  2**0
                  CONTENTS, READONLY, DEBUGGING, OCTETS
 25 .debug_str    000123a8  00000000  00000000  0004746d  2**0
                  CONTENTS, READONLY, DEBUGGING, OCTETS
 26 .comment      0000004f  00000000  00000000  00059815  2**0
                  CONTENTS, READONLY
 27 .ARM.attributes 00000031  00000000  00000000  00059864  2**0
                  CONTENTS, READONLY
 28 .debug_frame  00001f84  00000000  00000000  00059898  2**2
                  CONTENTS, READONLY, DEBUGGING, OCTETS
 29 .rel.dyn      00000098  00009508  00009508  00019508  2**2
                  CONTENTS, ALLOC, LOAD, READONLY, DATA
 30 .debug_loc    00010a49  00000000  00000000  0005b81c  2**0
                  CONTENTS, READONLY, DEBUGGING, OCTETS
 31 .debug_ranges 000007c0  00000000  00000000  0006c268  2**3
                  CONTENTS, READONLY, DEBUGGING, OCTETS
SYMBOL TABLE:
00000000 l    d  .ta_head	00000000 .ta_head
00000020 l    d  .text	00000000 .text
00007cb8 l    d  .rodata	00000000 .rodata
00008d34 l    d  .ARM.extab	00000000 .ARM.extab
00008e30 l    d  .gnu.hash	00000000 .gnu.hash
00008e48 l    d  .ARM.extab.text.__aeabi_ldivmod	00000000 .ARM.extab.text.__aeabi_ldivmod
00008e54 l    d  .ARM.extab.text.__aeabi_uldivmod	00000000 .ARM.extab.text.__aeabi_uldivmod
00008e60 l    d  .ARM.extab.text.utee_panic	00000000 .ARM.extab.text.utee_panic
00008e6c l    d  .ARM.extab.text.unlikely	00000000 .ARM.extab.text.unlikely
00008e78 l    d  .ARM.exidx	00000000 .ARM.exidx
000094c8 l    d  .got	00000000 .got
000095a0 l    d  .rel.got	00000000 .rel.got
00009608 l    d  .dynamic	00000000 .dynamic
00009690 l    d  .dynsym	00000000 .dynsym
000096c0 l    d  .dynstr	00000000 .dynstr
000096c4 l    d  .hash	00000000 .hash
0000a000 l    d  .data	00000000 .data
0000a084 l    d  .bss	00000000 .bss
00000000 l    d  .debug_info	00000000 .debug_info
00000000 l    d  .debug_abbrev	00000000 .debug_abbrev
00000000 l    d  .debug_loclists	00000000 .debug_loclists
00000000 l    d  .debug_aranges	00000000 .debug_aranges
00000000 l    d  .debug_rnglists	00000000 .debug_rnglists
00000000 l    d  .debug_macro	00000000 .debug_macro
00000000 l    d  .debug_line	00000000 .debug_line
00000000 l    d  .debug_str	00000000 .debug_str
00000000 l    d  .comment	00000000 .comment
00000000 l    d  .ARM.attributes	00000000 .ARM.attributes
00000000 l    d  .debug_frame	00000000 .debug_frame
00009508 l    d  .rel.dyn	00000000 .rel.dyn
00000000 l    d  .debug_loc	00000000 .debug_loc
00000000 l    d  .debug_ranges	00000000 .debug_ranges
00000000 l    df *ABS*	00000000 user_ta_header.c
00007cbc l     O .rodata	00000004 __compound_literal.4
00007cc0 l     O .rodata	00000004 __compound_literal.3
00007cc4 l     O .rodata	00000001 __compound_literal.2
00007cc5 l     O .rodata	00000001 __compound_literal.1
00007cc6 l     O .rodata	00000001 __compound_literal.0
00000000 l    df *ABS*	00000000 hotp_ta.c
00007fdf l     O .rodata	00000014 __func__.2
00007ff3 l     O .rodata	00000009 __func__.1
00007ffc l     O .rodata	0000000a __func__.0
00000000 l    df *ABS*	00000000 trace.c
000002d4 l     F .text	0000004e append
000080cd l     O .rodata	00000005 lvl_strs.5561
000080d2 l     O .rodata	0000000a __func__.5615
00000000 l    df *ABS*	00000000 snprintk.c
00008116 l     O .rodata	00000011 HEXDIGITS
00008127 l     O .rodata	00000011 hexdigits
00000000 l    df *ABS*	00000000 arm32_aeabi_ldivmod_a32.o
00000000 l    df *ABS*	00000000 trace_ext.c
00000000 l    df *ABS*	00000000 tee_api.c
00008170 l     O .rodata	0000000b __func__.6728
0000a084 l     O .bss	00000004 tee_api_instance_data
00000000 l    df *ABS*	00000000 tee_api_objects.c
00000000 l    df *ABS*	00000000 tee_api_operations.c
00001828 l     F .text	00000160 tee_buffer_update
00000000 l    df *ABS*	00000000 user_ta_entry.c
00002df0 l     F .text	0000001c ta_header_get_session
00002e0c l     F .text	00000068 ta_header_remove_session
0000a088 l     O .bss	00000001 init_done
0000a060 l     O .data	00000008 ta_sessions
00000000 l    df *ABS*	00000000 utee_syscalls_a32.o
00000000 l    df *ABS*	00000000 gprof_a32.o
00000000 l    df *ABS*	00000000 tee_api_arith_mpi.c
000044d4 l     F .text	00000020 api_panic
000034c0 l     F .text	00000020 mpi_panic
000034e0 l     F .text	00000044 get_const_mpi
00003524 l     F .text	00000010 mpi_is_odd
00003534 l     F .text	00000016 rng_read
0000354a l     F .text	0000001c put_mpi
00003566 l     F .text	0000045a mpi_egcd
000039c0 l     F .text	00000024 get_mpi
000039e4 l     F .text	00000088 bigint_binary
0000a0b0 l     O .bss	00002000 data.6728
00003c72 l     F .text	000000ea bigint_binary_mod
0000818c l     O .rodata	0000000e __func__.6757
0000819a l     O .rodata	00000009 __func__.6996
000081a3 l     O .rodata	0000000e __func__.6856
000081b1 l     O .rodata	00000012 __func__.6729
000081c3 l     O .rodata	0000000f __func__.6767
000081d2 l     O .rodata	0000001f __func__.6785
000081f1 l     O .rodata	00000019 __func__.6792
0000820a l     O .rodata	00000012 __func__.6867
0000821c l     O .rodata	00000015 __func__.6822
00008231 l     O .rodata	0000000e __func__.6894
0000823f l     O .rodata	0000000e __func__.6922
0000824d l     O .rodata	0000000e __func__.6928
0000825b l     O .rodata	00000011 __func__.6957
0000826c l     O .rodata	00000018 __func__.6973
00008284 l     O .rodata	0000001d __func__.7053
000082a1 l     O .rodata	00000019 __func__.7103
000082ba l     O .rodata	00000015 __func__.7117
00000000 l    df *ABS*	00000000 bignum.c
000044f4 l     F .text	00000038 mpi_get_digit
0000452c l     F .text	0000005e mpi_sub_hlp
0000458a l     F .text	00000492 mpi_mul_hlp
00004a1c l     F .text	00000048 mbedtls_mpi_mod_int.part.1
00005abe l     F .text	0000006c mpi_write_hlp
00005c64 l     F .text	00000050 mpi_check_small_factors
00006350 l     F .text	00000216 mpi_miller_rabin
00007cd0 l     O .rodata	000002a0 small_prime
00007f70 l     O .rodata	00000024 gcd_pairs
00000000 l    df *ABS*	00000000 bget_malloc.c
00006cf4 l     F .text	00000030 raw_malloc_return_hook.isra.3
00006d24 l     F .text	000000d8 create_free_block.constprop.11
00006f30 l     F .text	00000038 raw_malloc.constprop.15
000087e3 l     O .rodata	00000012 __func__.5854
000087f5 l     O .rodata	00000005 __func__.5710
000087fa l     O .rodata	00000006 __func__.5725
00008800 l     O .rodata	00000005 __func__.5742
00008805 l     O .rodata	00000006 __func__.5734
0000880b l     O .rodata	00000006 __func__.5751
00008811 l     O .rodata	00000007 __func__.5761
00008818 l     O .rodata	0000000d __func__.5890
00008825 l     O .rodata	0000000c __func__.5864
00008831 l     O .rodata	0000000b __func__.5875
0000883c l     O .rodata	00000010 __func__.5942
0000884c l     O .rodata	0000000e __func__.5896
0000885a l     O .rodata	00000013 __func__.5802
0000c0b4 l     O .bss	00000038 mstats
0000c0ec l     O .bss	00000004 malloc_pool_len
0000c0f0 l     O .bss	00000004 malloc_pool
0000a068 l     O .data	0000001c malloc_poolset
00000000 l    df *ABS*	00000000 mempool.c
00008c75 l     O .rodata	00000013 __func__.5618
00008c88 l     O .rodata	0000000e __func__.5627
00000000 l    df *ABS*	00000000 assert.c
00000000 l    df *ABS*	00000000 stack_check.c
00000000 l    df *ABS*	00000000 memcpy.c
00000000 l    df *ABS*	00000000 memset.c
00000000 l    df *ABS*	00000000 aeabi_unwind.c
00000000 l    df *ABS*	00000000 memchr.c
00000000 l    df *ABS*	00000000 strlen.c
00000000 l    df *ABS*	00000000 arm32_aeabi_ldivmod.c
00000000 l    df *ABS*	00000000 tee_api_panic.c
00000000 l    df *ABS*	00000000 snprintf.c
00000000 l    df *ABS*	00000000 memcmp.c
00000000 l    df *ABS*	00000000 memmove.c
00000000 l    df *ABS*	00000000 buf_compare_ct.c
00000000 l    df *ABS*	00000000 
00009608 l     O *ABS*	00000000 _DYNAMIC
000094c8 l     O *ABS*	00000000 _GLOBAL_OFFSET_TABLE_
00007c78 l     F .text	00000010 __utee_check_access_rights_from_thumb
00007c88 l     F .text	00000010 __utee_log_from_thumb
00007c98 l     F .text	00000010 __utee_cache_operation_from_thumb
00007ca8 l     F .text	00000010 __utee_panic_from_thumb
00000d94 g     F .text	00000022 putchar
00001304 g     F .text	00000070 TEE_PopulateTransientObject
000043e6 g     F .text	00000004 TEE_BigIntConvertToFMM
00004128 g     F .text	00000008 TEE_BigIntSquareMod
00003d5c g     F .text	000000f4 TEE_BigIntShiftRight
00003398 g     F .text	00000018 utee_storage_obj_create
00004afc g     F .text	000000a8 mbedtls_mpi_grow
00007ade g     F .text	000000ec __l_divmod
00003018 g     F .text	00000014 utee_return
00002230 g     F .text	00000030 TEE_DigestUpdate
00001080 g     F .text	00000004 TEE_Realloc
00002098 g     F .text	000000f4 TEE_SetOperationKey2
00000d36 g     F .text	0000003a printf
0000302c g     F .text	00000014 utee_log
00001374 g     F .text	00000022 TEE_InitRefAttribute
00000e9e g     F .text	00000066 TEE_InvokeTACommand
00004a76 g     F .text	00000026 mbedtls_mpi_init_mempool
00004f70 g     F .text	00000046 mbedtls_mpi_write_binary
00002810 g     F .text	00000118 TEE_AEEncryptFinal
00000cc4 g     F .text	0000000e vsnprintk
000053fa g     F .text	00000030 mbedtls_mpi_sub_int
00007c18 g     F .text	00000034 memmove
00007bce g     F .text	0000001e snprintf
00003c4c g     F .text	00000026 TEE_BigIntCmpS32
0000a058 g     O .data	00000004 __stack_chk_guard
00001396 g     F .text	00000022 TEE_InitValueAttribute
00004ba4 g     F .text	000000cc mbedtls_mpi_shrink
00007a38 g     F .text	00000002 __aeabi_unwind_cpp_pr0
00003e9c g     F .text	0000001c TEE_BigIntAdd
0000306c g     F .text	00000014 utee_get_property_name_to_index
00007cc8 g     O .rodata	00000004 ta_heap_size
000012d4 g     F .text	00000030 TEE_ResetTransientObject
00003150 g     F .text	00000018 utee_cryp_state_alloc
00003320 g     F .text	00000018 utee_authenc_enc_final
00005524 g     F .text	0000012c mbedtls_mpi_read_string
000022d0 g     F .text	00000056 TEE_CipherInit
00003ed4 g     F .text	00000058 TEE_BigIntNeg
00000020 g       .text	00000000 __text_start
00001674 g     F .text	0000002c TEE_StartPersistentObjectEnumerator
0000504e g     F .text	00000078 mbedtls_mpi_shift_r
00007884 g     F .text	0000004c malloc_buffer_overlaps_heap
000040f0 g     F .text	0000001c TEE_BigIntSubMod
00006892 g     F .text	00000136 mbedtls_mpi_gen_prime
00004e1e g     F .text	00000020 mbedtls_mpi_get_bit
00004f0a g     F .text	00000066 mbedtls_mpi_read_binary
0000268c g     F .text	00000070 TEE_AEInit
00000354 g     F .text	0000013c trace_printf
00005cdc g     F .text	000000c4 mbedtls_mpi_montmul
00007a12 g     F .text	00000016 memcpy
0000317c g     F .text	00000014 utee_cryp_state_free
000043ea g     F .text	0000004a TEE_BigIntConvertFromFMM
00007bca g     F .text	00000004 TEE_Panic
00000d04 g     F .text	00000018 __aeabi_uldivmod
0000218c g     F .text	000000a4 TEE_CopyOperation
00000d70 g     F .text	00000024 puts
00004434 g     F .text	000000a0 TEE_BigIntComputeFMM
0000734c g     F .text	00000020 malloc_get_stats
000031fc g     F .text	00000018 utee_cipher_final
00001020 g     F .text	00000016 TEE_GetREETime
00001614 g     F .text	00000038 TEE_AllocatePersistentObjectEnumerator
0000a004 g     O .data	00000054 ta_props
00002a30 g     F .text	000000bc TEE_AsymmetricEncrypt
0000736c g     F .text	00000002 malloc
00003264 g     F .text	00000014 utee_cryp_obj_close
00001450 g     F .text	00000048 TEE_GenerateKey
00007bec g     F .text	0000000e vsnprintf
0000a000 g     O .data	00000004 trace_level
00003c18 g     F .text	00000034 TEE_BigIntCmp
00007cb8 g     O .rodata	00000004 ta_num_props
000071bc g     F .text	0000007c bgetr
00003308 g     F .text	00000018 utee_authenc_update_payload
000079a4 g     F .text	0000002e mempool_free
00002326 g     F .text	000000e6 TEE_CipherUpdate
00003b30 g     F .text	00000058 TEE_BigIntConvertToOctetString
00001f16 g     F .text	000000b6 TEE_GetOperationInfoMultiple
000034a0 g     F .text	00000014 utee_cache_operation
00004ebc g     F .text	00000042 mbedtls_mpi_bitlen
000032dc g     F .text	00000018 utee_authenc_init
00003e50 g     F .text	0000002a TEE_BigIntGetBit
00007ccc g     O .rodata	00000003 trace_ext_prefix
00006f68 g     F .text	0000005c bgetz
00000f70 g     F .text	0000000c TEE_GetInstanceData
00000f9e g     F .text	0000001e TEE_Wait
00003450 g     F .text	00000014 utee_storage_obj_write
0000542a g     F .text	000000dc mbedtls_mpi_mul_mpi
00007a3c g     F .text	00000002 __aeabi_unwind_cpp_pr2
0000108e g     F .text	00000006 TEE_CacheFlush
00000024 g     F .text	00000002 TA_DestroyEntryPoint
00004a64 g     F .text	00000012 mbedtls_mpi_init
00004e8e g     F .text	0000002e mbedtls_mpi_lsb
000079d4 g     F .text	00000028 _assert_log
000043e2 g     F .text	00000004 TEE_BigIntFMMContextSizeInU32
00002628 g     F .text	00000064 TEE_MACCompareFinal
000015ce g     F .text	00000046 TEE_RenamePersistentObject
00002260 g     F .text	00000070 TEE_DigestDoFinal
00003a6c g     F .text	00000044 _TEE_MathAPI_Init
00005336 g     F .text	00000048 mbedtls_mpi_add_mpi
00003428 g     F .text	00000014 utee_storage_next_enum
00007a10 g     F .text	00000002 __stack_chk_fail
0000c0f4 g     O .bss	00008000 ta_heap
00004130 g     F .text	000000a4 TEE_BigIntInvMod
00000050 g     F .text	00000004 TA_CloseSessionEntryPoint
00002aec g     F .text	000000c0 TEE_AsymmetricDecrypt
00001498 g     F .text	00000064 TEE_OpenPersistentObject
0000537e g     F .text	0000004c mbedtls_mpi_sub_mpi
00003040 g     F .text	00000014 __utee_panic
00003168 g     F .text	00000014 utee_cryp_state_copy
00000054 g     F .text	00000280 TA_InvokeCommandEntryPoint
00007914 g     F .text	0000006c mempool_alloc
00003250 g     F .text	00000014 utee_cryp_obj_alloc
0000313c g     F .text	00000014 utee_set_ta_time
0000323c g     F .text	00000014 utee_cryp_obj_get_attr
00007980 g     F .text	00000024 mempool_calloc
00001420 g     F .text	00000030 TEE_CopyObjectAttributes
00007380 g     F .text	00000048 calloc
00001036 g     F .text	0000004a TEE_Malloc
00003100 g     F .text	00000014 utee_mask_cancellation
00003278 g     F .text	00000014 utee_cryp_obj_reset
00000f58 g     F .text	0000000a TEE_CheckMemoryAccessRights
000140f8 g       .bss	00000000 __gprof_buf_end
00007a6a g     F .text	00000074 __ul_divmod
00004de6 g     F .text	00000038 mbedtls_mpi_lset
000016f4 g     F .text	00000040 TEE_ReadObjectData
0000116c g     F .text	00000070 TEE_GetObjectBufferAttribute
00000026 g     F .text	0000002a TA_OpenSessionEntryPoint
00003414 g     F .text	00000014 utee_storage_start_enum
00001988 g     F .text	00000026 TEE_FreeOperation
000033c4 g     F .text	00000014 utee_storage_obj_rename
0000a08c g     O .bss	00000004 ta_param_types
000059f2 g     F .text	0000002e mbedtls_mpi_div_int
0000109c g     F .text	0000003a __utee_from_attr
000043a4 g     F .text	00000030 TEE_BigIntIsProbablePrime
00005506 g     F .text	0000001e mbedtls_mpi_mul_int
00001594 g     F .text	00000024 TEE_CloseAndDeletePersistentObject1
00005dc4 g     F .text	00000446 mbedtls_mpi_exp_mod
00004cf4 g     F .text	0000006c mbedtls_mpi_safe_cond_assign
00003054 g     F .text	00000018 utee_get_property
00002928 g     F .text	00000108 TEE_AEDecryptFinal
00003ab0 g     F .text	00000040 TEE_BigIntInit
00000f7c g     F .text	00000004 TEE_MemMove
00003af0 g     F .text	00000040 TEE_BigIntConvertFromOctetString
0000a05c g     O .data	00000004 _ref__utee_mcount
000050c6 g     F .text	0000006e mbedtls_mpi_cmp_abs
0000251c g     F .text	00000056 TEE_MACInit
00002bac g     F .text	000000b4 TEE_AsymmetricSignDigest
00007a3e g     F .text	0000001c memchr
00000f20 g     F .text	0000001c TEE_UnmaskCancellation
000010d6 g     F .text	0000002a TEE_GetObjectInfo
000069c8 g     F .text	0000032c mbedtls_mpi_self_test
000033b0 g     F .text	00000014 utee_storage_obj_del
00002742 g     F .text	000000ce TEE_AEUpdate
00003478 g     F .text	00000014 utee_storage_obj_seek
000012a4 g     F .text	00000030 TEE_FreeTransientObject
000051ca g     F .text	00000030 mbedtls_mpi_cmp_int
000031a4 g     F .text	00000014 utee_hash_update
00002dd8 g     F .text	00000018 rand
000034b4  w    F .text	0000000c __utee_mcount
00001ef4 g     F .text	00000022 TEE_GetOperationInfo
00004084 g     F .text	00000050 TEE_BigIntMod
00005a84 g     F .text	0000003a mbedtls_mpi_mod_int
00003098 g     F .text	00000014 utee_close_ta_session
00003fd6 g     F .text	000000ae TEE_BigIntDiv
00004c70 g     F .text	00000056 mbedtls_mpi_copy
00007338 g     F .text	00000014 malloc_reset_stats
000031e4 g     F .text	00000018 utee_cipher_update
00001120 g     F .text	00000020 TEE_RestrictObjectUsage1
000073c8 g     F .text	00000038 realloc
00004cc6 g     F .text	0000002e mbedtls_mpi_swap
000078d0 g     F .text	00000044 mempool_alloc_pool
00003368 g     F .text	00000018 utee_asymm_verify
00003f2c g     F .text	000000a4 TEE_BigIntMul
00001fcc g     F .text	00000040 TEE_ResetOperation
00004fb6 g     F .text	00000098 mbedtls_mpi_shift_l
00005134 g     F .text	00000096 mbedtls_mpi_cmp_mpi
00000f84 g     F .text	00000004 TEE_MemFill
00007bfa g     F .text	0000001e memcmp
000076b0 g     F .text	000000f8 malloc_add_pool
00002572 g     F .text	0000004e TEE_MACUpdate
00000340 g     F .text	00000014 trace_get_level
000051fa g     F .text	000000bc mbedtls_mpi_add_abs
000032c8 g     F .text	00000014 utee_cryp_random_number_generate
00001140 g     F .text	0000002c TEE_RestrictObjectUsage
000043da g     F .text	00000008 TEE_BigIntFMMSizeInU32
000043d4 g     F .text	00000004 TEE_BigIntInitFMM
00003350 g     F .text	00000018 utee_asymm_operate
00001260 g     F .text	00000014 TEE_CloseObject
00002e74 g     F .text	00000190 __utee_entry
00007cb8 g       .text	00000000 __text_end
000041d4 g     F .text	0000007c TEE_BigIntRelativePrime
00005a20 g     F .text	00000064 mbedtls_mpi_mod_mpi
00007238 g     F .text	0000009c bpool
00000f04 g     F .text	0000001c TEE_GetCancellationFlag
0000620a g     F .text	00000114 mbedtls_mpi_gcd
00000ff8 g     F .text	00000028 TEE_SetTAPersistentTime
00007a28 g     F .text	00000010 memset
00000fbc g     F .text	0000003c TEE_GetTAPersistentTime
00000490 g     F .text	00000100 dhex_dump
000014fc g     F .text	00000098 TEE_CreatePersistentObject
00000f3c g     F .text	0000001c TEE_MaskCancellation
000026fc g     F .text	00000046 TEE_AEUpdateAAD
0000343c g     F .text	00000014 utee_storage_obj_read
00001774 g     F .text	00000038 TEE_TruncateObjectData
0000328c g     F .text	00000014 utee_cryp_obj_populate
00001100 g     F .text	00000020 TEE_GetObjectInfo1
00000322 g     F .text	0000001e trace_set_level
00003214 g     F .text	00000014 utee_cryp_obj_get_info
000011dc g     F .text	00000084 TEE_GetObjectValueAttribute
0000200c g     F .text	0000008c TEE_SetOperationKey
000033d8 g     F .text	00000014 utee_storage_alloc_enum
00003400 g     F .text	00000014 utee_storage_reset_enum
00003464 g     F .text	00000014 utee_storage_obj_trunc
00003bc0 g     F .text	00000058 TEE_BigIntConvertToS32
00003eb8 g     F .text	0000001c TEE_BigIntSub
000030c4 g     F .text	00000014 utee_get_cancellation_flag
00003190 g     F .text	00000014 utee_hash_init
00007a0c g     F .text	00000004 tahead_get_trace_level
00000db8 g     F .text	00000050 __utee_from_param
000017ac g     F .text	0000007c TEE_SeekObjectData
00000e08 g     F .text	0000003e __utee_to_param
00005da0 g     F .text	00000024 mbedtls_mpi_montred
00007400 g     F .text	000002b0 memalign
0000240c g     F .text	00000110 TEE_CipherDoFinal
00003b88 g     F .text	00000038 TEE_BigIntConvertFromS32
000053ca g     F .text	00000030 mbedtls_mpi_add_int
00003228 g     F .text	00000014 utee_cryp_obj_restrict_usage
000077a8 g     F .text	000000dc malloc_buffer_is_within_alloced
000032a0 g     F .text	00000014 utee_cryp_obj_copy
000043d8 g     F .text	00000002 TEE_BigIntInitFMMContext
000032b4 g     F .text	00000014 utee_cryp_derive_key
00003338 g     F .text	00000018 utee_authenc_dec_final
00001734 g     F .text	00000040 TEE_WriteObjectData
00001660 g     F .text	00000014 TEE_ResetPersistentObjectEnumerator
00003fd0 g     F .text	00000006 TEE_BigIntSquare
00000020 g     F .text	00000004 TA_CreateEntryPoint
00005cb4 g     F .text	00000028 mbedtls_mpi_montg_init
00000cd2 g     F .text	0000001a snprintk
00003e7a g     F .text	00000022 TEE_BigIntGetBitCount
0000410c g     F .text	0000001c TEE_BigIntMulMod
00006566 g     F .text	000002d0 mbedtls_mpi_inv_mod
00002d0c g     F .text	000000ba TEE_DeriveKey
0000a090 g     O .bss	00000020 ta_params
00005650 g     F .text	000003a2 mbedtls_mpi_div_mpi
00004efe g     F .text	0000000c mbedtls_mpi_size
00006dfc g     F .text	00000134 bget
00001274 g     F .text	00000030 TEE_AllocateTransientObject
00004e3e g     F .text	00000050 mbedtls_mpi_set_bit
00004a9c g     F .text	00000012 mbedtls_mpi_init_static
00001084 g     F .text	00000004 TEE_Free
00006836 g     F .text	0000005c mbedtls_mpi_is_prime
00001094 g     F .text	00000006 TEE_CacheInvalidate
000031d0 g     F .text	00000014 utee_cipher_init
000079fc g     F .text	00000010 _assert_break
000040d4 g     F .text	0000001c TEE_BigIntAddMod
000033ec g     F .text	00000014 utee_storage_free_enum
000032f4 g     F .text	00000014 utee_authenc_update_aad
000019ae g     F .text	00000546 TEE_AllocateOperation
00002dc6 g     F .text	00000012 TEE_GenerateRandom
00000f80 g     F .text	00000004 TEE_MemCompare
00000590 g     F .text	00000734 __vsnprintf
0000164c g     F .text	00000014 TEE_FreePersistentObjectEnumerator
00003004 g     F .text	00000014 utee_panic
00000e46 g     F .text	00000044 TEE_OpenTASession
00000d1c g     F .text	00000014 trace_ext_puts
00000d30 g     F .text	00000006 trace_ext_get_thread_id
000015b8 g     F .text	00000016 TEE_CloseAndDeletePersistentObject
00004aae g     F .text	0000004e mbedtls_mpi_free
00001088 g     F .text	00000006 TEE_CacheClean
00003080 g     F .text	00000018 utee_open_ta_session
00007c4c g     F .text	0000002c buf_compare_ct
00004d60 g     F .text	00000086 mbedtls_mpi_safe_cond_swap
000013b8 g     F .text	00000068 TEE_CopyObjectAttributes1
000031b8 g     F .text	00000018 utee_hash_final
00007a5a g     F .text	00000010 strlen
00004250 g     F .text	00000154 TEE_BigIntComputeExtendedGcd
00007a3a g     F .text	00000002 __aeabi_unwind_cpp_pr1
00003380 g     F .text	00000018 utee_storage_obj_open
000030ac g     F .text	00000018 utee_invoke_ta_command
00003114 g     F .text	00000014 utee_wait
00000f88 g     F .text	00000016 TEE_GetSystemTime
00000000 g     O .ta_head	00000020 ta_head
00006fc4 g     F .text	000001f8 brel
000052b6 g     F .text	00000080 mbedtls_mpi_sub_abs
00003128 g     F .text	00000014 utee_get_time
0000631e g     F .text	00000032 mbedtls_mpi_fill_random
00000f62 g     F .text	0000000e TEE_SetInstanceData
000030ec g     F .text	00000014 utee_unmask_cancellation
00000cec g     F .text	00000018 __aeabi_ldivmod
000030d8 g     F .text	00000014 utee_check_access_rights
00005b2a g     F .text	0000013a mbedtls_mpi_write_string
000016a0 g     F .text	00000054 TEE_GetNextPersistentObject
0000348c g     F .text	00000014 utee_cryp_obj_generate_key
00000e8a g     F .text	00000014 TEE_CloseTASession
00002c60 g     F .text	000000ac TEE_AsymmetricVerifyDigest
000140f8 g       .bss	00000000 __gprof_buf_start
0000736e g     F .text	00000012 free
000072d4 g     F .text	00000064 bstats
000025c0 g     F .text	00000068 TEE_MACComputeFinal
0000c0b0 g     O .bss	00000004 mbedtls_mpi_mempool



Disassembly of section .text:

00000020 <TA_CreateEntryPoint>:
TA_CreateEntryPoint():
/workspace/benchmark/hotp/ta/hotp_ta.c:202
      20:	2000      	movs	r0, #0
      22:	4770      	bx	lr

00000024 <TA_DestroyEntryPoint>:
TA_DestroyEntryPoint():
/workspace/benchmark/hotp/ta/hotp_ta.c:206
      24:	4770      	bx	lr

00000026 <TA_OpenSessionEntryPoint>:
TA_OpenSessionEntryPoint():
/workspace/benchmark/hotp/ta/hotp_ta.c:211
      26:	b538      	push	{r3, r4, r5, lr}
      28:	4615      	mov	r5, r2
/workspace/benchmark/hotp/ta/hotp_ta.c:218
      2a:	4604      	mov	r4, r0
      2c:	b938      	cbnz	r0, 3e <TA_OpenSessionEntryPoint+0x18>
/workspace/benchmark/hotp/ta/hotp_ta.c:224
      2e:	4601      	mov	r1, r0
      30:	204c      	movs	r0, #76	; 0x4c
      32:	f001 f800 	bl	1036 <TEE_Malloc>
/workspace/benchmark/hotp/ta/hotp_ta.c:225
      36:	b120      	cbz	r0, 42 <TA_OpenSessionEntryPoint+0x1c>
/workspace/benchmark/hotp/ta/hotp_ta.c:228
      38:	6028      	str	r0, [r5, #0]
/workspace/benchmark/hotp/ta/hotp_ta.c:231
      3a:	4620      	mov	r0, r4
      3c:	bd38      	pop	{r3, r4, r5, pc}
/workspace/benchmark/hotp/ta/hotp_ta.c:219
      3e:	4c02      	ldr	r4, [pc, #8]	; (48 <TA_OpenSessionEntryPoint+0x22>)
      40:	e7fb      	b.n	3a <TA_OpenSessionEntryPoint+0x14>
/workspace/benchmark/hotp/ta/hotp_ta.c:226
      42:	4c02      	ldr	r4, [pc, #8]	; (4c <TA_OpenSessionEntryPoint+0x26>)
      44:	e7f9      	b.n	3a <TA_OpenSessionEntryPoint+0x14>
      46:	bf00      	nop
      48:	ffff0006 	.word	0xffff0006
      4c:	ffff000c 	.word	0xffff000c

00000050 <TA_CloseSessionEntryPoint>:
TA_CloseSessionEntryPoint():
/workspace/benchmark/hotp/ta/hotp_ta.c:235
      50:	f001 b818 	b.w	1084 <TEE_Free>

00000054 <TA_InvokeCommandEntryPoint>:
TA_InvokeCommandEntryPoint():
/workspace/benchmark/hotp/ta/hotp_ta.c:242
      54:	e92d 47f0 	stmdb	sp!, {r4, r5, r6, r7, r8, r9, sl, lr}
      58:	461e      	mov	r6, r3
      5a:	4c8b      	ldr	r4, [pc, #556]	; (288 <TA_InvokeCommandEntryPoint+0x234>)
      5c:	4b8b      	ldr	r3, [pc, #556]	; (28c <TA_InvokeCommandEntryPoint+0x238>)
      5e:	b090      	sub	sp, #64	; 0x40
      60:	447c      	add	r4, pc
      62:	4605      	mov	r5, r0
      64:	58e3      	ldr	r3, [r4, r3]
/workspace/benchmark/hotp/ta/hotp_ta.c:243
      66:	460c      	mov	r4, r1
/workspace/benchmark/hotp/ta/hotp_ta.c:242
      68:	681b      	ldr	r3, [r3, #0]
      6a:	930f      	str	r3, [sp, #60]	; 0x3c
      6c:	f04f 0300 	mov.w	r3, #0
/workspace/benchmark/hotp/ta/hotp_ta.c:243
      70:	b119      	cbz	r1, 7a <TA_InvokeCommandEntryPoint+0x26>
      72:	2901      	cmp	r1, #1
      74:	d037      	beq.n	e6 <TA_InvokeCommandEntryPoint+0x92>
register_shared_key():
/workspace/benchmark/hotp/ta/hotp_ta.c:150
      76:	4c80      	ldr	r4, [pc, #512]	; (278 <TA_InvokeCommandEntryPoint+0x224>)
      78:	e028      	b.n	cc <TA_InvokeCommandEntryPoint+0x78>
/workspace/benchmark/hotp/ta/hotp_ta.c:144
      7a:	2a05      	cmp	r2, #5
      7c:	d00d      	beq.n	9a <TA_InvokeCommandEntryPoint+0x46>
/workspace/benchmark/hotp/ta/hotp_ta.c:145
      7e:	2305      	movs	r3, #5
      80:	9301      	str	r3, [sp, #4]
      82:	4b83      	ldr	r3, [pc, #524]	; (290 <TA_InvokeCommandEntryPoint+0x23c>)
      84:	2191      	movs	r1, #145	; 0x91
      86:	4883      	ldr	r0, [pc, #524]	; (294 <TA_InvokeCommandEntryPoint+0x240>)
      88:	447b      	add	r3, pc
      8a:	9300      	str	r3, [sp, #0]
      8c:	2301      	movs	r3, #1
      8e:	9202      	str	r2, [sp, #8]
      90:	4478      	add	r0, pc
      92:	461a      	mov	r2, r3
get_hotp():
/workspace/benchmark/hotp/ta/hotp_ta.c:176
      94:	f000 f95e 	bl	354 <trace_printf>
/workspace/benchmark/hotp/ta/hotp_ta.c:177
      98:	e7ed      	b.n	76 <TA_InvokeCommandEntryPoint+0x22>
register_shared_key():
/workspace/benchmark/hotp/ta/hotp_ta.c:149
      9a:	6873      	ldr	r3, [r6, #4]
      9c:	2b40      	cmp	r3, #64	; 0x40
      9e:	d8ea      	bhi.n	76 <TA_InvokeCommandEntryPoint+0x22>
/workspace/benchmark/hotp/ta/hotp_ta.c:152
      a0:	2240      	movs	r2, #64	; 0x40
      a2:	f007 fcc1 	bl	7a28 <memset>
/workspace/benchmark/hotp/ta/hotp_ta.c:153
      a6:	4628      	mov	r0, r5
      a8:	e9d6 1200 	ldrd	r1, r2, [r6]
      ac:	f007 fcb1 	bl	7a12 <memcpy>
/workspace/benchmark/hotp/ta/hotp_ta.c:155
      b0:	6873      	ldr	r3, [r6, #4]
/workspace/benchmark/hotp/ta/hotp_ta.c:156
      b2:	2203      	movs	r2, #3
/workspace/benchmark/hotp/ta/hotp_ta.c:155
      b4:	642b      	str	r3, [r5, #64]	; 0x40
/workspace/benchmark/hotp/ta/hotp_ta.c:156
      b6:	219c      	movs	r1, #156	; 0x9c
      b8:	4877      	ldr	r0, [pc, #476]	; (298 <TA_InvokeCommandEntryPoint+0x244>)
      ba:	9302      	str	r3, [sp, #8]
      bc:	4b77      	ldr	r3, [pc, #476]	; (29c <TA_InvokeCommandEntryPoint+0x248>)
      be:	4478      	add	r0, pc
      c0:	9501      	str	r5, [sp, #4]
      c2:	447b      	add	r3, pc
      c4:	9300      	str	r3, [sp, #0]
      c6:	2301      	movs	r3, #1
      c8:	f000 f944 	bl	354 <trace_printf>
TA_InvokeCommandEntryPoint():
/workspace/benchmark/hotp/ta/hotp_ta.c:242
      cc:	4a74      	ldr	r2, [pc, #464]	; (2a0 <TA_InvokeCommandEntryPoint+0x24c>)
/workspace/benchmark/hotp/ta/hotp_ta.c:253
      ce:	4b6f      	ldr	r3, [pc, #444]	; (28c <TA_InvokeCommandEntryPoint+0x238>)
/workspace/benchmark/hotp/ta/hotp_ta.c:242
      d0:	447a      	add	r2, pc
/workspace/benchmark/hotp/ta/hotp_ta.c:253
      d2:	58d3      	ldr	r3, [r2, r3]
      d4:	681a      	ldr	r2, [r3, #0]
      d6:	9b0f      	ldr	r3, [sp, #60]	; 0x3c
      d8:	405a      	eors	r2, r3
      da:	f04f 0300 	mov.w	r3, #0
      de:	f000 80c6 	beq.w	26e <TA_InvokeCommandEntryPoint+0x21a>
      e2:	f007 fc95 	bl	7a10 <__stack_chk_fail>
get_hotp():
/workspace/benchmark/hotp/ta/hotp_ta.c:167
      e6:	2314      	movs	r3, #20
/workspace/benchmark/hotp/ta/hotp_ta.c:175
      e8:	2a02      	cmp	r2, #2
/workspace/benchmark/hotp/ta/hotp_ta.c:167
      ea:	9304      	str	r3, [sp, #16]
/workspace/benchmark/hotp/ta/hotp_ta.c:175
      ec:	d00c      	beq.n	108 <TA_InvokeCommandEntryPoint+0xb4>
/workspace/benchmark/hotp/ta/hotp_ta.c:176
      ee:	486d      	ldr	r0, [pc, #436]	; (2a4 <TA_InvokeCommandEntryPoint+0x250>)
      f0:	2302      	movs	r3, #2
      f2:	9301      	str	r3, [sp, #4]
      f4:	4b6c      	ldr	r3, [pc, #432]	; (2a8 <TA_InvokeCommandEntryPoint+0x254>)
      f6:	4478      	add	r0, pc
      f8:	9202      	str	r2, [sp, #8]
      fa:	3014      	adds	r0, #20
      fc:	447b      	add	r3, pc
      fe:	460a      	mov	r2, r1
     100:	9300      	str	r3, [sp, #0]
     102:	460b      	mov	r3, r1
     104:	21b0      	movs	r1, #176	; 0xb0
     106:	e7c5      	b.n	94 <TA_InvokeCommandEntryPoint+0x40>
hmac_sha1():
/workspace/benchmark/hotp/ta/hotp_ta.c:51
     108:	efc0 0010 	vmov.i32	d16, #0	; 0x00000000
get_hotp():
/workspace/benchmark/hotp/ta/hotp_ta.c:180
     10c:	f8d0 8040 	ldr.w	r8, [r0, #64]	; 0x40
hmac_sha1():
/workspace/benchmark/hotp/ta/hotp_ta.c:52
     110:	2300      	movs	r3, #0
     112:	9305      	str	r3, [sp, #20]
/workspace/benchmark/hotp/ta/hotp_ta.c:53
     114:	9306      	str	r3, [sp, #24]
/workspace/benchmark/hotp/ta/hotp_ta.c:56
     116:	f1a8 030a 	sub.w	r3, r8, #10
/workspace/benchmark/hotp/ta/hotp_ta.c:51
     11a:	f10d 091c 	add.w	r9, sp, #28
/workspace/benchmark/hotp/ta/hotp_ta.c:56
     11e:	2b36      	cmp	r3, #54	; 0x36
/workspace/benchmark/hotp/ta/hotp_ta.c:51
     120:	edcd 0b07 	vstr	d16, [sp, #28]
     124:	f100 0744 	add.w	r7, r0, #68	; 0x44
     128:	edcd 0b08 	vstr	d16, [sp, #32]
/workspace/benchmark/hotp/ta/hotp_ta.c:56
     12c:	f200 809d 	bhi.w	26a <TA_InvokeCommandEntryPoint+0x216>
/workspace/benchmark/hotp/ta/hotp_ta.c:67
     130:	ea4f 0ac8 	mov.w	sl, r8, lsl #3
     134:	4951      	ldr	r1, [pc, #324]	; (27c <TA_InvokeCommandEntryPoint+0x228>)
     136:	4653      	mov	r3, sl
     138:	2204      	movs	r2, #4
     13a:	a806      	add	r0, sp, #24
     13c:	f001 fc37 	bl	19ae <TEE_AllocateOperation>
/workspace/benchmark/hotp/ta/hotp_ta.c:69
     140:	4604      	mov	r4, r0
     142:	2800      	cmp	r0, #0
     144:	d044      	beq.n	1d0 <TA_InvokeCommandEntryPoint+0x17c>
/workspace/benchmark/hotp/ta/hotp_ta.c:70
     146:	4b59      	ldr	r3, [pc, #356]	; (2ac <TA_InvokeCommandEntryPoint+0x258>)
     148:	2146      	movs	r1, #70	; 0x46
     14a:	9001      	str	r0, [sp, #4]
     14c:	4858      	ldr	r0, [pc, #352]	; (2b0 <TA_InvokeCommandEntryPoint+0x25c>)
     14e:	447b      	add	r3, pc
     150:	9300      	str	r3, [sp, #0]
     152:	2301      	movs	r3, #1
     154:	461a      	mov	r2, r3
     156:	4478      	add	r0, pc
/workspace/benchmark/hotp/ta/hotp_ta.c:81
     158:	301d      	adds	r0, #29
     15a:	f000 f8fb 	bl	354 <trace_printf>
/workspace/benchmark/hotp/ta/hotp_ta.c:110
     15e:	9806      	ldr	r0, [sp, #24]
     160:	b108      	cbz	r0, 166 <TA_InvokeCommandEntryPoint+0x112>
/workspace/benchmark/hotp/ta/hotp_ta.c:111
     162:	f001 fc11 	bl	1988 <TEE_FreeOperation>
/workspace/benchmark/hotp/ta/hotp_ta.c:114
     166:	9805      	ldr	r0, [sp, #20]
     168:	f001 f89c 	bl	12a4 <TEE_FreeTransientObject>
get_hotp():
/workspace/benchmark/hotp/ta/hotp_ta.c:184
     16c:	354c      	adds	r5, #76	; 0x4c
/workspace/benchmark/hotp/ta/hotp_ta.c:185
     16e:	f815 3d01 	ldrb.w	r3, [r5, #-1]!
     172:	3301      	adds	r3, #1
     174:	b2db      	uxtb	r3, r3
     176:	702b      	strb	r3, [r5, #0]
     178:	b90b      	cbnz	r3, 17e <TA_InvokeCommandEntryPoint+0x12a>
/workspace/benchmark/hotp/ta/hotp_ta.c:184
     17a:	42af      	cmp	r7, r5
     17c:	d1f7      	bne.n	16e <TA_InvokeCommandEntryPoint+0x11a>
truncate():
/workspace/benchmark/hotp/ta/hotp_ta.c:126
     17e:	f89d 303b 	ldrb.w	r3, [sp, #59]	; 0x3b
get_hotp():
/workspace/benchmark/hotp/ta/hotp_ta.c:190
     182:	21be      	movs	r1, #190	; 0xbe
     184:	484b      	ldr	r0, [pc, #300]	; (2b4 <TA_InvokeCommandEntryPoint+0x260>)
truncate():
/workspace/benchmark/hotp/ta/hotp_ta.c:126
     186:	f003 030f 	and.w	r3, r3, #15
     18a:	3340      	adds	r3, #64	; 0x40
get_hotp():
/workspace/benchmark/hotp/ta/hotp_ta.c:190
     18c:	4478      	add	r0, pc
truncate():
/workspace/benchmark/hotp/ta/hotp_ta.c:126
     18e:	446b      	add	r3, sp
get_hotp():
/workspace/benchmark/hotp/ta/hotp_ta.c:190
     190:	3014      	adds	r0, #20
truncate():
/workspace/benchmark/hotp/ta/hotp_ta.c:126
     192:	f813 5c18 	ldrb.w	r5, [r3, #-24]
/workspace/benchmark/hotp/ta/hotp_ta.c:127
     196:	f813 2c17 	ldrb.w	r2, [r3, #-23]
/workspace/benchmark/hotp/ta/hotp_ta.c:126
     19a:	062d      	lsls	r5, r5, #24
     19c:	f005 45fe 	and.w	r5, r5, #2130706432	; 0x7f000000
     1a0:	ea45 4502 	orr.w	r5, r5, r2, lsl #16
/workspace/benchmark/hotp/ta/hotp_ta.c:129
     1a4:	f813 2c15 	ldrb.w	r2, [r3, #-21]
/workspace/benchmark/hotp/ta/hotp_ta.c:128
     1a8:	f813 3c16 	ldrb.w	r3, [r3, #-22]
     1ac:	4315      	orrs	r5, r2
     1ae:	ea45 2503 	orr.w	r5, r5, r3, lsl #8
/workspace/benchmark/hotp/ta/hotp_ta.c:131
     1b2:	4b33      	ldr	r3, [pc, #204]	; (280 <TA_InvokeCommandEntryPoint+0x22c>)
     1b4:	fbb5 f2f3 	udiv	r2, r5, r3
     1b8:	fb03 5512 	mls	r5, r3, r2, r5
get_hotp():
/workspace/benchmark/hotp/ta/hotp_ta.c:190
     1bc:	4b3e      	ldr	r3, [pc, #248]	; (2b8 <TA_InvokeCommandEntryPoint+0x264>)
     1be:	2203      	movs	r2, #3
     1c0:	9501      	str	r5, [sp, #4]
     1c2:	447b      	add	r3, pc
     1c4:	9300      	str	r3, [sp, #0]
     1c6:	2301      	movs	r3, #1
     1c8:	f000 f8c4 	bl	354 <trace_printf>
/workspace/benchmark/hotp/ta/hotp_ta.c:191
     1cc:	6035      	str	r5, [r6, #0]
TA_InvokeCommandEntryPoint():
/workspace/benchmark/hotp/ta/hotp_ta.c:248
     1ce:	e77d      	b.n	cc <TA_InvokeCommandEntryPoint+0x78>
hmac_sha1():
/workspace/benchmark/hotp/ta/hotp_ta.c:78
     1d0:	482c      	ldr	r0, [pc, #176]	; (284 <TA_InvokeCommandEntryPoint+0x230>)
     1d2:	aa05      	add	r2, sp, #20
     1d4:	4651      	mov	r1, sl
     1d6:	f001 f84d 	bl	1274 <TEE_AllocateTransientObject>
/workspace/benchmark/hotp/ta/hotp_ta.c:80
     1da:	4604      	mov	r4, r0
     1dc:	b148      	cbz	r0, 1f2 <TA_InvokeCommandEntryPoint+0x19e>
/workspace/benchmark/hotp/ta/hotp_ta.c:81
     1de:	4b37      	ldr	r3, [pc, #220]	; (2bc <TA_InvokeCommandEntryPoint+0x268>)
     1e0:	2151      	movs	r1, #81	; 0x51
     1e2:	9001      	str	r0, [sp, #4]
     1e4:	4836      	ldr	r0, [pc, #216]	; (2c0 <TA_InvokeCommandEntryPoint+0x26c>)
     1e6:	447b      	add	r3, pc
     1e8:	9300      	str	r3, [sp, #0]
     1ea:	2301      	movs	r3, #1
     1ec:	461a      	mov	r2, r3
     1ee:	4478      	add	r0, pc
     1f0:	e7b2      	b.n	158 <TA_InvokeCommandEntryPoint+0x104>
/workspace/benchmark/hotp/ta/hotp_ta.c:89
     1f2:	4643      	mov	r3, r8
     1f4:	462a      	mov	r2, r5
     1f6:	f04f 4140 	mov.w	r1, #3221225472	; 0xc0000000
     1fa:	4648      	mov	r0, r9
     1fc:	f001 f8ba 	bl	1374 <TEE_InitRefAttribute>
/workspace/benchmark/hotp/ta/hotp_ta.c:92
     200:	9805      	ldr	r0, [sp, #20]
     202:	2201      	movs	r2, #1
     204:	4649      	mov	r1, r9
     206:	f001 f87d 	bl	1304 <TEE_PopulateTransientObject>
/workspace/benchmark/hotp/ta/hotp_ta.c:93
     20a:	4604      	mov	r4, r0
     20c:	b148      	cbz	r0, 222 <TA_InvokeCommandEntryPoint+0x1ce>
/workspace/benchmark/hotp/ta/hotp_ta.c:94
     20e:	4b2d      	ldr	r3, [pc, #180]	; (2c4 <TA_InvokeCommandEntryPoint+0x270>)
     210:	215e      	movs	r1, #94	; 0x5e
     212:	9001      	str	r0, [sp, #4]
     214:	482c      	ldr	r0, [pc, #176]	; (2c8 <TA_InvokeCommandEntryPoint+0x274>)
     216:	447b      	add	r3, pc
     218:	9300      	str	r3, [sp, #0]
     21a:	2301      	movs	r3, #1
     21c:	461a      	mov	r2, r3
     21e:	4478      	add	r0, pc
     220:	e79a      	b.n	158 <TA_InvokeCommandEntryPoint+0x104>
/workspace/benchmark/hotp/ta/hotp_ta.c:99
     222:	9905      	ldr	r1, [sp, #20]
     224:	9806      	ldr	r0, [sp, #24]
     226:	f001 fef1 	bl	200c <TEE_SetOperationKey>
/workspace/benchmark/hotp/ta/hotp_ta.c:100
     22a:	4604      	mov	r4, r0
     22c:	b148      	cbz	r0, 242 <TA_InvokeCommandEntryPoint+0x1ee>
/workspace/benchmark/hotp/ta/hotp_ta.c:101
     22e:	4b27      	ldr	r3, [pc, #156]	; (2cc <TA_InvokeCommandEntryPoint+0x278>)
     230:	2165      	movs	r1, #101	; 0x65
     232:	9001      	str	r0, [sp, #4]
     234:	4826      	ldr	r0, [pc, #152]	; (2d0 <TA_InvokeCommandEntryPoint+0x27c>)
     236:	447b      	add	r3, pc
     238:	9300      	str	r3, [sp, #0]
     23a:	2301      	movs	r3, #1
     23c:	461a      	mov	r2, r3
     23e:	4478      	add	r0, pc
     240:	e78a      	b.n	158 <TA_InvokeCommandEntryPoint+0x104>
/workspace/benchmark/hotp/ta/hotp_ta.c:106
     242:	4602      	mov	r2, r0
     244:	4601      	mov	r1, r0
     246:	9806      	ldr	r0, [sp, #24]
     248:	f002 f968 	bl	251c <TEE_MACInit>
/workspace/benchmark/hotp/ta/hotp_ta.c:107
     24c:	9806      	ldr	r0, [sp, #24]
     24e:	2208      	movs	r2, #8
     250:	4639      	mov	r1, r7
     252:	f002 f98e 	bl	2572 <TEE_MACUpdate>
/workspace/benchmark/hotp/ta/hotp_ta.c:108
     256:	ab04      	add	r3, sp, #16
     258:	4622      	mov	r2, r4
     25a:	4621      	mov	r1, r4
     25c:	9300      	str	r3, [sp, #0]
     25e:	ab0a      	add	r3, sp, #40	; 0x28
     260:	9806      	ldr	r0, [sp, #24]
     262:	f002 f9ad 	bl	25c0 <TEE_MACComputeFinal>
     266:	4604      	mov	r4, r0
     268:	e779      	b.n	15e <TA_InvokeCommandEntryPoint+0x10a>
/workspace/benchmark/hotp/ta/hotp_ta.c:57
     26a:	4c03      	ldr	r4, [pc, #12]	; (278 <TA_InvokeCommandEntryPoint+0x224>)
     26c:	e77e      	b.n	16c <TA_InvokeCommandEntryPoint+0x118>
TA_InvokeCommandEntryPoint():
/workspace/benchmark/hotp/ta/hotp_ta.c:253
     26e:	4620      	mov	r0, r4
     270:	b010      	add	sp, #64	; 0x40
     272:	e8bd 87f0 	ldmia.w	sp!, {r4, r5, r6, r7, r8, r9, sl, pc}
     276:	bf00      	nop
     278:	ffff0006 	.word	0xffff0006
     27c:	30000002 	.word	0x30000002
     280:	000f4240 	.word	0x000f4240
     284:	a0000002 	.word	0xa0000002
     288:	00009464 	.word	0x00009464
     28c:	0000000c 	.word	0x0000000c
     290:	00007f08 	.word	0x00007f08
     294:	00007f4b 	.word	0x00007f4b
     298:	00007f1d 	.word	0x00007f1d
     29c:	00007ee8 	.word	0x00007ee8
     2a0:	000093f4 	.word	0x000093f4
     2a4:	00007ee5 	.word	0x00007ee5
     2a8:	00007e94 	.word	0x00007e94
     2ac:	00007e7a 	.word	0x00007e7a
     2b0:	00007e85 	.word	0x00007e85
     2b4:	00007e4f 	.word	0x00007e4f
     2b8:	00007e0d 	.word	0x00007e0d
     2bc:	00007de2 	.word	0x00007de2
     2c0:	00007ded 	.word	0x00007ded
     2c4:	00007db2 	.word	0x00007db2
     2c8:	00007dbd 	.word	0x00007dbd
     2cc:	00007d92 	.word	0x00007d92
     2d0:	00007d9d 	.word	0x00007d9d

000002d4 <append>:
append():
/mnt/disk/raspbian-tee/optee_os/lib/libutils/ext/trace.c:198
     2d4:	b40e      	push	{r1, r2, r3}
/mnt/disk/raspbian-tee/optee_os/lib/libutils/ext/trace.c:203
     2d6:	f8d0 3100 	ldr.w	r3, [r0, #256]	; 0x100
/mnt/disk/raspbian-tee/optee_os/lib/libutils/ext/trace.c:198
     2da:	b533      	push	{r0, r1, r4, r5, lr}
     2dc:	4604      	mov	r4, r0
/mnt/disk/raspbian-tee/optee_os/lib/libutils/ext/trace.c:203
     2de:	b90b      	cbnz	r3, 2e4 <append+0x10>
/mnt/disk/raspbian-tee/optee_os/lib/libutils/ext/trace.c:204
     2e0:	f8c4 0100 	str.w	r0, [r4, #256]	; 0x100
/mnt/disk/raspbian-tee/optee_os/lib/libutils/ext/trace.c:205
     2e4:	f8d4 0100 	ldr.w	r0, [r4, #256]	; 0x100
/mnt/disk/raspbian-tee/optee_os/lib/libutils/ext/trace.c:206
     2e8:	ab06      	add	r3, sp, #24
/mnt/disk/raspbian-tee/optee_os/lib/libutils/ext/trace.c:207
     2ea:	9a05      	ldr	r2, [sp, #20]
/mnt/disk/raspbian-tee/optee_os/lib/libutils/ext/trace.c:205
     2ec:	1b05      	subs	r5, r0, r4
/mnt/disk/raspbian-tee/optee_os/lib/libutils/ext/trace.c:206
     2ee:	9301      	str	r3, [sp, #4]
/mnt/disk/raspbian-tee/optee_os/lib/libutils/ext/trace.c:205
     2f0:	f5c5 7580 	rsb	r5, r5, #256	; 0x100
/mnt/disk/raspbian-tee/optee_os/lib/libutils/ext/trace.c:207
     2f4:	4629      	mov	r1, r5
     2f6:	f000 fce5 	bl	cc4 <vsnprintk>
/mnt/disk/raspbian-tee/optee_os/lib/libutils/ext/trace.c:209
     2fa:	2800      	cmp	r0, #0
     2fc:	db0f      	blt.n	31e <append+0x4a>
/mnt/disk/raspbian-tee/optee_os/lib/libutils/ext/trace.c:213
     2fe:	4285      	cmp	r5, r0
     300:	dd0d      	ble.n	31e <append+0x4a>
/mnt/disk/raspbian-tee/optee_os/lib/libutils/ext/trace.c:217
     302:	4285      	cmp	r5, r0
     304:	bfa8      	it	ge
     306:	4605      	movge	r5, r0
     308:	f8d4 0100 	ldr.w	r0, [r4, #256]	; 0x100
     30c:	4405      	add	r5, r0
/mnt/disk/raspbian-tee/optee_os/lib/libutils/ext/trace.c:218
     30e:	2001      	movs	r0, #1
/mnt/disk/raspbian-tee/optee_os/lib/libutils/ext/trace.c:217
     310:	f8c4 5100 	str.w	r5, [r4, #256]	; 0x100
/mnt/disk/raspbian-tee/optee_os/lib/libutils/ext/trace.c:219
     314:	b002      	add	sp, #8
     316:	e8bd 4030 	ldmia.w	sp!, {r4, r5, lr}
     31a:	b003      	add	sp, #12
     31c:	4770      	bx	lr
/mnt/disk/raspbian-tee/optee_os/lib/libutils/ext/trace.c:211
     31e:	2000      	movs	r0, #0
     320:	e7f8      	b.n	314 <append+0x40>

00000322 <trace_set_level>:
trace_set_level():
/mnt/disk/raspbian-tee/optee_os/lib/libutils/ext/trace.c:25
     322:	4b05      	ldr	r3, [pc, #20]	; (338 <trace_set_level+0x16>)
/mnt/disk/raspbian-tee/optee_os/lib/libutils/ext/trace.c:26
     324:	2804      	cmp	r0, #4
     326:	4a05      	ldr	r2, [pc, #20]	; (33c <trace_set_level+0x1a>)
/mnt/disk/raspbian-tee/optee_os/lib/libutils/ext/trace.c:25
     328:	447b      	add	r3, pc
     32a:	589b      	ldr	r3, [r3, r2]
/mnt/disk/raspbian-tee/optee_os/lib/libutils/ext/trace.c:26
     32c:	d801      	bhi.n	332 <trace_set_level+0x10>
/mnt/disk/raspbian-tee/optee_os/lib/libutils/ext/trace.c:27
     32e:	6018      	str	r0, [r3, #0]
     330:	4770      	bx	lr
/mnt/disk/raspbian-tee/optee_os/lib/libutils/ext/trace.c:29
     332:	2204      	movs	r2, #4
     334:	601a      	str	r2, [r3, #0]
     336:	4770      	bx	lr
     338:	0000919c 	.word	0x0000919c
     33c:	00000014 	.word	0x00000014

00000340 <trace_get_level>:
trace_get_level():
/mnt/disk/raspbian-tee/optee_os/lib/libutils/ext/trace.c:33
     340:	4b02      	ldr	r3, [pc, #8]	; (34c <trace_get_level+0xc>)
/mnt/disk/raspbian-tee/optee_os/lib/libutils/ext/trace.c:34
     342:	4a03      	ldr	r2, [pc, #12]	; (350 <trace_get_level+0x10>)
/mnt/disk/raspbian-tee/optee_os/lib/libutils/ext/trace.c:33
     344:	447b      	add	r3, pc
/mnt/disk/raspbian-tee/optee_os/lib/libutils/ext/trace.c:34
     346:	589b      	ldr	r3, [r3, r2]
/mnt/disk/raspbian-tee/optee_os/lib/libutils/ext/trace.c:35
     348:	6818      	ldr	r0, [r3, #0]
     34a:	4770      	bx	lr
     34c:	00009180 	.word	0x00009180
     350:	00000014 	.word	0x00000014

00000354 <trace_printf>:
trace_printf():
/mnt/disk/raspbian-tee/optee_os/lib/libutils/ext/trace.c:97
     354:	e92d 47f0 	stmdb	sp!, {r4, r5, r6, r7, r8, r9, sl, lr}
     358:	4607      	mov	r7, r0
     35a:	f8df 910c 	ldr.w	r9, [pc, #268]	; 468 <trace_printf+0x114>
     35e:	b0c6      	sub	sp, #280	; 0x118
     360:	4688      	mov	r8, r1
     362:	44f9      	add	r9, pc
     364:	4614      	mov	r4, r2
/mnt/disk/raspbian-tee/optee_os/lib/libutils/ext/trace.c:103
     366:	469a      	mov	sl, r3
     368:	2b00      	cmp	r3, #0
     36a:	d06a      	beq.n	442 <trace_printf+0xee>
/mnt/disk/raspbian-tee/optee_os/lib/libutils/ext/trace.c:103 (discriminator 1)
     36c:	4b3f      	ldr	r3, [pc, #252]	; (46c <trace_printf+0x118>)
     36e:	f859 3003 	ldr.w	r3, [r9, r3]
     372:	681b      	ldr	r3, [r3, #0]
     374:	4293      	cmp	r3, r2
     376:	db61      	blt.n	43c <trace_printf+0xe8>
trace_level_to_string():
/mnt/disk/raspbian-tee/optee_os/lib/libutils/ext/trace.c:52
     378:	4613      	mov	r3, r2
     37a:	2a04      	cmp	r2, #4
/mnt/disk/raspbian-tee/optee_os/lib/libutils/ext/trace.c:55
     37c:	4a3c      	ldr	r2, [pc, #240]	; (470 <trace_printf+0x11c>)
/mnt/disk/raspbian-tee/optee_os/lib/libutils/ext/trace.c:52
     37e:	bf88      	it	hi
     380:	2300      	movhi	r3, #0
/mnt/disk/raspbian-tee/optee_os/lib/libutils/ext/trace.c:55
     382:	447a      	add	r2, pc
     384:	5cd3      	ldrb	r3, [r2, r3]
trace_printf():
/mnt/disk/raspbian-tee/optee_os/lib/libutils/ext/trace.c:107
     386:	4a3b      	ldr	r2, [pc, #236]	; (474 <trace_printf+0x120>)
     388:	ad06      	add	r5, sp, #24
     38a:	f44f 7180 	mov.w	r1, #256	; 0x100
     38e:	4628      	mov	r0, r5
     390:	447a      	add	r2, pc
     392:	f000 fc9e 	bl	cd2 <snprintk>
/mnt/disk/raspbian-tee/optee_os/lib/libutils/ext/trace.c:109
     396:	1e06      	subs	r6, r0, #0
     398:	db50      	blt.n	43c <trace_printf+0xe8>
/mnt/disk/raspbian-tee/optee_os/lib/libutils/ext/trace.c:114
     39a:	4b37      	ldr	r3, [pc, #220]	; (478 <trace_printf+0x124>)
     39c:	f5c6 7180 	rsb	r1, r6, #256	; 0x100
     3a0:	4a36      	ldr	r2, [pc, #216]	; (47c <trace_printf+0x128>)
     3a2:	19a8      	adds	r0, r5, r6
     3a4:	447a      	add	r2, pc
     3a6:	f859 3003 	ldr.w	r3, [r9, r3]
     3aa:	9303      	str	r3, [sp, #12]
     3ac:	f000 fc91 	bl	cd2 <snprintk>
/mnt/disk/raspbian-tee/optee_os/lib/libutils/ext/trace.c:116
     3b0:	2800      	cmp	r0, #0
     3b2:	db43      	blt.n	43c <trace_printf+0xe8>
/mnt/disk/raspbian-tee/optee_os/lib/libutils/ext/trace.c:118
     3b4:	4406      	add	r6, r0
/mnt/disk/raspbian-tee/optee_os/lib/libutils/ext/trace.c:120
     3b6:	f1ba 0f00 	cmp.w	sl, #0
     3ba:	d04b      	beq.n	454 <trace_printf+0x100>
/mnt/disk/raspbian-tee/optee_os/lib/libutils/ext/trace.c:120 (discriminator 1)
     3bc:	231a      	movs	r3, #26
     3be:	fa23 f404 	lsr.w	r4, r3, r4
     3c2:	07e3      	lsls	r3, r4, #31
     3c4:	d546      	bpl.n	454 <trace_printf+0x100>
print_thread_id():
/mnt/disk/raspbian-tee/optee_os/lib/libutils/ext/trace.c:65
     3c6:	f000 fcb3 	bl	d30 <trace_ext_get_thread_id>
trace_printf():
/mnt/disk/raspbian-tee/optee_os/lib/libutils/ext/trace.c:122
     3ca:	19ac      	adds	r4, r5, r6
     3cc:	f5c6 7980 	rsb	r9, r6, #256	; 0x100
print_thread_id():
/mnt/disk/raspbian-tee/optee_os/lib/libutils/ext/trace.c:67
     3d0:	2800      	cmp	r0, #0
     3d2:	db38      	blt.n	446 <trace_printf+0xf2>
/mnt/disk/raspbian-tee/optee_os/lib/libutils/ext/trace.c:68
     3d4:	4a2a      	ldr	r2, [pc, #168]	; (480 <trace_printf+0x12c>)
     3d6:	2301      	movs	r3, #1
     3d8:	9000      	str	r0, [sp, #0]
     3da:	447a      	add	r2, pc
/mnt/disk/raspbian-tee/optee_os/lib/libutils/ext/trace.c:70
     3dc:	4649      	mov	r1, r9
     3de:	4620      	mov	r0, r4
     3e0:	f000 fc77 	bl	cd2 <snprintk>
trace_printf():
/mnt/disk/raspbian-tee/optee_os/lib/libutils/ext/trace.c:129
     3e4:	2800      	cmp	r0, #0
     3e6:	db29      	blt.n	43c <trace_printf+0xe8>
/mnt/disk/raspbian-tee/optee_os/lib/libutils/ext/trace.c:131
     3e8:	1984      	adds	r4, r0, r6
/mnt/disk/raspbian-tee/optee_os/lib/libutils/ext/trace.c:133
     3ea:	b167      	cbz	r7, 406 <trace_printf+0xb2>
/mnt/disk/raspbian-tee/optee_os/lib/libutils/ext/trace.c:134
     3ec:	4a25      	ldr	r2, [pc, #148]	; (484 <trace_printf+0x130>)
     3ee:	463b      	mov	r3, r7
     3f0:	f8cd 8000 	str.w	r8, [sp]
     3f4:	f5c4 7180 	rsb	r1, r4, #256	; 0x100
     3f8:	447a      	add	r2, pc
     3fa:	1928      	adds	r0, r5, r4
     3fc:	f000 fc69 	bl	cd2 <snprintk>
/mnt/disk/raspbian-tee/optee_os/lib/libutils/ext/trace.c:136
     400:	2800      	cmp	r0, #0
     402:	db1b      	blt.n	43c <trace_printf+0xe8>
/mnt/disk/raspbian-tee/optee_os/lib/libutils/ext/trace.c:138
     404:	4404      	add	r4, r0
/mnt/disk/raspbian-tee/optee_os/lib/libutils/ext/trace.c:148
     406:	ab4f      	add	r3, sp, #316	; 0x13c
/mnt/disk/raspbian-tee/optee_os/lib/libutils/ext/trace.c:149
     408:	f5c4 7180 	rsb	r1, r4, #256	; 0x100
     40c:	1928      	adds	r0, r5, r4
     40e:	9a4e      	ldr	r2, [sp, #312]	; 0x138
/mnt/disk/raspbian-tee/optee_os/lib/libutils/ext/trace.c:148
     410:	9305      	str	r3, [sp, #20]
/mnt/disk/raspbian-tee/optee_os/lib/libutils/ext/trace.c:149
     412:	f000 fc57 	bl	cc4 <vsnprintk>
/mnt/disk/raspbian-tee/optee_os/lib/libutils/ext/trace.c:151
     416:	2800      	cmp	r0, #0
/mnt/disk/raspbian-tee/optee_os/lib/libutils/ext/trace.c:157
     418:	f04f 030a 	mov.w	r3, #10
/mnt/disk/raspbian-tee/optee_os/lib/libutils/ext/trace.c:152
     41c:	bfc8      	it	gt
     41e:	1824      	addgt	r4, r4, r0
     420:	2cfe      	cmp	r4, #254	; 0xfe
     422:	bf28      	it	cs
     424:	24fe      	movcs	r4, #254	; 0xfe
/mnt/disk/raspbian-tee/optee_os/lib/libutils/ext/trace.c:157
     426:	552b      	strb	r3, [r5, r4]
/mnt/disk/raspbian-tee/optee_os/lib/libutils/ext/trace.c:158
     428:	b114      	cbz	r4, 430 <trace_printf+0xdc>
/mnt/disk/raspbian-tee/optee_os/lib/libutils/ext/trace.c:158 (discriminator 1)
     42a:	5d2b      	ldrb	r3, [r5, r4]
     42c:	2b0a      	cmp	r3, #10
     42e:	d019      	beq.n	464 <trace_printf+0x110>
/mnt/disk/raspbian-tee/optee_os/lib/libutils/ext/trace.c:161
     430:	442c      	add	r4, r5
/mnt/disk/raspbian-tee/optee_os/lib/libutils/ext/trace.c:163
     432:	4628      	mov	r0, r5
/mnt/disk/raspbian-tee/optee_os/lib/libutils/ext/trace.c:161
     434:	2300      	movs	r3, #0
     436:	70a3      	strb	r3, [r4, #2]
/mnt/disk/raspbian-tee/optee_os/lib/libutils/ext/trace.c:163
     438:	f000 fc70 	bl	d1c <trace_ext_puts>
/mnt/disk/raspbian-tee/optee_os/lib/libutils/ext/trace.c:164
     43c:	b046      	add	sp, #280	; 0x118
     43e:	e8bd 87f0 	ldmia.w	sp!, {r4, r5, r6, r7, r8, r9, sl, pc}
trace_level_to_string():
/mnt/disk/raspbian-tee/optee_os/lib/libutils/ext/trace.c:50
     442:	234d      	movs	r3, #77	; 0x4d
     444:	e79f      	b.n	386 <trace_printf+0x32>
print_thread_id():
/mnt/disk/raspbian-tee/optee_os/lib/libutils/ext/trace.c:70
     446:	4b10      	ldr	r3, [pc, #64]	; (488 <trace_printf+0x134>)
     448:	4a10      	ldr	r2, [pc, #64]	; (48c <trace_printf+0x138>)
     44a:	447b      	add	r3, pc
     44c:	9300      	str	r3, [sp, #0]
     44e:	447a      	add	r2, pc
     450:	2301      	movs	r3, #1
     452:	e7c3      	b.n	3dc <trace_printf+0x88>
trace_printf():
/mnt/disk/raspbian-tee/optee_os/lib/libutils/ext/trace.c:142
     454:	2efe      	cmp	r6, #254	; 0xfe
     456:	d8f1      	bhi.n	43c <trace_printf+0xe8>
/mnt/disk/raspbian-tee/optee_os/lib/libutils/ext/trace.c:144
     458:	1c74      	adds	r4, r6, #1
     45a:	2320      	movs	r3, #32
     45c:	55ab      	strb	r3, [r5, r6]
/mnt/disk/raspbian-tee/optee_os/lib/libutils/ext/trace.c:145
     45e:	2300      	movs	r3, #0
     460:	552b      	strb	r3, [r5, r4]
     462:	e7d0      	b.n	406 <trace_printf+0xb2>
/mnt/disk/raspbian-tee/optee_os/lib/libutils/ext/trace.c:159
     464:	3c01      	subs	r4, #1
     466:	e7df      	b.n	428 <trace_printf+0xd4>
     468:	00009162 	.word	0x00009162
     46c:	00000014 	.word	0x00000014
     470:	00007d47 	.word	0x00007d47
     474:	00007d48 	.word	0x00007d48
     478:	0000001c 	.word	0x0000001c
     47c:	00007d38 	.word	0x00007d38
     480:	00007d06 	.word	0x00007d06
     484:	00007cf3 	.word	0x00007cf3
     488:	00008394 	.word	0x00008394
     48c:	00007c98 	.word	0x00007c98

00000490 <dhex_dump>:
dhex_dump():
/mnt/disk/raspbian-tee/optee_os/lib/libutils/ext/trace.c:225
     490:	e92d 4ff0 	stmdb	sp!, {r4, r5, r6, r7, r8, r9, sl, fp, lr}
     494:	4690      	mov	r8, r2
     496:	4a35      	ldr	r2, [pc, #212]	; (56c <dhex_dump+0xdc>)
     498:	468a      	mov	sl, r1
/mnt/disk/raspbian-tee/optee_os/lib/libutils/ext/trace.c:231
     49a:	4935      	ldr	r1, [pc, #212]	; (570 <dhex_dump+0xe0>)
/mnt/disk/raspbian-tee/optee_os/lib/libutils/ext/trace.c:225
     49c:	447a      	add	r2, pc
     49e:	b0c7      	sub	sp, #284	; 0x11c
     4a0:	4681      	mov	r9, r0
/mnt/disk/raspbian-tee/optee_os/lib/libutils/ext/trace.c:231
     4a2:	5852      	ldr	r2, [r2, r1]
     4a4:	6812      	ldr	r2, [r2, #0]
     4a6:	4542      	cmp	r2, r8
     4a8:	db1d      	blt.n	4e6 <dhex_dump+0x56>
     4aa:	461e      	mov	r6, r3
/mnt/disk/raspbian-tee/optee_os/lib/libutils/ext/trace.c:240
     4ac:	4b31      	ldr	r3, [pc, #196]	; (574 <dhex_dump+0xe4>)
/mnt/disk/raspbian-tee/optee_os/lib/libutils/ext/trace.c:232
     4ae:	ad05      	add	r5, sp, #20
/mnt/disk/raspbian-tee/optee_os/lib/libutils/ext/trace.c:235
     4b0:	f8df b0c4 	ldr.w	fp, [pc, #196]	; 578 <dhex_dump+0xe8>
/mnt/disk/raspbian-tee/optee_os/lib/libutils/ext/trace.c:240
     4b4:	447b      	add	r3, pc
     4b6:	9302      	str	r3, [sp, #8]
/mnt/disk/raspbian-tee/optee_os/lib/libutils/ext/trace.c:248
     4b8:	4b30      	ldr	r3, [pc, #192]	; (57c <dhex_dump+0xec>)
/mnt/disk/raspbian-tee/optee_os/lib/libutils/ext/trace.c:235
     4ba:	44fb      	add	fp, pc
/mnt/disk/raspbian-tee/optee_os/lib/libutils/ext/trace.c:232
     4bc:	2400      	movs	r4, #0
     4be:	f8c5 4100 	str.w	r4, [r5, #256]	; 0x100
/mnt/disk/raspbian-tee/optee_os/lib/libutils/ext/trace.c:248
     4c2:	447b      	add	r3, pc
     4c4:	9303      	str	r3, [sp, #12]
/mnt/disk/raspbian-tee/optee_os/lib/libutils/ext/trace.c:233 (discriminator 1)
     4c6:	9b50      	ldr	r3, [sp, #320]	; 0x140
     4c8:	429c      	cmp	r4, r3
     4ca:	db0f      	blt.n	4ec <dhex_dump+0x5c>
/mnt/disk/raspbian-tee/optee_os/lib/libutils/ext/trace.c:253
     4cc:	f8d5 3100 	ldr.w	r3, [r5, #256]	; 0x100
     4d0:	b14b      	cbz	r3, 4e6 <dhex_dump+0x56>
/mnt/disk/raspbian-tee/optee_os/lib/libutils/ext/trace.c:255
     4d2:	4b2b      	ldr	r3, [pc, #172]	; (580 <dhex_dump+0xf0>)
     4d4:	4642      	mov	r2, r8
     4d6:	9501      	str	r5, [sp, #4]
     4d8:	4651      	mov	r1, sl
     4da:	447b      	add	r3, pc
     4dc:	4648      	mov	r0, r9
     4de:	9300      	str	r3, [sp, #0]
     4e0:	2301      	movs	r3, #1
     4e2:	f7ff ff37 	bl	354 <trace_printf>
/mnt/disk/raspbian-tee/optee_os/lib/libutils/ext/trace.c:263
     4e6:	b047      	add	sp, #284	; 0x11c
     4e8:	e8bd 8ff0 	ldmia.w	sp!, {r4, r5, r6, r7, r8, r9, sl, fp, pc}
/mnt/disk/raspbian-tee/optee_os/lib/libutils/ext/trace.c:234
     4ec:	f014 070f 	ands.w	r7, r4, #15
     4f0:	d013      	beq.n	51a <dhex_dump+0x8a>
/mnt/disk/raspbian-tee/optee_os/lib/libutils/ext/trace.c:240
     4f2:	f816 2b01 	ldrb.w	r2, [r6], #1
     4f6:	4628      	mov	r0, r5
     4f8:	9902      	ldr	r1, [sp, #8]
     4fa:	f7ff feeb 	bl	2d4 <append>
/mnt/disk/raspbian-tee/optee_os/lib/libutils/ext/trace.c:241
     4fe:	b9a8      	cbnz	r0, 52c <dhex_dump+0x9c>
/mnt/disk/raspbian-tee/optee_os/lib/libutils/ext/trace.c:262
     500:	4820      	ldr	r0, [pc, #128]	; (584 <dhex_dump+0xf4>)
     502:	2203      	movs	r2, #3
     504:	4b20      	ldr	r3, [pc, #128]	; (588 <dhex_dump+0xf8>)
     506:	f44f 7183 	mov.w	r1, #262	; 0x106
     50a:	4478      	add	r0, pc
     50c:	447b      	add	r3, pc
     50e:	3005      	adds	r0, #5
     510:	9300      	str	r3, [sp, #0]
     512:	2301      	movs	r3, #1
     514:	f7ff ff1e 	bl	354 <trace_printf>
     518:	e7e5      	b.n	4e6 <dhex_dump+0x56>
/mnt/disk/raspbian-tee/optee_os/lib/libutils/ext/trace.c:235
     51a:	4633      	mov	r3, r6
     51c:	2208      	movs	r2, #8
     51e:	4659      	mov	r1, fp
     520:	4628      	mov	r0, r5
     522:	f7ff fed7 	bl	2d4 <append>
/mnt/disk/raspbian-tee/optee_os/lib/libutils/ext/trace.c:237
     526:	2800      	cmp	r0, #0
     528:	d1e3      	bne.n	4f2 <dhex_dump+0x62>
     52a:	e7e9      	b.n	500 <dhex_dump+0x70>
/mnt/disk/raspbian-tee/optee_os/lib/libutils/ext/trace.c:243
     52c:	4263      	negs	r3, r4
     52e:	f003 030f 	and.w	r3, r3, #15
     532:	bf58      	it	pl
     534:	425f      	negpl	r7, r3
     536:	2f07      	cmp	r7, #7
     538:	d108      	bne.n	54c <dhex_dump+0xbc>
/mnt/disk/raspbian-tee/optee_os/lib/libutils/ext/trace.c:244
     53a:	4914      	ldr	r1, [pc, #80]	; (58c <dhex_dump+0xfc>)
     53c:	4628      	mov	r0, r5
     53e:	4479      	add	r1, pc
     540:	f7ff fec8 	bl	2d4 <append>
/mnt/disk/raspbian-tee/optee_os/lib/libutils/ext/trace.c:245
     544:	2800      	cmp	r0, #0
     546:	d0db      	beq.n	500 <dhex_dump+0x70>
/mnt/disk/raspbian-tee/optee_os/lib/libutils/ext/trace.c:233 (discriminator 2)
     548:	3401      	adds	r4, #1
     54a:	e7bc      	b.n	4c6 <dhex_dump+0x36>
/mnt/disk/raspbian-tee/optee_os/lib/libutils/ext/trace.c:247
     54c:	2f0f      	cmp	r7, #15
     54e:	d1fb      	bne.n	548 <dhex_dump+0xb8>
/mnt/disk/raspbian-tee/optee_os/lib/libutils/ext/trace.c:248
     550:	9b03      	ldr	r3, [sp, #12]
     552:	4642      	mov	r2, r8
     554:	9300      	str	r3, [sp, #0]
     556:	4651      	mov	r1, sl
     558:	2301      	movs	r3, #1
     55a:	9501      	str	r5, [sp, #4]
     55c:	4648      	mov	r0, r9
     55e:	f7ff fef9 	bl	354 <trace_printf>
/mnt/disk/raspbian-tee/optee_os/lib/libutils/ext/trace.c:250
     562:	2300      	movs	r3, #0
     564:	f8c5 3100 	str.w	r3, [r5, #256]	; 0x100
     568:	e7ee      	b.n	548 <dhex_dump+0xb8>
     56a:	bf00      	nop
     56c:	00009028 	.word	0x00009028
     570:	00000014 	.word	0x00000014
     574:	00007c3e 	.word	0x00007c3e
     578:	00007c3e 	.word	0x00007c3e
     57c:	00007c3e 	.word	0x00007c3e
     580:	00007c26 	.word	0x00007c26
     584:	00007bbf 	.word	0x00007bbf
     588:	00007bf7 	.word	0x00007bf7
     58c:	00007bc0 	.word	0x00007bc0

00000590 <__vsnprintf>:
__vsnprintf():
/mnt/disk/raspbian-tee/optee_os/lib/libutils/ext/snprintk.c:137
     590:	e92d 4ff0 	stmdb	sp!, {r4, r5, r6, r7, r8, r9, sl, fp, lr}
/mnt/disk/raspbian-tee/optee_os/lib/libutils/ext/snprintk.c:141
     594:	4680      	mov	r8, r0
     596:	461f      	mov	r7, r3
/mnt/disk/raspbian-tee/optee_os/lib/libutils/ext/snprintk.c:137
     598:	b09f      	sub	sp, #124	; 0x7c
kprintf():
/mnt/disk/raspbian-tee/optee_os/lib/libutils/ext/snprintk.c:269
     59a:	2300      	movs	r3, #0
__vsnprintf():
/mnt/disk/raspbian-tee/optee_os/lib/libutils/ext/snprintk.c:137
     59c:	920b      	str	r2, [sp, #44]	; 0x2c
     59e:	f89d 20a0 	ldrb.w	r2, [sp, #160]	; 0xa0
     5a2:	9213      	str	r2, [sp, #76]	; 0x4c
/mnt/disk/raspbian-tee/optee_os/lib/libutils/ext/snprintk.c:141
     5a4:	4602      	mov	r2, r0
     5a6:	440a      	add	r2, r1
/mnt/disk/raspbian-tee/optee_os/lib/libutils/ext/snprintk.c:137
     5a8:	9010      	str	r0, [sp, #64]	; 0x40
     5aa:	9112      	str	r1, [sp, #72]	; 0x48
/mnt/disk/raspbian-tee/optee_os/lib/libutils/ext/snprintk.c:141
     5ac:	920e      	str	r2, [sp, #56]	; 0x38
kprintf():
/mnt/disk/raspbian-tee/optee_os/lib/libutils/ext/snprintk.c:269
     5ae:	930f      	str	r3, [sp, #60]	; 0x3c
/mnt/disk/raspbian-tee/optee_os/lib/libutils/ext/snprintk.c:267
     5b0:	930c      	str	r3, [sp, #48]	; 0x30
/mnt/disk/raspbian-tee/optee_os/lib/libutils/ext/snprintk.c:275
     5b2:	9b0b      	ldr	r3, [sp, #44]	; 0x2c
     5b4:	781b      	ldrb	r3, [r3, #0]
     5b6:	2b25      	cmp	r3, #37	; 0x25
     5b8:	d024      	beq.n	604 <__vsnprintf+0x74>
     5ba:	b993      	cbnz	r3, 5e2 <__vsnprintf+0x52>
__vsnprintf():
/mnt/disk/raspbian-tee/optee_os/lib/libutils/ext/snprintk.c:143
     5bc:	9b10      	ldr	r3, [sp, #64]	; 0x40
     5be:	b163      	cbz	r3, 5da <__vsnprintf+0x4a>
/mnt/disk/raspbian-tee/optee_os/lib/libutils/ext/snprintk.c:143 (discriminator 1)
     5c0:	9b12      	ldr	r3, [sp, #72]	; 0x48
     5c2:	b153      	cbz	r3, 5da <__vsnprintf+0x4a>
/mnt/disk/raspbian-tee/optee_os/lib/libutils/ext/snprintk.c:145
     5c4:	9a0c      	ldr	r2, [sp, #48]	; 0x30
     5c6:	4293      	cmp	r3, r2
     5c8:	f04f 0300 	mov.w	r3, #0
/mnt/disk/raspbian-tee/optee_os/lib/libutils/ext/snprintk.c:146
     5cc:	9a10      	ldr	r2, [sp, #64]	; 0x40
/mnt/disk/raspbian-tee/optee_os/lib/libutils/ext/snprintk.c:145
     5ce:	f200 835f 	bhi.w	c90 <__vsnprintf+0x700>
/mnt/disk/raspbian-tee/optee_os/lib/libutils/ext/snprintk.c:146
     5d2:	9912      	ldr	r1, [sp, #72]	; 0x48
     5d4:	440a      	add	r2, r1
     5d6:	f802 3c01 	strb.w	r3, [r2, #-1]
/mnt/disk/raspbian-tee/optee_os/lib/libutils/ext/snprintk.c:151
     5da:	980c      	ldr	r0, [sp, #48]	; 0x30
     5dc:	b01f      	add	sp, #124	; 0x7c
     5de:	e8bd 8ff0 	ldmia.w	sp!, {r4, r5, r6, r7, r8, r9, sl, fp, pc}
kprintf():
/mnt/disk/raspbian-tee/optee_os/lib/libutils/ext/snprintk.c:276
     5e2:	9a0c      	ldr	r2, [sp, #48]	; 0x30
     5e4:	3201      	adds	r2, #1
     5e6:	920c      	str	r2, [sp, #48]	; 0x30
/mnt/disk/raspbian-tee/optee_os/lib/libutils/ext/snprintk.c:277
     5e8:	f1b8 0f00 	cmp.w	r8, #0
     5ec:	d006      	beq.n	5fc <__vsnprintf+0x6c>
     5ee:	9a0e      	ldr	r2, [sp, #56]	; 0x38
     5f0:	4542      	cmp	r2, r8
     5f2:	d903      	bls.n	5fc <__vsnprintf+0x6c>
     5f4:	f888 3000 	strb.w	r3, [r8]
     5f8:	f108 0801 	add.w	r8, r8, #1
/mnt/disk/raspbian-tee/optee_os/lib/libutils/ext/snprintk.c:275
     5fc:	9b0b      	ldr	r3, [sp, #44]	; 0x2c
     5fe:	3301      	adds	r3, #1
     600:	930b      	str	r3, [sp, #44]	; 0x2c
     602:	e7d6      	b.n	5b2 <__vsnprintf+0x22>
/mnt/disk/raspbian-tee/optee_os/lib/libutils/ext/snprintk.c:282
     604:	9b0b      	ldr	r3, [sp, #44]	; 0x2c
/mnt/disk/raspbian-tee/optee_os/lib/libutils/ext/snprintk.c:288
     606:	f04f 0a00 	mov.w	sl, #0
/mnt/disk/raspbian-tee/optee_os/lib/libutils/ext/snprintk.c:282
     60a:	463a      	mov	r2, r7
/mnt/disk/raspbian-tee/optee_os/lib/libutils/ext/snprintk.c:287
     60c:	f04f 3bff 	mov.w	fp, #4294967295	; 0xffffffff
/mnt/disk/raspbian-tee/optee_os/lib/libutils/ext/snprintk.c:282
     610:	3301      	adds	r3, #1
/mnt/disk/raspbian-tee/optee_os/lib/libutils/ext/snprintk.c:284
     612:	4656      	mov	r6, sl
/mnt/disk/raspbian-tee/optee_os/lib/libutils/ext/snprintk.c:286
     614:	f8cd a034 	str.w	sl, [sp, #52]	; 0x34
/mnt/disk/raspbian-tee/optee_os/lib/libutils/ext/snprintk.c:290
     618:	f893 9000 	ldrb.w	r9, [r3]
     61c:	1c59      	adds	r1, r3, #1
     61e:	910b      	str	r1, [sp, #44]	; 0x2c
/mnt/disk/raspbian-tee/optee_os/lib/libutils/ext/snprintk.c:291
     620:	f1b9 0f63 	cmp.w	r9, #99	; 0x63
     624:	f000 8163 	beq.w	8ee <__vsnprintf+0x35e>
     628:	f300 8095 	bgt.w	756 <__vsnprintf+0x1c6>
     62c:	f1b9 0f30 	cmp.w	r9, #48	; 0x30
     630:	f000 8147 	beq.w	8c2 <__vsnprintf+0x332>
     634:	dc26      	bgt.n	684 <__vsnprintf+0xf4>
     636:	f1b9 0f2a 	cmp.w	r9, #42	; 0x2a
     63a:	f000 8119 	beq.w	870 <__vsnprintf+0x2e0>
     63e:	dc13      	bgt.n	668 <__vsnprintf+0xd8>
     640:	f1b9 0f20 	cmp.w	r9, #32
     644:	f000 810a 	beq.w	85c <__vsnprintf+0x2cc>
     648:	f1b9 0f23 	cmp.w	r9, #35	; 0x23
     64c:	f000 810d 	beq.w	86a <__vsnprintf+0x2da>
/mnt/disk/raspbian-tee/optee_os/lib/libutils/ext/snprintk.c:541
     650:	f1b9 0f00 	cmp.w	r9, #0
     654:	d0b2      	beq.n	5bc <__vsnprintf+0x2c>
/mnt/disk/raspbian-tee/optee_os/lib/libutils/ext/snprintk.c:545
     656:	ab1e      	add	r3, sp, #120	; 0x78
     658:	4617      	mov	r7, r2
/mnt/disk/raspbian-tee/optee_os/lib/libutils/ext/snprintk.c:546
     65a:	f04f 0b01 	mov.w	fp, #1
/mnt/disk/raspbian-tee/optee_os/lib/libutils/ext/snprintk.c:545
     65e:	f803 9d28 	strb.w	r9, [r3, #-40]!
     662:	e0c0      	b.n	7e6 <__vsnprintf+0x256>
/mnt/disk/raspbian-tee/optee_os/lib/libutils/ext/snprintk.c:311
     664:	461a      	mov	r2, r3
     666:	e00b      	b.n	680 <__vsnprintf+0xf0>
/mnt/disk/raspbian-tee/optee_os/lib/libutils/ext/snprintk.c:291
     668:	f1b9 0f2d 	cmp.w	r9, #45	; 0x2d
     66c:	f000 8109 	beq.w	882 <__vsnprintf+0x2f2>
     670:	f1b9 0f2e 	cmp.w	r9, #46	; 0x2e
     674:	f000 8108 	beq.w	888 <__vsnprintf+0x2f8>
     678:	f1b9 0f2b 	cmp.w	r9, #43	; 0x2b
     67c:	d1e8      	bne.n	650 <__vsnprintf+0xc0>
/mnt/disk/raspbian-tee/optee_os/lib/libutils/ext/snprintk.c:319
     67e:	46ca      	mov	sl, r9
/mnt/disk/raspbian-tee/optee_os/lib/libutils/ext/snprintk.c:322
     680:	9b0b      	ldr	r3, [sp, #44]	; 0x2c
     682:	e7c9      	b.n	618 <__vsnprintf+0x88>
/mnt/disk/raspbian-tee/optee_os/lib/libutils/ext/snprintk.c:291
     684:	f1b9 0f44 	cmp.w	r9, #68	; 0x44
     688:	f000 818a 	beq.w	9a0 <__vsnprintf+0x410>
     68c:	dc14      	bgt.n	6b8 <__vsnprintf+0x128>
     68e:	f1b9 0f39 	cmp.w	r9, #57	; 0x39
     692:	dcdd      	bgt.n	650 <__vsnprintf+0xc0>
     694:	2300      	movs	r3, #0
     696:	930d      	str	r3, [sp, #52]	; 0x34
/mnt/disk/raspbian-tee/optee_os/lib/libutils/ext/snprintk.c:346
     698:	9b0d      	ldr	r3, [sp, #52]	; 0x34
     69a:	f1a9 0930 	sub.w	r9, r9, #48	; 0x30
     69e:	210a      	movs	r1, #10
     6a0:	fb01 9303 	mla	r3, r1, r3, r9
     6a4:	930d      	str	r3, [sp, #52]	; 0x34
/mnt/disk/raspbian-tee/optee_os/lib/libutils/ext/snprintk.c:347
     6a6:	9b0b      	ldr	r3, [sp, #44]	; 0x2c
     6a8:	f813 9b01 	ldrb.w	r9, [r3], #1
     6ac:	930b      	str	r3, [sp, #44]	; 0x2c
/mnt/disk/raspbian-tee/optee_os/lib/libutils/ext/snprintk.c:348
     6ae:	f1a9 0330 	sub.w	r3, r9, #48	; 0x30
     6b2:	2b09      	cmp	r3, #9
     6b4:	d9f0      	bls.n	698 <__vsnprintf+0x108>
     6b6:	e7b3      	b.n	620 <__vsnprintf+0x90>
/mnt/disk/raspbian-tee/optee_os/lib/libutils/ext/snprintk.c:291
     6b8:	f1b9 0f55 	cmp.w	r9, #85	; 0x55
     6bc:	f000 823d 	beq.w	b3a <__vsnprintf+0x5aa>
     6c0:	f1b9 0f58 	cmp.w	r9, #88	; 0x58
     6c4:	f000 80ab 	beq.w	81e <__vsnprintf+0x28e>
     6c8:	f1b9 0f4f 	cmp.w	r9, #79	; 0x4f
     6cc:	d1c0      	bne.n	650 <__vsnprintf+0xc0>
/mnt/disk/raspbian-tee/optee_os/lib/libutils/ext/snprintk.c:408
     6ce:	f046 0610 	orr.w	r6, r6, #16
/mnt/disk/raspbian-tee/optee_os/lib/libutils/ext/snprintk.c:411
     6d2:	0635      	lsls	r5, r6, #24
     6d4:	f140 81c0 	bpl.w	a58 <__vsnprintf+0x4c8>
     6d8:	3207      	adds	r2, #7
     6da:	f022 0207 	bic.w	r2, r2, #7
     6de:	f102 0708 	add.w	r7, r2, #8
     6e2:	e9d2 4500 	ldrd	r4, r5, [r2]
/mnt/disk/raspbian-tee/optee_os/lib/libutils/ext/snprintk.c:488
     6e6:	f04f 0a00 	mov.w	sl, #0
     6ea:	f1bb 3fff 	cmp.w	fp, #4294967295	; 0xffffffff
     6ee:	d011      	beq.n	714 <__vsnprintf+0x184>
     6f0:	4653      	mov	r3, sl
/mnt/disk/raspbian-tee/optee_os/lib/libutils/ext/snprintk.c:489
     6f2:	f426 6680 	bic.w	r6, r6, #1024	; 0x400
/mnt/disk/raspbian-tee/optee_os/lib/libutils/ext/snprintk.c:497
     6f6:	ea54 0205 	orrs.w	r2, r4, r5
     6fa:	d105      	bne.n	708 <__vsnprintf+0x178>
     6fc:	f1bb 0f00 	cmp.w	fp, #0
     700:	f000 8269 	beq.w	bd6 <__vsnprintf+0x646>
     704:	2400      	movs	r4, #0
     706:	2500      	movs	r5, #0
/mnt/disk/raspbian-tee/optee_os/lib/libutils/ext/snprintk.c:503
     708:	2b01      	cmp	r3, #1
     70a:	f000 8161 	beq.w	9d0 <__vsnprintf+0x440>
     70e:	2b02      	cmp	r3, #2
     710:	f000 81f8 	beq.w	b04 <__vsnprintf+0x574>
/mnt/disk/raspbian-tee/optee_os/lib/libutils/ext/snprintk.c:488
     714:	f10d 0275 	add.w	r2, sp, #117	; 0x75
/mnt/disk/raspbian-tee/optee_os/lib/libutils/ext/snprintk.c:507
     718:	08e0      	lsrs	r0, r4, #3
     71a:	ea4f 0cd5 	mov.w	ip, r5, lsr #3
     71e:	ea40 7045 	orr.w	r0, r0, r5, lsl #29
/mnt/disk/raspbian-tee/optee_os/lib/libutils/ext/snprintk.c:506
     722:	f004 0107 	and.w	r1, r4, #7
/mnt/disk/raspbian-tee/optee_os/lib/libutils/ext/snprintk.c:507
     726:	4665      	mov	r5, ip
     728:	4604      	mov	r4, r0
/mnt/disk/raspbian-tee/optee_os/lib/libutils/ext/snprintk.c:506
     72a:	3130      	adds	r1, #48	; 0x30
     72c:	1e53      	subs	r3, r2, #1
     72e:	f802 1c01 	strb.w	r1, [r2, #-1]
/mnt/disk/raspbian-tee/optee_os/lib/libutils/ext/snprintk.c:508
     732:	ea54 0005 	orrs.w	r0, r4, r5
     736:	f040 8239 	bne.w	bac <__vsnprintf+0x61c>
/mnt/disk/raspbian-tee/optee_os/lib/libutils/ext/snprintk.c:510
     73a:	07f5      	lsls	r5, r6, #31
     73c:	d505      	bpl.n	74a <__vsnprintf+0x1ba>
     73e:	2930      	cmp	r1, #48	; 0x30
     740:	d003      	beq.n	74a <__vsnprintf+0x1ba>
/mnt/disk/raspbian-tee/optee_os/lib/libutils/ext/snprintk.c:511
     742:	2130      	movs	r1, #48	; 0x30
     744:	f803 1c01 	strb.w	r1, [r3, #-1]
     748:	1e93      	subs	r3, r2, #2
/mnt/disk/raspbian-tee/optee_os/lib/libutils/ext/snprintk.c:537
     74a:	f10d 0275 	add.w	r2, sp, #117	; 0x75
     74e:	4658      	mov	r0, fp
     750:	eba2 0b03 	sub.w	fp, r2, r3
     754:	e0d5      	b.n	902 <__vsnprintf+0x372>
/mnt/disk/raspbian-tee/optee_os/lib/libutils/ext/snprintk.c:291
     756:	f1b9 0f6f 	cmp.w	r9, #111	; 0x6f
     75a:	d0ba      	beq.n	6d2 <__vsnprintf+0x142>
     75c:	dc1e      	bgt.n	79c <__vsnprintf+0x20c>
     75e:	f1b9 0f69 	cmp.w	r9, #105	; 0x69
     762:	f000 811f 	beq.w	9a4 <__vsnprintf+0x414>
     766:	dc0a      	bgt.n	77e <__vsnprintf+0x1ee>
     768:	f1b9 0f64 	cmp.w	r9, #100	; 0x64
     76c:	f000 811a 	beq.w	9a4 <__vsnprintf+0x414>
     770:	f1b9 0f68 	cmp.w	r9, #104	; 0x68
     774:	f47f af6c 	bne.w	650 <__vsnprintf+0xc0>
/mnt/disk/raspbian-tee/optee_os/lib/libutils/ext/snprintk.c:352
     778:	f046 0640 	orr.w	r6, r6, #64	; 0x40
     77c:	e780      	b.n	680 <__vsnprintf+0xf0>
/mnt/disk/raspbian-tee/optee_os/lib/libutils/ext/snprintk.c:291
     77e:	f1b9 0f6c 	cmp.w	r9, #108	; 0x6c
     782:	f000 80a1 	beq.w	8c8 <__vsnprintf+0x338>
     786:	f1b9 0f6e 	cmp.w	r9, #110	; 0x6e
     78a:	f000 8146 	beq.w	a1a <__vsnprintf+0x48a>
     78e:	f1b9 0f6a 	cmp.w	r9, #106	; 0x6a
     792:	f47f af5d 	bne.w	650 <__vsnprintf+0xc0>
/mnt/disk/raspbian-tee/optee_os/lib/libutils/ext/snprintk.c:355
     796:	f046 0680 	orr.w	r6, r6, #128	; 0x80
     79a:	e771      	b.n	680 <__vsnprintf+0xf0>
/mnt/disk/raspbian-tee/optee_os/lib/libutils/ext/snprintk.c:291
     79c:	f1b9 0f74 	cmp.w	r9, #116	; 0x74
     7a0:	f000 809f 	beq.w	8e2 <__vsnprintf+0x352>
     7a4:	dc22      	bgt.n	7ec <__vsnprintf+0x25c>
     7a6:	f1b9 0f71 	cmp.w	r9, #113	; 0x71
     7aa:	f000 8094 	beq.w	8d6 <__vsnprintf+0x346>
     7ae:	f2c0 8167 	blt.w	a80 <__vsnprintf+0x4f0>
     7b2:	f1b9 0f73 	cmp.w	r9, #115	; 0x73
     7b6:	f47f af4b 	bne.w	650 <__vsnprintf+0xc0>
/mnt/disk/raspbian-tee/optee_os/lib/libutils/ext/snprintk.c:442
     7ba:	6813      	ldr	r3, [r2, #0]
     7bc:	1d17      	adds	r7, r2, #4
     7be:	b913      	cbnz	r3, 7c6 <__vsnprintf+0x236>
/mnt/disk/raspbian-tee/optee_os/lib/libutils/ext/snprintk.c:444
     7c0:	f8df 34ec 	ldr.w	r3, [pc, #1260]	; cb0 <__vsnprintf+0x720>
     7c4:	447b      	add	r3, pc
/mnt/disk/raspbian-tee/optee_os/lib/libutils/ext/snprintk.c:445
     7c6:	f1bb 3fff 	cmp.w	fp, #4294967295	; 0xffffffff
     7ca:	f000 81ad 	beq.w	b28 <__vsnprintf+0x598>
/mnt/disk/raspbian-tee/optee_os/lib/libutils/ext/snprintk.c:451
     7ce:	4618      	mov	r0, r3
     7d0:	465a      	mov	r2, fp
     7d2:	2100      	movs	r1, #0
     7d4:	9311      	str	r3, [sp, #68]	; 0x44
     7d6:	f007 f932 	bl	7a3e <memchr>
/mnt/disk/raspbian-tee/optee_os/lib/libutils/ext/snprintk.c:453
     7da:	9b11      	ldr	r3, [sp, #68]	; 0x44
     7dc:	b120      	cbz	r0, 7e8 <__vsnprintf+0x258>
/mnt/disk/raspbian-tee/optee_os/lib/libutils/ext/snprintk.c:454
     7de:	1ac0      	subs	r0, r0, r3
     7e0:	4583      	cmp	fp, r0
     7e2:	bfa8      	it	ge
     7e4:	4683      	movge	fp, r0
/mnt/disk/raspbian-tee/optee_os/lib/libutils/ext/snprintk.c:285
     7e6:	2000      	movs	r0, #0
/mnt/disk/raspbian-tee/optee_os/lib/libutils/ext/snprintk.c:461
     7e8:	4682      	mov	sl, r0
     7ea:	e08a      	b.n	902 <__vsnprintf+0x372>
/mnt/disk/raspbian-tee/optee_os/lib/libutils/ext/snprintk.c:291
     7ec:	f1b9 0f78 	cmp.w	r9, #120	; 0x78
     7f0:	f000 81c2 	beq.w	b78 <__vsnprintf+0x5e8>
     7f4:	f1b9 0f7a 	cmp.w	r9, #122	; 0x7a
     7f8:	d076      	beq.n	8e8 <__vsnprintf+0x358>
     7fa:	f1b9 0f75 	cmp.w	r9, #117	; 0x75
     7fe:	f47f af27 	bne.w	650 <__vsnprintf+0xc0>
/mnt/disk/raspbian-tee/optee_os/lib/libutils/ext/snprintk.c:467
     802:	f016 0380 	ands.w	r3, r6, #128	; 0x80
     806:	f000 819b 	beq.w	b40 <__vsnprintf+0x5b0>
     80a:	3207      	adds	r2, #7
     80c:	f022 0207 	bic.w	r2, r2, #7
     810:	f102 0708 	add.w	r7, r2, #8
     814:	e9d2 4500 	ldrd	r4, r5, [r2]
/mnt/disk/raspbian-tee/optee_os/lib/libutils/ext/snprintk.c:482
     818:	f04f 0a00 	mov.w	sl, #0
     81c:	e0d4      	b.n	9c8 <__vsnprintf+0x438>
/mnt/disk/raspbian-tee/optee_os/lib/libutils/ext/snprintk.c:471
     81e:	f8df 3494 	ldr.w	r3, [pc, #1172]	; cb4 <__vsnprintf+0x724>
     822:	447b      	add	r3, pc
/mnt/disk/raspbian-tee/optee_os/lib/libutils/ext/snprintk.c:474
     824:	930f      	str	r3, [sp, #60]	; 0x3c
/mnt/disk/raspbian-tee/optee_os/lib/libutils/ext/snprintk.c:475
     826:	0637      	lsls	r7, r6, #24
     828:	f140 81aa 	bpl.w	b80 <__vsnprintf+0x5f0>
     82c:	3207      	adds	r2, #7
     82e:	f022 0207 	bic.w	r2, r2, #7
     832:	f102 0708 	add.w	r7, r2, #8
     836:	e9d2 4500 	ldrd	r4, r5, [r2]
/mnt/disk/raspbian-tee/optee_os/lib/libutils/ext/snprintk.c:478
     83a:	07f3      	lsls	r3, r6, #31
     83c:	f140 815c 	bpl.w	af8 <__vsnprintf+0x568>
     840:	ea54 0305 	orrs.w	r3, r4, r5
     844:	f000 822d 	beq.w	ca2 <__vsnprintf+0x712>
/mnt/disk/raspbian-tee/optee_os/lib/libutils/ext/snprintk.c:479
     848:	f046 0602 	orr.w	r6, r6, #2
/mnt/disk/raspbian-tee/optee_os/lib/libutils/ext/snprintk.c:488
     84c:	f1bb 3fff 	cmp.w	fp, #4294967295	; 0xffffffff
     850:	f000 822a 	beq.w	ca8 <__vsnprintf+0x718>
     854:	f04f 0a00 	mov.w	sl, #0
     858:	2302      	movs	r3, #2
     85a:	e74a      	b.n	6f2 <__vsnprintf+0x162>
/mnt/disk/raspbian-tee/optee_os/lib/libutils/ext/snprintk.c:299
     85c:	f1ba 0f00 	cmp.w	sl, #0
     860:	f04f 0320 	mov.w	r3, #32
     864:	bf08      	it	eq
     866:	469a      	moveq	sl, r3
     868:	e70a      	b.n	680 <__vsnprintf+0xf0>
/mnt/disk/raspbian-tee/optee_os/lib/libutils/ext/snprintk.c:302
     86a:	f046 0601 	orr.w	r6, r6, #1
     86e:	e707      	b.n	680 <__vsnprintf+0xf0>
/mnt/disk/raspbian-tee/optee_os/lib/libutils/ext/snprintk.c:311
     870:	1d13      	adds	r3, r2, #4
     872:	6812      	ldr	r2, [r2, #0]
     874:	920d      	str	r2, [sp, #52]	; 0x34
     876:	2a00      	cmp	r2, #0
     878:	f6bf aef4 	bge.w	664 <__vsnprintf+0xd4>
/mnt/disk/raspbian-tee/optee_os/lib/libutils/ext/snprintk.c:313
     87c:	4252      	negs	r2, r2
     87e:	920d      	str	r2, [sp, #52]	; 0x34
/mnt/disk/raspbian-tee/optee_os/lib/libutils/ext/snprintk.c:311
     880:	461a      	mov	r2, r3
/mnt/disk/raspbian-tee/optee_os/lib/libutils/ext/snprintk.c:316
     882:	f046 0604 	orr.w	r6, r6, #4
     886:	e6fb      	b.n	680 <__vsnprintf+0xf0>
/mnt/disk/raspbian-tee/optee_os/lib/libutils/ext/snprintk.c:322
     888:	990b      	ldr	r1, [sp, #44]	; 0x2c
     88a:	9b0b      	ldr	r3, [sp, #44]	; 0x2c
     88c:	f891 9000 	ldrb.w	r9, [r1]
     890:	3301      	adds	r3, #1
     892:	f1b9 0f2a 	cmp.w	r9, #42	; 0x2a
     896:	d00e      	beq.n	8b6 <__vsnprintf+0x326>
     898:	f04f 0b00 	mov.w	fp, #0
/mnt/disk/raspbian-tee/optee_os/lib/libutils/ext/snprintk.c:330
     89c:	930b      	str	r3, [sp, #44]	; 0x2c
/mnt/disk/raspbian-tee/optee_os/lib/libutils/ext/snprintk.c:328
     89e:	f1a9 0330 	sub.w	r3, r9, #48	; 0x30
     8a2:	2b09      	cmp	r3, #9
     8a4:	f63f aebc 	bhi.w	620 <__vsnprintf+0x90>
/mnt/disk/raspbian-tee/optee_os/lib/libutils/ext/snprintk.c:329
     8a8:	210a      	movs	r1, #10
     8aa:	fb01 3b0b 	mla	fp, r1, fp, r3
/mnt/disk/raspbian-tee/optee_os/lib/libutils/ext/snprintk.c:330
     8ae:	9b0b      	ldr	r3, [sp, #44]	; 0x2c
     8b0:	f813 9b01 	ldrb.w	r9, [r3], #1
     8b4:	e7f2      	b.n	89c <__vsnprintf+0x30c>
/mnt/disk/raspbian-tee/optee_os/lib/libutils/ext/snprintk.c:324
     8b6:	6811      	ldr	r1, [r2, #0]
/mnt/disk/raspbian-tee/optee_os/lib/libutils/ext/snprintk.c:323
     8b8:	3204      	adds	r2, #4
/mnt/disk/raspbian-tee/optee_os/lib/libutils/ext/snprintk.c:322
     8ba:	930b      	str	r3, [sp, #44]	; 0x2c
/mnt/disk/raspbian-tee/optee_os/lib/libutils/ext/snprintk.c:324
     8bc:	ea41 7be1 	orr.w	fp, r1, r1, asr #31
     8c0:	e6de      	b.n	680 <__vsnprintf+0xf0>
/mnt/disk/raspbian-tee/optee_os/lib/libutils/ext/snprintk.c:340
     8c2:	f446 6680 	orr.w	r6, r6, #1024	; 0x400
     8c6:	e6db      	b.n	680 <__vsnprintf+0xf0>
/mnt/disk/raspbian-tee/optee_os/lib/libutils/ext/snprintk.c:358
     8c8:	9b0b      	ldr	r3, [sp, #44]	; 0x2c
     8ca:	781b      	ldrb	r3, [r3, #0]
     8cc:	2b6c      	cmp	r3, #108	; 0x6c
     8ce:	d105      	bne.n	8dc <__vsnprintf+0x34c>
/mnt/disk/raspbian-tee/optee_os/lib/libutils/ext/snprintk.c:359
     8d0:	9b0b      	ldr	r3, [sp, #44]	; 0x2c
     8d2:	3301      	adds	r3, #1
     8d4:	930b      	str	r3, [sp, #44]	; 0x2c
/mnt/disk/raspbian-tee/optee_os/lib/libutils/ext/snprintk.c:366
     8d6:	f046 0620 	orr.w	r6, r6, #32
     8da:	e6d1      	b.n	680 <__vsnprintf+0xf0>
/mnt/disk/raspbian-tee/optee_os/lib/libutils/ext/snprintk.c:362
     8dc:	f046 0610 	orr.w	r6, r6, #16
     8e0:	e6ce      	b.n	680 <__vsnprintf+0xf0>
/mnt/disk/raspbian-tee/optee_os/lib/libutils/ext/snprintk.c:369
     8e2:	f446 7680 	orr.w	r6, r6, #256	; 0x100
     8e6:	e6cb      	b.n	680 <__vsnprintf+0xf0>
/mnt/disk/raspbian-tee/optee_os/lib/libutils/ext/snprintk.c:372
     8e8:	f446 7600 	orr.w	r6, r6, #512	; 0x200
     8ec:	e6c8      	b.n	680 <__vsnprintf+0xf0>
/mnt/disk/raspbian-tee/optee_os/lib/libutils/ext/snprintk.c:375
     8ee:	ab1e      	add	r3, sp, #120	; 0x78
/mnt/disk/raspbian-tee/optee_os/lib/libutils/ext/snprintk.c:285
     8f0:	f04f 0a00 	mov.w	sl, #0
/mnt/disk/raspbian-tee/optee_os/lib/libutils/ext/snprintk.c:375
     8f4:	1d17      	adds	r7, r2, #4
/mnt/disk/raspbian-tee/optee_os/lib/libutils/ext/snprintk.c:376
     8f6:	f04f 0b01 	mov.w	fp, #1
/mnt/disk/raspbian-tee/optee_os/lib/libutils/ext/snprintk.c:375
     8fa:	6812      	ldr	r2, [r2, #0]
/mnt/disk/raspbian-tee/optee_os/lib/libutils/ext/snprintk.c:377
     8fc:	4650      	mov	r0, sl
/mnt/disk/raspbian-tee/optee_os/lib/libutils/ext/snprintk.c:375
     8fe:	f803 2d28 	strb.w	r2, [r3, #-40]!
/mnt/disk/raspbian-tee/optee_os/lib/libutils/ext/snprintk.c:565
     902:	4558      	cmp	r0, fp
     904:	4602      	mov	r2, r0
     906:	bfb8      	it	lt
     908:	465a      	movlt	r2, fp
/mnt/disk/raspbian-tee/optee_os/lib/libutils/ext/snprintk.c:566
     90a:	f1ba 0f00 	cmp.w	sl, #0
     90e:	f000 8165 	beq.w	bdc <__vsnprintf+0x64c>
/mnt/disk/raspbian-tee/optee_os/lib/libutils/ext/snprintk.c:567
     912:	3201      	adds	r2, #1
/mnt/disk/raspbian-tee/optee_os/lib/libutils/ext/snprintk.c:572
     914:	990d      	ldr	r1, [sp, #52]	; 0x34
     916:	9c0c      	ldr	r4, [sp, #48]	; 0x30
     918:	4291      	cmp	r1, r2
     91a:	bfb8      	it	lt
     91c:	4611      	movlt	r1, r2
     91e:	440c      	add	r4, r1
/mnt/disk/raspbian-tee/optee_os/lib/libutils/ext/snprintk.c:575
     920:	f240 4104 	movw	r1, #1028	; 0x404
/mnt/disk/raspbian-tee/optee_os/lib/libutils/ext/snprintk.c:572
     924:	940c      	str	r4, [sp, #48]	; 0x30
/mnt/disk/raspbian-tee/optee_os/lib/libutils/ext/snprintk.c:575
     926:	ea16 0401 	ands.w	r4, r6, r1
     92a:	d106      	bne.n	93a <__vsnprintf+0x3aa>
/mnt/disk/raspbian-tee/optee_os/lib/libutils/ext/snprintk.c:576
     92c:	990d      	ldr	r1, [sp, #52]	; 0x34
/mnt/disk/raspbian-tee/optee_os/lib/libutils/ext/snprintk.c:578
     92e:	f04f 0c20 	mov.w	ip, #32
/mnt/disk/raspbian-tee/optee_os/lib/libutils/ext/snprintk.c:576
     932:	1a89      	subs	r1, r1, r2
/mnt/disk/raspbian-tee/optee_os/lib/libutils/ext/snprintk.c:577
     934:	2900      	cmp	r1, #0
     936:	f300 8155 	bgt.w	be4 <__vsnprintf+0x654>
/mnt/disk/raspbian-tee/optee_os/lib/libutils/ext/snprintk.c:582
     93a:	f1ba 0f00 	cmp.w	sl, #0
     93e:	f000 8166 	beq.w	c0e <__vsnprintf+0x67e>
/mnt/disk/raspbian-tee/optee_os/lib/libutils/ext/snprintk.c:583
     942:	f1b8 0f00 	cmp.w	r8, #0
     946:	f040 8159 	bne.w	bfc <__vsnprintf+0x66c>
/mnt/disk/raspbian-tee/optee_os/lib/libutils/ext/snprintk.c:586
     94a:	f04f 0800 	mov.w	r8, #0
/mnt/disk/raspbian-tee/optee_os/lib/libutils/ext/snprintk.c:590
     94e:	f5b4 6f80 	cmp.w	r4, #1024	; 0x400
     952:	d105      	bne.n	960 <__vsnprintf+0x3d0>
/mnt/disk/raspbian-tee/optee_os/lib/libutils/ext/snprintk.c:591
     954:	990d      	ldr	r1, [sp, #52]	; 0x34
/mnt/disk/raspbian-tee/optee_os/lib/libutils/ext/snprintk.c:593
     956:	2430      	movs	r4, #48	; 0x30
/mnt/disk/raspbian-tee/optee_os/lib/libutils/ext/snprintk.c:591
     958:	1a89      	subs	r1, r1, r2
/mnt/disk/raspbian-tee/optee_os/lib/libutils/ext/snprintk.c:592
     95a:	2900      	cmp	r1, #0
     95c:	f300 8173 	bgt.w	c46 <__vsnprintf+0x6b6>
/mnt/disk/raspbian-tee/optee_os/lib/libutils/ext/snprintk.c:597
     960:	eba0 000b 	sub.w	r0, r0, fp
/mnt/disk/raspbian-tee/optee_os/lib/libutils/ext/snprintk.c:599
     964:	2130      	movs	r1, #48	; 0x30
/mnt/disk/raspbian-tee/optee_os/lib/libutils/ext/snprintk.c:598
     966:	2800      	cmp	r0, #0
     968:	f300 8179 	bgt.w	c5e <__vsnprintf+0x6ce>
     96c:	eb03 010b 	add.w	r1, r3, fp
/mnt/disk/raspbian-tee/optee_os/lib/libutils/ext/snprintk.c:602
     970:	428b      	cmp	r3, r1
     972:	f040 8180 	bne.w	c76 <__vsnprintf+0x6e6>
/mnt/disk/raspbian-tee/optee_os/lib/libutils/ext/snprintk.c:605
     976:	0773      	lsls	r3, r6, #29
     978:	f57f ae1b 	bpl.w	5b2 <__vsnprintf+0x22>
/mnt/disk/raspbian-tee/optee_os/lib/libutils/ext/snprintk.c:606
     97c:	9b0d      	ldr	r3, [sp, #52]	; 0x34
     97e:	1a9b      	subs	r3, r3, r2
/mnt/disk/raspbian-tee/optee_os/lib/libutils/ext/snprintk.c:608
     980:	2220      	movs	r2, #32
/mnt/disk/raspbian-tee/optee_os/lib/libutils/ext/snprintk.c:607
     982:	2b00      	cmp	r3, #0
     984:	f77f ae15 	ble.w	5b2 <__vsnprintf+0x22>
/mnt/disk/raspbian-tee/optee_os/lib/libutils/ext/snprintk.c:608
     988:	f1b8 0f00 	cmp.w	r8, #0
     98c:	d006      	beq.n	99c <__vsnprintf+0x40c>
     98e:	990e      	ldr	r1, [sp, #56]	; 0x38
     990:	4541      	cmp	r1, r8
     992:	d903      	bls.n	99c <__vsnprintf+0x40c>
     994:	f888 2000 	strb.w	r2, [r8]
     998:	f108 0801 	add.w	r8, r8, #1
     99c:	3b01      	subs	r3, #1
     99e:	e7f0      	b.n	982 <__vsnprintf+0x3f2>
/mnt/disk/raspbian-tee/optee_os/lib/libutils/ext/snprintk.c:380
     9a0:	f046 0610 	orr.w	r6, r6, #16
/mnt/disk/raspbian-tee/optee_os/lib/libutils/ext/snprintk.c:384
     9a4:	0631      	lsls	r1, r6, #24
     9a6:	d523      	bpl.n	9f0 <__vsnprintf+0x460>
     9a8:	3207      	adds	r2, #7
     9aa:	f022 0207 	bic.w	r2, r2, #7
     9ae:	f102 0708 	add.w	r7, r2, #8
     9b2:	e9d2 4500 	ldrd	r4, r5, [r2]
/mnt/disk/raspbian-tee/optee_os/lib/libutils/ext/snprintk.c:385
     9b6:	2c00      	cmp	r4, #0
     9b8:	f175 0300 	sbcs.w	r3, r5, #0
     9bc:	da04      	bge.n	9c8 <__vsnprintf+0x438>
/mnt/disk/raspbian-tee/optee_os/lib/libutils/ext/snprintk.c:386
     9be:	4264      	negs	r4, r4
/mnt/disk/raspbian-tee/optee_os/lib/libutils/ext/snprintk.c:387
     9c0:	f04f 0a2d 	mov.w	sl, #45	; 0x2d
/mnt/disk/raspbian-tee/optee_os/lib/libutils/ext/snprintk.c:386
     9c4:	eb65 0545 	sbc.w	r5, r5, r5, lsl #1
/mnt/disk/raspbian-tee/optee_os/lib/libutils/ext/snprintk.c:488
     9c8:	f1bb 3fff 	cmp.w	fp, #4294967295	; 0xffffffff
     9cc:	f040 80ec 	bne.w	ba8 <__vsnprintf+0x618>
/mnt/disk/raspbian-tee/optee_os/lib/libutils/ext/snprintk.c:508
     9d0:	f10d 0375 	add.w	r3, sp, #117	; 0x75
     9d4:	9311      	str	r3, [sp, #68]	; 0x44
     9d6:	9b11      	ldr	r3, [sp, #68]	; 0x44
/mnt/disk/raspbian-tee/optee_os/lib/libutils/ext/snprintk.c:516
     9d8:	2d00      	cmp	r5, #0
     9da:	bf08      	it	eq
     9dc:	2c0a      	cmpeq	r4, #10
     9de:	f103 33ff 	add.w	r3, r3, #4294967295	; 0xffffffff
     9e2:	f080 80e5 	bcs.w	bb0 <__vsnprintf+0x620>
/mnt/disk/raspbian-tee/optee_os/lib/libutils/ext/snprintk.c:520
     9e6:	9a11      	ldr	r2, [sp, #68]	; 0x44
     9e8:	3430      	adds	r4, #48	; 0x30
     9ea:	f802 4c01 	strb.w	r4, [r2, #-1]
     9ee:	e6ac      	b.n	74a <__vsnprintf+0x1ba>
/mnt/disk/raspbian-tee/optee_os/lib/libutils/ext/snprintk.c:384
     9f0:	05f3      	lsls	r3, r6, #23
     9f2:	d503      	bpl.n	9fc <__vsnprintf+0x46c>
     9f4:	1d17      	adds	r7, r2, #4
     9f6:	6814      	ldr	r4, [r2, #0]
     9f8:	17e5      	asrs	r5, r4, #31
     9fa:	e7dc      	b.n	9b6 <__vsnprintf+0x426>
     9fc:	05b7      	lsls	r7, r6, #22
     9fe:	d4f9      	bmi.n	9f4 <__vsnprintf+0x464>
     a00:	06b5      	lsls	r5, r6, #26
     a02:	d4d1      	bmi.n	9a8 <__vsnprintf+0x418>
     a04:	f016 0f10 	tst.w	r6, #16
     a08:	f102 0704 	add.w	r7, r2, #4
     a0c:	d1f3      	bne.n	9f6 <__vsnprintf+0x466>
     a0e:	f016 0f40 	tst.w	r6, #64	; 0x40
     a12:	6814      	ldr	r4, [r2, #0]
     a14:	d0f0      	beq.n	9f8 <__vsnprintf+0x468>
     a16:	b224      	sxth	r4, r4
     a18:	e7ee      	b.n	9f8 <__vsnprintf+0x468>
/mnt/disk/raspbian-tee/optee_os/lib/libutils/ext/snprintk.c:392
     a1a:	f016 0f80 	tst.w	r6, #128	; 0x80
     a1e:	f102 0704 	add.w	r7, r2, #4
     a22:	d006      	beq.n	a32 <__vsnprintf+0x4a2>
/mnt/disk/raspbian-tee/optee_os/lib/libutils/ext/snprintk.c:399
     a24:	6813      	ldr	r3, [r2, #0]
     a26:	9a0c      	ldr	r2, [sp, #48]	; 0x30
     a28:	4610      	mov	r0, r2
     a2a:	17d1      	asrs	r1, r2, #31
     a2c:	e9c3 0100 	strd	r0, r1, [r3]
     a30:	e5bf      	b.n	5b2 <__vsnprintf+0x22>
/mnt/disk/raspbian-tee/optee_os/lib/libutils/ext/snprintk.c:394
     a32:	05f4      	lsls	r4, r6, #23
     a34:	d503      	bpl.n	a3e <__vsnprintf+0x4ae>
/mnt/disk/raspbian-tee/optee_os/lib/libutils/ext/snprintk.c:405
     a36:	6813      	ldr	r3, [r2, #0]
     a38:	9a0c      	ldr	r2, [sp, #48]	; 0x30
     a3a:	601a      	str	r2, [r3, #0]
     a3c:	e5b9      	b.n	5b2 <__vsnprintf+0x22>
/mnt/disk/raspbian-tee/optee_os/lib/libutils/ext/snprintk.c:396
     a3e:	05b0      	lsls	r0, r6, #22
     a40:	d4f9      	bmi.n	a36 <__vsnprintf+0x4a6>
/mnt/disk/raspbian-tee/optee_os/lib/libutils/ext/snprintk.c:398
     a42:	06b1      	lsls	r1, r6, #26
     a44:	d4ee      	bmi.n	a24 <__vsnprintf+0x494>
/mnt/disk/raspbian-tee/optee_os/lib/libutils/ext/snprintk.c:400
     a46:	06f3      	lsls	r3, r6, #27
     a48:	d4f5      	bmi.n	a36 <__vsnprintf+0x4a6>
/mnt/disk/raspbian-tee/optee_os/lib/libutils/ext/snprintk.c:402
     a4a:	0676      	lsls	r6, r6, #25
     a4c:	d5f3      	bpl.n	a36 <__vsnprintf+0x4a6>
/mnt/disk/raspbian-tee/optee_os/lib/libutils/ext/snprintk.c:403
     a4e:	6813      	ldr	r3, [r2, #0]
     a50:	f8bd 2030 	ldrh.w	r2, [sp, #48]	; 0x30
     a54:	801a      	strh	r2, [r3, #0]
     a56:	e5ac      	b.n	5b2 <__vsnprintf+0x22>
/mnt/disk/raspbian-tee/optee_os/lib/libutils/ext/snprintk.c:411
     a58:	05f4      	lsls	r4, r6, #23
     a5a:	d502      	bpl.n	a62 <__vsnprintf+0x4d2>
     a5c:	1d17      	adds	r7, r2, #4
     a5e:	6814      	ldr	r4, [r2, #0]
     a60:	e00c      	b.n	a7c <__vsnprintf+0x4ec>
     a62:	05b0      	lsls	r0, r6, #22
     a64:	d4fa      	bmi.n	a5c <__vsnprintf+0x4cc>
     a66:	06b1      	lsls	r1, r6, #26
     a68:	f53f ae36 	bmi.w	6d8 <__vsnprintf+0x148>
     a6c:	f016 0f10 	tst.w	r6, #16
     a70:	f102 0704 	add.w	r7, r2, #4
     a74:	d1f3      	bne.n	a5e <__vsnprintf+0x4ce>
     a76:	0673      	lsls	r3, r6, #25
     a78:	d5f1      	bpl.n	a5e <__vsnprintf+0x4ce>
     a7a:	8814      	ldrh	r4, [r2, #0]
     a7c:	2500      	movs	r5, #0
     a7e:	e632      	b.n	6e6 <__vsnprintf+0x156>
/mnt/disk/raspbian-tee/optee_os/lib/libutils/ext/snprintk.c:415
     a80:	9b13      	ldr	r3, [sp, #76]	; 0x4c
     a82:	2b00      	cmp	r3, #0
     a84:	d02d      	beq.n	ae2 <__vsnprintf+0x552>
     a86:	9b0b      	ldr	r3, [sp, #44]	; 0x2c
     a88:	781b      	ldrb	r3, [r3, #0]
     a8a:	2b55      	cmp	r3, #85	; 0x55
     a8c:	d129      	bne.n	ae2 <__vsnprintf+0x552>
     a8e:	9b0b      	ldr	r3, [sp, #44]	; 0x2c
     a90:	785b      	ldrb	r3, [r3, #1]
     a92:	2b6c      	cmp	r3, #108	; 0x6c
     a94:	d125      	bne.n	ae2 <__vsnprintf+0x552>
/mnt/disk/raspbian-tee/optee_os/lib/libutils/ext/snprintk.c:420
     a96:	9b0b      	ldr	r3, [sp, #44]	; 0x2c
/mnt/disk/raspbian-tee/optee_os/lib/libutils/ext/snprintk.c:421
     a98:	1d17      	adds	r7, r2, #4
uuid2str():
/mnt/disk/raspbian-tee/optee_os/lib/libutils/ext/snprintk.c:223
     a9a:	ac14      	add	r4, sp, #80	; 0x50
     a9c:	2125      	movs	r1, #37	; 0x25
kprintf():
/mnt/disk/raspbian-tee/optee_os/lib/libutils/ext/snprintk.c:420
     a9e:	3302      	adds	r3, #2
     aa0:	930b      	str	r3, [sp, #44]	; 0x2c
/mnt/disk/raspbian-tee/optee_os/lib/libutils/ext/snprintk.c:421
     aa2:	6813      	ldr	r3, [r2, #0]
uuid2str():
/mnt/disk/raspbian-tee/optee_os/lib/libutils/ext/snprintk.c:223
     aa4:	4620      	mov	r0, r4
     aa6:	7bda      	ldrb	r2, [r3, #15]
     aa8:	9209      	str	r2, [sp, #36]	; 0x24
     aaa:	7b9a      	ldrb	r2, [r3, #14]
     aac:	9208      	str	r2, [sp, #32]
     aae:	7b5a      	ldrb	r2, [r3, #13]
     ab0:	9207      	str	r2, [sp, #28]
     ab2:	7b1a      	ldrb	r2, [r3, #12]
     ab4:	9206      	str	r2, [sp, #24]
     ab6:	7ada      	ldrb	r2, [r3, #11]
     ab8:	9205      	str	r2, [sp, #20]
     aba:	7a9a      	ldrb	r2, [r3, #10]
     abc:	9204      	str	r2, [sp, #16]
     abe:	7a5a      	ldrb	r2, [r3, #9]
     ac0:	9203      	str	r2, [sp, #12]
     ac2:	7a1a      	ldrb	r2, [r3, #8]
     ac4:	9202      	str	r2, [sp, #8]
     ac6:	88da      	ldrh	r2, [r3, #6]
     ac8:	9201      	str	r2, [sp, #4]
     aca:	889a      	ldrh	r2, [r3, #4]
     acc:	9200      	str	r2, [sp, #0]
     ace:	4a7a      	ldr	r2, [pc, #488]	; (cb8 <__vsnprintf+0x728>)
     ad0:	681b      	ldr	r3, [r3, #0]
     ad2:	447a      	add	r2, pc
     ad4:	f000 f8fd 	bl	cd2 <snprintk>
     ad8:	4683      	mov	fp, r0
kprintf():
/mnt/disk/raspbian-tee/optee_os/lib/libutils/ext/snprintk.c:285
     ada:	2000      	movs	r0, #0
/mnt/disk/raspbian-tee/optee_os/lib/libutils/ext/snprintk.c:423
     adc:	4623      	mov	r3, r4
/mnt/disk/raspbian-tee/optee_os/lib/libutils/ext/snprintk.c:424
     ade:	4682      	mov	sl, r0
     ae0:	e70f      	b.n	902 <__vsnprintf+0x372>
/mnt/disk/raspbian-tee/optee_os/lib/libutils/ext/snprintk.c:437
     ae2:	4b76      	ldr	r3, [pc, #472]	; (cbc <__vsnprintf+0x72c>)
/mnt/disk/raspbian-tee/optee_os/lib/libutils/ext/snprintk.c:435
     ae4:	1d17      	adds	r7, r2, #4
     ae6:	6814      	ldr	r4, [r2, #0]
     ae8:	2500      	movs	r5, #0
/mnt/disk/raspbian-tee/optee_os/lib/libutils/ext/snprintk.c:437
     aea:	447b      	add	r3, pc
/mnt/disk/raspbian-tee/optee_os/lib/libutils/ext/snprintk.c:438
     aec:	f046 0602 	orr.w	r6, r6, #2
/mnt/disk/raspbian-tee/optee_os/lib/libutils/ext/snprintk.c:439
     af0:	f04f 0978 	mov.w	r9, #120	; 0x78
/mnt/disk/raspbian-tee/optee_os/lib/libutils/ext/snprintk.c:437
     af4:	3311      	adds	r3, #17
     af6:	930f      	str	r3, [sp, #60]	; 0x3c
/mnt/disk/raspbian-tee/optee_os/lib/libutils/ext/snprintk.c:488
     af8:	f1bb 3fff 	cmp.w	fp, #4294967295	; 0xffffffff
     afc:	f47f aeaa 	bne.w	854 <__vsnprintf+0x2c4>
     b00:	f04f 0a00 	mov.w	sl, #0
     b04:	f10d 0375 	add.w	r3, sp, #117	; 0x75
/mnt/disk/raspbian-tee/optee_os/lib/libutils/ext/snprintk.c:525
     b08:	f004 020f 	and.w	r2, r4, #15
     b0c:	990f      	ldr	r1, [sp, #60]	; 0x3c
     b0e:	5c8a      	ldrb	r2, [r1, r2]
/mnt/disk/raspbian-tee/optee_os/lib/libutils/ext/snprintk.c:526
     b10:	0929      	lsrs	r1, r5, #4
/mnt/disk/raspbian-tee/optee_os/lib/libutils/ext/snprintk.c:525
     b12:	f803 2d01 	strb.w	r2, [r3, #-1]!
/mnt/disk/raspbian-tee/optee_os/lib/libutils/ext/snprintk.c:526
     b16:	0922      	lsrs	r2, r4, #4
     b18:	ea42 7205 	orr.w	r2, r2, r5, lsl #28
     b1c:	460d      	mov	r5, r1
     b1e:	4614      	mov	r4, r2
/mnt/disk/raspbian-tee/optee_os/lib/libutils/ext/snprintk.c:527
     b20:	ea54 0205 	orrs.w	r2, r4, r5
     b24:	d1f0      	bne.n	b08 <__vsnprintf+0x578>
     b26:	e610      	b.n	74a <__vsnprintf+0x1ba>
/mnt/disk/raspbian-tee/optee_os/lib/libutils/ext/snprintk.c:460
     b28:	4618      	mov	r0, r3
     b2a:	9311      	str	r3, [sp, #68]	; 0x44
     b2c:	f006 ff95 	bl	7a5a <strlen>
     b30:	4683      	mov	fp, r0
/mnt/disk/raspbian-tee/optee_os/lib/libutils/ext/snprintk.c:285
     b32:	2000      	movs	r0, #0
     b34:	9b11      	ldr	r3, [sp, #68]	; 0x44
/mnt/disk/raspbian-tee/optee_os/lib/libutils/ext/snprintk.c:461
     b36:	4682      	mov	sl, r0
     b38:	e6e3      	b.n	902 <__vsnprintf+0x372>
/mnt/disk/raspbian-tee/optee_os/lib/libutils/ext/snprintk.c:464
     b3a:	f046 0610 	orr.w	r6, r6, #16
     b3e:	e660      	b.n	802 <__vsnprintf+0x272>
/mnt/disk/raspbian-tee/optee_os/lib/libutils/ext/snprintk.c:467
     b40:	f416 7a80 	ands.w	sl, r6, #256	; 0x100
     b44:	d003      	beq.n	b4e <__vsnprintf+0x5be>
     b46:	6814      	ldr	r4, [r2, #0]
     b48:	1d17      	adds	r7, r2, #4
     b4a:	2500      	movs	r5, #0
     b4c:	e664      	b.n	818 <__vsnprintf+0x288>
     b4e:	f416 7300 	ands.w	r3, r6, #512	; 0x200
     b52:	d003      	beq.n	b5c <__vsnprintf+0x5cc>
     b54:	1d17      	adds	r7, r2, #4
     b56:	6814      	ldr	r4, [r2, #0]
     b58:	2500      	movs	r5, #0
     b5a:	e735      	b.n	9c8 <__vsnprintf+0x438>
     b5c:	f016 0a20 	ands.w	sl, r6, #32
     b60:	f47f ae53 	bne.w	80a <__vsnprintf+0x27a>
     b64:	f016 0310 	ands.w	r3, r6, #16
     b68:	f102 0704 	add.w	r7, r2, #4
     b6c:	d1f3      	bne.n	b56 <__vsnprintf+0x5c6>
     b6e:	f016 0a40 	ands.w	sl, r6, #64	; 0x40
     b72:	d0f0      	beq.n	b56 <__vsnprintf+0x5c6>
     b74:	8814      	ldrh	r4, [r2, #0]
     b76:	e7e8      	b.n	b4a <__vsnprintf+0x5ba>
/mnt/disk/raspbian-tee/optee_os/lib/libutils/ext/snprintk.c:474
     b78:	4b51      	ldr	r3, [pc, #324]	; (cc0 <__vsnprintf+0x730>)
     b7a:	447b      	add	r3, pc
     b7c:	3311      	adds	r3, #17
     b7e:	e651      	b.n	824 <__vsnprintf+0x294>
/mnt/disk/raspbian-tee/optee_os/lib/libutils/ext/snprintk.c:475
     b80:	05f5      	lsls	r5, r6, #23
     b82:	d502      	bpl.n	b8a <__vsnprintf+0x5fa>
     b84:	1d17      	adds	r7, r2, #4
     b86:	6814      	ldr	r4, [r2, #0]
     b88:	e00c      	b.n	ba4 <__vsnprintf+0x614>
     b8a:	05b4      	lsls	r4, r6, #22
     b8c:	d4fa      	bmi.n	b84 <__vsnprintf+0x5f4>
     b8e:	06b0      	lsls	r0, r6, #26
     b90:	f53f ae4c 	bmi.w	82c <__vsnprintf+0x29c>
     b94:	f016 0f10 	tst.w	r6, #16
     b98:	f102 0704 	add.w	r7, r2, #4
     b9c:	d1f3      	bne.n	b86 <__vsnprintf+0x5f6>
     b9e:	0671      	lsls	r1, r6, #25
     ba0:	d5f1      	bpl.n	b86 <__vsnprintf+0x5f6>
     ba2:	8814      	ldrh	r4, [r2, #0]
     ba4:	2500      	movs	r5, #0
     ba6:	e648      	b.n	83a <__vsnprintf+0x2aa>
/mnt/disk/raspbian-tee/optee_os/lib/libutils/ext/snprintk.c:488
     ba8:	2301      	movs	r3, #1
     baa:	e5a2      	b.n	6f2 <__vsnprintf+0x162>
/mnt/disk/raspbian-tee/optee_os/lib/libutils/ext/snprintk.c:508
     bac:	461a      	mov	r2, r3
     bae:	e5b3      	b.n	718 <__vsnprintf+0x188>
/mnt/disk/raspbian-tee/optee_os/lib/libutils/ext/snprintk.c:517
     bb0:	9311      	str	r3, [sp, #68]	; 0x44
     bb2:	4620      	mov	r0, r4
     bb4:	4629      	mov	r1, r5
     bb6:	220a      	movs	r2, #10
     bb8:	2300      	movs	r3, #0
     bba:	f000 e8a4 	blx	d04 <__aeabi_uldivmod>
     bbe:	9b11      	ldr	r3, [sp, #68]	; 0x44
     bc0:	3230      	adds	r2, #48	; 0x30
/mnt/disk/raspbian-tee/optee_os/lib/libutils/ext/snprintk.c:518
     bc2:	4620      	mov	r0, r4
     bc4:	4629      	mov	r1, r5
/mnt/disk/raspbian-tee/optee_os/lib/libutils/ext/snprintk.c:517
     bc6:	701a      	strb	r2, [r3, #0]
/mnt/disk/raspbian-tee/optee_os/lib/libutils/ext/snprintk.c:518
     bc8:	220a      	movs	r2, #10
     bca:	2300      	movs	r3, #0
     bcc:	f000 e89a 	blx	d04 <__aeabi_uldivmod>
     bd0:	4604      	mov	r4, r0
     bd2:	460d      	mov	r5, r1
     bd4:	e6ff      	b.n	9d6 <__vsnprintf+0x446>
/mnt/disk/raspbian-tee/optee_os/lib/libutils/ext/snprintk.c:496
     bd6:	f10d 0375 	add.w	r3, sp, #117	; 0x75
     bda:	e5b6      	b.n	74a <__vsnprintf+0x1ba>
/mnt/disk/raspbian-tee/optee_os/lib/libutils/ext/snprintk.c:568
     bdc:	07b4      	lsls	r4, r6, #30
/mnt/disk/raspbian-tee/optee_os/lib/libutils/ext/snprintk.c:569
     bde:	bf48      	it	mi
     be0:	3202      	addmi	r2, #2
     be2:	e697      	b.n	914 <__vsnprintf+0x384>
/mnt/disk/raspbian-tee/optee_os/lib/libutils/ext/snprintk.c:578
     be4:	f1b8 0f00 	cmp.w	r8, #0
     be8:	d006      	beq.n	bf8 <__vsnprintf+0x668>
     bea:	9d0e      	ldr	r5, [sp, #56]	; 0x38
     bec:	4545      	cmp	r5, r8
     bee:	d903      	bls.n	bf8 <__vsnprintf+0x668>
     bf0:	f888 c000 	strb.w	ip, [r8]
     bf4:	f108 0801 	add.w	r8, r8, #1
     bf8:	3901      	subs	r1, #1
     bfa:	e69b      	b.n	934 <__vsnprintf+0x3a4>
/mnt/disk/raspbian-tee/optee_os/lib/libutils/ext/snprintk.c:583
     bfc:	990e      	ldr	r1, [sp, #56]	; 0x38
     bfe:	4541      	cmp	r1, r8
     c00:	f67f aea5 	bls.w	94e <__vsnprintf+0x3be>
     c04:	f888 a000 	strb.w	sl, [r8]
     c08:	f108 0801 	add.w	r8, r8, #1
     c0c:	e69f      	b.n	94e <__vsnprintf+0x3be>
/mnt/disk/raspbian-tee/optee_os/lib/libutils/ext/snprintk.c:584
     c0e:	07b1      	lsls	r1, r6, #30
     c10:	f57f ae9d 	bpl.w	94e <__vsnprintf+0x3be>
/mnt/disk/raspbian-tee/optee_os/lib/libutils/ext/snprintk.c:585
     c14:	f1b8 0f00 	cmp.w	r8, #0
     c18:	f43f ae97 	beq.w	94a <__vsnprintf+0x3ba>
     c1c:	990e      	ldr	r1, [sp, #56]	; 0x38
     c1e:	4541      	cmp	r1, r8
     c20:	f67f ae95 	bls.w	94e <__vsnprintf+0x3be>
     c24:	2130      	movs	r1, #48	; 0x30
     c26:	f888 1000 	strb.w	r1, [r8]
/mnt/disk/raspbian-tee/optee_os/lib/libutils/ext/snprintk.c:586
     c2a:	f118 0101 	adds.w	r1, r8, #1
     c2e:	f43f ae8c 	beq.w	94a <__vsnprintf+0x3ba>
     c32:	9d0e      	ldr	r5, [sp, #56]	; 0x38
     c34:	428d      	cmp	r5, r1
     c36:	d904      	bls.n	c42 <__vsnprintf+0x6b2>
     c38:	f888 9001 	strb.w	r9, [r8, #1]
     c3c:	f108 0802 	add.w	r8, r8, #2
     c40:	e685      	b.n	94e <__vsnprintf+0x3be>
     c42:	4688      	mov	r8, r1
     c44:	e683      	b.n	94e <__vsnprintf+0x3be>
/mnt/disk/raspbian-tee/optee_os/lib/libutils/ext/snprintk.c:593
     c46:	f1b8 0f00 	cmp.w	r8, #0
     c4a:	d006      	beq.n	c5a <__vsnprintf+0x6ca>
     c4c:	9d0e      	ldr	r5, [sp, #56]	; 0x38
     c4e:	4545      	cmp	r5, r8
     c50:	d903      	bls.n	c5a <__vsnprintf+0x6ca>
     c52:	f888 4000 	strb.w	r4, [r8]
     c56:	f108 0801 	add.w	r8, r8, #1
     c5a:	3901      	subs	r1, #1
     c5c:	e67d      	b.n	95a <__vsnprintf+0x3ca>
/mnt/disk/raspbian-tee/optee_os/lib/libutils/ext/snprintk.c:599
     c5e:	f1b8 0f00 	cmp.w	r8, #0
     c62:	d006      	beq.n	c72 <__vsnprintf+0x6e2>
     c64:	9c0e      	ldr	r4, [sp, #56]	; 0x38
     c66:	4544      	cmp	r4, r8
     c68:	d903      	bls.n	c72 <__vsnprintf+0x6e2>
     c6a:	f888 1000 	strb.w	r1, [r8]
     c6e:	f108 0801 	add.w	r8, r8, #1
     c72:	3801      	subs	r0, #1
     c74:	e677      	b.n	966 <__vsnprintf+0x3d6>
/mnt/disk/raspbian-tee/optee_os/lib/libutils/ext/snprintk.c:603
     c76:	f1b8 0f00 	cmp.w	r8, #0
     c7a:	d007      	beq.n	c8c <__vsnprintf+0x6fc>
     c7c:	980e      	ldr	r0, [sp, #56]	; 0x38
     c7e:	4540      	cmp	r0, r8
     c80:	d904      	bls.n	c8c <__vsnprintf+0x6fc>
     c82:	7818      	ldrb	r0, [r3, #0]
     c84:	f108 0801 	add.w	r8, r8, #1
     c88:	f808 0c01 	strb.w	r0, [r8, #-1]
/mnt/disk/raspbian-tee/optee_os/lib/libutils/ext/snprintk.c:602
     c8c:	3301      	adds	r3, #1
     c8e:	e66f      	b.n	970 <__vsnprintf+0x3e0>
__vsnprintf():
/mnt/disk/raspbian-tee/optee_os/lib/libutils/ext/snprintk.c:148
     c90:	990c      	ldr	r1, [sp, #48]	; 0x30
     c92:	5453      	strb	r3, [r2, r1]
/mnt/disk/raspbian-tee/optee_os/lib/libutils/ext/snprintk.c:150
     c94:	e4a1      	b.n	5da <__vsnprintf+0x4a>
kprintf():
/mnt/disk/raspbian-tee/optee_os/lib/libutils/ext/snprintk.c:489
     c96:	f426 6680 	bic.w	r6, r6, #1024	; 0x400
/mnt/disk/raspbian-tee/optee_os/lib/libutils/ext/snprintk.c:482
     c9a:	f04f 0a00 	mov.w	sl, #0
/mnt/disk/raspbian-tee/optee_os/lib/libutils/ext/snprintk.c:476
     c9e:	2302      	movs	r3, #2
     ca0:	e52c      	b.n	6fc <__vsnprintf+0x16c>
/mnt/disk/raspbian-tee/optee_os/lib/libutils/ext/snprintk.c:488
     ca2:	f1bb 3fff 	cmp.w	fp, #4294967295	; 0xffffffff
     ca6:	d1f6      	bne.n	c96 <__vsnprintf+0x706>
     ca8:	f04f 3bff 	mov.w	fp, #4294967295	; 0xffffffff
     cac:	e728      	b.n	b00 <__vsnprintf+0x570>
     cae:	bf00      	nop
     cb0:	00007970 	.word	0x00007970
     cb4:	000078f0 	.word	0x000078f0
     cb8:	00007669 	.word	0x00007669
     cbc:	00007628 	.word	0x00007628
     cc0:	00007598 	.word	0x00007598

00000cc4 <vsnprintk>:
vsnprintk():
/mnt/disk/raspbian-tee/optee_os/lib/libutils/ext/snprintk.c:129
     cc4:	b513      	push	{r0, r1, r4, lr}
/mnt/disk/raspbian-tee/optee_os/lib/libutils/ext/snprintk.c:130
     cc6:	2401      	movs	r4, #1
     cc8:	9400      	str	r4, [sp, #0]
     cca:	f7ff fc61 	bl	590 <__vsnprintf>
/mnt/disk/raspbian-tee/optee_os/lib/libutils/ext/snprintk.c:131
     cce:	b002      	add	sp, #8
     cd0:	bd10      	pop	{r4, pc}

00000cd2 <snprintk>:
snprintk():
/mnt/disk/raspbian-tee/optee_os/lib/libutils/ext/snprintk.c:112
     cd2:	b40c      	push	{r2, r3}
     cd4:	b507      	push	{r0, r1, r2, lr}
     cd6:	ab04      	add	r3, sp, #16
     cd8:	f853 2b04 	ldr.w	r2, [r3], #4
/mnt/disk/raspbian-tee/optee_os/lib/libutils/ext/snprintk.c:116
     cdc:	9301      	str	r3, [sp, #4]
/mnt/disk/raspbian-tee/optee_os/lib/libutils/ext/snprintk.c:117
     cde:	f7ff fff1 	bl	cc4 <vsnprintk>
/mnt/disk/raspbian-tee/optee_os/lib/libutils/ext/snprintk.c:121
     ce2:	b003      	add	sp, #12
     ce4:	f85d eb04 	ldr.w	lr, [sp], #4
     ce8:	b002      	add	sp, #8
     cea:	4770      	bx	lr

00000cec <__aeabi_ldivmod>:
__aeabi_ldivmod():
/mnt/disk/raspbian-tee/optee_os/lib/libutils/isoc/arch/arm/arm32_aeabi_ldivmod_a32.S:24
     cec:	e92d5000 	push	{ip, lr}
/mnt/disk/raspbian-tee/optee_os/lib/libutils/isoc/arch/arm/arm32_aeabi_ldivmod_a32.S:26
     cf0:	e92d000f 	push	{r0, r1, r2, r3}
/mnt/disk/raspbian-tee/optee_os/lib/libutils/isoc/arch/arm/arm32_aeabi_ldivmod_a32.S:28
     cf4:	e1a0000d 	mov	r0, sp
/mnt/disk/raspbian-tee/optee_os/lib/libutils/isoc/arch/arm/arm32_aeabi_ldivmod_a32.S:29
     cf8:	fb001b77 	blx	7ade <__l_divmod>
/mnt/disk/raspbian-tee/optee_os/lib/libutils/isoc/arch/arm/arm32_aeabi_ldivmod_a32.S:30
     cfc:	e8bd000f 	pop	{r0, r1, r2, r3}
/mnt/disk/raspbian-tee/optee_os/lib/libutils/isoc/arch/arm/arm32_aeabi_ldivmod_a32.S:31
     d00:	e8bd9000 	pop	{ip, pc}

00000d04 <__aeabi_uldivmod>:
__aeabi_uldivmod():
/mnt/disk/raspbian-tee/optee_os/lib/libutils/isoc/arch/arm/arm32_aeabi_ldivmod_a32.S:42
     d04:	e92d5000 	push	{ip, lr}
/mnt/disk/raspbian-tee/optee_os/lib/libutils/isoc/arch/arm/arm32_aeabi_ldivmod_a32.S:44
     d08:	e92d000f 	push	{r0, r1, r2, r3}
/mnt/disk/raspbian-tee/optee_os/lib/libutils/isoc/arch/arm/arm32_aeabi_ldivmod_a32.S:46
     d0c:	e1a0000d 	mov	r0, sp
/mnt/disk/raspbian-tee/optee_os/lib/libutils/isoc/arch/arm/arm32_aeabi_ldivmod_a32.S:47
     d10:	fb001b54 	blx	7a6a <__ul_divmod>
/mnt/disk/raspbian-tee/optee_os/lib/libutils/isoc/arch/arm/arm32_aeabi_ldivmod_a32.S:48
     d14:	e8bd000f 	pop	{r0, r1, r2, r3}
/mnt/disk/raspbian-tee/optee_os/lib/libutils/isoc/arch/arm/arm32_aeabi_ldivmod_a32.S:49
     d18:	e8bd9000 	pop	{ip, pc}

00000d1c <trace_ext_puts>:
trace_ext_puts():
/mnt/disk/raspbian-tee/optee_os/lib/libutee/trace_ext.c:17
     d1c:	b510      	push	{r4, lr}
     d1e:	4604      	mov	r4, r0
/mnt/disk/raspbian-tee/optee_os/lib/libutee/trace_ext.c:18
     d20:	f006 fe9b 	bl	7a5a <strlen>
     d24:	4601      	mov	r1, r0
     d26:	4620      	mov	r0, r4
/mnt/disk/raspbian-tee/optee_os/lib/libutee/trace_ext.c:19
     d28:	e8bd 4010 	ldmia.w	sp!, {r4, lr}
/mnt/disk/raspbian-tee/optee_os/lib/libutee/trace_ext.c:18
     d2c:	f006 bfac 	b.w	7c88 <__utee_log_from_thumb>

00000d30 <trace_ext_get_thread_id>:
trace_ext_get_thread_id():
/mnt/disk/raspbian-tee/optee_os/lib/libutee/trace_ext.c:24
     d30:	f04f 30ff 	mov.w	r0, #4294967295	; 0xffffffff
     d34:	4770      	bx	lr

00000d36 <printf>:
printf():
/mnt/disk/raspbian-tee/optee_os/lib/libutee/trace_ext.c:32
     d36:	b40f      	push	{r0, r1, r2, r3}
     d38:	b530      	push	{r4, r5, lr}
     d3a:	b0c3      	sub	sp, #268	; 0x10c
/mnt/disk/raspbian-tee/optee_os/lib/libutee/trace_ext.c:37
     d3c:	f7ff fb00 	bl	340 <trace_get_level>
     d40:	2800      	cmp	r0, #0
     d42:	dd13      	ble.n	d6c <printf+0x36>
/mnt/disk/raspbian-tee/optee_os/lib/libutee/trace_ext.c:41
     d44:	ad02      	add	r5, sp, #8
/mnt/disk/raspbian-tee/optee_os/lib/libutee/trace_ext.c:40
     d46:	ab47      	add	r3, sp, #284	; 0x11c
/mnt/disk/raspbian-tee/optee_os/lib/libutee/trace_ext.c:41
     d48:	9a46      	ldr	r2, [sp, #280]	; 0x118
     d4a:	f44f 7180 	mov.w	r1, #256	; 0x100
     d4e:	4628      	mov	r0, r5
/mnt/disk/raspbian-tee/optee_os/lib/libutee/trace_ext.c:40
     d50:	9301      	str	r3, [sp, #4]
/mnt/disk/raspbian-tee/optee_os/lib/libutee/trace_ext.c:41
     d52:	f006 ff4b 	bl	7bec <vsnprintf>
/mnt/disk/raspbian-tee/optee_os/lib/libutee/trace_ext.c:44
     d56:	1e04      	subs	r4, r0, #0
     d58:	db02      	blt.n	d60 <printf+0x2a>
/mnt/disk/raspbian-tee/optee_os/lib/libutee/trace_ext.c:47
     d5a:	4628      	mov	r0, r5
     d5c:	f7ff ffde 	bl	d1c <trace_ext_puts>
/mnt/disk/raspbian-tee/optee_os/lib/libutee/trace_ext.c:50
     d60:	4620      	mov	r0, r4
     d62:	b043      	add	sp, #268	; 0x10c
     d64:	e8bd 4030 	ldmia.w	sp!, {r4, r5, lr}
     d68:	b004      	add	sp, #16
     d6a:	4770      	bx	lr
/mnt/disk/raspbian-tee/optee_os/lib/libutee/trace_ext.c:38
     d6c:	2400      	movs	r4, #0
     d6e:	e7f7      	b.n	d60 <printf+0x2a>

00000d70 <puts>:
puts():
/mnt/disk/raspbian-tee/optee_os/lib/libutee/trace_ext.c:53
     d70:	b510      	push	{r4, lr}
     d72:	4604      	mov	r4, r0
/mnt/disk/raspbian-tee/optee_os/lib/libutee/trace_ext.c:54
     d74:	f7ff fae4 	bl	340 <trace_get_level>
     d78:	2800      	cmp	r0, #0
     d7a:	dd06      	ble.n	d8a <puts+0x1a>
/mnt/disk/raspbian-tee/optee_os/lib/libutee/trace_ext.c:55
     d7c:	4620      	mov	r0, r4
     d7e:	f7ff ffcd 	bl	d1c <trace_ext_puts>
/mnt/disk/raspbian-tee/optee_os/lib/libutee/trace_ext.c:56
     d82:	4803      	ldr	r0, [pc, #12]	; (d90 <puts+0x20>)
     d84:	4478      	add	r0, pc
     d86:	f7ff ffc9 	bl	d1c <trace_ext_puts>
/mnt/disk/raspbian-tee/optee_os/lib/libutee/trace_ext.c:59
     d8a:	2001      	movs	r0, #1
     d8c:	bd10      	pop	{r4, pc}
     d8e:	bf00      	nop
     d90:	00007a59 	.word	0x00007a59

00000d94 <putchar>:
putchar():
/mnt/disk/raspbian-tee/optee_os/lib/libutee/trace_ext.c:62
     d94:	b513      	push	{r0, r1, r4, lr}
/mnt/disk/raspbian-tee/optee_os/lib/libutee/trace_ext.c:63
     d96:	2300      	movs	r3, #0
/mnt/disk/raspbian-tee/optee_os/lib/libutee/trace_ext.c:62
     d98:	4604      	mov	r4, r0
/mnt/disk/raspbian-tee/optee_os/lib/libutee/trace_ext.c:63
     d9a:	f88d 0004 	strb.w	r0, [sp, #4]
     d9e:	f88d 3005 	strb.w	r3, [sp, #5]
/mnt/disk/raspbian-tee/optee_os/lib/libutee/trace_ext.c:65
     da2:	f7ff facd 	bl	340 <trace_get_level>
     da6:	2800      	cmp	r0, #0
     da8:	dd02      	ble.n	db0 <putchar+0x1c>
/mnt/disk/raspbian-tee/optee_os/lib/libutee/trace_ext.c:66
     daa:	a801      	add	r0, sp, #4
     dac:	f7ff ffb6 	bl	d1c <trace_ext_puts>
/mnt/disk/raspbian-tee/optee_os/lib/libutee/trace_ext.c:73
     db0:	b2e0      	uxtb	r0, r4
     db2:	b002      	add	sp, #8
     db4:	bd10      	pop	{r4, pc}
     db6:	bf00      	nop

00000db8 <__utee_from_param>:
__utee_from_param():
/mnt/disk/raspbian-tee/optee_os/lib/libutee/tee_api.c:23
     db8:	2300      	movs	r3, #0
/mnt/disk/raspbian-tee/optee_os/lib/libutee/tee_api.c:20
     dba:	b5f0      	push	{r4, r5, r6, r7, lr}
     dbc:	4694      	mov	ip, r2
     dbe:	4615      	mov	r5, r2
/mnt/disk/raspbian-tee/optee_os/lib/libutee/tee_api.c:39
     dc0:	2600      	movs	r6, #0
     dc2:	2700      	movs	r7, #0
/mnt/disk/raspbian-tee/optee_os/lib/libutee/tee_api.c:35
     dc4:	461a      	mov	r2, r3
/mnt/disk/raspbian-tee/optee_os/lib/libutee/tee_api.c:23
     dc6:	e880 000a 	stmia.w	r0, {r1, r3}
/mnt/disk/raspbian-tee/optee_os/lib/libutee/tee_api.c:25
     dca:	fa21 f403 	lsr.w	r4, r1, r3
     dce:	f004 040f 	and.w	r4, r4, #15
     dd2:	3c01      	subs	r4, #1
     dd4:	2c06      	cmp	r4, #6
     dd6:	d812      	bhi.n	dfe <__utee_from_param+0x46>
     dd8:	e8df f004 	tbb	[pc, r4]
     ddc:	11040404 	.word	0x11040404
     de0:	0404      	.short	0x0404
     de2:	04          	.byte	0x04
     de3:	00          	.byte	0x00
/mnt/disk/raspbian-tee/optee_os/lib/libutee/tee_api.c:35
     de4:	f85c 4013 	ldr.w	r4, [ip, r3, lsl #1]
     de8:	6084      	str	r4, [r0, #8]
     dea:	60c2      	str	r2, [r0, #12]
/mnt/disk/raspbian-tee/optee_os/lib/libutee/tee_api.c:36
     dec:	686c      	ldr	r4, [r5, #4]
     dee:	6104      	str	r4, [r0, #16]
     df0:	6142      	str	r2, [r0, #20]
     df2:	3304      	adds	r3, #4
     df4:	3508      	adds	r5, #8
     df6:	3010      	adds	r0, #16
/mnt/disk/raspbian-tee/optee_os/lib/libutee/tee_api.c:24 (discriminator 2)
     df8:	2b10      	cmp	r3, #16
     dfa:	d1e6      	bne.n	dca <__utee_from_param+0x12>
/mnt/disk/raspbian-tee/optee_os/lib/libutee/tee_api.c:44
     dfc:	bdf0      	pop	{r4, r5, r6, r7, pc}
/mnt/disk/raspbian-tee/optee_os/lib/libutee/tee_api.c:39
     dfe:	e9c0 6702 	strd	r6, r7, [r0, #8]
/mnt/disk/raspbian-tee/optee_os/lib/libutee/tee_api.c:40
     e02:	e9c0 6704 	strd	r6, r7, [r0, #16]
/mnt/disk/raspbian-tee/optee_os/lib/libutee/tee_api.c:41
     e06:	e7f4      	b.n	df2 <__utee_from_param+0x3a>

00000e08 <__utee_to_param>:
__utee_to_param():
/mnt/disk/raspbian-tee/optee_os/lib/libutee/tee_api.c:48
     e08:	b5f0      	push	{r4, r5, r6, r7, lr}
/mnt/disk/raspbian-tee/optee_os/lib/libutee/tee_api.c:50
     e0a:	2300      	movs	r3, #0
     e0c:	6816      	ldr	r6, [r2, #0]
     e0e:	4605      	mov	r5, r0
/mnt/disk/raspbian-tee/optee_os/lib/libutee/tee_api.c:56
     e10:	fa26 f403 	lsr.w	r4, r6, r3
/mnt/disk/raspbian-tee/optee_os/lib/libutee/tee_api.c:53
     e14:	f8d2 c008 	ldr.w	ip, [r2, #8]
/mnt/disk/raspbian-tee/optee_os/lib/libutee/tee_api.c:56
     e18:	f004 040f 	and.w	r4, r4, #15
/mnt/disk/raspbian-tee/optee_os/lib/libutee/tee_api.c:54
     e1c:	6917      	ldr	r7, [r2, #16]
/mnt/disk/raspbian-tee/optee_os/lib/libutee/tee_api.c:56
     e1e:	3c01      	subs	r4, #1
     e20:	2c06      	cmp	r4, #6
     e22:	d808      	bhi.n	e36 <__utee_to_param+0x2e>
     e24:	e8df f004 	tbb	[pc, r4]
     e28:	07040404 	.word	0x07040404
     e2c:	0404      	.short	0x0404
     e2e:	04          	.byte	0x04
     e2f:	00          	.byte	0x00
/mnt/disk/raspbian-tee/optee_os/lib/libutee/tee_api.c:66
     e30:	f840 c013 	str.w	ip, [r0, r3, lsl #1]
/mnt/disk/raspbian-tee/optee_os/lib/libutee/tee_api.c:67
     e34:	606f      	str	r7, [r5, #4]
     e36:	3304      	adds	r3, #4
     e38:	3210      	adds	r2, #16
     e3a:	3508      	adds	r5, #8
/mnt/disk/raspbian-tee/optee_os/lib/libutee/tee_api.c:52 (discriminator 2)
     e3c:	2b10      	cmp	r3, #16
     e3e:	d1e7      	bne.n	e10 <__utee_to_param+0x8>
/mnt/disk/raspbian-tee/optee_os/lib/libutee/tee_api.c:74
     e40:	b101      	cbz	r1, e44 <__utee_to_param+0x3c>
/mnt/disk/raspbian-tee/optee_os/lib/libutee/tee_api.c:75
     e42:	600e      	str	r6, [r1, #0]
     e44:	bdf0      	pop	{r4, r5, r6, r7, pc}

00000e46 <TEE_OpenTASession>:
TEE_OpenTASession():
/mnt/disk/raspbian-tee/optee_os/lib/libutee/tee_api.c:84
     e46:	b5f0      	push	{r4, r5, r6, r7, lr}
     e48:	4605      	mov	r5, r0
     e4a:	460f      	mov	r7, r1
     e4c:	b097      	sub	sp, #92	; 0x5c
     e4e:	4611      	mov	r1, r2
/mnt/disk/raspbian-tee/optee_os/lib/libutee/tee_api.c:89
     e50:	ac04      	add	r4, sp, #16
     e52:	461a      	mov	r2, r3
     e54:	4620      	mov	r0, r4
/mnt/disk/raspbian-tee/optee_os/lib/libutee/tee_api.c:84
     e56:	461e      	mov	r6, r3
/mnt/disk/raspbian-tee/optee_os/lib/libutee/tee_api.c:89
     e58:	f7ff ffae 	bl	db8 <__utee_from_param>
/mnt/disk/raspbian-tee/optee_os/lib/libutee/tee_api.c:90
     e5c:	9b1d      	ldr	r3, [sp, #116]	; 0x74
     e5e:	9300      	str	r3, [sp, #0]
     e60:	4622      	mov	r2, r4
     e62:	4639      	mov	r1, r7
     e64:	4628      	mov	r0, r5
     e66:	ab03      	add	r3, sp, #12
     e68:	f002 e90a 	blx	3080 <utee_open_ta_session>
/mnt/disk/raspbian-tee/optee_os/lib/libutee/tee_api.c:92
     e6c:	4622      	mov	r2, r4
/mnt/disk/raspbian-tee/optee_os/lib/libutee/tee_api.c:90
     e6e:	4605      	mov	r5, r0
/mnt/disk/raspbian-tee/optee_os/lib/libutee/tee_api.c:92
     e70:	2100      	movs	r1, #0
     e72:	4630      	mov	r0, r6
     e74:	f7ff ffc8 	bl	e08 <__utee_to_param>
/mnt/disk/raspbian-tee/optee_os/lib/libutee/tee_api.c:98
     e78:	b10d      	cbz	r5, e7e <TEE_OpenTASession+0x38>
/mnt/disk/raspbian-tee/optee_os/lib/libutee/tee_api.c:99
     e7a:	2300      	movs	r3, #0
     e7c:	9303      	str	r3, [sp, #12]
/mnt/disk/raspbian-tee/optee_os/lib/libutee/tee_api.c:101
     e7e:	9b1c      	ldr	r3, [sp, #112]	; 0x70
/mnt/disk/raspbian-tee/optee_os/lib/libutee/tee_api.c:103
     e80:	4628      	mov	r0, r5
/mnt/disk/raspbian-tee/optee_os/lib/libutee/tee_api.c:101
     e82:	9a03      	ldr	r2, [sp, #12]
     e84:	601a      	str	r2, [r3, #0]
/mnt/disk/raspbian-tee/optee_os/lib/libutee/tee_api.c:103
     e86:	b017      	add	sp, #92	; 0x5c
     e88:	bdf0      	pop	{r4, r5, r6, r7, pc}

00000e8a <TEE_CloseTASession>:
TEE_CloseTASession():
/mnt/disk/raspbian-tee/optee_os/lib/libutee/tee_api.c:106
     e8a:	b508      	push	{r3, lr}
/mnt/disk/raspbian-tee/optee_os/lib/libutee/tee_api.c:107
     e8c:	b130      	cbz	r0, e9c <TEE_CloseTASession+0x12>
/mnt/disk/raspbian-tee/optee_os/lib/libutee/tee_api.c:108
     e8e:	f002 e904 	blx	3098 <utee_close_ta_session>
/mnt/disk/raspbian-tee/optee_os/lib/libutee/tee_api.c:110
     e92:	b118      	cbz	r0, e9c <TEE_CloseTASession+0x12>
/mnt/disk/raspbian-tee/optee_os/lib/libutee/tee_api.c:113
     e94:	e8bd 4008 	ldmia.w	sp!, {r3, lr}
/mnt/disk/raspbian-tee/optee_os/lib/libutee/tee_api.c:111
     e98:	f006 be97 	b.w	7bca <TEE_Panic>
     e9c:	bd08      	pop	{r3, pc}

00000e9e <TEE_InvokeTACommand>:
TEE_InvokeTACommand():
/mnt/disk/raspbian-tee/optee_os/lib/libutee/tee_api.c:120
     e9e:	e92d 41f0 	stmdb	sp!, {r4, r5, r6, r7, r8, lr}
     ea2:	4604      	mov	r4, r0
     ea4:	460f      	mov	r7, r1
     ea6:	b096      	sub	sp, #88	; 0x58
/mnt/disk/raspbian-tee/optee_os/lib/libutee/tee_api.c:125
     ea8:	4619      	mov	r1, r3
     eaa:	ad04      	add	r5, sp, #16
/mnt/disk/raspbian-tee/optee_os/lib/libutee/tee_api.c:120
     eac:	4690      	mov	r8, r2
/mnt/disk/raspbian-tee/optee_os/lib/libutee/tee_api.c:125
     eae:	4628      	mov	r0, r5
/mnt/disk/raspbian-tee/optee_os/lib/libutee/tee_api.c:120
     eb0:	9e1d      	ldr	r6, [sp, #116]	; 0x74
/mnt/disk/raspbian-tee/optee_os/lib/libutee/tee_api.c:125
     eb2:	9a1c      	ldr	r2, [sp, #112]	; 0x70
     eb4:	f7ff ff80 	bl	db8 <__utee_from_param>
/mnt/disk/raspbian-tee/optee_os/lib/libutee/tee_api.c:126
     eb8:	ab03      	add	r3, sp, #12
     eba:	4642      	mov	r2, r8
     ebc:	9300      	str	r3, [sp, #0]
     ebe:	4639      	mov	r1, r7
     ec0:	462b      	mov	r3, r5
     ec2:	4620      	mov	r0, r4
     ec4:	f002 e8f2 	blx	30ac <utee_invoke_ta_command>
/mnt/disk/raspbian-tee/optee_os/lib/libutee/tee_api.c:129
     ec8:	462a      	mov	r2, r5
/mnt/disk/raspbian-tee/optee_os/lib/libutee/tee_api.c:126
     eca:	4604      	mov	r4, r0
/mnt/disk/raspbian-tee/optee_os/lib/libutee/tee_api.c:129
     ecc:	2100      	movs	r1, #0
     ece:	981c      	ldr	r0, [sp, #112]	; 0x70
     ed0:	f7ff ff9a 	bl	e08 <__utee_to_param>
     ed4:	9b03      	ldr	r3, [sp, #12]
/mnt/disk/raspbian-tee/optee_os/lib/libutee/tee_api.c:131
     ed6:	b106      	cbz	r6, eda <TEE_InvokeTACommand+0x3c>
/mnt/disk/raspbian-tee/optee_os/lib/libutee/tee_api.c:132
     ed8:	6033      	str	r3, [r6, #0]
/mnt/disk/raspbian-tee/optee_os/lib/libutee/tee_api.c:134
     eda:	2b04      	cmp	r3, #4
     edc:	d009      	beq.n	ef2 <TEE_InvokeTACommand+0x54>
/mnt/disk/raspbian-tee/optee_os/lib/libutee/tee_api.c:137
     ede:	b144      	cbz	r4, ef2 <TEE_InvokeTACommand+0x54>
/mnt/disk/raspbian-tee/optee_os/lib/libutee/tee_api.c:137 (discriminator 1)
     ee0:	4b06      	ldr	r3, [pc, #24]	; (efc <TEE_InvokeTACommand+0x5e>)
     ee2:	429c      	cmp	r4, r3
     ee4:	d005      	beq.n	ef2 <TEE_InvokeTACommand+0x54>
/mnt/disk/raspbian-tee/optee_os/lib/libutee/tee_api.c:138
     ee6:	4b06      	ldr	r3, [pc, #24]	; (f00 <TEE_InvokeTACommand+0x62>)
     ee8:	429c      	cmp	r4, r3
     eea:	d002      	beq.n	ef2 <TEE_InvokeTACommand+0x54>
/mnt/disk/raspbian-tee/optee_os/lib/libutee/tee_api.c:140
     eec:	4620      	mov	r0, r4
     eee:	f006 fe6c 	bl	7bca <TEE_Panic>
/mnt/disk/raspbian-tee/optee_os/lib/libutee/tee_api.c:143
     ef2:	4620      	mov	r0, r4
     ef4:	b016      	add	sp, #88	; 0x58
     ef6:	e8bd 81f0 	ldmia.w	sp!, {r4, r5, r6, r7, r8, pc}
     efa:	bf00      	nop
     efc:	ffff000c 	.word	0xffff000c
     f00:	ffff3024 	.word	0xffff3024

00000f04 <TEE_GetCancellationFlag>:
TEE_GetCancellationFlag():
/mnt/disk/raspbian-tee/optee_os/lib/libutee/tee_api.c:148
     f04:	b507      	push	{r0, r1, r2, lr}
/mnt/disk/raspbian-tee/optee_os/lib/libutee/tee_api.c:150
     f06:	a801      	add	r0, sp, #4
     f08:	f002 e8dc 	blx	30c4 <utee_get_cancellation_flag>
/mnt/disk/raspbian-tee/optee_os/lib/libutee/tee_api.c:152
     f0c:	b108      	cbz	r0, f12 <TEE_GetCancellationFlag+0xe>
/mnt/disk/raspbian-tee/optee_os/lib/libutee/tee_api.c:153
     f0e:	2300      	movs	r3, #0
     f10:	9301      	str	r3, [sp, #4]
/mnt/disk/raspbian-tee/optee_os/lib/libutee/tee_api.c:155
     f12:	9801      	ldr	r0, [sp, #4]
     f14:	3000      	adds	r0, #0
     f16:	bf18      	it	ne
     f18:	2001      	movne	r0, #1
     f1a:	b003      	add	sp, #12
     f1c:	f85d fb04 	ldr.w	pc, [sp], #4

00000f20 <TEE_UnmaskCancellation>:
TEE_UnmaskCancellation():
/mnt/disk/raspbian-tee/optee_os/lib/libutee/tee_api.c:158
     f20:	b507      	push	{r0, r1, r2, lr}
/mnt/disk/raspbian-tee/optee_os/lib/libutee/tee_api.c:160
     f22:	a801      	add	r0, sp, #4
     f24:	f002 e8e2 	blx	30ec <utee_unmask_cancellation>
/mnt/disk/raspbian-tee/optee_os/lib/libutee/tee_api.c:162
     f28:	b108      	cbz	r0, f2e <TEE_UnmaskCancellation+0xe>
/mnt/disk/raspbian-tee/optee_os/lib/libutee/tee_api.c:163
     f2a:	f006 fe4e 	bl	7bca <TEE_Panic>
/mnt/disk/raspbian-tee/optee_os/lib/libutee/tee_api.c:165
     f2e:	9801      	ldr	r0, [sp, #4]
     f30:	3000      	adds	r0, #0
     f32:	bf18      	it	ne
     f34:	2001      	movne	r0, #1
     f36:	b003      	add	sp, #12
     f38:	f85d fb04 	ldr.w	pc, [sp], #4

00000f3c <TEE_MaskCancellation>:
TEE_MaskCancellation():
/mnt/disk/raspbian-tee/optee_os/lib/libutee/tee_api.c:168
     f3c:	b507      	push	{r0, r1, r2, lr}
/mnt/disk/raspbian-tee/optee_os/lib/libutee/tee_api.c:170
     f3e:	a801      	add	r0, sp, #4
     f40:	f002 e8de 	blx	3100 <utee_mask_cancellation>
/mnt/disk/raspbian-tee/optee_os/lib/libutee/tee_api.c:172
     f44:	b108      	cbz	r0, f4a <TEE_MaskCancellation+0xe>
/mnt/disk/raspbian-tee/optee_os/lib/libutee/tee_api.c:173
     f46:	f006 fe40 	bl	7bca <TEE_Panic>
/mnt/disk/raspbian-tee/optee_os/lib/libutee/tee_api.c:175
     f4a:	9801      	ldr	r0, [sp, #4]
     f4c:	3000      	adds	r0, #0
     f4e:	bf18      	it	ne
     f50:	2001      	movne	r0, #1
     f52:	b003      	add	sp, #12
     f54:	f85d fb04 	ldr.w	pc, [sp], #4

00000f58 <TEE_CheckMemoryAccessRights>:
TEE_CheckMemoryAccessRights():
/mnt/disk/raspbian-tee/optee_os/lib/libutee/tee_api.c:184
     f58:	b10a      	cbz	r2, f5e <TEE_CheckMemoryAccessRights+0x6>
/mnt/disk/raspbian-tee/optee_os/lib/libutee/tee_api.c:188
     f5a:	f006 be8d 	b.w	7c78 <__utee_check_access_rights_from_thumb>
/mnt/disk/raspbian-tee/optee_os/lib/libutee/tee_api.c:200
     f5e:	4610      	mov	r0, r2
     f60:	4770      	bx	lr

00000f62 <TEE_SetInstanceData>:
TEE_SetInstanceData():
/mnt/disk/raspbian-tee/optee_os/lib/libutee/tee_api.c:204
     f62:	4b02      	ldr	r3, [pc, #8]	; (f6c <TEE_SetInstanceData+0xa>)
     f64:	447b      	add	r3, pc
     f66:	6018      	str	r0, [r3, #0]
     f68:	4770      	bx	lr
     f6a:	bf00      	nop
     f6c:	0000911c 	.word	0x0000911c

00000f70 <TEE_GetInstanceData>:
TEE_GetInstanceData():
/mnt/disk/raspbian-tee/optee_os/lib/libutee/tee_api.c:210
     f70:	4b01      	ldr	r3, [pc, #4]	; (f78 <TEE_GetInstanceData+0x8>)
     f72:	447b      	add	r3, pc
     f74:	6818      	ldr	r0, [r3, #0]
     f76:	4770      	bx	lr
     f78:	0000910e 	.word	0x0000910e

00000f7c <TEE_MemMove>:
TEE_MemMove():
/mnt/disk/raspbian-tee/optee_os/lib/libutee/tee_api.c:214
     f7c:	f006 be4c 	b.w	7c18 <memmove>

00000f80 <TEE_MemCompare>:
TEE_MemCompare():
/mnt/disk/raspbian-tee/optee_os/lib/libutee/tee_api.c:219
     f80:	f006 be3b 	b.w	7bfa <memcmp>

00000f84 <TEE_MemFill>:
TEE_MemFill():
/mnt/disk/raspbian-tee/optee_os/lib/libutee/tee_api.c:224
     f84:	f006 bd50 	b.w	7a28 <memset>

00000f88 <TEE_GetSystemTime>:
TEE_GetSystemTime():
/mnt/disk/raspbian-tee/optee_os/lib/libutee/tee_api.c:230
     f88:	b508      	push	{r3, lr}
/mnt/disk/raspbian-tee/optee_os/lib/libutee/tee_api.c:231
     f8a:	4601      	mov	r1, r0
     f8c:	2000      	movs	r0, #0
     f8e:	f002 e8cc 	blx	3128 <utee_get_time>
/mnt/disk/raspbian-tee/optee_os/lib/libutee/tee_api.c:233
     f92:	b118      	cbz	r0, f9c <TEE_GetSystemTime+0x14>
/mnt/disk/raspbian-tee/optee_os/lib/libutee/tee_api.c:235
     f94:	e8bd 4008 	ldmia.w	sp!, {r3, lr}
/mnt/disk/raspbian-tee/optee_os/lib/libutee/tee_api.c:234
     f98:	f006 be17 	b.w	7bca <TEE_Panic>
     f9c:	bd08      	pop	{r3, pc}

00000f9e <TEE_Wait>:
TEE_Wait():
/mnt/disk/raspbian-tee/optee_os/lib/libutee/tee_api.c:238
     f9e:	b510      	push	{r4, lr}
/mnt/disk/raspbian-tee/optee_os/lib/libutee/tee_api.c:239
     fa0:	f002 e8b8 	blx	3114 <utee_wait>
/mnt/disk/raspbian-tee/optee_os/lib/libutee/tee_api.c:241
     fa4:	4604      	mov	r4, r0
     fa6:	b120      	cbz	r0, fb2 <TEE_Wait+0x14>
/mnt/disk/raspbian-tee/optee_os/lib/libutee/tee_api.c:241 (discriminator 1)
     fa8:	4b03      	ldr	r3, [pc, #12]	; (fb8 <TEE_Wait+0x1a>)
     faa:	4298      	cmp	r0, r3
     fac:	d001      	beq.n	fb2 <TEE_Wait+0x14>
/mnt/disk/raspbian-tee/optee_os/lib/libutee/tee_api.c:242
     fae:	f006 fe0c 	bl	7bca <TEE_Panic>
/mnt/disk/raspbian-tee/optee_os/lib/libutee/tee_api.c:245
     fb2:	4620      	mov	r0, r4
     fb4:	bd10      	pop	{r4, pc}
     fb6:	bf00      	nop
     fb8:	ffff0002 	.word	0xffff0002

00000fbc <TEE_GetTAPersistentTime>:
TEE_GetTAPersistentTime():
/mnt/disk/raspbian-tee/optee_os/lib/libutee/tee_api.c:248
     fbc:	b538      	push	{r3, r4, r5, lr}
/mnt/disk/raspbian-tee/optee_os/lib/libutee/tee_api.c:251
     fbe:	4601      	mov	r1, r0
/mnt/disk/raspbian-tee/optee_os/lib/libutee/tee_api.c:248
     fc0:	4605      	mov	r5, r0
/mnt/disk/raspbian-tee/optee_os/lib/libutee/tee_api.c:251
     fc2:	2001      	movs	r0, #1
     fc4:	f002 e8b0 	blx	3128 <utee_get_time>
/mnt/disk/raspbian-tee/optee_os/lib/libutee/tee_api.c:253
     fc8:	4604      	mov	r4, r0
     fca:	b170      	cbz	r0, fea <TEE_GetTAPersistentTime+0x2e>
/mnt/disk/raspbian-tee/optee_os/lib/libutee/tee_api.c:253 (discriminator 1)
     fcc:	4b08      	ldr	r3, [pc, #32]	; (ff0 <TEE_GetTAPersistentTime+0x34>)
     fce:	4298      	cmp	r0, r3
     fd0:	d00b      	beq.n	fea <TEE_GetTAPersistentTime+0x2e>
/mnt/disk/raspbian-tee/optee_os/lib/libutee/tee_api.c:254
     fd2:	2300      	movs	r3, #0
     fd4:	602b      	str	r3, [r5, #0]
/mnt/disk/raspbian-tee/optee_os/lib/libutee/tee_api.c:255
     fd6:	606b      	str	r3, [r5, #4]
/mnt/disk/raspbian-tee/optee_os/lib/libutee/tee_api.c:258
     fd8:	f500 4330 	add.w	r3, r0, #45056	; 0xb000
     fdc:	2b01      	cmp	r3, #1
     fde:	d904      	bls.n	fea <TEE_GetTAPersistentTime+0x2e>
/mnt/disk/raspbian-tee/optee_os/lib/libutee/tee_api.c:261
     fe0:	4b04      	ldr	r3, [pc, #16]	; (ff4 <TEE_GetTAPersistentTime+0x38>)
     fe2:	4298      	cmp	r0, r3
     fe4:	d001      	beq.n	fea <TEE_GetTAPersistentTime+0x2e>
/mnt/disk/raspbian-tee/optee_os/lib/libutee/tee_api.c:263
     fe6:	f006 fdf0 	bl	7bca <TEE_Panic>
/mnt/disk/raspbian-tee/optee_os/lib/libutee/tee_api.c:266
     fea:	4620      	mov	r0, r4
     fec:	bd38      	pop	{r3, r4, r5, pc}
     fee:	bf00      	nop
     ff0:	ffff300f 	.word	0xffff300f
     ff4:	ffff000c 	.word	0xffff000c

00000ff8 <TEE_SetTAPersistentTime>:
TEE_SetTAPersistentTime():
/mnt/disk/raspbian-tee/optee_os/lib/libutee/tee_api.c:269
     ff8:	b510      	push	{r4, lr}
/mnt/disk/raspbian-tee/optee_os/lib/libutee/tee_api.c:272
     ffa:	f002 e8a0 	blx	313c <utee_set_ta_time>
/mnt/disk/raspbian-tee/optee_os/lib/libutee/tee_api.c:274
     ffe:	4604      	mov	r4, r0
    1000:	b138      	cbz	r0, 1012 <TEE_SetTAPersistentTime+0x1a>
/mnt/disk/raspbian-tee/optee_os/lib/libutee/tee_api.c:274 (discriminator 1)
    1002:	4b05      	ldr	r3, [pc, #20]	; (1018 <TEE_SetTAPersistentTime+0x20>)
    1004:	4298      	cmp	r0, r3
    1006:	d004      	beq.n	1012 <TEE_SetTAPersistentTime+0x1a>
/mnt/disk/raspbian-tee/optee_os/lib/libutee/tee_api.c:275
    1008:	4b04      	ldr	r3, [pc, #16]	; (101c <TEE_SetTAPersistentTime+0x24>)
    100a:	4298      	cmp	r0, r3
    100c:	d001      	beq.n	1012 <TEE_SetTAPersistentTime+0x1a>
/mnt/disk/raspbian-tee/optee_os/lib/libutee/tee_api.c:277
    100e:	f006 fddc 	bl	7bca <TEE_Panic>
/mnt/disk/raspbian-tee/optee_os/lib/libutee/tee_api.c:280
    1012:	4620      	mov	r0, r4
    1014:	bd10      	pop	{r4, pc}
    1016:	bf00      	nop
    1018:	ffff000c 	.word	0xffff000c
    101c:	ffff3041 	.word	0xffff3041

00001020 <TEE_GetREETime>:
TEE_GetREETime():
/mnt/disk/raspbian-tee/optee_os/lib/libutee/tee_api.c:283
    1020:	b508      	push	{r3, lr}
/mnt/disk/raspbian-tee/optee_os/lib/libutee/tee_api.c:284
    1022:	4601      	mov	r1, r0
    1024:	2002      	movs	r0, #2
    1026:	f002 e880 	blx	3128 <utee_get_time>
/mnt/disk/raspbian-tee/optee_os/lib/libutee/tee_api.c:286
    102a:	b118      	cbz	r0, 1034 <TEE_GetREETime+0x14>
/mnt/disk/raspbian-tee/optee_os/lib/libutee/tee_api.c:288
    102c:	e8bd 4008 	ldmia.w	sp!, {r3, lr}
/mnt/disk/raspbian-tee/optee_os/lib/libutee/tee_api.c:287
    1030:	f006 bdcb 	b.w	7bca <TEE_Panic>
    1034:	bd08      	pop	{r3, pc}

00001036 <TEE_Malloc>:
TEE_Malloc():
/mnt/disk/raspbian-tee/optee_os/lib/libutee/tee_api.c:291
    1036:	b507      	push	{r0, r1, r2, lr}
/mnt/disk/raspbian-tee/optee_os/lib/libutee/tee_api.c:292
    1038:	b931      	cbnz	r1, 1048 <TEE_Malloc+0x12>
/mnt/disk/raspbian-tee/optee_os/lib/libutee/tee_api.c:293
    103a:	4601      	mov	r1, r0
    103c:	2001      	movs	r0, #1
/mnt/disk/raspbian-tee/optee_os/lib/libutee/tee_api.c:300
    103e:	b003      	add	sp, #12
    1040:	f85d eb04 	ldr.w	lr, [sp], #4
/mnt/disk/raspbian-tee/optee_os/lib/libutee/tee_api.c:293
    1044:	f006 b99c 	b.w	7380 <calloc>
/mnt/disk/raspbian-tee/optee_os/lib/libutee/tee_api.c:294
    1048:	f1b1 4f00 	cmp.w	r1, #2147483648	; 0x80000000
    104c:	d104      	bne.n	1058 <TEE_Malloc+0x22>
/mnt/disk/raspbian-tee/optee_os/lib/libutee/tee_api.c:300
    104e:	b003      	add	sp, #12
    1050:	f85d eb04 	ldr.w	lr, [sp], #4
/mnt/disk/raspbian-tee/optee_os/lib/libutee/tee_api.c:295
    1054:	f006 b98a 	b.w	736c <malloc>
/mnt/disk/raspbian-tee/optee_os/lib/libutee/tee_api.c:297
    1058:	4b07      	ldr	r3, [pc, #28]	; (1078 <TEE_Malloc+0x42>)
    105a:	4808      	ldr	r0, [pc, #32]	; (107c <TEE_Malloc+0x46>)
    105c:	447b      	add	r3, pc
    105e:	9300      	str	r3, [sp, #0]
    1060:	2301      	movs	r3, #1
    1062:	9101      	str	r1, [sp, #4]
    1064:	461a      	mov	r2, r3
    1066:	f240 1129 	movw	r1, #297	; 0x129
    106a:	4478      	add	r0, pc
    106c:	f7ff f972 	bl	354 <trace_printf>
/mnt/disk/raspbian-tee/optee_os/lib/libutee/tee_api.c:300
    1070:	2000      	movs	r0, #0
    1072:	b003      	add	sp, #12
    1074:	f85d fb04 	ldr.w	pc, [sp], #4
    1078:	0000711b 	.word	0x0000711b
    107c:	00007102 	.word	0x00007102

00001080 <TEE_Realloc>:
TEE_Realloc():
/mnt/disk/raspbian-tee/optee_os/lib/libutee/tee_api.c:304
    1080:	f006 b9a2 	b.w	73c8 <realloc>

00001084 <TEE_Free>:
TEE_Free():
/mnt/disk/raspbian-tee/optee_os/lib/libutee/tee_api.c:309
    1084:	f006 b973 	b.w	736e <free>

00001088 <TEE_CacheClean>:
TEE_CacheClean():
/mnt/disk/raspbian-tee/optee_os/lib/libutee/tee_api.c:315
    1088:	2200      	movs	r2, #0
    108a:	f006 be05 	b.w	7c98 <__utee_cache_operation_from_thumb>

0000108e <TEE_CacheFlush>:
TEE_CacheFlush():
/mnt/disk/raspbian-tee/optee_os/lib/libutee/tee_api.c:319
    108e:	2201      	movs	r2, #1
    1090:	f006 be02 	b.w	7c98 <__utee_cache_operation_from_thumb>

00001094 <TEE_CacheInvalidate>:
TEE_CacheInvalidate():
/mnt/disk/raspbian-tee/optee_os/lib/libutee/tee_api.c:324
    1094:	2202      	movs	r2, #2
    1096:	f006 bdff 	b.w	7c98 <__utee_cache_operation_from_thumb>
    109a:	bf00      	nop

0000109c <__utee_from_attr>:
__utee_from_attr():
/mnt/disk/raspbian-tee/optee_os/lib/libutee/tee_api_objects.c:19
    109c:	2318      	movs	r3, #24
    109e:	b530      	push	{r4, r5, lr}
/mnt/disk/raspbian-tee/optee_os/lib/libutee/tee_api_objects.c:25
    10a0:	2400      	movs	r4, #0
    10a2:	fb03 0202 	mla	r2, r3, r2, r0
/mnt/disk/raspbian-tee/optee_os/lib/libutee/tee_api_objects.c:22 (discriminator 1)
    10a6:	4290      	cmp	r0, r2
    10a8:	d100      	bne.n	10ac <__utee_from_attr+0x10>
/mnt/disk/raspbian-tee/optee_os/lib/libutee/tee_api_objects.c:32
    10aa:	bd30      	pop	{r4, r5, pc}
/mnt/disk/raspbian-tee/optee_os/lib/libutee/tee_api_objects.c:23
    10ac:	680b      	ldr	r3, [r1, #0]
    10ae:	6103      	str	r3, [r0, #16]
/mnt/disk/raspbian-tee/optee_os/lib/libutee/tee_api_objects.c:24
    10b0:	f013 5300 	ands.w	r3, r3, #536870912	; 0x20000000
    10b4:	d008      	beq.n	10c8 <__utee_from_attr+0x2c>
/mnt/disk/raspbian-tee/optee_os/lib/libutee/tee_api_objects.c:25
    10b6:	684b      	ldr	r3, [r1, #4]
    10b8:	e880 0018 	stmia.w	r0, {r3, r4}
/mnt/disk/raspbian-tee/optee_os/lib/libutee/tee_api_objects.c:26
    10bc:	688b      	ldr	r3, [r1, #8]
    10be:	6083      	str	r3, [r0, #8]
    10c0:	60c4      	str	r4, [r0, #12]
    10c2:	310c      	adds	r1, #12
    10c4:	3018      	adds	r0, #24
    10c6:	e7ee      	b.n	10a6 <__utee_from_attr+0xa>
/mnt/disk/raspbian-tee/optee_os/lib/libutee/tee_api_objects.c:28
    10c8:	684d      	ldr	r5, [r1, #4]
    10ca:	6005      	str	r5, [r0, #0]
    10cc:	6043      	str	r3, [r0, #4]
/mnt/disk/raspbian-tee/optee_os/lib/libutee/tee_api_objects.c:29
    10ce:	688d      	ldr	r5, [r1, #8]
    10d0:	6085      	str	r5, [r0, #8]
    10d2:	60c3      	str	r3, [r0, #12]
    10d4:	e7f5      	b.n	10c2 <__utee_from_attr+0x26>

000010d6 <TEE_GetObjectInfo>:
TEE_GetObjectInfo():
/mnt/disk/raspbian-tee/optee_os/lib/libutee/tee_api_objects.c:42
    10d6:	b510      	push	{r4, lr}
    10d8:	460c      	mov	r4, r1
/mnt/disk/raspbian-tee/optee_os/lib/libutee/tee_api_objects.c:45
    10da:	f002 e89c 	blx	3214 <utee_cryp_obj_get_info>
/mnt/disk/raspbian-tee/optee_os/lib/libutee/tee_api_objects.c:47
    10de:	b108      	cbz	r0, 10e4 <TEE_GetObjectInfo+0xe>
/mnt/disk/raspbian-tee/optee_os/lib/libutee/tee_api_objects.c:48
    10e0:	f006 fd73 	bl	7bca <TEE_Panic>
/mnt/disk/raspbian-tee/optee_os/lib/libutee/tee_api_objects.c:50
    10e4:	6822      	ldr	r2, [r4, #0]
    10e6:	4b05      	ldr	r3, [pc, #20]	; (10fc <TEE_GetObjectInfo+0x26>)
    10e8:	429a      	cmp	r2, r3
    10ea:	d106      	bne.n	10fa <TEE_GetObjectInfo+0x24>
/mnt/disk/raspbian-tee/optee_os/lib/libutee/tee_api_objects.c:51
    10ec:	2300      	movs	r3, #0
    10ee:	6063      	str	r3, [r4, #4]
/mnt/disk/raspbian-tee/optee_os/lib/libutee/tee_api_objects.c:52
    10f0:	60a3      	str	r3, [r4, #8]
/mnt/disk/raspbian-tee/optee_os/lib/libutee/tee_api_objects.c:53
    10f2:	60e3      	str	r3, [r4, #12]
/mnt/disk/raspbian-tee/optee_os/lib/libutee/tee_api_objects.c:54
    10f4:	6123      	str	r3, [r4, #16]
/mnt/disk/raspbian-tee/optee_os/lib/libutee/tee_api_objects.c:55
    10f6:	6163      	str	r3, [r4, #20]
/mnt/disk/raspbian-tee/optee_os/lib/libutee/tee_api_objects.c:56
    10f8:	61a3      	str	r3, [r4, #24]
    10fa:	bd10      	pop	{r4, pc}
    10fc:	a00000be 	.word	0xa00000be

00001100 <TEE_GetObjectInfo1>:
TEE_GetObjectInfo1():
/mnt/disk/raspbian-tee/optee_os/lib/libutee/tee_api_objects.c:61
    1100:	b510      	push	{r4, lr}
/mnt/disk/raspbian-tee/optee_os/lib/libutee/tee_api_objects.c:64
    1102:	f002 e888 	blx	3214 <utee_cryp_obj_get_info>
/mnt/disk/raspbian-tee/optee_os/lib/libutee/tee_api_objects.c:66
    1106:	4604      	mov	r4, r0
    1108:	b130      	cbz	r0, 1118 <TEE_GetObjectInfo1+0x18>
/mnt/disk/raspbian-tee/optee_os/lib/libutee/tee_api_objects.c:66 (discriminator 1)
    110a:	4b04      	ldr	r3, [pc, #16]	; (111c <TEE_GetObjectInfo1+0x1c>)
    110c:	f020 0202 	bic.w	r2, r0, #2
    1110:	429a      	cmp	r2, r3
    1112:	d001      	beq.n	1118 <TEE_GetObjectInfo1+0x18>
/mnt/disk/raspbian-tee/optee_os/lib/libutee/tee_api_objects.c:69
    1114:	f006 fd59 	bl	7bca <TEE_Panic>
/mnt/disk/raspbian-tee/optee_os/lib/libutee/tee_api_objects.c:72
    1118:	4620      	mov	r0, r4
    111a:	bd10      	pop	{r4, pc}
    111c:	f0100001 	.word	0xf0100001

00001120 <TEE_RestrictObjectUsage1>:
TEE_RestrictObjectUsage1():
/mnt/disk/raspbian-tee/optee_os/lib/libutee/tee_api_objects.c:96
    1120:	b510      	push	{r4, lr}
/mnt/disk/raspbian-tee/optee_os/lib/libutee/tee_api_objects.c:99
    1122:	f002 e882 	blx	3228 <utee_cryp_obj_restrict_usage>
/mnt/disk/raspbian-tee/optee_os/lib/libutee/tee_api_objects.c:101
    1126:	4604      	mov	r4, r0
    1128:	b130      	cbz	r0, 1138 <TEE_RestrictObjectUsage1+0x18>
/mnt/disk/raspbian-tee/optee_os/lib/libutee/tee_api_objects.c:101 (discriminator 1)
    112a:	4b04      	ldr	r3, [pc, #16]	; (113c <TEE_RestrictObjectUsage1+0x1c>)
    112c:	f020 0202 	bic.w	r2, r0, #2
    1130:	429a      	cmp	r2, r3
    1132:	d001      	beq.n	1138 <TEE_RestrictObjectUsage1+0x18>
/mnt/disk/raspbian-tee/optee_os/lib/libutee/tee_api_objects.c:104
    1134:	f006 fd49 	bl	7bca <TEE_Panic>
/mnt/disk/raspbian-tee/optee_os/lib/libutee/tee_api_objects.c:107
    1138:	4620      	mov	r0, r4
    113a:	bd10      	pop	{r4, pc}
    113c:	f0100001 	.word	0xf0100001

00001140 <TEE_RestrictObjectUsage>:
TEE_RestrictObjectUsage():
/mnt/disk/raspbian-tee/optee_os/lib/libutee/tee_api_objects.c:81
    1140:	b530      	push	{r4, r5, lr}
    1142:	460d      	mov	r5, r1
    1144:	4604      	mov	r4, r0
    1146:	b089      	sub	sp, #36	; 0x24
/mnt/disk/raspbian-tee/optee_os/lib/libutee/tee_api_objects.c:85
    1148:	a901      	add	r1, sp, #4
    114a:	f002 e864 	blx	3214 <utee_cryp_obj_get_info>
/mnt/disk/raspbian-tee/optee_os/lib/libutee/tee_api_objects.c:86
    114e:	4b06      	ldr	r3, [pc, #24]	; (1168 <TEE_RestrictObjectUsage+0x28>)
    1150:	9a01      	ldr	r2, [sp, #4]
    1152:	429a      	cmp	r2, r3
    1154:	d006      	beq.n	1164 <TEE_RestrictObjectUsage+0x24>
/mnt/disk/raspbian-tee/optee_os/lib/libutee/tee_api_objects.c:89
    1156:	4629      	mov	r1, r5
    1158:	4620      	mov	r0, r4
    115a:	f7ff ffe1 	bl	1120 <TEE_RestrictObjectUsage1>
/mnt/disk/raspbian-tee/optee_os/lib/libutee/tee_api_objects.c:91
    115e:	b108      	cbz	r0, 1164 <TEE_RestrictObjectUsage+0x24>
/mnt/disk/raspbian-tee/optee_os/lib/libutee/tee_api_objects.c:92
    1160:	f006 fd33 	bl	7bca <TEE_Panic>
/mnt/disk/raspbian-tee/optee_os/lib/libutee/tee_api_objects.c:93
    1164:	b009      	add	sp, #36	; 0x24
    1166:	bd30      	pop	{r4, r5, pc}
    1168:	a00000be 	.word	0xa00000be

0000116c <TEE_GetObjectBufferAttribute>:
TEE_GetObjectBufferAttribute():
/mnt/disk/raspbian-tee/optee_os/lib/libutee/tee_api_objects.c:112
    116c:	e92d 41f0 	stmdb	sp!, {r4, r5, r6, r7, r8, lr}
    1170:	460e      	mov	r6, r1
    1172:	4607      	mov	r7, r0
    1174:	b08a      	sub	sp, #40	; 0x28
    1176:	4690      	mov	r8, r2
/mnt/disk/raspbian-tee/optee_os/lib/libutee/tee_api_objects.c:117
    1178:	a903      	add	r1, sp, #12
/mnt/disk/raspbian-tee/optee_os/lib/libutee/tee_api_objects.c:112
    117a:	461d      	mov	r5, r3
/mnt/disk/raspbian-tee/optee_os/lib/libutee/tee_api_objects.c:117
    117c:	f002 e84a 	blx	3214 <utee_cryp_obj_get_info>
/mnt/disk/raspbian-tee/optee_os/lib/libutee/tee_api_objects.c:118
    1180:	4604      	mov	r4, r0
    1182:	b970      	cbnz	r0, 11a2 <TEE_GetObjectBufferAttribute+0x36>
/mnt/disk/raspbian-tee/optee_os/lib/libutee/tee_api_objects.c:122
    1184:	00b3      	lsls	r3, r6, #2
    1186:	d422      	bmi.n	11ce <TEE_GetObjectBufferAttribute+0x62>
/mnt/disk/raspbian-tee/optee_os/lib/libutee/tee_api_objects.c:127
    1188:	682b      	ldr	r3, [r5, #0]
/mnt/disk/raspbian-tee/optee_os/lib/libutee/tee_api_objects.c:128
    118a:	4642      	mov	r2, r8
/mnt/disk/raspbian-tee/optee_os/lib/libutee/tee_api_objects.c:127
    118c:	e88d 0018 	stmia.w	sp, {r3, r4}
/mnt/disk/raspbian-tee/optee_os/lib/libutee/tee_api_objects.c:128
    1190:	4631      	mov	r1, r6
    1192:	466b      	mov	r3, sp
    1194:	4638      	mov	r0, r7
    1196:	f002 e852 	blx	323c <utee_cryp_obj_get_attr>
/mnt/disk/raspbian-tee/optee_os/lib/libutee/tee_api_objects.c:130
    119a:	9b00      	ldr	r3, [sp, #0]
    119c:	602b      	str	r3, [r5, #0]
/mnt/disk/raspbian-tee/optee_os/lib/libutee/tee_api_objects.c:133
    119e:	4604      	mov	r4, r0
    11a0:	b188      	cbz	r0, 11c6 <TEE_GetObjectBufferAttribute+0x5a>
/mnt/disk/raspbian-tee/optee_os/lib/libutee/tee_api_objects.c:133 (discriminator 1)
    11a2:	4b0c      	ldr	r3, [pc, #48]	; (11d4 <TEE_GetObjectBufferAttribute+0x68>)
    11a4:	429c      	cmp	r4, r3
    11a6:	d00e      	beq.n	11c6 <TEE_GetObjectBufferAttribute+0x5a>
/mnt/disk/raspbian-tee/optee_os/lib/libutee/tee_api_objects.c:134
    11a8:	3308      	adds	r3, #8
    11aa:	429c      	cmp	r4, r3
    11ac:	d00b      	beq.n	11c6 <TEE_GetObjectBufferAttribute+0x5a>
/mnt/disk/raspbian-tee/optee_os/lib/libutee/tee_api_objects.c:135
    11ae:	f1a3 637e 	sub.w	r3, r3, #266338304	; 0xfe00000
    11b2:	f1a3 130f 	sub.w	r3, r3, #983055	; 0xf000f
    11b6:	429c      	cmp	r4, r3
    11b8:	d005      	beq.n	11c6 <TEE_GetObjectBufferAttribute+0x5a>
/mnt/disk/raspbian-tee/optee_os/lib/libutee/tee_api_objects.c:136
    11ba:	3302      	adds	r3, #2
    11bc:	429c      	cmp	r4, r3
    11be:	d002      	beq.n	11c6 <TEE_GetObjectBufferAttribute+0x5a>
/mnt/disk/raspbian-tee/optee_os/lib/libutee/tee_api_objects.c:138
    11c0:	4620      	mov	r0, r4
    11c2:	f006 fd02 	bl	7bca <TEE_Panic>
/mnt/disk/raspbian-tee/optee_os/lib/libutee/tee_api_objects.c:141
    11c6:	4620      	mov	r0, r4
    11c8:	b00a      	add	sp, #40	; 0x28
    11ca:	e8bd 81f0 	ldmia.w	sp!, {r4, r5, r6, r7, r8, pc}
/mnt/disk/raspbian-tee/optee_os/lib/libutee/tee_api_objects.c:123
    11ce:	4c02      	ldr	r4, [pc, #8]	; (11d8 <TEE_GetObjectBufferAttribute+0x6c>)
    11d0:	e7f6      	b.n	11c0 <TEE_GetObjectBufferAttribute+0x54>
    11d2:	bf00      	nop
    11d4:	ffff0008 	.word	0xffff0008
    11d8:	ffff0006 	.word	0xffff0006

000011dc <TEE_GetObjectValueAttribute>:
TEE_GetObjectValueAttribute():
/mnt/disk/raspbian-tee/optee_os/lib/libutee/tee_api_objects.c:146
    11dc:	e92d 41f0 	stmdb	sp!, {r4, r5, r6, r7, r8, lr}
    11e0:	460f      	mov	r7, r1
    11e2:	4680      	mov	r8, r0
    11e4:	b08c      	sub	sp, #48	; 0x30
    11e6:	4616      	mov	r6, r2
/mnt/disk/raspbian-tee/optee_os/lib/libutee/tee_api_objects.c:152
    11e8:	a905      	add	r1, sp, #20
/mnt/disk/raspbian-tee/optee_os/lib/libutee/tee_api_objects.c:150
    11ea:	2208      	movs	r2, #8
/mnt/disk/raspbian-tee/optee_os/lib/libutee/tee_api_objects.c:146
    11ec:	461d      	mov	r5, r3
/mnt/disk/raspbian-tee/optee_os/lib/libutee/tee_api_objects.c:150
    11ee:	2300      	movs	r3, #0
    11f0:	e9cd 2300 	strd	r2, r3, [sp]
/mnt/disk/raspbian-tee/optee_os/lib/libutee/tee_api_objects.c:152
    11f4:	f002 e80e 	blx	3214 <utee_cryp_obj_get_info>
/mnt/disk/raspbian-tee/optee_os/lib/libutee/tee_api_objects.c:153
    11f8:	4604      	mov	r4, r0
    11fa:	b948      	cbnz	r0, 1210 <TEE_GetObjectValueAttribute+0x34>
/mnt/disk/raspbian-tee/optee_os/lib/libutee/tee_api_objects.c:157
    11fc:	00bb      	lsls	r3, r7, #2
    11fe:	d527      	bpl.n	1250 <TEE_GetObjectValueAttribute+0x74>
/mnt/disk/raspbian-tee/optee_os/lib/libutee/tee_api_objects.c:162
    1200:	466b      	mov	r3, sp
    1202:	aa03      	add	r2, sp, #12
    1204:	4639      	mov	r1, r7
    1206:	4640      	mov	r0, r8
    1208:	f002 e818 	blx	323c <utee_cryp_obj_get_attr>
/mnt/disk/raspbian-tee/optee_os/lib/libutee/tee_api_objects.c:166
    120c:	4604      	mov	r4, r0
    120e:	b158      	cbz	r0, 1228 <TEE_GetObjectValueAttribute+0x4c>
/mnt/disk/raspbian-tee/optee_os/lib/libutee/tee_api_objects.c:166 (discriminator 1)
    1210:	4b10      	ldr	r3, [pc, #64]	; (1254 <TEE_GetObjectValueAttribute+0x78>)
    1212:	429c      	cmp	r4, r3
    1214:	d008      	beq.n	1228 <TEE_GetObjectValueAttribute+0x4c>
/mnt/disk/raspbian-tee/optee_os/lib/libutee/tee_api_objects.c:167
    1216:	4b10      	ldr	r3, [pc, #64]	; (1258 <TEE_GetObjectValueAttribute+0x7c>)
    1218:	429c      	cmp	r4, r3
    121a:	d005      	beq.n	1228 <TEE_GetObjectValueAttribute+0x4c>
/mnt/disk/raspbian-tee/optee_os/lib/libutee/tee_api_objects.c:168
    121c:	3302      	adds	r3, #2
    121e:	429c      	cmp	r4, r3
    1220:	d002      	beq.n	1228 <TEE_GetObjectValueAttribute+0x4c>
/mnt/disk/raspbian-tee/optee_os/lib/libutee/tee_api_objects.c:170
    1222:	4620      	mov	r0, r4
    1224:	f006 fcd1 	bl	7bca <TEE_Panic>
/mnt/disk/raspbian-tee/optee_os/lib/libutee/tee_api_objects.c:172
    1228:	e9dd 2300 	ldrd	r2, r3, [sp]
    122c:	2b00      	cmp	r3, #0
    122e:	bf08      	it	eq
    1230:	2a08      	cmpeq	r2, #8
    1232:	d002      	beq.n	123a <TEE_GetObjectValueAttribute+0x5e>
/mnt/disk/raspbian-tee/optee_os/lib/libutee/tee_api_objects.c:173
    1234:	2000      	movs	r0, #0
    1236:	f006 fcc8 	bl	7bca <TEE_Panic>
/mnt/disk/raspbian-tee/optee_os/lib/libutee/tee_api_objects.c:175
    123a:	b92c      	cbnz	r4, 1248 <TEE_GetObjectValueAttribute+0x6c>
/mnt/disk/raspbian-tee/optee_os/lib/libutee/tee_api_objects.c:176
    123c:	b10e      	cbz	r6, 1242 <TEE_GetObjectValueAttribute+0x66>
/mnt/disk/raspbian-tee/optee_os/lib/libutee/tee_api_objects.c:177
    123e:	9b03      	ldr	r3, [sp, #12]
    1240:	6033      	str	r3, [r6, #0]
/mnt/disk/raspbian-tee/optee_os/lib/libutee/tee_api_objects.c:178
    1242:	b10d      	cbz	r5, 1248 <TEE_GetObjectValueAttribute+0x6c>
/mnt/disk/raspbian-tee/optee_os/lib/libutee/tee_api_objects.c:179
    1244:	9b04      	ldr	r3, [sp, #16]
    1246:	602b      	str	r3, [r5, #0]
/mnt/disk/raspbian-tee/optee_os/lib/libutee/tee_api_objects.c:183
    1248:	4620      	mov	r0, r4
    124a:	b00c      	add	sp, #48	; 0x30
    124c:	e8bd 81f0 	ldmia.w	sp!, {r4, r5, r6, r7, r8, pc}
/mnt/disk/raspbian-tee/optee_os/lib/libutee/tee_api_objects.c:158
    1250:	4c02      	ldr	r4, [pc, #8]	; (125c <TEE_GetObjectValueAttribute+0x80>)
    1252:	e7e6      	b.n	1222 <TEE_GetObjectValueAttribute+0x46>
    1254:	ffff0008 	.word	0xffff0008
    1258:	f0100001 	.word	0xf0100001
    125c:	ffff0006 	.word	0xffff0006

00001260 <TEE_CloseObject>:
TEE_CloseObject():
/mnt/disk/raspbian-tee/optee_os/lib/libutee/tee_api_objects.c:186
    1260:	b508      	push	{r3, lr}
/mnt/disk/raspbian-tee/optee_os/lib/libutee/tee_api_objects.c:189
    1262:	b130      	cbz	r0, 1272 <TEE_CloseObject+0x12>
/mnt/disk/raspbian-tee/optee_os/lib/libutee/tee_api_objects.c:192
    1264:	f001 effe 	blx	3264 <utee_cryp_obj_close>
/mnt/disk/raspbian-tee/optee_os/lib/libutee/tee_api_objects.c:193
    1268:	b118      	cbz	r0, 1272 <TEE_CloseObject+0x12>
/mnt/disk/raspbian-tee/optee_os/lib/libutee/tee_api_objects.c:195
    126a:	e8bd 4008 	ldmia.w	sp!, {r3, lr}
/mnt/disk/raspbian-tee/optee_os/lib/libutee/tee_api_objects.c:194
    126e:	f006 bcac 	b.w	7bca <TEE_Panic>
    1272:	bd08      	pop	{r3, pc}

00001274 <TEE_AllocateTransientObject>:
TEE_AllocateTransientObject():
/mnt/disk/raspbian-tee/optee_os/lib/libutee/tee_api_objects.c:202
    1274:	b537      	push	{r0, r1, r2, r4, r5, lr}
    1276:	4615      	mov	r5, r2
/mnt/disk/raspbian-tee/optee_os/lib/libutee/tee_api_objects.c:206
    1278:	aa01      	add	r2, sp, #4
    127a:	f001 efea 	blx	3250 <utee_cryp_obj_alloc>
/mnt/disk/raspbian-tee/optee_os/lib/libutee/tee_api_objects.c:208
    127e:	4604      	mov	r4, r0
    1280:	b150      	cbz	r0, 1298 <TEE_AllocateTransientObject+0x24>
/mnt/disk/raspbian-tee/optee_os/lib/libutee/tee_api_objects.c:208 (discriminator 1)
    1282:	4b07      	ldr	r3, [pc, #28]	; (12a0 <TEE_AllocateTransientObject+0x2c>)
    1284:	4298      	cmp	r0, r3
    1286:	d004      	beq.n	1292 <TEE_AllocateTransientObject+0x1e>
/mnt/disk/raspbian-tee/optee_os/lib/libutee/tee_api_objects.c:209
    1288:	3b02      	subs	r3, #2
    128a:	4298      	cmp	r0, r3
    128c:	d001      	beq.n	1292 <TEE_AllocateTransientObject+0x1e>
/mnt/disk/raspbian-tee/optee_os/lib/libutee/tee_api_objects.c:211
    128e:	f006 fc9c 	bl	7bca <TEE_Panic>
/mnt/disk/raspbian-tee/optee_os/lib/libutee/tee_api_objects.c:217
    1292:	4620      	mov	r0, r4
    1294:	b003      	add	sp, #12
    1296:	bd30      	pop	{r4, r5, pc}
/mnt/disk/raspbian-tee/optee_os/lib/libutee/tee_api_objects.c:214
    1298:	9b01      	ldr	r3, [sp, #4]
    129a:	602b      	str	r3, [r5, #0]
    129c:	e7f9      	b.n	1292 <TEE_AllocateTransientObject+0x1e>
    129e:	bf00      	nop
    12a0:	ffff000c 	.word	0xffff000c

000012a4 <TEE_FreeTransientObject>:
TEE_FreeTransientObject():
/mnt/disk/raspbian-tee/optee_os/lib/libutee/tee_api_objects.c:220
    12a4:	b510      	push	{r4, lr}
/mnt/disk/raspbian-tee/optee_os/lib/libutee/tee_api_objects.c:224
    12a6:	4604      	mov	r4, r0
/mnt/disk/raspbian-tee/optee_os/lib/libutee/tee_api_objects.c:220
    12a8:	b088      	sub	sp, #32
/mnt/disk/raspbian-tee/optee_os/lib/libutee/tee_api_objects.c:224
    12aa:	b188      	cbz	r0, 12d0 <TEE_FreeTransientObject+0x2c>
/mnt/disk/raspbian-tee/optee_os/lib/libutee/tee_api_objects.c:227
    12ac:	a901      	add	r1, sp, #4
    12ae:	f001 efb2 	blx	3214 <utee_cryp_obj_get_info>
/mnt/disk/raspbian-tee/optee_os/lib/libutee/tee_api_objects.c:228
    12b2:	b108      	cbz	r0, 12b8 <TEE_FreeTransientObject+0x14>
/mnt/disk/raspbian-tee/optee_os/lib/libutee/tee_api_objects.c:229
    12b4:	f006 fc89 	bl	7bca <TEE_Panic>
/mnt/disk/raspbian-tee/optee_os/lib/libutee/tee_api_objects.c:231
    12b8:	9b07      	ldr	r3, [sp, #28]
    12ba:	03db      	lsls	r3, r3, #15
    12bc:	d502      	bpl.n	12c4 <TEE_FreeTransientObject+0x20>
/mnt/disk/raspbian-tee/optee_os/lib/libutee/tee_api_objects.c:232
    12be:	2000      	movs	r0, #0
    12c0:	f006 fc83 	bl	7bca <TEE_Panic>
/mnt/disk/raspbian-tee/optee_os/lib/libutee/tee_api_objects.c:234
    12c4:	4620      	mov	r0, r4
    12c6:	f001 efce 	blx	3264 <utee_cryp_obj_close>
/mnt/disk/raspbian-tee/optee_os/lib/libutee/tee_api_objects.c:235
    12ca:	b108      	cbz	r0, 12d0 <TEE_FreeTransientObject+0x2c>
/mnt/disk/raspbian-tee/optee_os/lib/libutee/tee_api_objects.c:236
    12cc:	f006 fc7d 	bl	7bca <TEE_Panic>
/mnt/disk/raspbian-tee/optee_os/lib/libutee/tee_api_objects.c:237
    12d0:	b008      	add	sp, #32
    12d2:	bd10      	pop	{r4, pc}

000012d4 <TEE_ResetTransientObject>:
TEE_ResetTransientObject():
/mnt/disk/raspbian-tee/optee_os/lib/libutee/tee_api_objects.c:240
    12d4:	b510      	push	{r4, lr}
/mnt/disk/raspbian-tee/optee_os/lib/libutee/tee_api_objects.c:244
    12d6:	4604      	mov	r4, r0
/mnt/disk/raspbian-tee/optee_os/lib/libutee/tee_api_objects.c:240
    12d8:	b088      	sub	sp, #32
/mnt/disk/raspbian-tee/optee_os/lib/libutee/tee_api_objects.c:244
    12da:	b188      	cbz	r0, 1300 <TEE_ResetTransientObject+0x2c>
/mnt/disk/raspbian-tee/optee_os/lib/libutee/tee_api_objects.c:247
    12dc:	a901      	add	r1, sp, #4
    12de:	f001 ef9a 	blx	3214 <utee_cryp_obj_get_info>
/mnt/disk/raspbian-tee/optee_os/lib/libutee/tee_api_objects.c:248
    12e2:	b108      	cbz	r0, 12e8 <TEE_ResetTransientObject+0x14>
/mnt/disk/raspbian-tee/optee_os/lib/libutee/tee_api_objects.c:249
    12e4:	f006 fc71 	bl	7bca <TEE_Panic>
/mnt/disk/raspbian-tee/optee_os/lib/libutee/tee_api_objects.c:251
    12e8:	9b07      	ldr	r3, [sp, #28]
    12ea:	03db      	lsls	r3, r3, #15
    12ec:	d502      	bpl.n	12f4 <TEE_ResetTransientObject+0x20>
/mnt/disk/raspbian-tee/optee_os/lib/libutee/tee_api_objects.c:252
    12ee:	2000      	movs	r0, #0
    12f0:	f006 fc6b 	bl	7bca <TEE_Panic>
/mnt/disk/raspbian-tee/optee_os/lib/libutee/tee_api_objects.c:254
    12f4:	4620      	mov	r0, r4
    12f6:	f001 efc0 	blx	3278 <utee_cryp_obj_reset>
/mnt/disk/raspbian-tee/optee_os/lib/libutee/tee_api_objects.c:255
    12fa:	b108      	cbz	r0, 1300 <TEE_ResetTransientObject+0x2c>
/mnt/disk/raspbian-tee/optee_os/lib/libutee/tee_api_objects.c:256
    12fc:	f006 fc65 	bl	7bca <TEE_Panic>
/mnt/disk/raspbian-tee/optee_os/lib/libutee/tee_api_objects.c:257
    1300:	b008      	add	sp, #32
    1302:	bd10      	pop	{r4, pc}

00001304 <TEE_PopulateTransientObject>:
TEE_PopulateTransientObject():
/mnt/disk/raspbian-tee/optee_os/lib/libutee/tee_api_objects.c:265
    1304:	2318      	movs	r3, #24
/mnt/disk/raspbian-tee/optee_os/lib/libutee/tee_api_objects.c:262
    1306:	e92d 41f0 	stmdb	sp!, {r4, r5, r6, r7, r8, lr}
    130a:	4688      	mov	r8, r1
    130c:	b088      	sub	sp, #32
/mnt/disk/raspbian-tee/optee_os/lib/libutee/tee_api_objects.c:265
    130e:	4353      	muls	r3, r2
/mnt/disk/raspbian-tee/optee_os/lib/libutee/tee_api_objects.c:262
    1310:	af00      	add	r7, sp, #0
/mnt/disk/raspbian-tee/optee_os/lib/libutee/tee_api_objects.c:267
    1312:	1d39      	adds	r1, r7, #4
/mnt/disk/raspbian-tee/optee_os/lib/libutee/tee_api_objects.c:262
    1314:	4606      	mov	r6, r0
/mnt/disk/raspbian-tee/optee_os/lib/libutee/tee_api_objects.c:265
    1316:	3308      	adds	r3, #8
/mnt/disk/raspbian-tee/optee_os/lib/libutee/tee_api_objects.c:262
    1318:	4614      	mov	r4, r2
/mnt/disk/raspbian-tee/optee_os/lib/libutee/tee_api_objects.c:265
    131a:	ebad 0d03 	sub.w	sp, sp, r3
    131e:	466d      	mov	r5, sp
/mnt/disk/raspbian-tee/optee_os/lib/libutee/tee_api_objects.c:267
    1320:	f001 ef78 	blx	3214 <utee_cryp_obj_get_info>
/mnt/disk/raspbian-tee/optee_os/lib/libutee/tee_api_objects.c:268
    1324:	b108      	cbz	r0, 132a <TEE_PopulateTransientObject+0x26>
/mnt/disk/raspbian-tee/optee_os/lib/libutee/tee_api_objects.c:269
    1326:	f006 fc50 	bl	7bca <TEE_Panic>
/mnt/disk/raspbian-tee/optee_os/lib/libutee/tee_api_objects.c:272
    132a:	69fb      	ldr	r3, [r7, #28]
    132c:	03da      	lsls	r2, r3, #15
    132e:	d502      	bpl.n	1336 <TEE_PopulateTransientObject+0x32>
/mnt/disk/raspbian-tee/optee_os/lib/libutee/tee_api_objects.c:273
    1330:	2000      	movs	r0, #0
    1332:	f006 fc4a 	bl	7bca <TEE_Panic>
/mnt/disk/raspbian-tee/optee_os/lib/libutee/tee_api_objects.c:276
    1336:	69fb      	ldr	r3, [r7, #28]
    1338:	039b      	lsls	r3, r3, #14
    133a:	d502      	bpl.n	1342 <TEE_PopulateTransientObject+0x3e>
/mnt/disk/raspbian-tee/optee_os/lib/libutee/tee_api_objects.c:277
    133c:	2000      	movs	r0, #0
    133e:	f006 fc44 	bl	7bca <TEE_Panic>
/mnt/disk/raspbian-tee/optee_os/lib/libutee/tee_api_objects.c:279
    1342:	4622      	mov	r2, r4
    1344:	4641      	mov	r1, r8
    1346:	4628      	mov	r0, r5
    1348:	f7ff fea8 	bl	109c <__utee_from_attr>
/mnt/disk/raspbian-tee/optee_os/lib/libutee/tee_api_objects.c:280
    134c:	4622      	mov	r2, r4
    134e:	4629      	mov	r1, r5
    1350:	4630      	mov	r0, r6
    1352:	f001 ef9c 	blx	328c <utee_cryp_obj_populate>
/mnt/disk/raspbian-tee/optee_os/lib/libutee/tee_api_objects.c:281
    1356:	4604      	mov	r4, r0
    1358:	b120      	cbz	r0, 1364 <TEE_PopulateTransientObject+0x60>
/mnt/disk/raspbian-tee/optee_os/lib/libutee/tee_api_objects.c:281 (discriminator 1)
    135a:	4b05      	ldr	r3, [pc, #20]	; (1370 <TEE_PopulateTransientObject+0x6c>)
    135c:	4298      	cmp	r0, r3
    135e:	d001      	beq.n	1364 <TEE_PopulateTransientObject+0x60>
/mnt/disk/raspbian-tee/optee_os/lib/libutee/tee_api_objects.c:282
    1360:	f006 fc33 	bl	7bca <TEE_Panic>
/mnt/disk/raspbian-tee/optee_os/lib/libutee/tee_api_objects.c:284
    1364:	4620      	mov	r0, r4
    1366:	3720      	adds	r7, #32
    1368:	46bd      	mov	sp, r7
    136a:	e8bd 81f0 	ldmia.w	sp!, {r4, r5, r6, r7, r8, pc}
    136e:	bf00      	nop
    1370:	ffff0006 	.word	0xffff0006

00001374 <TEE_InitRefAttribute>:
TEE_InitRefAttribute():
/mnt/disk/raspbian-tee/optee_os/lib/libutee/tee_api_objects.c:288
    1374:	b5f8      	push	{r3, r4, r5, r6, r7, lr}
    1376:	460d      	mov	r5, r1
    1378:	4617      	mov	r7, r2
    137a:	461e      	mov	r6, r3
/mnt/disk/raspbian-tee/optee_os/lib/libutee/tee_api_objects.c:289
    137c:	4604      	mov	r4, r0
    137e:	b908      	cbnz	r0, 1384 <TEE_InitRefAttribute+0x10>
/mnt/disk/raspbian-tee/optee_os/lib/libutee/tee_api_objects.c:290
    1380:	f006 fc23 	bl	7bca <TEE_Panic>
/mnt/disk/raspbian-tee/optee_os/lib/libutee/tee_api_objects.c:291
    1384:	00ab      	lsls	r3, r5, #2
    1386:	d502      	bpl.n	138e <TEE_InitRefAttribute+0x1a>
/mnt/disk/raspbian-tee/optee_os/lib/libutee/tee_api_objects.c:292
    1388:	2000      	movs	r0, #0
    138a:	f006 fc1e 	bl	7bca <TEE_Panic>
/mnt/disk/raspbian-tee/optee_os/lib/libutee/tee_api_objects.c:294
    138e:	e884 00a0 	stmia.w	r4, {r5, r7}
/mnt/disk/raspbian-tee/optee_os/lib/libutee/tee_api_objects.c:295
    1392:	60a6      	str	r6, [r4, #8]
    1394:	bdf8      	pop	{r3, r4, r5, r6, r7, pc}

00001396 <TEE_InitValueAttribute>:
TEE_InitValueAttribute():
/mnt/disk/raspbian-tee/optee_os/lib/libutee/tee_api_objects.c:300
    1396:	b5f8      	push	{r3, r4, r5, r6, r7, lr}
    1398:	460d      	mov	r5, r1
    139a:	4617      	mov	r7, r2
    139c:	461e      	mov	r6, r3
/mnt/disk/raspbian-tee/optee_os/lib/libutee/tee_api_objects.c:301
    139e:	4604      	mov	r4, r0
    13a0:	b908      	cbnz	r0, 13a6 <TEE_InitValueAttribute+0x10>
/mnt/disk/raspbian-tee/optee_os/lib/libutee/tee_api_objects.c:302
    13a2:	f006 fc12 	bl	7bca <TEE_Panic>
/mnt/disk/raspbian-tee/optee_os/lib/libutee/tee_api_objects.c:303
    13a6:	f015 5000 	ands.w	r0, r5, #536870912	; 0x20000000
    13aa:	d101      	bne.n	13b0 <TEE_InitValueAttribute+0x1a>
/mnt/disk/raspbian-tee/optee_os/lib/libutee/tee_api_objects.c:304
    13ac:	f006 fc0d 	bl	7bca <TEE_Panic>
/mnt/disk/raspbian-tee/optee_os/lib/libutee/tee_api_objects.c:306
    13b0:	e884 00a0 	stmia.w	r4, {r5, r7}
/mnt/disk/raspbian-tee/optee_os/lib/libutee/tee_api_objects.c:307
    13b4:	60a6      	str	r6, [r4, #8]
    13b6:	bdf8      	pop	{r3, r4, r5, r6, r7, pc}

000013b8 <TEE_CopyObjectAttributes1>:
TEE_CopyObjectAttributes1():
/mnt/disk/raspbian-tee/optee_os/lib/libutee/tee_api_objects.c:333
    13b8:	b570      	push	{r4, r5, r6, lr}
    13ba:	460d      	mov	r5, r1
    13bc:	4606      	mov	r6, r0
    13be:	b08e      	sub	sp, #56	; 0x38
/mnt/disk/raspbian-tee/optee_os/lib/libutee/tee_api_objects.c:338
    13c0:	4669      	mov	r1, sp
    13c2:	f001 ef28 	blx	3214 <utee_cryp_obj_get_info>
/mnt/disk/raspbian-tee/optee_os/lib/libutee/tee_api_objects.c:339
    13c6:	4604      	mov	r4, r0
    13c8:	b9e0      	cbnz	r0, 1404 <TEE_CopyObjectAttributes1+0x4c>
/mnt/disk/raspbian-tee/optee_os/lib/libutee/tee_api_objects.c:342
    13ca:	a907      	add	r1, sp, #28
    13cc:	4628      	mov	r0, r5
    13ce:	f001 ef22 	blx	3214 <utee_cryp_obj_get_info>
/mnt/disk/raspbian-tee/optee_os/lib/libutee/tee_api_objects.c:343
    13d2:	4604      	mov	r4, r0
    13d4:	b9b0      	cbnz	r0, 1404 <TEE_CopyObjectAttributes1+0x4c>
/mnt/disk/raspbian-tee/optee_os/lib/libutee/tee_api_objects.c:346
    13d6:	9b0d      	ldr	r3, [sp, #52]	; 0x34
    13d8:	0399      	lsls	r1, r3, #14
    13da:	d401      	bmi.n	13e0 <TEE_CopyObjectAttributes1+0x28>
/mnt/disk/raspbian-tee/optee_os/lib/libutee/tee_api_objects.c:347
    13dc:	f006 fbf5 	bl	7bca <TEE_Panic>
/mnt/disk/raspbian-tee/optee_os/lib/libutee/tee_api_objects.c:349
    13e0:	9b06      	ldr	r3, [sp, #24]
    13e2:	03da      	lsls	r2, r3, #15
    13e4:	d502      	bpl.n	13ec <TEE_CopyObjectAttributes1+0x34>
/mnt/disk/raspbian-tee/optee_os/lib/libutee/tee_api_objects.c:350
    13e6:	2000      	movs	r0, #0
    13e8:	f006 fbef 	bl	7bca <TEE_Panic>
/mnt/disk/raspbian-tee/optee_os/lib/libutee/tee_api_objects.c:352
    13ec:	9b06      	ldr	r3, [sp, #24]
    13ee:	039b      	lsls	r3, r3, #14
    13f0:	d502      	bpl.n	13f8 <TEE_CopyObjectAttributes1+0x40>
/mnt/disk/raspbian-tee/optee_os/lib/libutee/tee_api_objects.c:353
    13f2:	2000      	movs	r0, #0
    13f4:	f006 fbe9 	bl	7bca <TEE_Panic>
/mnt/disk/raspbian-tee/optee_os/lib/libutee/tee_api_objects.c:355
    13f8:	4629      	mov	r1, r5
    13fa:	4630      	mov	r0, r6
    13fc:	f001 ef50 	blx	32a0 <utee_cryp_obj_copy>
/mnt/disk/raspbian-tee/optee_os/lib/libutee/tee_api_objects.c:359
    1400:	4604      	mov	r4, r0
    1402:	b140      	cbz	r0, 1416 <TEE_CopyObjectAttributes1+0x5e>
/mnt/disk/raspbian-tee/optee_os/lib/libutee/tee_api_objects.c:359 (discriminator 1)
    1404:	4b05      	ldr	r3, [pc, #20]	; (141c <TEE_CopyObjectAttributes1+0x64>)
    1406:	429c      	cmp	r4, r3
    1408:	d005      	beq.n	1416 <TEE_CopyObjectAttributes1+0x5e>
/mnt/disk/raspbian-tee/optee_os/lib/libutee/tee_api_objects.c:360
    140a:	3302      	adds	r3, #2
    140c:	429c      	cmp	r4, r3
    140e:	d002      	beq.n	1416 <TEE_CopyObjectAttributes1+0x5e>
/mnt/disk/raspbian-tee/optee_os/lib/libutee/tee_api_objects.c:362
    1410:	4620      	mov	r0, r4
    1412:	f006 fbda 	bl	7bca <TEE_Panic>
/mnt/disk/raspbian-tee/optee_os/lib/libutee/tee_api_objects.c:365
    1416:	4620      	mov	r0, r4
    1418:	b00e      	add	sp, #56	; 0x38
    141a:	bd70      	pop	{r4, r5, r6, pc}
    141c:	f0100001 	.word	0xf0100001

00001420 <TEE_CopyObjectAttributes>:
TEE_CopyObjectAttributes():
/mnt/disk/raspbian-tee/optee_os/lib/libutee/tee_api_objects.c:318
    1420:	b530      	push	{r4, r5, lr}
    1422:	460c      	mov	r4, r1
    1424:	4605      	mov	r5, r0
    1426:	b089      	sub	sp, #36	; 0x24
/mnt/disk/raspbian-tee/optee_os/lib/libutee/tee_api_objects.c:322
    1428:	4620      	mov	r0, r4
    142a:	a901      	add	r1, sp, #4
    142c:	f001 eef2 	blx	3214 <utee_cryp_obj_get_info>
/mnt/disk/raspbian-tee/optee_os/lib/libutee/tee_api_objects.c:323
    1430:	4b06      	ldr	r3, [pc, #24]	; (144c <TEE_CopyObjectAttributes+0x2c>)
    1432:	9a01      	ldr	r2, [sp, #4]
    1434:	429a      	cmp	r2, r3
    1436:	d006      	beq.n	1446 <TEE_CopyObjectAttributes+0x26>
/mnt/disk/raspbian-tee/optee_os/lib/libutee/tee_api_objects.c:326
    1438:	4621      	mov	r1, r4
    143a:	4628      	mov	r0, r5
    143c:	f7ff ffbc 	bl	13b8 <TEE_CopyObjectAttributes1>
/mnt/disk/raspbian-tee/optee_os/lib/libutee/tee_api_objects.c:327
    1440:	b108      	cbz	r0, 1446 <TEE_CopyObjectAttributes+0x26>
/mnt/disk/raspbian-tee/optee_os/lib/libutee/tee_api_objects.c:328
    1442:	f006 fbc2 	bl	7bca <TEE_Panic>
/mnt/disk/raspbian-tee/optee_os/lib/libutee/tee_api_objects.c:329
    1446:	b009      	add	sp, #36	; 0x24
    1448:	bd30      	pop	{r4, r5, pc}
    144a:	bf00      	nop
    144c:	a00000be 	.word	0xa00000be

00001450 <TEE_GenerateKey>:
TEE_GenerateKey():
/mnt/disk/raspbian-tee/optee_os/lib/libutee/tee_api_objects.c:369
    1450:	e92d 41f0 	stmdb	sp!, {r4, r5, r6, r7, r8, lr}
    1454:	4688      	mov	r8, r1
    1456:	4611      	mov	r1, r2
/mnt/disk/raspbian-tee/optee_os/lib/libutee/tee_api_objects.c:371
    1458:	2218      	movs	r2, #24
/mnt/disk/raspbian-tee/optee_os/lib/libutee/tee_api_objects.c:369
    145a:	af00      	add	r7, sp, #0
    145c:	461c      	mov	r4, r3
    145e:	4606      	mov	r6, r0
/mnt/disk/raspbian-tee/optee_os/lib/libutee/tee_api_objects.c:371
    1460:	435a      	muls	r2, r3
    1462:	3208      	adds	r2, #8
    1464:	ebad 0d02 	sub.w	sp, sp, r2
/mnt/disk/raspbian-tee/optee_os/lib/libutee/tee_api_objects.c:373
    1468:	461a      	mov	r2, r3
    146a:	4668      	mov	r0, sp
    146c:	f7ff fe16 	bl	109c <__utee_from_attr>
/mnt/disk/raspbian-tee/optee_os/lib/libutee/tee_api_objects.c:374
    1470:	4623      	mov	r3, r4
    1472:	466a      	mov	r2, sp
    1474:	4641      	mov	r1, r8
    1476:	4630      	mov	r0, r6
    1478:	f002 e808 	blx	348c <utee_cryp_obj_generate_key>
/mnt/disk/raspbian-tee/optee_os/lib/libutee/tee_api_objects.c:377
    147c:	4604      	mov	r4, r0
    147e:	b120      	cbz	r0, 148a <TEE_GenerateKey+0x3a>
/mnt/disk/raspbian-tee/optee_os/lib/libutee/tee_api_objects.c:377 (discriminator 1)
    1480:	4b04      	ldr	r3, [pc, #16]	; (1494 <TEE_GenerateKey+0x44>)
    1482:	4298      	cmp	r0, r3
    1484:	d001      	beq.n	148a <TEE_GenerateKey+0x3a>
/mnt/disk/raspbian-tee/optee_os/lib/libutee/tee_api_objects.c:378
    1486:	f006 fba0 	bl	7bca <TEE_Panic>
/mnt/disk/raspbian-tee/optee_os/lib/libutee/tee_api_objects.c:381
    148a:	4620      	mov	r0, r4
    148c:	46bd      	mov	sp, r7
    148e:	e8bd 81f0 	ldmia.w	sp!, {r4, r5, r6, r7, r8, pc}
    1492:	bf00      	nop
    1494:	ffff0006 	.word	0xffff0006

00001498 <TEE_OpenPersistentObject>:
TEE_OpenPersistentObject():
/mnt/disk/raspbian-tee/optee_os/lib/libutee/tee_api_objects.c:388
    1498:	b530      	push	{r4, r5, lr}
    149a:	b085      	sub	sp, #20
    149c:	9d08      	ldr	r5, [sp, #32]
/mnt/disk/raspbian-tee/optee_os/lib/libutee/tee_api_objects.c:392
    149e:	b919      	cbnz	r1, 14a8 <TEE_OpenPersistentObject+0x10>
    14a0:	4c12      	ldr	r4, [pc, #72]	; (14ec <TEE_OpenPersistentObject+0x54>)
/mnt/disk/raspbian-tee/optee_os/lib/libutee/tee_api_objects.c:422
    14a2:	4620      	mov	r0, r4
    14a4:	b005      	add	sp, #20
    14a6:	bd30      	pop	{r4, r5, pc}
/mnt/disk/raspbian-tee/optee_os/lib/libutee/tee_api_objects.c:397
    14a8:	2a40      	cmp	r2, #64	; 0x40
    14aa:	d809      	bhi.n	14c0 <TEE_OpenPersistentObject+0x28>
/mnt/disk/raspbian-tee/optee_os/lib/libutee/tee_api_objects.c:402
    14ac:	b145      	cbz	r5, 14c0 <TEE_OpenPersistentObject+0x28>
/mnt/disk/raspbian-tee/optee_os/lib/libutee/tee_api_objects.c:407
    14ae:	ac03      	add	r4, sp, #12
    14b0:	9400      	str	r4, [sp, #0]
    14b2:	f001 ef66 	blx	3380 <utee_storage_obj_open>
/mnt/disk/raspbian-tee/optee_os/lib/libutee/tee_api_objects.c:409
    14b6:	4604      	mov	r4, r0
    14b8:	b920      	cbnz	r0, 14c4 <TEE_OpenPersistentObject+0x2c>
/mnt/disk/raspbian-tee/optee_os/lib/libutee/tee_api_objects.c:410
    14ba:	9b03      	ldr	r3, [sp, #12]
    14bc:	602b      	str	r3, [r5, #0]
    14be:	e7f0      	b.n	14a2 <TEE_OpenPersistentObject+0xa>
    14c0:	4c0b      	ldr	r4, [pc, #44]	; (14f0 <TEE_OpenPersistentObject+0x58>)
    14c2:	e00e      	b.n	14e2 <TEE_OpenPersistentObject+0x4a>
/mnt/disk/raspbian-tee/optee_os/lib/libutee/tee_api_objects.c:413
    14c4:	4b09      	ldr	r3, [pc, #36]	; (14ec <TEE_OpenPersistentObject+0x54>)
    14c6:	4298      	cmp	r0, r3
    14c8:	d0ea      	beq.n	14a0 <TEE_OpenPersistentObject+0x8>
/mnt/disk/raspbian-tee/optee_os/lib/libutee/tee_api_objects.c:414
    14ca:	4b0a      	ldr	r3, [pc, #40]	; (14f4 <TEE_OpenPersistentObject+0x5c>)
    14cc:	429c      	cmp	r4, r3
    14ce:	d0e8      	beq.n	14a2 <TEE_OpenPersistentObject+0xa>
/mnt/disk/raspbian-tee/optee_os/lib/libutee/tee_api_objects.c:415
    14d0:	3309      	adds	r3, #9
    14d2:	429c      	cmp	r4, r3
    14d4:	d0e5      	beq.n	14a2 <TEE_OpenPersistentObject+0xa>
/mnt/disk/raspbian-tee/optee_os/lib/libutee/tee_api_objects.c:416
    14d6:	4b08      	ldr	r3, [pc, #32]	; (14f8 <TEE_OpenPersistentObject+0x60>)
    14d8:	429c      	cmp	r4, r3
    14da:	d0e2      	beq.n	14a2 <TEE_OpenPersistentObject+0xa>
/mnt/disk/raspbian-tee/optee_os/lib/libutee/tee_api_objects.c:417
    14dc:	3302      	adds	r3, #2
    14de:	429c      	cmp	r4, r3
    14e0:	d0df      	beq.n	14a2 <TEE_OpenPersistentObject+0xa>
/mnt/disk/raspbian-tee/optee_os/lib/libutee/tee_api_objects.c:419
    14e2:	4620      	mov	r0, r4
    14e4:	f006 fb71 	bl	7bca <TEE_Panic>
/mnt/disk/raspbian-tee/optee_os/lib/libutee/tee_api_objects.c:421
    14e8:	e7db      	b.n	14a2 <TEE_OpenPersistentObject+0xa>
    14ea:	bf00      	nop
    14ec:	ffff0008 	.word	0xffff0008
    14f0:	ffff0006 	.word	0xffff0006
    14f4:	ffff0003 	.word	0xffff0003
    14f8:	f0100001 	.word	0xf0100001

000014fc <TEE_CreatePersistentObject>:
TEE_CreatePersistentObject():
/mnt/disk/raspbian-tee/optee_os/lib/libutee/tee_api_objects.c:430
    14fc:	b530      	push	{r4, r5, lr}
    14fe:	b087      	sub	sp, #28
    1500:	9c0d      	ldr	r4, [sp, #52]	; 0x34
/mnt/disk/raspbian-tee/optee_os/lib/libutee/tee_api_objects.c:434
    1502:	2900      	cmp	r1, #0
    1504:	d033      	beq.n	156e <TEE_CreatePersistentObject+0x72>
/mnt/disk/raspbian-tee/optee_os/lib/libutee/tee_api_objects.c:439
    1506:	2a40      	cmp	r2, #64	; 0x40
    1508:	d835      	bhi.n	1576 <TEE_CreatePersistentObject+0x7a>
/mnt/disk/raspbian-tee/optee_os/lib/libutee/tee_api_objects.c:444
    150a:	ad05      	add	r5, sp, #20
    150c:	9503      	str	r5, [sp, #12]
    150e:	9d0c      	ldr	r5, [sp, #48]	; 0x30
    1510:	9502      	str	r5, [sp, #8]
    1512:	9d0b      	ldr	r5, [sp, #44]	; 0x2c
    1514:	9501      	str	r5, [sp, #4]
    1516:	9d0a      	ldr	r5, [sp, #40]	; 0x28
    1518:	9500      	str	r5, [sp, #0]
    151a:	f001 ef3e 	blx	3398 <utee_storage_obj_create>
/mnt/disk/raspbian-tee/optee_os/lib/libutee/tee_api_objects.c:447
    151e:	b970      	cbnz	r0, 153e <TEE_CreatePersistentObject+0x42>
/mnt/disk/raspbian-tee/optee_os/lib/libutee/tee_api_objects.c:448
    1520:	b11c      	cbz	r4, 152a <TEE_CreatePersistentObject+0x2e>
/mnt/disk/raspbian-tee/optee_os/lib/libutee/tee_api_objects.c:449
    1522:	9b05      	ldr	r3, [sp, #20]
    1524:	6023      	str	r3, [r4, #0]
/mnt/disk/raspbian-tee/optee_os/lib/libutee/tee_api_objects.c:468
    1526:	b007      	add	sp, #28
    1528:	bd30      	pop	{r4, r5, pc}
/mnt/disk/raspbian-tee/optee_os/lib/libutee/tee_api_objects.c:451
    152a:	9805      	ldr	r0, [sp, #20]
    152c:	f001 ee9a 	blx	3264 <utee_cryp_obj_close>
/mnt/disk/raspbian-tee/optee_os/lib/libutee/tee_api_objects.c:452
    1530:	2800      	cmp	r0, #0
    1532:	d0f8      	beq.n	1526 <TEE_CreatePersistentObject+0x2a>
/mnt/disk/raspbian-tee/optee_os/lib/libutee/tee_api_objects.c:458
    1534:	4b12      	ldr	r3, [pc, #72]	; (1580 <TEE_CreatePersistentObject+0x84>)
    1536:	4298      	cmp	r0, r3
    1538:	d106      	bne.n	1548 <TEE_CreatePersistentObject+0x4c>
/mnt/disk/raspbian-tee/optee_os/lib/libutee/tee_api_objects.c:467
    153a:	4811      	ldr	r0, [pc, #68]	; (1580 <TEE_CreatePersistentObject+0x84>)
    153c:	e7f3      	b.n	1526 <TEE_CreatePersistentObject+0x2a>
/mnt/disk/raspbian-tee/optee_os/lib/libutee/tee_api_objects.c:456
    153e:	2c00      	cmp	r4, #0
    1540:	d0f8      	beq.n	1534 <TEE_CreatePersistentObject+0x38>
/mnt/disk/raspbian-tee/optee_os/lib/libutee/tee_api_objects.c:457
    1542:	2300      	movs	r3, #0
    1544:	6023      	str	r3, [r4, #0]
    1546:	e7f5      	b.n	1534 <TEE_CreatePersistentObject+0x38>
/mnt/disk/raspbian-tee/optee_os/lib/libutee/tee_api_objects.c:458 (discriminator 1)
    1548:	4b0e      	ldr	r3, [pc, #56]	; (1584 <TEE_CreatePersistentObject+0x88>)
    154a:	4298      	cmp	r0, r3
    154c:	d0eb      	beq.n	1526 <TEE_CreatePersistentObject+0x2a>
/mnt/disk/raspbian-tee/optee_os/lib/libutee/tee_api_objects.c:459
    154e:	3309      	adds	r3, #9
    1550:	4298      	cmp	r0, r3
    1552:	d0e8      	beq.n	1526 <TEE_CreatePersistentObject+0x2a>
/mnt/disk/raspbian-tee/optee_os/lib/libutee/tee_api_objects.c:460
    1554:	4b0c      	ldr	r3, [pc, #48]	; (1588 <TEE_CreatePersistentObject+0x8c>)
    1556:	4298      	cmp	r0, r3
    1558:	d0e5      	beq.n	1526 <TEE_CreatePersistentObject+0x2a>
/mnt/disk/raspbian-tee/optee_os/lib/libutee/tee_api_objects.c:461
    155a:	4b0c      	ldr	r3, [pc, #48]	; (158c <TEE_CreatePersistentObject+0x90>)
    155c:	4298      	cmp	r0, r3
    155e:	d0e2      	beq.n	1526 <TEE_CreatePersistentObject+0x2a>
/mnt/disk/raspbian-tee/optee_os/lib/libutee/tee_api_objects.c:462
    1560:	3302      	adds	r3, #2
    1562:	4298      	cmp	r0, r3
    1564:	d0df      	beq.n	1526 <TEE_CreatePersistentObject+0x2a>
/mnt/disk/raspbian-tee/optee_os/lib/libutee/tee_api_objects.c:465
    1566:	f006 fb30 	bl	7bca <TEE_Panic>
/mnt/disk/raspbian-tee/optee_os/lib/libutee/tee_api_objects.c:467
    156a:	2000      	movs	r0, #0
    156c:	e7db      	b.n	1526 <TEE_CreatePersistentObject+0x2a>
/mnt/disk/raspbian-tee/optee_os/lib/libutee/tee_api_objects.c:456
    156e:	2c00      	cmp	r4, #0
    1570:	d0e3      	beq.n	153a <TEE_CreatePersistentObject+0x3e>
/mnt/disk/raspbian-tee/optee_os/lib/libutee/tee_api_objects.c:435
    1572:	4803      	ldr	r0, [pc, #12]	; (1580 <TEE_CreatePersistentObject+0x84>)
    1574:	e7e5      	b.n	1542 <TEE_CreatePersistentObject+0x46>
/mnt/disk/raspbian-tee/optee_os/lib/libutee/tee_api_objects.c:440
    1576:	4806      	ldr	r0, [pc, #24]	; (1590 <TEE_CreatePersistentObject+0x94>)
/mnt/disk/raspbian-tee/optee_os/lib/libutee/tee_api_objects.c:456
    1578:	2c00      	cmp	r4, #0
    157a:	d1e2      	bne.n	1542 <TEE_CreatePersistentObject+0x46>
    157c:	e7f3      	b.n	1566 <TEE_CreatePersistentObject+0x6a>
    157e:	bf00      	nop
    1580:	ffff0008 	.word	0xffff0008
    1584:	ffff0003 	.word	0xffff0003
    1588:	ffff3041 	.word	0xffff3041
    158c:	f0100001 	.word	0xf0100001
    1590:	ffff0006 	.word	0xffff0006

00001594 <TEE_CloseAndDeletePersistentObject1>:
TEE_CloseAndDeletePersistentObject1():
/mnt/disk/raspbian-tee/optee_os/lib/libutee/tee_api_objects.c:490
    1594:	b510      	push	{r4, lr}
/mnt/disk/raspbian-tee/optee_os/lib/libutee/tee_api_objects.c:493
    1596:	b150      	cbz	r0, 15ae <TEE_CloseAndDeletePersistentObject1+0x1a>
/mnt/disk/raspbian-tee/optee_os/lib/libutee/tee_api_objects.c:496
    1598:	f001 ef0a 	blx	33b0 <utee_storage_obj_del>
/mnt/disk/raspbian-tee/optee_os/lib/libutee/tee_api_objects.c:498
    159c:	4604      	mov	r4, r0
    159e:	b120      	cbz	r0, 15aa <TEE_CloseAndDeletePersistentObject1+0x16>
    15a0:	4b04      	ldr	r3, [pc, #16]	; (15b4 <TEE_CloseAndDeletePersistentObject1+0x20>)
    15a2:	4298      	cmp	r0, r3
    15a4:	d001      	beq.n	15aa <TEE_CloseAndDeletePersistentObject1+0x16>
/mnt/disk/raspbian-tee/optee_os/lib/libutee/tee_api_objects.c:499
    15a6:	f006 fb10 	bl	7bca <TEE_Panic>
/mnt/disk/raspbian-tee/optee_os/lib/libutee/tee_api_objects.c:502
    15aa:	4620      	mov	r0, r4
    15ac:	bd10      	pop	{r4, pc}
/mnt/disk/raspbian-tee/optee_os/lib/libutee/tee_api_objects.c:494
    15ae:	4c01      	ldr	r4, [pc, #4]	; (15b4 <TEE_CloseAndDeletePersistentObject1+0x20>)
    15b0:	e7fb      	b.n	15aa <TEE_CloseAndDeletePersistentObject1+0x16>
    15b2:	bf00      	nop
    15b4:	f0100003 	.word	0xf0100003

000015b8 <TEE_CloseAndDeletePersistentObject>:
TEE_CloseAndDeletePersistentObject():
/mnt/disk/raspbian-tee/optee_os/lib/libutee/tee_api_objects.c:477
    15b8:	b508      	push	{r3, lr}
/mnt/disk/raspbian-tee/optee_os/lib/libutee/tee_api_objects.c:480
    15ba:	b138      	cbz	r0, 15cc <TEE_CloseAndDeletePersistentObject+0x14>
/mnt/disk/raspbian-tee/optee_os/lib/libutee/tee_api_objects.c:483
    15bc:	f7ff ffea 	bl	1594 <TEE_CloseAndDeletePersistentObject1>
/mnt/disk/raspbian-tee/optee_os/lib/libutee/tee_api_objects.c:485
    15c0:	b120      	cbz	r0, 15cc <TEE_CloseAndDeletePersistentObject+0x14>
/mnt/disk/raspbian-tee/optee_os/lib/libutee/tee_api_objects.c:486
    15c2:	2000      	movs	r0, #0
/mnt/disk/raspbian-tee/optee_os/lib/libutee/tee_api_objects.c:487
    15c4:	e8bd 4008 	ldmia.w	sp!, {r3, lr}
/mnt/disk/raspbian-tee/optee_os/lib/libutee/tee_api_objects.c:486
    15c8:	f006 baff 	b.w	7bca <TEE_Panic>
    15cc:	bd08      	pop	{r3, pc}

000015ce <TEE_RenamePersistentObject>:
TEE_RenamePersistentObject():
/mnt/disk/raspbian-tee/optee_os/lib/libutee/tee_api_objects.c:508
    15ce:	b510      	push	{r4, lr}
/mnt/disk/raspbian-tee/optee_os/lib/libutee/tee_api_objects.c:511
    15d0:	b1a0      	cbz	r0, 15fc <TEE_RenamePersistentObject+0x2e>
/mnt/disk/raspbian-tee/optee_os/lib/libutee/tee_api_objects.c:516
    15d2:	b1a9      	cbz	r1, 1600 <TEE_RenamePersistentObject+0x32>
/mnt/disk/raspbian-tee/optee_os/lib/libutee/tee_api_objects.c:521
    15d4:	2a40      	cmp	r2, #64	; 0x40
    15d6:	d813      	bhi.n	1600 <TEE_RenamePersistentObject+0x32>
/mnt/disk/raspbian-tee/optee_os/lib/libutee/tee_api_objects.c:526
    15d8:	f001 eef4 	blx	33c4 <utee_storage_obj_rename>
/mnt/disk/raspbian-tee/optee_os/lib/libutee/tee_api_objects.c:530
    15dc:	4604      	mov	r4, r0
    15de:	b158      	cbz	r0, 15f8 <TEE_RenamePersistentObject+0x2a>
/mnt/disk/raspbian-tee/optee_os/lib/libutee/tee_api_objects.c:530 (discriminator 1)
    15e0:	4b08      	ldr	r3, [pc, #32]	; (1604 <TEE_RenamePersistentObject+0x36>)
    15e2:	4298      	cmp	r0, r3
    15e4:	d008      	beq.n	15f8 <TEE_RenamePersistentObject+0x2a>
/mnt/disk/raspbian-tee/optee_os/lib/libutee/tee_api_objects.c:531
    15e6:	4b08      	ldr	r3, [pc, #32]	; (1608 <TEE_RenamePersistentObject+0x3a>)
    15e8:	4298      	cmp	r0, r3
    15ea:	d005      	beq.n	15f8 <TEE_RenamePersistentObject+0x2a>
/mnt/disk/raspbian-tee/optee_os/lib/libutee/tee_api_objects.c:532
    15ec:	3302      	adds	r3, #2
    15ee:	4298      	cmp	r0, r3
    15f0:	d002      	beq.n	15f8 <TEE_RenamePersistentObject+0x2a>
/mnt/disk/raspbian-tee/optee_os/lib/libutee/tee_api_objects.c:534
    15f2:	4620      	mov	r0, r4
    15f4:	f006 fae9 	bl	7bca <TEE_Panic>
/mnt/disk/raspbian-tee/optee_os/lib/libutee/tee_api_objects.c:537
    15f8:	4620      	mov	r0, r4
    15fa:	bd10      	pop	{r4, pc}
/mnt/disk/raspbian-tee/optee_os/lib/libutee/tee_api_objects.c:512
    15fc:	4c03      	ldr	r4, [pc, #12]	; (160c <TEE_RenamePersistentObject+0x3e>)
    15fe:	e7f8      	b.n	15f2 <TEE_RenamePersistentObject+0x24>
/mnt/disk/raspbian-tee/optee_os/lib/libutee/tee_api_objects.c:517
    1600:	4c03      	ldr	r4, [pc, #12]	; (1610 <TEE_RenamePersistentObject+0x42>)
    1602:	e7f6      	b.n	15f2 <TEE_RenamePersistentObject+0x24>
    1604:	ffff0003 	.word	0xffff0003
    1608:	f0100001 	.word	0xf0100001
    160c:	ffff0008 	.word	0xffff0008
    1610:	ffff0006 	.word	0xffff0006

00001614 <TEE_AllocatePersistentObjectEnumerator>:
TEE_AllocatePersistentObjectEnumerator():
/mnt/disk/raspbian-tee/optee_os/lib/libutee/tee_api_objects.c:541
    1614:	b537      	push	{r0, r1, r2, r4, r5, lr}
/mnt/disk/raspbian-tee/optee_os/lib/libutee/tee_api_objects.c:545
    1616:	4605      	mov	r5, r0
    1618:	b190      	cbz	r0, 1640 <TEE_AllocatePersistentObjectEnumerator+0x2c>
/mnt/disk/raspbian-tee/optee_os/lib/libutee/tee_api_objects.c:548
    161a:	a801      	add	r0, sp, #4
    161c:	f001 eedc 	blx	33d8 <utee_storage_alloc_enum>
/mnt/disk/raspbian-tee/optee_os/lib/libutee/tee_api_objects.c:550
    1620:	4604      	mov	r4, r0
    1622:	b108      	cbz	r0, 1628 <TEE_AllocatePersistentObjectEnumerator+0x14>
/mnt/disk/raspbian-tee/optee_os/lib/libutee/tee_api_objects.c:551
    1624:	2300      	movs	r3, #0
    1626:	9301      	str	r3, [sp, #4]
/mnt/disk/raspbian-tee/optee_os/lib/libutee/tee_api_objects.c:553
    1628:	9b01      	ldr	r3, [sp, #4]
    162a:	602b      	str	r3, [r5, #0]
/mnt/disk/raspbian-tee/optee_os/lib/libutee/tee_api_objects.c:555
    162c:	b12c      	cbz	r4, 163a <TEE_AllocatePersistentObjectEnumerator+0x26>
/mnt/disk/raspbian-tee/optee_os/lib/libutee/tee_api_objects.c:555 (discriminator 1)
    162e:	4b05      	ldr	r3, [pc, #20]	; (1644 <TEE_AllocatePersistentObjectEnumerator+0x30>)
    1630:	429c      	cmp	r4, r3
    1632:	d002      	beq.n	163a <TEE_AllocatePersistentObjectEnumerator+0x26>
/mnt/disk/raspbian-tee/optee_os/lib/libutee/tee_api_objects.c:557
    1634:	4620      	mov	r0, r4
    1636:	f006 fac8 	bl	7bca <TEE_Panic>
/mnt/disk/raspbian-tee/optee_os/lib/libutee/tee_api_objects.c:560
    163a:	4620      	mov	r0, r4
    163c:	b003      	add	sp, #12
    163e:	bd30      	pop	{r4, r5, pc}
/mnt/disk/raspbian-tee/optee_os/lib/libutee/tee_api_objects.c:546
    1640:	4c01      	ldr	r4, [pc, #4]	; (1648 <TEE_AllocatePersistentObjectEnumerator+0x34>)
    1642:	e7fa      	b.n	163a <TEE_AllocatePersistentObjectEnumerator+0x26>
    1644:	ffff0003 	.word	0xffff0003
    1648:	ffff0006 	.word	0xffff0006

0000164c <TEE_FreePersistentObjectEnumerator>:
TEE_FreePersistentObjectEnumerator():
/mnt/disk/raspbian-tee/optee_os/lib/libutee/tee_api_objects.c:563
    164c:	b508      	push	{r3, lr}
/mnt/disk/raspbian-tee/optee_os/lib/libutee/tee_api_objects.c:566
    164e:	b130      	cbz	r0, 165e <TEE_FreePersistentObjectEnumerator+0x12>
/mnt/disk/raspbian-tee/optee_os/lib/libutee/tee_api_objects.c:569
    1650:	f001 eecc 	blx	33ec <utee_storage_free_enum>
/mnt/disk/raspbian-tee/optee_os/lib/libutee/tee_api_objects.c:571
    1654:	b118      	cbz	r0, 165e <TEE_FreePersistentObjectEnumerator+0x12>
/mnt/disk/raspbian-tee/optee_os/lib/libutee/tee_api_objects.c:573
    1656:	e8bd 4008 	ldmia.w	sp!, {r3, lr}
/mnt/disk/raspbian-tee/optee_os/lib/libutee/tee_api_objects.c:572
    165a:	f006 bab6 	b.w	7bca <TEE_Panic>
    165e:	bd08      	pop	{r3, pc}

00001660 <TEE_ResetPersistentObjectEnumerator>:
TEE_ResetPersistentObjectEnumerator():
/mnt/disk/raspbian-tee/optee_os/lib/libutee/tee_api_objects.c:576
    1660:	b508      	push	{r3, lr}
/mnt/disk/raspbian-tee/optee_os/lib/libutee/tee_api_objects.c:579
    1662:	b130      	cbz	r0, 1672 <TEE_ResetPersistentObjectEnumerator+0x12>
/mnt/disk/raspbian-tee/optee_os/lib/libutee/tee_api_objects.c:582
    1664:	f001 eecc 	blx	3400 <utee_storage_reset_enum>
/mnt/disk/raspbian-tee/optee_os/lib/libutee/tee_api_objects.c:584
    1668:	b118      	cbz	r0, 1672 <TEE_ResetPersistentObjectEnumerator+0x12>
/mnt/disk/raspbian-tee/optee_os/lib/libutee/tee_api_objects.c:586
    166a:	e8bd 4008 	ldmia.w	sp!, {r3, lr}
/mnt/disk/raspbian-tee/optee_os/lib/libutee/tee_api_objects.c:585
    166e:	f006 baac 	b.w	7bca <TEE_Panic>
    1672:	bd08      	pop	{r3, pc}

00001674 <TEE_StartPersistentObjectEnumerator>:
TEE_StartPersistentObjectEnumerator():
/mnt/disk/raspbian-tee/optee_os/lib/libutee/tee_api_objects.c:591
    1674:	b510      	push	{r4, lr}
/mnt/disk/raspbian-tee/optee_os/lib/libutee/tee_api_objects.c:594
    1676:	f001 eece 	blx	3414 <utee_storage_start_enum>
/mnt/disk/raspbian-tee/optee_os/lib/libutee/tee_api_objects.c:597
    167a:	4604      	mov	r4, r0
    167c:	b148      	cbz	r0, 1692 <TEE_StartPersistentObjectEnumerator+0x1e>
/mnt/disk/raspbian-tee/optee_os/lib/libutee/tee_api_objects.c:597 (discriminator 1)
    167e:	4b06      	ldr	r3, [pc, #24]	; (1698 <TEE_StartPersistentObjectEnumerator+0x24>)
    1680:	4298      	cmp	r0, r3
    1682:	d006      	beq.n	1692 <TEE_StartPersistentObjectEnumerator+0x1e>
/mnt/disk/raspbian-tee/optee_os/lib/libutee/tee_api_objects.c:598
    1684:	4b05      	ldr	r3, [pc, #20]	; (169c <TEE_StartPersistentObjectEnumerator+0x28>)
    1686:	f020 0202 	bic.w	r2, r0, #2
    168a:	429a      	cmp	r2, r3
    168c:	d001      	beq.n	1692 <TEE_StartPersistentObjectEnumerator+0x1e>
/mnt/disk/raspbian-tee/optee_os/lib/libutee/tee_api_objects.c:601
    168e:	f006 fa9c 	bl	7bca <TEE_Panic>
/mnt/disk/raspbian-tee/optee_os/lib/libutee/tee_api_objects.c:604
    1692:	4620      	mov	r0, r4
    1694:	bd10      	pop	{r4, pc}
    1696:	bf00      	nop
    1698:	ffff0008 	.word	0xffff0008
    169c:	f0100001 	.word	0xf0100001

000016a0 <TEE_GetNextPersistentObject>:
TEE_GetNextPersistentObject():
/mnt/disk/raspbian-tee/optee_os/lib/libutee/tee_api_objects.c:609
    16a0:	b510      	push	{r4, lr}
    16a2:	461c      	mov	r4, r3
    16a4:	b08a      	sub	sp, #40	; 0x28
/mnt/disk/raspbian-tee/optee_os/lib/libutee/tee_api_objects.c:615
    16a6:	b1e2      	cbz	r2, 16e2 <TEE_GetNextPersistentObject+0x42>
/mnt/disk/raspbian-tee/optee_os/lib/libutee/tee_api_objects.c:620
    16a8:	b1db      	cbz	r3, 16e2 <TEE_GetNextPersistentObject+0x42>
/mnt/disk/raspbian-tee/optee_os/lib/libutee/tee_api_objects.c:625
    16aa:	b901      	cbnz	r1, 16ae <TEE_GetNextPersistentObject+0xe>
/mnt/disk/raspbian-tee/optee_os/lib/libutee/tee_api_objects.c:628
    16ac:	a903      	add	r1, sp, #12
/mnt/disk/raspbian-tee/optee_os/lib/libutee/tee_api_objects.c:629
    16ae:	6823      	ldr	r3, [r4, #0]
    16b0:	9300      	str	r3, [sp, #0]
    16b2:	2300      	movs	r3, #0
    16b4:	9301      	str	r3, [sp, #4]
/mnt/disk/raspbian-tee/optee_os/lib/libutee/tee_api_objects.c:630
    16b6:	466b      	mov	r3, sp
    16b8:	f001 eeb6 	blx	3428 <utee_storage_next_enum>
/mnt/disk/raspbian-tee/optee_os/lib/libutee/tee_api_objects.c:632
    16bc:	9b00      	ldr	r3, [sp, #0]
    16be:	6023      	str	r3, [r4, #0]
/mnt/disk/raspbian-tee/optee_os/lib/libutee/tee_api_objects.c:635
    16c0:	4604      	mov	r4, r0
    16c2:	b158      	cbz	r0, 16dc <TEE_GetNextPersistentObject+0x3c>
/mnt/disk/raspbian-tee/optee_os/lib/libutee/tee_api_objects.c:635 (discriminator 1)
    16c4:	4b08      	ldr	r3, [pc, #32]	; (16e8 <TEE_GetNextPersistentObject+0x48>)
    16c6:	4298      	cmp	r0, r3
    16c8:	d008      	beq.n	16dc <TEE_GetNextPersistentObject+0x3c>
/mnt/disk/raspbian-tee/optee_os/lib/libutee/tee_api_objects.c:636
    16ca:	4b08      	ldr	r3, [pc, #32]	; (16ec <TEE_GetNextPersistentObject+0x4c>)
    16cc:	4298      	cmp	r0, r3
    16ce:	d005      	beq.n	16dc <TEE_GetNextPersistentObject+0x3c>
/mnt/disk/raspbian-tee/optee_os/lib/libutee/tee_api_objects.c:637
    16d0:	3302      	adds	r3, #2
    16d2:	4298      	cmp	r0, r3
    16d4:	d002      	beq.n	16dc <TEE_GetNextPersistentObject+0x3c>
/mnt/disk/raspbian-tee/optee_os/lib/libutee/tee_api_objects.c:639
    16d6:	4620      	mov	r0, r4
    16d8:	f006 fa77 	bl	7bca <TEE_Panic>
/mnt/disk/raspbian-tee/optee_os/lib/libutee/tee_api_objects.c:642
    16dc:	4620      	mov	r0, r4
    16de:	b00a      	add	sp, #40	; 0x28
    16e0:	bd10      	pop	{r4, pc}
    16e2:	4c03      	ldr	r4, [pc, #12]	; (16f0 <TEE_GetNextPersistentObject+0x50>)
    16e4:	e7f7      	b.n	16d6 <TEE_GetNextPersistentObject+0x36>
    16e6:	bf00      	nop
    16e8:	ffff0008 	.word	0xffff0008
    16ec:	f0100001 	.word	0xf0100001
    16f0:	ffff0006 	.word	0xffff0006

000016f4 <TEE_ReadObjectData>:
TEE_ReadObjectData():
/mnt/disk/raspbian-tee/optee_os/lib/libutee/tee_api_objects.c:648
    16f4:	b513      	push	{r0, r1, r4, lr}
    16f6:	461c      	mov	r4, r3
/mnt/disk/raspbian-tee/optee_os/lib/libutee/tee_api_objects.c:652
    16f8:	b1b0      	cbz	r0, 1728 <TEE_ReadObjectData+0x34>
/mnt/disk/raspbian-tee/optee_os/lib/libutee/tee_api_objects.c:657
    16fa:	681b      	ldr	r3, [r3, #0]
    16fc:	9300      	str	r3, [sp, #0]
    16fe:	2300      	movs	r3, #0
    1700:	9301      	str	r3, [sp, #4]
/mnt/disk/raspbian-tee/optee_os/lib/libutee/tee_api_objects.c:658
    1702:	466b      	mov	r3, sp
    1704:	f001 ee9a 	blx	343c <utee_storage_obj_read>
/mnt/disk/raspbian-tee/optee_os/lib/libutee/tee_api_objects.c:660
    1708:	9b00      	ldr	r3, [sp, #0]
    170a:	6023      	str	r3, [r4, #0]
/mnt/disk/raspbian-tee/optee_os/lib/libutee/tee_api_objects.c:663
    170c:	4604      	mov	r4, r0
    170e:	b140      	cbz	r0, 1722 <TEE_ReadObjectData+0x2e>
/mnt/disk/raspbian-tee/optee_os/lib/libutee/tee_api_objects.c:663 (discriminator 1)
    1710:	4b06      	ldr	r3, [pc, #24]	; (172c <TEE_ReadObjectData+0x38>)
    1712:	4298      	cmp	r0, r3
    1714:	d005      	beq.n	1722 <TEE_ReadObjectData+0x2e>
/mnt/disk/raspbian-tee/optee_os/lib/libutee/tee_api_objects.c:664
    1716:	3302      	adds	r3, #2
    1718:	4298      	cmp	r0, r3
    171a:	d002      	beq.n	1722 <TEE_ReadObjectData+0x2e>
/mnt/disk/raspbian-tee/optee_os/lib/libutee/tee_api_objects.c:666
    171c:	4620      	mov	r0, r4
    171e:	f006 fa54 	bl	7bca <TEE_Panic>
/mnt/disk/raspbian-tee/optee_os/lib/libutee/tee_api_objects.c:669
    1722:	4620      	mov	r0, r4
    1724:	b002      	add	sp, #8
    1726:	bd10      	pop	{r4, pc}
/mnt/disk/raspbian-tee/optee_os/lib/libutee/tee_api_objects.c:653
    1728:	4c01      	ldr	r4, [pc, #4]	; (1730 <TEE_ReadObjectData+0x3c>)
    172a:	e7f7      	b.n	171c <TEE_ReadObjectData+0x28>
    172c:	f0100001 	.word	0xf0100001
    1730:	ffff0006 	.word	0xffff0006

00001734 <TEE_WriteObjectData>:
TEE_WriteObjectData():
/mnt/disk/raspbian-tee/optee_os/lib/libutee/tee_api_objects.c:673
    1734:	b510      	push	{r4, lr}
/mnt/disk/raspbian-tee/optee_os/lib/libutee/tee_api_objects.c:676
    1736:	b1a0      	cbz	r0, 1762 <TEE_WriteObjectData+0x2e>
/mnt/disk/raspbian-tee/optee_os/lib/libutee/tee_api_objects.c:686
    1738:	f001 ee8a 	blx	3450 <utee_storage_obj_write>
/mnt/disk/raspbian-tee/optee_os/lib/libutee/tee_api_objects.c:689
    173c:	4604      	mov	r4, r0
    173e:	b170      	cbz	r0, 175e <TEE_WriteObjectData+0x2a>
/mnt/disk/raspbian-tee/optee_os/lib/libutee/tee_api_objects.c:689 (discriminator 1)
    1740:	4b09      	ldr	r3, [pc, #36]	; (1768 <TEE_WriteObjectData+0x34>)
    1742:	4298      	cmp	r0, r3
    1744:	d00b      	beq.n	175e <TEE_WriteObjectData+0x2a>
/mnt/disk/raspbian-tee/optee_os/lib/libutee/tee_api_objects.c:690
    1746:	3b32      	subs	r3, #50	; 0x32
    1748:	4298      	cmp	r0, r3
    174a:	d008      	beq.n	175e <TEE_WriteObjectData+0x2a>
/mnt/disk/raspbian-tee/optee_os/lib/libutee/tee_api_objects.c:691
    174c:	4b07      	ldr	r3, [pc, #28]	; (176c <TEE_WriteObjectData+0x38>)
    174e:	4298      	cmp	r0, r3
    1750:	d005      	beq.n	175e <TEE_WriteObjectData+0x2a>
/mnt/disk/raspbian-tee/optee_os/lib/libutee/tee_api_objects.c:692
    1752:	3302      	adds	r3, #2
    1754:	4298      	cmp	r0, r3
    1756:	d002      	beq.n	175e <TEE_WriteObjectData+0x2a>
/mnt/disk/raspbian-tee/optee_os/lib/libutee/tee_api_objects.c:694
    1758:	4620      	mov	r0, r4
    175a:	f006 fa36 	bl	7bca <TEE_Panic>
/mnt/disk/raspbian-tee/optee_os/lib/libutee/tee_api_objects.c:697
    175e:	4620      	mov	r0, r4
    1760:	bd10      	pop	{r4, pc}
/mnt/disk/raspbian-tee/optee_os/lib/libutee/tee_api_objects.c:677
    1762:	4c03      	ldr	r4, [pc, #12]	; (1770 <TEE_WriteObjectData+0x3c>)
    1764:	e7f8      	b.n	1758 <TEE_WriteObjectData+0x24>
    1766:	bf00      	nop
    1768:	ffff3041 	.word	0xffff3041
    176c:	f0100001 	.word	0xf0100001
    1770:	ffff0006 	.word	0xffff0006

00001774 <TEE_TruncateObjectData>:
TEE_TruncateObjectData():
/mnt/disk/raspbian-tee/optee_os/lib/libutee/tee_api_objects.c:700
    1774:	b510      	push	{r4, lr}
/mnt/disk/raspbian-tee/optee_os/lib/libutee/tee_api_objects.c:703
    1776:	b188      	cbz	r0, 179c <TEE_TruncateObjectData+0x28>
/mnt/disk/raspbian-tee/optee_os/lib/libutee/tee_api_objects.c:708
    1778:	f001 ee74 	blx	3464 <utee_storage_obj_trunc>
/mnt/disk/raspbian-tee/optee_os/lib/libutee/tee_api_objects.c:711
    177c:	4604      	mov	r4, r0
    177e:	b158      	cbz	r0, 1798 <TEE_TruncateObjectData+0x24>
/mnt/disk/raspbian-tee/optee_os/lib/libutee/tee_api_objects.c:711 (discriminator 1)
    1780:	4b07      	ldr	r3, [pc, #28]	; (17a0 <TEE_TruncateObjectData+0x2c>)
    1782:	4298      	cmp	r0, r3
    1784:	d008      	beq.n	1798 <TEE_TruncateObjectData+0x24>
/mnt/disk/raspbian-tee/optee_os/lib/libutee/tee_api_objects.c:712
    1786:	4b07      	ldr	r3, [pc, #28]	; (17a4 <TEE_TruncateObjectData+0x30>)
    1788:	4298      	cmp	r0, r3
    178a:	d005      	beq.n	1798 <TEE_TruncateObjectData+0x24>
/mnt/disk/raspbian-tee/optee_os/lib/libutee/tee_api_objects.c:713
    178c:	3302      	adds	r3, #2
    178e:	4298      	cmp	r0, r3
    1790:	d002      	beq.n	1798 <TEE_TruncateObjectData+0x24>
/mnt/disk/raspbian-tee/optee_os/lib/libutee/tee_api_objects.c:715
    1792:	4620      	mov	r0, r4
    1794:	f006 fa19 	bl	7bca <TEE_Panic>
/mnt/disk/raspbian-tee/optee_os/lib/libutee/tee_api_objects.c:718
    1798:	4620      	mov	r0, r4
    179a:	bd10      	pop	{r4, pc}
/mnt/disk/raspbian-tee/optee_os/lib/libutee/tee_api_objects.c:704
    179c:	4c02      	ldr	r4, [pc, #8]	; (17a8 <TEE_TruncateObjectData+0x34>)
    179e:	e7f8      	b.n	1792 <TEE_TruncateObjectData+0x1e>
    17a0:	ffff3041 	.word	0xffff3041
    17a4:	f0100001 	.word	0xf0100001
    17a8:	ffff0006 	.word	0xffff0006

000017ac <TEE_SeekObjectData>:
TEE_SeekObjectData():
/mnt/disk/raspbian-tee/optee_os/lib/libutee/tee_api_objects.c:722
    17ac:	b5f0      	push	{r4, r5, r6, r7, lr}
    17ae:	460d      	mov	r5, r1
    17b0:	4616      	mov	r6, r2
    17b2:	b089      	sub	sp, #36	; 0x24
/mnt/disk/raspbian-tee/optee_os/lib/libutee/tee_api_objects.c:726
    17b4:	4607      	mov	r7, r0
    17b6:	b368      	cbz	r0, 1814 <TEE_SeekObjectData+0x68>
/mnt/disk/raspbian-tee/optee_os/lib/libutee/tee_api_objects.c:731
    17b8:	a901      	add	r1, sp, #4
    17ba:	f001 ed2c 	blx	3214 <utee_cryp_obj_get_info>
/mnt/disk/raspbian-tee/optee_os/lib/libutee/tee_api_objects.c:732
    17be:	4604      	mov	r4, r0
    17c0:	b9d8      	cbnz	r0, 17fa <TEE_SeekObjectData+0x4e>
/mnt/disk/raspbian-tee/optee_os/lib/libutee/tee_api_objects.c:735
    17c2:	2e01      	cmp	r6, #1
    17c4:	d004      	beq.n	17d0 <TEE_SeekObjectData+0x24>
    17c6:	d310      	bcc.n	17ea <TEE_SeekObjectData+0x3e>
    17c8:	2e02      	cmp	r6, #2
    17ca:	d00a      	beq.n	17e2 <TEE_SeekObjectData+0x36>
/mnt/disk/raspbian-tee/optee_os/lib/libutee/tee_api_objects.c:761
    17cc:	4c12      	ldr	r4, [pc, #72]	; (1818 <TEE_SeekObjectData+0x6c>)
    17ce:	e017      	b.n	1800 <TEE_SeekObjectData+0x54>
/mnt/disk/raspbian-tee/optee_os/lib/libutee/tee_api_objects.c:743
    17d0:	2d00      	cmp	r5, #0
    17d2:	dd0a      	ble.n	17ea <TEE_SeekObjectData+0x3e>
/mnt/disk/raspbian-tee/optee_os/lib/libutee/tee_api_objects.c:743 (discriminator 1)
    17d4:	9b06      	ldr	r3, [sp, #24]
    17d6:	42dd      	cmn	r5, r3
    17d8:	d307      	bcc.n	17ea <TEE_SeekObjectData+0x3e>
/mnt/disk/raspbian-tee/optee_os/lib/libutee/tee_api_objects.c:727
    17da:	4c10      	ldr	r4, [pc, #64]	; (181c <TEE_SeekObjectData+0x70>)
/mnt/disk/raspbian-tee/optee_os/lib/libutee/tee_api_objects.c:775
    17dc:	4620      	mov	r0, r4
    17de:	b009      	add	sp, #36	; 0x24
    17e0:	bdf0      	pop	{r4, r5, r6, r7, pc}
/mnt/disk/raspbian-tee/optee_os/lib/libutee/tee_api_objects.c:753
    17e2:	2d00      	cmp	r5, #0
    17e4:	dd01      	ble.n	17ea <TEE_SeekObjectData+0x3e>
/mnt/disk/raspbian-tee/optee_os/lib/libutee/tee_api_objects.c:753 (discriminator 1)
    17e6:	9b05      	ldr	r3, [sp, #20]
    17e8:	e7f5      	b.n	17d6 <TEE_SeekObjectData+0x2a>
/mnt/disk/raspbian-tee/optee_os/lib/libutee/tee_api_objects.c:765
    17ea:	4632      	mov	r2, r6
    17ec:	4629      	mov	r1, r5
    17ee:	4638      	mov	r0, r7
    17f0:	f001 ee42 	blx	3478 <utee_storage_obj_seek>
/mnt/disk/raspbian-tee/optee_os/lib/libutee/tee_api_objects.c:768
    17f4:	4604      	mov	r4, r0
    17f6:	2800      	cmp	r0, #0
    17f8:	d0f0      	beq.n	17dc <TEE_SeekObjectData+0x30>
/mnt/disk/raspbian-tee/optee_os/lib/libutee/tee_api_objects.c:768 (discriminator 1)
    17fa:	4b08      	ldr	r3, [pc, #32]	; (181c <TEE_SeekObjectData+0x70>)
    17fc:	429c      	cmp	r4, r3
    17fe:	d0ec      	beq.n	17da <TEE_SeekObjectData+0x2e>
/mnt/disk/raspbian-tee/optee_os/lib/libutee/tee_api_objects.c:769
    1800:	4b07      	ldr	r3, [pc, #28]	; (1820 <TEE_SeekObjectData+0x74>)
    1802:	429c      	cmp	r4, r3
    1804:	d0ea      	beq.n	17dc <TEE_SeekObjectData+0x30>
/mnt/disk/raspbian-tee/optee_os/lib/libutee/tee_api_objects.c:770
    1806:	3302      	adds	r3, #2
    1808:	429c      	cmp	r4, r3
    180a:	d0e7      	beq.n	17dc <TEE_SeekObjectData+0x30>
/mnt/disk/raspbian-tee/optee_os/lib/libutee/tee_api_objects.c:772
    180c:	4620      	mov	r0, r4
    180e:	f006 f9dc 	bl	7bca <TEE_Panic>
/mnt/disk/raspbian-tee/optee_os/lib/libutee/tee_api_objects.c:774
    1812:	e7e3      	b.n	17dc <TEE_SeekObjectData+0x30>
/mnt/disk/raspbian-tee/optee_os/lib/libutee/tee_api_objects.c:727
    1814:	4c03      	ldr	r4, [pc, #12]	; (1824 <TEE_SeekObjectData+0x78>)
    1816:	e7f9      	b.n	180c <TEE_SeekObjectData+0x60>
    1818:	ffff0008 	.word	0xffff0008
    181c:	ffff300f 	.word	0xffff300f
    1820:	f0100001 	.word	0xf0100001
    1824:	ffff0006 	.word	0xffff0006

00001828 <tee_buffer_update>:
tee_buffer_update():
/mnt/disk/raspbian-tee/optee_os/lib/libutee/tee_api_operations.c:852
    1828:	e92d 4ff0 	stmdb	sp!, {r4, r5, r6, r7, r8, r9, sl, fp, lr}
    182c:	461f      	mov	r7, r3
    182e:	4604      	mov	r4, r0
    1830:	b087      	sub	sp, #28
    1832:	468b      	mov	fp, r1
/mnt/disk/raspbian-tee/optee_os/lib/libutee/tee_api_operations.c:864
    1834:	4692      	mov	sl, r2
/mnt/disk/raspbian-tee/optee_os/lib/libutee/tee_api_operations.c:857
    1836:	9b11      	ldr	r3, [sp, #68]	; 0x44
/mnt/disk/raspbian-tee/optee_os/lib/libutee/tee_api_operations.c:852
    1838:	f8dd 8040 	ldr.w	r8, [sp, #64]	; 0x40
/mnt/disk/raspbian-tee/optee_os/lib/libutee/tee_api_operations.c:857
    183c:	e9d3 0100 	ldrd	r0, r1, [r3]
    1840:	e9cd 0102 	strd	r0, r1, [sp, #8]
/mnt/disk/raspbian-tee/optee_os/lib/libutee/tee_api_operations.c:864
    1844:	b962      	cbnz	r2, 1860 <tee_buffer_update+0x38>
/mnt/disk/raspbian-tee/optee_os/lib/libutee/tee_api_operations.c:865
    1846:	b93f      	cbnz	r7, 1858 <tee_buffer_update+0x30>
/mnt/disk/raspbian-tee/optee_os/lib/libutee/tee_api_operations.c:858
    1848:	2500      	movs	r5, #0
/mnt/disk/raspbian-tee/optee_os/lib/libutee/tee_api_operations.c:940
    184a:	9b11      	ldr	r3, [sp, #68]	; 0x44
    184c:	2000      	movs	r0, #0
    184e:	601d      	str	r5, [r3, #0]
    1850:	6058      	str	r0, [r3, #4]
/mnt/disk/raspbian-tee/optee_os/lib/libutee/tee_api_operations.c:942
    1852:	b007      	add	sp, #28
    1854:	e8bd 8ff0 	ldmia.w	sp!, {r4, r5, r6, r7, r8, r9, sl, fp, pc}
/mnt/disk/raspbian-tee/optee_os/lib/libutee/tee_api_operations.c:866
    1858:	4610      	mov	r0, r2
    185a:	f006 f9b6 	bl	7bca <TEE_Panic>
    185e:	e7f3      	b.n	1848 <tee_buffer_update+0x20>
/mnt/disk/raspbian-tee/optee_os/lib/libutee/tee_api_operations.c:870
    1860:	f894 3030 	ldrb.w	r3, [r4, #48]	; 0x30
    1864:	6b65      	ldr	r5, [r4, #52]	; 0x34
    1866:	2b00      	cmp	r3, #0
    1868:	d05b      	beq.n	1922 <tee_buffer_update+0xfa>
/mnt/disk/raspbian-tee/optee_os/lib/libutee/tee_api_operations.c:871
    186a:	006e      	lsls	r6, r5, #1
/mnt/disk/raspbian-tee/optee_os/lib/libutee/tee_api_operations.c:872
    186c:	f04f 0901 	mov.w	r9, #1
/mnt/disk/raspbian-tee/optee_os/lib/libutee/tee_api_operations.c:878
    1870:	6ba0      	ldr	r0, [r4, #56]	; 0x38
    1872:	b1c8      	cbz	r0, 18a8 <tee_buffer_update+0x80>
/mnt/disk/raspbian-tee/optee_os/lib/libutee/tee_api_operations.c:880
    1874:	42a8      	cmp	r0, r5
/mnt/disk/raspbian-tee/optee_os/lib/libutee/tee_api_operations.c:884
    1876:	6ae3      	ldr	r3, [r4, #44]	; 0x2c
/mnt/disk/raspbian-tee/optee_os/lib/libutee/tee_api_operations.c:883
    1878:	bf28      	it	cs
    187a:	1a35      	subcs	r5, r6, r0
/mnt/disk/raspbian-tee/optee_os/lib/libutee/tee_api_operations.c:881
    187c:	bf38      	it	cc
    187e:	1a2d      	subcc	r5, r5, r0
/mnt/disk/raspbian-tee/optee_os/lib/libutee/tee_api_operations.c:883
    1880:	42bd      	cmp	r5, r7
/mnt/disk/raspbian-tee/optee_os/lib/libutee/tee_api_operations.c:884
    1882:	4651      	mov	r1, sl
/mnt/disk/raspbian-tee/optee_os/lib/libutee/tee_api_operations.c:883
    1884:	bf28      	it	cs
    1886:	463d      	movcs	r5, r7
/mnt/disk/raspbian-tee/optee_os/lib/libutee/tee_api_operations.c:884
    1888:	4418      	add	r0, r3
    188a:	462a      	mov	r2, r5
    188c:	f006 f8c1 	bl	7a12 <memcpy>
/mnt/disk/raspbian-tee/optee_os/lib/libutee/tee_api_operations.c:885
    1890:	6ba3      	ldr	r3, [r4, #56]	; 0x38
/mnt/disk/raspbian-tee/optee_os/lib/libutee/tee_api_operations.c:888
    1892:	6b61      	ldr	r1, [r4, #52]	; 0x34
/mnt/disk/raspbian-tee/optee_os/lib/libutee/tee_api_operations.c:885
    1894:	442b      	add	r3, r5
    1896:	63a3      	str	r3, [r4, #56]	; 0x38
/mnt/disk/raspbian-tee/optee_os/lib/libutee/tee_api_operations.c:888
    1898:	fbb3 f2f1 	udiv	r2, r3, r1
    189c:	fb01 3312 	mls	r3, r1, r2, r3
    18a0:	2b00      	cmp	r3, #0
    18a2:	d1d1      	bne.n	1848 <tee_buffer_update+0x20>
/mnt/disk/raspbian-tee/optee_os/lib/libutee/tee_api_operations.c:886
    18a4:	44aa      	add	sl, r5
/mnt/disk/raspbian-tee/optee_os/lib/libutee/tee_api_operations.c:887
    18a6:	1b7f      	subs	r7, r7, r5
/mnt/disk/raspbian-tee/optee_os/lib/libutee/tee_api_operations.c:893
    18a8:	6ba5      	ldr	r5, [r4, #56]	; 0x38
/mnt/disk/raspbian-tee/optee_os/lib/libutee/tee_api_operations.c:857
    18aa:	9902      	ldr	r1, [sp, #8]
/mnt/disk/raspbian-tee/optee_os/lib/libutee/tee_api_operations.c:893
    18ac:	2d00      	cmp	r5, #0
    18ae:	d03c      	beq.n	192a <tee_buffer_update+0x102>
/mnt/disk/raspbian-tee/optee_os/lib/libutee/tee_api_operations.c:894 (discriminator 1)
    18b0:	1978      	adds	r0, r7, r5
    18b2:	eb06 0309 	add.w	r3, r6, r9
/mnt/disk/raspbian-tee/optee_os/lib/libutee/tee_api_operations.c:893 (discriminator 1)
    18b6:	4298      	cmp	r0, r3
    18b8:	d336      	bcc.n	1928 <tee_buffer_update+0x100>
/mnt/disk/raspbian-tee/optee_os/lib/libutee/tee_api_operations.c:895
    18ba:	6b62      	ldr	r2, [r4, #52]	; 0x34
    18bc:	1e53      	subs	r3, r2, #1
    18be:	4252      	negs	r2, r2
    18c0:	1b9b      	subs	r3, r3, r6
    18c2:	4403      	add	r3, r0
    18c4:	4013      	ands	r3, r2
/mnt/disk/raspbian-tee/optee_os/lib/libutee/tee_api_operations.c:897
    18c6:	429d      	cmp	r5, r3
    18c8:	bf28      	it	cs
    18ca:	461d      	movcs	r5, r3
/mnt/disk/raspbian-tee/optee_os/lib/libutee/tee_api_operations.c:898
    18cc:	ab06      	add	r3, sp, #24
    18ce:	e9dd 0102 	ldrd	r0, r1, [sp, #8]
    18d2:	2100      	movs	r1, #0
    18d4:	e963 0102 	strd	r0, r1, [r3, #-8]!
/mnt/disk/raspbian-tee/optee_os/lib/libutee/tee_api_operations.c:899
    18d8:	462a      	mov	r2, r5
    18da:	6ae1      	ldr	r1, [r4, #44]	; 0x2c
    18dc:	9300      	str	r3, [sp, #0]
    18de:	4643      	mov	r3, r8
    18e0:	6be0      	ldr	r0, [r4, #60]	; 0x3c
    18e2:	47d8      	blx	fp
/mnt/disk/raspbian-tee/optee_os/lib/libutee/tee_api_operations.c:900
    18e4:	b108      	cbz	r0, 18ea <tee_buffer_update+0xc2>
/mnt/disk/raspbian-tee/optee_os/lib/libutee/tee_api_operations.c:901
    18e6:	f006 f970 	bl	7bca <TEE_Panic>
/mnt/disk/raspbian-tee/optee_os/lib/libutee/tee_api_operations.c:902
    18ea:	9b04      	ldr	r3, [sp, #16]
/mnt/disk/raspbian-tee/optee_os/lib/libutee/tee_api_operations.c:903
    18ec:	9a02      	ldr	r2, [sp, #8]
/mnt/disk/raspbian-tee/optee_os/lib/libutee/tee_api_operations.c:902
    18ee:	4498      	add	r8, r3
/mnt/disk/raspbian-tee/optee_os/lib/libutee/tee_api_operations.c:903
    18f0:	1ad1      	subs	r1, r2, r3
/mnt/disk/raspbian-tee/optee_os/lib/libutee/tee_api_operations.c:905
    18f2:	6ba2      	ldr	r2, [r4, #56]	; 0x38
    18f4:	1b52      	subs	r2, r2, r5
    18f6:	63a2      	str	r2, [r4, #56]	; 0x38
/mnt/disk/raspbian-tee/optee_os/lib/libutee/tee_api_operations.c:906
    18f8:	2a00      	cmp	r2, #0
    18fa:	d03f      	beq.n	197c <tee_buffer_update+0x154>
/mnt/disk/raspbian-tee/optee_os/lib/libutee/tee_api_operations.c:910
    18fc:	6ae0      	ldr	r0, [r4, #44]	; 0x2c
    18fe:	1b72      	subs	r2, r6, r5
    1900:	9302      	str	r3, [sp, #8]
    1902:	1941      	adds	r1, r0, r5
    1904:	f006 f885 	bl	7a12 <memcpy>
/mnt/disk/raspbian-tee/optee_os/lib/libutee/tee_api_operations.c:911
    1908:	6ae5      	ldr	r5, [r4, #44]	; 0x2c
    190a:	6ba0      	ldr	r0, [r4, #56]	; 0x38
    190c:	463a      	mov	r2, r7
    190e:	4651      	mov	r1, sl
    1910:	4428      	add	r0, r5
    1912:	f006 f87e 	bl	7a12 <memcpy>
/mnt/disk/raspbian-tee/optee_os/lib/libutee/tee_api_operations.c:912
    1916:	6ba2      	ldr	r2, [r4, #56]	; 0x38
/mnt/disk/raspbian-tee/optee_os/lib/libutee/tee_api_operations.c:904
    1918:	9b02      	ldr	r3, [sp, #8]
/mnt/disk/raspbian-tee/optee_os/lib/libutee/tee_api_operations.c:912
    191a:	4417      	add	r7, r2
    191c:	63a7      	str	r7, [r4, #56]	; 0x38
/mnt/disk/raspbian-tee/optee_os/lib/libutee/tee_api_operations.c:904
    191e:	461d      	mov	r5, r3
/mnt/disk/raspbian-tee/optee_os/lib/libutee/tee_api_operations.c:913
    1920:	e793      	b.n	184a <tee_buffer_update+0x22>
/mnt/disk/raspbian-tee/optee_os/lib/libutee/tee_api_operations.c:874
    1922:	462e      	mov	r6, r5
/mnt/disk/raspbian-tee/optee_os/lib/libutee/tee_api_operations.c:875
    1924:	4699      	mov	r9, r3
    1926:	e7a3      	b.n	1870 <tee_buffer_update+0x48>
/mnt/disk/raspbian-tee/optee_os/lib/libutee/tee_api_operations.c:858
    1928:	2500      	movs	r5, #0
/mnt/disk/raspbian-tee/optee_os/lib/libutee/tee_api_operations.c:917
    192a:	44b1      	add	r9, r6
    192c:	454f      	cmp	r7, r9
    192e:	d31a      	bcc.n	1966 <tee_buffer_update+0x13e>
/mnt/disk/raspbian-tee/optee_os/lib/libutee/tee_api_operations.c:919
    1930:	6822      	ldr	r2, [r4, #0]
    1932:	4b14      	ldr	r3, [pc, #80]	; (1984 <tee_buffer_update+0x15c>)
    1934:	429a      	cmp	r2, r3
    1936:	6b62      	ldr	r2, [r4, #52]	; 0x34
    1938:	d122      	bne.n	1980 <tee_buffer_update+0x158>
/mnt/disk/raspbian-tee/optee_os/lib/libutee/tee_api_operations.c:920
    193a:	1e53      	subs	r3, r2, #1
    193c:	1b9e      	subs	r6, r3, r6
/mnt/disk/raspbian-tee/optee_os/lib/libutee/tee_api_operations.c:922
    193e:	4252      	negs	r2, r2
    1940:	443e      	add	r6, r7
    1942:	4016      	ands	r6, r2
/mnt/disk/raspbian-tee/optee_os/lib/libutee/tee_api_operations.c:924
    1944:	2300      	movs	r3, #0
    1946:	9104      	str	r1, [sp, #16]
/mnt/disk/raspbian-tee/optee_os/lib/libutee/tee_api_operations.c:925
    1948:	4632      	mov	r2, r6
/mnt/disk/raspbian-tee/optee_os/lib/libutee/tee_api_operations.c:924
    194a:	9305      	str	r3, [sp, #20]
/mnt/disk/raspbian-tee/optee_os/lib/libutee/tee_api_operations.c:925
    194c:	4651      	mov	r1, sl
    194e:	ab04      	add	r3, sp, #16
    1950:	6be0      	ldr	r0, [r4, #60]	; 0x3c
    1952:	9300      	str	r3, [sp, #0]
    1954:	4643      	mov	r3, r8
    1956:	47d8      	blx	fp
/mnt/disk/raspbian-tee/optee_os/lib/libutee/tee_api_operations.c:926
    1958:	b108      	cbz	r0, 195e <tee_buffer_update+0x136>
/mnt/disk/raspbian-tee/optee_os/lib/libutee/tee_api_operations.c:927
    195a:	f006 f936 	bl	7bca <TEE_Panic>
/mnt/disk/raspbian-tee/optee_os/lib/libutee/tee_api_operations.c:932
    195e:	9b04      	ldr	r3, [sp, #16]
/mnt/disk/raspbian-tee/optee_os/lib/libutee/tee_api_operations.c:928
    1960:	44b2      	add	sl, r6
/mnt/disk/raspbian-tee/optee_os/lib/libutee/tee_api_operations.c:929
    1962:	1bbf      	subs	r7, r7, r6
/mnt/disk/raspbian-tee/optee_os/lib/libutee/tee_api_operations.c:932
    1964:	441d      	add	r5, r3
/mnt/disk/raspbian-tee/optee_os/lib/libutee/tee_api_operations.c:936
    1966:	6ba3      	ldr	r3, [r4, #56]	; 0x38
    1968:	463a      	mov	r2, r7
    196a:	6ae0      	ldr	r0, [r4, #44]	; 0x2c
    196c:	4651      	mov	r1, sl
    196e:	4418      	add	r0, r3
    1970:	f006 f84f 	bl	7a12 <memcpy>
/mnt/disk/raspbian-tee/optee_os/lib/libutee/tee_api_operations.c:937
    1974:	6ba3      	ldr	r3, [r4, #56]	; 0x38
    1976:	441f      	add	r7, r3
    1978:	63a7      	str	r7, [r4, #56]	; 0x38
    197a:	e766      	b.n	184a <tee_buffer_update+0x22>
/mnt/disk/raspbian-tee/optee_os/lib/libutee/tee_api_operations.c:904
    197c:	461d      	mov	r5, r3
    197e:	e7d4      	b.n	192a <tee_buffer_update+0x102>
/mnt/disk/raspbian-tee/optee_os/lib/libutee/tee_api_operations.c:922
    1980:	1b96      	subs	r6, r2, r6
    1982:	e7dc      	b.n	193e <tee_buffer_update+0x116>
    1984:	10000310 	.word	0x10000310

00001988 <TEE_FreeOperation>:
TEE_FreeOperation():
/mnt/disk/raspbian-tee/optee_os/lib/libutee/tee_api_operations.c:351
    1988:	b510      	push	{r4, lr}
/mnt/disk/raspbian-tee/optee_os/lib/libutee/tee_api_operations.c:354
    198a:	4604      	mov	r4, r0
    198c:	b908      	cbnz	r0, 1992 <TEE_FreeOperation+0xa>
/mnt/disk/raspbian-tee/optee_os/lib/libutee/tee_api_operations.c:355
    198e:	f006 f91c 	bl	7bca <TEE_Panic>
/mnt/disk/raspbian-tee/optee_os/lib/libutee/tee_api_operations.c:362
    1992:	6be0      	ldr	r0, [r4, #60]	; 0x3c
    1994:	f001 ebf2 	blx	317c <utee_cryp_state_free>
/mnt/disk/raspbian-tee/optee_os/lib/libutee/tee_api_operations.c:363
    1998:	b108      	cbz	r0, 199e <TEE_FreeOperation+0x16>
/mnt/disk/raspbian-tee/optee_os/lib/libutee/tee_api_operations.c:364
    199a:	f006 f916 	bl	7bca <TEE_Panic>
/mnt/disk/raspbian-tee/optee_os/lib/libutee/tee_api_operations.c:366
    199e:	6ae0      	ldr	r0, [r4, #44]	; 0x2c
    19a0:	f7ff fb70 	bl	1084 <TEE_Free>
/mnt/disk/raspbian-tee/optee_os/lib/libutee/tee_api_operations.c:367
    19a4:	4620      	mov	r0, r4
/mnt/disk/raspbian-tee/optee_os/lib/libutee/tee_api_operations.c:368
    19a6:	e8bd 4010 	ldmia.w	sp!, {r4, lr}
/mnt/disk/raspbian-tee/optee_os/lib/libutee/tee_api_operations.c:367
    19aa:	f7ff bb6b 	b.w	1084 <TEE_Free>

000019ae <TEE_AllocateOperation>:
TEE_AllocateOperation():
/mnt/disk/raspbian-tee/optee_os/lib/libutee/tee_api_operations.c:37
    19ae:	e92d 4ff0 	stmdb	sp!, {r4, r5, r6, r7, r8, r9, sl, fp, lr}
    19b2:	460c      	mov	r4, r1
    19b4:	4617      	mov	r7, r2
    19b6:	b087      	sub	sp, #28
    19b8:	4699      	mov	r9, r3
/mnt/disk/raspbian-tee/optee_os/lib/libutee/tee_api_operations.c:46
    19ba:	9003      	str	r0, [sp, #12]
    19bc:	b908      	cbnz	r0, 19c2 <TEE_AllocateOperation+0x14>
/mnt/disk/raspbian-tee/optee_os/lib/libutee/tee_api_operations.c:47
    19be:	f006 f904 	bl	7bca <TEE_Panic>
/mnt/disk/raspbian-tee/optee_os/lib/libutee/tee_api_operations.c:49
    19c2:	4bba      	ldr	r3, [pc, #744]	; (1cac <TEE_AllocateOperation+0x2fe>)
    19c4:	429c      	cmp	r4, r3
    19c6:	f000 81b6 	beq.w	1d36 <TEE_AllocateOperation+0x388>
/mnt/disk/raspbian-tee/optee_os/lib/libutee/tee_api_operations.c:53
    19ca:	4bb9      	ldr	r3, [pc, #740]	; (1cb0 <TEE_AllocateOperation+0x302>)
    19cc:	429c      	cmp	r4, r3
    19ce:	d06e      	beq.n	1aae <TEE_AllocateOperation+0x100>
    19d0:	d83f      	bhi.n	1a52 <TEE_AllocateOperation+0xa4>
    19d2:	4ab8      	ldr	r2, [pc, #736]	; (1cb4 <TEE_AllocateOperation+0x306>)
    19d4:	4294      	cmp	r4, r2
    19d6:	d055      	beq.n	1a84 <TEE_AllocateOperation+0xd6>
    19d8:	d82d      	bhi.n	1a36 <TEE_AllocateOperation+0x88>
    19da:	f5a2 5287 	sub.w	r2, r2, #4320	; 0x10e0
    19de:	3a10      	subs	r2, #16
    19e0:	4294      	cmp	r4, r2
    19e2:	d040      	beq.n	1a66 <TEE_AllocateOperation+0xb8>
    19e4:	f502 5280 	add.w	r2, r2, #4096	; 0x1000
    19e8:	4294      	cmp	r4, r2
    19ea:	d065      	beq.n	1ab8 <TEE_AllocateOperation+0x10a>
/mnt/disk/raspbian-tee/optee_os/lib/libutee/tee_api_operations.c:108
    19ec:	4ab2      	ldr	r2, [pc, #712]	; (1cb8 <TEE_AllocateOperation+0x30a>)
    19ee:	4294      	cmp	r4, r2
    19f0:	d050      	beq.n	1a94 <TEE_AllocateOperation+0xe6>
    19f2:	f200 80d8 	bhi.w	1ba6 <TEE_AllocateOperation+0x1f8>
    19f6:	4bb1      	ldr	r3, [pc, #708]	; (1cbc <TEE_AllocateOperation+0x30e>)
    19f8:	429c      	cmp	r4, r3
    19fa:	d07d      	beq.n	1af8 <TEE_AllocateOperation+0x14a>
    19fc:	f200 808e 	bhi.w	1b1c <TEE_AllocateOperation+0x16e>
    1a00:	4baf      	ldr	r3, [pc, #700]	; (1cc0 <TEE_AllocateOperation+0x312>)
    1a02:	429c      	cmp	r4, r3
    1a04:	f000 81a9 	beq.w	1d5a <TEE_AllocateOperation+0x3ac>
    1a08:	d86b      	bhi.n	1ae2 <TEE_AllocateOperation+0x134>
    1a0a:	f46f 71ff 	mvn.w	r1, #510	; 0x1fe
    1a0e:	440b      	add	r3, r1
    1a10:	429c      	cmp	r4, r3
    1a12:	d85b      	bhi.n	1acc <TEE_AllocateOperation+0x11e>
    1a14:	3b01      	subs	r3, #1
    1a16:	429c      	cmp	r4, r3
    1a18:	d209      	bcs.n	1a2e <TEE_AllocateOperation+0x80>
    1a1a:	f5a3 7380 	sub.w	r3, r3, #256	; 0x100
    1a1e:	429c      	cmp	r4, r3
    1a20:	d324      	bcc.n	1a6c <TEE_AllocateOperation+0xbe>
    1a22:	3301      	adds	r3, #1
    1a24:	429c      	cmp	r4, r3
    1a26:	d902      	bls.n	1a2e <TEE_AllocateOperation+0x80>
    1a28:	3302      	adds	r3, #2
    1a2a:	429c      	cmp	r4, r3
    1a2c:	d11e      	bne.n	1a6c <TEE_AllocateOperation+0xbe>
    1a2e:	f04f 0800 	mov.w	r8, #0
/mnt/disk/raspbian-tee/optee_os/lib/libutee/tee_api_operations.c:44
    1a32:	4646      	mov	r6, r8
    1a34:	e182      	b.n	1d3c <TEE_AllocateOperation+0x38e>
/mnt/disk/raspbian-tee/optee_os/lib/libutee/tee_api_operations.c:53
    1a36:	4aa3      	ldr	r2, [pc, #652]	; (1cc4 <TEE_AllocateOperation+0x316>)
    1a38:	4294      	cmp	r4, r2
    1a3a:	d034      	beq.n	1aa6 <TEE_AllocateOperation+0xf8>
    1a3c:	f502 6271 	add.w	r2, r2, #3856	; 0xf10
    1a40:	4294      	cmp	r4, r2
    1a42:	d03c      	beq.n	1abe <TEE_AllocateOperation+0x110>
    1a44:	f5a2 5280 	sub.w	r2, r2, #4096	; 0x1000
    1a48:	4294      	cmp	r4, r2
    1a4a:	d1cf      	bne.n	19ec <TEE_AllocateOperation+0x3e>
/mnt/disk/raspbian-tee/optee_os/lib/libutee/tee_api_operations.c:87
    1a4c:	f5b9 7f80 	cmp.w	r9, #256	; 0x100
    1a50:	e00b      	b.n	1a6a <TEE_AllocateOperation+0xbc>
/mnt/disk/raspbian-tee/optee_os/lib/libutee/tee_api_operations.c:53
    1a52:	4a9d      	ldr	r2, [pc, #628]	; (1cc8 <TEE_AllocateOperation+0x31a>)
    1a54:	4294      	cmp	r4, r2
    1a56:	d02f      	beq.n	1ab8 <TEE_AllocateOperation+0x10a>
    1a58:	d80a      	bhi.n	1a70 <TEE_AllocateOperation+0xc2>
    1a5a:	4a9c      	ldr	r2, [pc, #624]	; (1ccc <TEE_AllocateOperation+0x31e>)
    1a5c:	4294      	cmp	r4, r2
    1a5e:	d031      	beq.n	1ac4 <TEE_AllocateOperation+0x116>
    1a60:	4a9b      	ldr	r2, [pc, #620]	; (1cd0 <TEE_AllocateOperation+0x322>)
    1a62:	4294      	cmp	r4, r2
    1a64:	d1c2      	bne.n	19ec <TEE_AllocateOperation+0x3e>
/mnt/disk/raspbian-tee/optee_os/lib/libutee/tee_api_operations.c:75
    1a66:	f1b9 0fc0 	cmp.w	r9, #192	; 0xc0
/mnt/disk/raspbian-tee/optee_os/lib/libutee/tee_api_operations.c:99
    1a6a:	d0bf      	beq.n	19ec <TEE_AllocateOperation+0x3e>
/mnt/disk/raspbian-tee/optee_os/lib/libutee/tee_api_operations.c:56
    1a6c:	4e99      	ldr	r6, [pc, #612]	; (1cd4 <TEE_AllocateOperation+0x326>)
    1a6e:	e1ca      	b.n	1e06 <TEE_AllocateOperation+0x458>
/mnt/disk/raspbian-tee/optee_os/lib/libutee/tee_api_operations.c:53
    1a70:	4a99      	ldr	r2, [pc, #612]	; (1cd8 <TEE_AllocateOperation+0x32a>)
    1a72:	4294      	cmp	r4, r2
    1a74:	d023      	beq.n	1abe <TEE_AllocateOperation+0x110>
    1a76:	f502 5280 	add.w	r2, r2, #4096	; 0x1000
    1a7a:	4294      	cmp	r4, r2
    1a7c:	d022      	beq.n	1ac4 <TEE_AllocateOperation+0x116>
    1a7e:	f5a2 5200 	sub.w	r2, r2, #8192	; 0x2000
    1a82:	e7e1      	b.n	1a48 <TEE_AllocateOperation+0x9a>
/mnt/disk/raspbian-tee/optee_os/lib/libutee/tee_api_operations.c:55
    1a84:	f5a9 7300 	sub.w	r3, r9, #512	; 0x200
    1a88:	f5b3 7f00 	cmp.w	r3, #512	; 0x200
    1a8c:	d8ee      	bhi.n	1a6c <TEE_AllocateOperation+0xbe>
/mnt/disk/raspbian-tee/optee_os/lib/libutee/tee_api_operations.c:59
    1a8e:	f019 0f3f 	tst.w	r9, #63	; 0x3f
    1a92:	d1eb      	bne.n	1a6c <TEE_AllocateOperation+0xbe>
/mnt/disk/raspbian-tee/optee_os/lib/libutee/tee_api_operations.c:157
    1a94:	2f02      	cmp	r7, #2
    1a96:	f000 81bd 	beq.w	1e14 <TEE_AllocateOperation+0x466>
/mnt/disk/raspbian-tee/optee_os/lib/libutee/tee_api_operations.c:160
    1a9a:	2f03      	cmp	r7, #3
    1a9c:	d1e6      	bne.n	1a6c <TEE_AllocateOperation+0xbe>
/mnt/disk/raspbian-tee/optee_os/lib/libutee/tee_api_operations.c:44
    1a9e:	2600      	movs	r6, #0
/mnt/disk/raspbian-tee/optee_os/lib/libutee/tee_api_operations.c:161
    1aa0:	2220      	movs	r2, #32
/mnt/disk/raspbian-tee/optee_os/lib/libutee/tee_api_operations.c:43
    1aa2:	46b2      	mov	sl, r6
    1aa4:	e02d      	b.n	1b02 <TEE_AllocateOperation+0x154>
/mnt/disk/raspbian-tee/optee_os/lib/libutee/tee_api_operations.c:64
    1aa6:	f5b9 6f00 	cmp.w	r9, #2048	; 0x800
/mnt/disk/raspbian-tee/optee_os/lib/libutee/tee_api_operations.c:108
    1aaa:	d1df      	bne.n	1a6c <TEE_AllocateOperation+0xbe>
    1aac:	e7f2      	b.n	1a94 <TEE_AllocateOperation+0xe6>
/mnt/disk/raspbian-tee/optee_os/lib/libutee/tee_api_operations.c:69
    1aae:	f429 6380 	bic.w	r3, r9, #1024	; 0x400
    1ab2:	f5b3 6f00 	cmp.w	r3, #2048	; 0x800
    1ab6:	e7f8      	b.n	1aaa <TEE_AllocateOperation+0xfc>
/mnt/disk/raspbian-tee/optee_os/lib/libutee/tee_api_operations.c:81
    1ab8:	f1b9 0fe0 	cmp.w	r9, #224	; 0xe0
    1abc:	e7d5      	b.n	1a6a <TEE_AllocateOperation+0xbc>
/mnt/disk/raspbian-tee/optee_os/lib/libutee/tee_api_operations.c:93
    1abe:	f5b9 7fc0 	cmp.w	r9, #384	; 0x180
    1ac2:	e7d2      	b.n	1a6a <TEE_AllocateOperation+0xbc>
/mnt/disk/raspbian-tee/optee_os/lib/libutee/tee_api_operations.c:99
    1ac4:	f240 2209 	movw	r2, #521	; 0x209
    1ac8:	4591      	cmp	r9, r2
    1aca:	e7ce      	b.n	1a6a <TEE_AllocateOperation+0xbc>
/mnt/disk/raspbian-tee/optee_os/lib/libutee/tee_api_operations.c:108
    1acc:	4b83      	ldr	r3, [pc, #524]	; (1cdc <TEE_AllocateOperation+0x32e>)
    1ace:	429c      	cmp	r4, r3
    1ad0:	d0ad      	beq.n	1a2e <TEE_AllocateOperation+0x80>
    1ad2:	33fd      	adds	r3, #253	; 0xfd
    1ad4:	429c      	cmp	r4, r3
    1ad6:	d1c9      	bne.n	1a6c <TEE_AllocateOperation+0xbe>
    1ad8:	f04f 0800 	mov.w	r8, #0
/mnt/disk/raspbian-tee/optee_os/lib/libutee/tee_api_operations.c:41
    1adc:	2301      	movs	r3, #1
/mnt/disk/raspbian-tee/optee_os/lib/libutee/tee_api_operations.c:44
    1ade:	4646      	mov	r6, r8
    1ae0:	e132      	b.n	1d48 <TEE_AllocateOperation+0x39a>
/mnt/disk/raspbian-tee/optee_os/lib/libutee/tee_api_operations.c:108
    1ae2:	4b7f      	ldr	r3, [pc, #508]	; (1ce0 <TEE_AllocateOperation+0x332>)
    1ae4:	429c      	cmp	r4, r3
    1ae6:	d80f      	bhi.n	1b08 <TEE_AllocateOperation+0x15a>
    1ae8:	3b01      	subs	r3, #1
    1aea:	429c      	cmp	r4, r3
    1aec:	d204      	bcs.n	1af8 <TEE_AllocateOperation+0x14a>
    1aee:	f104 4350 	add.w	r3, r4, #3489660928	; 0xd0000000
    1af2:	3b01      	subs	r3, #1
    1af4:	2b05      	cmp	r3, #5
    1af6:	d8b9      	bhi.n	1a6c <TEE_AllocateOperation+0xbe>
/mnt/disk/raspbian-tee/optee_os/lib/libutee/tee_api_operations.c:244
    1af8:	2f04      	cmp	r7, #4
    1afa:	d1b7      	bne.n	1a6c <TEE_AllocateOperation+0xbe>
/mnt/disk/raspbian-tee/optee_os/lib/libutee/tee_api_operations.c:44
    1afc:	2600      	movs	r6, #0
/mnt/disk/raspbian-tee/optee_os/lib/libutee/tee_api_operations.c:246
    1afe:	2208      	movs	r2, #8
/mnt/disk/raspbian-tee/optee_os/lib/libutee/tee_api_operations.c:43
    1b00:	46b2      	mov	sl, r6
/mnt/disk/raspbian-tee/optee_os/lib/libutee/tee_api_operations.c:41
    1b02:	2301      	movs	r3, #1
    1b04:	46b0      	mov	r8, r6
    1b06:	e13e      	b.n	1d86 <TEE_AllocateOperation+0x3d8>
/mnt/disk/raspbian-tee/optee_os/lib/libutee/tee_api_operations.c:108
    1b08:	4b76      	ldr	r3, [pc, #472]	; (1ce4 <TEE_AllocateOperation+0x336>)
    1b0a:	429c      	cmp	r4, r3
    1b0c:	d0f4      	beq.n	1af8 <TEE_AllocateOperation+0x14a>
    1b0e:	d3ad      	bcc.n	1a6c <TEE_AllocateOperation+0xbe>
    1b10:	f104 4350 	add.w	r3, r4, #3489660928	; 0xd0000000
    1b14:	f5a3 63a2 	sub.w	r3, r3, #1296	; 0x510
    1b18:	2b01      	cmp	r3, #1
    1b1a:	e7ec      	b.n	1af6 <TEE_AllocateOperation+0x148>
    1b1c:	4b72      	ldr	r3, [pc, #456]	; (1ce8 <TEE_AllocateOperation+0x33a>)
    1b1e:	429c      	cmp	r4, r3
    1b20:	d01b      	beq.n	1b5a <TEE_AllocateOperation+0x1ac>
    1b22:	d823      	bhi.n	1b6c <TEE_AllocateOperation+0x1be>
    1b24:	4b71      	ldr	r3, [pc, #452]	; (1cec <TEE_AllocateOperation+0x33e>)
    1b26:	429c      	cmp	r4, r3
    1b28:	d80f      	bhi.n	1b4a <TEE_AllocateOperation+0x19c>
    1b2a:	f1b4 4fa0 	cmp.w	r4, #1342177280	; 0x50000000
    1b2e:	f200 8121 	bhi.w	1d74 <TEE_AllocateOperation+0x3c6>
    1b32:	4b6f      	ldr	r3, [pc, #444]	; (1cf0 <TEE_AllocateOperation+0x342>)
    1b34:	429c      	cmp	r4, r3
    1b36:	f43f af7a 	beq.w	1a2e <TEE_AllocateOperation+0x80>
    1b3a:	f503 7380 	add.w	r3, r3, #256	; 0x100
    1b3e:	429c      	cmp	r4, r3
    1b40:	d0ca      	beq.n	1ad8 <TEE_AllocateOperation+0x12a>
    1b42:	4b6c      	ldr	r3, [pc, #432]	; (1cf4 <TEE_AllocateOperation+0x346>)
    1b44:	429c      	cmp	r4, r3
    1b46:	d191      	bne.n	1a6c <TEE_AllocateOperation+0xbe>
    1b48:	e7d6      	b.n	1af8 <TEE_AllocateOperation+0x14a>
    1b4a:	4b6b      	ldr	r3, [pc, #428]	; (1cf8 <TEE_AllocateOperation+0x34a>)
    1b4c:	429c      	cmp	r4, r3
    1b4e:	f000 8107 	beq.w	1d60 <TEE_AllocateOperation+0x3b2>
    1b52:	f503 7380 	add.w	r3, r3, #256	; 0x100
    1b56:	429c      	cmp	r4, r3
    1b58:	d188      	bne.n	1a6c <TEE_AllocateOperation+0xbe>
/mnt/disk/raspbian-tee/optee_os/lib/libutee/tee_api_operations.c:173
    1b5a:	2f00      	cmp	r7, #0
    1b5c:	f000 815f 	beq.w	1e1e <TEE_AllocateOperation+0x470>
/mnt/disk/raspbian-tee/optee_os/lib/libutee/tee_api_operations.c:175
    1b60:	2f01      	cmp	r7, #1
    1b62:	d183      	bne.n	1a6c <TEE_AllocateOperation+0xbe>
/mnt/disk/raspbian-tee/optee_os/lib/libutee/tee_api_operations.c:44
    1b64:	2600      	movs	r6, #0
/mnt/disk/raspbian-tee/optee_os/lib/libutee/tee_api_operations.c:176
    1b66:	46ba      	mov	sl, r7
/mnt/disk/raspbian-tee/optee_os/lib/libutee/tee_api_operations.c:177
    1b68:	2204      	movs	r2, #4
    1b6a:	e7ca      	b.n	1b02 <TEE_AllocateOperation+0x154>
/mnt/disk/raspbian-tee/optee_os/lib/libutee/tee_api_operations.c:108
    1b6c:	4b63      	ldr	r3, [pc, #396]	; (1cfc <TEE_AllocateOperation+0x34e>)
    1b6e:	429c      	cmp	r4, r3
    1b70:	d0f3      	beq.n	1b5a <TEE_AllocateOperation+0x1ac>
    1b72:	d80a      	bhi.n	1b8a <TEE_AllocateOperation+0x1dc>
    1b74:	f5a3 1300 	sub.w	r3, r3, #2097152	; 0x200000
    1b78:	429c      	cmp	r4, r3
    1b7a:	d0ee      	beq.n	1b5a <TEE_AllocateOperation+0x1ac>
    1b7c:	f503 1380 	add.w	r3, r3, #1048576	; 0x100000
    1b80:	429c      	cmp	r4, r3
    1b82:	d0ea      	beq.n	1b5a <TEE_AllocateOperation+0x1ac>
    1b84:	f5a3 1300 	sub.w	r3, r3, #2097152	; 0x200000
    1b88:	e7e5      	b.n	1b56 <TEE_AllocateOperation+0x1a8>
    1b8a:	4b5d      	ldr	r3, [pc, #372]	; (1d00 <TEE_AllocateOperation+0x352>)
    1b8c:	429c      	cmp	r4, r3
    1b8e:	d081      	beq.n	1a94 <TEE_AllocateOperation+0xe6>
    1b90:	d802      	bhi.n	1b98 <TEE_AllocateOperation+0x1ea>
    1b92:	f2a3 73ef 	subw	r3, r3, #2031	; 0x7ef
    1b96:	e004      	b.n	1ba2 <TEE_AllocateOperation+0x1f4>
    1b98:	4b5a      	ldr	r3, [pc, #360]	; (1d04 <TEE_AllocateOperation+0x356>)
    1b9a:	429c      	cmp	r4, r3
    1b9c:	f43f af7a 	beq.w	1a94 <TEE_AllocateOperation+0xe6>
    1ba0:	33f0      	adds	r3, #240	; 0xf0
    1ba2:	429c      	cmp	r4, r3
    1ba4:	e781      	b.n	1aaa <TEE_AllocateOperation+0xfc>
    1ba6:	4a4a      	ldr	r2, [pc, #296]	; (1cd0 <TEE_AllocateOperation+0x322>)
    1ba8:	4294      	cmp	r4, r2
    1baa:	d064      	beq.n	1c76 <TEE_AllocateOperation+0x2c8>
    1bac:	d843      	bhi.n	1c36 <TEE_AllocateOperation+0x288>
    1bae:	4a56      	ldr	r2, [pc, #344]	; (1d08 <TEE_AllocateOperation+0x35a>)
    1bb0:	4294      	cmp	r4, r2
    1bb2:	f43f af6f 	beq.w	1a94 <TEE_AllocateOperation+0xe6>
    1bb6:	d818      	bhi.n	1bea <TEE_AllocateOperation+0x23c>
    1bb8:	f5a2 52bf 	sub.w	r2, r2, #6112	; 0x17e0
    1bbc:	3a0f      	subs	r2, #15
    1bbe:	4294      	cmp	r4, r2
    1bc0:	f43f af68 	beq.w	1a94 <TEE_AllocateOperation+0xe6>
    1bc4:	d808      	bhi.n	1bd8 <TEE_AllocateOperation+0x22a>
    1bc6:	4b3f      	ldr	r3, [pc, #252]	; (1cc4 <TEE_AllocateOperation+0x316>)
    1bc8:	429c      	cmp	r4, r3
    1bca:	f43f af63 	beq.w	1a94 <TEE_AllocateOperation+0xe6>
    1bce:	f203 63ff 	addw	r3, r3, #1791	; 0x6ff
    1bd2:	429c      	cmp	r4, r3
    1bd4:	d1dd      	bne.n	1b92 <TEE_AllocateOperation+0x1e4>
    1bd6:	e75d      	b.n	1a94 <TEE_AllocateOperation+0xe6>
    1bd8:	4a4c      	ldr	r2, [pc, #304]	; (1d0c <TEE_AllocateOperation+0x35e>)
    1bda:	4294      	cmp	r4, r2
    1bdc:	f43f af5a 	beq.w	1a94 <TEE_AllocateOperation+0xe6>
    1be0:	f602 0211 	addw	r2, r2, #2065	; 0x811
    1be4:	4294      	cmp	r4, r2
    1be6:	d1dc      	bne.n	1ba2 <TEE_AllocateOperation+0x1f4>
    1be8:	e754      	b.n	1a94 <TEE_AllocateOperation+0xe6>
    1bea:	4b49      	ldr	r3, [pc, #292]	; (1d10 <TEE_AllocateOperation+0x362>)
    1bec:	429c      	cmp	r4, r3
    1bee:	f43f af51 	beq.w	1a94 <TEE_AllocateOperation+0xe6>
    1bf2:	d812      	bhi.n	1c1a <TEE_AllocateOperation+0x26c>
    1bf4:	f5a3 1300 	sub.w	r3, r3, #2097152	; 0x200000
    1bf8:	f5a3 5300 	sub.w	r3, r3, #8192	; 0x2000
    1bfc:	429c      	cmp	r4, r3
    1bfe:	f43f af49 	beq.w	1a94 <TEE_AllocateOperation+0xe6>
    1c02:	f503 1380 	add.w	r3, r3, #1048576	; 0x100000
    1c06:	f503 5380 	add.w	r3, r3, #4096	; 0x1000
    1c0a:	429c      	cmp	r4, r3
    1c0c:	f43f af42 	beq.w	1a94 <TEE_AllocateOperation+0xe6>
    1c10:	f5a3 1343 	sub.w	r3, r3, #3194880	; 0x30c000
    1c14:	f5a3 5388 	sub.w	r3, r3, #4352	; 0x1100
    1c18:	e7c3      	b.n	1ba2 <TEE_AllocateOperation+0x1f4>
    1c1a:	4b3e      	ldr	r3, [pc, #248]	; (1d14 <TEE_AllocateOperation+0x366>)
    1c1c:	429c      	cmp	r4, r3
    1c1e:	f43f af39 	beq.w	1a94 <TEE_AllocateOperation+0xe6>
    1c22:	4b3d      	ldr	r3, [pc, #244]	; (1d18 <TEE_AllocateOperation+0x36a>)
    1c24:	429c      	cmp	r4, r3
    1c26:	d026      	beq.n	1c76 <TEE_AllocateOperation+0x2c8>
    1c28:	f1a3 637a 	sub.w	r3, r3, #262144000	; 0xfa00000
    1c2c:	f5a3 236a 	sub.w	r3, r3, #958464	; 0xea000
    1c30:	f2a3 7302 	subw	r3, r3, #1794	; 0x702
    1c34:	e7b5      	b.n	1ba2 <TEE_AllocateOperation+0x1f4>
    1c36:	4b28      	ldr	r3, [pc, #160]	; (1cd8 <TEE_AllocateOperation+0x32a>)
    1c38:	429c      	cmp	r4, r3
    1c3a:	d01c      	beq.n	1c76 <TEE_AllocateOperation+0x2c8>
    1c3c:	d824      	bhi.n	1c88 <TEE_AllocateOperation+0x2da>
    1c3e:	f5a3 53fc 	sub.w	r3, r3, #8064	; 0x1f80
    1c42:	429c      	cmp	r4, r3
    1c44:	d80b      	bhi.n	1c5e <TEE_AllocateOperation+0x2b0>
    1c46:	3b02      	subs	r3, #2
    1c48:	429c      	cmp	r4, r3
    1c4a:	d214      	bcs.n	1c76 <TEE_AllocateOperation+0x2c8>
    1c4c:	f5a3 5380 	sub.w	r3, r3, #4096	; 0x1000
    1c50:	429c      	cmp	r4, r3
    1c52:	d010      	beq.n	1c76 <TEE_AllocateOperation+0x2c8>
    1c54:	f603 7382 	addw	r3, r3, #3970	; 0xf82
    1c58:	429c      	cmp	r4, r3
    1c5a:	d00c      	beq.n	1c76 <TEE_AllocateOperation+0x2c8>
    1c5c:	e706      	b.n	1a6c <TEE_AllocateOperation+0xbe>
    1c5e:	4b2f      	ldr	r3, [pc, #188]	; (1d1c <TEE_AllocateOperation+0x36e>)
    1c60:	429c      	cmp	r4, r3
    1c62:	d008      	beq.n	1c76 <TEE_AllocateOperation+0x2c8>
    1c64:	f4ff af02 	bcc.w	1a6c <TEE_AllocateOperation+0xbe>
    1c68:	f104 4300 	add.w	r3, r4, #2147483648	; 0x80000000
    1c6c:	f5a3 5343 	sub.w	r3, r3, #12480	; 0x30c0
    1c70:	2b01      	cmp	r3, #1
    1c72:	f63f aefb 	bhi.w	1a6c <TEE_AllocateOperation+0xbe>
/mnt/disk/raspbian-tee/optee_os/lib/libutee/tee_api_operations.c:212
    1c76:	2f06      	cmp	r7, #6
    1c78:	f47f aef8 	bne.w	1a6c <TEE_AllocateOperation+0xbe>
/mnt/disk/raspbian-tee/optee_os/lib/libutee/tee_api_operations.c:44
    1c7c:	2600      	movs	r6, #0
/mnt/disk/raspbian-tee/optee_os/lib/libutee/tee_api_operations.c:214
    1c7e:	f04f 0a01 	mov.w	sl, #1
/mnt/disk/raspbian-tee/optee_os/lib/libutee/tee_api_operations.c:215
    1c82:	2240      	movs	r2, #64	; 0x40
/mnt/disk/raspbian-tee/optee_os/lib/libutee/tee_api_operations.c:41
    1c84:	4653      	mov	r3, sl
    1c86:	e73d      	b.n	1b04 <TEE_AllocateOperation+0x156>
/mnt/disk/raspbian-tee/optee_os/lib/libutee/tee_api_operations.c:108
    1c88:	4b25      	ldr	r3, [pc, #148]	; (1d20 <TEE_AllocateOperation+0x372>)
    1c8a:	429c      	cmp	r4, r3
    1c8c:	d84a      	bhi.n	1d24 <TEE_AllocateOperation+0x376>
    1c8e:	3b01      	subs	r3, #1
    1c90:	429c      	cmp	r4, r3
    1c92:	d2f0      	bcs.n	1c76 <TEE_AllocateOperation+0x2c8>
    1c94:	f5a3 5380 	sub.w	r3, r3, #4096	; 0x1000
    1c98:	429c      	cmp	r4, r3
    1c9a:	f4ff aee7 	bcc.w	1a6c <TEE_AllocateOperation+0xbe>
    1c9e:	3301      	adds	r3, #1
    1ca0:	429c      	cmp	r4, r3
    1ca2:	d9e8      	bls.n	1c76 <TEE_AllocateOperation+0x2c8>
    1ca4:	f603 7381 	addw	r3, r3, #3969	; 0xf81
    1ca8:	e7d6      	b.n	1c58 <TEE_AllocateOperation+0x2aa>
    1caa:	bf00      	nop
    1cac:	10000410 	.word	0x10000410
    1cb0:	70004131 	.word	0x70004131
    1cb4:	70002131 	.word	0x70002131
    1cb8:	70002830 	.word	0x70002830
    1cbc:	30000513 	.word	0x30000513
    1cc0:	10000310 	.word	0x10000310
    1cc4:	70003131 	.word	0x70003131
    1cc8:	80002042 	.word	0x80002042
    1ccc:	70005041 	.word	0x70005041
    1cd0:	80001042 	.word	0x80001042
    1cd4:	ffff000a 	.word	0xffff000a
    1cd8:	80004042 	.word	0x80004042
    1cdc:	10000113 	.word	0x10000113
    1ce0:	30000111 	.word	0x30000111
    1ce4:	30000113 	.word	0x30000113
    1ce8:	60210230 	.word	0x60210230
    1cec:	50000006 	.word	0x50000006
    1cf0:	40000710 	.word	0x40000710
    1cf4:	30000610 	.word	0x30000610
    1cf8:	60000030 	.word	0x60000030
    1cfc:	60610230 	.word	0x60610230
    1d00:	70001830 	.word	0x70001830
    1d04:	70002041 	.word	0x70002041
    1d08:	70005830 	.word	0x70005830
    1d0c:	70004830 	.word	0x70004830
    1d10:	70414930 	.word	0x70414930
    1d14:	70616930 	.word	0x70616930
    1d18:	80000032 	.word	0x80000032
    1d1c:	80003042 	.word	0x80003042
    1d20:	800050c1 	.word	0x800050c1
    1d24:	4b6f      	ldr	r3, [pc, #444]	; (1ee4 <TEE_AllocateOperation+0x536>)
    1d26:	429c      	cmp	r4, r3
    1d28:	f4ff aea0 	bcc.w	1a6c <TEE_AllocateOperation+0xbe>
    1d2c:	3301      	adds	r3, #1
    1d2e:	429c      	cmp	r4, r3
    1d30:	d9a1      	bls.n	1c76 <TEE_AllocateOperation+0x2c8>
    1d32:	4b6d      	ldr	r3, [pc, #436]	; (1ee8 <TEE_AllocateOperation+0x53a>)
    1d34:	e735      	b.n	1ba2 <TEE_AllocateOperation+0x1f4>
/mnt/disk/raspbian-tee/optee_os/lib/libutee/tee_api_operations.c:50
    1d36:	f44f 2800 	mov.w	r8, #524288	; 0x80000
/mnt/disk/raspbian-tee/optee_os/lib/libutee/tee_api_operations.c:111
    1d3a:	2601      	movs	r6, #1
/mnt/disk/raspbian-tee/optee_os/lib/libutee/tee_api_operations.c:120
    1d3c:	b2e3      	uxtb	r3, r4
/mnt/disk/raspbian-tee/optee_os/lib/libutee/tee_api_operations.c:123
    1d3e:	2b10      	cmp	r3, #16
    1d40:	f04f 0310 	mov.w	r3, #16
    1d44:	bf18      	it	ne
    1d46:	2308      	movne	r3, #8
/mnt/disk/raspbian-tee/optee_os/lib/libutee/tee_api_operations.c:127
    1d48:	2f00      	cmp	r7, #0
    1d4a:	d060      	beq.n	1e0e <TEE_AllocateOperation+0x460>
/mnt/disk/raspbian-tee/optee_os/lib/libutee/tee_api_operations.c:129
    1d4c:	2f01      	cmp	r7, #1
    1d4e:	f47f ae8d 	bne.w	1a6c <TEE_AllocateOperation+0xbe>
/mnt/disk/raspbian-tee/optee_os/lib/libutee/tee_api_operations.c:43
    1d52:	f04f 0a00 	mov.w	sl, #0
/mnt/disk/raspbian-tee/optee_os/lib/libutee/tee_api_operations.c:130
    1d56:	2204      	movs	r2, #4
    1d58:	e015      	b.n	1d86 <TEE_AllocateOperation+0x3d8>
/mnt/disk/raspbian-tee/optee_os/lib/libutee/tee_api_operations.c:108
    1d5a:	f04f 0800 	mov.w	r8, #0
    1d5e:	e7ec      	b.n	1d3a <TEE_AllocateOperation+0x38c>
/mnt/disk/raspbian-tee/optee_os/lib/libutee/tee_api_operations.c:184
    1d60:	2f00      	cmp	r7, #0
    1d62:	d062      	beq.n	1e2a <TEE_AllocateOperation+0x47c>
/mnt/disk/raspbian-tee/optee_os/lib/libutee/tee_api_operations.c:186
    1d64:	2f01      	cmp	r7, #1
    1d66:	f47f ae81 	bne.w	1a6c <TEE_AllocateOperation+0xbe>
/mnt/disk/raspbian-tee/optee_os/lib/libutee/tee_api_operations.c:44
    1d6a:	2600      	movs	r6, #0
/mnt/disk/raspbian-tee/optee_os/lib/libutee/tee_api_operations.c:187
    1d6c:	f04f 0a01 	mov.w	sl, #1
/mnt/disk/raspbian-tee/optee_os/lib/libutee/tee_api_operations.c:188
    1d70:	2214      	movs	r2, #20
    1d72:	e787      	b.n	1c84 <TEE_AllocateOperation+0x2d6>
/mnt/disk/raspbian-tee/optee_os/lib/libutee/tee_api_operations.c:224
    1d74:	2f05      	cmp	r7, #5
    1d76:	f47f ae79 	bne.w	1a6c <TEE_AllocateOperation+0xbe>
/mnt/disk/raspbian-tee/optee_os/lib/libutee/tee_api_operations.c:44
    1d7a:	2600      	movs	r6, #0
/mnt/disk/raspbian-tee/optee_os/lib/libutee/tee_api_operations.c:41
    1d7c:	2301      	movs	r3, #1
/mnt/disk/raspbian-tee/optee_os/lib/libutee/tee_api_operations.c:43
    1d7e:	46b2      	mov	sl, r6
/mnt/disk/raspbian-tee/optee_os/lib/libutee/tee_api_operations.c:228
    1d80:	4632      	mov	r2, r6
/mnt/disk/raspbian-tee/optee_os/lib/libutee/tee_api_operations.c:227
    1d82:	f44f 2880 	mov.w	r8, #262144	; 0x40000
/mnt/disk/raspbian-tee/optee_os/lib/libutee/tee_api_operations.c:253
    1d86:	2100      	movs	r1, #0
    1d88:	2044      	movs	r0, #68	; 0x44
    1d8a:	9205      	str	r2, [sp, #20]
    1d8c:	9304      	str	r3, [sp, #16]
    1d8e:	f7ff f952 	bl	1036 <TEE_Malloc>
/mnt/disk/raspbian-tee/optee_os/lib/libutee/tee_api_operations.c:254
    1d92:	4605      	mov	r5, r0
    1d94:	2800      	cmp	r0, #0
    1d96:	f000 80a0 	beq.w	1eda <TEE_AllocateOperation+0x52c>
/mnt/disk/raspbian-tee/optee_os/lib/libutee/tee_api_operations.c:260
    1d9a:	4953      	ldr	r1, [pc, #332]	; (1ee8 <TEE_AllocateOperation+0x53a>)
/mnt/disk/raspbian-tee/optee_os/lib/libutee/tee_api_operations.c:258
    1d9c:	ea4f 7b14 	mov.w	fp, r4, lsr #28
/mnt/disk/raspbian-tee/optee_os/lib/libutee/tee_api_operations.c:257
    1da0:	6004      	str	r4, [r0, #0]
/mnt/disk/raspbian-tee/optee_os/lib/libutee/tee_api_operations.c:260
    1da2:	428c      	cmp	r4, r1
    1da4:	9b04      	ldr	r3, [sp, #16]
    1da6:	9a05      	ldr	r2, [sp, #20]
    1da8:	d044      	beq.n	1e34 <TEE_AllocateOperation+0x486>
/mnt/disk/raspbian-tee/optee_os/lib/libutee/tee_api_operations.c:258
    1daa:	f8c0 b004 	str.w	fp, [r0, #4]
/mnt/disk/raspbian-tee/optee_os/lib/libutee/tee_api_operations.c:263
    1dae:	60af      	str	r7, [r5, #8]
/mnt/disk/raspbian-tee/optee_os/lib/libutee/tee_api_operations.c:268
    1db0:	2b01      	cmp	r3, #1
/mnt/disk/raspbian-tee/optee_os/lib/libutee/tee_api_operations.c:264
    1db2:	f8c5 9010 	str.w	r9, [r5, #16]
/mnt/disk/raspbian-tee/optee_os/lib/libutee/tee_api_operations.c:265
    1db6:	61aa      	str	r2, [r5, #24]
/mnt/disk/raspbian-tee/optee_os/lib/libutee/tee_api_operations.c:266
    1db8:	f8c5 801c 	str.w	r8, [r5, #28]
/mnt/disk/raspbian-tee/optee_os/lib/libutee/tee_api_operations.c:268
    1dbc:	d13d      	bne.n	1e3a <TEE_AllocateOperation+0x48c>
/mnt/disk/raspbian-tee/optee_os/lib/libutee/tee_api_operations.c:281
    1dbe:	636b      	str	r3, [r5, #52]	; 0x34
/mnt/disk/raspbian-tee/optee_os/lib/libutee/tee_api_operations.c:284
    1dc0:	f1bb 0f05 	cmp.w	fp, #5
/mnt/disk/raspbian-tee/optee_os/lib/libutee/tee_api_operations.c:282
    1dc4:	f885 6030 	strb.w	r6, [r5, #48]	; 0x30
/mnt/disk/raspbian-tee/optee_os/lib/libutee/tee_api_operations.c:284
    1dc8:	d146      	bne.n	1e58 <TEE_AllocateOperation+0x4aa>
/mnt/disk/raspbian-tee/optee_os/lib/libutee/tee_api_operations.c:308
    1dca:	f105 033c 	add.w	r3, r5, #60	; 0x3c
    1dce:	9300      	str	r3, [sp, #0]
    1dd0:	4639      	mov	r1, r7
    1dd2:	4620      	mov	r0, r4
    1dd4:	6a2a      	ldr	r2, [r5, #32]
    1dd6:	6a6b      	ldr	r3, [r5, #36]	; 0x24
    1dd8:	f001 e9ba 	blx	3150 <utee_cryp_state_alloc>
/mnt/disk/raspbian-tee/optee_os/lib/libutee/tee_api_operations.c:310
    1ddc:	4602      	mov	r2, r0
    1dde:	2800      	cmp	r0, #0
    1de0:	d17d      	bne.n	1ede <TEE_AllocateOperation+0x530>
/mnt/disk/raspbian-tee/optee_os/lib/libutee/tee_api_operations.c:318
    1de2:	f1bb 0f05 	cmp.w	fp, #5
    1de6:	d10a      	bne.n	1dfe <TEE_AllocateOperation+0x450>
/mnt/disk/raspbian-tee/optee_os/lib/libutee/tee_api_operations.c:319
    1de8:	4601      	mov	r1, r0
    1dea:	6be8      	ldr	r0, [r5, #60]	; 0x3c
    1dec:	f001 e9d0 	blx	3190 <utee_hash_init>
/mnt/disk/raspbian-tee/optee_os/lib/libutee/tee_api_operations.c:320
    1df0:	4606      	mov	r6, r0
    1df2:	2800      	cmp	r0, #0
    1df4:	d155      	bne.n	1ea2 <TEE_AllocateOperation+0x4f4>
/mnt/disk/raspbian-tee/optee_os/lib/libutee/tee_api_operations.c:323
    1df6:	69eb      	ldr	r3, [r5, #28]
    1df8:	f443 3300 	orr.w	r3, r3, #131072	; 0x20000
    1dfc:	61eb      	str	r3, [r5, #28]
/mnt/disk/raspbian-tee/optee_os/lib/libutee/tee_api_operations.c:328
    1dfe:	9b03      	ldr	r3, [sp, #12]
/mnt/disk/raspbian-tee/optee_os/lib/libutee/tee_api_operations.c:326
    1e00:	2600      	movs	r6, #0
    1e02:	62ae      	str	r6, [r5, #40]	; 0x28
/mnt/disk/raspbian-tee/optee_os/lib/libutee/tee_api_operations.c:328
    1e04:	601d      	str	r5, [r3, #0]
/mnt/disk/raspbian-tee/optee_os/lib/libutee/tee_api_operations.c:348
    1e06:	4630      	mov	r0, r6
    1e08:	b007      	add	sp, #28
    1e0a:	e8bd 8ff0 	ldmia.w	sp!, {r4, r5, r6, r7, r8, r9, sl, fp, pc}
/mnt/disk/raspbian-tee/optee_os/lib/libutee/tee_api_operations.c:43
    1e0e:	46ba      	mov	sl, r7
/mnt/disk/raspbian-tee/optee_os/lib/libutee/tee_api_operations.c:128
    1e10:	2202      	movs	r2, #2
    1e12:	e7b8      	b.n	1d86 <TEE_AllocateOperation+0x3d8>
/mnt/disk/raspbian-tee/optee_os/lib/libutee/tee_api_operations.c:44
    1e14:	2600      	movs	r6, #0
/mnt/disk/raspbian-tee/optee_os/lib/libutee/tee_api_operations.c:158
    1e16:	f04f 0a01 	mov.w	sl, #1
/mnt/disk/raspbian-tee/optee_os/lib/libutee/tee_api_operations.c:159
    1e1a:	2210      	movs	r2, #16
    1e1c:	e732      	b.n	1c84 <TEE_AllocateOperation+0x2d6>
    1e1e:	46b8      	mov	r8, r7
/mnt/disk/raspbian-tee/optee_os/lib/libutee/tee_api_operations.c:44
    1e20:	463e      	mov	r6, r7
/mnt/disk/raspbian-tee/optee_os/lib/libutee/tee_api_operations.c:43
    1e22:	46ba      	mov	sl, r7
/mnt/disk/raspbian-tee/optee_os/lib/libutee/tee_api_operations.c:174
    1e24:	2202      	movs	r2, #2
/mnt/disk/raspbian-tee/optee_os/lib/libutee/tee_api_operations.c:41
    1e26:	2301      	movs	r3, #1
    1e28:	e7ad      	b.n	1d86 <TEE_AllocateOperation+0x3d8>
    1e2a:	46b8      	mov	r8, r7
/mnt/disk/raspbian-tee/optee_os/lib/libutee/tee_api_operations.c:44
    1e2c:	463e      	mov	r6, r7
/mnt/disk/raspbian-tee/optee_os/lib/libutee/tee_api_operations.c:43
    1e2e:	46ba      	mov	sl, r7
/mnt/disk/raspbian-tee/optee_os/lib/libutee/tee_api_operations.c:185
    1e30:	2222      	movs	r2, #34	; 0x22
    1e32:	e7f8      	b.n	1e26 <TEE_AllocateOperation+0x478>
/mnt/disk/raspbian-tee/optee_os/lib/libutee/tee_api_operations.c:261
    1e34:	2107      	movs	r1, #7
    1e36:	6041      	str	r1, [r0, #4]
    1e38:	e7b9      	b.n	1dae <TEE_AllocateOperation+0x400>
/mnt/disk/raspbian-tee/optee_os/lib/libutee/tee_api_operations.c:271
    1e3a:	b15e      	cbz	r6, 1e54 <TEE_AllocateOperation+0x4a6>
/mnt/disk/raspbian-tee/optee_os/lib/libutee/tee_api_operations.c:272
    1e3c:	0058      	lsls	r0, r3, #1
/mnt/disk/raspbian-tee/optee_os/lib/libutee/tee_api_operations.c:274
    1e3e:	f04f 4100 	mov.w	r1, #2147483648	; 0x80000000
    1e42:	9304      	str	r3, [sp, #16]
    1e44:	f7ff f8f7 	bl	1036 <TEE_Malloc>
/mnt/disk/raspbian-tee/optee_os/lib/libutee/tee_api_operations.c:276
    1e48:	9b04      	ldr	r3, [sp, #16]
/mnt/disk/raspbian-tee/optee_os/lib/libutee/tee_api_operations.c:274
    1e4a:	62e8      	str	r0, [r5, #44]	; 0x2c
/mnt/disk/raspbian-tee/optee_os/lib/libutee/tee_api_operations.c:276
    1e4c:	2800      	cmp	r0, #0
    1e4e:	d1b6      	bne.n	1dbe <TEE_AllocateOperation+0x410>
/mnt/disk/raspbian-tee/optee_os/lib/libutee/tee_api_operations.c:277
    1e50:	4e26      	ldr	r6, [pc, #152]	; (1eec <TEE_AllocateOperation+0x53e>)
    1e52:	e02f      	b.n	1eb4 <TEE_AllocateOperation+0x506>
    1e54:	4618      	mov	r0, r3
    1e56:	e7f2      	b.n	1e3e <TEE_AllocateOperation+0x490>
/mnt/disk/raspbian-tee/optee_os/lib/libutee/tee_api_operations.c:286
    1e58:	f1ba 0f00 	cmp.w	sl, #0
    1e5c:	f04f 4220 	mov.w	r2, #2684354560	; 0xa0000000
    1e60:	f04f 4321 	mov.w	r3, #2701131776	; 0xa1000000
    1e64:	fa5f f884 	uxtb.w	r8, r4
    1e68:	bf08      	it	eq
    1e6a:	4613      	moveq	r3, r2
    1e6c:	ea43 0808 	orr.w	r8, r3, r8
/mnt/disk/raspbian-tee/optee_os/lib/libutee/tee_api_operations.c:293
    1e70:	69eb      	ldr	r3, [r5, #28]
    1e72:	031a      	lsls	r2, r3, #12
    1e74:	d501      	bpl.n	1e7a <TEE_AllocateOperation+0x4cc>
/mnt/disk/raspbian-tee/optee_os/lib/libutee/tee_api_operations.c:294
    1e76:	ea4f 0959 	mov.w	r9, r9, lsr #1
/mnt/disk/raspbian-tee/optee_os/lib/libutee/tee_api_operations.c:296
    1e7a:	f105 0220 	add.w	r2, r5, #32
    1e7e:	4649      	mov	r1, r9
    1e80:	4640      	mov	r0, r8
    1e82:	f7ff f9f7 	bl	1274 <TEE_AllocateTransientObject>
/mnt/disk/raspbian-tee/optee_os/lib/libutee/tee_api_operations.c:297
    1e86:	4606      	mov	r6, r0
    1e88:	b958      	cbnz	r0, 1ea2 <TEE_AllocateOperation+0x4f4>
/mnt/disk/raspbian-tee/optee_os/lib/libutee/tee_api_operations.c:300
    1e8a:	69eb      	ldr	r3, [r5, #28]
    1e8c:	031b      	lsls	r3, r3, #12
    1e8e:	d59c      	bpl.n	1dca <TEE_AllocateOperation+0x41c>
/mnt/disk/raspbian-tee/optee_os/lib/libutee/tee_api_operations.c:301
    1e90:	f105 0224 	add.w	r2, r5, #36	; 0x24
    1e94:	4649      	mov	r1, r9
    1e96:	4640      	mov	r0, r8
    1e98:	f7ff f9ec 	bl	1274 <TEE_AllocateTransientObject>
/mnt/disk/raspbian-tee/optee_os/lib/libutee/tee_api_operations.c:303
    1e9c:	4606      	mov	r6, r0
    1e9e:	2800      	cmp	r0, #0
    1ea0:	d093      	beq.n	1dca <TEE_AllocateOperation+0x41c>
/mnt/disk/raspbian-tee/optee_os/lib/libutee/tee_api_operations.c:332
    1ea2:	4b12      	ldr	r3, [pc, #72]	; (1eec <TEE_AllocateOperation+0x53e>)
    1ea4:	429e      	cmp	r6, r3
    1ea6:	d005      	beq.n	1eb4 <TEE_AllocateOperation+0x506>
/mnt/disk/raspbian-tee/optee_os/lib/libutee/tee_api_operations.c:332 (discriminator 1)
    1ea8:	4b11      	ldr	r3, [pc, #68]	; (1ef0 <TEE_AllocateOperation+0x542>)
    1eaa:	429e      	cmp	r6, r3
    1eac:	d002      	beq.n	1eb4 <TEE_AllocateOperation+0x506>
/mnt/disk/raspbian-tee/optee_os/lib/libutee/tee_api_operations.c:334
    1eae:	4630      	mov	r0, r6
    1eb0:	f005 fe8b 	bl	7bca <TEE_Panic>
/mnt/disk/raspbian-tee/optee_os/lib/libutee/tee_api_operations.c:336
    1eb4:	6beb      	ldr	r3, [r5, #60]	; 0x3c
    1eb6:	b11b      	cbz	r3, 1ec0 <TEE_AllocateOperation+0x512>
/mnt/disk/raspbian-tee/optee_os/lib/libutee/tee_api_operations.c:337
    1eb8:	4628      	mov	r0, r5
    1eba:	f7ff fd65 	bl	1988 <TEE_FreeOperation>
    1ebe:	e7a2      	b.n	1e06 <TEE_AllocateOperation+0x458>
/mnt/disk/raspbian-tee/optee_os/lib/libutee/tee_api_operations.c:339
    1ec0:	6ae8      	ldr	r0, [r5, #44]	; 0x2c
    1ec2:	f7ff f8df 	bl	1084 <TEE_Free>
/mnt/disk/raspbian-tee/optee_os/lib/libutee/tee_api_operations.c:340
    1ec6:	6a28      	ldr	r0, [r5, #32]
    1ec8:	f7ff f9ec 	bl	12a4 <TEE_FreeTransientObject>
/mnt/disk/raspbian-tee/optee_os/lib/libutee/tee_api_operations.c:341
    1ecc:	6a68      	ldr	r0, [r5, #36]	; 0x24
    1ece:	f7ff f9e9 	bl	12a4 <TEE_FreeTransientObject>
/mnt/disk/raspbian-tee/optee_os/lib/libutee/tee_api_operations.c:342
    1ed2:	4628      	mov	r0, r5
    1ed4:	f7ff f8d6 	bl	1084 <TEE_Free>
    1ed8:	e795      	b.n	1e06 <TEE_AllocateOperation+0x458>
/mnt/disk/raspbian-tee/optee_os/lib/libutee/tee_api_operations.c:255
    1eda:	4e04      	ldr	r6, [pc, #16]	; (1eec <TEE_AllocateOperation+0x53e>)
    1edc:	e793      	b.n	1e06 <TEE_AllocateOperation+0x458>
    1ede:	4606      	mov	r6, r0
    1ee0:	e7df      	b.n	1ea2 <TEE_AllocateOperation+0x4f4>
    1ee2:	bf00      	nop
    1ee4:	800060c0 	.word	0x800060c0
    1ee8:	f0000830 	.word	0xf0000830
    1eec:	ffff000c 	.word	0xffff000c
    1ef0:	ffff000a 	.word	0xffff000a

00001ef4 <TEE_GetOperationInfo>:
TEE_GetOperationInfo():
/mnt/disk/raspbian-tee/optee_os/lib/libutee/tee_api_operations.c:372
    1ef4:	b538      	push	{r3, r4, r5, lr}
    1ef6:	460c      	mov	r4, r1
/mnt/disk/raspbian-tee/optee_os/lib/libutee/tee_api_operations.c:373
    1ef8:	4605      	mov	r5, r0
    1efa:	b908      	cbnz	r0, 1f00 <TEE_GetOperationInfo+0xc>
/mnt/disk/raspbian-tee/optee_os/lib/libutee/tee_api_operations.c:374
    1efc:	f005 fe65 	bl	7bca <TEE_Panic>
/mnt/disk/raspbian-tee/optee_os/lib/libutee/tee_api_operations.c:376
    1f00:	b914      	cbnz	r4, 1f08 <TEE_GetOperationInfo+0x14>
/mnt/disk/raspbian-tee/optee_os/lib/libutee/tee_api_operations.c:377
    1f02:	4620      	mov	r0, r4
    1f04:	f005 fe61 	bl	7bca <TEE_Panic>
/mnt/disk/raspbian-tee/optee_os/lib/libutee/tee_api_operations.c:379
    1f08:	cd0f      	ldmia	r5!, {r0, r1, r2, r3}
    1f0a:	c40f      	stmia	r4!, {r0, r1, r2, r3}
    1f0c:	e895 000f 	ldmia.w	r5, {r0, r1, r2, r3}
    1f10:	e884 000f 	stmia.w	r4, {r0, r1, r2, r3}
    1f14:	bd38      	pop	{r3, r4, r5, pc}

00001f16 <TEE_GetOperationInfoMultiple>:
TEE_GetOperationInfoMultiple():
/mnt/disk/raspbian-tee/optee_os/lib/libutee/tee_api_operations.c:385
    1f16:	b5f0      	push	{r4, r5, r6, r7, lr}
    1f18:	460c      	mov	r4, r1
/mnt/disk/raspbian-tee/optee_os/lib/libutee/tee_api_operations.c:392
    1f1a:	4605      	mov	r5, r0
/mnt/disk/raspbian-tee/optee_os/lib/libutee/tee_api_operations.c:385
    1f1c:	b08f      	sub	sp, #60	; 0x3c
/mnt/disk/raspbian-tee/optee_os/lib/libutee/tee_api_operations.c:392
    1f1e:	2800      	cmp	r0, #0
    1f20:	d04a      	beq.n	1fb8 <TEE_GetOperationInfoMultiple+0xa2>
/mnt/disk/raspbian-tee/optee_os/lib/libutee/tee_api_operations.c:397
    1f22:	2900      	cmp	r1, #0
    1f24:	d048      	beq.n	1fb8 <TEE_GetOperationInfoMultiple+0xa2>
/mnt/disk/raspbian-tee/optee_os/lib/libutee/tee_api_operations.c:402
    1f26:	2a00      	cmp	r2, #0
    1f28:	d046      	beq.n	1fb8 <TEE_GetOperationInfoMultiple+0xa2>
/mnt/disk/raspbian-tee/optee_os/lib/libutee/tee_api_operations.c:407
    1f2a:	6817      	ldr	r7, [r2, #0]
    1f2c:	3f20      	subs	r7, #32
    1f2e:	08ff      	lsrs	r7, r7, #3
/mnt/disk/raspbian-tee/optee_os/lib/libutee/tee_api_operations.c:410
    1f30:	2f02      	cmp	r7, #2
    1f32:	d841      	bhi.n	1fb8 <TEE_GetOperationInfoMultiple+0xa2>
/mnt/disk/raspbian-tee/optee_os/lib/libutee/tee_api_operations.c:416
    1f34:	69c3      	ldr	r3, [r0, #28]
    1f36:	031b      	lsls	r3, r3, #12
    1f38:	d420      	bmi.n	1f7c <TEE_GetOperationInfoMultiple+0x66>
/mnt/disk/raspbian-tee/optee_os/lib/libutee/tee_api_operations.c:424 (discriminator 1)
    1f3a:	b33f      	cbz	r7, 1f8c <TEE_GetOperationInfoMultiple+0x76>
/mnt/disk/raspbian-tee/optee_os/lib/libutee/tee_api_operations.c:425
    1f3c:	2300      	movs	r3, #0
/mnt/disk/raspbian-tee/optee_os/lib/libutee/tee_api_operations.c:424
    1f3e:	2f02      	cmp	r7, #2
/mnt/disk/raspbian-tee/optee_os/lib/libutee/tee_api_operations.c:425
    1f40:	6223      	str	r3, [r4, #32]
/mnt/disk/raspbian-tee/optee_os/lib/libutee/tee_api_operations.c:426
    1f42:	6263      	str	r3, [r4, #36]	; 0x24
/mnt/disk/raspbian-tee/optee_os/lib/libutee/tee_api_operations.c:424
    1f44:	d120      	bne.n	1f88 <TEE_GetOperationInfoMultiple+0x72>
/mnt/disk/raspbian-tee/optee_os/lib/libutee/tee_api_operations.c:425
    1f46:	62a3      	str	r3, [r4, #40]	; 0x28
/mnt/disk/raspbian-tee/optee_os/lib/libutee/tee_api_operations.c:430
    1f48:	a907      	add	r1, sp, #28
/mnt/disk/raspbian-tee/optee_os/lib/libutee/tee_api_operations.c:426
    1f4a:	62e3      	str	r3, [r4, #44]	; 0x2c
/mnt/disk/raspbian-tee/optee_os/lib/libutee/tee_api_operations.c:430
    1f4c:	6a68      	ldr	r0, [r5, #36]	; 0x24
    1f4e:	f7ff f8d7 	bl	1100 <TEE_GetObjectInfo1>
/mnt/disk/raspbian-tee/optee_os/lib/libutee/tee_api_operations.c:432
    1f52:	4606      	mov	r6, r0
    1f54:	b970      	cbnz	r0, 1f74 <TEE_GetOperationInfoMultiple+0x5e>
/mnt/disk/raspbian-tee/optee_os/lib/libutee/tee_api_operations.c:435
    1f56:	9b08      	ldr	r3, [sp, #32]
    1f58:	62a3      	str	r3, [r4, #40]	; 0x28
/mnt/disk/raspbian-tee/optee_os/lib/libutee/tee_api_operations.c:437
    1f5a:	69ab      	ldr	r3, [r5, #24]
    1f5c:	62e3      	str	r3, [r4, #44]	; 0x2c
/mnt/disk/raspbian-tee/optee_os/lib/libutee/tee_api_operations.c:442
    1f5e:	4669      	mov	r1, sp
    1f60:	6a28      	ldr	r0, [r5, #32]
    1f62:	f7ff f8cd 	bl	1100 <TEE_GetObjectInfo1>
/mnt/disk/raspbian-tee/optee_os/lib/libutee/tee_api_operations.c:444
    1f66:	4606      	mov	r6, r0
    1f68:	b308      	cbz	r0, 1fae <TEE_GetOperationInfoMultiple+0x98>
/mnt/disk/raspbian-tee/optee_os/lib/libutee/tee_api_operations.c:445
    1f6a:	2f02      	cmp	r7, #2
    1f6c:	d102      	bne.n	1f74 <TEE_GetOperationInfoMultiple+0x5e>
/mnt/disk/raspbian-tee/optee_os/lib/libutee/tee_api_operations.c:447
    1f6e:	2300      	movs	r3, #0
    1f70:	62a3      	str	r3, [r4, #40]	; 0x28
/mnt/disk/raspbian-tee/optee_os/lib/libutee/tee_api_operations.c:449
    1f72:	62e3      	str	r3, [r4, #44]	; 0x2c
/mnt/disk/raspbian-tee/optee_os/lib/libutee/tee_api_operations.c:471
    1f74:	4b13      	ldr	r3, [pc, #76]	; (1fc4 <TEE_GetOperationInfoMultiple+0xae>)
    1f76:	429e      	cmp	r6, r3
    1f78:	d002      	beq.n	1f80 <TEE_GetOperationInfoMultiple+0x6a>
    1f7a:	e01e      	b.n	1fba <TEE_GetOperationInfoMultiple+0xa4>
/mnt/disk/raspbian-tee/optee_os/lib/libutee/tee_api_operations.c:417
    1f7c:	2f02      	cmp	r7, #2
    1f7e:	d0dd      	beq.n	1f3c <TEE_GetOperationInfoMultiple+0x26>
/mnt/disk/raspbian-tee/optee_os/lib/libutee/tee_api_operations.c:468
    1f80:	4e10      	ldr	r6, [pc, #64]	; (1fc4 <TEE_GetOperationInfoMultiple+0xae>)
/mnt/disk/raspbian-tee/optee_os/lib/libutee/tee_api_operations.c:476
    1f82:	4630      	mov	r0, r6
    1f84:	b00f      	add	sp, #60	; 0x3c
    1f86:	bdf0      	pop	{r4, r5, r6, r7, pc}
/mnt/disk/raspbian-tee/optee_os/lib/libutee/tee_api_operations.c:441
    1f88:	2f00      	cmp	r7, #0
    1f8a:	d1e8      	bne.n	1f5e <TEE_GetOperationInfoMultiple+0x48>
/mnt/disk/raspbian-tee/optee_os/lib/libutee/tee_api_operations.c:461
    1f8c:	682b      	ldr	r3, [r5, #0]
/mnt/disk/raspbian-tee/optee_os/lib/libutee/tee_api_operations.c:468
    1f8e:	2600      	movs	r6, #0
/mnt/disk/raspbian-tee/optee_os/lib/libutee/tee_api_operations.c:461
    1f90:	6023      	str	r3, [r4, #0]
/mnt/disk/raspbian-tee/optee_os/lib/libutee/tee_api_operations.c:462
    1f92:	686b      	ldr	r3, [r5, #4]
    1f94:	6063      	str	r3, [r4, #4]
/mnt/disk/raspbian-tee/optee_os/lib/libutee/tee_api_operations.c:463
    1f96:	68ab      	ldr	r3, [r5, #8]
    1f98:	60a3      	str	r3, [r4, #8]
/mnt/disk/raspbian-tee/optee_os/lib/libutee/tee_api_operations.c:464
    1f9a:	68eb      	ldr	r3, [r5, #12]
    1f9c:	60e3      	str	r3, [r4, #12]
/mnt/disk/raspbian-tee/optee_os/lib/libutee/tee_api_operations.c:465
    1f9e:	692b      	ldr	r3, [r5, #16]
    1fa0:	6123      	str	r3, [r4, #16]
/mnt/disk/raspbian-tee/optee_os/lib/libutee/tee_api_operations.c:466
    1fa2:	69eb      	ldr	r3, [r5, #28]
