
8aaaf200-2450-11e4-abe2-0002a5d5c51b.elf:     file format elf32-littlearm
8aaaf200-2450-11e4-abe2-0002a5d5c51b.elf
architecture: armv8-a, flags 0x00000150:
HAS_SYMS, DYNAMIC, D_PAGED
start address 0x00000020

Program Header:
0x70000001 off    0x00017bb4 vaddr 0x00007bb4 paddr 0x00007bb4 align 2**2
         filesz 0x00000508 memsz 0x00000508 flags r--
    LOAD off    0x00010000 vaddr 0x00000000 paddr 0x00000000 align 2**16
         filesz 0x00006930 memsz 0x00006930 flags r-x
    LOAD off    0x00016930 vaddr 0x00006930 paddr 0x00006930 align 2**16
         filesz 0x000019a8 memsz 0x000019a8 flags r--
    LOAD off    0x00019000 vaddr 0x00009000 paddr 0x00009000 align 2**16
         filesz 0x0000009c memsz 0x0000a110 flags rw-
 DYNAMIC off    0x00018204 vaddr 0x00008204 paddr 0x00008204 align 2**2
         filesz 0x00000088 memsz 0x00000088 flags rw-

Dynamic Section:
  HASH                 0x000082c0
  GNU_HASH             0x00007b6c
  STRTAB               0x000082bc
  SYMTAB               0x0000828c
  STRSZ                0x00000001
  SYMENT               0x00000010
  DEBUG                0x00000000
  REL                  0x000080f4
  RELSZ                0x00000110
  RELENT               0x00000008
  FLAGS_1              0x08000000
  RELCOUNT             0x00000017
private flags = 0x5000400: [Version5 EABI] [hard-float ABI]

Sections:
Idx Name          Size      VMA       LMA       File off  Algn
  0 .ta_head      00000020  00000000  00000000  00010000  2**3
                  CONTENTS, ALLOC, LOAD, DATA
  1 .text         00006910  00000020  00000020  00010020  2**3
                  CONTENTS, ALLOC, LOAD, READONLY, CODE
  2 .rodata       00001155  00006930  00006930  00016930  2**2
                  CONTENTS, ALLOC, LOAD, READONLY, DATA
  3 .ARM.extab    000000e4  00007a88  00007a88  00017a88  2**2
                  CONTENTS, ALLOC, LOAD, READONLY, DATA
  4 .gnu.hash     00000018  00007b6c  00007b6c  00017b6c  2**2
                  CONTENTS, ALLOC, LOAD, READONLY, DATA
  5 .ARM.extab.text.__aeabi_ldivmod 0000000c  00007b84  00007b84  00017b84  2**2
                  CONTENTS, ALLOC, LOAD, READONLY, DATA
  6 .ARM.extab.text.__aeabi_uldivmod 0000000c  00007b90  00007b90  00017b90  2**2
                  CONTENTS, ALLOC, LOAD, READONLY, DATA
  7 .ARM.extab.text.utee_panic 0000000c  00007b9c  00007b9c  00017b9c  2**2
                  CONTENTS, ALLOC, LOAD, READONLY, DATA
  8 .ARM.extab.text.unlikely 0000000c  00007ba8  00007ba8  00017ba8  2**2
                  CONTENTS, ALLOC, LOAD, READONLY, DATA
  9 .ARM.exidx    00000508  00007bb4  00007bb4  00017bb4  2**2
                  CONTENTS, ALLOC, LOAD, READONLY, DATA
 10 .got          00000038  000080bc  000080bc  000180bc  2**2
                  CONTENTS, ALLOC, LOAD, DATA
 11 .dynsym       00000030  0000828c  0000828c  0001828c  2**2
                  CONTENTS, ALLOC, LOAD, READONLY, DATA
 12 .rel.got      00000058  000081ac  000081ac  000181ac  2**2
                  CONTENTS, ALLOC, LOAD, READONLY, DATA
 13 .dynamic      00000088  00008204  00008204  00018204  2**2
                  CONTENTS, ALLOC, LOAD, DATA
 14 .dynstr       00000001  000082bc  000082bc  000182bc  2**0
                  CONTENTS, ALLOC, LOAD, READONLY, DATA
 15 .hash         00000018  000082c0  000082c0  000182c0  2**2
                  CONTENTS, ALLOC, LOAD, READONLY, DATA
 16 .data         0000009c  00009000  00009000  00019000  2**2
                  CONTENTS, ALLOC, LOAD, DATA
 17 .bss          0000a074  0000909c  0000909c  0001909c  2**2
                  ALLOC
 18 .debug_info   0000ec18  00000000  00000000  0001909c  2**0
                  CONTENTS, READONLY, DEBUGGING, OCTETS
 19 .debug_abbrev 000028d4  00000000  00000000  00027cb4  2**0
                  CONTENTS, READONLY, DEBUGGING, OCTETS
 20 .debug_loclists 000007c9  00000000  00000000  0002a588  2**0
                  CONTENTS, READONLY, DEBUGGING, OCTETS
 21 .debug_aranges 00000530  00000000  00000000  0002ad58  2**3
                  CONTENTS, READONLY, DEBUGGING, OCTETS
 22 .debug_rnglists 0000003d  00000000  00000000  0002b288  2**0
                  CONTENTS, READONLY, DEBUGGING, OCTETS
 23 .debug_macro  000111d9  00000000  00000000  0002b2c5  2**0
                  CONTENTS, READONLY, DEBUGGING, OCTETS
 24 .debug_line   00004f6a  00000000  00000000  0003c49e  2**0
                  CONTENTS, READONLY, DEBUGGING, OCTETS
 25 .debug_str    000114c1  00000000  00000000  00041408  2**0
                  CONTENTS, READONLY, DEBUGGING, OCTETS
 26 .comment      0000004f  00000000  00000000  000528c9  2**0
                  CONTENTS, READONLY
 27 .ARM.attributes 00000031  00000000  00000000  00052918  2**0
                  CONTENTS, READONLY
 28 .debug_frame  000018f4  00000000  00000000  0005294c  2**2
                  CONTENTS, READONLY, DEBUGGING, OCTETS
 29 .rel.dyn      000000b8  000080f4  000080f4  000180f4  2**2
                  CONTENTS, ALLOC, LOAD, READONLY, DATA
 30 .debug_loc    0000cd72  00000000  00000000  00054240  2**0
                  CONTENTS, READONLY, DEBUGGING, OCTETS
 31 .debug_ranges 00000758  00000000  00000000  00060fb8  2**3
                  CONTENTS, READONLY, DEBUGGING, OCTETS
SYMBOL TABLE:
00000000 l    d  .ta_head	00000000 .ta_head
00000020 l    d  .text	00000000 .text
00006930 l    d  .rodata	00000000 .rodata
00007a88 l    d  .ARM.extab	00000000 .ARM.extab
00007b6c l    d  .gnu.hash	00000000 .gnu.hash
00007b84 l    d  .ARM.extab.text.__aeabi_ldivmod	00000000 .ARM.extab.text.__aeabi_ldivmod
00007b90 l    d  .ARM.extab.text.__aeabi_uldivmod	00000000 .ARM.extab.text.__aeabi_uldivmod
00007b9c l    d  .ARM.extab.text.utee_panic	00000000 .ARM.extab.text.utee_panic
00007ba8 l    d  .ARM.extab.text.unlikely	00000000 .ARM.extab.text.unlikely
00007bb4 l    d  .ARM.exidx	00000000 .ARM.exidx
000080bc l    d  .got	00000000 .got
000081ac l    d  .rel.got	00000000 .rel.got
00008204 l    d  .dynamic	00000000 .dynamic
0000828c l    d  .dynsym	00000000 .dynsym
000082bc l    d  .dynstr	00000000 .dynstr
000082c0 l    d  .hash	00000000 .hash
00009000 l    d  .data	00000000 .data
0000909c l    d  .bss	00000000 .bss
00000000 l    d  .debug_info	00000000 .debug_info
00000000 l    d  .debug_abbrev	00000000 .debug_abbrev
00000000 l    d  .debug_loclists	00000000 .debug_loclists
00000000 l    d  .debug_aranges	00000000 .debug_aranges
00000000 l    d  .debug_rnglists	00000000 .debug_rnglists
00000000 l    d  .debug_macro	00000000 .debug_macro
00000000 l    d  .debug_line	00000000 .debug_line
00000000 l    d  .debug_str	00000000 .debug_str
00000000 l    d  .comment	00000000 .comment
00000000 l    d  .ARM.attributes	00000000 .ARM.attributes
00000000 l    d  .debug_frame	00000000 .debug_frame
000080f4 l    d  .rel.dyn	00000000 .rel.dyn
00000000 l    d  .debug_loc	00000000 .debug_loc
00000000 l    d  .debug_ranges	00000000 .debug_ranges
00000000 l    df *ABS*	00000000 user_ta_header.c
00006934 l     O .rodata	00000004 __compound_literal.5
00006938 l     O .rodata	00000004 __compound_literal.4
0000693c l     O .rodata	00000004 __compound_literal.3
00006940 l     O .rodata	00000001 __compound_literal.2
00006941 l     O .rodata	00000001 __compound_literal.1
00006942 l     O .rodata	00000001 __compound_literal.0
00000000 l    df *ABS*	00000000 entry.c
0000039c l     F .text	0000015c output
00000938 l     F .text	00000284 shared_memory
00006c62 l     O .rodata	00000014 __func__.9
00006c76 l     O .rodata	00000015 __func__.8
00006c8b l     O .rodata	00000019 __func__.7
00006ca4 l     O .rodata	0000001a __func__.6
00006cbe l     O .rodata	00000007 __func__.2
00006cc5 l     O .rodata	0000000b __func__.5
00006cd0 l     O .rodata	0000000a __func__.4
00006cda l     O .rodata	0000000b __func__.3
00006ce5 l     O .rodata	0000000e __func__.0
00006cf3 l     O .rodata	00000006 __func__.1
00000000 l    df *ABS*	00000000 snprintk.c
00006e21 l     O .rodata	00000011 HEXDIGITS
00006e32 l     O .rodata	00000011 hexdigits
00000000 l    df *ABS*	00000000 trace.c
0000140c l     F .text	0000004e append
00006e7b l     O .rodata	00000005 lvl_strs.5561
00006e80 l     O .rodata	0000000a __func__.5615
00000000 l    df *ABS*	00000000 arm32_aeabi_ldivmod_a32.o
00000000 l    df *ABS*	00000000 trace_ext.c
00000000 l    df *ABS*	00000000 tee_api.c
00006ec1 l     O .rodata	0000000b __func__.6728
0000909c l     O .bss	00000004 tee_api_instance_data
00000000 l    df *ABS*	00000000 user_ta_entry.c
00001a78 l     F .text	0000001c ta_header_get_session
00001a94 l     F .text	00000068 ta_header_remove_session
000090a0 l     O .bss	00000001 init_done
00009078 l     O .data	00000008 ta_sessions
00000000 l    df *ABS*	00000000 utee_syscalls_a32.o
00000000 l    df *ABS*	00000000 gprof_a32.o
00000000 l    df *ABS*	00000000 tee_api_arith_mpi.c
0000315c l     F .text	00000020 api_panic
00002148 l     F .text	00000020 mpi_panic
00002168 l     F .text	00000044 get_const_mpi
000021ac l     F .text	00000010 mpi_is_odd
000021bc l     F .text	00000016 rng_read
000021d2 l     F .text	0000001c put_mpi
000021ee l     F .text	0000045a mpi_egcd
00002648 l     F .text	00000024 get_mpi
0000266c l     F .text	00000088 bigint_binary
000090c8 l     O .bss	00002000 data.6728
000028fa l     F .text	000000ea bigint_binary_mod
00006edd l     O .rodata	0000000e __func__.6757
00006eeb l     O .rodata	00000009 __func__.6996
00006ef4 l     O .rodata	0000000e __func__.6856
00006f02 l     O .rodata	00000012 __func__.6729
00006f14 l     O .rodata	0000000f __func__.6767
00006f23 l     O .rodata	0000001f __func__.6785
00006f42 l     O .rodata	00000019 __func__.6792
00006f5b l     O .rodata	00000012 __func__.6867
00006f6d l     O .rodata	00000015 __func__.6822
00006f82 l     O .rodata	0000000e __func__.6894
00006f90 l     O .rodata	0000000e __func__.6922
00006f9e l     O .rodata	0000000e __func__.6928
00006fac l     O .rodata	00000011 __func__.6957
00006fbd l     O .rodata	00000018 __func__.6973
00006fd5 l     O .rodata	0000001d __func__.7053
00006ff2 l     O .rodata	00000019 __func__.7103
0000700b l     O .rodata	00000015 __func__.7117
00000000 l    df *ABS*	00000000 bignum.c
0000317c l     F .text	00000038 mpi_get_digit
000031b4 l     F .text	0000005e mpi_sub_hlp
00003212 l     F .text	00000492 mpi_mul_hlp
000036a4 l     F .text	00000048 mbedtls_mpi_mod_int.part.1
00004746 l     F .text	0000006c mpi_write_hlp
000048ec l     F .text	00000050 mpi_check_small_factors
00004fd8 l     F .text	00000216 mpi_miller_rabin
0000694c l     O .rodata	000002a0 small_prime
00006bec l     O .rodata	00000024 gcd_pairs
00000000 l    df *ABS*	00000000 bget_malloc.c
0000597c l     F .text	00000030 raw_malloc_return_hook.isra.3
000059ac l     F .text	000000d8 create_free_block.constprop.11
00005bb8 l     F .text	00000038 raw_malloc.constprop.15
00007534 l     O .rodata	00000012 __func__.5854
00007546 l     O .rodata	00000005 __func__.5710
0000754b l     O .rodata	00000006 __func__.5725
00007551 l     O .rodata	00000005 __func__.5742
00007556 l     O .rodata	00000006 __func__.5734
0000755c l     O .rodata	00000006 __func__.5751
00007562 l     O .rodata	00000007 __func__.5761
00007569 l     O .rodata	0000000d __func__.5890
00007576 l     O .rodata	0000000c __func__.5864
00007582 l     O .rodata	0000000b __func__.5875
0000758d l     O .rodata	00000010 __func__.5942
0000759d l     O .rodata	0000000e __func__.5896
000075ab l     O .rodata	00000013 __func__.5802
0000b0cc l     O .bss	00000038 mstats
0000b104 l     O .bss	00000004 malloc_pool_len
0000b108 l     O .bss	00000004 malloc_pool
00009080 l     O .data	0000001c malloc_poolset
00000000 l    df *ABS*	00000000 mempool.c
000079c6 l     O .rodata	00000013 __func__.5618
000079d9 l     O .rodata	0000000e __func__.5627
00000000 l    df *ABS*	00000000 assert.c
00000000 l    df *ABS*	00000000 snprintf.c
00000000 l    df *ABS*	00000000 stack_check.c
00000000 l    df *ABS*	00000000 memcpy.c
00000000 l    df *ABS*	00000000 memset.c
00000000 l    df *ABS*	00000000 strcmp.c
00000000 l    df *ABS*	00000000 strlen.c
00000000 l    df *ABS*	00000000 aeabi_unwind.c
00000000 l    df *ABS*	00000000 memchr.c
00000000 l    df *ABS*	00000000 arm32_aeabi_ldivmod.c
00000000 l    df *ABS*	00000000 tee_api_panic.c
00000000 l    df *ABS*	00000000 memcmp.c
00000000 l    df *ABS*	00000000 memmove.c
00000000 l    df *ABS*	00000000 
00008204 l     O *ABS*	00000000 _DYNAMIC
000080bc l     O *ABS*	00000000 _GLOBAL_OFFSET_TABLE_
000068f0 l     F .text	00000010 __utee_log_from_thumb
00006900 l     F .text	00000010 __utee_cache_operation_from_thumb
00006910 l     F .text	00000010 __utee_panic_from_thumb
00006920 l     F .text	00000010 __utee_check_access_rights_from_thumb
00001770 g     F .text	00000022 putchar
0000306e g     F .text	00000004 TEE_BigIntConvertToFMM
00002db0 g     F .text	00000008 TEE_BigIntSquareMod
000029e4 g     F .text	000000f4 TEE_BigIntShiftRight
00002020 g     F .text	00000018 utee_storage_obj_create
00003784 g     F .text	000000a8 mbedtls_mpi_grow
000067ac g     F .text	000000ec __l_divmod
00001ca0 g     F .text	00000014 utee_return
00001a5c g     F .text	00000004 TEE_Realloc
00001712 g     F .text	0000003a printf
00001cb4 g     F .text	00000014 utee_log
0000187a g     F .text	00000066 TEE_InvokeTACommand
000036fe g     F .text	00000026 mbedtls_mpi_init_mempool
00003bf8 g     F .text	00000046 mbedtls_mpi_write_binary
0000020c g     F .text	00000108 produce
000013e4 g     F .text	0000000e vsnprintk
00004082 g     F .text	00000030 mbedtls_mpi_sub_int
000068ba g     F .text	00000034 memmove
00006698 g     F .text	0000001e snprintf
000028d4 g     F .text	00000026 TEE_BigIntCmpS32
00009070 g     O .data	00000004 __stack_chk_guard
0000382c g     F .text	000000cc mbedtls_mpi_shrink
00006716 g     F .text	00000002 __aeabi_unwind_cpp_pr0
00002b24 g     F .text	0000001c TEE_BigIntAdd
00001cf4 g     F .text	00000014 utee_get_property_name_to_index
00006944 g     O .rodata	00000004 ta_heap_size
00001dd8 g     F .text	00000018 utee_cryp_state_alloc
00001fa8 g     F .text	00000018 utee_authenc_enc_final
000041ac g     F .text	0000012c mbedtls_mpi_read_string
00002b5c g     F .text	00000058 TEE_BigIntNeg
00000020 g       .text	00000000 __text_start
00003cd6 g     F .text	00000078 mbedtls_mpi_shift_r
0000650c g     F .text	0000004c malloc_buffer_overlaps_heap
00002d78 g     F .text	0000001c TEE_BigIntSubMod
0000551a g     F .text	00000136 mbedtls_mpi_gen_prime
00003aa6 g     F .text	00000020 mbedtls_mpi_get_bit
00003b92 g     F .text	00000066 mbedtls_mpi_read_binary
0000148c g     F .text	0000013c trace_printf
00004964 g     F .text	000000c4 mbedtls_mpi_montmul
000066c6 g     F .text	00000016 memcpy
00001e04 g     F .text	00000014 utee_cryp_state_free
00003072 g     F .text	0000004a TEE_BigIntConvertFromFMM
00006898 g     F .text	00000004 TEE_Panic
000016e0 g     F .text	00000018 __aeabi_uldivmod
0000174c g     F .text	00000024 puts
000030bc g     F .text	000000a0 TEE_BigIntComputeFMM
00005fd4 g     F .text	00000020 malloc_get_stats
00001e84 g     F .text	00000018 utee_cipher_final
000019fc g     F .text	00000016 TEE_GetREETime
00009004 g     O .data	0000006c ta_props
00005ff4 g     F .text	00000002 malloc
00001eec g     F .text	00000014 utee_cryp_obj_close
000066b6 g     F .text	0000000e vsnprintf
00009000 g     O .data	00000004 trace_level
000028a0 g     F .text	00000034 TEE_BigIntCmp
00006930 g     O .rodata	00000004 ta_num_props
00005e44 g     F .text	0000007c bgetr
00001f90 g     F .text	00000018 utee_authenc_update_payload
0000662c g     F .text	0000002e mempool_free
000027b8 g     F .text	00000058 TEE_BigIntConvertToOctetString
00002128 g     F .text	00000014 utee_cache_operation
00003b44 g     F .text	00000042 mbedtls_mpi_bitlen
00001f64 g     F .text	00000018 utee_authenc_init
00002ad8 g     F .text	0000002a TEE_BigIntGetBit
00006948 g     O .rodata	00000003 trace_ext_prefix
00005bf0 g     F .text	0000005c bgetz
0000194c g     F .text	0000000c TEE_GetInstanceData
0000197a g     F .text	0000001e TEE_Wait
000020d8 g     F .text	00000014 utee_storage_obj_write
000040b2 g     F .text	000000dc mbedtls_mpi_mul_mpi
0000671a g     F .text	00000002 __aeabi_unwind_cpp_pr2
00001a6a g     F .text	00000006 TEE_CacheFlush
00000048 g     F .text	00000028 TA_DestroyEntryPoint
000036ec g     F .text	00000012 mbedtls_mpi_init
00003b16 g     F .text	0000002e mbedtls_mpi_lsb
0000665c g     F .text	00000028 _assert_log
0000306a g     F .text	00000004 TEE_BigIntFMMContextSizeInU32
000000e4 g     F .text	00000020 enc
000026f4 g     F .text	00000044 _TEE_MathAPI_Init
00003fbe g     F .text	00000048 mbedtls_mpi_add_mpi
000020b0 g     F .text	00000014 utee_storage_next_enum
000066c4 g     F .text	00000002 __stack_chk_fail
0000b10c g     O .bss	00008000 ta_heap
00002db8 g     F .text	000000a4 TEE_BigIntInvMod
000000bc g     F .text	00000028 TA_CloseSessionEntryPoint
00004006 g     F .text	0000004c mbedtls_mpi_sub_mpi
00001cc8 g     F .text	00000014 __utee_panic
00001df0 g     F .text	00000014 utee_cryp_state_copy
00000bbc g     F .text	000000f4 TA_InvokeCommandEntryPoint
0000659c g     F .text	0000006c mempool_alloc
00000548 g     F .text	00000098 produce_i0
00001ed8 g     F .text	00000014 utee_cryp_obj_alloc
00001dc4 g     F .text	00000014 utee_set_ta_time
00001ec4 g     F .text	00000014 utee_cryp_obj_get_attr
00006608 g     F .text	00000024 mempool_calloc
00006008 g     F .text	00000048 calloc
00001a12 g     F .text	0000004a TEE_Malloc
00001d88 g     F .text	00000014 utee_mask_cancellation
00001f00 g     F .text	00000014 utee_cryp_obj_reset
00001934 g     F .text	0000000a TEE_CheckMemoryAccessRights
00013110 g       .bss	00000000 __gprof_buf_end
00006738 g     F .text	00000074 __ul_divmod
00003a6e g     F .text	00000038 mbedtls_mpi_lset
00000070 g     F .text	0000004c TA_OpenSessionEntryPoint
0000209c g     F .text	00000014 utee_storage_start_enum
0000204c g     F .text	00000014 utee_storage_obj_rename
000090a4 g     O .bss	00000004 ta_param_types
0000467a g     F .text	0000002e mbedtls_mpi_div_int
0000302c g     F .text	00000030 TEE_BigIntIsProbablePrime
0000418e g     F .text	0000001e mbedtls_mpi_mul_int
00004a4c g     F .text	00000446 mbedtls_mpi_exp_mod
0000397c g     F .text	0000006c mbedtls_mpi_safe_cond_assign
00001cdc g     F .text	00000018 utee_get_property
00002738 g     F .text	00000040 TEE_BigIntInit
00001958 g     F .text	00000004 TEE_MemMove
00002778 g     F .text	00000040 TEE_BigIntConvertFromOctetString
00009074 g     O .data	00000004 _ref__utee_mcount
00003d4e g     F .text	0000006e mbedtls_mpi_cmp_abs
00000108 g     F .text	00000104 produce_2
0000671c g     F .text	0000001c memchr
000018fc g     F .text	0000001c TEE_UnmaskCancellation
00005650 g     F .text	0000032c mbedtls_mpi_self_test
00002038 g     F .text	00000014 utee_storage_obj_del
00002100 g     F .text	00000014 utee_storage_obj_seek
00003e52 g     F .text	00000030 mbedtls_mpi_cmp_int
00001e2c g     F .text	00000014 utee_hash_update
00000104 g     F .text	00000004 dec
00000744 g     F .text	000001f4 produce_s3
0000213c  w    F .text	0000000c __utee_mcount
00002d0c g     F .text	00000050 TEE_BigIntMod
0000470c g     F .text	0000003a mbedtls_mpi_mod_int
00001d20 g     F .text	00000014 utee_close_ta_session
00002c5e g     F .text	000000ae TEE_BigIntDiv
000038f8 g     F .text	00000056 mbedtls_mpi_copy
00005fc0 g     F .text	00000014 malloc_reset_stats
00001e6c g     F .text	00000018 utee_cipher_update
00006050 g     F .text	00000038 realloc
0000394e g     F .text	0000002e mbedtls_mpi_swap
00000670 g     F .text	000000d4 produce_s
00006558 g     F .text	00000044 mempool_alloc_pool
00001ff0 g     F .text	00000018 utee_asymm_verify
00002bb4 g     F .text	000000a4 TEE_BigIntMul
00003c3e g     F .text	00000098 mbedtls_mpi_shift_l
00003dbc g     F .text	00000096 mbedtls_mpi_cmp_mpi
00001960 g     F .text	00000004 TEE_MemFill
0000689c g     F .text	0000001e memcmp
00006338 g     F .text	000000f8 malloc_add_pool
00001478 g     F .text	00000014 trace_get_level
00003e82 g     F .text	000000bc mbedtls_mpi_add_abs
00001f50 g     F .text	00000014 utee_cryp_random_number_generate
00003062 g     F .text	00000008 TEE_BigIntFMMSizeInU32
0000305c g     F .text	00000004 TEE_BigIntInitFMM
00001fd8 g     F .text	00000018 utee_asymm_operate
00001afc g     F .text	00000190 __utee_entry
00006930 g       .text	00000000 __text_end
00002e5c g     F .text	0000007c TEE_BigIntRelativePrime
000046a8 g     F .text	00000064 mbedtls_mpi_mod_mpi
00005ec0 g     F .text	0000009c bpool
000018e0 g     F .text	0000001c TEE_GetCancellationFlag
00004e92 g     F .text	00000114 mbedtls_mpi_gcd
000019d4 g     F .text	00000028 TEE_SetTAPersistentTime
000066dc g     F .text	00000010 memset
00001998 g     F .text	0000003c TEE_GetTAPersistentTime
000004f8 g     F .text	00000050 produce_i2
000015c8 g     F .text	00000100 dhex_dump
00001918 g     F .text	0000001c TEE_MaskCancellation
000020c4 g     F .text	00000014 utee_storage_obj_read
00001f14 g     F .text	00000014 utee_cryp_obj_populate
0000145a g     F .text	0000001e trace_set_level
00001e9c g     F .text	00000014 utee_cryp_obj_get_info
00002060 g     F .text	00000014 utee_storage_alloc_enum
00002088 g     F .text	00000014 utee_storage_reset_enum
000020ec g     F .text	00000014 utee_storage_obj_trunc
000066ec g     F .text	0000001a strcmp
00002848 g     F .text	00000058 TEE_BigIntConvertToS32
00002b40 g     F .text	0000001c TEE_BigIntSub
00001d4c g     F .text	00000014 utee_get_cancellation_flag
00001e18 g     F .text	00000014 utee_hash_init
00006694 g     F .text	00000004 tahead_get_trace_level
00001794 g     F .text	00000050 __utee_from_param
000017e4 g     F .text	0000003e __utee_to_param
00004a28 g     F .text	00000024 mbedtls_mpi_montred
00006088 g     F .text	000002b0 memalign
00002810 g     F .text	00000038 TEE_BigIntConvertFromS32
00004052 g     F .text	00000030 mbedtls_mpi_add_int
00001eb0 g     F .text	00000014 utee_cryp_obj_restrict_usage
00006430 g     F .text	000000dc malloc_buffer_is_within_alloced
00001f28 g     F .text	00000014 utee_cryp_obj_copy
00003060 g     F .text	00000002 TEE_BigIntInitFMMContext
00001f3c g     F .text	00000014 utee_cryp_derive_key
00001fc0 g     F .text	00000018 utee_authenc_dec_final
00002c58 g     F .text	00000006 TEE_BigIntSquare
00000020 g     F .text	00000028 TA_CreateEntryPoint
0000493c g     F .text	00000028 mbedtls_mpi_montg_init
000013f2 g     F .text	0000001a snprintk
00002b02 g     F .text	00000022 TEE_BigIntGetBitCount
00002d94 g     F .text	0000001c TEE_BigIntMulMod
000051ee g     F .text	000002d0 mbedtls_mpi_inv_mod
000090a8 g     O .bss	00000020 ta_params
000042d8 g     F .text	000003a2 mbedtls_mpi_div_mpi
00003b86 g     F .text	0000000c mbedtls_mpi_size
00005a84 g     F .text	00000134 bget
00003ac6 g     F .text	00000050 mbedtls_mpi_set_bit
00003724 g     F .text	00000012 mbedtls_mpi_init_static
00001a60 g     F .text	00000004 TEE_Free
000054be g     F .text	0000005c mbedtls_mpi_is_prime
00001a70 g     F .text	00000006 TEE_CacheInvalidate
00001e58 g     F .text	00000014 utee_cipher_init
00006684 g     F .text	00000010 _assert_break
00002d5c g     F .text	0000001c TEE_BigIntAddMod
00002074 g     F .text	00000014 utee_storage_free_enum
00001f7c g     F .text	00000014 utee_authenc_update_aad
0000195c g     F .text	00000004 TEE_MemCompare
00000cb0 g     F .text	00000734 __vsnprintf
00001c8c g     F .text	00000014 utee_panic
00001822 g     F .text	00000044 TEE_OpenTASession
000016f8 g     F .text	00000014 trace_ext_puts
0000170c g     F .text	00000006 trace_ext_get_thread_id
00003736 g     F .text	0000004e mbedtls_mpi_free
00001a64 g     F .text	00000006 TEE_CacheClean
00001d08 g     F .text	00000018 utee_open_ta_session
000039e8 g     F .text	00000086 mbedtls_mpi_safe_cond_swap
000005fa g     F .text	00000076 produce_s2
00001e40 g     F .text	00000018 utee_hash_final
00006706 g     F .text	00000010 strlen
00002ed8 g     F .text	00000154 TEE_BigIntComputeExtendedGcd
00006718 g     F .text	00000002 __aeabi_unwind_cpp_pr1
00002008 g     F .text	00000018 utee_storage_obj_open
00001d34 g     F .text	00000018 utee_invoke_ta_command
00001d9c g     F .text	00000014 utee_wait
00001964 g     F .text	00000016 TEE_GetSystemTime
00000000 g     O .ta_head	00000020 ta_head
00005c4c g     F .text	000001f8 brel
00003f3e g     F .text	00000080 mbedtls_mpi_sub_abs
00001db0 g     F .text	00000014 utee_get_time
00004fa6 g     F .text	00000032 mbedtls_mpi_fill_random
0000193e g     F .text	0000000e TEE_SetInstanceData
00001d74 g     F .text	00000014 utee_unmask_cancellation
000016c8 g     F .text	00000018 __aeabi_ldivmod
00001d60 g     F .text	00000014 utee_check_access_rights
000047b2 g     F .text	0000013a mbedtls_mpi_write_string
000005e0 g     F .text	0000001a produce_i3
00002114 g     F .text	00000014 utee_cryp_obj_generate_key
00001866 g     F .text	00000014 TEE_CloseTASession
00000314 g     F .text	00000088 produce_3
00013110 g       .bss	00000000 __gprof_buf_start
00005ff6 g     F .text	00000012 free
00005f5c g     F .text	00000064 bstats
0000b0c8 g     O .bss	00000004 mbedtls_mpi_mempool



Disassembly of section .text:

00000020 <TA_CreateEntryPoint>:
TA_CreateEntryPoint():
/workspace/benchmark/bad-partitioning/ta/entry.c:40
      20:	b507      	push	{r0, r1, r2, lr}
/workspace/benchmark/bad-partitioning/ta/entry.c:41
      22:	2203      	movs	r2, #3
      24:	4b06      	ldr	r3, [pc, #24]	; (40 <TA_CreateEntryPoint+0x20>)
      26:	4807      	ldr	r0, [pc, #28]	; (44 <TA_CreateEntryPoint+0x24>)
      28:	2129      	movs	r1, #41	; 0x29
      2a:	447b      	add	r3, pc
      2c:	9300      	str	r3, [sp, #0]
      2e:	4478      	add	r0, pc
      30:	2301      	movs	r3, #1
      32:	f001 fa2b 	bl	148c <trace_printf>
/workspace/benchmark/bad-partitioning/ta/entry.c:44
      36:	2000      	movs	r0, #0
      38:	b003      	add	sp, #12
      3a:	f85d fb04 	ldr.w	pc, [sp], #4
      3e:	bf00      	nop
      40:	00006be2 	.word	0x00006be2
      44:	00006c30 	.word	0x00006c30

00000048 <TA_DestroyEntryPoint>:
TA_DestroyEntryPoint():
/workspace/benchmark/bad-partitioning/ta/entry.c:51
      48:	b507      	push	{r0, r1, r2, lr}
/workspace/benchmark/bad-partitioning/ta/entry.c:52
      4a:	2203      	movs	r2, #3
      4c:	4806      	ldr	r0, [pc, #24]	; (68 <TA_DestroyEntryPoint+0x20>)
      4e:	4b07      	ldr	r3, [pc, #28]	; (6c <TA_DestroyEntryPoint+0x24>)
      50:	2134      	movs	r1, #52	; 0x34
      52:	4478      	add	r0, pc
      54:	447b      	add	r3, pc
      56:	3014      	adds	r0, #20
      58:	9300      	str	r3, [sp, #0]
      5a:	2301      	movs	r3, #1
      5c:	f001 fa16 	bl	148c <trace_printf>
/workspace/benchmark/bad-partitioning/ta/entry.c:53
      60:	b003      	add	sp, #12
      62:	f85d fb04 	ldr.w	pc, [sp], #4
      66:	bf00      	nop
      68:	00006c0c 	.word	0x00006c0c
      6c:	00006bb8 	.word	0x00006bb8

00000070 <TA_OpenSessionEntryPoint>:
TA_OpenSessionEntryPoint():
/workspace/benchmark/bad-partitioning/ta/entry.c:64
      70:	b537      	push	{r0, r1, r2, r4, r5, lr}
      72:	4604      	mov	r4, r0
/workspace/benchmark/bad-partitioning/ta/entry.c:70
      74:	4d0e      	ldr	r5, [pc, #56]	; (b0 <TA_OpenSessionEntryPoint+0x40>)
      76:	4b0f      	ldr	r3, [pc, #60]	; (b4 <TA_OpenSessionEntryPoint+0x44>)
      78:	2203      	movs	r2, #3
      7a:	447d      	add	r5, pc
      7c:	2146      	movs	r1, #70	; 0x46
      7e:	3529      	adds	r5, #41	; 0x29
      80:	447b      	add	r3, pc
      82:	4628      	mov	r0, r5
      84:	9300      	str	r3, [sp, #0]
      86:	2301      	movs	r3, #1
      88:	f001 fa00 	bl	148c <trace_printf>
/workspace/benchmark/bad-partitioning/ta/entry.c:72
      8c:	b95c      	cbnz	r4, a6 <TA_OpenSessionEntryPoint+0x36>
/workspace/benchmark/bad-partitioning/ta/entry.c:83
      8e:	4b0a      	ldr	r3, [pc, #40]	; (b8 <TA_OpenSessionEntryPoint+0x48>)
      90:	2202      	movs	r2, #2
      92:	2153      	movs	r1, #83	; 0x53
      94:	4628      	mov	r0, r5
      96:	447b      	add	r3, pc
      98:	9300      	str	r3, [sp, #0]
      9a:	2301      	movs	r3, #1
      9c:	f001 f9f6 	bl	148c <trace_printf>
/workspace/benchmark/bad-partitioning/ta/entry.c:87
      a0:	4620      	mov	r0, r4
      a2:	b003      	add	sp, #12
      a4:	bd30      	pop	{r4, r5, pc}
/workspace/benchmark/bad-partitioning/ta/entry.c:73
      a6:	4c01      	ldr	r4, [pc, #4]	; (ac <TA_OpenSessionEntryPoint+0x3c>)
      a8:	e7fa      	b.n	a0 <TA_OpenSessionEntryPoint+0x30>
      aa:	bf00      	nop
      ac:	ffff0006 	.word	0xffff0006
      b0:	00006be4 	.word	0x00006be4
      b4:	00006b8c 	.word	0x00006b8c
      b8:	00006b86 	.word	0x00006b86

000000bc <TA_CloseSessionEntryPoint>:
TA_CloseSessionEntryPoint():
/workspace/benchmark/bad-partitioning/ta/entry.c:94
      bc:	b507      	push	{r0, r1, r2, lr}
/workspace/benchmark/bad-partitioning/ta/entry.c:96
      be:	2202      	movs	r2, #2
      c0:	4806      	ldr	r0, [pc, #24]	; (dc <TA_CloseSessionEntryPoint+0x20>)
      c2:	4b07      	ldr	r3, [pc, #28]	; (e0 <TA_CloseSessionEntryPoint+0x24>)
      c4:	2160      	movs	r1, #96	; 0x60
      c6:	4478      	add	r0, pc
      c8:	447b      	add	r3, pc
      ca:	3042      	adds	r0, #66	; 0x42
      cc:	9300      	str	r3, [sp, #0]
      ce:	2301      	movs	r3, #1
      d0:	f001 f9dc 	bl	148c <trace_printf>
/workspace/benchmark/bad-partitioning/ta/entry.c:97
      d4:	b003      	add	sp, #12
      d6:	f85d fb04 	ldr.w	pc, [sp], #4
      da:	bf00      	nop
      dc:	00006b98 	.word	0x00006b98
      e0:	00006b62 	.word	0x00006b62

000000e4 <enc>:
enc():
/workspace/benchmark/bad-partitioning/ta/entry.c:100
      e4:	b510      	push	{r4, lr}
/workspace/benchmark/bad-partitioning/ta/entry.c:101
      e6:	4604      	mov	r4, r0
      e8:	b128      	cbz	r0, f6 <enc+0x12>
/workspace/benchmark/bad-partitioning/ta/entry.c:101 (discriminator 2)
      ea:	f006 fb0c 	bl	6706 <strlen>
      ee:	4623      	mov	r3, r4
      f0:	4420      	add	r0, r4
/workspace/benchmark/bad-partitioning/ta/entry.c:101 (discriminator 3)
      f2:	4283      	cmp	r3, r0
      f4:	d100      	bne.n	f8 <enc+0x14>
/workspace/benchmark/bad-partitioning/ta/entry.c:102
      f6:	bd10      	pop	{r4, pc}
/workspace/benchmark/bad-partitioning/ta/entry.c:101 (discriminator 5)
      f8:	781a      	ldrb	r2, [r3, #0]
      fa:	f082 025a 	eor.w	r2, r2, #90	; 0x5a
      fe:	f803 2b01 	strb.w	r2, [r3], #1
     102:	e7f6      	b.n	f2 <enc+0xe>

00000104 <dec>:
dec():
/workspace/benchmark/bad-partitioning/ta/entry.c:101 (discriminator 5)
     104:	f7ff bfee 	b.w	e4 <enc>

00000108 <produce_2>:
produce_2():
/workspace/benchmark/bad-partitioning/ta/entry.c:110
     108:	4a38      	ldr	r2, [pc, #224]	; (1ec <produce_2+0xe4>)
     10a:	4b39      	ldr	r3, [pc, #228]	; (1f0 <produce_2+0xe8>)
     10c:	e92d 41f0 	stmdb	sp!, {r4, r5, r6, r7, r8, lr}
     110:	447a      	add	r2, pc
/workspace/benchmark/bad-partitioning/ta/entry.c:112
     112:	4938      	ldr	r1, [pc, #224]	; (1f4 <produce_2+0xec>)
/workspace/benchmark/bad-partitioning/ta/entry.c:110
     114:	f5ad 6dfc 	sub.w	sp, sp, #2016	; 0x7e0
     118:	4604      	mov	r4, r0
     11a:	58d3      	ldr	r3, [r2, r3]
/workspace/benchmark/bad-partitioning/ta/entry.c:112
     11c:	ad03      	add	r5, sp, #12
     11e:	2207      	movs	r2, #7
     120:	4479      	add	r1, pc
     122:	4628      	mov	r0, r5
/workspace/benchmark/bad-partitioning/ta/entry.c:110
     124:	681b      	ldr	r3, [r3, #0]
     126:	f8cd 37dc 	str.w	r3, [sp, #2012]	; 0x7dc
     12a:	f04f 0300 	mov.w	r3, #0
/workspace/benchmark/bad-partitioning/ta/entry.c:112
     12e:	f006 faca 	bl	66c6 <memcpy>
     132:	2100      	movs	r1, #0
     134:	f240 32e1 	movw	r2, #993	; 0x3e1
     138:	f10d 0013 	add.w	r0, sp, #19
     13c:	f006 face 	bl	66dc <memset>
/workspace/benchmark/bad-partitioning/ta/entry.c:113
     140:	492d      	ldr	r1, [pc, #180]	; (1f8 <produce_2+0xf0>)
     142:	aefd      	add	r6, sp, #1012	; 0x3f4
     144:	2205      	movs	r2, #5
     146:	4479      	add	r1, pc
     148:	4630      	mov	r0, r6
     14a:	f006 fabc 	bl	66c6 <memcpy>
/workspace/benchmark/bad-partitioning/ta/entry.c:117
     14e:	f8df 80ac 	ldr.w	r8, [pc, #172]	; 1fc <produce_2+0xf4>
/workspace/benchmark/bad-partitioning/ta/entry.c:113
     152:	2100      	movs	r1, #0
     154:	f240 32e3 	movw	r2, #995	; 0x3e3
     158:	f20d 30f9 	addw	r0, sp, #1017	; 0x3f9
/workspace/benchmark/bad-partitioning/ta/entry.c:121
     15c:	4f28      	ldr	r7, [pc, #160]	; (200 <produce_2+0xf8>)
/workspace/benchmark/bad-partitioning/ta/entry.c:113
     15e:	f006 fabd 	bl	66dc <memset>
/workspace/benchmark/bad-partitioning/ta/entry.c:116
     162:	4628      	mov	r0, r5
     164:	f006 facf 	bl	6706 <strlen>
/workspace/benchmark/bad-partitioning/ta/entry.c:117
     168:	44f8      	add	r8, pc
/workspace/benchmark/bad-partitioning/ta/entry.c:116
     16a:	4602      	mov	r2, r0
     16c:	4629      	mov	r1, r5
     16e:	68a0      	ldr	r0, [r4, #8]
/workspace/benchmark/bad-partitioning/ta/entry.c:121
     170:	447f      	add	r7, pc
/workspace/benchmark/bad-partitioning/ta/entry.c:116
     172:	f001 fbf1 	bl	1958 <TEE_MemMove>
/workspace/benchmark/bad-partitioning/ta/entry.c:117
     176:	6961      	ldr	r1, [r4, #20]
     178:	462b      	mov	r3, r5
     17a:	4642      	mov	r2, r8
     17c:	6920      	ldr	r0, [r4, #16]
     17e:	f006 fa8b 	bl	6698 <snprintf>
/workspace/benchmark/bad-partitioning/ta/entry.c:121
     182:	6961      	ldr	r1, [r4, #20]
/workspace/benchmark/bad-partitioning/ta/entry.c:119
     184:	230a      	movs	r3, #10
/workspace/benchmark/bad-partitioning/ta/entry.c:121
     186:	463a      	mov	r2, r7
/workspace/benchmark/bad-partitioning/ta/entry.c:119
     188:	6023      	str	r3, [r4, #0]
/workspace/benchmark/bad-partitioning/ta/entry.c:121
     18a:	462b      	mov	r3, r5
     18c:	6920      	ldr	r0, [r4, #16]
     18e:	9600      	str	r6, [sp, #0]
     190:	f006 fa82 	bl	6698 <snprintf>
/workspace/benchmark/bad-partitioning/ta/entry.c:122
     194:	4a1b      	ldr	r2, [pc, #108]	; (204 <produce_2+0xfc>)
     196:	6961      	ldr	r1, [r4, #20]
     198:	2364      	movs	r3, #100	; 0x64
     19a:	447a      	add	r2, pc
     19c:	9301      	str	r3, [sp, #4]
     19e:	6920      	ldr	r0, [r4, #16]
     1a0:	462b      	mov	r3, r5
     1a2:	9600      	str	r6, [sp, #0]
     1a4:	f006 fa78 	bl	6698 <snprintf>
/workspace/benchmark/bad-partitioning/ta/entry.c:124
     1a8:	4628      	mov	r0, r5
     1aa:	f7ff ff9b 	bl	e4 <enc>
/workspace/benchmark/bad-partitioning/ta/entry.c:125
     1ae:	6961      	ldr	r1, [r4, #20]
     1b0:	462b      	mov	r3, r5
     1b2:	4642      	mov	r2, r8
     1b4:	6920      	ldr	r0, [r4, #16]
     1b6:	f006 fa6f 	bl	6698 <snprintf>
/workspace/benchmark/bad-partitioning/ta/entry.c:126
     1ba:	462b      	mov	r3, r5
     1bc:	463a      	mov	r2, r7
     1be:	6961      	ldr	r1, [r4, #20]
     1c0:	6920      	ldr	r0, [r4, #16]
     1c2:	9600      	str	r6, [sp, #0]
     1c4:	f006 fa68 	bl	6698 <snprintf>
/workspace/benchmark/bad-partitioning/ta/entry.c:110
     1c8:	4a0f      	ldr	r2, [pc, #60]	; (208 <produce_2+0x100>)
/workspace/benchmark/bad-partitioning/ta/entry.c:127
     1ca:	4b09      	ldr	r3, [pc, #36]	; (1f0 <produce_2+0xe8>)
/workspace/benchmark/bad-partitioning/ta/entry.c:110
     1cc:	447a      	add	r2, pc
/workspace/benchmark/bad-partitioning/ta/entry.c:127
     1ce:	58d3      	ldr	r3, [r2, r3]
     1d0:	681a      	ldr	r2, [r3, #0]
     1d2:	f8dd 37dc 	ldr.w	r3, [sp, #2012]	; 0x7dc
     1d6:	405a      	eors	r2, r3
     1d8:	f04f 0300 	mov.w	r3, #0
     1dc:	d001      	beq.n	1e2 <produce_2+0xda>
     1de:	f006 fa71 	bl	66c4 <__stack_chk_fail>
     1e2:	f50d 6dfc 	add.w	sp, sp, #2016	; 0x7e0
     1e6:	e8bd 81f0 	ldmia.w	sp!, {r4, r5, r6, r7, r8, pc}
     1ea:	bf00      	nop
     1ec:	00007fa8 	.word	0x00007fa8
     1f0:	0000000c 	.word	0x0000000c
     1f4:	00006b23 	.word	0x00006b23
     1f8:	00006b04 	.word	0x00006b04
     1fc:	00006acf 	.word	0x00006acf
     200:	00006ac4 	.word	0x00006ac4
     204:	00006aa0 	.word	0x00006aa0
     208:	00007eec 	.word	0x00007eec

0000020c <produce>:
produce():
/workspace/benchmark/bad-partitioning/ta/entry.c:130
     20c:	4a39      	ldr	r2, [pc, #228]	; (2f4 <produce+0xe8>)
     20e:	4b3a      	ldr	r3, [pc, #232]	; (2f8 <produce+0xec>)
     210:	e92d 41f0 	stmdb	sp!, {r4, r5, r6, r7, r8, lr}
     214:	447a      	add	r2, pc
/workspace/benchmark/bad-partitioning/ta/entry.c:132
     216:	4939      	ldr	r1, [pc, #228]	; (2fc <produce+0xf0>)
/workspace/benchmark/bad-partitioning/ta/entry.c:130
     218:	f5ad 6dfc 	sub.w	sp, sp, #2016	; 0x7e0
     21c:	4604      	mov	r4, r0
     21e:	58d3      	ldr	r3, [r2, r3]
/workspace/benchmark/bad-partitioning/ta/entry.c:132
     220:	ad03      	add	r5, sp, #12
     222:	2207      	movs	r2, #7
     224:	4479      	add	r1, pc
     226:	4628      	mov	r0, r5
/workspace/benchmark/bad-partitioning/ta/entry.c:130
     228:	681b      	ldr	r3, [r3, #0]
     22a:	f8cd 37dc 	str.w	r3, [sp, #2012]	; 0x7dc
     22e:	f04f 0300 	mov.w	r3, #0
/workspace/benchmark/bad-partitioning/ta/entry.c:132
     232:	f006 fa48 	bl	66c6 <memcpy>
     236:	2100      	movs	r1, #0
     238:	f240 32e1 	movw	r2, #993	; 0x3e1
     23c:	f10d 0013 	add.w	r0, sp, #19
     240:	f006 fa4c 	bl	66dc <memset>
/workspace/benchmark/bad-partitioning/ta/entry.c:133
     244:	492e      	ldr	r1, [pc, #184]	; (300 <produce+0xf4>)
     246:	aefd      	add	r6, sp, #1012	; 0x3f4
     248:	2205      	movs	r2, #5
     24a:	4479      	add	r1, pc
     24c:	4630      	mov	r0, r6
     24e:	f006 fa3a 	bl	66c6 <memcpy>
/workspace/benchmark/bad-partitioning/ta/entry.c:137
     252:	f8df 80b0 	ldr.w	r8, [pc, #176]	; 304 <produce+0xf8>
/workspace/benchmark/bad-partitioning/ta/entry.c:133
     256:	2100      	movs	r1, #0
     258:	f240 32e3 	movw	r2, #995	; 0x3e3
     25c:	f20d 30f9 	addw	r0, sp, #1017	; 0x3f9
/workspace/benchmark/bad-partitioning/ta/entry.c:137
     260:	44f8      	add	r8, pc
/workspace/benchmark/bad-partitioning/ta/entry.c:133
     262:	f006 fa3b 	bl	66dc <memset>
/workspace/benchmark/bad-partitioning/ta/entry.c:136
     266:	4628      	mov	r0, r5
     268:	f006 fa4d 	bl	6706 <strlen>
/workspace/benchmark/bad-partitioning/ta/entry.c:143
     26c:	4f26      	ldr	r7, [pc, #152]	; (308 <produce+0xfc>)
/workspace/benchmark/bad-partitioning/ta/entry.c:136
     26e:	4602      	mov	r2, r0
     270:	4629      	mov	r1, r5
     272:	68a0      	ldr	r0, [r4, #8]
/workspace/benchmark/bad-partitioning/ta/entry.c:143
     274:	447f      	add	r7, pc
/workspace/benchmark/bad-partitioning/ta/entry.c:136
     276:	f001 fb6f 	bl	1958 <TEE_MemMove>
/workspace/benchmark/bad-partitioning/ta/entry.c:137
     27a:	6961      	ldr	r1, [r4, #20]
     27c:	4642      	mov	r2, r8
     27e:	462b      	mov	r3, r5
     280:	6920      	ldr	r0, [r4, #16]
     282:	f006 fa09 	bl	6698 <snprintf>
/workspace/benchmark/bad-partitioning/ta/entry.c:139
     286:	230a      	movs	r3, #10
/workspace/benchmark/bad-partitioning/ta/entry.c:141
     288:	4620      	mov	r0, r4
/workspace/benchmark/bad-partitioning/ta/entry.c:139
     28a:	6023      	str	r3, [r4, #0]
/workspace/benchmark/bad-partitioning/ta/entry.c:141
     28c:	f7ff ff3c 	bl	108 <produce_2>
/workspace/benchmark/bad-partitioning/ta/entry.c:143
     290:	6961      	ldr	r1, [r4, #20]
     292:	462b      	mov	r3, r5
     294:	463a      	mov	r2, r7
     296:	6920      	ldr	r0, [r4, #16]
     298:	9600      	str	r6, [sp, #0]
     29a:	f006 f9fd 	bl	6698 <snprintf>
/workspace/benchmark/bad-partitioning/ta/entry.c:144
     29e:	4a1b      	ldr	r2, [pc, #108]	; (30c <produce+0x100>)
     2a0:	6961      	ldr	r1, [r4, #20]
     2a2:	2364      	movs	r3, #100	; 0x64
     2a4:	447a      	add	r2, pc
     2a6:	9301      	str	r3, [sp, #4]
     2a8:	6920      	ldr	r0, [r4, #16]
     2aa:	462b      	mov	r3, r5
     2ac:	9600      	str	r6, [sp, #0]
     2ae:	f006 f9f3 	bl	6698 <snprintf>
/workspace/benchmark/bad-partitioning/ta/entry.c:146
     2b2:	4628      	mov	r0, r5
     2b4:	f7ff ff16 	bl	e4 <enc>
/workspace/benchmark/bad-partitioning/ta/entry.c:147
     2b8:	6961      	ldr	r1, [r4, #20]
     2ba:	462b      	mov	r3, r5
     2bc:	4642      	mov	r2, r8
     2be:	6920      	ldr	r0, [r4, #16]
     2c0:	f006 f9ea 	bl	6698 <snprintf>
/workspace/benchmark/bad-partitioning/ta/entry.c:148
     2c4:	462b      	mov	r3, r5
     2c6:	463a      	mov	r2, r7
     2c8:	6961      	ldr	r1, [r4, #20]
     2ca:	6920      	ldr	r0, [r4, #16]
     2cc:	9600      	str	r6, [sp, #0]
     2ce:	f006 f9e3 	bl	6698 <snprintf>
/workspace/benchmark/bad-partitioning/ta/entry.c:130
     2d2:	4a0f      	ldr	r2, [pc, #60]	; (310 <produce+0x104>)
/workspace/benchmark/bad-partitioning/ta/entry.c:149
     2d4:	4b08      	ldr	r3, [pc, #32]	; (2f8 <produce+0xec>)
/workspace/benchmark/bad-partitioning/ta/entry.c:130
     2d6:	447a      	add	r2, pc
/workspace/benchmark/bad-partitioning/ta/entry.c:149
     2d8:	58d3      	ldr	r3, [r2, r3]
     2da:	681a      	ldr	r2, [r3, #0]
     2dc:	f8dd 37dc 	ldr.w	r3, [sp, #2012]	; 0x7dc
     2e0:	405a      	eors	r2, r3
     2e2:	f04f 0300 	mov.w	r3, #0
     2e6:	d001      	beq.n	2ec <produce+0xe0>
     2e8:	f006 f9ec 	bl	66c4 <__stack_chk_fail>
     2ec:	f50d 6dfc 	add.w	sp, sp, #2016	; 0x7e0
     2f0:	e8bd 81f0 	ldmia.w	sp!, {r4, r5, r6, r7, r8, pc}
     2f4:	00007ea4 	.word	0x00007ea4
     2f8:	0000000c 	.word	0x0000000c
     2fc:	00006a1f 	.word	0x00006a1f
     300:	00006a00 	.word	0x00006a00
     304:	000069d7 	.word	0x000069d7
     308:	000069c0 	.word	0x000069c0
     30c:	00006996 	.word	0x00006996
     310:	00007de2 	.word	0x00007de2

00000314 <produce_3>:
produce_3():
/workspace/benchmark/bad-partitioning/ta/entry.c:152
     314:	4a1c      	ldr	r2, [pc, #112]	; (388 <produce_3+0x74>)
     316:	4b1d      	ldr	r3, [pc, #116]	; (38c <produce_3+0x78>)
     318:	b570      	push	{r4, r5, r6, lr}
     31a:	447a      	add	r2, pc
     31c:	460e      	mov	r6, r1
     31e:	f5ad 7d7c 	sub.w	sp, sp, #1008	; 0x3f0
/workspace/benchmark/bad-partitioning/ta/entry.c:153
     322:	491b      	ldr	r1, [pc, #108]	; (390 <produce_3+0x7c>)
/workspace/benchmark/bad-partitioning/ta/entry.c:152
     324:	58d3      	ldr	r3, [r2, r3]
/workspace/benchmark/bad-partitioning/ta/entry.c:153
     326:	ac01      	add	r4, sp, #4
/workspace/benchmark/bad-partitioning/ta/entry.c:152
     328:	4605      	mov	r5, r0
/workspace/benchmark/bad-partitioning/ta/entry.c:153
     32a:	2207      	movs	r2, #7
     32c:	4479      	add	r1, pc
     32e:	4620      	mov	r0, r4
/workspace/benchmark/bad-partitioning/ta/entry.c:152
     330:	681b      	ldr	r3, [r3, #0]
     332:	93fb      	str	r3, [sp, #1004]	; 0x3ec
     334:	f04f 0300 	mov.w	r3, #0
/workspace/benchmark/bad-partitioning/ta/entry.c:153
     338:	f006 f9c5 	bl	66c6 <memcpy>
     33c:	2100      	movs	r1, #0
     33e:	f240 32e1 	movw	r2, #993	; 0x3e1
     342:	f10d 000b 	add.w	r0, sp, #11
     346:	f006 f9c9 	bl	66dc <memset>
/workspace/benchmark/bad-partitioning/ta/entry.c:154
     34a:	4620      	mov	r0, r4
     34c:	f006 f9db 	bl	6706 <strlen>
     350:	4621      	mov	r1, r4
     352:	4602      	mov	r2, r0
     354:	4628      	mov	r0, r5
     356:	f001 faff 	bl	1958 <TEE_MemMove>
/workspace/benchmark/bad-partitioning/ta/entry.c:155
     35a:	4a0e      	ldr	r2, [pc, #56]	; (394 <produce_3+0x80>)
     35c:	4623      	mov	r3, r4
     35e:	4631      	mov	r1, r6
     360:	447a      	add	r2, pc
     362:	4628      	mov	r0, r5
     364:	f006 f998 	bl	6698 <snprintf>
/workspace/benchmark/bad-partitioning/ta/entry.c:152
     368:	4a0b      	ldr	r2, [pc, #44]	; (398 <produce_3+0x84>)
/workspace/benchmark/bad-partitioning/ta/entry.c:156
     36a:	4b08      	ldr	r3, [pc, #32]	; (38c <produce_3+0x78>)
/workspace/benchmark/bad-partitioning/ta/entry.c:152
     36c:	447a      	add	r2, pc
/workspace/benchmark/bad-partitioning/ta/entry.c:156
     36e:	58d3      	ldr	r3, [r2, r3]
     370:	681a      	ldr	r2, [r3, #0]
     372:	9bfb      	ldr	r3, [sp, #1004]	; 0x3ec
     374:	405a      	eors	r2, r3
     376:	f04f 0300 	mov.w	r3, #0
     37a:	d001      	beq.n	380 <produce_3+0x6c>
     37c:	f006 f9a2 	bl	66c4 <__stack_chk_fail>
     380:	f50d 7d7c 	add.w	sp, sp, #1008	; 0x3f0
     384:	bd70      	pop	{r4, r5, r6, pc}
     386:	bf00      	nop
     388:	00007d9e 	.word	0x00007d9e
     38c:	0000000c 	.word	0x0000000c
     390:	00006917 	.word	0x00006917
     394:	000068d7 	.word	0x000068d7
     398:	00007d4c 	.word	0x00007d4c

0000039c <output>:
output():
/workspace/benchmark/bad-partitioning/ta/entry.c:160
     39c:	4a4c      	ldr	r2, [pc, #304]	; (4d0 <output+0x134>)
     39e:	4b4d      	ldr	r3, [pc, #308]	; (4d4 <output+0x138>)
     3a0:	447a      	add	r2, pc
     3a2:	e92d 47f0 	stmdb	sp!, {r4, r5, r6, r7, r8, r9, sl, lr}
     3a6:	4605      	mov	r5, r0
     3a8:	f5ad 6dfc 	sub.w	sp, sp, #2016	; 0x7e0
/workspace/benchmark/bad-partitioning/ta/entry.c:166
     3ac:	484a      	ldr	r0, [pc, #296]	; (4d8 <output+0x13c>)
/workspace/benchmark/bad-partitioning/ta/entry.c:160
     3ae:	58d3      	ldr	r3, [r2, r3]
     3b0:	460c      	mov	r4, r1
/workspace/benchmark/bad-partitioning/ta/entry.c:166
     3b2:	4478      	add	r0, pc
     3b4:	2203      	movs	r2, #3
/workspace/benchmark/bad-partitioning/ta/entry.c:160
     3b6:	681b      	ldr	r3, [r3, #0]
     3b8:	f8cd 37dc 	str.w	r3, [sp, #2012]	; 0x7dc
     3bc:	f04f 0300 	mov.w	r3, #0
/workspace/benchmark/bad-partitioning/ta/entry.c:166
     3c0:	4b46      	ldr	r3, [pc, #280]	; (4dc <output+0x140>)
     3c2:	21a6      	movs	r1, #166	; 0xa6
     3c4:	305c      	adds	r0, #92	; 0x5c
     3c6:	447b      	add	r3, pc
     3c8:	9300      	str	r3, [sp, #0]
     3ca:	2301      	movs	r3, #1
     3cc:	f001 f85e 	bl	148c <trace_printf>
/workspace/benchmark/bad-partitioning/ta/entry.c:168
     3d0:	f247 7373 	movw	r3, #30579	; 0x7773
     3d4:	429d      	cmp	r5, r3
     3d6:	d173      	bne.n	4c0 <output+0x124>
/workspace/benchmark/bad-partitioning/ta/entry.c:171
     3d8:	4941      	ldr	r1, [pc, #260]	; (4e0 <output+0x144>)
     3da:	ad03      	add	r5, sp, #12
     3dc:	2207      	movs	r2, #7
     3de:	4628      	mov	r0, r5
     3e0:	4479      	add	r1, pc
/workspace/benchmark/bad-partitioning/ta/entry.c:172
     3e2:	aefd      	add	r6, sp, #1012	; 0x3f4
/workspace/benchmark/bad-partitioning/ta/entry.c:171
     3e4:	f006 f96f 	bl	66c6 <memcpy>
     3e8:	2100      	movs	r1, #0
     3ea:	f240 32e1 	movw	r2, #993	; 0x3e1
     3ee:	f10d 0013 	add.w	r0, sp, #19
     3f2:	f006 f973 	bl	66dc <memset>
/workspace/benchmark/bad-partitioning/ta/entry.c:172
     3f6:	493b      	ldr	r1, [pc, #236]	; (4e4 <output+0x148>)
     3f8:	2205      	movs	r2, #5
     3fa:	4630      	mov	r0, r6
     3fc:	4479      	add	r1, pc
/workspace/benchmark/bad-partitioning/ta/entry.c:176
     3fe:	f8df 90e8 	ldr.w	r9, [pc, #232]	; 4e8 <output+0x14c>
/workspace/benchmark/bad-partitioning/ta/entry.c:172
     402:	f006 f960 	bl	66c6 <memcpy>
     406:	2100      	movs	r1, #0
     408:	f240 32e3 	movw	r2, #995	; 0x3e3
     40c:	f20d 30f9 	addw	r0, sp, #1017	; 0x3f9
     410:	f006 f964 	bl	66dc <memset>
/workspace/benchmark/bad-partitioning/ta/entry.c:175
     414:	4628      	mov	r0, r5
     416:	f006 f976 	bl	6706 <strlen>
/workspace/benchmark/bad-partitioning/ta/entry.c:176
     41a:	44f9      	add	r9, pc
/workspace/benchmark/bad-partitioning/ta/entry.c:175
     41c:	4602      	mov	r2, r0
     41e:	4629      	mov	r1, r5
     420:	68a0      	ldr	r0, [r4, #8]
/workspace/benchmark/bad-partitioning/ta/entry.c:185
     422:	f04f 0a64 	mov.w	sl, #100	; 0x64
/workspace/benchmark/bad-partitioning/ta/entry.c:175
     426:	f001 fa97 	bl	1958 <TEE_MemMove>
/workspace/benchmark/bad-partitioning/ta/entry.c:176
     42a:	464a      	mov	r2, r9
     42c:	6961      	ldr	r1, [r4, #20]
     42e:	462b      	mov	r3, r5
     430:	6920      	ldr	r0, [r4, #16]
     432:	f006 f931 	bl	6698 <snprintf>
/workspace/benchmark/bad-partitioning/ta/entry.c:184
     436:	f8df 80b4 	ldr.w	r8, [pc, #180]	; 4ec <output+0x150>
/workspace/benchmark/bad-partitioning/ta/entry.c:179
     43a:	6863      	ldr	r3, [r4, #4]
/workspace/benchmark/bad-partitioning/ta/entry.c:181
     43c:	4620      	mov	r0, r4
/workspace/benchmark/bad-partitioning/ta/entry.c:179
     43e:	6023      	str	r3, [r4, #0]
/workspace/benchmark/bad-partitioning/ta/entry.c:184
     440:	44f8      	add	r8, pc
/workspace/benchmark/bad-partitioning/ta/entry.c:185
     442:	4f2b      	ldr	r7, [pc, #172]	; (4f0 <output+0x154>)
/workspace/benchmark/bad-partitioning/ta/entry.c:181
     444:	f7ff fee2 	bl	20c <produce>
/workspace/benchmark/bad-partitioning/ta/entry.c:182
     448:	68e1      	ldr	r1, [r4, #12]
     44a:	68a0      	ldr	r0, [r4, #8]
/workspace/benchmark/bad-partitioning/ta/entry.c:185
     44c:	447f      	add	r7, pc
/workspace/benchmark/bad-partitioning/ta/entry.c:182
     44e:	f7ff ff61 	bl	314 <produce_3>
/workspace/benchmark/bad-partitioning/ta/entry.c:184
     452:	6961      	ldr	r1, [r4, #20]
     454:	462b      	mov	r3, r5
     456:	4642      	mov	r2, r8
     458:	6920      	ldr	r0, [r4, #16]
     45a:	9600      	str	r6, [sp, #0]
     45c:	f006 f91c 	bl	6698 <snprintf>
/workspace/benchmark/bad-partitioning/ta/entry.c:185
     460:	6961      	ldr	r1, [r4, #20]
     462:	463a      	mov	r2, r7
     464:	462b      	mov	r3, r5
     466:	6920      	ldr	r0, [r4, #16]
     468:	e9cd 6a00 	strd	r6, sl, [sp]
     46c:	f006 f914 	bl	6698 <snprintf>
/workspace/benchmark/bad-partitioning/ta/entry.c:186
     470:	236e      	movs	r3, #110	; 0x6e
/workspace/benchmark/bad-partitioning/ta/entry.c:188
     472:	4628      	mov	r0, r5
/workspace/benchmark/bad-partitioning/ta/entry.c:186
     474:	6023      	str	r3, [r4, #0]
/workspace/benchmark/bad-partitioning/ta/entry.c:188
     476:	f7ff fe35 	bl	e4 <enc>
/workspace/benchmark/bad-partitioning/ta/entry.c:189
     47a:	6961      	ldr	r1, [r4, #20]
     47c:	462b      	mov	r3, r5
     47e:	464a      	mov	r2, r9
     480:	6920      	ldr	r0, [r4, #16]
     482:	f006 f909 	bl	6698 <snprintf>
/workspace/benchmark/bad-partitioning/ta/entry.c:190
     486:	6961      	ldr	r1, [r4, #20]
     488:	462b      	mov	r3, r5
     48a:	4642      	mov	r2, r8
     48c:	6920      	ldr	r0, [r4, #16]
     48e:	9600      	str	r6, [sp, #0]
     490:	f006 f902 	bl	6698 <snprintf>
/workspace/benchmark/bad-partitioning/ta/entry.c:191
     494:	6961      	ldr	r1, [r4, #20]
     496:	6920      	ldr	r0, [r4, #16]
     498:	462b      	mov	r3, r5
     49a:	463a      	mov	r2, r7
     49c:	e9cd 6a00 	strd	r6, sl, [sp]
     4a0:	f006 f8fa 	bl	6698 <snprintf>
/workspace/benchmark/bad-partitioning/ta/entry.c:193
     4a4:	2000      	movs	r0, #0
/workspace/benchmark/bad-partitioning/ta/entry.c:160
     4a6:	4a13      	ldr	r2, [pc, #76]	; (4f4 <output+0x158>)
/workspace/benchmark/bad-partitioning/ta/entry.c:194
     4a8:	4b0a      	ldr	r3, [pc, #40]	; (4d4 <output+0x138>)
/workspace/benchmark/bad-partitioning/ta/entry.c:160
     4aa:	447a      	add	r2, pc
/workspace/benchmark/bad-partitioning/ta/entry.c:194
     4ac:	58d3      	ldr	r3, [r2, r3]
     4ae:	681a      	ldr	r2, [r3, #0]
     4b0:	f8dd 37dc 	ldr.w	r3, [sp, #2012]	; 0x7dc
     4b4:	405a      	eors	r2, r3
     4b6:	f04f 0300 	mov.w	r3, #0
     4ba:	d003      	beq.n	4c4 <output+0x128>
     4bc:	f006 f902 	bl	66c4 <__stack_chk_fail>
/workspace/benchmark/bad-partitioning/ta/entry.c:169
     4c0:	4802      	ldr	r0, [pc, #8]	; (4cc <output+0x130>)
     4c2:	e7f0      	b.n	4a6 <output+0x10a>
/workspace/benchmark/bad-partitioning/ta/entry.c:194
     4c4:	f50d 6dfc 	add.w	sp, sp, #2016	; 0x7e0
     4c8:	e8bd 87f0 	ldmia.w	sp!, {r4, r5, r6, r7, r8, r9, sl, pc}
     4cc:	ffff0006 	.word	0xffff0006
     4d0:	00007d18 	.word	0x00007d18
     4d4:	0000000c 	.word	0x0000000c
     4d8:	000068ac 	.word	0x000068ac
     4dc:	00006846 	.word	0x00006846
     4e0:	00006863 	.word	0x00006863
     4e4:	0000684e 	.word	0x0000684e
     4e8:	0000681d 	.word	0x0000681d
     4ec:	000067f4 	.word	0x000067f4
     4f0:	000067ee 	.word	0x000067ee
     4f4:	00007c0e 	.word	0x00007c0e

000004f8 <produce_i2>:
produce_i2():
/workspace/benchmark/bad-partitioning/ta/entry.c:197
     4f8:	e92d 43f8 	stmdb	sp!, {r3, r4, r5, r6, r7, r8, r9, lr}
     4fc:	4681      	mov	r9, r0
     4fe:	4688      	mov	r8, r1
/workspace/benchmark/bad-partitioning/ta/entry.c:198
     500:	f44f 707a 	mov.w	r0, #1000	; 0x3e8
     504:	2100      	movs	r1, #0
/workspace/benchmark/bad-partitioning/ta/entry.c:197
     506:	4617      	mov	r7, r2
     508:	461e      	mov	r6, r3
     50a:	9d0a      	ldr	r5, [sp, #40]	; 0x28
/workspace/benchmark/bad-partitioning/ta/entry.c:198
     50c:	f001 fa81 	bl	1a12 <TEE_Malloc>
/workspace/benchmark/bad-partitioning/ta/entry.c:201
     510:	2100      	movs	r1, #0
/workspace/benchmark/bad-partitioning/ta/entry.c:198
     512:	4604      	mov	r4, r0
/workspace/benchmark/bad-partitioning/ta/entry.c:201
     514:	4648      	mov	r0, r9
     516:	f001 fa7c 	bl	1a12 <TEE_Malloc>
/workspace/benchmark/bad-partitioning/ta/entry.c:202
     51a:	2100      	movs	r1, #0
     51c:	4640      	mov	r0, r8
     51e:	f001 fa78 	bl	1a12 <TEE_Malloc>
/workspace/benchmark/bad-partitioning/ta/entry.c:204
     522:	2100      	movs	r1, #0
/workspace/benchmark/bad-partitioning/ta/entry.c:204 (discriminator 1)
     524:	42b1      	cmp	r1, r6
     526:	db0b      	blt.n	540 <produce_i2+0x48>
/workspace/benchmark/bad-partitioning/ta/entry.c:208
     528:	69ea      	ldr	r2, [r5, #28]
     52a:	4620      	mov	r0, r4
     52c:	69a9      	ldr	r1, [r5, #24]
     52e:	f001 fa13 	bl	1958 <TEE_MemMove>
/workspace/benchmark/bad-partitioning/ta/entry.c:212
     532:	696a      	ldr	r2, [r5, #20]
     534:	6929      	ldr	r1, [r5, #16]
     536:	4620      	mov	r0, r4
/workspace/benchmark/bad-partitioning/ta/entry.c:213
     538:	e8bd 43f8 	ldmia.w	sp!, {r3, r4, r5, r6, r7, r8, r9, lr}
/workspace/benchmark/bad-partitioning/ta/entry.c:212
     53c:	f001 ba0c 	b.w	1958 <TEE_MemMove>
/workspace/benchmark/bad-partitioning/ta/entry.c:205 (discriminator 3)
     540:	5c7b      	ldrb	r3, [r7, r1]
     542:	5463      	strb	r3, [r4, r1]
/workspace/benchmark/bad-partitioning/ta/entry.c:204 (discriminator 3)
     544:	3101      	adds	r1, #1
     546:	e7ed      	b.n	524 <produce_i2+0x2c>

00000548 <produce_i0>:
produce_i0():
/workspace/benchmark/bad-partitioning/ta/entry.c:216
     548:	e92d 4ff0 	stmdb	sp!, {r4, r5, r6, r7, r8, r9, sl, fp, lr}
     54c:	4680      	mov	r8, r0
     54e:	4689      	mov	r9, r1
     550:	b085      	sub	sp, #20
/workspace/benchmark/bad-partitioning/ta/entry.c:217
     552:	2100      	movs	r1, #0
     554:	f44f 707a 	mov.w	r0, #1000	; 0x3e8
/workspace/benchmark/bad-partitioning/ta/entry.c:216
     558:	461e      	mov	r6, r3
     55a:	4615      	mov	r5, r2
     55c:	e9dd a70e 	ldrd	sl, r7, [sp, #56]	; 0x38
     560:	f8dd b040 	ldr.w	fp, [sp, #64]	; 0x40
/workspace/benchmark/bad-partitioning/ta/entry.c:217
     564:	f001 fa55 	bl	1a12 <TEE_Malloc>
/workspace/benchmark/bad-partitioning/ta/entry.c:220
     568:	2100      	movs	r1, #0
/workspace/benchmark/bad-partitioning/ta/entry.c:217
     56a:	4604      	mov	r4, r0
/workspace/benchmark/bad-partitioning/ta/entry.c:220
     56c:	4640      	mov	r0, r8
     56e:	f001 fa50 	bl	1a12 <TEE_Malloc>
/workspace/benchmark/bad-partitioning/ta/entry.c:221
     572:	2100      	movs	r1, #0
     574:	4648      	mov	r0, r9
     576:	f001 fa4c 	bl	1a12 <TEE_Malloc>
/workspace/benchmark/bad-partitioning/ta/entry.c:223
     57a:	2300      	movs	r3, #0
/workspace/benchmark/bad-partitioning/ta/entry.c:223 (discriminator 1)
     57c:	42b3      	cmp	r3, r6
     57e:	db28      	blt.n	5d2 <produce_i0+0x8a>
/workspace/benchmark/bad-partitioning/ta/entry.c:227
     580:	463a      	mov	r2, r7
     582:	4651      	mov	r1, sl
     584:	4620      	mov	r0, r4
     586:	f001 f9e7 	bl	1958 <TEE_MemMove>
/workspace/benchmark/bad-partitioning/ta/entry.c:229
     58a:	4633      	mov	r3, r6
     58c:	462a      	mov	r2, r5
     58e:	4649      	mov	r1, r9
     590:	4640      	mov	r0, r8
     592:	f8cd b008 	str.w	fp, [sp, #8]
     596:	9701      	str	r7, [sp, #4]
     598:	f8cd a000 	str.w	sl, [sp]
     59c:	f7ff ffac 	bl	4f8 <produce_i2>
/workspace/benchmark/bad-partitioning/ta/entry.c:233
     5a0:	f5b7 7f7a 	cmp.w	r7, #1000	; 0x3e8
     5a4:	dc19      	bgt.n	5da <produce_i0+0x92>
/workspace/benchmark/bad-partitioning/ta/entry.c:238
     5a6:	4632      	mov	r2, r6
     5a8:	4629      	mov	r1, r5
     5aa:	4620      	mov	r0, r4
     5ac:	f001 f9d4 	bl	1958 <TEE_MemMove>
/workspace/benchmark/bad-partitioning/ta/entry.c:239
     5b0:	463a      	mov	r2, r7
     5b2:	4651      	mov	r1, sl
     5b4:	4620      	mov	r0, r4
     5b6:	f001 f9cf 	bl	1958 <TEE_MemMove>
/workspace/benchmark/bad-partitioning/ta/entry.c:241
     5ba:	f5b6 7f7a 	cmp.w	r6, #1000	; 0x3e8
     5be:	db0c      	blt.n	5da <produce_i0+0x92>
/workspace/benchmark/bad-partitioning/ta/entry.c:246
     5c0:	f44f 727a 	mov.w	r2, #1000	; 0x3e8
     5c4:	4621      	mov	r1, r4
     5c6:	4628      	mov	r0, r5
/workspace/benchmark/bad-partitioning/ta/entry.c:247
     5c8:	b005      	add	sp, #20
     5ca:	e8bd 4ff0 	ldmia.w	sp!, {r4, r5, r6, r7, r8, r9, sl, fp, lr}
/workspace/benchmark/bad-partitioning/ta/entry.c:246
     5ce:	f001 b9c3 	b.w	1958 <TEE_MemMove>
/workspace/benchmark/bad-partitioning/ta/entry.c:224 (discriminator 3)
     5d2:	5cea      	ldrb	r2, [r5, r3]
     5d4:	54e2      	strb	r2, [r4, r3]
/workspace/benchmark/bad-partitioning/ta/entry.c:223 (discriminator 3)
     5d6:	3301      	adds	r3, #1
     5d8:	e7d0      	b.n	57c <produce_i0+0x34>
/workspace/benchmark/bad-partitioning/ta/entry.c:247
     5da:	b005      	add	sp, #20
     5dc:	e8bd 8ff0 	ldmia.w	sp!, {r4, r5, r6, r7, r8, r9, sl, fp, pc}

000005e0 <produce_i3>:
produce_i3():
/workspace/benchmark/bad-partitioning/ta/entry.c:250
     5e0:	b510      	push	{r4, lr}
/workspace/benchmark/bad-partitioning/ta/entry.c:251
     5e2:	2100      	movs	r1, #0
/workspace/benchmark/bad-partitioning/ta/entry.c:250
     5e4:	4604      	mov	r4, r0
/workspace/benchmark/bad-partitioning/ta/entry.c:251
     5e6:	f44f 707a 	mov.w	r0, #1000	; 0x3e8
     5ea:	f001 fa12 	bl	1a12 <TEE_Malloc>
/workspace/benchmark/bad-partitioning/ta/entry.c:254
     5ee:	4620      	mov	r0, r4
     5f0:	2100      	movs	r1, #0
/workspace/benchmark/bad-partitioning/ta/entry.c:265
     5f2:	e8bd 4010 	ldmia.w	sp!, {r4, lr}
/workspace/benchmark/bad-partitioning/ta/entry.c:254
     5f6:	f001 ba0c 	b.w	1a12 <TEE_Malloc>

000005fa <produce_s2>:
produce_s2():
/workspace/benchmark/bad-partitioning/ta/entry.c:318
     5fa:	b537      	push	{r0, r1, r2, r4, r5, lr}
     5fc:	4604      	mov	r4, r0
     5fe:	460d      	mov	r5, r1
/workspace/benchmark/bad-partitioning/ta/entry.c:319
     600:	4601      	mov	r1, r0
     602:	4815      	ldr	r0, [pc, #84]	; (658 <produce_s2+0x5e>)
     604:	4478      	add	r0, pc
     606:	f006 f871 	bl	66ec <strcmp>
     60a:	b958      	cbnz	r0, 624 <produce_s2+0x2a>
/workspace/benchmark/bad-partitioning/ta/entry.c:321
     60c:	4813      	ldr	r0, [pc, #76]	; (65c <produce_s2+0x62>)
     60e:	2202      	movs	r2, #2
     610:	4b13      	ldr	r3, [pc, #76]	; (660 <produce_s2+0x66>)
     612:	f240 1141 	movw	r1, #321	; 0x141
     616:	4478      	add	r0, pc
     618:	447b      	add	r3, pc
     61a:	3063      	adds	r0, #99	; 0x63
     61c:	9300      	str	r3, [sp, #0]
     61e:	2301      	movs	r3, #1
     620:	f000 ff34 	bl	148c <trace_printf>
/workspace/benchmark/bad-partitioning/ta/entry.c:324
     624:	490f      	ldr	r1, [pc, #60]	; (664 <produce_s2+0x6a>)
     626:	462a      	mov	r2, r5
     628:	4620      	mov	r0, r4
     62a:	4479      	add	r1, pc
     62c:	f001 f996 	bl	195c <TEE_MemCompare>
     630:	b958      	cbnz	r0, 64a <produce_s2+0x50>
/workspace/benchmark/bad-partitioning/ta/entry.c:327
     632:	480d      	ldr	r0, [pc, #52]	; (668 <produce_s2+0x6e>)
     634:	2202      	movs	r2, #2
     636:	4b0d      	ldr	r3, [pc, #52]	; (66c <produce_s2+0x72>)
     638:	f240 1147 	movw	r1, #327	; 0x147
     63c:	4478      	add	r0, pc
     63e:	447b      	add	r3, pc
     640:	3063      	adds	r0, #99	; 0x63
     642:	9300      	str	r3, [sp, #0]
     644:	2301      	movs	r3, #1
     646:	f000 ff21 	bl	148c <trace_printf>
/workspace/benchmark/bad-partitioning/ta/entry.c:329
     64a:	4620      	mov	r0, r4
/workspace/benchmark/bad-partitioning/ta/entry.c:330
     64c:	b003      	add	sp, #12
     64e:	e8bd 4030 	ldmia.w	sp!, {r4, r5, lr}
/workspace/benchmark/bad-partitioning/ta/entry.c:329
     652:	f7ff bd47 	b.w	e4 <enc>
     656:	bf00      	nop
     658:	0000663f 	.word	0x0000663f
     65c:	00006648 	.word	0x00006648
     660:	00006637 	.word	0x00006637
     664:	00006619 	.word	0x00006619
     668:	00006622 	.word	0x00006622
     66c:	00006619 	.word	0x00006619

00000670 <produce_s>:
produce_s():
/workspace/benchmark/bad-partitioning/ta/entry.c:333
     670:	4a2b      	ldr	r2, [pc, #172]	; (720 <produce_s+0xb0>)
     672:	4b2c      	ldr	r3, [pc, #176]	; (724 <produce_s+0xb4>)
     674:	447a      	add	r2, pc
     676:	b570      	push	{r4, r5, r6, lr}
     678:	4604      	mov	r4, r0
     67a:	460d      	mov	r5, r1
/workspace/benchmark/bad-partitioning/ta/entry.c:334
     67c:	4601      	mov	r1, r0
     67e:	482a      	ldr	r0, [pc, #168]	; (728 <produce_s+0xb8>)
/workspace/benchmark/bad-partitioning/ta/entry.c:333
     680:	f5ad 7d7e 	sub.w	sp, sp, #1016	; 0x3f8
     684:	58d3      	ldr	r3, [r2, r3]
/workspace/benchmark/bad-partitioning/ta/entry.c:334
     686:	4478      	add	r0, pc
/workspace/benchmark/bad-partitioning/ta/entry.c:333
     688:	681b      	ldr	r3, [r3, #0]
     68a:	93fd      	str	r3, [sp, #1012]	; 0x3f4
     68c:	f04f 0300 	mov.w	r3, #0
/workspace/benchmark/bad-partitioning/ta/entry.c:334
     690:	f006 f82c 	bl	66ec <strcmp>
     694:	b958      	cbnz	r0, 6ae <produce_s+0x3e>
/workspace/benchmark/bad-partitioning/ta/entry.c:336
     696:	4825      	ldr	r0, [pc, #148]	; (72c <produce_s+0xbc>)
     698:	2202      	movs	r2, #2
     69a:	4b25      	ldr	r3, [pc, #148]	; (730 <produce_s+0xc0>)
     69c:	f44f 71a8 	mov.w	r1, #336	; 0x150
     6a0:	4478      	add	r0, pc
     6a2:	447b      	add	r3, pc
     6a4:	306e      	adds	r0, #110	; 0x6e
     6a6:	9300      	str	r3, [sp, #0]
     6a8:	2301      	movs	r3, #1
     6aa:	f000 feef 	bl	148c <trace_printf>
/workspace/benchmark/bad-partitioning/ta/entry.c:338
     6ae:	4620      	mov	r0, r4
     6b0:	f7ff fd18 	bl	e4 <enc>
/workspace/benchmark/bad-partitioning/ta/entry.c:340
     6b4:	491f      	ldr	r1, [pc, #124]	; (734 <produce_s+0xc4>)
     6b6:	462a      	mov	r2, r5
     6b8:	4620      	mov	r0, r4
     6ba:	4479      	add	r1, pc
     6bc:	f001 f94e 	bl	195c <TEE_MemCompare>
     6c0:	b958      	cbnz	r0, 6da <produce_s+0x6a>
/workspace/benchmark/bad-partitioning/ta/entry.c:343
     6c2:	481d      	ldr	r0, [pc, #116]	; (738 <produce_s+0xc8>)
     6c4:	2202      	movs	r2, #2
     6c6:	4b1d      	ldr	r3, [pc, #116]	; (73c <produce_s+0xcc>)
     6c8:	f240 1157 	movw	r1, #343	; 0x157
     6cc:	4478      	add	r0, pc
     6ce:	447b      	add	r3, pc
     6d0:	306e      	adds	r0, #110	; 0x6e
     6d2:	9300      	str	r3, [sp, #0]
     6d4:	2301      	movs	r3, #1
     6d6:	f000 fed9 	bl	148c <trace_printf>
/workspace/benchmark/bad-partitioning/ta/entry.c:346
     6da:	f5b5 7f7a 	cmp.w	r5, #1000	; 0x3e8
     6de:	dc10      	bgt.n	702 <produce_s+0x92>
/workspace/benchmark/bad-partitioning/ta/entry.c:349
     6e0:	2100      	movs	r1, #0
     6e2:	f44f 7279 	mov.w	r2, #996	; 0x3e4
     6e6:	ae03      	add	r6, sp, #12
     6e8:	a804      	add	r0, sp, #16
     6ea:	9103      	str	r1, [sp, #12]
     6ec:	f005 fff6 	bl	66dc <memset>
/workspace/benchmark/bad-partitioning/ta/entry.c:350
     6f0:	4621      	mov	r1, r4
     6f2:	462a      	mov	r2, r5
     6f4:	4630      	mov	r0, r6
     6f6:	f001 f92f 	bl	1958 <TEE_MemMove>
/workspace/benchmark/bad-partitioning/ta/entry.c:352
     6fa:	4629      	mov	r1, r5
     6fc:	4620      	mov	r0, r4
     6fe:	f7ff ff7c 	bl	5fa <produce_s2>
/workspace/benchmark/bad-partitioning/ta/entry.c:333
     702:	4a0f      	ldr	r2, [pc, #60]	; (740 <produce_s+0xd0>)
/workspace/benchmark/bad-partitioning/ta/entry.c:353
     704:	4b07      	ldr	r3, [pc, #28]	; (724 <produce_s+0xb4>)
/workspace/benchmark/bad-partitioning/ta/entry.c:333
     706:	447a      	add	r2, pc
/workspace/benchmark/bad-partitioning/ta/entry.c:353
     708:	58d3      	ldr	r3, [r2, r3]
     70a:	681a      	ldr	r2, [r3, #0]
     70c:	9bfd      	ldr	r3, [sp, #1012]	; 0x3f4
     70e:	405a      	eors	r2, r3
     710:	f04f 0300 	mov.w	r3, #0
     714:	d001      	beq.n	71a <produce_s+0xaa>
     716:	f005 ffd5 	bl	66c4 <__stack_chk_fail>
     71a:	f50d 7d7e 	add.w	sp, sp, #1016	; 0x3f8
     71e:	bd70      	pop	{r4, r5, r6, pc}
     720:	00007a44 	.word	0x00007a44
     724:	0000000c 	.word	0x0000000c
     728:	000065bd 	.word	0x000065bd
     72c:	000065be 	.word	0x000065be
     730:	000065ad 	.word	0x000065ad
     734:	00006589 	.word	0x00006589
     738:	00006592 	.word	0x00006592
     73c:	00006589 	.word	0x00006589
     740:	000079b2 	.word	0x000079b2

00000744 <produce_s3>:
produce_s3():
/workspace/benchmark/bad-partitioning/ta/entry.c:356
     744:	4a61      	ldr	r2, [pc, #388]	; (8cc <produce_s3+0x188>)
     746:	4b62      	ldr	r3, [pc, #392]	; (8d0 <produce_s3+0x18c>)
     748:	447a      	add	r2, pc
     74a:	b570      	push	{r4, r5, r6, lr}
     74c:	4604      	mov	r4, r0
/workspace/benchmark/bad-partitioning/ta/entry.c:358
     74e:	e9d0 5600 	ldrd	r5, r6, [r0]
/workspace/benchmark/bad-partitioning/ta/entry.c:356
     752:	f5ad 7d7e 	sub.w	sp, sp, #1016	; 0x3f8
/workspace/benchmark/bad-partitioning/ta/entry.c:359
     756:	485f      	ldr	r0, [pc, #380]	; (8d4 <produce_s3+0x190>)
/workspace/benchmark/bad-partitioning/ta/entry.c:356
     758:	58d3      	ldr	r3, [r2, r3]
/workspace/benchmark/bad-partitioning/ta/entry.c:359
     75a:	4629      	mov	r1, r5
     75c:	4478      	add	r0, pc
/workspace/benchmark/bad-partitioning/ta/entry.c:356
     75e:	681b      	ldr	r3, [r3, #0]
     760:	93fd      	str	r3, [sp, #1012]	; 0x3f4
     762:	f04f 0300 	mov.w	r3, #0
/workspace/benchmark/bad-partitioning/ta/entry.c:359
     766:	f005 ffc1 	bl	66ec <strcmp>
     76a:	b958      	cbnz	r0, 784 <produce_s3+0x40>
/workspace/benchmark/bad-partitioning/ta/entry.c:361
     76c:	485a      	ldr	r0, [pc, #360]	; (8d8 <produce_s3+0x194>)
     76e:	2202      	movs	r2, #2
     770:	4b5a      	ldr	r3, [pc, #360]	; (8dc <produce_s3+0x198>)
     772:	f240 1169 	movw	r1, #361	; 0x169
     776:	4478      	add	r0, pc
     778:	447b      	add	r3, pc
     77a:	3078      	adds	r0, #120	; 0x78
     77c:	9300      	str	r3, [sp, #0]
     77e:	2301      	movs	r3, #1
     780:	f000 fe84 	bl	148c <trace_printf>
/workspace/benchmark/bad-partitioning/ta/entry.c:364
     784:	4628      	mov	r0, r5
     786:	f7ff fcad 	bl	e4 <enc>
/workspace/benchmark/bad-partitioning/ta/entry.c:366
     78a:	4955      	ldr	r1, [pc, #340]	; (8e0 <produce_s3+0x19c>)
     78c:	6862      	ldr	r2, [r4, #4]
     78e:	6820      	ldr	r0, [r4, #0]
     790:	4479      	add	r1, pc
     792:	f001 f8e3 	bl	195c <TEE_MemCompare>
     796:	b958      	cbnz	r0, 7b0 <produce_s3+0x6c>
/workspace/benchmark/bad-partitioning/ta/entry.c:369
     798:	4852      	ldr	r0, [pc, #328]	; (8e4 <produce_s3+0x1a0>)
     79a:	2202      	movs	r2, #2
     79c:	4b52      	ldr	r3, [pc, #328]	; (8e8 <produce_s3+0x1a4>)
     79e:	f240 1171 	movw	r1, #369	; 0x171
     7a2:	4478      	add	r0, pc
     7a4:	447b      	add	r3, pc
     7a6:	3078      	adds	r0, #120	; 0x78
     7a8:	9300      	str	r3, [sp, #0]
     7aa:	2301      	movs	r3, #1
     7ac:	f000 fe6e 	bl	148c <trace_printf>
/workspace/benchmark/bad-partitioning/ta/entry.c:372
     7b0:	484e      	ldr	r0, [pc, #312]	; (8ec <produce_s3+0x1a8>)
     7b2:	e9d4 1200 	ldrd	r1, r2, [r4]
     7b6:	4478      	add	r0, pc
     7b8:	f001 f8d0 	bl	195c <TEE_MemCompare>
     7bc:	b958      	cbnz	r0, 7d6 <produce_s3+0x92>
/workspace/benchmark/bad-partitioning/ta/entry.c:375
     7be:	484c      	ldr	r0, [pc, #304]	; (8f0 <produce_s3+0x1ac>)
     7c0:	2202      	movs	r2, #2
     7c2:	4b4c      	ldr	r3, [pc, #304]	; (8f4 <produce_s3+0x1b0>)
     7c4:	f240 1177 	movw	r1, #375	; 0x177
     7c8:	4478      	add	r0, pc
     7ca:	447b      	add	r3, pc
     7cc:	3078      	adds	r0, #120	; 0x78
     7ce:	9300      	str	r3, [sp, #0]
     7d0:	2301      	movs	r3, #1
     7d2:	f000 fe5b 	bl	148c <trace_printf>
/workspace/benchmark/bad-partitioning/ta/entry.c:378
     7d6:	4848      	ldr	r0, [pc, #288]	; (8f8 <produce_s3+0x1b4>)
     7d8:	4632      	mov	r2, r6
     7da:	4629      	mov	r1, r5
     7dc:	4478      	add	r0, pc
     7de:	f001 f8bd 	bl	195c <TEE_MemCompare>
     7e2:	b958      	cbnz	r0, 7fc <produce_s3+0xb8>
/workspace/benchmark/bad-partitioning/ta/entry.c:381
     7e4:	4845      	ldr	r0, [pc, #276]	; (8fc <produce_s3+0x1b8>)
     7e6:	2202      	movs	r2, #2
     7e8:	4b45      	ldr	r3, [pc, #276]	; (900 <produce_s3+0x1bc>)
     7ea:	f240 117d 	movw	r1, #381	; 0x17d
     7ee:	4478      	add	r0, pc
     7f0:	447b      	add	r3, pc
     7f2:	3078      	adds	r0, #120	; 0x78
     7f4:	9300      	str	r3, [sp, #0]
     7f6:	2301      	movs	r3, #1
     7f8:	f000 fe48 	bl	148c <trace_printf>
/workspace/benchmark/bad-partitioning/ta/entry.c:384
     7fc:	4941      	ldr	r1, [pc, #260]	; (904 <produce_s3+0x1c0>)
     7fe:	6820      	ldr	r0, [r4, #0]
     800:	4479      	add	r1, pc
     802:	f005 ff73 	bl	66ec <strcmp>
     806:	b958      	cbnz	r0, 820 <produce_s3+0xdc>
/workspace/benchmark/bad-partitioning/ta/entry.c:386
     808:	483f      	ldr	r0, [pc, #252]	; (908 <produce_s3+0x1c4>)
     80a:	2202      	movs	r2, #2
     80c:	4b3f      	ldr	r3, [pc, #252]	; (90c <produce_s3+0x1c8>)
     80e:	f44f 71c1 	mov.w	r1, #386	; 0x182
     812:	4478      	add	r0, pc
     814:	447b      	add	r3, pc
     816:	3078      	adds	r0, #120	; 0x78
     818:	9300      	str	r3, [sp, #0]
     81a:	2301      	movs	r3, #1
     81c:	f000 fe36 	bl	148c <trace_printf>
/workspace/benchmark/bad-partitioning/ta/entry.c:389
     820:	483b      	ldr	r0, [pc, #236]	; (910 <produce_s3+0x1cc>)
     822:	6821      	ldr	r1, [r4, #0]
     824:	4478      	add	r0, pc
     826:	f005 ff61 	bl	66ec <strcmp>
     82a:	b958      	cbnz	r0, 844 <produce_s3+0x100>
/workspace/benchmark/bad-partitioning/ta/entry.c:390
     82c:	4839      	ldr	r0, [pc, #228]	; (914 <produce_s3+0x1d0>)
     82e:	2202      	movs	r2, #2
     830:	4b39      	ldr	r3, [pc, #228]	; (918 <produce_s3+0x1d4>)
     832:	f44f 71c3 	mov.w	r1, #390	; 0x186
     836:	4478      	add	r0, pc
     838:	447b      	add	r3, pc
     83a:	3078      	adds	r0, #120	; 0x78
     83c:	9300      	str	r3, [sp, #0]
     83e:	2301      	movs	r3, #1
     840:	f000 fe24 	bl	148c <trace_printf>
/workspace/benchmark/bad-partitioning/ta/entry.c:393
     844:	4935      	ldr	r1, [pc, #212]	; (91c <produce_s3+0x1d8>)
     846:	4628      	mov	r0, r5
     848:	4479      	add	r1, pc
     84a:	f005 ff4f 	bl	66ec <strcmp>
     84e:	b958      	cbnz	r0, 868 <produce_s3+0x124>
/workspace/benchmark/bad-partitioning/ta/entry.c:394
     850:	4833      	ldr	r0, [pc, #204]	; (920 <produce_s3+0x1dc>)
     852:	2202      	movs	r2, #2
     854:	4b33      	ldr	r3, [pc, #204]	; (924 <produce_s3+0x1e0>)
     856:	f44f 71c5 	mov.w	r1, #394	; 0x18a
     85a:	4478      	add	r0, pc
     85c:	447b      	add	r3, pc
     85e:	3078      	adds	r0, #120	; 0x78
     860:	9300      	str	r3, [sp, #0]
     862:	2301      	movs	r3, #1
     864:	f000 fe12 	bl	148c <trace_printf>
/workspace/benchmark/bad-partitioning/ta/entry.c:397
     868:	f5b6 7f7a 	cmp.w	r6, #1000	; 0x3e8
     86c:	d81e      	bhi.n	8ac <produce_s3+0x168>
/workspace/benchmark/bad-partitioning/ta/entry.c:400
     86e:	ad03      	add	r5, sp, #12
     870:	2100      	movs	r1, #0
     872:	f44f 7279 	mov.w	r2, #996	; 0x3e4
     876:	a804      	add	r0, sp, #16
     878:	6029      	str	r1, [r5, #0]
     87a:	f005 ff2f 	bl	66dc <memset>
/workspace/benchmark/bad-partitioning/ta/entry.c:401
     87e:	e9d4 1200 	ldrd	r1, r2, [r4]
     882:	4628      	mov	r0, r5
     884:	f001 f868 	bl	1958 <TEE_MemMove>
/workspace/benchmark/bad-partitioning/ta/entry.c:403
     888:	4827      	ldr	r0, [pc, #156]	; (928 <produce_s3+0x1e4>)
     88a:	4629      	mov	r1, r5
     88c:	4478      	add	r0, pc
     88e:	f005 ff2d 	bl	66ec <strcmp>
     892:	b158      	cbz	r0, 8ac <produce_s3+0x168>
/workspace/benchmark/bad-partitioning/ta/entry.c:405
     894:	4825      	ldr	r0, [pc, #148]	; (92c <produce_s3+0x1e8>)
     896:	2202      	movs	r2, #2
     898:	4b25      	ldr	r3, [pc, #148]	; (930 <produce_s3+0x1ec>)
     89a:	f240 1195 	movw	r1, #405	; 0x195
     89e:	4478      	add	r0, pc
     8a0:	447b      	add	r3, pc
     8a2:	3078      	adds	r0, #120	; 0x78
     8a4:	9300      	str	r3, [sp, #0]
     8a6:	2301      	movs	r3, #1
     8a8:	f000 fdf0 	bl	148c <trace_printf>
/workspace/benchmark/bad-partitioning/ta/entry.c:356
     8ac:	4a21      	ldr	r2, [pc, #132]	; (934 <produce_s3+0x1f0>)
/workspace/benchmark/bad-partitioning/ta/entry.c:409
     8ae:	4b08      	ldr	r3, [pc, #32]	; (8d0 <produce_s3+0x18c>)
/workspace/benchmark/bad-partitioning/ta/entry.c:356
     8b0:	447a      	add	r2, pc
/workspace/benchmark/bad-partitioning/ta/entry.c:409
     8b2:	58d3      	ldr	r3, [r2, r3]
     8b4:	681a      	ldr	r2, [r3, #0]
     8b6:	9bfd      	ldr	r3, [sp, #1012]	; 0x3f4
     8b8:	405a      	eors	r2, r3
     8ba:	f04f 0300 	mov.w	r3, #0
     8be:	d001      	beq.n	8c4 <produce_s3+0x180>
     8c0:	f005 ff00 	bl	66c4 <__stack_chk_fail>
     8c4:	f50d 7d7e 	add.w	sp, sp, #1016	; 0x3f8
     8c8:	bd70      	pop	{r4, r5, r6, pc}
     8ca:	bf00      	nop
     8cc:	00007970 	.word	0x00007970
     8d0:	0000000c 	.word	0x0000000c
     8d4:	000064e7 	.word	0x000064e7
     8d8:	000064e8 	.word	0x000064e8
     8dc:	000064d7 	.word	0x000064d7
     8e0:	000064b3 	.word	0x000064b3
     8e4:	000064bc 	.word	0x000064bc
     8e8:	000064b3 	.word	0x000064b3
     8ec:	0000648d 	.word	0x0000648d
     8f0:	00006496 	.word	0x00006496
     8f4:	0000648d 	.word	0x0000648d
     8f8:	00006467 	.word	0x00006467
     8fc:	00006470 	.word	0x00006470
     900:	00006467 	.word	0x00006467
     904:	00006443 	.word	0x00006443
     908:	0000644c 	.word	0x0000644c
     90c:	00006443 	.word	0x00006443
     910:	0000641f 	.word	0x0000641f
     914:	00006428 	.word	0x00006428
     918:	0000641f 	.word	0x0000641f
     91c:	000063fb 	.word	0x000063fb
     920:	00006404 	.word	0x00006404
     924:	000063fb 	.word	0x000063fb
     928:	000063b7 	.word	0x000063b7
     92c:	000063c0 	.word	0x000063c0
     930:	000063af 	.word	0x000063af
     934:	00007808 	.word	0x00007808

00000938 <shared_memory>:
shared_memory():
/workspace/benchmark/bad-partitioning/ta/entry.c:413
     938:	4a7f      	ldr	r2, [pc, #508]	; (b38 <shared_memory+0x200>)
/workspace/benchmark/bad-partitioning/ta/entry.c:419
     93a:	2807      	cmp	r0, #7
/workspace/benchmark/bad-partitioning/ta/entry.c:413
     93c:	4b7f      	ldr	r3, [pc, #508]	; (b3c <shared_memory+0x204>)
     93e:	447a      	add	r2, pc
     940:	b5f0      	push	{r4, r5, r6, r7, lr}
     942:	460c      	mov	r4, r1
     944:	f5ad 7d7f 	sub.w	sp, sp, #1020	; 0x3fc
     948:	58d3      	ldr	r3, [r2, r3]
     94a:	681b      	ldr	r3, [r3, #0]
     94c:	93fd      	str	r3, [sp, #1012]	; 0x3f4
     94e:	f04f 0300 	mov.w	r3, #0
/workspace/benchmark/bad-partitioning/ta/entry.c:419
     952:	d00d      	beq.n	970 <shared_memory+0x38>
/workspace/benchmark/bad-partitioning/ta/entry.c:420
     954:	4877      	ldr	r0, [pc, #476]	; (b34 <shared_memory+0x1fc>)
/workspace/benchmark/bad-partitioning/ta/entry.c:413
     956:	4a7a      	ldr	r2, [pc, #488]	; (b40 <shared_memory+0x208>)
/workspace/benchmark/bad-partitioning/ta/entry.c:493
     958:	4b78      	ldr	r3, [pc, #480]	; (b3c <shared_memory+0x204>)
/workspace/benchmark/bad-partitioning/ta/entry.c:413
     95a:	447a      	add	r2, pc
/workspace/benchmark/bad-partitioning/ta/entry.c:493
     95c:	58d3      	ldr	r3, [r2, r3]
     95e:	681a      	ldr	r2, [r3, #0]
     960:	9bfd      	ldr	r3, [sp, #1012]	; 0x3f4
     962:	405a      	eors	r2, r3
     964:	f04f 0300 	mov.w	r3, #0
     968:	f000 80e0 	beq.w	b2c <shared_memory+0x1f4>
     96c:	f005 feaa 	bl	66c4 <__stack_chk_fail>
/workspace/benchmark/bad-partitioning/ta/entry.c:423
     970:	e9d1 5600 	ldrd	r5, r6, [r1]
/workspace/benchmark/bad-partitioning/ta/entry.c:425
     974:	4873      	ldr	r0, [pc, #460]	; (b44 <shared_memory+0x20c>)
     976:	4629      	mov	r1, r5
     978:	4478      	add	r0, pc
     97a:	f005 feb7 	bl	66ec <strcmp>
     97e:	b958      	cbnz	r0, 998 <shared_memory+0x60>
/workspace/benchmark/bad-partitioning/ta/entry.c:427
     980:	4871      	ldr	r0, [pc, #452]	; (b48 <shared_memory+0x210>)
     982:	2202      	movs	r2, #2
     984:	4b71      	ldr	r3, [pc, #452]	; (b4c <shared_memory+0x214>)
     986:	f240 11ab 	movw	r1, #427	; 0x1ab
     98a:	4478      	add	r0, pc
     98c:	447b      	add	r3, pc
     98e:	3083      	adds	r0, #131	; 0x83
     990:	9300      	str	r3, [sp, #0]
     992:	2301      	movs	r3, #1
     994:	f000 fd7a 	bl	148c <trace_printf>
/workspace/benchmark/bad-partitioning/ta/entry.c:430
     998:	f241 3088 	movw	r0, #5000	; 0x1388
     99c:	f000 ffed 	bl	197a <TEE_Wait>
/workspace/benchmark/bad-partitioning/ta/entry.c:432
     9a0:	486b      	ldr	r0, [pc, #428]	; (b50 <shared_memory+0x218>)
     9a2:	4629      	mov	r1, r5
     9a4:	4478      	add	r0, pc
     9a6:	f005 fea1 	bl	66ec <strcmp>
     9aa:	b158      	cbz	r0, 9c4 <shared_memory+0x8c>
/workspace/benchmark/bad-partitioning/ta/entry.c:434
     9ac:	4869      	ldr	r0, [pc, #420]	; (b54 <shared_memory+0x21c>)
     9ae:	2202      	movs	r2, #2
     9b0:	4b69      	ldr	r3, [pc, #420]	; (b58 <shared_memory+0x220>)
     9b2:	f44f 71d9 	mov.w	r1, #434	; 0x1b2
     9b6:	4478      	add	r0, pc
     9b8:	447b      	add	r3, pc
     9ba:	3083      	adds	r0, #131	; 0x83
     9bc:	9300      	str	r3, [sp, #0]
     9be:	2301      	movs	r3, #1
     9c0:	f000 fd64 	bl	148c <trace_printf>
/workspace/benchmark/bad-partitioning/ta/entry.c:437
     9c4:	4965      	ldr	r1, [pc, #404]	; (b5c <shared_memory+0x224>)
     9c6:	4632      	mov	r2, r6
     9c8:	4628      	mov	r0, r5
     9ca:	4479      	add	r1, pc
     9cc:	f000 ffc6 	bl	195c <TEE_MemCompare>
     9d0:	b958      	cbnz	r0, 9ea <shared_memory+0xb2>
/workspace/benchmark/bad-partitioning/ta/entry.c:440
     9d2:	4863      	ldr	r0, [pc, #396]	; (b60 <shared_memory+0x228>)
     9d4:	2202      	movs	r2, #2
     9d6:	4b63      	ldr	r3, [pc, #396]	; (b64 <shared_memory+0x22c>)
     9d8:	f44f 71dc 	mov.w	r1, #440	; 0x1b8
     9dc:	4478      	add	r0, pc
     9de:	447b      	add	r3, pc
     9e0:	3083      	adds	r0, #131	; 0x83
     9e2:	9300      	str	r3, [sp, #0]
     9e4:	2301      	movs	r3, #1
     9e6:	f000 fd51 	bl	148c <trace_printf>
/workspace/benchmark/bad-partitioning/ta/entry.c:443
     9ea:	4628      	mov	r0, r5
     9ec:	f7ff fb7a 	bl	e4 <enc>
/workspace/benchmark/bad-partitioning/ta/entry.c:445
     9f0:	495d      	ldr	r1, [pc, #372]	; (b68 <shared_memory+0x230>)
     9f2:	6862      	ldr	r2, [r4, #4]
     9f4:	6820      	ldr	r0, [r4, #0]
     9f6:	4479      	add	r1, pc
     9f8:	f000 ffb0 	bl	195c <TEE_MemCompare>
     9fc:	b958      	cbnz	r0, a16 <shared_memory+0xde>
/workspace/benchmark/bad-partitioning/ta/entry.c:448
     9fe:	485b      	ldr	r0, [pc, #364]	; (b6c <shared_memory+0x234>)
     a00:	2202      	movs	r2, #2
     a02:	4b5b      	ldr	r3, [pc, #364]	; (b70 <shared_memory+0x238>)
     a04:	f44f 71e0 	mov.w	r1, #448	; 0x1c0
     a08:	4478      	add	r0, pc
     a0a:	447b      	add	r3, pc
     a0c:	3083      	adds	r0, #131	; 0x83
     a0e:	9300      	str	r3, [sp, #0]
     a10:	2301      	movs	r3, #1
     a12:	f000 fd3b 	bl	148c <trace_printf>
/workspace/benchmark/bad-partitioning/ta/entry.c:451
     a16:	4857      	ldr	r0, [pc, #348]	; (b74 <shared_memory+0x23c>)
     a18:	e9d4 1200 	ldrd	r1, r2, [r4]
     a1c:	4478      	add	r0, pc
     a1e:	f000 ff9d 	bl	195c <TEE_MemCompare>
     a22:	b958      	cbnz	r0, a3c <shared_memory+0x104>
/workspace/benchmark/bad-partitioning/ta/entry.c:454
     a24:	4854      	ldr	r0, [pc, #336]	; (b78 <shared_memory+0x240>)
     a26:	2202      	movs	r2, #2
     a28:	4b54      	ldr	r3, [pc, #336]	; (b7c <shared_memory+0x244>)
     a2a:	f44f 71e3 	mov.w	r1, #454	; 0x1c6
     a2e:	4478      	add	r0, pc
     a30:	447b      	add	r3, pc
     a32:	3083      	adds	r0, #131	; 0x83
     a34:	9300      	str	r3, [sp, #0]
     a36:	2301      	movs	r3, #1
     a38:	f000 fd28 	bl	148c <trace_printf>
/workspace/benchmark/bad-partitioning/ta/entry.c:457
     a3c:	4850      	ldr	r0, [pc, #320]	; (b80 <shared_memory+0x248>)
     a3e:	4632      	mov	r2, r6
     a40:	4629      	mov	r1, r5
     a42:	4478      	add	r0, pc
     a44:	f000 ff8a 	bl	195c <TEE_MemCompare>
     a48:	b958      	cbnz	r0, a62 <shared_memory+0x12a>
/workspace/benchmark/bad-partitioning/ta/entry.c:460
     a4a:	484e      	ldr	r0, [pc, #312]	; (b84 <shared_memory+0x24c>)
     a4c:	2202      	movs	r2, #2
     a4e:	4b4e      	ldr	r3, [pc, #312]	; (b88 <shared_memory+0x250>)
     a50:	f44f 71e6 	mov.w	r1, #460	; 0x1cc
     a54:	4478      	add	r0, pc
     a56:	447b      	add	r3, pc
     a58:	3083      	adds	r0, #131	; 0x83
     a5a:	9300      	str	r3, [sp, #0]
     a5c:	2301      	movs	r3, #1
     a5e:	f000 fd15 	bl	148c <trace_printf>
/workspace/benchmark/bad-partitioning/ta/entry.c:463
     a62:	494a      	ldr	r1, [pc, #296]	; (b8c <shared_memory+0x254>)
     a64:	6820      	ldr	r0, [r4, #0]
     a66:	4479      	add	r1, pc
     a68:	f005 fe40 	bl	66ec <strcmp>
     a6c:	b958      	cbnz	r0, a86 <shared_memory+0x14e>
/workspace/benchmark/bad-partitioning/ta/entry.c:465
     a6e:	4848      	ldr	r0, [pc, #288]	; (b90 <shared_memory+0x258>)
     a70:	2202      	movs	r2, #2
     a72:	4b48      	ldr	r3, [pc, #288]	; (b94 <shared_memory+0x25c>)
     a74:	f240 11d1 	movw	r1, #465	; 0x1d1
     a78:	4478      	add	r0, pc
     a7a:	447b      	add	r3, pc
     a7c:	3083      	adds	r0, #131	; 0x83
     a7e:	9300      	str	r3, [sp, #0]
     a80:	2301      	movs	r3, #1
     a82:	f000 fd03 	bl	148c <trace_printf>
/workspace/benchmark/bad-partitioning/ta/entry.c:468
     a86:	4844      	ldr	r0, [pc, #272]	; (b98 <shared_memory+0x260>)
     a88:	6821      	ldr	r1, [r4, #0]
     a8a:	4478      	add	r0, pc
     a8c:	f005 fe2e 	bl	66ec <strcmp>
     a90:	b958      	cbnz	r0, aaa <shared_memory+0x172>
/workspace/benchmark/bad-partitioning/ta/entry.c:469
     a92:	4842      	ldr	r0, [pc, #264]	; (b9c <shared_memory+0x264>)
     a94:	2202      	movs	r2, #2
     a96:	4b42      	ldr	r3, [pc, #264]	; (ba0 <shared_memory+0x268>)
     a98:	f240 11d5 	movw	r1, #469	; 0x1d5
     a9c:	4478      	add	r0, pc
     a9e:	447b      	add	r3, pc
     aa0:	3083      	adds	r0, #131	; 0x83
     aa2:	9300      	str	r3, [sp, #0]
     aa4:	2301      	movs	r3, #1
     aa6:	f000 fcf1 	bl	148c <trace_printf>
/workspace/benchmark/bad-partitioning/ta/entry.c:472
     aaa:	493e      	ldr	r1, [pc, #248]	; (ba4 <shared_memory+0x26c>)
     aac:	4628      	mov	r0, r5
     aae:	4479      	add	r1, pc
     ab0:	f005 fe1c 	bl	66ec <strcmp>
     ab4:	b958      	cbnz	r0, ace <shared_memory+0x196>
/workspace/benchmark/bad-partitioning/ta/entry.c:473
     ab6:	483c      	ldr	r0, [pc, #240]	; (ba8 <shared_memory+0x270>)
     ab8:	2202      	movs	r2, #2
     aba:	4b3c      	ldr	r3, [pc, #240]	; (bac <shared_memory+0x274>)
     abc:	f240 11d9 	movw	r1, #473	; 0x1d9
     ac0:	4478      	add	r0, pc
     ac2:	447b      	add	r3, pc
     ac4:	3083      	adds	r0, #131	; 0x83
     ac6:	9300      	str	r3, [sp, #0]
     ac8:	2301      	movs	r3, #1
     aca:	f000 fcdf 	bl	148c <trace_printf>
/workspace/benchmark/bad-partitioning/ta/entry.c:476
     ace:	4631      	mov	r1, r6
     ad0:	4628      	mov	r0, r5
     ad2:	f7ff fdcd 	bl	670 <produce_s>
/workspace/benchmark/bad-partitioning/ta/entry.c:479
     ad6:	2500      	movs	r5, #0
/workspace/benchmark/bad-partitioning/ta/entry.c:477
     ad8:	4620      	mov	r0, r4
/workspace/benchmark/bad-partitioning/ta/entry.c:479
     ada:	af03      	add	r7, sp, #12
/workspace/benchmark/bad-partitioning/ta/entry.c:477
     adc:	f7ff fe32 	bl	744 <produce_s3>
/workspace/benchmark/bad-partitioning/ta/entry.c:479
     ae0:	f44f 7279 	mov.w	r2, #996	; 0x3e4
     ae4:	4629      	mov	r1, r5
     ae6:	a804      	add	r0, sp, #16
     ae8:	9503      	str	r5, [sp, #12]
     aea:	f005 fdf7 	bl	66dc <memset>
/workspace/benchmark/bad-partitioning/ta/entry.c:481
     aee:	f5b6 7f7a 	cmp.w	r6, #1000	; 0x3e8
     af2:	f63f af2f 	bhi.w	954 <shared_memory+0x1c>
/workspace/benchmark/bad-partitioning/ta/entry.c:485
     af6:	e9d4 1200 	ldrd	r1, r2, [r4]
     afa:	4638      	mov	r0, r7
     afc:	f000 ff2c 	bl	1958 <TEE_MemMove>
/workspace/benchmark/bad-partitioning/ta/entry.c:487
     b00:	482b      	ldr	r0, [pc, #172]	; (bb0 <shared_memory+0x278>)
     b02:	4639      	mov	r1, r7
     b04:	4478      	add	r0, pc
     b06:	f005 fdf1 	bl	66ec <strcmp>
     b0a:	2800      	cmp	r0, #0
     b0c:	f43f af23 	beq.w	956 <shared_memory+0x1e>
/workspace/benchmark/bad-partitioning/ta/entry.c:489
     b10:	4828      	ldr	r0, [pc, #160]	; (bb4 <shared_memory+0x27c>)
     b12:	2202      	movs	r2, #2
     b14:	4b28      	ldr	r3, [pc, #160]	; (bb8 <shared_memory+0x280>)
     b16:	f240 11e9 	movw	r1, #489	; 0x1e9
     b1a:	4478      	add	r0, pc
     b1c:	447b      	add	r3, pc
     b1e:	3083      	adds	r0, #131	; 0x83
     b20:	9300      	str	r3, [sp, #0]
     b22:	2301      	movs	r3, #1
     b24:	f000 fcb2 	bl	148c <trace_printf>
/workspace/benchmark/bad-partitioning/ta/entry.c:492
     b28:	4628      	mov	r0, r5
     b2a:	e714      	b.n	956 <shared_memory+0x1e>
/workspace/benchmark/bad-partitioning/ta/entry.c:493
     b2c:	f50d 7d7f 	add.w	sp, sp, #1020	; 0x3fc
     b30:	bdf0      	pop	{r4, r5, r6, r7, pc}
     b32:	bf00      	nop
     b34:	ffff0006 	.word	0xffff0006
     b38:	0000777a 	.word	0x0000777a
     b3c:	0000000c 	.word	0x0000000c
     b40:	0000775e 	.word	0x0000775e
     b44:	000062cb 	.word	0x000062cb
     b48:	000062d4 	.word	0x000062d4
     b4c:	000062c3 	.word	0x000062c3
     b50:	0000629f 	.word	0x0000629f
     b54:	000062a8 	.word	0x000062a8
     b58:	00006297 	.word	0x00006297
     b5c:	00006279 	.word	0x00006279
     b60:	00006282 	.word	0x00006282
     b64:	00006279 	.word	0x00006279
     b68:	0000624d 	.word	0x0000624d
     b6c:	00006256 	.word	0x00006256
     b70:	0000624d 	.word	0x0000624d
     b74:	00006227 	.word	0x00006227
     b78:	00006230 	.word	0x00006230
     b7c:	00006227 	.word	0x00006227
     b80:	00006201 	.word	0x00006201
     b84:	0000620a 	.word	0x0000620a
     b88:	00006201 	.word	0x00006201
     b8c:	000061dd 	.word	0x000061dd
     b90:	000061e6 	.word	0x000061e6
     b94:	000061dd 	.word	0x000061dd
     b98:	000061b9 	.word	0x000061b9
     b9c:	000061c2 	.word	0x000061c2
     ba0:	000061b9 	.word	0x000061b9
     ba4:	00006195 	.word	0x00006195
     ba8:	0000619e 	.word	0x0000619e
     bac:	00006195 	.word	0x00006195
     bb0:	0000613f 	.word	0x0000613f
     bb4:	00006144 	.word	0x00006144
     bb8:	00006133 	.word	0x00006133

00000bbc <TA_InvokeCommandEntryPoint>:
TA_InvokeCommandEntryPoint():
/workspace/benchmark/bad-partitioning/ta/entry.c:503
     bbc:	b530      	push	{r4, r5, lr}
/workspace/benchmark/bad-partitioning/ta/entry.c:506
     bbe:	2901      	cmp	r1, #1
/workspace/benchmark/bad-partitioning/ta/entry.c:503
     bc0:	4615      	mov	r5, r2
     bc2:	b085      	sub	sp, #20
     bc4:	461c      	mov	r4, r3
/workspace/benchmark/bad-partitioning/ta/entry.c:506
     bc6:	d009      	beq.n	bdc <TA_InvokeCommandEntryPoint+0x20>
     bc8:	2902      	cmp	r1, #2
     bca:	d064      	beq.n	c96 <TA_InvokeCommandEntryPoint+0xda>
     bcc:	b9b1      	cbnz	r1, bfc <TA_InvokeCommandEntryPoint+0x40>
/workspace/benchmark/bad-partitioning/ta/entry.c:508
     bce:	4619      	mov	r1, r3
     bd0:	4610      	mov	r0, r2
/workspace/benchmark/bad-partitioning/ta/entry.c:516
     bd2:	b005      	add	sp, #20
     bd4:	e8bd 4030 	ldmia.w	sp!, {r4, r5, lr}
/workspace/benchmark/bad-partitioning/ta/entry.c:508
     bd8:	f7ff bbe0 	b.w	39c <output>
input():
/workspace/benchmark/bad-partitioning/ta/entry.c:275
     bdc:	4832      	ldr	r0, [pc, #200]	; (ca8 <TA_InvokeCommandEntryPoint+0xec>)
     bde:	2203      	movs	r2, #3
     be0:	4b32      	ldr	r3, [pc, #200]	; (cac <TA_InvokeCommandEntryPoint+0xf0>)
     be2:	4478      	add	r0, pc
     be4:	447b      	add	r3, pc
     be6:	3091      	adds	r0, #145	; 0x91
     be8:	9300      	str	r3, [sp, #0]
     bea:	460b      	mov	r3, r1
     bec:	f240 1113 	movw	r1, #275	; 0x113
     bf0:	f000 fc4c 	bl	148c <trace_printf>
/workspace/benchmark/bad-partitioning/ta/entry.c:277
     bf4:	f247 7351 	movw	r3, #30545	; 0x7751
     bf8:	429d      	cmp	r5, r3
     bfa:	d001      	beq.n	c00 <TA_InvokeCommandEntryPoint+0x44>
TA_InvokeCommandEntryPoint():
/workspace/benchmark/bad-partitioning/ta/entry.c:506
     bfc:	4829      	ldr	r0, [pc, #164]	; (ca4 <TA_InvokeCommandEntryPoint+0xe8>)
     bfe:	e043      	b.n	c88 <TA_InvokeCommandEntryPoint+0xcc>
input():
/workspace/benchmark/bad-partitioning/ta/entry.c:280
     c00:	2100      	movs	r1, #0
     c02:	f44f 707a 	mov.w	r0, #1000	; 0x3e8
     c06:	f000 ff04 	bl	1a12 <TEE_Malloc>
/workspace/benchmark/bad-partitioning/ta/entry.c:283
     c0a:	2100      	movs	r1, #0
/workspace/benchmark/bad-partitioning/ta/entry.c:280
     c0c:	4605      	mov	r5, r0
/workspace/benchmark/bad-partitioning/ta/entry.c:283
     c0e:	6820      	ldr	r0, [r4, #0]
     c10:	f000 feff 	bl	1a12 <TEE_Malloc>
/workspace/benchmark/bad-partitioning/ta/entry.c:284
     c14:	68e0      	ldr	r0, [r4, #12]
     c16:	2100      	movs	r1, #0
     c18:	f000 fefb 	bl	1a12 <TEE_Malloc>
/workspace/benchmark/bad-partitioning/ta/entry.c:286
     c1c:	2300      	movs	r3, #0
     c1e:	6962      	ldr	r2, [r4, #20]
     c20:	429a      	cmp	r2, r3
     c22:	d833      	bhi.n	c8c <TA_InvokeCommandEntryPoint+0xd0>
/workspace/benchmark/bad-partitioning/ta/entry.c:290
     c24:	69e2      	ldr	r2, [r4, #28]
     c26:	4628      	mov	r0, r5
     c28:	69a1      	ldr	r1, [r4, #24]
     c2a:	f000 fe95 	bl	1958 <TEE_MemMove>
/workspace/benchmark/bad-partitioning/ta/entry.c:291
     c2e:	6920      	ldr	r0, [r4, #16]
     c30:	f44f 727a 	mov.w	r2, #1000	; 0x3e8
     c34:	4629      	mov	r1, r5
     c36:	f000 fe8f 	bl	1958 <TEE_MemMove>
/workspace/benchmark/bad-partitioning/ta/entry.c:298
     c3a:	68e0      	ldr	r0, [r4, #12]
     c3c:	f242 7310 	movw	r3, #10000	; 0x2710
     c40:	4298      	cmp	r0, r3
     c42:	d8db      	bhi.n	bfc <TA_InvokeCommandEntryPoint+0x40>
/workspace/benchmark/bad-partitioning/ta/entry.c:303
     c44:	2100      	movs	r1, #0
     c46:	f000 fee4 	bl	1a12 <TEE_Malloc>
/workspace/benchmark/bad-partitioning/ta/entry.c:306
     c4a:	6962      	ldr	r2, [r4, #20]
     c4c:	6921      	ldr	r1, [r4, #16]
     c4e:	4628      	mov	r0, r5
     c50:	f000 fe82 	bl	1958 <TEE_MemMove>
/workspace/benchmark/bad-partitioning/ta/entry.c:307
     c54:	69e2      	ldr	r2, [r4, #28]
     c56:	69a1      	ldr	r1, [r4, #24]
     c58:	4628      	mov	r0, r5
     c5a:	f000 fe7d 	bl	1958 <TEE_MemMove>
/workspace/benchmark/bad-partitioning/ta/entry.c:309
     c5e:	f44f 727a 	mov.w	r2, #1000	; 0x3e8
     c62:	4629      	mov	r1, r5
     c64:	6920      	ldr	r0, [r4, #16]
     c66:	f000 fe77 	bl	1958 <TEE_MemMove>
/workspace/benchmark/bad-partitioning/ta/entry.c:311
     c6a:	69e3      	ldr	r3, [r4, #28]
     c6c:	9301      	str	r3, [sp, #4]
     c6e:	f104 010c 	add.w	r1, r4, #12
     c72:	69a3      	ldr	r3, [r4, #24]
     c74:	9402      	str	r4, [sp, #8]
     c76:	9300      	str	r3, [sp, #0]
     c78:	6820      	ldr	r0, [r4, #0]
     c7a:	c90e      	ldmia	r1, {r1, r2, r3}
     c7c:	f7ff fc64 	bl	548 <produce_i0>
/workspace/benchmark/bad-partitioning/ta/entry.c:312
     c80:	6820      	ldr	r0, [r4, #0]
     c82:	f7ff fcad 	bl	5e0 <produce_i3>
/workspace/benchmark/bad-partitioning/ta/entry.c:314
     c86:	2000      	movs	r0, #0
TA_InvokeCommandEntryPoint():
/workspace/benchmark/bad-partitioning/ta/entry.c:516
     c88:	b005      	add	sp, #20
     c8a:	bd30      	pop	{r4, r5, pc}
input():
/workspace/benchmark/bad-partitioning/ta/entry.c:287
     c8c:	6922      	ldr	r2, [r4, #16]
     c8e:	5cd2      	ldrb	r2, [r2, r3]
     c90:	54ea      	strb	r2, [r5, r3]
/workspace/benchmark/bad-partitioning/ta/entry.c:286
     c92:	3301      	adds	r3, #1
     c94:	e7c3      	b.n	c1e <TA_InvokeCommandEntryPoint+0x62>
TA_InvokeCommandEntryPoint():
/workspace/benchmark/bad-partitioning/ta/entry.c:512
     c96:	4619      	mov	r1, r3
     c98:	4610      	mov	r0, r2
/workspace/benchmark/bad-partitioning/ta/entry.c:516
     c9a:	b005      	add	sp, #20
     c9c:	e8bd 4030 	ldmia.w	sp!, {r4, r5, lr}
/workspace/benchmark/bad-partitioning/ta/entry.c:512
     ca0:	e64a      	b.n	938 <shared_memory>
     ca2:	bf00      	nop
     ca4:	ffff0006 	.word	0xffff0006
     ca8:	0000607c 	.word	0x0000607c
     cac:	00006028 	.word	0x00006028

00000cb0 <__vsnprintf>:
__vsnprintf():
/mnt/disk/raspbian-tee/optee_os/lib/libutils/ext/snprintk.c:137
     cb0:	e92d 4ff0 	stmdb	sp!, {r4, r5, r6, r7, r8, r9, sl, fp, lr}
/mnt/disk/raspbian-tee/optee_os/lib/libutils/ext/snprintk.c:141
     cb4:	4680      	mov	r8, r0
     cb6:	461f      	mov	r7, r3
/mnt/disk/raspbian-tee/optee_os/lib/libutils/ext/snprintk.c:137
     cb8:	b09f      	sub	sp, #124	; 0x7c
kprintf():
/mnt/disk/raspbian-tee/optee_os/lib/libutils/ext/snprintk.c:269
     cba:	2300      	movs	r3, #0
__vsnprintf():
/mnt/disk/raspbian-tee/optee_os/lib/libutils/ext/snprintk.c:137
     cbc:	920b      	str	r2, [sp, #44]	; 0x2c
     cbe:	f89d 20a0 	ldrb.w	r2, [sp, #160]	; 0xa0
     cc2:	9213      	str	r2, [sp, #76]	; 0x4c
/mnt/disk/raspbian-tee/optee_os/lib/libutils/ext/snprintk.c:141
     cc4:	4602      	mov	r2, r0
     cc6:	440a      	add	r2, r1
/mnt/disk/raspbian-tee/optee_os/lib/libutils/ext/snprintk.c:137
     cc8:	9010      	str	r0, [sp, #64]	; 0x40
     cca:	9112      	str	r1, [sp, #72]	; 0x48
/mnt/disk/raspbian-tee/optee_os/lib/libutils/ext/snprintk.c:141
     ccc:	920e      	str	r2, [sp, #56]	; 0x38
kprintf():
/mnt/disk/raspbian-tee/optee_os/lib/libutils/ext/snprintk.c:269
     cce:	930f      	str	r3, [sp, #60]	; 0x3c
/mnt/disk/raspbian-tee/optee_os/lib/libutils/ext/snprintk.c:267
     cd0:	930c      	str	r3, [sp, #48]	; 0x30
/mnt/disk/raspbian-tee/optee_os/lib/libutils/ext/snprintk.c:275
     cd2:	9b0b      	ldr	r3, [sp, #44]	; 0x2c
     cd4:	781b      	ldrb	r3, [r3, #0]
     cd6:	2b25      	cmp	r3, #37	; 0x25
     cd8:	d024      	beq.n	d24 <__vsnprintf+0x74>
     cda:	b993      	cbnz	r3, d02 <__vsnprintf+0x52>
__vsnprintf():
/mnt/disk/raspbian-tee/optee_os/lib/libutils/ext/snprintk.c:143
     cdc:	9b10      	ldr	r3, [sp, #64]	; 0x40
     cde:	b163      	cbz	r3, cfa <__vsnprintf+0x4a>
/mnt/disk/raspbian-tee/optee_os/lib/libutils/ext/snprintk.c:143 (discriminator 1)
     ce0:	9b12      	ldr	r3, [sp, #72]	; 0x48
     ce2:	b153      	cbz	r3, cfa <__vsnprintf+0x4a>
/mnt/disk/raspbian-tee/optee_os/lib/libutils/ext/snprintk.c:145
     ce4:	9a0c      	ldr	r2, [sp, #48]	; 0x30
     ce6:	4293      	cmp	r3, r2
     ce8:	f04f 0300 	mov.w	r3, #0
/mnt/disk/raspbian-tee/optee_os/lib/libutils/ext/snprintk.c:146
     cec:	9a10      	ldr	r2, [sp, #64]	; 0x40
/mnt/disk/raspbian-tee/optee_os/lib/libutils/ext/snprintk.c:145
     cee:	f200 835f 	bhi.w	13b0 <__vsnprintf+0x700>
/mnt/disk/raspbian-tee/optee_os/lib/libutils/ext/snprintk.c:146
     cf2:	9912      	ldr	r1, [sp, #72]	; 0x48
     cf4:	440a      	add	r2, r1
     cf6:	f802 3c01 	strb.w	r3, [r2, #-1]
/mnt/disk/raspbian-tee/optee_os/lib/libutils/ext/snprintk.c:151
     cfa:	980c      	ldr	r0, [sp, #48]	; 0x30
     cfc:	b01f      	add	sp, #124	; 0x7c
     cfe:	e8bd 8ff0 	ldmia.w	sp!, {r4, r5, r6, r7, r8, r9, sl, fp, pc}
kprintf():
/mnt/disk/raspbian-tee/optee_os/lib/libutils/ext/snprintk.c:276
     d02:	9a0c      	ldr	r2, [sp, #48]	; 0x30
     d04:	3201      	adds	r2, #1
     d06:	920c      	str	r2, [sp, #48]	; 0x30
/mnt/disk/raspbian-tee/optee_os/lib/libutils/ext/snprintk.c:277
     d08:	f1b8 0f00 	cmp.w	r8, #0
     d0c:	d006      	beq.n	d1c <__vsnprintf+0x6c>
     d0e:	9a0e      	ldr	r2, [sp, #56]	; 0x38
     d10:	4542      	cmp	r2, r8
     d12:	d903      	bls.n	d1c <__vsnprintf+0x6c>
     d14:	f888 3000 	strb.w	r3, [r8]
     d18:	f108 0801 	add.w	r8, r8, #1
/mnt/disk/raspbian-tee/optee_os/lib/libutils/ext/snprintk.c:275
     d1c:	9b0b      	ldr	r3, [sp, #44]	; 0x2c
     d1e:	3301      	adds	r3, #1
     d20:	930b      	str	r3, [sp, #44]	; 0x2c
     d22:	e7d6      	b.n	cd2 <__vsnprintf+0x22>
/mnt/disk/raspbian-tee/optee_os/lib/libutils/ext/snprintk.c:282
     d24:	9b0b      	ldr	r3, [sp, #44]	; 0x2c
/mnt/disk/raspbian-tee/optee_os/lib/libutils/ext/snprintk.c:288
     d26:	f04f 0a00 	mov.w	sl, #0
/mnt/disk/raspbian-tee/optee_os/lib/libutils/ext/snprintk.c:282
     d2a:	463a      	mov	r2, r7
/mnt/disk/raspbian-tee/optee_os/lib/libutils/ext/snprintk.c:287
     d2c:	f04f 3bff 	mov.w	fp, #4294967295	; 0xffffffff
/mnt/disk/raspbian-tee/optee_os/lib/libutils/ext/snprintk.c:282
     d30:	3301      	adds	r3, #1
/mnt/disk/raspbian-tee/optee_os/lib/libutils/ext/snprintk.c:284
     d32:	4656      	mov	r6, sl
/mnt/disk/raspbian-tee/optee_os/lib/libutils/ext/snprintk.c:286
     d34:	f8cd a034 	str.w	sl, [sp, #52]	; 0x34
/mnt/disk/raspbian-tee/optee_os/lib/libutils/ext/snprintk.c:290
     d38:	f893 9000 	ldrb.w	r9, [r3]
     d3c:	1c59      	adds	r1, r3, #1
     d3e:	910b      	str	r1, [sp, #44]	; 0x2c
/mnt/disk/raspbian-tee/optee_os/lib/libutils/ext/snprintk.c:291
     d40:	f1b9 0f63 	cmp.w	r9, #99	; 0x63
     d44:	f000 8163 	beq.w	100e <__vsnprintf+0x35e>
     d48:	f300 8095 	bgt.w	e76 <__vsnprintf+0x1c6>
     d4c:	f1b9 0f30 	cmp.w	r9, #48	; 0x30
     d50:	f000 8147 	beq.w	fe2 <__vsnprintf+0x332>
     d54:	dc26      	bgt.n	da4 <__vsnprintf+0xf4>
     d56:	f1b9 0f2a 	cmp.w	r9, #42	; 0x2a
     d5a:	f000 8119 	beq.w	f90 <__vsnprintf+0x2e0>
     d5e:	dc13      	bgt.n	d88 <__vsnprintf+0xd8>
     d60:	f1b9 0f20 	cmp.w	r9, #32
     d64:	f000 810a 	beq.w	f7c <__vsnprintf+0x2cc>
     d68:	f1b9 0f23 	cmp.w	r9, #35	; 0x23
     d6c:	f000 810d 	beq.w	f8a <__vsnprintf+0x2da>
/mnt/disk/raspbian-tee/optee_os/lib/libutils/ext/snprintk.c:541
     d70:	f1b9 0f00 	cmp.w	r9, #0
     d74:	d0b2      	beq.n	cdc <__vsnprintf+0x2c>
/mnt/disk/raspbian-tee/optee_os/lib/libutils/ext/snprintk.c:545
     d76:	ab1e      	add	r3, sp, #120	; 0x78
     d78:	4617      	mov	r7, r2
/mnt/disk/raspbian-tee/optee_os/lib/libutils/ext/snprintk.c:546
     d7a:	f04f 0b01 	mov.w	fp, #1
/mnt/disk/raspbian-tee/optee_os/lib/libutils/ext/snprintk.c:545
     d7e:	f803 9d28 	strb.w	r9, [r3, #-40]!
     d82:	e0c0      	b.n	f06 <__vsnprintf+0x256>
/mnt/disk/raspbian-tee/optee_os/lib/libutils/ext/snprintk.c:311
     d84:	461a      	mov	r2, r3
     d86:	e00b      	b.n	da0 <__vsnprintf+0xf0>
/mnt/disk/raspbian-tee/optee_os/lib/libutils/ext/snprintk.c:291
     d88:	f1b9 0f2d 	cmp.w	r9, #45	; 0x2d
     d8c:	f000 8109 	beq.w	fa2 <__vsnprintf+0x2f2>
     d90:	f1b9 0f2e 	cmp.w	r9, #46	; 0x2e
     d94:	f000 8108 	beq.w	fa8 <__vsnprintf+0x2f8>
     d98:	f1b9 0f2b 	cmp.w	r9, #43	; 0x2b
     d9c:	d1e8      	bne.n	d70 <__vsnprintf+0xc0>
/mnt/disk/raspbian-tee/optee_os/lib/libutils/ext/snprintk.c:319
     d9e:	46ca      	mov	sl, r9
/mnt/disk/raspbian-tee/optee_os/lib/libutils/ext/snprintk.c:322
     da0:	9b0b      	ldr	r3, [sp, #44]	; 0x2c
     da2:	e7c9      	b.n	d38 <__vsnprintf+0x88>
/mnt/disk/raspbian-tee/optee_os/lib/libutils/ext/snprintk.c:291
     da4:	f1b9 0f44 	cmp.w	r9, #68	; 0x44
     da8:	f000 818a 	beq.w	10c0 <__vsnprintf+0x410>
     dac:	dc14      	bgt.n	dd8 <__vsnprintf+0x128>
     dae:	f1b9 0f39 	cmp.w	r9, #57	; 0x39
     db2:	dcdd      	bgt.n	d70 <__vsnprintf+0xc0>
     db4:	2300      	movs	r3, #0
     db6:	930d      	str	r3, [sp, #52]	; 0x34
/mnt/disk/raspbian-tee/optee_os/lib/libutils/ext/snprintk.c:346
     db8:	9b0d      	ldr	r3, [sp, #52]	; 0x34
     dba:	f1a9 0930 	sub.w	r9, r9, #48	; 0x30
     dbe:	210a      	movs	r1, #10
     dc0:	fb01 9303 	mla	r3, r1, r3, r9
     dc4:	930d      	str	r3, [sp, #52]	; 0x34
/mnt/disk/raspbian-tee/optee_os/lib/libutils/ext/snprintk.c:347
     dc6:	9b0b      	ldr	r3, [sp, #44]	; 0x2c
     dc8:	f813 9b01 	ldrb.w	r9, [r3], #1
     dcc:	930b      	str	r3, [sp, #44]	; 0x2c
/mnt/disk/raspbian-tee/optee_os/lib/libutils/ext/snprintk.c:348
     dce:	f1a9 0330 	sub.w	r3, r9, #48	; 0x30
     dd2:	2b09      	cmp	r3, #9
     dd4:	d9f0      	bls.n	db8 <__vsnprintf+0x108>
     dd6:	e7b3      	b.n	d40 <__vsnprintf+0x90>
/mnt/disk/raspbian-tee/optee_os/lib/libutils/ext/snprintk.c:291
     dd8:	f1b9 0f55 	cmp.w	r9, #85	; 0x55
     ddc:	f000 823d 	beq.w	125a <__vsnprintf+0x5aa>
     de0:	f1b9 0f58 	cmp.w	r9, #88	; 0x58
     de4:	f000 80ab 	beq.w	f3e <__vsnprintf+0x28e>
     de8:	f1b9 0f4f 	cmp.w	r9, #79	; 0x4f
     dec:	d1c0      	bne.n	d70 <__vsnprintf+0xc0>
/mnt/disk/raspbian-tee/optee_os/lib/libutils/ext/snprintk.c:408
     dee:	f046 0610 	orr.w	r6, r6, #16
/mnt/disk/raspbian-tee/optee_os/lib/libutils/ext/snprintk.c:411
     df2:	0635      	lsls	r5, r6, #24
     df4:	f140 81c0 	bpl.w	1178 <__vsnprintf+0x4c8>
     df8:	3207      	adds	r2, #7
     dfa:	f022 0207 	bic.w	r2, r2, #7
     dfe:	f102 0708 	add.w	r7, r2, #8
     e02:	e9d2 4500 	ldrd	r4, r5, [r2]
/mnt/disk/raspbian-tee/optee_os/lib/libutils/ext/snprintk.c:488
     e06:	f04f 0a00 	mov.w	sl, #0
     e0a:	f1bb 3fff 	cmp.w	fp, #4294967295	; 0xffffffff
     e0e:	d011      	beq.n	e34 <__vsnprintf+0x184>
     e10:	4653      	mov	r3, sl
/mnt/disk/raspbian-tee/optee_os/lib/libutils/ext/snprintk.c:489
     e12:	f426 6680 	bic.w	r6, r6, #1024	; 0x400
/mnt/disk/raspbian-tee/optee_os/lib/libutils/ext/snprintk.c:497
     e16:	ea54 0205 	orrs.w	r2, r4, r5
     e1a:	d105      	bne.n	e28 <__vsnprintf+0x178>
     e1c:	f1bb 0f00 	cmp.w	fp, #0
     e20:	f000 8269 	beq.w	12f6 <__vsnprintf+0x646>
     e24:	2400      	movs	r4, #0
     e26:	2500      	movs	r5, #0
/mnt/disk/raspbian-tee/optee_os/lib/libutils/ext/snprintk.c:503
     e28:	2b01      	cmp	r3, #1
     e2a:	f000 8161 	beq.w	10f0 <__vsnprintf+0x440>
     e2e:	2b02      	cmp	r3, #2
     e30:	f000 81f8 	beq.w	1224 <__vsnprintf+0x574>
/mnt/disk/raspbian-tee/optee_os/lib/libutils/ext/snprintk.c:488
     e34:	f10d 0275 	add.w	r2, sp, #117	; 0x75
/mnt/disk/raspbian-tee/optee_os/lib/libutils/ext/snprintk.c:507
     e38:	08e0      	lsrs	r0, r4, #3
     e3a:	ea4f 0cd5 	mov.w	ip, r5, lsr #3
     e3e:	ea40 7045 	orr.w	r0, r0, r5, lsl #29
/mnt/disk/raspbian-tee/optee_os/lib/libutils/ext/snprintk.c:506
     e42:	f004 0107 	and.w	r1, r4, #7
/mnt/disk/raspbian-tee/optee_os/lib/libutils/ext/snprintk.c:507
     e46:	4665      	mov	r5, ip
     e48:	4604      	mov	r4, r0
/mnt/disk/raspbian-tee/optee_os/lib/libutils/ext/snprintk.c:506
     e4a:	3130      	adds	r1, #48	; 0x30
     e4c:	1e53      	subs	r3, r2, #1
     e4e:	f802 1c01 	strb.w	r1, [r2, #-1]
/mnt/disk/raspbian-tee/optee_os/lib/libutils/ext/snprintk.c:508
     e52:	ea54 0005 	orrs.w	r0, r4, r5
     e56:	f040 8239 	bne.w	12cc <__vsnprintf+0x61c>
/mnt/disk/raspbian-tee/optee_os/lib/libutils/ext/snprintk.c:510
     e5a:	07f5      	lsls	r5, r6, #31
     e5c:	d505      	bpl.n	e6a <__vsnprintf+0x1ba>
     e5e:	2930      	cmp	r1, #48	; 0x30
     e60:	d003      	beq.n	e6a <__vsnprintf+0x1ba>
/mnt/disk/raspbian-tee/optee_os/lib/libutils/ext/snprintk.c:511
     e62:	2130      	movs	r1, #48	; 0x30
     e64:	f803 1c01 	strb.w	r1, [r3, #-1]
     e68:	1e93      	subs	r3, r2, #2
/mnt/disk/raspbian-tee/optee_os/lib/libutils/ext/snprintk.c:537
     e6a:	f10d 0275 	add.w	r2, sp, #117	; 0x75
     e6e:	4658      	mov	r0, fp
     e70:	eba2 0b03 	sub.w	fp, r2, r3
     e74:	e0d5      	b.n	1022 <__vsnprintf+0x372>
/mnt/disk/raspbian-tee/optee_os/lib/libutils/ext/snprintk.c:291
     e76:	f1b9 0f6f 	cmp.w	r9, #111	; 0x6f
     e7a:	d0ba      	beq.n	df2 <__vsnprintf+0x142>
     e7c:	dc1e      	bgt.n	ebc <__vsnprintf+0x20c>
     e7e:	f1b9 0f69 	cmp.w	r9, #105	; 0x69
     e82:	f000 811f 	beq.w	10c4 <__vsnprintf+0x414>
     e86:	dc0a      	bgt.n	e9e <__vsnprintf+0x1ee>
     e88:	f1b9 0f64 	cmp.w	r9, #100	; 0x64
     e8c:	f000 811a 	beq.w	10c4 <__vsnprintf+0x414>
     e90:	f1b9 0f68 	cmp.w	r9, #104	; 0x68
     e94:	f47f af6c 	bne.w	d70 <__vsnprintf+0xc0>
/mnt/disk/raspbian-tee/optee_os/lib/libutils/ext/snprintk.c:352
     e98:	f046 0640 	orr.w	r6, r6, #64	; 0x40
     e9c:	e780      	b.n	da0 <__vsnprintf+0xf0>
/mnt/disk/raspbian-tee/optee_os/lib/libutils/ext/snprintk.c:291
     e9e:	f1b9 0f6c 	cmp.w	r9, #108	; 0x6c
     ea2:	f000 80a1 	beq.w	fe8 <__vsnprintf+0x338>
     ea6:	f1b9 0f6e 	cmp.w	r9, #110	; 0x6e
     eaa:	f000 8146 	beq.w	113a <__vsnprintf+0x48a>
     eae:	f1b9 0f6a 	cmp.w	r9, #106	; 0x6a
     eb2:	f47f af5d 	bne.w	d70 <__vsnprintf+0xc0>
/mnt/disk/raspbian-tee/optee_os/lib/libutils/ext/snprintk.c:355
     eb6:	f046 0680 	orr.w	r6, r6, #128	; 0x80
     eba:	e771      	b.n	da0 <__vsnprintf+0xf0>
/mnt/disk/raspbian-tee/optee_os/lib/libutils/ext/snprintk.c:291
     ebc:	f1b9 0f74 	cmp.w	r9, #116	; 0x74
     ec0:	f000 809f 	beq.w	1002 <__vsnprintf+0x352>
     ec4:	dc22      	bgt.n	f0c <__vsnprintf+0x25c>
     ec6:	f1b9 0f71 	cmp.w	r9, #113	; 0x71
     eca:	f000 8094 	beq.w	ff6 <__vsnprintf+0x346>
     ece:	f2c0 8167 	blt.w	11a0 <__vsnprintf+0x4f0>
     ed2:	f1b9 0f73 	cmp.w	r9, #115	; 0x73
     ed6:	f47f af4b 	bne.w	d70 <__vsnprintf+0xc0>
/mnt/disk/raspbian-tee/optee_os/lib/libutils/ext/snprintk.c:442
     eda:	6813      	ldr	r3, [r2, #0]
     edc:	1d17      	adds	r7, r2, #4
     ede:	b913      	cbnz	r3, ee6 <__vsnprintf+0x236>
/mnt/disk/raspbian-tee/optee_os/lib/libutils/ext/snprintk.c:444
     ee0:	f8df 34ec 	ldr.w	r3, [pc, #1260]	; 13d0 <__vsnprintf+0x720>
     ee4:	447b      	add	r3, pc
/mnt/disk/raspbian-tee/optee_os/lib/libutils/ext/snprintk.c:445
     ee6:	f1bb 3fff 	cmp.w	fp, #4294967295	; 0xffffffff
     eea:	f000 81ad 	beq.w	1248 <__vsnprintf+0x598>
/mnt/disk/raspbian-tee/optee_os/lib/libutils/ext/snprintk.c:451
     eee:	4618      	mov	r0, r3
     ef0:	465a      	mov	r2, fp
     ef2:	2100      	movs	r1, #0
     ef4:	9311      	str	r3, [sp, #68]	; 0x44
     ef6:	f005 fc11 	bl	671c <memchr>
/mnt/disk/raspbian-tee/optee_os/lib/libutils/ext/snprintk.c:453
     efa:	9b11      	ldr	r3, [sp, #68]	; 0x44
     efc:	b120      	cbz	r0, f08 <__vsnprintf+0x258>
/mnt/disk/raspbian-tee/optee_os/lib/libutils/ext/snprintk.c:454
     efe:	1ac0      	subs	r0, r0, r3
     f00:	4583      	cmp	fp, r0
     f02:	bfa8      	it	ge
     f04:	4683      	movge	fp, r0
/mnt/disk/raspbian-tee/optee_os/lib/libutils/ext/snprintk.c:285
     f06:	2000      	movs	r0, #0
/mnt/disk/raspbian-tee/optee_os/lib/libutils/ext/snprintk.c:461
     f08:	4682      	mov	sl, r0
     f0a:	e08a      	b.n	1022 <__vsnprintf+0x372>
/mnt/disk/raspbian-tee/optee_os/lib/libutils/ext/snprintk.c:291
     f0c:	f1b9 0f78 	cmp.w	r9, #120	; 0x78
     f10:	f000 81c2 	beq.w	1298 <__vsnprintf+0x5e8>
     f14:	f1b9 0f7a 	cmp.w	r9, #122	; 0x7a
     f18:	d076      	beq.n	1008 <__vsnprintf+0x358>
     f1a:	f1b9 0f75 	cmp.w	r9, #117	; 0x75
     f1e:	f47f af27 	bne.w	d70 <__vsnprintf+0xc0>
/mnt/disk/raspbian-tee/optee_os/lib/libutils/ext/snprintk.c:467
     f22:	f016 0380 	ands.w	r3, r6, #128	; 0x80
     f26:	f000 819b 	beq.w	1260 <__vsnprintf+0x5b0>
     f2a:	3207      	adds	r2, #7
     f2c:	f022 0207 	bic.w	r2, r2, #7
     f30:	f102 0708 	add.w	r7, r2, #8
     f34:	e9d2 4500 	ldrd	r4, r5, [r2]
/mnt/disk/raspbian-tee/optee_os/lib/libutils/ext/snprintk.c:482
     f38:	f04f 0a00 	mov.w	sl, #0
     f3c:	e0d4      	b.n	10e8 <__vsnprintf+0x438>
/mnt/disk/raspbian-tee/optee_os/lib/libutils/ext/snprintk.c:471
     f3e:	f8df 3494 	ldr.w	r3, [pc, #1172]	; 13d4 <__vsnprintf+0x724>
     f42:	447b      	add	r3, pc
/mnt/disk/raspbian-tee/optee_os/lib/libutils/ext/snprintk.c:474
     f44:	930f      	str	r3, [sp, #60]	; 0x3c
/mnt/disk/raspbian-tee/optee_os/lib/libutils/ext/snprintk.c:475
     f46:	0637      	lsls	r7, r6, #24
     f48:	f140 81aa 	bpl.w	12a0 <__vsnprintf+0x5f0>
     f4c:	3207      	adds	r2, #7
     f4e:	f022 0207 	bic.w	r2, r2, #7
     f52:	f102 0708 	add.w	r7, r2, #8
     f56:	e9d2 4500 	ldrd	r4, r5, [r2]
/mnt/disk/raspbian-tee/optee_os/lib/libutils/ext/snprintk.c:478
     f5a:	07f3      	lsls	r3, r6, #31
     f5c:	f140 815c 	bpl.w	1218 <__vsnprintf+0x568>
     f60:	ea54 0305 	orrs.w	r3, r4, r5
     f64:	f000 822d 	beq.w	13c2 <__vsnprintf+0x712>
/mnt/disk/raspbian-tee/optee_os/lib/libutils/ext/snprintk.c:479
     f68:	f046 0602 	orr.w	r6, r6, #2
/mnt/disk/raspbian-tee/optee_os/lib/libutils/ext/snprintk.c:488
     f6c:	f1bb 3fff 	cmp.w	fp, #4294967295	; 0xffffffff
     f70:	f000 822a 	beq.w	13c8 <__vsnprintf+0x718>
     f74:	f04f 0a00 	mov.w	sl, #0
     f78:	2302      	movs	r3, #2
     f7a:	e74a      	b.n	e12 <__vsnprintf+0x162>
/mnt/disk/raspbian-tee/optee_os/lib/libutils/ext/snprintk.c:299
     f7c:	f1ba 0f00 	cmp.w	sl, #0
     f80:	f04f 0320 	mov.w	r3, #32
     f84:	bf08      	it	eq
     f86:	469a      	moveq	sl, r3
     f88:	e70a      	b.n	da0 <__vsnprintf+0xf0>
/mnt/disk/raspbian-tee/optee_os/lib/libutils/ext/snprintk.c:302
     f8a:	f046 0601 	orr.w	r6, r6, #1
     f8e:	e707      	b.n	da0 <__vsnprintf+0xf0>
/mnt/disk/raspbian-tee/optee_os/lib/libutils/ext/snprintk.c:311
     f90:	1d13      	adds	r3, r2, #4
     f92:	6812      	ldr	r2, [r2, #0]
     f94:	920d      	str	r2, [sp, #52]	; 0x34
     f96:	2a00      	cmp	r2, #0
     f98:	f6bf aef4 	bge.w	d84 <__vsnprintf+0xd4>
/mnt/disk/raspbian-tee/optee_os/lib/libutils/ext/snprintk.c:313
     f9c:	4252      	negs	r2, r2
     f9e:	920d      	str	r2, [sp, #52]	; 0x34
/mnt/disk/raspbian-tee/optee_os/lib/libutils/ext/snprintk.c:311
     fa0:	461a      	mov	r2, r3
/mnt/disk/raspbian-tee/optee_os/lib/libutils/ext/snprintk.c:316
     fa2:	f046 0604 	orr.w	r6, r6, #4
     fa6:	e6fb      	b.n	da0 <__vsnprintf+0xf0>
/mnt/disk/raspbian-tee/optee_os/lib/libutils/ext/snprintk.c:322
     fa8:	990b      	ldr	r1, [sp, #44]	; 0x2c
     faa:	9b0b      	ldr	r3, [sp, #44]	; 0x2c
     fac:	f891 9000 	ldrb.w	r9, [r1]
     fb0:	3301      	adds	r3, #1
     fb2:	f1b9 0f2a 	cmp.w	r9, #42	; 0x2a
     fb6:	d00e      	beq.n	fd6 <__vsnprintf+0x326>
     fb8:	f04f 0b00 	mov.w	fp, #0
/mnt/disk/raspbian-tee/optee_os/lib/libutils/ext/snprintk.c:330
     fbc:	930b      	str	r3, [sp, #44]	; 0x2c
/mnt/disk/raspbian-tee/optee_os/lib/libutils/ext/snprintk.c:328
     fbe:	f1a9 0330 	sub.w	r3, r9, #48	; 0x30
     fc2:	2b09      	cmp	r3, #9
     fc4:	f63f aebc 	bhi.w	d40 <__vsnprintf+0x90>
/mnt/disk/raspbian-tee/optee_os/lib/libutils/ext/snprintk.c:329
     fc8:	210a      	movs	r1, #10
     fca:	fb01 3b0b 	mla	fp, r1, fp, r3
/mnt/disk/raspbian-tee/optee_os/lib/libutils/ext/snprintk.c:330
     fce:	9b0b      	ldr	r3, [sp, #44]	; 0x2c
     fd0:	f813 9b01 	ldrb.w	r9, [r3], #1
     fd4:	e7f2      	b.n	fbc <__vsnprintf+0x30c>
/mnt/disk/raspbian-tee/optee_os/lib/libutils/ext/snprintk.c:324
     fd6:	6811      	ldr	r1, [r2, #0]
/mnt/disk/raspbian-tee/optee_os/lib/libutils/ext/snprintk.c:323
     fd8:	3204      	adds	r2, #4
/mnt/disk/raspbian-tee/optee_os/lib/libutils/ext/snprintk.c:322
     fda:	930b      	str	r3, [sp, #44]	; 0x2c
/mnt/disk/raspbian-tee/optee_os/lib/libutils/ext/snprintk.c:324
     fdc:	ea41 7be1 	orr.w	fp, r1, r1, asr #31
     fe0:	e6de      	b.n	da0 <__vsnprintf+0xf0>
/mnt/disk/raspbian-tee/optee_os/lib/libutils/ext/snprintk.c:340
     fe2:	f446 6680 	orr.w	r6, r6, #1024	; 0x400
     fe6:	e6db      	b.n	da0 <__vsnprintf+0xf0>
/mnt/disk/raspbian-tee/optee_os/lib/libutils/ext/snprintk.c:358
     fe8:	9b0b      	ldr	r3, [sp, #44]	; 0x2c
     fea:	781b      	ldrb	r3, [r3, #0]
     fec:	2b6c      	cmp	r3, #108	; 0x6c
     fee:	d105      	bne.n	ffc <__vsnprintf+0x34c>
/mnt/disk/raspbian-tee/optee_os/lib/libutils/ext/snprintk.c:359
     ff0:	9b0b      	ldr	r3, [sp, #44]	; 0x2c
     ff2:	3301      	adds	r3, #1
     ff4:	930b      	str	r3, [sp, #44]	; 0x2c
/mnt/disk/raspbian-tee/optee_os/lib/libutils/ext/snprintk.c:366
     ff6:	f046 0620 	orr.w	r6, r6, #32
     ffa:	e6d1      	b.n	da0 <__vsnprintf+0xf0>
/mnt/disk/raspbian-tee/optee_os/lib/libutils/ext/snprintk.c:362
     ffc:	f046 0610 	orr.w	r6, r6, #16
    1000:	e6ce      	b.n	da0 <__vsnprintf+0xf0>
/mnt/disk/raspbian-tee/optee_os/lib/libutils/ext/snprintk.c:369
    1002:	f446 7680 	orr.w	r6, r6, #256	; 0x100
    1006:	e6cb      	b.n	da0 <__vsnprintf+0xf0>
/mnt/disk/raspbian-tee/optee_os/lib/libutils/ext/snprintk.c:372
    1008:	f446 7600 	orr.w	r6, r6, #512	; 0x200
    100c:	e6c8      	b.n	da0 <__vsnprintf+0xf0>
/mnt/disk/raspbian-tee/optee_os/lib/libutils/ext/snprintk.c:375
    100e:	ab1e      	add	r3, sp, #120	; 0x78
/mnt/disk/raspbian-tee/optee_os/lib/libutils/ext/snprintk.c:285
    1010:	f04f 0a00 	mov.w	sl, #0
/mnt/disk/raspbian-tee/optee_os/lib/libutils/ext/snprintk.c:375
    1014:	1d17      	adds	r7, r2, #4
/mnt/disk/raspbian-tee/optee_os/lib/libutils/ext/snprintk.c:376
    1016:	f04f 0b01 	mov.w	fp, #1
/mnt/disk/raspbian-tee/optee_os/lib/libutils/ext/snprintk.c:375
    101a:	6812      	ldr	r2, [r2, #0]
/mnt/disk/raspbian-tee/optee_os/lib/libutils/ext/snprintk.c:377
    101c:	4650      	mov	r0, sl
/mnt/disk/raspbian-tee/optee_os/lib/libutils/ext/snprintk.c:375
    101e:	f803 2d28 	strb.w	r2, [r3, #-40]!
/mnt/disk/raspbian-tee/optee_os/lib/libutils/ext/snprintk.c:565
    1022:	4558      	cmp	r0, fp
    1024:	4602      	mov	r2, r0
    1026:	bfb8      	it	lt
    1028:	465a      	movlt	r2, fp
/mnt/disk/raspbian-tee/optee_os/lib/libutils/ext/snprintk.c:566
    102a:	f1ba 0f00 	cmp.w	sl, #0
    102e:	f000 8165 	beq.w	12fc <__vsnprintf+0x64c>
/mnt/disk/raspbian-tee/optee_os/lib/libutils/ext/snprintk.c:567
    1032:	3201      	adds	r2, #1
/mnt/disk/raspbian-tee/optee_os/lib/libutils/ext/snprintk.c:572
    1034:	990d      	ldr	r1, [sp, #52]	; 0x34
    1036:	9c0c      	ldr	r4, [sp, #48]	; 0x30
    1038:	4291      	cmp	r1, r2
    103a:	bfb8      	it	lt
    103c:	4611      	movlt	r1, r2
    103e:	440c      	add	r4, r1
/mnt/disk/raspbian-tee/optee_os/lib/libutils/ext/snprintk.c:575
    1040:	f240 4104 	movw	r1, #1028	; 0x404
/mnt/disk/raspbian-tee/optee_os/lib/libutils/ext/snprintk.c:572
    1044:	940c      	str	r4, [sp, #48]	; 0x30
/mnt/disk/raspbian-tee/optee_os/lib/libutils/ext/snprintk.c:575
    1046:	ea16 0401 	ands.w	r4, r6, r1
    104a:	d106      	bne.n	105a <__vsnprintf+0x3aa>
/mnt/disk/raspbian-tee/optee_os/lib/libutils/ext/snprintk.c:576
    104c:	990d      	ldr	r1, [sp, #52]	; 0x34
/mnt/disk/raspbian-tee/optee_os/lib/libutils/ext/snprintk.c:578
    104e:	f04f 0c20 	mov.w	ip, #32
/mnt/disk/raspbian-tee/optee_os/lib/libutils/ext/snprintk.c:576
    1052:	1a89      	subs	r1, r1, r2
/mnt/disk/raspbian-tee/optee_os/lib/libutils/ext/snprintk.c:577
    1054:	2900      	cmp	r1, #0
    1056:	f300 8155 	bgt.w	1304 <__vsnprintf+0x654>
/mnt/disk/raspbian-tee/optee_os/lib/libutils/ext/snprintk.c:582
    105a:	f1ba 0f00 	cmp.w	sl, #0
    105e:	f000 8166 	beq.w	132e <__vsnprintf+0x67e>
/mnt/disk/raspbian-tee/optee_os/lib/libutils/ext/snprintk.c:583
    1062:	f1b8 0f00 	cmp.w	r8, #0
    1066:	f040 8159 	bne.w	131c <__vsnprintf+0x66c>
/mnt/disk/raspbian-tee/optee_os/lib/libutils/ext/snprintk.c:586
    106a:	f04f 0800 	mov.w	r8, #0
/mnt/disk/raspbian-tee/optee_os/lib/libutils/ext/snprintk.c:590
    106e:	f5b4 6f80 	cmp.w	r4, #1024	; 0x400
    1072:	d105      	bne.n	1080 <__vsnprintf+0x3d0>
/mnt/disk/raspbian-tee/optee_os/lib/libutils/ext/snprintk.c:591
    1074:	990d      	ldr	r1, [sp, #52]	; 0x34
/mnt/disk/raspbian-tee/optee_os/lib/libutils/ext/snprintk.c:593
    1076:	2430      	movs	r4, #48	; 0x30
/mnt/disk/raspbian-tee/optee_os/lib/libutils/ext/snprintk.c:591
    1078:	1a89      	subs	r1, r1, r2
/mnt/disk/raspbian-tee/optee_os/lib/libutils/ext/snprintk.c:592
    107a:	2900      	cmp	r1, #0
    107c:	f300 8173 	bgt.w	1366 <__vsnprintf+0x6b6>
/mnt/disk/raspbian-tee/optee_os/lib/libutils/ext/snprintk.c:597
    1080:	eba0 000b 	sub.w	r0, r0, fp
/mnt/disk/raspbian-tee/optee_os/lib/libutils/ext/snprintk.c:599
    1084:	2130      	movs	r1, #48	; 0x30
/mnt/disk/raspbian-tee/optee_os/lib/libutils/ext/snprintk.c:598
    1086:	2800      	cmp	r0, #0
    1088:	f300 8179 	bgt.w	137e <__vsnprintf+0x6ce>
    108c:	eb03 010b 	add.w	r1, r3, fp
/mnt/disk/raspbian-tee/optee_os/lib/libutils/ext/snprintk.c:602
    1090:	428b      	cmp	r3, r1
    1092:	f040 8180 	bne.w	1396 <__vsnprintf+0x6e6>
/mnt/disk/raspbian-tee/optee_os/lib/libutils/ext/snprintk.c:605
    1096:	0773      	lsls	r3, r6, #29
    1098:	f57f ae1b 	bpl.w	cd2 <__vsnprintf+0x22>
/mnt/disk/raspbian-tee/optee_os/lib/libutils/ext/snprintk.c:606
    109c:	9b0d      	ldr	r3, [sp, #52]	; 0x34
    109e:	1a9b      	subs	r3, r3, r2
/mnt/disk/raspbian-tee/optee_os/lib/libutils/ext/snprintk.c:608
    10a0:	2220      	movs	r2, #32
/mnt/disk/raspbian-tee/optee_os/lib/libutils/ext/snprintk.c:607
    10a2:	2b00      	cmp	r3, #0
    10a4:	f77f ae15 	ble.w	cd2 <__vsnprintf+0x22>
/mnt/disk/raspbian-tee/optee_os/lib/libutils/ext/snprintk.c:608
    10a8:	f1b8 0f00 	cmp.w	r8, #0
    10ac:	d006      	beq.n	10bc <__vsnprintf+0x40c>
    10ae:	990e      	ldr	r1, [sp, #56]	; 0x38
    10b0:	4541      	cmp	r1, r8
    10b2:	d903      	bls.n	10bc <__vsnprintf+0x40c>
    10b4:	f888 2000 	strb.w	r2, [r8]
    10b8:	f108 0801 	add.w	r8, r8, #1
    10bc:	3b01      	subs	r3, #1
    10be:	e7f0      	b.n	10a2 <__vsnprintf+0x3f2>
/mnt/disk/raspbian-tee/optee_os/lib/libutils/ext/snprintk.c:380
    10c0:	f046 0610 	orr.w	r6, r6, #16
/mnt/disk/raspbian-tee/optee_os/lib/libutils/ext/snprintk.c:384
    10c4:	0631      	lsls	r1, r6, #24
    10c6:	d523      	bpl.n	1110 <__vsnprintf+0x460>
    10c8:	3207      	adds	r2, #7
    10ca:	f022 0207 	bic.w	r2, r2, #7
    10ce:	f102 0708 	add.w	r7, r2, #8
    10d2:	e9d2 4500 	ldrd	r4, r5, [r2]
/mnt/disk/raspbian-tee/optee_os/lib/libutils/ext/snprintk.c:385
    10d6:	2c00      	cmp	r4, #0
    10d8:	f175 0300 	sbcs.w	r3, r5, #0
    10dc:	da04      	bge.n	10e8 <__vsnprintf+0x438>
/mnt/disk/raspbian-tee/optee_os/lib/libutils/ext/snprintk.c:386
    10de:	4264      	negs	r4, r4
/mnt/disk/raspbian-tee/optee_os/lib/libutils/ext/snprintk.c:387
    10e0:	f04f 0a2d 	mov.w	sl, #45	; 0x2d
/mnt/disk/raspbian-tee/optee_os/lib/libutils/ext/snprintk.c:386
    10e4:	eb65 0545 	sbc.w	r5, r5, r5, lsl #1
/mnt/disk/raspbian-tee/optee_os/lib/libutils/ext/snprintk.c:488
    10e8:	f1bb 3fff 	cmp.w	fp, #4294967295	; 0xffffffff
    10ec:	f040 80ec 	bne.w	12c8 <__vsnprintf+0x618>
/mnt/disk/raspbian-tee/optee_os/lib/libutils/ext/snprintk.c:508
    10f0:	f10d 0375 	add.w	r3, sp, #117	; 0x75
    10f4:	9311      	str	r3, [sp, #68]	; 0x44
    10f6:	9b11      	ldr	r3, [sp, #68]	; 0x44
/mnt/disk/raspbian-tee/optee_os/lib/libutils/ext/snprintk.c:516
    10f8:	2d00      	cmp	r5, #0
    10fa:	bf08      	it	eq
    10fc:	2c0a      	cmpeq	r4, #10
    10fe:	f103 33ff 	add.w	r3, r3, #4294967295	; 0xffffffff
    1102:	f080 80e5 	bcs.w	12d0 <__vsnprintf+0x620>
/mnt/disk/raspbian-tee/optee_os/lib/libutils/ext/snprintk.c:520
    1106:	9a11      	ldr	r2, [sp, #68]	; 0x44
    1108:	3430      	adds	r4, #48	; 0x30
    110a:	f802 4c01 	strb.w	r4, [r2, #-1]
    110e:	e6ac      	b.n	e6a <__vsnprintf+0x1ba>
/mnt/disk/raspbian-tee/optee_os/lib/libutils/ext/snprintk.c:384
    1110:	05f3      	lsls	r3, r6, #23
    1112:	d503      	bpl.n	111c <__vsnprintf+0x46c>
    1114:	1d17      	adds	r7, r2, #4
    1116:	6814      	ldr	r4, [r2, #0]
    1118:	17e5      	asrs	r5, r4, #31
    111a:	e7dc      	b.n	10d6 <__vsnprintf+0x426>
    111c:	05b7      	lsls	r7, r6, #22
    111e:	d4f9      	bmi.n	1114 <__vsnprintf+0x464>
    1120:	06b5      	lsls	r5, r6, #26
    1122:	d4d1      	bmi.n	10c8 <__vsnprintf+0x418>
    1124:	f016 0f10 	tst.w	r6, #16
    1128:	f102 0704 	add.w	r7, r2, #4
    112c:	d1f3      	bne.n	1116 <__vsnprintf+0x466>
    112e:	f016 0f40 	tst.w	r6, #64	; 0x40
    1132:	6814      	ldr	r4, [r2, #0]
    1134:	d0f0      	beq.n	1118 <__vsnprintf+0x468>
    1136:	b224      	sxth	r4, r4
    1138:	e7ee      	b.n	1118 <__vsnprintf+0x468>
/mnt/disk/raspbian-tee/optee_os/lib/libutils/ext/snprintk.c:392
    113a:	f016 0f80 	tst.w	r6, #128	; 0x80
    113e:	f102 0704 	add.w	r7, r2, #4
    1142:	d006      	beq.n	1152 <__vsnprintf+0x4a2>
/mnt/disk/raspbian-tee/optee_os/lib/libutils/ext/snprintk.c:399
    1144:	6813      	ldr	r3, [r2, #0]
    1146:	9a0c      	ldr	r2, [sp, #48]	; 0x30
    1148:	4610      	mov	r0, r2
    114a:	17d1      	asrs	r1, r2, #31
    114c:	e9c3 0100 	strd	r0, r1, [r3]
    1150:	e5bf      	b.n	cd2 <__vsnprintf+0x22>
/mnt/disk/raspbian-tee/optee_os/lib/libutils/ext/snprintk.c:394
    1152:	05f4      	lsls	r4, r6, #23
    1154:	d503      	bpl.n	115e <__vsnprintf+0x4ae>
/mnt/disk/raspbian-tee/optee_os/lib/libutils/ext/snprintk.c:405
    1156:	6813      	ldr	r3, [r2, #0]
    1158:	9a0c      	ldr	r2, [sp, #48]	; 0x30
    115a:	601a      	str	r2, [r3, #0]
    115c:	e5b9      	b.n	cd2 <__vsnprintf+0x22>
/mnt/disk/raspbian-tee/optee_os/lib/libutils/ext/snprintk.c:396
    115e:	05b0      	lsls	r0, r6, #22
    1160:	d4f9      	bmi.n	1156 <__vsnprintf+0x4a6>
/mnt/disk/raspbian-tee/optee_os/lib/libutils/ext/snprintk.c:398
    1162:	06b1      	lsls	r1, r6, #26
    1164:	d4ee      	bmi.n	1144 <__vsnprintf+0x494>
/mnt/disk/raspbian-tee/optee_os/lib/libutils/ext/snprintk.c:400
    1166:	06f3      	lsls	r3, r6, #27
    1168:	d4f5      	bmi.n	1156 <__vsnprintf+0x4a6>
/mnt/disk/raspbian-tee/optee_os/lib/libutils/ext/snprintk.c:402
    116a:	0676      	lsls	r6, r6, #25
    116c:	d5f3      	bpl.n	1156 <__vsnprintf+0x4a6>
/mnt/disk/raspbian-tee/optee_os/lib/libutils/ext/snprintk.c:403
    116e:	6813      	ldr	r3, [r2, #0]
    1170:	f8bd 2030 	ldrh.w	r2, [sp, #48]	; 0x30
    1174:	801a      	strh	r2, [r3, #0]
    1176:	e5ac      	b.n	cd2 <__vsnprintf+0x22>
/mnt/disk/raspbian-tee/optee_os/lib/libutils/ext/snprintk.c:411
    1178:	05f4      	lsls	r4, r6, #23
    117a:	d502      	bpl.n	1182 <__vsnprintf+0x4d2>
    117c:	1d17      	adds	r7, r2, #4
    117e:	6814      	ldr	r4, [r2, #0]
    1180:	e00c      	b.n	119c <__vsnprintf+0x4ec>
    1182:	05b0      	lsls	r0, r6, #22
    1184:	d4fa      	bmi.n	117c <__vsnprintf+0x4cc>
    1186:	06b1      	lsls	r1, r6, #26
    1188:	f53f ae36 	bmi.w	df8 <__vsnprintf+0x148>
    118c:	f016 0f10 	tst.w	r6, #16
    1190:	f102 0704 	add.w	r7, r2, #4
    1194:	d1f3      	bne.n	117e <__vsnprintf+0x4ce>
    1196:	0673      	lsls	r3, r6, #25
    1198:	d5f1      	bpl.n	117e <__vsnprintf+0x4ce>
    119a:	8814      	ldrh	r4, [r2, #0]
    119c:	2500      	movs	r5, #0
    119e:	e632      	b.n	e06 <__vsnprintf+0x156>
/mnt/disk/raspbian-tee/optee_os/lib/libutils/ext/snprintk.c:415
    11a0:	9b13      	ldr	r3, [sp, #76]	; 0x4c
    11a2:	2b00      	cmp	r3, #0
    11a4:	d02d      	beq.n	1202 <__vsnprintf+0x552>
    11a6:	9b0b      	ldr	r3, [sp, #44]	; 0x2c
    11a8:	781b      	ldrb	r3, [r3, #0]
    11aa:	2b55      	cmp	r3, #85	; 0x55
    11ac:	d129      	bne.n	1202 <__vsnprintf+0x552>
    11ae:	9b0b      	ldr	r3, [sp, #44]	; 0x2c
    11b0:	785b      	ldrb	r3, [r3, #1]
    11b2:	2b6c      	cmp	r3, #108	; 0x6c
    11b4:	d125      	bne.n	1202 <__vsnprintf+0x552>
/mnt/disk/raspbian-tee/optee_os/lib/libutils/ext/snprintk.c:420
    11b6:	9b0b      	ldr	r3, [sp, #44]	; 0x2c
/mnt/disk/raspbian-tee/optee_os/lib/libutils/ext/snprintk.c:421
    11b8:	1d17      	adds	r7, r2, #4
uuid2str():
/mnt/disk/raspbian-tee/optee_os/lib/libutils/ext/snprintk.c:223
    11ba:	ac14      	add	r4, sp, #80	; 0x50
    11bc:	2125      	movs	r1, #37	; 0x25
kprintf():
/mnt/disk/raspbian-tee/optee_os/lib/libutils/ext/snprintk.c:420
    11be:	3302      	adds	r3, #2
    11c0:	930b      	str	r3, [sp, #44]	; 0x2c
/mnt/disk/raspbian-tee/optee_os/lib/libutils/ext/snprintk.c:421
    11c2:	6813      	ldr	r3, [r2, #0]
uuid2str():
/mnt/disk/raspbian-tee/optee_os/lib/libutils/ext/snprintk.c:223
    11c4:	4620      	mov	r0, r4
    11c6:	7bda      	ldrb	r2, [r3, #15]
    11c8:	9209      	str	r2, [sp, #36]	; 0x24
    11ca:	7b9a      	ldrb	r2, [r3, #14]
    11cc:	9208      	str	r2, [sp, #32]
    11ce:	7b5a      	ldrb	r2, [r3, #13]
    11d0:	9207      	str	r2, [sp, #28]
    11d2:	7b1a      	ldrb	r2, [r3, #12]
    11d4:	9206      	str	r2, [sp, #24]
    11d6:	7ada      	ldrb	r2, [r3, #11]
    11d8:	9205      	str	r2, [sp, #20]
    11da:	7a9a      	ldrb	r2, [r3, #10]
    11dc:	9204      	str	r2, [sp, #16]
    11de:	7a5a      	ldrb	r2, [r3, #9]
    11e0:	9203      	str	r2, [sp, #12]
    11e2:	7a1a      	ldrb	r2, [r3, #8]
    11e4:	9202      	str	r2, [sp, #8]
    11e6:	88da      	ldrh	r2, [r3, #6]
    11e8:	9201      	str	r2, [sp, #4]
    11ea:	889a      	ldrh	r2, [r3, #4]
    11ec:	9200      	str	r2, [sp, #0]
    11ee:	4a7a      	ldr	r2, [pc, #488]	; (13d8 <__vsnprintf+0x728>)
    11f0:	681b      	ldr	r3, [r3, #0]
    11f2:	447a      	add	r2, pc
    11f4:	f000 f8fd 	bl	13f2 <snprintk>
    11f8:	4683      	mov	fp, r0
kprintf():
/mnt/disk/raspbian-tee/optee_os/lib/libutils/ext/snprintk.c:285
    11fa:	2000      	movs	r0, #0
/mnt/disk/raspbian-tee/optee_os/lib/libutils/ext/snprintk.c:423
    11fc:	4623      	mov	r3, r4
/mnt/disk/raspbian-tee/optee_os/lib/libutils/ext/snprintk.c:424
    11fe:	4682      	mov	sl, r0
    1200:	e70f      	b.n	1022 <__vsnprintf+0x372>
/mnt/disk/raspbian-tee/optee_os/lib/libutils/ext/snprintk.c:437
    1202:	4b76      	ldr	r3, [pc, #472]	; (13dc <__vsnprintf+0x72c>)
/mnt/disk/raspbian-tee/optee_os/lib/libutils/ext/snprintk.c:435
    1204:	1d17      	adds	r7, r2, #4
    1206:	6814      	ldr	r4, [r2, #0]
    1208:	2500      	movs	r5, #0
/mnt/disk/raspbian-tee/optee_os/lib/libutils/ext/snprintk.c:437
    120a:	447b      	add	r3, pc
/mnt/disk/raspbian-tee/optee_os/lib/libutils/ext/snprintk.c:438
    120c:	f046 0602 	orr.w	r6, r6, #2
/mnt/disk/raspbian-tee/optee_os/lib/libutils/ext/snprintk.c:439
    1210:	f04f 0978 	mov.w	r9, #120	; 0x78
/mnt/disk/raspbian-tee/optee_os/lib/libutils/ext/snprintk.c:437
    1214:	3311      	adds	r3, #17
    1216:	930f      	str	r3, [sp, #60]	; 0x3c
/mnt/disk/raspbian-tee/optee_os/lib/libutils/ext/snprintk.c:488
    1218:	f1bb 3fff 	cmp.w	fp, #4294967295	; 0xffffffff
    121c:	f47f aeaa 	bne.w	f74 <__vsnprintf+0x2c4>
    1220:	f04f 0a00 	mov.w	sl, #0
    1224:	f10d 0375 	add.w	r3, sp, #117	; 0x75
/mnt/disk/raspbian-tee/optee_os/lib/libutils/ext/snprintk.c:525
    1228:	f004 020f 	and.w	r2, r4, #15
    122c:	990f      	ldr	r1, [sp, #60]	; 0x3c
    122e:	5c8a      	ldrb	r2, [r1, r2]
/mnt/disk/raspbian-tee/optee_os/lib/libutils/ext/snprintk.c:526
    1230:	0929      	lsrs	r1, r5, #4
/mnt/disk/raspbian-tee/optee_os/lib/libutils/ext/snprintk.c:525
    1232:	f803 2d01 	strb.w	r2, [r3, #-1]!
/mnt/disk/raspbian-tee/optee_os/lib/libutils/ext/snprintk.c:526
    1236:	0922      	lsrs	r2, r4, #4
    1238:	ea42 7205 	orr.w	r2, r2, r5, lsl #28
    123c:	460d      	mov	r5, r1
    123e:	4614      	mov	r4, r2
/mnt/disk/raspbian-tee/optee_os/lib/libutils/ext/snprintk.c:527
    1240:	ea54 0205 	orrs.w	r2, r4, r5
    1244:	d1f0      	bne.n	1228 <__vsnprintf+0x578>
    1246:	e610      	b.n	e6a <__vsnprintf+0x1ba>
/mnt/disk/raspbian-tee/optee_os/lib/libutils/ext/snprintk.c:460
    1248:	4618      	mov	r0, r3
    124a:	9311      	str	r3, [sp, #68]	; 0x44
    124c:	f005 fa5b 	bl	6706 <strlen>
    1250:	4683      	mov	fp, r0
/mnt/disk/raspbian-tee/optee_os/lib/libutils/ext/snprintk.c:285
    1252:	2000      	movs	r0, #0
    1254:	9b11      	ldr	r3, [sp, #68]	; 0x44
/mnt/disk/raspbian-tee/optee_os/lib/libutils/ext/snprintk.c:461
    1256:	4682      	mov	sl, r0
    1258:	e6e3      	b.n	1022 <__vsnprintf+0x372>
/mnt/disk/raspbian-tee/optee_os/lib/libutils/ext/snprintk.c:464
    125a:	f046 0610 	orr.w	r6, r6, #16
    125e:	e660      	b.n	f22 <__vsnprintf+0x272>
/mnt/disk/raspbian-tee/optee_os/lib/libutils/ext/snprintk.c:467
    1260:	f416 7a80 	ands.w	sl, r6, #256	; 0x100
    1264:	d003      	beq.n	126e <__vsnprintf+0x5be>
    1266:	6814      	ldr	r4, [r2, #0]
    1268:	1d17      	adds	r7, r2, #4
    126a:	2500      	movs	r5, #0
    126c:	e664      	b.n	f38 <__vsnprintf+0x288>
    126e:	f416 7300 	ands.w	r3, r6, #512	; 0x200
    1272:	d003      	beq.n	127c <__vsnprintf+0x5cc>
    1274:	1d17      	adds	r7, r2, #4
    1276:	6814      	ldr	r4, [r2, #0]
    1278:	2500      	movs	r5, #0
    127a:	e735      	b.n	10e8 <__vsnprintf+0x438>
    127c:	f016 0a20 	ands.w	sl, r6, #32
    1280:	f47f ae53 	bne.w	f2a <__vsnprintf+0x27a>
    1284:	f016 0310 	ands.w	r3, r6, #16
    1288:	f102 0704 	add.w	r7, r2, #4
    128c:	d1f3      	bne.n	1276 <__vsnprintf+0x5c6>
    128e:	f016 0a40 	ands.w	sl, r6, #64	; 0x40
    1292:	d0f0      	beq.n	1276 <__vsnprintf+0x5c6>
    1294:	8814      	ldrh	r4, [r2, #0]
    1296:	e7e8      	b.n	126a <__vsnprintf+0x5ba>
/mnt/disk/raspbian-tee/optee_os/lib/libutils/ext/snprintk.c:474
    1298:	4b51      	ldr	r3, [pc, #324]	; (13e0 <__vsnprintf+0x730>)
    129a:	447b      	add	r3, pc
    129c:	3311      	adds	r3, #17
    129e:	e651      	b.n	f44 <__vsnprintf+0x294>
/mnt/disk/raspbian-tee/optee_os/lib/libutils/ext/snprintk.c:475
    12a0:	05f5      	lsls	r5, r6, #23
    12a2:	d502      	bpl.n	12aa <__vsnprintf+0x5fa>
    12a4:	1d17      	adds	r7, r2, #4
    12a6:	6814      	ldr	r4, [r2, #0]
    12a8:	e00c      	b.n	12c4 <__vsnprintf+0x614>
    12aa:	05b4      	lsls	r4, r6, #22
    12ac:	d4fa      	bmi.n	12a4 <__vsnprintf+0x5f4>
    12ae:	06b0      	lsls	r0, r6, #26
    12b0:	f53f ae4c 	bmi.w	f4c <__vsnprintf+0x29c>
    12b4:	f016 0f10 	tst.w	r6, #16
    12b8:	f102 0704 	add.w	r7, r2, #4
    12bc:	d1f3      	bne.n	12a6 <__vsnprintf+0x5f6>
    12be:	0671      	lsls	r1, r6, #25
    12c0:	d5f1      	bpl.n	12a6 <__vsnprintf+0x5f6>
    12c2:	8814      	ldrh	r4, [r2, #0]
    12c4:	2500      	movs	r5, #0
    12c6:	e648      	b.n	f5a <__vsnprintf+0x2aa>
/mnt/disk/raspbian-tee/optee_os/lib/libutils/ext/snprintk.c:488
    12c8:	2301      	movs	r3, #1
    12ca:	e5a2      	b.n	e12 <__vsnprintf+0x162>
/mnt/disk/raspbian-tee/optee_os/lib/libutils/ext/snprintk.c:508
    12cc:	461a      	mov	r2, r3
    12ce:	e5b3      	b.n	e38 <__vsnprintf+0x188>
/mnt/disk/raspbian-tee/optee_os/lib/libutils/ext/snprintk.c:517
    12d0:	9311      	str	r3, [sp, #68]	; 0x44
    12d2:	4620      	mov	r0, r4
    12d4:	4629      	mov	r1, r5
    12d6:	220a      	movs	r2, #10
    12d8:	2300      	movs	r3, #0
    12da:	f000 ea02 	blx	16e0 <__aeabi_uldivmod>
    12de:	9b11      	ldr	r3, [sp, #68]	; 0x44
    12e0:	3230      	adds	r2, #48	; 0x30
/mnt/disk/raspbian-tee/optee_os/lib/libutils/ext/snprintk.c:518
    12e2:	4620      	mov	r0, r4
    12e4:	4629      	mov	r1, r5
/mnt/disk/raspbian-tee/optee_os/lib/libutils/ext/snprintk.c:517
    12e6:	701a      	strb	r2, [r3, #0]
/mnt/disk/raspbian-tee/optee_os/lib/libutils/ext/snprintk.c:518
    12e8:	220a      	movs	r2, #10
    12ea:	2300      	movs	r3, #0
    12ec:	f000 e9f8 	blx	16e0 <__aeabi_uldivmod>
    12f0:	4604      	mov	r4, r0
    12f2:	460d      	mov	r5, r1
    12f4:	e6ff      	b.n	10f6 <__vsnprintf+0x446>
/mnt/disk/raspbian-tee/optee_os/lib/libutils/ext/snprintk.c:496
    12f6:	f10d 0375 	add.w	r3, sp, #117	; 0x75
    12fa:	e5b6      	b.n	e6a <__vsnprintf+0x1ba>
/mnt/disk/raspbian-tee/optee_os/lib/libutils/ext/snprintk.c:568
    12fc:	07b4      	lsls	r4, r6, #30
/mnt/disk/raspbian-tee/optee_os/lib/libutils/ext/snprintk.c:569
    12fe:	bf48      	it	mi
    1300:	3202      	addmi	r2, #2
    1302:	e697      	b.n	1034 <__vsnprintf+0x384>
/mnt/disk/raspbian-tee/optee_os/lib/libutils/ext/snprintk.c:578
    1304:	f1b8 0f00 	cmp.w	r8, #0
    1308:	d006      	beq.n	1318 <__vsnprintf+0x668>
    130a:	9d0e      	ldr	r5, [sp, #56]	; 0x38
    130c:	4545      	cmp	r5, r8
    130e:	d903      	bls.n	1318 <__vsnprintf+0x668>
    1310:	f888 c000 	strb.w	ip, [r8]
    1314:	f108 0801 	add.w	r8, r8, #1
    1318:	3901      	subs	r1, #1
    131a:	e69b      	b.n	1054 <__vsnprintf+0x3a4>
/mnt/disk/raspbian-tee/optee_os/lib/libutils/ext/snprintk.c:583
    131c:	990e      	ldr	r1, [sp, #56]	; 0x38
    131e:	4541      	cmp	r1, r8
    1320:	f67f aea5 	bls.w	106e <__vsnprintf+0x3be>
    1324:	f888 a000 	strb.w	sl, [r8]
    1328:	f108 0801 	add.w	r8, r8, #1
    132c:	e69f      	b.n	106e <__vsnprintf+0x3be>
/mnt/disk/raspbian-tee/optee_os/lib/libutils/ext/snprintk.c:584
    132e:	07b1      	lsls	r1, r6, #30
    1330:	f57f ae9d 	bpl.w	106e <__vsnprintf+0x3be>
/mnt/disk/raspbian-tee/optee_os/lib/libutils/ext/snprintk.c:585
    1334:	f1b8 0f00 	cmp.w	r8, #0
    1338:	f43f ae97 	beq.w	106a <__vsnprintf+0x3ba>
    133c:	990e      	ldr	r1, [sp, #56]	; 0x38
    133e:	4541      	cmp	r1, r8
    1340:	f67f ae95 	bls.w	106e <__vsnprintf+0x3be>
    1344:	2130      	movs	r1, #48	; 0x30
    1346:	f888 1000 	strb.w	r1, [r8]
/mnt/disk/raspbian-tee/optee_os/lib/libutils/ext/snprintk.c:586
    134a:	f118 0101 	adds.w	r1, r8, #1
    134e:	f43f ae8c 	beq.w	106a <__vsnprintf+0x3ba>
    1352:	9d0e      	ldr	r5, [sp, #56]	; 0x38
    1354:	428d      	cmp	r5, r1
    1356:	d904      	bls.n	1362 <__vsnprintf+0x6b2>
    1358:	f888 9001 	strb.w	r9, [r8, #1]
    135c:	f108 0802 	add.w	r8, r8, #2
    1360:	e685      	b.n	106e <__vsnprintf+0x3be>
    1362:	4688      	mov	r8, r1
    1364:	e683      	b.n	106e <__vsnprintf+0x3be>
/mnt/disk/raspbian-tee/optee_os/lib/libutils/ext/snprintk.c:593
    1366:	f1b8 0f00 	cmp.w	r8, #0
    136a:	d006      	beq.n	137a <__vsnprintf+0x6ca>
    136c:	9d0e      	ldr	r5, [sp, #56]	; 0x38
    136e:	4545      	cmp	r5, r8
    1370:	d903      	bls.n	137a <__vsnprintf+0x6ca>
    1372:	f888 4000 	strb.w	r4, [r8]
    1376:	f108 0801 	add.w	r8, r8, #1
    137a:	3901      	subs	r1, #1
    137c:	e67d      	b.n	107a <__vsnprintf+0x3ca>
/mnt/disk/raspbian-tee/optee_os/lib/libutils/ext/snprintk.c:599
    137e:	f1b8 0f00 	cmp.w	r8, #0
    1382:	d006      	beq.n	1392 <__vsnprintf+0x6e2>
    1384:	9c0e      	ldr	r4, [sp, #56]	; 0x38
    1386:	4544      	cmp	r4, r8
    1388:	d903      	bls.n	1392 <__vsnprintf+0x6e2>
    138a:	f888 1000 	strb.w	r1, [r8]
    138e:	f108 0801 	add.w	r8, r8, #1
    1392:	3801      	subs	r0, #1
    1394:	e677      	b.n	1086 <__vsnprintf+0x3d6>
/mnt/disk/raspbian-tee/optee_os/lib/libutils/ext/snprintk.c:603
    1396:	f1b8 0f00 	cmp.w	r8, #0
    139a:	d007      	beq.n	13ac <__vsnprintf+0x6fc>
    139c:	980e      	ldr	r0, [sp, #56]	; 0x38
    139e:	4540      	cmp	r0, r8
    13a0:	d904      	bls.n	13ac <__vsnprintf+0x6fc>
    13a2:	7818      	ldrb	r0, [r3, #0]
    13a4:	f108 0801 	add.w	r8, r8, #1
    13a8:	f808 0c01 	strb.w	r0, [r8, #-1]
/mnt/disk/raspbian-tee/optee_os/lib/libutils/ext/snprintk.c:602
    13ac:	3301      	adds	r3, #1
    13ae:	e66f      	b.n	1090 <__vsnprintf+0x3e0>
__vsnprintf():
/mnt/disk/raspbian-tee/optee_os/lib/libutils/ext/snprintk.c:148
    13b0:	990c      	ldr	r1, [sp, #48]	; 0x30
    13b2:	5453      	strb	r3, [r2, r1]
/mnt/disk/raspbian-tee/optee_os/lib/libutils/ext/snprintk.c:150
    13b4:	e4a1      	b.n	cfa <__vsnprintf+0x4a>
kprintf():
/mnt/disk/raspbian-tee/optee_os/lib/libutils/ext/snprintk.c:489
    13b6:	f426 6680 	bic.w	r6, r6, #1024	; 0x400
/mnt/disk/raspbian-tee/optee_os/lib/libutils/ext/snprintk.c:482
    13ba:	f04f 0a00 	mov.w	sl, #0
/mnt/disk/raspbian-tee/optee_os/lib/libutils/ext/snprintk.c:476
    13be:	2302      	movs	r3, #2
    13c0:	e52c      	b.n	e1c <__vsnprintf+0x16c>
/mnt/disk/raspbian-tee/optee_os/lib/libutils/ext/snprintk.c:488
    13c2:	f1bb 3fff 	cmp.w	fp, #4294967295	; 0xffffffff
    13c6:	d1f6      	bne.n	13b6 <__vsnprintf+0x706>
    13c8:	f04f 3bff 	mov.w	fp, #4294967295	; 0xffffffff
    13cc:	e728      	b.n	1220 <__vsnprintf+0x570>
    13ce:	bf00      	nop
    13d0:	00005f5b 	.word	0x00005f5b
    13d4:	00005edb 	.word	0x00005edb
    13d8:	00005c54 	.word	0x00005c54
    13dc:	00005c13 	.word	0x00005c13
    13e0:	00005b83 	.word	0x00005b83

000013e4 <vsnprintk>:
vsnprintk():
/mnt/disk/raspbian-tee/optee_os/lib/libutils/ext/snprintk.c:129
    13e4:	b513      	push	{r0, r1, r4, lr}
/mnt/disk/raspbian-tee/optee_os/lib/libutils/ext/snprintk.c:130
    13e6:	2401      	movs	r4, #1
    13e8:	9400      	str	r4, [sp, #0]
    13ea:	f7ff fc61 	bl	cb0 <__vsnprintf>
/mnt/disk/raspbian-tee/optee_os/lib/libutils/ext/snprintk.c:131
    13ee:	b002      	add	sp, #8
    13f0:	bd10      	pop	{r4, pc}

000013f2 <snprintk>:
snprintk():
/mnt/disk/raspbian-tee/optee_os/lib/libutils/ext/snprintk.c:112
    13f2:	b40c      	push	{r2, r3}
    13f4:	b507      	push	{r0, r1, r2, lr}
    13f6:	ab04      	add	r3, sp, #16
    13f8:	f853 2b04 	ldr.w	r2, [r3], #4
/mnt/disk/raspbian-tee/optee_os/lib/libutils/ext/snprintk.c:116
    13fc:	9301      	str	r3, [sp, #4]
/mnt/disk/raspbian-tee/optee_os/lib/libutils/ext/snprintk.c:117
    13fe:	f7ff fff1 	bl	13e4 <vsnprintk>
/mnt/disk/raspbian-tee/optee_os/lib/libutils/ext/snprintk.c:121
    1402:	b003      	add	sp, #12
    1404:	f85d eb04 	ldr.w	lr, [sp], #4
    1408:	b002      	add	sp, #8
    140a:	4770      	bx	lr

0000140c <append>:
append():
/mnt/disk/raspbian-tee/optee_os/lib/libutils/ext/trace.c:198
    140c:	b40e      	push	{r1, r2, r3}
/mnt/disk/raspbian-tee/optee_os/lib/libutils/ext/trace.c:203
    140e:	f8d0 3100 	ldr.w	r3, [r0, #256]	; 0x100
/mnt/disk/raspbian-tee/optee_os/lib/libutils/ext/trace.c:198
    1412:	b533      	push	{r0, r1, r4, r5, lr}
    1414:	4604      	mov	r4, r0
/mnt/disk/raspbian-tee/optee_os/lib/libutils/ext/trace.c:203
    1416:	b90b      	cbnz	r3, 141c <append+0x10>
/mnt/disk/raspbian-tee/optee_os/lib/libutils/ext/trace.c:204
    1418:	f8c4 0100 	str.w	r0, [r4, #256]	; 0x100
/mnt/disk/raspbian-tee/optee_os/lib/libutils/ext/trace.c:205
    141c:	f8d4 0100 	ldr.w	r0, [r4, #256]	; 0x100
/mnt/disk/raspbian-tee/optee_os/lib/libutils/ext/trace.c:206
    1420:	ab06      	add	r3, sp, #24
/mnt/disk/raspbian-tee/optee_os/lib/libutils/ext/trace.c:207
    1422:	9a05      	ldr	r2, [sp, #20]
/mnt/disk/raspbian-tee/optee_os/lib/libutils/ext/trace.c:205
    1424:	1b05      	subs	r5, r0, r4
/mnt/disk/raspbian-tee/optee_os/lib/libutils/ext/trace.c:206
    1426:	9301      	str	r3, [sp, #4]
/mnt/disk/raspbian-tee/optee_os/lib/libutils/ext/trace.c:205
    1428:	f5c5 7580 	rsb	r5, r5, #256	; 0x100
/mnt/disk/raspbian-tee/optee_os/lib/libutils/ext/trace.c:207
    142c:	4629      	mov	r1, r5
    142e:	f7ff ffd9 	bl	13e4 <vsnprintk>
/mnt/disk/raspbian-tee/optee_os/lib/libutils/ext/trace.c:209
    1432:	2800      	cmp	r0, #0
    1434:	db0f      	blt.n	1456 <append+0x4a>
/mnt/disk/raspbian-tee/optee_os/lib/libutils/ext/trace.c:213
    1436:	4285      	cmp	r5, r0
    1438:	dd0d      	ble.n	1456 <append+0x4a>
/mnt/disk/raspbian-tee/optee_os/lib/libutils/ext/trace.c:217
    143a:	4285      	cmp	r5, r0
    143c:	bfa8      	it	ge
    143e:	4605      	movge	r5, r0
    1440:	f8d4 0100 	ldr.w	r0, [r4, #256]	; 0x100
    1444:	4405      	add	r5, r0
/mnt/disk/raspbian-tee/optee_os/lib/libutils/ext/trace.c:218
    1446:	2001      	movs	r0, #1
/mnt/disk/raspbian-tee/optee_os/lib/libutils/ext/trace.c:217
    1448:	f8c4 5100 	str.w	r5, [r4, #256]	; 0x100
/mnt/disk/raspbian-tee/optee_os/lib/libutils/ext/trace.c:219
    144c:	b002      	add	sp, #8
    144e:	e8bd 4030 	ldmia.w	sp!, {r4, r5, lr}
    1452:	b003      	add	sp, #12
    1454:	4770      	bx	lr
/mnt/disk/raspbian-tee/optee_os/lib/libutils/ext/trace.c:211
    1456:	2000      	movs	r0, #0
    1458:	e7f8      	b.n	144c <append+0x40>

0000145a <trace_set_level>:
trace_set_level():
/mnt/disk/raspbian-tee/optee_os/lib/libutils/ext/trace.c:25
    145a:	4b05      	ldr	r3, [pc, #20]	; (1470 <trace_set_level+0x16>)
/mnt/disk/raspbian-tee/optee_os/lib/libutils/ext/trace.c:26
    145c:	2804      	cmp	r0, #4
    145e:	4a05      	ldr	r2, [pc, #20]	; (1474 <trace_set_level+0x1a>)
/mnt/disk/raspbian-tee/optee_os/lib/libutils/ext/trace.c:25
    1460:	447b      	add	r3, pc
    1462:	589b      	ldr	r3, [r3, r2]
/mnt/disk/raspbian-tee/optee_os/lib/libutils/ext/trace.c:26
    1464:	d801      	bhi.n	146a <trace_set_level+0x10>
/mnt/disk/raspbian-tee/optee_os/lib/libutils/ext/trace.c:27
    1466:	6018      	str	r0, [r3, #0]
    1468:	4770      	bx	lr
/mnt/disk/raspbian-tee/optee_os/lib/libutils/ext/trace.c:29
    146a:	2204      	movs	r2, #4
    146c:	601a      	str	r2, [r3, #0]
    146e:	4770      	bx	lr
    1470:	00006c58 	.word	0x00006c58
    1474:	00000014 	.word	0x00000014

00001478 <trace_get_level>:
trace_get_level():
/mnt/disk/raspbian-tee/optee_os/lib/libutils/ext/trace.c:33
    1478:	4b02      	ldr	r3, [pc, #8]	; (1484 <trace_get_level+0xc>)
/mnt/disk/raspbian-tee/optee_os/lib/libutils/ext/trace.c:34
    147a:	4a03      	ldr	r2, [pc, #12]	; (1488 <trace_get_level+0x10>)
/mnt/disk/raspbian-tee/optee_os/lib/libutils/ext/trace.c:33
    147c:	447b      	add	r3, pc
/mnt/disk/raspbian-tee/optee_os/lib/libutils/ext/trace.c:34
    147e:	589b      	ldr	r3, [r3, r2]
/mnt/disk/raspbian-tee/optee_os/lib/libutils/ext/trace.c:35
    1480:	6818      	ldr	r0, [r3, #0]
    1482:	4770      	bx	lr
    1484:	00006c3c 	.word	0x00006c3c
    1488:	00000014 	.word	0x00000014

0000148c <trace_printf>:
trace_printf():
/mnt/disk/raspbian-tee/optee_os/lib/libutils/ext/trace.c:97
    148c:	e92d 47f0 	stmdb	sp!, {r4, r5, r6, r7, r8, r9, sl, lr}
    1490:	4607      	mov	r7, r0
    1492:	f8df 910c 	ldr.w	r9, [pc, #268]	; 15a0 <trace_printf+0x114>
    1496:	b0c6      	sub	sp, #280	; 0x118
    1498:	4688      	mov	r8, r1
    149a:	44f9      	add	r9, pc
    149c:	4614      	mov	r4, r2
/mnt/disk/raspbian-tee/optee_os/lib/libutils/ext/trace.c:103
    149e:	469a      	mov	sl, r3
    14a0:	2b00      	cmp	r3, #0
    14a2:	d06a      	beq.n	157a <trace_printf+0xee>
/mnt/disk/raspbian-tee/optee_os/lib/libutils/ext/trace.c:103 (discriminator 1)
    14a4:	4b3f      	ldr	r3, [pc, #252]	; (15a4 <trace_printf+0x118>)
    14a6:	f859 3003 	ldr.w	r3, [r9, r3]
    14aa:	681b      	ldr	r3, [r3, #0]
    14ac:	4293      	cmp	r3, r2
    14ae:	db61      	blt.n	1574 <trace_printf+0xe8>
trace_level_to_string():
/mnt/disk/raspbian-tee/optee_os/lib/libutils/ext/trace.c:52
    14b0:	4613      	mov	r3, r2
    14b2:	2a04      	cmp	r2, #4
/mnt/disk/raspbian-tee/optee_os/lib/libutils/ext/trace.c:55
    14b4:	4a3c      	ldr	r2, [pc, #240]	; (15a8 <trace_printf+0x11c>)
/mnt/disk/raspbian-tee/optee_os/lib/libutils/ext/trace.c:52
    14b6:	bf88      	it	hi
    14b8:	2300      	movhi	r3, #0
/mnt/disk/raspbian-tee/optee_os/lib/libutils/ext/trace.c:55
    14ba:	447a      	add	r2, pc
    14bc:	5cd3      	ldrb	r3, [r2, r3]
trace_printf():
/mnt/disk/raspbian-tee/optee_os/lib/libutils/ext/trace.c:107
    14be:	4a3b      	ldr	r2, [pc, #236]	; (15ac <trace_printf+0x120>)
    14c0:	ad06      	add	r5, sp, #24
    14c2:	f44f 7180 	mov.w	r1, #256	; 0x100
    14c6:	4628      	mov	r0, r5
    14c8:	447a      	add	r2, pc
    14ca:	f7ff ff92 	bl	13f2 <snprintk>
/mnt/disk/raspbian-tee/optee_os/lib/libutils/ext/trace.c:109
    14ce:	1e06      	subs	r6, r0, #0
    14d0:	db50      	blt.n	1574 <trace_printf+0xe8>
/mnt/disk/raspbian-tee/optee_os/lib/libutils/ext/trace.c:114
    14d2:	4b37      	ldr	r3, [pc, #220]	; (15b0 <trace_printf+0x124>)
    14d4:	f5c6 7180 	rsb	r1, r6, #256	; 0x100
    14d8:	4a36      	ldr	r2, [pc, #216]	; (15b4 <trace_printf+0x128>)
    14da:	19a8      	adds	r0, r5, r6
    14dc:	447a      	add	r2, pc
    14de:	f859 3003 	ldr.w	r3, [r9, r3]
    14e2:	9303      	str	r3, [sp, #12]
    14e4:	f7ff ff85 	bl	13f2 <snprintk>
/mnt/disk/raspbian-tee/optee_os/lib/libutils/ext/trace.c:116
    14e8:	2800      	cmp	r0, #0
    14ea:	db43      	blt.n	1574 <trace_printf+0xe8>
/mnt/disk/raspbian-tee/optee_os/lib/libutils/ext/trace.c:118
    14ec:	4406      	add	r6, r0
/mnt/disk/raspbian-tee/optee_os/lib/libutils/ext/trace.c:120
    14ee:	f1ba 0f00 	cmp.w	sl, #0
    14f2:	d04b      	beq.n	158c <trace_printf+0x100>
/mnt/disk/raspbian-tee/optee_os/lib/libutils/ext/trace.c:120 (discriminator 1)
    14f4:	231a      	movs	r3, #26
    14f6:	fa23 f404 	lsr.w	r4, r3, r4
    14fa:	07e3      	lsls	r3, r4, #31
    14fc:	d546      	bpl.n	158c <trace_printf+0x100>
print_thread_id():
/mnt/disk/raspbian-tee/optee_os/lib/libutils/ext/trace.c:65
    14fe:	f000 f905 	bl	170c <trace_ext_get_thread_id>
trace_printf():
/mnt/disk/raspbian-tee/optee_os/lib/libutils/ext/trace.c:122
    1502:	19ac      	adds	r4, r5, r6
    1504:	f5c6 7980 	rsb	r9, r6, #256	; 0x100
print_thread_id():
/mnt/disk/raspbian-tee/optee_os/lib/libutils/ext/trace.c:67
    1508:	2800      	cmp	r0, #0
    150a:	db38      	blt.n	157e <trace_printf+0xf2>
/mnt/disk/raspbian-tee/optee_os/lib/libutils/ext/trace.c:68
    150c:	4a2a      	ldr	r2, [pc, #168]	; (15b8 <trace_printf+0x12c>)
    150e:	2301      	movs	r3, #1
    1510:	9000      	str	r0, [sp, #0]
    1512:	447a      	add	r2, pc
/mnt/disk/raspbian-tee/optee_os/lib/libutils/ext/trace.c:70
    1514:	4649      	mov	r1, r9
    1516:	4620      	mov	r0, r4
    1518:	f7ff ff6b 	bl	13f2 <snprintk>
trace_printf():
/mnt/disk/raspbian-tee/optee_os/lib/libutils/ext/trace.c:129
    151c:	2800      	cmp	r0, #0
    151e:	db29      	blt.n	1574 <trace_printf+0xe8>
/mnt/disk/raspbian-tee/optee_os/lib/libutils/ext/trace.c:131
    1520:	1984      	adds	r4, r0, r6
/mnt/disk/raspbian-tee/optee_os/lib/libutils/ext/trace.c:133
    1522:	b167      	cbz	r7, 153e <trace_printf+0xb2>
/mnt/disk/raspbian-tee/optee_os/lib/libutils/ext/trace.c:134
    1524:	4a25      	ldr	r2, [pc, #148]	; (15bc <trace_printf+0x130>)
    1526:	463b      	mov	r3, r7
    1528:	f8cd 8000 	str.w	r8, [sp]
    152c:	f5c4 7180 	rsb	r1, r4, #256	; 0x100
    1530:	447a      	add	r2, pc
    1532:	1928      	adds	r0, r5, r4
    1534:	f7ff ff5d 	bl	13f2 <snprintk>
/mnt/disk/raspbian-tee/optee_os/lib/libutils/ext/trace.c:136
    1538:	2800      	cmp	r0, #0
    153a:	db1b      	blt.n	1574 <trace_printf+0xe8>
/mnt/disk/raspbian-tee/optee_os/lib/libutils/ext/trace.c:138
    153c:	4404      	add	r4, r0
/mnt/disk/raspbian-tee/optee_os/lib/libutils/ext/trace.c:148
    153e:	ab4f      	add	r3, sp, #316	; 0x13c
/mnt/disk/raspbian-tee/optee_os/lib/libutils/ext/trace.c:149
    1540:	f5c4 7180 	rsb	r1, r4, #256	; 0x100
    1544:	1928      	adds	r0, r5, r4
    1546:	9a4e      	ldr	r2, [sp, #312]	; 0x138
/mnt/disk/raspbian-tee/optee_os/lib/libutils/ext/trace.c:148
    1548:	9305      	str	r3, [sp, #20]
/mnt/disk/raspbian-tee/optee_os/lib/libutils/ext/trace.c:149
    154a:	f7ff ff4b 	bl	13e4 <vsnprintk>
/mnt/disk/raspbian-tee/optee_os/lib/libutils/ext/trace.c:151
    154e:	2800      	cmp	r0, #0
/mnt/disk/raspbian-tee/optee_os/lib/libutils/ext/trace.c:157
    1550:	f04f 030a 	mov.w	r3, #10
/mnt/disk/raspbian-tee/optee_os/lib/libutils/ext/trace.c:152
    1554:	bfc8      	it	gt
    1556:	1824      	addgt	r4, r4, r0
    1558:	2cfe      	cmp	r4, #254	; 0xfe
    155a:	bf28      	it	cs
    155c:	24fe      	movcs	r4, #254	; 0xfe
/mnt/disk/raspbian-tee/optee_os/lib/libutils/ext/trace.c:157
    155e:	552b      	strb	r3, [r5, r4]
/mnt/disk/raspbian-tee/optee_os/lib/libutils/ext/trace.c:158
    1560:	b114      	cbz	r4, 1568 <trace_printf+0xdc>
/mnt/disk/raspbian-tee/optee_os/lib/libutils/ext/trace.c:158 (discriminator 1)
    1562:	5d2b      	ldrb	r3, [r5, r4]
    1564:	2b0a      	cmp	r3, #10
    1566:	d019      	beq.n	159c <trace_printf+0x110>
/mnt/disk/raspbian-tee/optee_os/lib/libutils/ext/trace.c:161
    1568:	442c      	add	r4, r5
/mnt/disk/raspbian-tee/optee_os/lib/libutils/ext/trace.c:163
    156a:	4628      	mov	r0, r5
/mnt/disk/raspbian-tee/optee_os/lib/libutils/ext/trace.c:161
    156c:	2300      	movs	r3, #0
    156e:	70a3      	strb	r3, [r4, #2]
/mnt/disk/raspbian-tee/optee_os/lib/libutils/ext/trace.c:163
    1570:	f000 f8c2 	bl	16f8 <trace_ext_puts>
/mnt/disk/raspbian-tee/optee_os/lib/libutils/ext/trace.c:164
    1574:	b046      	add	sp, #280	; 0x118
    1576:	e8bd 87f0 	ldmia.w	sp!, {r4, r5, r6, r7, r8, r9, sl, pc}
trace_level_to_string():
/mnt/disk/raspbian-tee/optee_os/lib/libutils/ext/trace.c:50
    157a:	234d      	movs	r3, #77	; 0x4d
    157c:	e79f      	b.n	14be <trace_printf+0x32>
print_thread_id():
/mnt/disk/raspbian-tee/optee_os/lib/libutils/ext/trace.c:70
    157e:	4b10      	ldr	r3, [pc, #64]	; (15c0 <trace_printf+0x134>)
    1580:	4a10      	ldr	r2, [pc, #64]	; (15c4 <trace_printf+0x138>)
    1582:	447b      	add	r3, pc
    1584:	9300      	str	r3, [sp, #0]
    1586:	447a      	add	r2, pc
    1588:	2301      	movs	r3, #1
    158a:	e7c3      	b.n	1514 <trace_printf+0x88>
trace_printf():
/mnt/disk/raspbian-tee/optee_os/lib/libutils/ext/trace.c:142
    158c:	2efe      	cmp	r6, #254	; 0xfe
    158e:	d8f1      	bhi.n	1574 <trace_printf+0xe8>
/mnt/disk/raspbian-tee/optee_os/lib/libutils/ext/trace.c:144
    1590:	1c74      	adds	r4, r6, #1
    1592:	2320      	movs	r3, #32
    1594:	55ab      	strb	r3, [r5, r6]
/mnt/disk/raspbian-tee/optee_os/lib/libutils/ext/trace.c:145
    1596:	2300      	movs	r3, #0
    1598:	552b      	strb	r3, [r5, r4]
    159a:	e7d0      	b.n	153e <trace_printf+0xb2>
/mnt/disk/raspbian-tee/optee_os/lib/libutils/ext/trace.c:159
    159c:	3c01      	subs	r4, #1
    159e:	e7df      	b.n	1560 <trace_printf+0xd4>
    15a0:	00006c1e 	.word	0x00006c1e
    15a4:	00000014 	.word	0x00000014
    15a8:	000059bd 	.word	0x000059bd
    15ac:	000059be 	.word	0x000059be
    15b0:	00000018 	.word	0x00000018
    15b4:	000059ae 	.word	0x000059ae
    15b8:	0000597c 	.word	0x0000597c
    15bc:	00005969 	.word	0x00005969
    15c0:	000056a7 	.word	0x000056a7
    15c4:	0000590e 	.word	0x0000590e

000015c8 <dhex_dump>:
dhex_dump():
/mnt/disk/raspbian-tee/optee_os/lib/libutils/ext/trace.c:225
    15c8:	e92d 4ff0 	stmdb	sp!, {r4, r5, r6, r7, r8, r9, sl, fp, lr}
    15cc:	4690      	mov	r8, r2
    15ce:	4a35      	ldr	r2, [pc, #212]	; (16a4 <dhex_dump+0xdc>)
    15d0:	468a      	mov	sl, r1
/mnt/disk/raspbian-tee/optee_os/lib/libutils/ext/trace.c:231
    15d2:	4935      	ldr	r1, [pc, #212]	; (16a8 <dhex_dump+0xe0>)
/mnt/disk/raspbian-tee/optee_os/lib/libutils/ext/trace.c:225
    15d4:	447a      	add	r2, pc
    15d6:	b0c7      	sub	sp, #284	; 0x11c
    15d8:	4681      	mov	r9, r0
/mnt/disk/raspbian-tee/optee_os/lib/libutils/ext/trace.c:231
    15da:	5852      	ldr	r2, [r2, r1]
    15dc:	6812      	ldr	r2, [r2, #0]
    15de:	4542      	cmp	r2, r8
    15e0:	db1d      	blt.n	161e <dhex_dump+0x56>
    15e2:	461e      	mov	r6, r3
/mnt/disk/raspbian-tee/optee_os/lib/libutils/ext/trace.c:240
    15e4:	4b31      	ldr	r3, [pc, #196]	; (16ac <dhex_dump+0xe4>)
/mnt/disk/raspbian-tee/optee_os/lib/libutils/ext/trace.c:232
    15e6:	ad05      	add	r5, sp, #20
/mnt/disk/raspbian-tee/optee_os/lib/libutils/ext/trace.c:235
    15e8:	f8df b0c4 	ldr.w	fp, [pc, #196]	; 16b0 <dhex_dump+0xe8>
/mnt/disk/raspbian-tee/optee_os/lib/libutils/ext/trace.c:240
    15ec:	447b      	add	r3, pc
    15ee:	9302      	str	r3, [sp, #8]
/mnt/disk/raspbian-tee/optee_os/lib/libutils/ext/trace.c:248
    15f0:	4b30      	ldr	r3, [pc, #192]	; (16b4 <dhex_dump+0xec>)
/mnt/disk/raspbian-tee/optee_os/lib/libutils/ext/trace.c:235
    15f2:	44fb      	add	fp, pc
/mnt/disk/raspbian-tee/optee_os/lib/libutils/ext/trace.c:232
    15f4:	2400      	movs	r4, #0
    15f6:	f8c5 4100 	str.w	r4, [r5, #256]	; 0x100
/mnt/disk/raspbian-tee/optee_os/lib/libutils/ext/trace.c:248
    15fa:	447b      	add	r3, pc
    15fc:	9303      	str	r3, [sp, #12]
/mnt/disk/raspbian-tee/optee_os/lib/libutils/ext/trace.c:233 (discriminator 1)
    15fe:	9b50      	ldr	r3, [sp, #320]	; 0x140
    1600:	429c      	cmp	r4, r3
    1602:	db0f      	blt.n	1624 <dhex_dump+0x5c>
/mnt/disk/raspbian-tee/optee_os/lib/libutils/ext/trace.c:253
    1604:	f8d5 3100 	ldr.w	r3, [r5, #256]	; 0x100
    1608:	b14b      	cbz	r3, 161e <dhex_dump+0x56>
/mnt/disk/raspbian-tee/optee_os/lib/libutils/ext/trace.c:255
    160a:	4b2b      	ldr	r3, [pc, #172]	; (16b8 <dhex_dump+0xf0>)
    160c:	4642      	mov	r2, r8
    160e:	9501      	str	r5, [sp, #4]
    1610:	4651      	mov	r1, sl
    1612:	447b      	add	r3, pc
    1614:	4648      	mov	r0, r9
    1616:	9300      	str	r3, [sp, #0]
    1618:	2301      	movs	r3, #1
    161a:	f7ff ff37 	bl	148c <trace_printf>
/mnt/disk/raspbian-tee/optee_os/lib/libutils/ext/trace.c:263
    161e:	b047      	add	sp, #284	; 0x11c
    1620:	e8bd 8ff0 	ldmia.w	sp!, {r4, r5, r6, r7, r8, r9, sl, fp, pc}
/mnt/disk/raspbian-tee/optee_os/lib/libutils/ext/trace.c:234
    1624:	f014 070f 	ands.w	r7, r4, #15
    1628:	d013      	beq.n	1652 <dhex_dump+0x8a>
/mnt/disk/raspbian-tee/optee_os/lib/libutils/ext/trace.c:240
    162a:	f816 2b01 	ldrb.w	r2, [r6], #1
    162e:	4628      	mov	r0, r5
    1630:	9902      	ldr	r1, [sp, #8]
    1632:	f7ff feeb 	bl	140c <append>
/mnt/disk/raspbian-tee/optee_os/lib/libutils/ext/trace.c:241
    1636:	b9a8      	cbnz	r0, 1664 <dhex_dump+0x9c>
/mnt/disk/raspbian-tee/optee_os/lib/libutils/ext/trace.c:262
    1638:	4820      	ldr	r0, [pc, #128]	; (16bc <dhex_dump+0xf4>)
    163a:	2203      	movs	r2, #3
    163c:	4b20      	ldr	r3, [pc, #128]	; (16c0 <dhex_dump+0xf8>)
    163e:	f44f 7183 	mov.w	r1, #262	; 0x106
    1642:	4478      	add	r0, pc
    1644:	447b      	add	r3, pc
    1646:	3005      	adds	r0, #5
    1648:	9300      	str	r3, [sp, #0]
    164a:	2301      	movs	r3, #1
    164c:	f7ff ff1e 	bl	148c <trace_printf>
    1650:	e7e5      	b.n	161e <dhex_dump+0x56>
/mnt/disk/raspbian-tee/optee_os/lib/libutils/ext/trace.c:235
    1652:	4633      	mov	r3, r6
    1654:	2208      	movs	r2, #8
    1656:	4659      	mov	r1, fp
    1658:	4628      	mov	r0, r5
    165a:	f7ff fed7 	bl	140c <append>
/mnt/disk/raspbian-tee/optee_os/lib/libutils/ext/trace.c:237
    165e:	2800      	cmp	r0, #0
    1660:	d1e3      	bne.n	162a <dhex_dump+0x62>
    1662:	e7e9      	b.n	1638 <dhex_dump+0x70>
/mnt/disk/raspbian-tee/optee_os/lib/libutils/ext/trace.c:243
    1664:	4263      	negs	r3, r4
    1666:	f003 030f 	and.w	r3, r3, #15
    166a:	bf58      	it	pl
    166c:	425f      	negpl	r7, r3
    166e:	2f07      	cmp	r7, #7
    1670:	d108      	bne.n	1684 <dhex_dump+0xbc>
/mnt/disk/raspbian-tee/optee_os/lib/libutils/ext/trace.c:244
    1672:	4914      	ldr	r1, [pc, #80]	; (16c4 <dhex_dump+0xfc>)
    1674:	4628      	mov	r0, r5
    1676:	4479      	add	r1, pc
    1678:	f7ff fec8 	bl	140c <append>
/mnt/disk/raspbian-tee/optee_os/lib/libutils/ext/trace.c:245
    167c:	2800      	cmp	r0, #0
    167e:	d0db      	beq.n	1638 <dhex_dump+0x70>
/mnt/disk/raspbian-tee/optee_os/lib/libutils/ext/trace.c:233 (discriminator 2)
    1680:	3401      	adds	r4, #1
    1682:	e7bc      	b.n	15fe <dhex_dump+0x36>
/mnt/disk/raspbian-tee/optee_os/lib/libutils/ext/trace.c:247
    1684:	2f0f      	cmp	r7, #15
    1686:	d1fb      	bne.n	1680 <dhex_dump+0xb8>
/mnt/disk/raspbian-tee/optee_os/lib/libutils/ext/trace.c:248
    1688:	9b03      	ldr	r3, [sp, #12]
    168a:	4642      	mov	r2, r8
    168c:	9300      	str	r3, [sp, #0]
    168e:	4651      	mov	r1, sl
    1690:	2301      	movs	r3, #1
    1692:	9501      	str	r5, [sp, #4]
    1694:	4648      	mov	r0, r9
    1696:	f7ff fef9 	bl	148c <trace_printf>
/mnt/disk/raspbian-tee/optee_os/lib/libutils/ext/trace.c:250
    169a:	2300      	movs	r3, #0
    169c:	f8c5 3100 	str.w	r3, [r5, #256]	; 0x100
    16a0:	e7ee      	b.n	1680 <dhex_dump+0xb8>
    16a2:	bf00      	nop
    16a4:	00006ae4 	.word	0x00006ae4
    16a8:	00000014 	.word	0x00000014
    16ac:	000058b4 	.word	0x000058b4
    16b0:	000058b4 	.word	0x000058b4
    16b4:	0000563d 	.word	0x0000563d
    16b8:	00005625 	.word	0x00005625
    16bc:	00005835 	.word	0x00005835
    16c0:	0000586a 	.word	0x0000586a
    16c4:	00005836 	.word	0x00005836

000016c8 <__aeabi_ldivmod>:
__aeabi_ldivmod():
/mnt/disk/raspbian-tee/optee_os/lib/libutils/isoc/arch/arm/arm32_aeabi_ldivmod_a32.S:24
    16c8:	e92d5000 	push	{ip, lr}
/mnt/disk/raspbian-tee/optee_os/lib/libutils/isoc/arch/arm/arm32_aeabi_ldivmod_a32.S:26
    16cc:	e92d000f 	push	{r0, r1, r2, r3}
/mnt/disk/raspbian-tee/optee_os/lib/libutils/isoc/arch/arm/arm32_aeabi_ldivmod_a32.S:28
    16d0:	e1a0000d 	mov	r0, sp
/mnt/disk/raspbian-tee/optee_os/lib/libutils/isoc/arch/arm/arm32_aeabi_ldivmod_a32.S:29
    16d4:	fa001434 	blx	67ac <__l_divmod>
/mnt/disk/raspbian-tee/optee_os/lib/libutils/isoc/arch/arm/arm32_aeabi_ldivmod_a32.S:30
    16d8:	e8bd000f 	pop	{r0, r1, r2, r3}
/mnt/disk/raspbian-tee/optee_os/lib/libutils/isoc/arch/arm/arm32_aeabi_ldivmod_a32.S:31
    16dc:	e8bd9000 	pop	{ip, pc}

000016e0 <__aeabi_uldivmod>:
__aeabi_uldivmod():
/mnt/disk/raspbian-tee/optee_os/lib/libutils/isoc/arch/arm/arm32_aeabi_ldivmod_a32.S:42
    16e0:	e92d5000 	push	{ip, lr}
/mnt/disk/raspbian-tee/optee_os/lib/libutils/isoc/arch/arm/arm32_aeabi_ldivmod_a32.S:44
    16e4:	e92d000f 	push	{r0, r1, r2, r3}
/mnt/disk/raspbian-tee/optee_os/lib/libutils/isoc/arch/arm/arm32_aeabi_ldivmod_a32.S:46
    16e8:	e1a0000d 	mov	r0, sp
/mnt/disk/raspbian-tee/optee_os/lib/libutils/isoc/arch/arm/arm32_aeabi_ldivmod_a32.S:47
    16ec:	fa001411 	blx	6738 <__ul_divmod>
/mnt/disk/raspbian-tee/optee_os/lib/libutils/isoc/arch/arm/arm32_aeabi_ldivmod_a32.S:48
    16f0:	e8bd000f 	pop	{r0, r1, r2, r3}
/mnt/disk/raspbian-tee/optee_os/lib/libutils/isoc/arch/arm/arm32_aeabi_ldivmod_a32.S:49
    16f4:	e8bd9000 	pop	{ip, pc}

000016f8 <trace_ext_puts>:
trace_ext_puts():
/mnt/disk/raspbian-tee/optee_os/lib/libutee/trace_ext.c:17
    16f8:	b510      	push	{r4, lr}
    16fa:	4604      	mov	r4, r0
/mnt/disk/raspbian-tee/optee_os/lib/libutee/trace_ext.c:18
    16fc:	f005 f803 	bl	6706 <strlen>
    1700:	4601      	mov	r1, r0
    1702:	4620      	mov	r0, r4
/mnt/disk/raspbian-tee/optee_os/lib/libutee/trace_ext.c:19
    1704:	e8bd 4010 	ldmia.w	sp!, {r4, lr}
/mnt/disk/raspbian-tee/optee_os/lib/libutee/trace_ext.c:18
    1708:	f005 b8f2 	b.w	68f0 <__utee_log_from_thumb>

0000170c <trace_ext_get_thread_id>:
trace_ext_get_thread_id():
/mnt/disk/raspbian-tee/optee_os/lib/libutee/trace_ext.c:24
    170c:	f04f 30ff 	mov.w	r0, #4294967295	; 0xffffffff
    1710:	4770      	bx	lr

00001712 <printf>:
printf():
/mnt/disk/raspbian-tee/optee_os/lib/libutee/trace_ext.c:32
    1712:	b40f      	push	{r0, r1, r2, r3}
    1714:	b530      	push	{r4, r5, lr}
    1716:	b0c3      	sub	sp, #268	; 0x10c
/mnt/disk/raspbian-tee/optee_os/lib/libutee/trace_ext.c:37
    1718:	f7ff feae 	bl	1478 <trace_get_level>
    171c:	2800      	cmp	r0, #0
    171e:	dd13      	ble.n	1748 <printf+0x36>
/mnt/disk/raspbian-tee/optee_os/lib/libutee/trace_ext.c:41
    1720:	ad02      	add	r5, sp, #8
/mnt/disk/raspbian-tee/optee_os/lib/libutee/trace_ext.c:40
    1722:	ab47      	add	r3, sp, #284	; 0x11c
/mnt/disk/raspbian-tee/optee_os/lib/libutee/trace_ext.c:41
    1724:	9a46      	ldr	r2, [sp, #280]	; 0x118
    1726:	f44f 7180 	mov.w	r1, #256	; 0x100
    172a:	4628      	mov	r0, r5
/mnt/disk/raspbian-tee/optee_os/lib/libutee/trace_ext.c:40
    172c:	9301      	str	r3, [sp, #4]
/mnt/disk/raspbian-tee/optee_os/lib/libutee/trace_ext.c:41
    172e:	f004 ffc2 	bl	66b6 <vsnprintf>
/mnt/disk/raspbian-tee/optee_os/lib/libutee/trace_ext.c:44
    1732:	1e04      	subs	r4, r0, #0
    1734:	db02      	blt.n	173c <printf+0x2a>
/mnt/disk/raspbian-tee/optee_os/lib/libutee/trace_ext.c:47
    1736:	4628      	mov	r0, r5
    1738:	f7ff ffde 	bl	16f8 <trace_ext_puts>
/mnt/disk/raspbian-tee/optee_os/lib/libutee/trace_ext.c:50
    173c:	4620      	mov	r0, r4
    173e:	b043      	add	sp, #268	; 0x10c
    1740:	e8bd 4030 	ldmia.w	sp!, {r4, r5, lr}
    1744:	b004      	add	sp, #16
    1746:	4770      	bx	lr
/mnt/disk/raspbian-tee/optee_os/lib/libutee/trace_ext.c:38
    1748:	2400      	movs	r4, #0
    174a:	e7f7      	b.n	173c <printf+0x2a>

0000174c <puts>:
puts():
/mnt/disk/raspbian-tee/optee_os/lib/libutee/trace_ext.c:53
    174c:	b510      	push	{r4, lr}
    174e:	4604      	mov	r4, r0
/mnt/disk/raspbian-tee/optee_os/lib/libutee/trace_ext.c:54
    1750:	f7ff fe92 	bl	1478 <trace_get_level>
    1754:	2800      	cmp	r0, #0
    1756:	dd06      	ble.n	1766 <puts+0x1a>
/mnt/disk/raspbian-tee/optee_os/lib/libutee/trace_ext.c:55
    1758:	4620      	mov	r0, r4
    175a:	f7ff ffcd 	bl	16f8 <trace_ext_puts>
/mnt/disk/raspbian-tee/optee_os/lib/libutee/trace_ext.c:56
    175e:	4803      	ldr	r0, [pc, #12]	; (176c <puts+0x20>)
    1760:	4478      	add	r0, pc
    1762:	f7ff ffc9 	bl	16f8 <trace_ext_puts>
/mnt/disk/raspbian-tee/optee_os/lib/libutee/trace_ext.c:59
    1766:	2001      	movs	r0, #1
    1768:	bd10      	pop	{r4, pc}
    176a:	bf00      	nop
    176c:	000054c8 	.word	0x000054c8

00001770 <putchar>:
putchar():
/mnt/disk/raspbian-tee/optee_os/lib/libutee/trace_ext.c:62
    1770:	b513      	push	{r0, r1, r4, lr}
/mnt/disk/raspbian-tee/optee_os/lib/libutee/trace_ext.c:63
    1772:	2300      	movs	r3, #0
/mnt/disk/raspbian-tee/optee_os/lib/libutee/trace_ext.c:62
    1774:	4604      	mov	r4, r0
/mnt/disk/raspbian-tee/optee_os/lib/libutee/trace_ext.c:63
    1776:	f88d 0004 	strb.w	r0, [sp, #4]
    177a:	f88d 3005 	strb.w	r3, [sp, #5]
/mnt/disk/raspbian-tee/optee_os/lib/libutee/trace_ext.c:65
    177e:	f7ff fe7b 	bl	1478 <trace_get_level>
    1782:	2800      	cmp	r0, #0
    1784:	dd02      	ble.n	178c <putchar+0x1c>
/mnt/disk/raspbian-tee/optee_os/lib/libutee/trace_ext.c:66
    1786:	a801      	add	r0, sp, #4
    1788:	f7ff ffb6 	bl	16f8 <trace_ext_puts>
/mnt/disk/raspbian-tee/optee_os/lib/libutee/trace_ext.c:73
    178c:	b2e0      	uxtb	r0, r4
    178e:	b002      	add	sp, #8
    1790:	bd10      	pop	{r4, pc}
    1792:	bf00      	nop

00001794 <__utee_from_param>:
__utee_from_param():
/mnt/disk/raspbian-tee/optee_os/lib/libutee/tee_api.c:23
    1794:	2300      	movs	r3, #0
/mnt/disk/raspbian-tee/optee_os/lib/libutee/tee_api.c:20
    1796:	b5f0      	push	{r4, r5, r6, r7, lr}
    1798:	4694      	mov	ip, r2
    179a:	4615      	mov	r5, r2
/mnt/disk/raspbian-tee/optee_os/lib/libutee/tee_api.c:39
    179c:	2600      	movs	r6, #0
    179e:	2700      	movs	r7, #0
/mnt/disk/raspbian-tee/optee_os/lib/libutee/tee_api.c:35
    17a0:	461a      	mov	r2, r3
/mnt/disk/raspbian-tee/optee_os/lib/libutee/tee_api.c:23
    17a2:	e880 000a 	stmia.w	r0, {r1, r3}
/mnt/disk/raspbian-tee/optee_os/lib/libutee/tee_api.c:25
    17a6:	fa21 f403 	lsr.w	r4, r1, r3
    17aa:	f004 040f 	and.w	r4, r4, #15
    17ae:	3c01      	subs	r4, #1
    17b0:	2c06      	cmp	r4, #6
    17b2:	d812      	bhi.n	17da <__utee_from_param+0x46>
    17b4:	e8df f004 	tbb	[pc, r4]
    17b8:	11040404 	.word	0x11040404
    17bc:	0404      	.short	0x0404
    17be:	04          	.byte	0x04
    17bf:	00          	.byte	0x00
/mnt/disk/raspbian-tee/optee_os/lib/libutee/tee_api.c:35
    17c0:	f85c 4013 	ldr.w	r4, [ip, r3, lsl #1]
    17c4:	6084      	str	r4, [r0, #8]
    17c6:	60c2      	str	r2, [r0, #12]
/mnt/disk/raspbian-tee/optee_os/lib/libutee/tee_api.c:36
    17c8:	686c      	ldr	r4, [r5, #4]
    17ca:	6104      	str	r4, [r0, #16]
    17cc:	6142      	str	r2, [r0, #20]
    17ce:	3304      	adds	r3, #4
    17d0:	3508      	adds	r5, #8
    17d2:	3010      	adds	r0, #16
/mnt/disk/raspbian-tee/optee_os/lib/libutee/tee_api.c:24 (discriminator 2)
    17d4:	2b10      	cmp	r3, #16
    17d6:	d1e6      	bne.n	17a6 <__utee_from_param+0x12>
/mnt/disk/raspbian-tee/optee_os/lib/libutee/tee_api.c:44
    17d8:	bdf0      	pop	{r4, r5, r6, r7, pc}
/mnt/disk/raspbian-tee/optee_os/lib/libutee/tee_api.c:39
    17da:	e9c0 6702 	strd	r6, r7, [r0, #8]
/mnt/disk/raspbian-tee/optee_os/lib/libutee/tee_api.c:40
    17de:	e9c0 6704 	strd	r6, r7, [r0, #16]
/mnt/disk/raspbian-tee/optee_os/lib/libutee/tee_api.c:41
    17e2:	e7f4      	b.n	17ce <__utee_from_param+0x3a>

000017e4 <__utee_to_param>:
__utee_to_param():
/mnt/disk/raspbian-tee/optee_os/lib/libutee/tee_api.c:48
    17e4:	b5f0      	push	{r4, r5, r6, r7, lr}
/mnt/disk/raspbian-tee/optee_os/lib/libutee/tee_api.c:50
    17e6:	2300      	movs	r3, #0
    17e8:	6816      	ldr	r6, [r2, #0]
    17ea:	4605      	mov	r5, r0
/mnt/disk/raspbian-tee/optee_os/lib/libutee/tee_api.c:56
    17ec:	fa26 f403 	lsr.w	r4, r6, r3
/mnt/disk/raspbian-tee/optee_os/lib/libutee/tee_api.c:53
    17f0:	f8d2 c008 	ldr.w	ip, [r2, #8]
/mnt/disk/raspbian-tee/optee_os/lib/libutee/tee_api.c:56
    17f4:	f004 040f 	and.w	r4, r4, #15
/mnt/disk/raspbian-tee/optee_os/lib/libutee/tee_api.c:54
    17f8:	6917      	ldr	r7, [r2, #16]
/mnt/disk/raspbian-tee/optee_os/lib/libutee/tee_api.c:56
    17fa:	3c01      	subs	r4, #1
    17fc:	2c06      	cmp	r4, #6
    17fe:	d808      	bhi.n	1812 <__utee_to_param+0x2e>
    1800:	e8df f004 	tbb	[pc, r4]
    1804:	07040404 	.word	0x07040404
    1808:	0404      	.short	0x0404
    180a:	04          	.byte	0x04
    180b:	00          	.byte	0x00
/mnt/disk/raspbian-tee/optee_os/lib/libutee/tee_api.c:66
    180c:	f840 c013 	str.w	ip, [r0, r3, lsl #1]
/mnt/disk/raspbian-tee/optee_os/lib/libutee/tee_api.c:67
    1810:	606f      	str	r7, [r5, #4]
    1812:	3304      	adds	r3, #4
    1814:	3210      	adds	r2, #16
    1816:	3508      	adds	r5, #8
/mnt/disk/raspbian-tee/optee_os/lib/libutee/tee_api.c:52 (discriminator 2)
    1818:	2b10      	cmp	r3, #16
    181a:	d1e7      	bne.n	17ec <__utee_to_param+0x8>
/mnt/disk/raspbian-tee/optee_os/lib/libutee/tee_api.c:74
    181c:	b101      	cbz	r1, 1820 <__utee_to_param+0x3c>
/mnt/disk/raspbian-tee/optee_os/lib/libutee/tee_api.c:75
    181e:	600e      	str	r6, [r1, #0]
    1820:	bdf0      	pop	{r4, r5, r6, r7, pc}

00001822 <TEE_OpenTASession>:
TEE_OpenTASession():
/mnt/disk/raspbian-tee/optee_os/lib/libutee/tee_api.c:84
    1822:	b5f0      	push	{r4, r5, r6, r7, lr}
    1824:	4605      	mov	r5, r0
    1826:	460f      	mov	r7, r1
    1828:	b097      	sub	sp, #92	; 0x5c
    182a:	4611      	mov	r1, r2
/mnt/disk/raspbian-tee/optee_os/lib/libutee/tee_api.c:89
    182c:	ac04      	add	r4, sp, #16
    182e:	461a      	mov	r2, r3
    1830:	4620      	mov	r0, r4
/mnt/disk/raspbian-tee/optee_os/lib/libutee/tee_api.c:84
    1832:	461e      	mov	r6, r3
/mnt/disk/raspbian-tee/optee_os/lib/libutee/tee_api.c:89
    1834:	f7ff ffae 	bl	1794 <__utee_from_param>
/mnt/disk/raspbian-tee/optee_os/lib/libutee/tee_api.c:90
    1838:	9b1d      	ldr	r3, [sp, #116]	; 0x74
    183a:	9300      	str	r3, [sp, #0]
    183c:	4622      	mov	r2, r4
    183e:	4639      	mov	r1, r7
    1840:	4628      	mov	r0, r5
    1842:	ab03      	add	r3, sp, #12
    1844:	f000 ea60 	blx	1d08 <utee_open_ta_session>
/mnt/disk/raspbian-tee/optee_os/lib/libutee/tee_api.c:92
    1848:	4622      	mov	r2, r4
/mnt/disk/raspbian-tee/optee_os/lib/libutee/tee_api.c:90
    184a:	4605      	mov	r5, r0
/mnt/disk/raspbian-tee/optee_os/lib/libutee/tee_api.c:92
    184c:	2100      	movs	r1, #0
    184e:	4630      	mov	r0, r6
    1850:	f7ff ffc8 	bl	17e4 <__utee_to_param>
/mnt/disk/raspbian-tee/optee_os/lib/libutee/tee_api.c:98
    1854:	b10d      	cbz	r5, 185a <TEE_OpenTASession+0x38>
/mnt/disk/raspbian-tee/optee_os/lib/libutee/tee_api.c:99
    1856:	2300      	movs	r3, #0
    1858:	9303      	str	r3, [sp, #12]
/mnt/disk/raspbian-tee/optee_os/lib/libutee/tee_api.c:101
    185a:	9b1c      	ldr	r3, [sp, #112]	; 0x70
/mnt/disk/raspbian-tee/optee_os/lib/libutee/tee_api.c:103
    185c:	4628      	mov	r0, r5
/mnt/disk/raspbian-tee/optee_os/lib/libutee/tee_api.c:101
    185e:	9a03      	ldr	r2, [sp, #12]
    1860:	601a      	str	r2, [r3, #0]
/mnt/disk/raspbian-tee/optee_os/lib/libutee/tee_api.c:103
    1862:	b017      	add	sp, #92	; 0x5c
    1864:	bdf0      	pop	{r4, r5, r6, r7, pc}

00001866 <TEE_CloseTASession>:
TEE_CloseTASession():
/mnt/disk/raspbian-tee/optee_os/lib/libutee/tee_api.c:106
    1866:	b508      	push	{r3, lr}
/mnt/disk/raspbian-tee/optee_os/lib/libutee/tee_api.c:107
    1868:	b130      	cbz	r0, 1878 <TEE_CloseTASession+0x12>
/mnt/disk/raspbian-tee/optee_os/lib/libutee/tee_api.c:108
    186a:	f000 ea5a 	blx	1d20 <utee_close_ta_session>
/mnt/disk/raspbian-tee/optee_os/lib/libutee/tee_api.c:110
    186e:	b118      	cbz	r0, 1878 <TEE_CloseTASession+0x12>
/mnt/disk/raspbian-tee/optee_os/lib/libutee/tee_api.c:113
    1870:	e8bd 4008 	ldmia.w	sp!, {r3, lr}
/mnt/disk/raspbian-tee/optee_os/lib/libutee/tee_api.c:111
    1874:	f005 b810 	b.w	6898 <TEE_Panic>
    1878:	bd08      	pop	{r3, pc}

0000187a <TEE_InvokeTACommand>:
TEE_InvokeTACommand():
/mnt/disk/raspbian-tee/optee_os/lib/libutee/tee_api.c:120
    187a:	e92d 41f0 	stmdb	sp!, {r4, r5, r6, r7, r8, lr}
    187e:	4604      	mov	r4, r0
    1880:	460f      	mov	r7, r1
    1882:	b096      	sub	sp, #88	; 0x58
/mnt/disk/raspbian-tee/optee_os/lib/libutee/tee_api.c:125
    1884:	4619      	mov	r1, r3
    1886:	ad04      	add	r5, sp, #16
/mnt/disk/raspbian-tee/optee_os/lib/libutee/tee_api.c:120
    1888:	4690      	mov	r8, r2
/mnt/disk/raspbian-tee/optee_os/lib/libutee/tee_api.c:125
    188a:	4628      	mov	r0, r5
/mnt/disk/raspbian-tee/optee_os/lib/libutee/tee_api.c:120
    188c:	9e1d      	ldr	r6, [sp, #116]	; 0x74
/mnt/disk/raspbian-tee/optee_os/lib/libutee/tee_api.c:125
    188e:	9a1c      	ldr	r2, [sp, #112]	; 0x70
    1890:	f7ff ff80 	bl	1794 <__utee_from_param>
/mnt/disk/raspbian-tee/optee_os/lib/libutee/tee_api.c:126
    1894:	ab03      	add	r3, sp, #12
    1896:	4642      	mov	r2, r8
    1898:	9300      	str	r3, [sp, #0]
    189a:	4639      	mov	r1, r7
    189c:	462b      	mov	r3, r5
    189e:	4620      	mov	r0, r4
    18a0:	f000 ea48 	blx	1d34 <utee_invoke_ta_command>
/mnt/disk/raspbian-tee/optee_os/lib/libutee/tee_api.c:129
    18a4:	462a      	mov	r2, r5
/mnt/disk/raspbian-tee/optee_os/lib/libutee/tee_api.c:126
    18a6:	4604      	mov	r4, r0
/mnt/disk/raspbian-tee/optee_os/lib/libutee/tee_api.c:129
    18a8:	2100      	movs	r1, #0
    18aa:	981c      	ldr	r0, [sp, #112]	; 0x70
    18ac:	f7ff ff9a 	bl	17e4 <__utee_to_param>
    18b0:	9b03      	ldr	r3, [sp, #12]
/mnt/disk/raspbian-tee/optee_os/lib/libutee/tee_api.c:131
    18b2:	b106      	cbz	r6, 18b6 <TEE_InvokeTACommand+0x3c>
/mnt/disk/raspbian-tee/optee_os/lib/libutee/tee_api.c:132
    18b4:	6033      	str	r3, [r6, #0]
/mnt/disk/raspbian-tee/optee_os/lib/libutee/tee_api.c:134
    18b6:	2b04      	cmp	r3, #4
    18b8:	d009      	beq.n	18ce <TEE_InvokeTACommand+0x54>
/mnt/disk/raspbian-tee/optee_os/lib/libutee/tee_api.c:137
    18ba:	b144      	cbz	r4, 18ce <TEE_InvokeTACommand+0x54>
/mnt/disk/raspbian-tee/optee_os/lib/libutee/tee_api.c:137 (discriminator 1)
    18bc:	4b06      	ldr	r3, [pc, #24]	; (18d8 <TEE_InvokeTACommand+0x5e>)
    18be:	429c      	cmp	r4, r3
    18c0:	d005      	beq.n	18ce <TEE_InvokeTACommand+0x54>
/mnt/disk/raspbian-tee/optee_os/lib/libutee/tee_api.c:138
    18c2:	4b06      	ldr	r3, [pc, #24]	; (18dc <TEE_InvokeTACommand+0x62>)
    18c4:	429c      	cmp	r4, r3
    18c6:	d002      	beq.n	18ce <TEE_InvokeTACommand+0x54>
/mnt/disk/raspbian-tee/optee_os/lib/libutee/tee_api.c:140
    18c8:	4620      	mov	r0, r4
    18ca:	f004 ffe5 	bl	6898 <TEE_Panic>
/mnt/disk/raspbian-tee/optee_os/lib/libutee/tee_api.c:143
    18ce:	4620      	mov	r0, r4
    18d0:	b016      	add	sp, #88	; 0x58
    18d2:	e8bd 81f0 	ldmia.w	sp!, {r4, r5, r6, r7, r8, pc}
    18d6:	bf00      	nop
    18d8:	ffff000c 	.word	0xffff000c
    18dc:	ffff3024 	.word	0xffff3024

000018e0 <TEE_GetCancellationFlag>:
TEE_GetCancellationFlag():
/mnt/disk/raspbian-tee/optee_os/lib/libutee/tee_api.c:148
    18e0:	b507      	push	{r0, r1, r2, lr}
/mnt/disk/raspbian-tee/optee_os/lib/libutee/tee_api.c:150
    18e2:	a801      	add	r0, sp, #4
    18e4:	f000 ea32 	blx	1d4c <utee_get_cancellation_flag>
/mnt/disk/raspbian-tee/optee_os/lib/libutee/tee_api.c:152
    18e8:	b108      	cbz	r0, 18ee <TEE_GetCancellationFlag+0xe>
/mnt/disk/raspbian-tee/optee_os/lib/libutee/tee_api.c:153
    18ea:	2300      	movs	r3, #0
    18ec:	9301      	str	r3, [sp, #4]
/mnt/disk/raspbian-tee/optee_os/lib/libutee/tee_api.c:155
    18ee:	9801      	ldr	r0, [sp, #4]
    18f0:	3000      	adds	r0, #0
    18f2:	bf18      	it	ne
    18f4:	2001      	movne	r0, #1
    18f6:	b003      	add	sp, #12
    18f8:	f85d fb04 	ldr.w	pc, [sp], #4

000018fc <TEE_UnmaskCancellation>:
TEE_UnmaskCancellation():
/mnt/disk/raspbian-tee/optee_os/lib/libutee/tee_api.c:158
    18fc:	b507      	push	{r0, r1, r2, lr}
/mnt/disk/raspbian-tee/optee_os/lib/libutee/tee_api.c:160
    18fe:	a801      	add	r0, sp, #4
    1900:	f000 ea38 	blx	1d74 <utee_unmask_cancellation>
/mnt/disk/raspbian-tee/optee_os/lib/libutee/tee_api.c:162
    1904:	b108      	cbz	r0, 190a <TEE_UnmaskCancellation+0xe>
/mnt/disk/raspbian-tee/optee_os/lib/libutee/tee_api.c:163
    1906:	f004 ffc7 	bl	6898 <TEE_Panic>
/mnt/disk/raspbian-tee/optee_os/lib/libutee/tee_api.c:165
    190a:	9801      	ldr	r0, [sp, #4]
    190c:	3000      	adds	r0, #0
    190e:	bf18      	it	ne
    1910:	2001      	movne	r0, #1
    1912:	b003      	add	sp, #12
    1914:	f85d fb04 	ldr.w	pc, [sp], #4

00001918 <TEE_MaskCancellation>:
TEE_MaskCancellation():
/mnt/disk/raspbian-tee/optee_os/lib/libutee/tee_api.c:168
    1918:	b507      	push	{r0, r1, r2, lr}
/mnt/disk/raspbian-tee/optee_os/lib/libutee/tee_api.c:170
    191a:	a801      	add	r0, sp, #4
    191c:	f000 ea34 	blx	1d88 <utee_mask_cancellation>
/mnt/disk/raspbian-tee/optee_os/lib/libutee/tee_api.c:172
    1920:	b108      	cbz	r0, 1926 <TEE_MaskCancellation+0xe>
/mnt/disk/raspbian-tee/optee_os/lib/libutee/tee_api.c:173
    1922:	f004 ffb9 	bl	6898 <TEE_Panic>
/mnt/disk/raspbian-tee/optee_os/lib/libutee/tee_api.c:175
    1926:	9801      	ldr	r0, [sp, #4]
    1928:	3000      	adds	r0, #0
    192a:	bf18      	it	ne
    192c:	2001      	movne	r0, #1
    192e:	b003      	add	sp, #12
    1930:	f85d fb04 	ldr.w	pc, [sp], #4

00001934 <TEE_CheckMemoryAccessRights>:
TEE_CheckMemoryAccessRights():
/mnt/disk/raspbian-tee/optee_os/lib/libutee/tee_api.c:184
    1934:	b10a      	cbz	r2, 193a <TEE_CheckMemoryAccessRights+0x6>
/mnt/disk/raspbian-tee/optee_os/lib/libutee/tee_api.c:188
    1936:	f004 bff3 	b.w	6920 <__utee_check_access_rights_from_thumb>
/mnt/disk/raspbian-tee/optee_os/lib/libutee/tee_api.c:200
    193a:	4610      	mov	r0, r2
    193c:	4770      	bx	lr

0000193e <TEE_SetInstanceData>:
TEE_SetInstanceData():
/mnt/disk/raspbian-tee/optee_os/lib/libutee/tee_api.c:204
    193e:	4b02      	ldr	r3, [pc, #8]	; (1948 <TEE_SetInstanceData+0xa>)
    1940:	447b      	add	r3, pc
    1942:	6018      	str	r0, [r3, #0]
    1944:	4770      	bx	lr
    1946:	bf00      	nop
    1948:	00007758 	.word	0x00007758

0000194c <TEE_GetInstanceData>:
TEE_GetInstanceData():
/mnt/disk/raspbian-tee/optee_os/lib/libutee/tee_api.c:210
    194c:	4b01      	ldr	r3, [pc, #4]	; (1954 <TEE_GetInstanceData+0x8>)
    194e:	447b      	add	r3, pc
    1950:	6818      	ldr	r0, [r3, #0]
    1952:	4770      	bx	lr
    1954:	0000774a 	.word	0x0000774a

00001958 <TEE_MemMove>:
TEE_MemMove():
/mnt/disk/raspbian-tee/optee_os/lib/libutee/tee_api.c:214
    1958:	f004 bfaf 	b.w	68ba <memmove>

0000195c <TEE_MemCompare>:
TEE_MemCompare():
/mnt/disk/raspbian-tee/optee_os/lib/libutee/tee_api.c:219
    195c:	f004 bf9e 	b.w	689c <memcmp>

00001960 <TEE_MemFill>:
TEE_MemFill():
/mnt/disk/raspbian-tee/optee_os/lib/libutee/tee_api.c:224
    1960:	f004 bebc 	b.w	66dc <memset>

00001964 <TEE_GetSystemTime>:
TEE_GetSystemTime():
/mnt/disk/raspbian-tee/optee_os/lib/libutee/tee_api.c:230
    1964:	b508      	push	{r3, lr}
/mnt/disk/raspbian-tee/optee_os/lib/libutee/tee_api.c:231
    1966:	4601      	mov	r1, r0
    1968:	2000      	movs	r0, #0
    196a:	f000 ea22 	blx	1db0 <utee_get_time>
/mnt/disk/raspbian-tee/optee_os/lib/libutee/tee_api.c:233
    196e:	b118      	cbz	r0, 1978 <TEE_GetSystemTime+0x14>
/mnt/disk/raspbian-tee/optee_os/lib/libutee/tee_api.c:235
    1970:	e8bd 4008 	ldmia.w	sp!, {r3, lr}
/mnt/disk/raspbian-tee/optee_os/lib/libutee/tee_api.c:234
    1974:	f004 bf90 	b.w	6898 <TEE_Panic>
    1978:	bd08      	pop	{r3, pc}

0000197a <TEE_Wait>:
TEE_Wait():
/mnt/disk/raspbian-tee/optee_os/lib/libutee/tee_api.c:238
    197a:	b510      	push	{r4, lr}
/mnt/disk/raspbian-tee/optee_os/lib/libutee/tee_api.c:239
    197c:	f000 ea0e 	blx	1d9c <utee_wait>
/mnt/disk/raspbian-tee/optee_os/lib/libutee/tee_api.c:241
    1980:	4604      	mov	r4, r0
    1982:	b120      	cbz	r0, 198e <TEE_Wait+0x14>
/mnt/disk/raspbian-tee/optee_os/lib/libutee/tee_api.c:241 (discriminator 1)
    1984:	4b03      	ldr	r3, [pc, #12]	; (1994 <TEE_Wait+0x1a>)
    1986:	4298      	cmp	r0, r3
    1988:	d001      	beq.n	198e <TEE_Wait+0x14>
/mnt/disk/raspbian-tee/optee_os/lib/libutee/tee_api.c:242
    198a:	f004 ff85 	bl	6898 <TEE_Panic>
/mnt/disk/raspbian-tee/optee_os/lib/libutee/tee_api.c:245
    198e:	4620      	mov	r0, r4
    1990:	bd10      	pop	{r4, pc}
    1992:	bf00      	nop
    1994:	ffff0002 	.word	0xffff0002

00001998 <TEE_GetTAPersistentTime>:
TEE_GetTAPersistentTime():
/mnt/disk/raspbian-tee/optee_os/lib/libutee/tee_api.c:248
    1998:	b538      	push	{r3, r4, r5, lr}
/mnt/disk/raspbian-tee/optee_os/lib/libutee/tee_api.c:251
    199a:	4601      	mov	r1, r0
/mnt/disk/raspbian-tee/optee_os/lib/libutee/tee_api.c:248
    199c:	4605      	mov	r5, r0
/mnt/disk/raspbian-tee/optee_os/lib/libutee/tee_api.c:251
    199e:	2001      	movs	r0, #1
    19a0:	f000 ea06 	blx	1db0 <utee_get_time>
/mnt/disk/raspbian-tee/optee_os/lib/libutee/tee_api.c:253
    19a4:	4604      	mov	r4, r0
    19a6:	b170      	cbz	r0, 19c6 <TEE_GetTAPersistentTime+0x2e>
/mnt/disk/raspbian-tee/optee_os/lib/libutee/tee_api.c:253 (discriminator 1)
    19a8:	4b08      	ldr	r3, [pc, #32]	; (19cc <TEE_GetTAPersistentTime+0x34>)
    19aa:	4298      	cmp	r0, r3
    19ac:	d00b      	beq.n	19c6 <TEE_GetTAPersistentTime+0x2e>
/mnt/disk/raspbian-tee/optee_os/lib/libutee/tee_api.c:254
    19ae:	2300      	movs	r3, #0
    19b0:	602b      	str	r3, [r5, #0]
/mnt/disk/raspbian-tee/optee_os/lib/libutee/tee_api.c:255
    19b2:	606b      	str	r3, [r5, #4]
/mnt/disk/raspbian-tee/optee_os/lib/libutee/tee_api.c:258
    19b4:	f500 4330 	add.w	r3, r0, #45056	; 0xb000
    19b8:	2b01      	cmp	r3, #1
    19ba:	d904      	bls.n	19c6 <TEE_GetTAPersistentTime+0x2e>
/mnt/disk/raspbian-tee/optee_os/lib/libutee/tee_api.c:261
    19bc:	4b04      	ldr	r3, [pc, #16]	; (19d0 <TEE_GetTAPersistentTime+0x38>)
    19be:	4298      	cmp	r0, r3
    19c0:	d001      	beq.n	19c6 <TEE_GetTAPersistentTime+0x2e>
/mnt/disk/raspbian-tee/optee_os/lib/libutee/tee_api.c:263
    19c2:	f004 ff69 	bl	6898 <TEE_Panic>
/mnt/disk/raspbian-tee/optee_os/lib/libutee/tee_api.c:266
    19c6:	4620      	mov	r0, r4
    19c8:	bd38      	pop	{r3, r4, r5, pc}
    19ca:	bf00      	nop
    19cc:	ffff300f 	.word	0xffff300f
    19d0:	ffff000c 	.word	0xffff000c

000019d4 <TEE_SetTAPersistentTime>:
TEE_SetTAPersistentTime():
/mnt/disk/raspbian-tee/optee_os/lib/libutee/tee_api.c:269
    19d4:	b510      	push	{r4, lr}
/mnt/disk/raspbian-tee/optee_os/lib/libutee/tee_api.c:272
    19d6:	f000 e9f6 	blx	1dc4 <utee_set_ta_time>
/mnt/disk/raspbian-tee/optee_os/lib/libutee/tee_api.c:274
    19da:	4604      	mov	r4, r0
    19dc:	b138      	cbz	r0, 19ee <TEE_SetTAPersistentTime+0x1a>
/mnt/disk/raspbian-tee/optee_os/lib/libutee/tee_api.c:274 (discriminator 1)
    19de:	4b05      	ldr	r3, [pc, #20]	; (19f4 <TEE_SetTAPersistentTime+0x20>)
    19e0:	4298      	cmp	r0, r3
    19e2:	d004      	beq.n	19ee <TEE_SetTAPersistentTime+0x1a>
/mnt/disk/raspbian-tee/optee_os/lib/libutee/tee_api.c:275
    19e4:	4b04      	ldr	r3, [pc, #16]	; (19f8 <TEE_SetTAPersistentTime+0x24>)
    19e6:	4298      	cmp	r0, r3
    19e8:	d001      	beq.n	19ee <TEE_SetTAPersistentTime+0x1a>
/mnt/disk/raspbian-tee/optee_os/lib/libutee/tee_api.c:277
    19ea:	f004 ff55 	bl	6898 <TEE_Panic>
/mnt/disk/raspbian-tee/optee_os/lib/libutee/tee_api.c:280
    19ee:	4620      	mov	r0, r4
    19f0:	bd10      	pop	{r4, pc}
    19f2:	bf00      	nop
    19f4:	ffff000c 	.word	0xffff000c
    19f8:	ffff3041 	.word	0xffff3041

000019fc <TEE_GetREETime>:
TEE_GetREETime():
/mnt/disk/raspbian-tee/optee_os/lib/libutee/tee_api.c:283
    19fc:	b508      	push	{r3, lr}
/mnt/disk/raspbian-tee/optee_os/lib/libutee/tee_api.c:284
    19fe:	4601      	mov	r1, r0
    1a00:	2002      	movs	r0, #2
    1a02:	f000 e9d6 	blx	1db0 <utee_get_time>
/mnt/disk/raspbian-tee/optee_os/lib/libutee/tee_api.c:286
    1a06:	b118      	cbz	r0, 1a10 <TEE_GetREETime+0x14>
/mnt/disk/raspbian-tee/optee_os/lib/libutee/tee_api.c:288
    1a08:	e8bd 4008 	ldmia.w	sp!, {r3, lr}
/mnt/disk/raspbian-tee/optee_os/lib/libutee/tee_api.c:287
    1a0c:	f004 bf44 	b.w	6898 <TEE_Panic>
    1a10:	bd08      	pop	{r3, pc}

00001a12 <TEE_Malloc>:
TEE_Malloc():
/mnt/disk/raspbian-tee/optee_os/lib/libutee/tee_api.c:291
    1a12:	b507      	push	{r0, r1, r2, lr}
/mnt/disk/raspbian-tee/optee_os/lib/libutee/tee_api.c:292
    1a14:	b931      	cbnz	r1, 1a24 <TEE_Malloc+0x12>
/mnt/disk/raspbian-tee/optee_os/lib/libutee/tee_api.c:293
    1a16:	4601      	mov	r1, r0
    1a18:	2001      	movs	r0, #1
/mnt/disk/raspbian-tee/optee_os/lib/libutee/tee_api.c:300
    1a1a:	b003      	add	sp, #12
    1a1c:	f85d eb04 	ldr.w	lr, [sp], #4
/mnt/disk/raspbian-tee/optee_os/lib/libutee/tee_api.c:293
    1a20:	f004 baf2 	b.w	6008 <calloc>
/mnt/disk/raspbian-tee/optee_os/lib/libutee/tee_api.c:294
    1a24:	f1b1 4f00 	cmp.w	r1, #2147483648	; 0x80000000
    1a28:	d104      	bne.n	1a34 <TEE_Malloc+0x22>
/mnt/disk/raspbian-tee/optee_os/lib/libutee/tee_api.c:300
    1a2a:	b003      	add	sp, #12
    1a2c:	f85d eb04 	ldr.w	lr, [sp], #4
/mnt/disk/raspbian-tee/optee_os/lib/libutee/tee_api.c:295
    1a30:	f004 bae0 	b.w	5ff4 <malloc>
/mnt/disk/raspbian-tee/optee_os/lib/libutee/tee_api.c:297
    1a34:	4b07      	ldr	r3, [pc, #28]	; (1a54 <TEE_Malloc+0x42>)
    1a36:	4808      	ldr	r0, [pc, #32]	; (1a58 <TEE_Malloc+0x46>)
    1a38:	447b      	add	r3, pc
    1a3a:	9300      	str	r3, [sp, #0]
    1a3c:	2301      	movs	r3, #1
    1a3e:	9101      	str	r1, [sp, #4]
    1a40:	461a      	mov	r2, r3
    1a42:	f240 1129 	movw	r1, #297	; 0x129
    1a46:	4478      	add	r0, pc
    1a48:	f7ff fd20 	bl	148c <trace_printf>
/mnt/disk/raspbian-tee/optee_os/lib/libutee/tee_api.c:300
    1a4c:	2000      	movs	r0, #0
    1a4e:	b003      	add	sp, #12
    1a50:	f85d fb04 	ldr.w	pc, [sp], #4
    1a54:	00005490 	.word	0x00005490
    1a58:	00005477 	.word	0x00005477

00001a5c <TEE_Realloc>:
TEE_Realloc():
/mnt/disk/raspbian-tee/optee_os/lib/libutee/tee_api.c:304
    1a5c:	f004 baf8 	b.w	6050 <realloc>

00001a60 <TEE_Free>:
TEE_Free():
/mnt/disk/raspbian-tee/optee_os/lib/libutee/tee_api.c:309
    1a60:	f004 bac9 	b.w	5ff6 <free>

00001a64 <TEE_CacheClean>:
TEE_CacheClean():
/mnt/disk/raspbian-tee/optee_os/lib/libutee/tee_api.c:315
    1a64:	2200      	movs	r2, #0
    1a66:	f004 bf4b 	b.w	6900 <__utee_cache_operation_from_thumb>

00001a6a <TEE_CacheFlush>:
TEE_CacheFlush():
/mnt/disk/raspbian-tee/optee_os/lib/libutee/tee_api.c:319
    1a6a:	2201      	movs	r2, #1
    1a6c:	f004 bf48 	b.w	6900 <__utee_cache_operation_from_thumb>

00001a70 <TEE_CacheInvalidate>:
TEE_CacheInvalidate():
/mnt/disk/raspbian-tee/optee_os/lib/libutee/tee_api.c:324
    1a70:	2202      	movs	r2, #2
    1a72:	f004 bf45 	b.w	6900 <__utee_cache_operation_from_thumb>
    1a76:	bf00      	nop

00001a78 <ta_header_get_session>:
ta_header_get_session():
/mnt/disk/raspbian-tee/optee_os/lib/libutee/arch/arm/user_ta_entry.c:81
    1a78:	4b05      	ldr	r3, [pc, #20]	; (1a90 <ta_header_get_session+0x18>)
    1a7a:	447b      	add	r3, pc
    1a7c:	681b      	ldr	r3, [r3, #0]
/mnt/disk/raspbian-tee/optee_os/lib/libutee/arch/arm/user_ta_entry.c:81 (discriminator 1)
    1a7e:	b90b      	cbnz	r3, 1a84 <ta_header_get_session+0xc>
/mnt/disk/raspbian-tee/optee_os/lib/libutee/arch/arm/user_ta_entry.c:86
    1a80:	4618      	mov	r0, r3
    1a82:	4770      	bx	lr
/mnt/disk/raspbian-tee/optee_os/lib/libutee/arch/arm/user_ta_entry.c:82
    1a84:	681a      	ldr	r2, [r3, #0]
    1a86:	4282      	cmp	r2, r0
    1a88:	d0fa      	beq.n	1a80 <ta_header_get_session+0x8>
/mnt/disk/raspbian-tee/optee_os/lib/libutee/arch/arm/user_ta_entry.c:81 (discriminator 2)
    1a8a:	689b      	ldr	r3, [r3, #8]
    1a8c:	e7f7      	b.n	1a7e <ta_header_get_session+0x6>
    1a8e:	bf00      	nop
    1a90:	000075fa 	.word	0x000075fa

00001a94 <ta_header_remove_session>:
ta_header_remove_session():
/mnt/disk/raspbian-tee/optee_os/lib/libutee/arch/arm/user_ta_entry.c:119
    1a94:	4b14      	ldr	r3, [pc, #80]	; (1ae8 <ta_header_remove_session+0x54>)
/mnt/disk/raspbian-tee/optee_os/lib/libutee/arch/arm/user_ta_entry.c:115
    1a96:	b510      	push	{r4, lr}
/mnt/disk/raspbian-tee/optee_os/lib/libutee/arch/arm/user_ta_entry.c:119
    1a98:	447b      	add	r3, pc
/mnt/disk/raspbian-tee/optee_os/lib/libutee/arch/arm/user_ta_entry.c:115
    1a9a:	4c14      	ldr	r4, [pc, #80]	; (1aec <ta_header_remove_session+0x58>)
/mnt/disk/raspbian-tee/optee_os/lib/libutee/arch/arm/user_ta_entry.c:119
    1a9c:	681b      	ldr	r3, [r3, #0]
/mnt/disk/raspbian-tee/optee_os/lib/libutee/arch/arm/user_ta_entry.c:115
    1a9e:	447c      	add	r4, pc
/mnt/disk/raspbian-tee/optee_os/lib/libutee/arch/arm/user_ta_entry.c:119 (discriminator 1)
    1aa0:	b903      	cbnz	r3, 1aa4 <ta_header_remove_session+0x10>
    1aa2:	bd10      	pop	{r4, pc}
/mnt/disk/raspbian-tee/optee_os/lib/libutee/arch/arm/user_ta_entry.c:120
    1aa4:	681a      	ldr	r2, [r3, #0]
    1aa6:	4282      	cmp	r2, r0
    1aa8:	689a      	ldr	r2, [r3, #8]
    1aaa:	d11b      	bne.n	1ae4 <ta_header_remove_session+0x50>
    1aac:	68d9      	ldr	r1, [r3, #12]
/mnt/disk/raspbian-tee/optee_os/lib/libutee/arch/arm/user_ta_entry.c:121
    1aae:	b1aa      	cbz	r2, 1adc <ta_header_remove_session+0x48>
/mnt/disk/raspbian-tee/optee_os/lib/libutee/arch/arm/user_ta_entry.c:121 (discriminator 1)
    1ab0:	60d1      	str	r1, [r2, #12]
/mnt/disk/raspbian-tee/optee_os/lib/libutee/arch/arm/user_ta_entry.c:121 (discriminator 4)
    1ab2:	68d9      	ldr	r1, [r3, #12]
/mnt/disk/raspbian-tee/optee_os/lib/libutee/arch/arm/user_ta_entry.c:122 (discriminator 4)
    1ab4:	4618      	mov	r0, r3
/mnt/disk/raspbian-tee/optee_os/lib/libutee/arch/arm/user_ta_entry.c:121 (discriminator 4)
    1ab6:	600a      	str	r2, [r1, #0]
/mnt/disk/raspbian-tee/optee_os/lib/libutee/arch/arm/user_ta_entry.c:122 (discriminator 4)
    1ab8:	f7ff ffd2 	bl	1a60 <TEE_Free>
/mnt/disk/raspbian-tee/optee_os/lib/libutee/arch/arm/user_ta_entry.c:127 (discriminator 4)
    1abc:	4b0c      	ldr	r3, [pc, #48]	; (1af0 <ta_header_remove_session+0x5c>)
    1abe:	447b      	add	r3, pc
    1ac0:	681b      	ldr	r3, [r3, #0]
    1ac2:	2b00      	cmp	r3, #0
    1ac4:	d1ed      	bne.n	1aa2 <ta_header_remove_session+0xe>
/mnt/disk/raspbian-tee/optee_os/lib/libutee/arch/arm/user_ta_entry.c:125 (discriminator 1)
    1ac6:	4b0b      	ldr	r3, [pc, #44]	; (1af4 <ta_header_remove_session+0x60>)
    1ac8:	58e3      	ldr	r3, [r4, r3]
    1aca:	695b      	ldr	r3, [r3, #20]
    1acc:	f003 0314 	and.w	r3, r3, #20
/mnt/disk/raspbian-tee/optee_os/lib/libutee/arch/arm/user_ta_entry.c:127 (discriminator 1)
    1ad0:	2b14      	cmp	r3, #20
    1ad2:	d0e6      	beq.n	1aa2 <ta_header_remove_session+0xe>
/mnt/disk/raspbian-tee/optee_os/lib/libutee/arch/arm/user_ta_entry.c:133
    1ad4:	e8bd 4010 	ldmia.w	sp!, {r4, lr}
uninit_instance():
/mnt/disk/raspbian-tee/optee_os/lib/libutee/arch/arm/user_ta_entry.c:63
    1ad8:	f7fe bab6 	b.w	48 <TA_DestroyEntryPoint>
ta_header_remove_session():
/mnt/disk/raspbian-tee/optee_os/lib/libutee/arch/arm/user_ta_entry.c:121 (discriminator 2)
    1adc:	4806      	ldr	r0, [pc, #24]	; (1af8 <ta_header_remove_session+0x64>)
    1ade:	4478      	add	r0, pc
    1ae0:	6041      	str	r1, [r0, #4]
    1ae2:	e7e6      	b.n	1ab2 <ta_header_remove_session+0x1e>
/mnt/disk/raspbian-tee/optee_os/lib/libutee/arch/arm/user_ta_entry.c:119 (discriminator 2)
    1ae4:	4613      	mov	r3, r2
    1ae6:	e7db      	b.n	1aa0 <ta_header_remove_session+0xc>
    1ae8:	000075dc 	.word	0x000075dc
    1aec:	0000661a 	.word	0x0000661a
    1af0:	000075b6 	.word	0x000075b6
    1af4:	00000030 	.word	0x00000030
    1af8:	00007596 	.word	0x00007596

00001afc <__utee_entry>:
__utee_entry():
/mnt/disk/raspbian-tee/optee_os/lib/libutee/arch/arm/user_ta_entry.c:200
    1afc:	b580      	push	{r7, lr}
    1afe:	4616      	mov	r6, r2
    1b00:	4c5a      	ldr	r4, [pc, #360]	; (1c6c <__utee_entry+0x170>)
    1b02:	b08c      	sub	sp, #48	; 0x30
    1b04:	460f      	mov	r7, r1
    1b06:	447c      	add	r4, pc
    1b08:	4698      	mov	r8, r3
/mnt/disk/raspbian-tee/optee_os/lib/libutee/arch/arm/user_ta_entry.c:211
    1b0a:	2801      	cmp	r0, #1
    1b0c:	d074      	beq.n	1bf8 <__utee_entry+0xfc>
    1b0e:	d307      	bcc.n	1b20 <__utee_entry+0x24>
    1b10:	2802      	cmp	r0, #2
    1b12:	d07e      	beq.n	1c12 <__utee_entry+0x116>
/mnt/disk/raspbian-tee/optee_os/lib/libutee/arch/arm/user_ta_entry.c:223
    1b14:	2000      	movs	r0, #0
/mnt/disk/raspbian-tee/optee_os/lib/libutee/arch/arm/user_ta_entry.c:222
    1b16:	f04f 34ff 	mov.w	r4, #4294967295	; 0xffffffff
/mnt/disk/raspbian-tee/optee_os/lib/libutee/arch/arm/user_ta_entry.c:223
    1b1a:	f004 febd 	bl	6898 <TEE_Panic>
/mnt/disk/raspbian-tee/optee_os/lib/libutee/arch/arm/user_ta_entry.c:224
    1b1e:	e026      	b.n	1b6e <__utee_entry+0x72>
ta_header_add_session():
/mnt/disk/raspbian-tee/optee_os/lib/libutee/arch/arm/user_ta_entry.c:90
    1b20:	4608      	mov	r0, r1
    1b22:	f7ff ffa9 	bl	1a78 <ta_header_get_session>
/mnt/disk/raspbian-tee/optee_os/lib/libutee/arch/arm/user_ta_entry.c:93
    1b26:	2800      	cmp	r0, #0
    1b28:	d138      	bne.n	1b9c <__utee_entry+0xa0>
/mnt/disk/raspbian-tee/optee_os/lib/libutee/arch/arm/user_ta_entry.c:96
    1b2a:	4b51      	ldr	r3, [pc, #324]	; (1c70 <__utee_entry+0x174>)
    1b2c:	447b      	add	r3, pc
    1b2e:	781a      	ldrb	r2, [r3, #0]
    1b30:	b13a      	cbz	r2, 1b42 <__utee_entry+0x46>
/mnt/disk/raspbian-tee/optee_os/lib/libutee/arch/arm/user_ta_entry.c:103
    1b32:	f04f 4100 	mov.w	r1, #2147483648	; 0x80000000
    1b36:	2010      	movs	r0, #16
    1b38:	f7ff ff6b 	bl	1a12 <TEE_Malloc>
/mnt/disk/raspbian-tee/optee_os/lib/libutee/arch/arm/user_ta_entry.c:105
    1b3c:	bb18      	cbnz	r0, 1b86 <__utee_entry+0x8a>
/mnt/disk/raspbian-tee/optee_os/lib/libutee/arch/arm/user_ta_entry.c:106
    1b3e:	4c49      	ldr	r4, [pc, #292]	; (1c64 <__utee_entry+0x168>)
    1b40:	e015      	b.n	1b6e <__utee_entry+0x72>
/mnt/disk/raspbian-tee/optee_os/lib/libutee/arch/arm/user_ta_entry.c:97
    1b42:	2201      	movs	r2, #1
    1b44:	701a      	strb	r2, [r3, #0]
init_instance():
/mnt/disk/raspbian-tee/optee_os/lib/libutee/arch/arm/user_ta_entry.c:53
    1b46:	f004 fda5 	bl	6694 <tahead_get_trace_level>
    1b4a:	f7ff fc86 	bl	145a <trace_set_level>
/mnt/disk/raspbian-tee/optee_os/lib/libutee/arch/arm/user_ta_entry.c:55
    1b4e:	4b49      	ldr	r3, [pc, #292]	; (1c74 <__utee_entry+0x178>)
    1b50:	4a49      	ldr	r2, [pc, #292]	; (1c78 <__utee_entry+0x17c>)
    1b52:	58e3      	ldr	r3, [r4, r3]
    1b54:	58a2      	ldr	r2, [r4, r2]
    1b56:	9201      	str	r2, [sp, #4]
    1b58:	6819      	ldr	r1, [r3, #0]
    1b5a:	4610      	mov	r0, r2
    1b5c:	f004 fbec 	bl	6338 <malloc_add_pool>
/mnt/disk/raspbian-tee/optee_os/lib/libutee/arch/arm/user_ta_entry.c:56
    1b60:	f000 fdc8 	bl	26f4 <_TEE_MathAPI_Init>
/mnt/disk/raspbian-tee/optee_os/lib/libutee/arch/arm/user_ta_entry.c:57
    1b64:	f7fe fa5c 	bl	20 <TA_CreateEntryPoint>
ta_header_add_session():
/mnt/disk/raspbian-tee/optee_os/lib/libutee/arch/arm/user_ta_entry.c:99
    1b68:	4604      	mov	r4, r0
    1b6a:	2800      	cmp	r0, #0
    1b6c:	d0e1      	beq.n	1b32 <__utee_entry+0x36>
ta_header_save_params():
/mnt/disk/raspbian-tee/optee_os/lib/libutee/arch/arm/user_ta_entry.c:69
    1b6e:	4843      	ldr	r0, [pc, #268]	; (1c7c <__utee_entry+0x180>)
    1b70:	2100      	movs	r1, #0
/mnt/disk/raspbian-tee/optee_os/lib/libutee/arch/arm/user_ta_entry.c:74
    1b72:	2220      	movs	r2, #32
/mnt/disk/raspbian-tee/optee_os/lib/libutee/arch/arm/user_ta_entry.c:69
    1b74:	4478      	add	r0, pc
/mnt/disk/raspbian-tee/optee_os/lib/libutee/arch/arm/user_ta_entry.c:74
    1b76:	3008      	adds	r0, #8
/mnt/disk/raspbian-tee/optee_os/lib/libutee/arch/arm/user_ta_entry.c:69
    1b78:	f840 1c04 	str.w	r1, [r0, #-4]
/mnt/disk/raspbian-tee/optee_os/lib/libutee/arch/arm/user_ta_entry.c:74
    1b7c:	f004 fdae 	bl	66dc <memset>
__utee_entry():
/mnt/disk/raspbian-tee/optee_os/lib/libutee/arch/arm/user_ta_entry.c:227
    1b80:	4620      	mov	r0, r4
    1b82:	f000 e88e 	blx	1ca0 <utee_return>
ta_header_add_session():
/mnt/disk/raspbian-tee/optee_os/lib/libutee/arch/arm/user_ta_entry.c:108
    1b86:	2300      	movs	r3, #0
    1b88:	6043      	str	r3, [r0, #4]
/mnt/disk/raspbian-tee/optee_os/lib/libutee/arch/arm/user_ta_entry.c:109
    1b8a:	6083      	str	r3, [r0, #8]
    1b8c:	4b3c      	ldr	r3, [pc, #240]	; (1c80 <__utee_entry+0x184>)
/mnt/disk/raspbian-tee/optee_os/lib/libutee/arch/arm/user_ta_entry.c:107
    1b8e:	6007      	str	r7, [r0, #0]
/mnt/disk/raspbian-tee/optee_os/lib/libutee/arch/arm/user_ta_entry.c:109
    1b90:	447b      	add	r3, pc
    1b92:	685a      	ldr	r2, [r3, #4]
    1b94:	60c2      	str	r2, [r0, #12]
    1b96:	6010      	str	r0, [r2, #0]
    1b98:	3008      	adds	r0, #8
    1b9a:	6058      	str	r0, [r3, #4]
entry_open_session():
/mnt/disk/raspbian-tee/optee_os/lib/libutee/arch/arm/user_ta_entry.c:147
    1b9c:	4638      	mov	r0, r7
    1b9e:	f7ff ff6b 	bl	1a78 <ta_header_get_session>
/mnt/disk/raspbian-tee/optee_os/lib/libutee/arch/arm/user_ta_entry.c:148
    1ba2:	4681      	mov	r9, r0
    1ba4:	b908      	cbnz	r0, 1baa <__utee_entry+0xae>
entry_close_session():
/mnt/disk/raspbian-tee/optee_os/lib/libutee/arch/arm/user_ta_entry.c:169
    1ba6:	4c30      	ldr	r4, [pc, #192]	; (1c68 <__utee_entry+0x16c>)
    1ba8:	e7e1      	b.n	1b6e <__utee_entry+0x72>
entry_open_session():
/mnt/disk/raspbian-tee/optee_os/lib/libutee/arch/arm/user_ta_entry.c:151
    1baa:	f10d 0810 	add.w	r8, sp, #16
ta_header_save_params():
/mnt/disk/raspbian-tee/optee_os/lib/libutee/arch/arm/user_ta_entry.c:69
    1bae:	4c35      	ldr	r4, [pc, #212]	; (1c84 <__utee_entry+0x188>)
/mnt/disk/raspbian-tee/optee_os/lib/libutee/arch/arm/user_ta_entry.c:72
    1bb0:	4645      	mov	r5, r8
entry_open_session():
/mnt/disk/raspbian-tee/optee_os/lib/libutee/arch/arm/user_ta_entry.c:151
    1bb2:	4632      	mov	r2, r6
    1bb4:	a903      	add	r1, sp, #12
    1bb6:	4640      	mov	r0, r8
ta_header_save_params():
/mnt/disk/raspbian-tee/optee_os/lib/libutee/arch/arm/user_ta_entry.c:69
    1bb8:	447c      	add	r4, pc
entry_open_session():
/mnt/disk/raspbian-tee/optee_os/lib/libutee/arch/arm/user_ta_entry.c:151
    1bba:	f7ff fe13 	bl	17e4 <__utee_to_param>
ta_header_save_params():
/mnt/disk/raspbian-tee/optee_os/lib/libutee/arch/arm/user_ta_entry.c:72
    1bbe:	cd0f      	ldmia	r5!, {r0, r1, r2, r3}
    1bc0:	3408      	adds	r4, #8
entry_open_session():
/mnt/disk/raspbian-tee/optee_os/lib/libutee/arch/arm/user_ta_entry.c:152
    1bc2:	f8dd c00c 	ldr.w	ip, [sp, #12]
ta_header_save_params():
/mnt/disk/raspbian-tee/optee_os/lib/libutee/arch/arm/user_ta_entry.c:69
    1bc6:	f844 cc04 	str.w	ip, [r4, #-4]
/mnt/disk/raspbian-tee/optee_os/lib/libutee/arch/arm/user_ta_entry.c:72
    1bca:	c40f      	stmia	r4!, {r0, r1, r2, r3}
    1bcc:	e895 000f 	ldmia.w	r5, {r0, r1, r2, r3}
    1bd0:	e884 000f 	stmia.w	r4, {r0, r1, r2, r3}
entry_open_session():
/mnt/disk/raspbian-tee/optee_os/lib/libutee/arch/arm/user_ta_entry.c:154
    1bd4:	f109 0204 	add.w	r2, r9, #4
    1bd8:	4641      	mov	r1, r8
    1bda:	4660      	mov	r0, ip
    1bdc:	f7fe fa48 	bl	70 <TA_OpenSessionEntryPoint>
/mnt/disk/raspbian-tee/optee_os/lib/libutee/arch/arm/user_ta_entry.c:157
    1be0:	4642      	mov	r2, r8
/mnt/disk/raspbian-tee/optee_os/lib/libutee/arch/arm/user_ta_entry.c:154
    1be2:	4604      	mov	r4, r0
/mnt/disk/raspbian-tee/optee_os/lib/libutee/arch/arm/user_ta_entry.c:157
    1be4:	9903      	ldr	r1, [sp, #12]
    1be6:	4630      	mov	r0, r6
    1be8:	f7ff fdd4 	bl	1794 <__utee_from_param>
/mnt/disk/raspbian-tee/optee_os/lib/libutee/arch/arm/user_ta_entry.c:159
    1bec:	2c00      	cmp	r4, #0
    1bee:	d0be      	beq.n	1b6e <__utee_entry+0x72>
/mnt/disk/raspbian-tee/optee_os/lib/libutee/arch/arm/user_ta_entry.c:160
    1bf0:	4638      	mov	r0, r7
    1bf2:	f7ff ff4f 	bl	1a94 <ta_header_remove_session>
    1bf6:	e7ba      	b.n	1b6e <__utee_entry+0x72>
entry_close_session():
/mnt/disk/raspbian-tee/optee_os/lib/libutee/arch/arm/user_ta_entry.c:166
    1bf8:	4608      	mov	r0, r1
    1bfa:	f7ff ff3d 	bl	1a78 <ta_header_get_session>
/mnt/disk/raspbian-tee/optee_os/lib/libutee/arch/arm/user_ta_entry.c:168
    1bfe:	2800      	cmp	r0, #0
    1c00:	d0d1      	beq.n	1ba6 <__utee_entry+0xaa>
/mnt/disk/raspbian-tee/optee_os/lib/libutee/arch/arm/user_ta_entry.c:171
    1c02:	6840      	ldr	r0, [r0, #4]
/mnt/disk/raspbian-tee/optee_os/lib/libutee/arch/arm/user_ta_entry.c:174
    1c04:	2400      	movs	r4, #0
/mnt/disk/raspbian-tee/optee_os/lib/libutee/arch/arm/user_ta_entry.c:171
    1c06:	f7fe fa59 	bl	bc <TA_CloseSessionEntryPoint>
/mnt/disk/raspbian-tee/optee_os/lib/libutee/arch/arm/user_ta_entry.c:173
    1c0a:	4638      	mov	r0, r7
    1c0c:	f7ff ff42 	bl	1a94 <ta_header_remove_session>
    1c10:	e7ad      	b.n	1b6e <__utee_entry+0x72>
entry_invoke_command():
/mnt/disk/raspbian-tee/optee_os/lib/libutee/arch/arm/user_ta_entry.c:183
    1c12:	4608      	mov	r0, r1
    1c14:	f7ff ff30 	bl	1a78 <ta_header_get_session>
/mnt/disk/raspbian-tee/optee_os/lib/libutee/arch/arm/user_ta_entry.c:185
    1c18:	4681      	mov	r9, r0
    1c1a:	2800      	cmp	r0, #0
    1c1c:	d0c3      	beq.n	1ba6 <__utee_entry+0xaa>
/mnt/disk/raspbian-tee/optee_os/lib/libutee/arch/arm/user_ta_entry.c:188
    1c1e:	af04      	add	r7, sp, #16
ta_header_save_params():
/mnt/disk/raspbian-tee/optee_os/lib/libutee/arch/arm/user_ta_entry.c:69
    1c20:	4c19      	ldr	r4, [pc, #100]	; (1c88 <__utee_entry+0x18c>)
/mnt/disk/raspbian-tee/optee_os/lib/libutee/arch/arm/user_ta_entry.c:72
    1c22:	463d      	mov	r5, r7
entry_invoke_command():
/mnt/disk/raspbian-tee/optee_os/lib/libutee/arch/arm/user_ta_entry.c:188
    1c24:	4632      	mov	r2, r6
    1c26:	a903      	add	r1, sp, #12
    1c28:	4638      	mov	r0, r7
ta_header_save_params():
/mnt/disk/raspbian-tee/optee_os/lib/libutee/arch/arm/user_ta_entry.c:69
    1c2a:	447c      	add	r4, pc
entry_invoke_command():
/mnt/disk/raspbian-tee/optee_os/lib/libutee/arch/arm/user_ta_entry.c:188
    1c2c:	f7ff fdda 	bl	17e4 <__utee_to_param>
ta_header_save_params():
/mnt/disk/raspbian-tee/optee_os/lib/libutee/arch/arm/user_ta_entry.c:72
    1c30:	cd0f      	ldmia	r5!, {r0, r1, r2, r3}
    1c32:	3408      	adds	r4, #8
entry_invoke_command():
/mnt/disk/raspbian-tee/optee_os/lib/libutee/arch/arm/user_ta_entry.c:189
    1c34:	f8dd c00c 	ldr.w	ip, [sp, #12]
ta_header_save_params():
/mnt/disk/raspbian-tee/optee_os/lib/libutee/arch/arm/user_ta_entry.c:69
    1c38:	f844 cc04 	str.w	ip, [r4, #-4]
/mnt/disk/raspbian-tee/optee_os/lib/libutee/arch/arm/user_ta_entry.c:72
    1c3c:	c40f      	stmia	r4!, {r0, r1, r2, r3}
    1c3e:	e895 000f 	ldmia.w	r5, {r0, r1, r2, r3}
    1c42:	e884 000f 	stmia.w	r4, {r0, r1, r2, r3}
entry_invoke_command():
/mnt/disk/raspbian-tee/optee_os/lib/libutee/arch/arm/user_ta_entry.c:191
    1c46:	4662      	mov	r2, ip
    1c48:	4641      	mov	r1, r8
    1c4a:	463b      	mov	r3, r7
    1c4c:	f8d9 0004 	ldr.w	r0, [r9, #4]
    1c50:	f7fe ffb4 	bl	bbc <TA_InvokeCommandEntryPoint>
/mnt/disk/raspbian-tee/optee_os/lib/libutee/arch/arm/user_ta_entry.c:194
    1c54:	463a      	mov	r2, r7
/mnt/disk/raspbian-tee/optee_os/lib/libutee/arch/arm/user_ta_entry.c:191
    1c56:	4604      	mov	r4, r0
/mnt/disk/raspbian-tee/optee_os/lib/libutee/arch/arm/user_ta_entry.c:194
    1c58:	9903      	ldr	r1, [sp, #12]
    1c5a:	4630      	mov	r0, r6
    1c5c:	f7ff fd9a 	bl	1794 <__utee_from_param>
    1c60:	e785      	b.n	1b6e <__utee_entry+0x72>
    1c62:	bf00      	nop
    1c64:	ffff000c 	.word	0xffff000c
    1c68:	ffff0007 	.word	0xffff0007
    1c6c:	000065b2 	.word	0x000065b2
    1c70:	00007570 	.word	0x00007570
    1c74:	00000010 	.word	0x00000010
    1c78:	00000024 	.word	0x00000024
    1c7c:	00007528 	.word	0x00007528
    1c80:	000074e4 	.word	0x000074e4
    1c84:	000074e4 	.word	0x000074e4
    1c88:	00007472 	.word	0x00007472

00001c8c <utee_panic>:
utee_panic():
/mnt/disk/raspbian-tee/optee_os/lib/libutee/arch/arm/utee_syscalls_a32.S:47
    1c8c:	e92d4fff 	push	{r0, r1, r2, r3, r4, r5, r6, r7, r8, r9, sl, fp, lr}
/mnt/disk/raspbian-tee/optee_os/lib/libutee/arch/arm/utee_syscalls_a32.S:49
    1c90:	e1a0e00f 	mov	lr, pc
/mnt/disk/raspbian-tee/optee_os/lib/libutee/arch/arm/utee_syscalls_a32.S:50
    1c94:	e52de004 	push	{lr}		; (str lr, [sp, #-4]!)
/mnt/disk/raspbian-tee/optee_os/lib/libutee/arch/arm/utee_syscalls_a32.S:52
    1c98:	e1a0100d 	mov	r1, sp
/mnt/disk/raspbian-tee/optee_os/lib/libutee/arch/arm/utee_syscalls_a32.S:53
    1c9c:	eb000009 	bl	1cc8 <__utee_panic>

00001ca0 <utee_return>:
utee_return():
/mnt/disk/raspbian-tee/optee_os/lib/libutee/arch/arm/utee_syscalls_asm.S:8
    1ca0:	e92d40e0 	push	{r5, r6, r7, lr}
    1ca4:	e3a07000 	mov	r7, #0
    1ca8:	e3a06000 	mov	r6, #0
    1cac:	ef000000 	svc	0x00000000
    1cb0:	e8bd80e0 	pop	{r5, r6, r7, pc}

00001cb4 <utee_log>:
utee_log():
/mnt/disk/raspbian-tee/optee_os/lib/libutee/arch/arm/utee_syscalls_asm.S:10
    1cb4:	e92d40e0 	push	{r5, r6, r7, lr}
    1cb8:	e3a07001 	mov	r7, #1
    1cbc:	e3a06000 	mov	r6, #0
    1cc0:	ef000000 	svc	0x00000000
    1cc4:	e8bd80e0 	pop	{r5, r6, r7, pc}

00001cc8 <__utee_panic>:
__utee_panic():
/mnt/disk/raspbian-tee/optee_os/lib/libutee/arch/arm/utee_syscalls_asm.S:12
    1cc8:	e92d40e0 	push	{r5, r6, r7, lr}
    1ccc:	e3a07002 	mov	r7, #2
    1cd0:	e3a06000 	mov	r6, #0
    1cd4:	ef000000 	svc	0x00000000
    1cd8:	e8bd80e0 	pop	{r5, r6, r7, pc}

00001cdc <utee_get_property>:
utee_get_property():
/mnt/disk/raspbian-tee/optee_os/lib/libutee/arch/arm/utee_syscalls_asm.S:14
    1cdc:	e92d40e0 	push	{r5, r6, r7, lr}
    1ce0:	e3a07003 	mov	r7, #3
    1ce4:	e3a06003 	mov	r6, #3
    1ce8:	e28d5010 	add	r5, sp, #16
    1cec:	ef000000 	svc	0x00000000
    1cf0:	e8bd80e0 	pop	{r5, r6, r7, pc}

00001cf4 <utee_get_property_name_to_index>:
utee_get_property_name_to_index():
/mnt/disk/raspbian-tee/optee_os/lib/libutee/arch/arm/utee_syscalls_asm.S:16
    1cf4:	e92d40e0 	push	{r5, r6, r7, lr}
    1cf8:	e3a07004 	mov	r7, #4
    1cfc:	e3a06000 	mov	r6, #0
    1d00:	ef000000 	svc	0x00000000
    1d04:	e8bd80e0 	pop	{r5, r6, r7, pc}

00001d08 <utee_open_ta_session>:
utee_open_ta_session():
/mnt/disk/raspbian-tee/optee_os/lib/libutee/arch/arm/utee_syscalls_asm.S:19
    1d08:	e92d40e0 	push	{r5, r6, r7, lr}
    1d0c:	e3a07005 	mov	r7, #5
    1d10:	e3a06001 	mov	r6, #1
    1d14:	e28d5010 	add	r5, sp, #16
    1d18:	ef000000 	svc	0x00000000
    1d1c:	e8bd80e0 	pop	{r5, r6, r7, pc}

00001d20 <utee_close_ta_session>:
utee_close_ta_session():
/mnt/disk/raspbian-tee/optee_os/lib/libutee/arch/arm/utee_syscalls_asm.S:21
    1d20:	e92d40e0 	push	{r5, r6, r7, lr}
    1d24:	e3a07006 	mov	r7, #6
    1d28:	e3a06000 	mov	r6, #0
    1d2c:	ef000000 	svc	0x00000000
    1d30:	e8bd80e0 	pop	{r5, r6, r7, pc}

00001d34 <utee_invoke_ta_command>:
utee_invoke_ta_command():
/mnt/disk/raspbian-tee/optee_os/lib/libutee/arch/arm/utee_syscalls_asm.S:23
    1d34:	e92d40e0 	push	{r5, r6, r7, lr}
    1d38:	e3a07007 	mov	r7, #7
    1d3c:	e3a06001 	mov	r6, #1
    1d40:	e28d5010 	add	r5, sp, #16
    1d44:	ef000000 	svc	0x00000000
    1d48:	e8bd80e0 	pop	{r5, r6, r7, pc}

00001d4c <utee_get_cancellation_flag>:
utee_get_cancellation_flag():
/mnt/disk/raspbian-tee/optee_os/lib/libutee/arch/arm/utee_syscalls_asm.S:25
    1d4c:	e92d40e0 	push	{r5, r6, r7, lr}
    1d50:	e3a07009 	mov	r7, #9
    1d54:	e3a06000 	mov	r6, #0
    1d58:	ef000000 	svc	0x00000000
    1d5c:	e8bd80e0 	pop	{r5, r6, r7, pc}

00001d60 <utee_check_access_rights>:
utee_check_access_rights():
/mnt/disk/raspbian-tee/optee_os/lib/libutee/arch/arm/utee_syscalls_asm.S:28
    1d60:	e92d40e0 	push	{r5, r6, r7, lr}
    1d64:	e3a07008 	mov	r7, #8
    1d68:	e3a06000 	mov	r6, #0
    1d6c:	ef000000 	svc	0x00000000
    1d70:	e8bd80e0 	pop	{r5, r6, r7, pc}

00001d74 <utee_unmask_cancellation>:
utee_unmask_cancellation():
/mnt/disk/raspbian-tee/optee_os/lib/libutee/arch/arm/utee_syscalls_asm.S:30
    1d74:	e92d40e0 	push	{r5, r6, r7, lr}
    1d78:	e3a0700a 	mov	r7, #10
    1d7c:	e3a06000 	mov	r6, #0
    1d80:	ef000000 	svc	0x00000000
    1d84:	e8bd80e0 	pop	{r5, r6, r7, pc}

00001d88 <utee_mask_cancellation>:
utee_mask_cancellation():
/mnt/disk/raspbian-tee/optee_os/lib/libutee/arch/arm/utee_syscalls_asm.S:32
    1d88:	e92d40e0 	push	{r5, r6, r7, lr}
    1d8c:	e3a0700b 	mov	r7, #11
    1d90:	e3a06000 	mov	r6, #0
    1d94:	ef000000 	svc	0x00000000
    1d98:	e8bd80e0 	pop	{r5, r6, r7, pc}

00001d9c <utee_wait>:
utee_wait():
/mnt/disk/raspbian-tee/optee_os/lib/libutee/arch/arm/utee_syscalls_asm.S:34
    1d9c:	e92d40e0 	push	{r5, r6, r7, lr}
    1da0:	e3a0700c 	mov	r7, #12
    1da4:	e3a06000 	mov	r6, #0
    1da8:	ef000000 	svc	0x00000000
    1dac:	e8bd80e0 	pop	{r5, r6, r7, pc}

00001db0 <utee_get_time>:
utee_get_time():
/mnt/disk/raspbian-tee/optee_os/lib/libutee/arch/arm/utee_syscalls_asm.S:36
    1db0:	e92d40e0 	push	{r5, r6, r7, lr}
    1db4:	e3a0700d 	mov	r7, #13
    1db8:	e3a06000 	mov	r6, #0
    1dbc:	ef000000 	svc	0x00000000
    1dc0:	e8bd80e0 	pop	{r5, r6, r7, pc}

00001dc4 <utee_set_ta_time>:
utee_set_ta_time():
/mnt/disk/raspbian-tee/optee_os/lib/libutee/arch/arm/utee_syscalls_asm.S:38
    1dc4:	e92d40e0 	push	{r5, r6, r7, lr}
    1dc8:	e3a0700e 	mov	r7, #14
    1dcc:	e3a06000 	mov	r6, #0
    1dd0:	ef000000 	svc	0x00000000
    1dd4:	e8bd80e0 	pop	{r5, r6, r7, pc}

00001dd8 <utee_cryp_state_alloc>:
utee_cryp_state_alloc():
/mnt/disk/raspbian-tee/optee_os/lib/libutee/arch/arm/utee_syscalls_asm.S:40
    1dd8:	e92d40e0 	push	{r5, r6, r7, lr}
    1ddc:	e3a0700f 	mov	r7, #15
    1de0:	e3a06001 	mov	r6, #1
    1de4:	e28d5010 	add	r5, sp, #16
    1de8:	ef000000 	svc	0x00000000
    1dec:	e8bd80e0 	pop	{r5, r6, r7, pc}

00001df0 <utee_cryp_state_copy>:
utee_cryp_state_copy():
/mnt/disk/raspbian-tee/optee_os/lib/libutee/arch/arm/utee_syscalls_asm.S:42
    1df0:	e92d40e0 	push	{r5, r6, r7, lr}
    1df4:	e3a07010 	mov	r7, #16
    1df8:	e3a06000 	mov	r6, #0
    1dfc:	ef000000 	svc	0x00000000
    1e00:	e8bd80e0 	pop	{r5, r6, r7, pc}

00001e04 <utee_cryp_state_free>:
utee_cryp_state_free():
/mnt/disk/raspbian-tee/optee_os/lib/libutee/arch/arm/utee_syscalls_asm.S:44
    1e04:	e92d40e0 	push	{r5, r6, r7, lr}
    1e08:	e3a07011 	mov	r7, #17
    1e0c:	e3a06000 	mov	r6, #0
    1e10:	ef000000 	svc	0x00000000
    1e14:	e8bd80e0 	pop	{r5, r6, r7, pc}

00001e18 <utee_hash_init>:
utee_hash_init():
/mnt/disk/raspbian-tee/optee_os/lib/libutee/arch/arm/utee_syscalls_asm.S:46
    1e18:	e92d40e0 	push	{r5, r6, r7, lr}
    1e1c:	e3a07012 	mov	r7, #18
    1e20:	e3a06000 	mov	r6, #0
    1e24:	ef000000 	svc	0x00000000
    1e28:	e8bd80e0 	pop	{r5, r6, r7, pc}

00001e2c <utee_hash_update>:
utee_hash_update():
/mnt/disk/raspbian-tee/optee_os/lib/libutee/arch/arm/utee_syscalls_asm.S:48
    1e2c:	e92d40e0 	push	{r5, r6, r7, lr}
    1e30:	e3a07013 	mov	r7, #19
    1e34:	e3a06000 	mov	r6, #0
    1e38:	ef000000 	svc	0x00000000
    1e3c:	e8bd80e0 	pop	{r5, r6, r7, pc}

00001e40 <utee_hash_final>:
utee_hash_final():
/mnt/disk/raspbian-tee/optee_os/lib/libutee/arch/arm/utee_syscalls_asm.S:50
    1e40:	e92d40e0 	push	{r5, r6, r7, lr}
    1e44:	e3a07014 	mov	r7, #20
    1e48:	e3a06001 	mov	r6, #1
    1e4c:	e28d5010 	add	r5, sp, #16
    1e50:	ef000000 	svc	0x00000000
    1e54:	e8bd80e0 	pop	{r5, r6, r7, pc}

00001e58 <utee_cipher_init>:
utee_cipher_init():
/mnt/disk/raspbian-tee/optee_os/lib/libutee/arch/arm/utee_syscalls_asm.S:52
    1e58:	e92d40e0 	push	{r5, r6, r7, lr}
    1e5c:	e3a07015 	mov	r7, #21
    1e60:	e3a06000 	mov	r6, #0
    1e64:	ef000000 	svc	0x00000000
    1e68:	e8bd80e0 	pop	{r5, r6, r7, pc}

00001e6c <utee_cipher_update>:
utee_cipher_update():
/mnt/disk/raspbian-tee/optee_os/lib/libutee/arch/arm/utee_syscalls_asm.S:54
    1e6c:	e92d40e0 	push	{r5, r6, r7, lr}
    1e70:	e3a07016 	mov	r7, #22
    1e74:	e3a06001 	mov	r6, #1
    1e78:	e28d5010 	add	r5, sp, #16
    1e7c:	ef000000 	svc	0x00000000
    1e80:	e8bd80e0 	pop	{r5, r6, r7, pc}

00001e84 <utee_cipher_final>:
utee_cipher_final():
/mnt/disk/raspbian-tee/optee_os/lib/libutee/arch/arm/utee_syscalls_asm.S:56
    1e84:	e92d40e0 	push	{r5, r6, r7, lr}
    1e88:	e3a07017 	mov	r7, #23
    1e8c:	e3a06001 	mov	r6, #1
    1e90:	e28d5010 	add	r5, sp, #16
    1e94:	ef000000 	svc	0x00000000
    1e98:	e8bd80e0 	pop	{r5, r6, r7, pc}

00001e9c <utee_cryp_obj_get_info>:
utee_cryp_obj_get_info():
/mnt/disk/raspbian-tee/optee_os/lib/libutee/arch/arm/utee_syscalls_asm.S:58
    1e9c:	e92d40e0 	push	{r5, r6, r7, lr}
    1ea0:	e3a07018 	mov	r7, #24
    1ea4:	e3a06000 	mov	r6, #0
    1ea8:	ef000000 	svc	0x00000000
    1eac:	e8bd80e0 	pop	{r5, r6, r7, pc}

00001eb0 <utee_cryp_obj_restrict_usage>:
utee_cryp_obj_restrict_usage():
/mnt/disk/raspbian-tee/optee_os/lib/libutee/arch/arm/utee_syscalls_asm.S:60
    1eb0:	e92d40e0 	push	{r5, r6, r7, lr}
    1eb4:	e3a07019 	mov	r7, #25
    1eb8:	e3a06000 	mov	r6, #0
    1ebc:	ef000000 	svc	0x00000000
    1ec0:	e8bd80e0 	pop	{r5, r6, r7, pc}

00001ec4 <utee_cryp_obj_get_attr>:
utee_cryp_obj_get_attr():
/mnt/disk/raspbian-tee/optee_os/lib/libutee/arch/arm/utee_syscalls_asm.S:63
    1ec4:	e92d40e0 	push	{r5, r6, r7, lr}
    1ec8:	e3a0701a 	mov	r7, #26
    1ecc:	e3a06000 	mov	r6, #0
    1ed0:	ef000000 	svc	0x00000000
    1ed4:	e8bd80e0 	pop	{r5, r6, r7, pc}

00001ed8 <utee_cryp_obj_alloc>:
utee_cryp_obj_alloc():
/mnt/disk/raspbian-tee/optee_os/lib/libutee/arch/arm/utee_syscalls_asm.S:65
    1ed8:	e92d40e0 	push	{r5, r6, r7, lr}
    1edc:	e3a0701b 	mov	r7, #27
    1ee0:	e3a06000 	mov	r6, #0
    1ee4:	ef000000 	svc	0x00000000
    1ee8:	e8bd80e0 	pop	{r5, r6, r7, pc}

00001eec <utee_cryp_obj_close>:
utee_cryp_obj_close():
/mnt/disk/raspbian-tee/optee_os/lib/libutee/arch/arm/utee_syscalls_asm.S:67
    1eec:	e92d40e0 	push	{r5, r6, r7, lr}
    1ef0:	e3a0701c 	mov	r7, #28
    1ef4:	e3a06000 	mov	r6, #0
    1ef8:	ef000000 	svc	0x00000000
    1efc:	e8bd80e0 	pop	{r5, r6, r7, pc}

00001f00 <utee_cryp_obj_reset>:
utee_cryp_obj_reset():
/mnt/disk/raspbian-tee/optee_os/lib/libutee/arch/arm/utee_syscalls_asm.S:69
    1f00:	e92d40e0 	push	{r5, r6, r7, lr}
    1f04:	e3a0701d 	mov	r7, #29
    1f08:	e3a06000 	mov	r6, #0
    1f0c:	ef000000 	svc	0x00000000
    1f10:	e8bd80e0 	pop	{r5, r6, r7, pc}

00001f14 <utee_cryp_obj_populate>:
utee_cryp_obj_populate():
/mnt/disk/raspbian-tee/optee_os/lib/libutee/arch/arm/utee_syscalls_asm.S:71
    1f14:	e92d40e0 	push	{r5, r6, r7, lr}
    1f18:	e3a0701e 	mov	r7, #30
    1f1c:	e3a06000 	mov	r6, #0
    1f20:	ef000000 	svc	0x00000000
    1f24:	e8bd80e0 	pop	{r5, r6, r7, pc}

00001f28 <utee_cryp_obj_copy>:
utee_cryp_obj_copy():
/mnt/disk/raspbian-tee/optee_os/lib/libutee/arch/arm/utee_syscalls_asm.S:73
    1f28:	e92d40e0 	push	{r5, r6, r7, lr}
    1f2c:	e3a0701f 	mov	r7, #31
    1f30:	e3a06000 	mov	r6, #0
    1f34:	ef000000 	svc	0x00000000
    1f38:	e8bd80e0 	pop	{r5, r6, r7, pc}

00001f3c <utee_cryp_derive_key>:
utee_cryp_derive_key():
/mnt/disk/raspbian-tee/optee_os/lib/libutee/arch/arm/utee_syscalls_asm.S:75
    1f3c:	e92d40e0 	push	{r5, r6, r7, lr}
    1f40:	e3a07020 	mov	r7, #32
    1f44:	e3a06000 	mov	r6, #0
    1f48:	ef000000 	svc	0x00000000
    1f4c:	e8bd80e0 	pop	{r5, r6, r7, pc}

00001f50 <utee_cryp_random_number_generate>:
utee_cryp_random_number_generate():
/mnt/disk/raspbian-tee/optee_os/lib/libutee/arch/arm/utee_syscalls_asm.S:77
    1f50:	e92d40e0 	push	{r5, r6, r7, lr}
    1f54:	e3a07021 	mov	r7, #33	; 0x21
    1f58:	e3a06000 	mov	r6, #0
    1f5c:	ef000000 	svc	0x00000000
    1f60:	e8bd80e0 	pop	{r5, r6, r7, pc}

00001f64 <utee_authenc_init>:
utee_authenc_init():
/mnt/disk/raspbian-tee/optee_os/lib/libutee/arch/arm/utee_syscalls_asm.S:80
    1f64:	e92d40e0 	push	{r5, r6, r7, lr}
    1f68:	e3a07022 	mov	r7, #34	; 0x22
    1f6c:	e3a06002 	mov	r6, #2
    1f70:	e28d5010 	add	r5, sp, #16
    1f74:	ef000000 	svc	0x00000000
    1f78:	e8bd80e0 	pop	{r5, r6, r7, pc}

00001f7c <utee_authenc_update_aad>:
utee_authenc_update_aad():
/mnt/disk/raspbian-tee/optee_os/lib/libutee/arch/arm/utee_syscalls_asm.S:82
    1f7c:	e92d40e0 	push	{r5, r6, r7, lr}
    1f80:	e3a07023 	mov	r7, #35	; 0x23
    1f84:	e3a06000 	mov	r6, #0
    1f88:	ef000000 	svc	0x00000000
    1f8c:	e8bd80e0 	pop	{r5, r6, r7, pc}

00001f90 <utee_authenc_update_payload>:
utee_authenc_update_payload():
/mnt/disk/raspbian-tee/optee_os/lib/libutee/arch/arm/utee_syscalls_asm.S:84
    1f90:	e92d40e0 	push	{r5, r6, r7, lr}
    1f94:	e3a07024 	mov	r7, #36	; 0x24
    1f98:	e3a06001 	mov	r6, #1
    1f9c:	e28d5010 	add	r5, sp, #16
    1fa0:	ef000000 	svc	0x00000000
    1fa4:	e8bd80e0 	pop	{r5, r6, r7, pc}

00001fa8 <utee_authenc_enc_final>:
utee_authenc_enc_final():
/mnt/disk/raspbian-tee/optee_os/lib/libutee/arch/arm/utee_syscalls_asm.S:87
    1fa8:	e92d40e0 	push	{r5, r6, r7, lr}
    1fac:	e3a07025 	mov	r7, #37	; 0x25
    1fb0:	e3a06003 	mov	r6, #3
    1fb4:	e28d5010 	add	r5, sp, #16
    1fb8:	ef000000 	svc	0x00000000
    1fbc:	e8bd80e0 	pop	{r5, r6, r7, pc}

00001fc0 <utee_authenc_dec_final>:
utee_authenc_dec_final():
/mnt/disk/raspbian-tee/optee_os/lib/libutee/arch/arm/utee_syscalls_asm.S:89
    1fc0:	e92d40e0 	push	{r5, r6, r7, lr}
    1fc4:	e3a07026 	mov	r7, #38	; 0x26
    1fc8:	e3a06003 	mov	r6, #3
    1fcc:	e28d5010 	add	r5, sp, #16
    1fd0:	ef000000 	svc	0x00000000
    1fd4:	e8bd80e0 	pop	{r5, r6, r7, pc}

00001fd8 <utee_asymm_operate>:
utee_asymm_operate():
/mnt/disk/raspbian-tee/optee_os/lib/libutee/arch/arm/utee_syscalls_asm.S:91
    1fd8:	e92d40e0 	push	{r5, r6, r7, lr}
    1fdc:	e3a07027 	mov	r7, #39	; 0x27
    1fe0:	e3a06003 	mov	r6, #3
    1fe4:	e28d5010 	add	r5, sp, #16
    1fe8:	ef000000 	svc	0x00000000
    1fec:	e8bd80e0 	pop	{r5, r6, r7, pc}

00001ff0 <utee_asymm_verify>:
utee_asymm_verify():
/mnt/disk/raspbian-tee/optee_os/lib/libutee/arch/arm/utee_syscalls_asm.S:93
    1ff0:	e92d40e0 	push	{r5, r6, r7, lr}
    1ff4:	e3a07028 	mov	r7, #40	; 0x28
    1ff8:	e3a06003 	mov	r6, #3
    1ffc:	e28d5010 	add	r5, sp, #16
    2000:	ef000000 	svc	0x00000000
    2004:	e8bd80e0 	pop	{r5, r6, r7, pc}

00002008 <utee_storage_obj_open>:
utee_storage_obj_open():
/mnt/disk/raspbian-tee/optee_os/lib/libutee/arch/arm/utee_syscalls_asm.S:95
    2008:	e92d40e0 	push	{r5, r6, r7, lr}
    200c:	e3a07029 	mov	r7, #41	; 0x29
    2010:	e3a06001 	mov	r6, #1
    2014:	e28d5010 	add	r5, sp, #16
    2018:	ef000000 	svc	0x00000000
    201c:	e8bd80e0 	pop	{r5, r6, r7, pc}

00002020 <utee_storage_obj_create>:
utee_storage_obj_create():
/mnt/disk/raspbian-tee/optee_os/lib/libutee/arch/arm/utee_syscalls_asm.S:97
    2020:	e92d40e0 	push	{r5, r6, r7, lr}
    2024:	e3a0702a 	mov	r7, #42	; 0x2a
    2028:	e3a06004 	mov	r6, #4
    202c:	e28d5010 	add	r5, sp, #16
    2030:	ef000000 	svc	0x00000000
    2034:	e8bd80e0 	pop	{r5, r6, r7, pc}

00002038 <utee_storage_obj_del>:
utee_storage_obj_del():
/mnt/disk/raspbian-tee/optee_os/lib/libutee/arch/arm/utee_syscalls_asm.S:99
    2038:	e92d40e0 	push	{r5, r6, r7, lr}
    203c:	e3a0702b 	mov	r7, #43	; 0x2b
    2040:	e3a06000 	mov	r6, #0
    2044:	ef000000 	svc	0x00000000
    2048:	e8bd80e0 	pop	{r5, r6, r7, pc}

0000204c <utee_storage_obj_rename>:
utee_storage_obj_rename():
/mnt/disk/raspbian-tee/optee_os/lib/libutee/arch/arm/utee_syscalls_asm.S:101
    204c:	e92d40e0 	push	{r5, r6, r7, lr}
    2050:	e3a0702c 	mov	r7, #44	; 0x2c
    2054:	e3a06000 	mov	r6, #0
    2058:	ef000000 	svc	0x00000000
    205c:	e8bd80e0 	pop	{r5, r6, r7, pc}

00002060 <utee_storage_alloc_enum>:
utee_storage_alloc_enum():
/mnt/disk/raspbian-tee/optee_os/lib/libutee/arch/arm/utee_syscalls_asm.S:103
    2060:	e92d40e0 	push	{r5, r6, r7, lr}
    2064:	e3a0702d 	mov	r7, #45	; 0x2d
    2068:	e3a06000 	mov	r6, #0
    206c:	ef000000 	svc	0x00000000
    2070:	e8bd80e0 	pop	{r5, r6, r7, pc}

00002074 <utee_storage_free_enum>:
utee_storage_free_enum():
/mnt/disk/raspbian-tee/optee_os/lib/libutee/arch/arm/utee_syscalls_asm.S:105
    2074:	e92d40e0 	push	{r5, r6, r7, lr}
    2078:	e3a0702e 	mov	r7, #46	; 0x2e
    207c:	e3a06000 	mov	r6, #0
    2080:	ef000000 	svc	0x00000000
    2084:	e8bd80e0 	pop	{r5, r6, r7, pc}

00002088 <utee_storage_reset_enum>:
utee_storage_reset_enum():
/mnt/disk/raspbian-tee/optee_os/lib/libutee/arch/arm/utee_syscalls_asm.S:107
    2088:	e92d40e0 	push	{r5, r6, r7, lr}
    208c:	e3a0702f 	mov	r7, #47	; 0x2f
    2090:	e3a06000 	mov	r6, #0
    2094:	ef000000 	svc	0x00000000
    2098:	e8bd80e0 	pop	{r5, r6, r7, pc}

0000209c <utee_storage_start_enum>:
utee_storage_start_enum():
/mnt/disk/raspbian-tee/optee_os/lib/libutee/arch/arm/utee_syscalls_asm.S:109
    209c:	e92d40e0 	push	{r5, r6, r7, lr}
    20a0:	e3a07030 	mov	r7, #48	; 0x30
    20a4:	e3a06000 	mov	r6, #0
    20a8:	ef000000 	svc	0x00000000
    20ac:	e8bd80e0 	pop	{r5, r6, r7, pc}

000020b0 <utee_storage_next_enum>:
utee_storage_next_enum():
/mnt/disk/raspbian-tee/optee_os/lib/libutee/arch/arm/utee_syscalls_asm.S:111
    20b0:	e92d40e0 	push	{r5, r6, r7, lr}
    20b4:	e3a07031 	mov	r7, #49	; 0x31
    20b8:	e3a06000 	mov	r6, #0
    20bc:	ef000000 	svc	0x00000000
    20c0:	e8bd80e0 	pop	{r5, r6, r7, pc}

000020c4 <utee_storage_obj_read>:
utee_storage_obj_read():
/mnt/disk/raspbian-tee/optee_os/lib/libutee/arch/arm/utee_syscalls_asm.S:113
    20c4:	e92d40e0 	push	{r5, r6, r7, lr}
    20c8:	e3a07032 	mov	r7, #50	; 0x32
    20cc:	e3a06000 	mov	r6, #0
    20d0:	ef000000 	svc	0x00000000
    20d4:	e8bd80e0 	pop	{r5, r6, r7, pc}

000020d8 <utee_storage_obj_write>:
utee_storage_obj_write():
/mnt/disk/raspbian-tee/optee_os/lib/libutee/arch/arm/utee_syscalls_asm.S:115
    20d8:	e92d40e0 	push	{r5, r6, r7, lr}
    20dc:	e3a07033 	mov	r7, #51	; 0x33
    20e0:	e3a06000 	mov	r6, #0
    20e4:	ef000000 	svc	0x00000000
    20e8:	e8bd80e0 	pop	{r5, r6, r7, pc}

000020ec <utee_storage_obj_trunc>:
utee_storage_obj_trunc():
/mnt/disk/raspbian-tee/optee_os/lib/libutee/arch/arm/utee_syscalls_asm.S:117
    20ec:	e92d40e0 	push	{r5, r6, r7, lr}
    20f0:	e3a07034 	mov	r7, #52	; 0x34
    20f4:	e3a06000 	mov	r6, #0
    20f8:	ef000000 	svc	0x00000000
    20fc:	e8bd80e0 	pop	{r5, r6, r7, pc}

00002100 <utee_storage_obj_seek>:
utee_storage_obj_seek():
/mnt/disk/raspbian-tee/optee_os/lib/libutee/arch/arm/utee_syscalls_asm.S:119
    2100:	e92d40e0 	push	{r5, r6, r7, lr}
    2104:	e3a07035 	mov	r7, #53	; 0x35
    2108:	e3a06000 	mov	r6, #0
    210c:	ef000000 	svc	0x00000000
    2110:	e8bd80e0 	pop	{r5, r6, r7, pc}

00002114 <utee_cryp_obj_generate_key>:
utee_cryp_obj_generate_key():
/mnt/disk/raspbian-tee/optee_os/lib/libutee/arch/arm/utee_syscalls_asm.S:121
    2114:	e92d40e0 	push	{r5, r6, r7, lr}
    2118:	e3a07036 	mov	r7, #54	; 0x36
    211c:	e3a06000 	mov	r6, #0
    2120:	ef000000 	svc	0x00000000
    2124:	e8bd80e0 	pop	{r5, r6, r7, pc}

00002128 <utee_cache_operation>:
utee_cache_operation():
/mnt/disk/raspbian-tee/optee_os/lib/libutee/arch/arm/utee_syscalls_asm.S:124
    2128:	e92d40e0 	push	{r5, r6, r7, lr}
    212c:	e3a07046 	mov	r7, #70	; 0x46
    2130:	e3a06000 	mov	r6, #0
    2134:	ef000000 	svc	0x00000000
    2138:	e8bd80e0 	pop	{r5, r6, r7, pc}

0000213c <__utee_mcount>:
__utee_mcount():
/mnt/disk/raspbian-tee/optee_os/lib/libutee/arch/arm/gprof/gprof_a32.S:49
    213c:	e52de004 	push	{lr}		; (str lr, [sp, #-4]!)
/mnt/disk/raspbian-tee/optee_os/lib/libutee/arch/arm/gprof/gprof_a32.S:50
    2140:	e8bd5000 	pop	{ip, lr}
/mnt/disk/raspbian-tee/optee_os/lib/libutee/arch/arm/gprof/gprof_a32.S:51
    2144:	e12fff1c 	bx	ip

00002148 <mpi_panic>:
mpi_panic():
/mnt/disk/raspbian-tee/optee_os/lib/libutee/tee_api_arith_mpi.c:29
    2148:	b508      	push	{r3, lr}
/mnt/disk/raspbian-tee/optee_os/lib/libutee/tee_api_arith_mpi.c:30
    214a:	4613      	mov	r3, r2
    214c:	460a      	mov	r2, r1
    214e:	4601      	mov	r1, r0
    2150:	4804      	ldr	r0, [pc, #16]	; (2164 <mpi_panic+0x1c>)
    2152:	4478      	add	r0, pc
    2154:	f7ff fadd 	bl	1712 <printf>
/mnt/disk/raspbian-tee/optee_os/lib/libutee/tee_api_arith_mpi.c:31
    2158:	4801      	ldr	r0, [pc, #4]	; (2160 <mpi_panic+0x18>)
    215a:	f004 fb9d 	bl	6898 <TEE_Panic>
    215e:	e7fe      	b.n	215e <mpi_panic+0x16>
    2160:	00b16127 	.word	0x00b16127
    2164:	00004eea 	.word	0x00004eea

00002168 <get_const_mpi>:
get_const_mpi():
/mnt/disk/raspbian-tee/optee_os/lib/libutee/tee_api_arith_mpi.c:110
    2168:	b530      	push	{r4, r5, lr}
init_static_mpi():
/mnt/disk/raspbian-tee/optee_os/lib/libutee/tee_api_arith_mpi.c:65
    216a:	3108      	adds	r1, #8
    216c:	f831 2c02 	ldrh.w	r2, [r1, #-2]
get_const_mpi():
/mnt/disk/raspbian-tee/optee_os/lib/libutee/tee_api_arith_mpi.c:110
    2170:	b087      	sub	sp, #28
init_static_mpi():
/mnt/disk/raspbian-tee/optee_os/lib/libutee/tee_api_arith_mpi.c:65
    2172:	f831 3c04 	ldrh.w	r3, [r1, #-4]
    2176:	ac03      	add	r4, sp, #12
get_const_mpi():
/mnt/disk/raspbian-tee/optee_os/lib/libutee/tee_api_arith_mpi.c:110
    2178:	4605      	mov	r5, r0
init_static_mpi():
/mnt/disk/raspbian-tee/optee_os/lib/libutee/tee_api_arith_mpi.c:65
    217a:	4620      	mov	r0, r4
    217c:	9200      	str	r2, [sp, #0]
    217e:	f851 2c08 	ldr.w	r2, [r1, #-8]
    2182:	f001 facf 	bl	3724 <mbedtls_mpi_init_static>
get_mpi():
/mnt/disk/raspbian-tee/optee_os/lib/libutee/tee_api_arith_mpi.c:99
    2186:	4628      	mov	r0, r5
    2188:	f001 fab9 	bl	36fe <mbedtls_mpi_init_mempool>
get_const_mpi():
/mnt/disk/raspbian-tee/optee_os/lib/libutee/tee_api_arith_mpi.c:115
    218c:	4621      	mov	r1, r4
    218e:	4628      	mov	r0, r5
    2190:	f001 fbb2 	bl	38f8 <mbedtls_mpi_copy>
    2194:	4602      	mov	r2, r0
    2196:	b120      	cbz	r0, 21a2 <get_const_mpi+0x3a>
/mnt/disk/raspbian-tee/optee_os/lib/libutee/tee_api_arith_mpi.c:115 (discriminator 1)
    2198:	4803      	ldr	r0, [pc, #12]	; (21a8 <get_const_mpi+0x40>)
    219a:	2173      	movs	r1, #115	; 0x73
    219c:	4478      	add	r0, pc
    219e:	f7ff ffd3 	bl	2148 <mpi_panic>
/mnt/disk/raspbian-tee/optee_os/lib/libutee/tee_api_arith_mpi.c:116
    21a2:	b007      	add	sp, #28
    21a4:	bd30      	pop	{r4, r5, pc}
    21a6:	bf00      	nop
    21a8:	00004d3d 	.word	0x00004d3d

000021ac <mpi_is_odd>:
mpi_is_odd():
/mnt/disk/raspbian-tee/optee_os/lib/libutee/tee_api_arith_mpi.c:599
    21ac:	b508      	push	{r3, lr}
/mnt/disk/raspbian-tee/optee_os/lib/libutee/tee_api_arith_mpi.c:600
    21ae:	2100      	movs	r1, #0
    21b0:	f001 fc79 	bl	3aa6 <mbedtls_mpi_get_bit>
/mnt/disk/raspbian-tee/optee_os/lib/libutee/tee_api_arith_mpi.c:601
    21b4:	3000      	adds	r0, #0
    21b6:	bf18      	it	ne
    21b8:	2001      	movne	r0, #1
    21ba:	bd08      	pop	{r3, pc}

000021bc <rng_read>:
rng_read():
/mnt/disk/raspbian-tee/optee_os/lib/libutee/tee_api_arith_mpi.c:763
    21bc:	b508      	push	{r3, lr}
    21be:	4608      	mov	r0, r1
/mnt/disk/raspbian-tee/optee_os/lib/libutee/tee_api_arith_mpi.c:764
    21c0:	4611      	mov	r1, r2
    21c2:	f7ff eec6 	blx	1f50 <utee_cryp_random_number_generate>
    21c6:	2800      	cmp	r0, #0
/mnt/disk/raspbian-tee/optee_os/lib/libutee/tee_api_arith_mpi.c:767
    21c8:	f06f 0001 	mvn.w	r0, #1
    21cc:	bf08      	it	eq
    21ce:	2000      	moveq	r0, #0
    21d0:	bd08      	pop	{r3, pc}

000021d2 <put_mpi>:
put_mpi():
/mnt/disk/raspbian-tee/optee_os/lib/libutee/tee_api_arith_mpi.c:128
    21d2:	7842      	ldrb	r2, [r0, #1]
    21d4:	2a02      	cmp	r2, #2
    21d6:	d108      	bne.n	21ea <put_mpi+0x18>
/mnt/disk/raspbian-tee/optee_os/lib/libutee/tee_api_arith_mpi.c:129
    21d8:	6882      	ldr	r2, [r0, #8]
/mnt/disk/raspbian-tee/optee_os/lib/libutee/tee_api_arith_mpi.c:131
    21da:	f990 1000 	ldrsb.w	r1, [r0]
/mnt/disk/raspbian-tee/optee_os/lib/libutee/tee_api_arith_mpi.c:132
    21de:	8883      	ldrh	r3, [r0, #4]
/mnt/disk/raspbian-tee/optee_os/lib/libutee/tee_api_arith_mpi.c:131
    21e0:	f842 1c08 	str.w	r1, [r2, #-8]
/mnt/disk/raspbian-tee/optee_os/lib/libutee/tee_api_arith_mpi.c:132
    21e4:	f822 3c02 	strh.w	r3, [r2, #-2]
    21e8:	4770      	bx	lr
/mnt/disk/raspbian-tee/optee_os/lib/libutee/tee_api_arith_mpi.c:134
    21ea:	f001 baa4 	b.w	3736 <mbedtls_mpi_free>

000021ee <mpi_egcd>:
mpi_egcd():
/mnt/disk/raspbian-tee/optee_os/lib/libutee/tee_api_arith_mpi.c:614
    21ee:	e92d 4ff0 	stmdb	sp!, {r4, r5, r6, r7, r8, r9, sl, fp, lr}
    21f2:	4681      	mov	r9, r0
    21f4:	b09b      	sub	sp, #108	; 0x6c
get_mpi():
/mnt/disk/raspbian-tee/optee_os/lib/libutee/tee_api_arith_mpi.c:99
    21f6:	f10d 0814 	add.w	r8, sp, #20
    21fa:	af08      	add	r7, sp, #32
    21fc:	4640      	mov	r0, r8
    21fe:	ad0b      	add	r5, sp, #44	; 0x2c
mpi_egcd():
/mnt/disk/raspbian-tee/optee_os/lib/libutee/tee_api_arith_mpi.c:614
    2200:	9102      	str	r1, [sp, #8]
get_mpi():
/mnt/disk/raspbian-tee/optee_os/lib/libutee/tee_api_arith_mpi.c:99
    2202:	ac0e      	add	r4, sp, #56	; 0x38
mpi_egcd():
/mnt/disk/raspbian-tee/optee_os/lib/libutee/tee_api_arith_mpi.c:614
    2204:	9203      	str	r2, [sp, #12]
get_mpi():
/mnt/disk/raspbian-tee/optee_os/lib/libutee/tee_api_arith_mpi.c:99
    2206:	f10d 0a44 	add.w	sl, sp, #68	; 0x44
mpi_egcd():
/mnt/disk/raspbian-tee/optee_os/lib/libutee/tee_api_arith_mpi.c:614
    220a:	9301      	str	r3, [sp, #4]
get_mpi():
/mnt/disk/raspbian-tee/optee_os/lib/libutee/tee_api_arith_mpi.c:99
    220c:	f001 fa77 	bl	36fe <mbedtls_mpi_init_mempool>
    2210:	4638      	mov	r0, r7
    2212:	f10d 0b50 	add.w	fp, sp, #80	; 0x50
    2216:	f001 fa72 	bl	36fe <mbedtls_mpi_init_mempool>
    221a:	4628      	mov	r0, r5
    221c:	f001 fa6f 	bl	36fe <mbedtls_mpi_init_mempool>
    2220:	4620      	mov	r0, r4
    2222:	f001 fa6c 	bl	36fe <mbedtls_mpi_init_mempool>
    2226:	4650      	mov	r0, sl
    2228:	f001 fa69 	bl	36fe <mbedtls_mpi_init_mempool>
    222c:	ae17      	add	r6, sp, #92	; 0x5c
    222e:	4658      	mov	r0, fp
    2230:	f001 fa65 	bl	36fe <mbedtls_mpi_init_mempool>
    2234:	4630      	mov	r0, r6
    2236:	f001 fa62 	bl	36fe <mbedtls_mpi_init_mempool>
mpi_egcd():
/mnt/disk/raspbian-tee/optee_os/lib/libutee/tee_api_arith_mpi.c:633
    223a:	2100      	movs	r1, #0
    223c:	9824      	ldr	r0, [sp, #144]	; 0x90
    223e:	f001 fe08 	bl	3e52 <mbedtls_mpi_cmp_int>
    2242:	bb20      	cbnz	r0, 228e <mpi_egcd+0xa0>
/mnt/disk/raspbian-tee/optee_os/lib/libutee/tee_api_arith_mpi.c:634
    2244:	2101      	movs	r1, #1
    2246:	9802      	ldr	r0, [sp, #8]
    2248:	f001 fc11 	bl	3a6e <mbedtls_mpi_lset>
    224c:	4602      	mov	r2, r0
    224e:	b130      	cbz	r0, 225e <mpi_egcd+0x70>
/mnt/disk/raspbian-tee/optee_os/lib/libutee/tee_api_arith_mpi.c:634 (discriminator 1)
    2250:	48dd      	ldr	r0, [pc, #884]	; (25c8 <mpi_egcd+0x3da>)
    2252:	f240 217a 	movw	r1, #634	; 0x27a
    2256:	4478      	add	r0, pc
/mnt/disk/raspbian-tee/optee_os/lib/libutee/tee_api_arith_mpi.c:635 (discriminator 1)
    2258:	300e      	adds	r0, #14
    225a:	f7ff ff75 	bl	2148 <mpi_panic>
/mnt/disk/raspbian-tee/optee_os/lib/libutee/tee_api_arith_mpi.c:635
    225e:	4601      	mov	r1, r0
    2260:	9803      	ldr	r0, [sp, #12]
    2262:	f001 fc04 	bl	3a6e <mbedtls_mpi_lset>
    2266:	4602      	mov	r2, r0
    2268:	b120      	cbz	r0, 2274 <mpi_egcd+0x86>
/mnt/disk/raspbian-tee/optee_os/lib/libutee/tee_api_arith_mpi.c:635 (discriminator 1)
    226a:	48d8      	ldr	r0, [pc, #864]	; (25cc <mpi_egcd+0x3de>)
    226c:	f240 217b 	movw	r1, #635	; 0x27b
    2270:	4478      	add	r0, pc
    2272:	e7f1      	b.n	2258 <mpi_egcd+0x6a>
/mnt/disk/raspbian-tee/optee_os/lib/libutee/tee_api_arith_mpi.c:636
    2274:	9901      	ldr	r1, [sp, #4]
    2276:	4648      	mov	r0, r9
    2278:	f001 fb3e 	bl	38f8 <mbedtls_mpi_copy>
    227c:	4602      	mov	r2, r0
    227e:	2800      	cmp	r0, #0
    2280:	f000 818a 	beq.w	2598 <mpi_egcd+0x3aa>
/mnt/disk/raspbian-tee/optee_os/lib/libutee/tee_api_arith_mpi.c:636 (discriminator 1)
    2284:	48d2      	ldr	r0, [pc, #840]	; (25d0 <mpi_egcd+0x3e2>)
    2286:	f44f 711f 	mov.w	r1, #636	; 0x27c
    228a:	4478      	add	r0, pc
    228c:	e7e4      	b.n	2258 <mpi_egcd+0x6a>
/mnt/disk/raspbian-tee/optee_os/lib/libutee/tee_api_arith_mpi.c:640
    228e:	9901      	ldr	r1, [sp, #4]
    2290:	4650      	mov	r0, sl
    2292:	f001 fb31 	bl	38f8 <mbedtls_mpi_copy>
    2296:	4602      	mov	r2, r0
    2298:	b120      	cbz	r0, 22a4 <mpi_egcd+0xb6>
/mnt/disk/raspbian-tee/optee_os/lib/libutee/tee_api_arith_mpi.c:640 (discriminator 1)
    229a:	48ce      	ldr	r0, [pc, #824]	; (25d4 <mpi_egcd+0x3e6>)
    229c:	f44f 7120 	mov.w	r1, #640	; 0x280
    22a0:	4478      	add	r0, pc
    22a2:	e7d9      	b.n	2258 <mpi_egcd+0x6a>
/mnt/disk/raspbian-tee/optee_os/lib/libutee/tee_api_arith_mpi.c:641
    22a4:	9924      	ldr	r1, [sp, #144]	; 0x90
    22a6:	4658      	mov	r0, fp
    22a8:	f001 fb26 	bl	38f8 <mbedtls_mpi_copy>
    22ac:	4602      	mov	r2, r0
    22ae:	b178      	cbz	r0, 22d0 <mpi_egcd+0xe2>
/mnt/disk/raspbian-tee/optee_os/lib/libutee/tee_api_arith_mpi.c:641 (discriminator 1)
    22b0:	48c9      	ldr	r0, [pc, #804]	; (25d8 <mpi_egcd+0x3ea>)
    22b2:	f240 2181 	movw	r1, #641	; 0x281
    22b6:	4478      	add	r0, pc
    22b8:	e7ce      	b.n	2258 <mpi_egcd+0x6a>
/mnt/disk/raspbian-tee/optee_os/lib/libutee/tee_api_arith_mpi.c:647
    22ba:	2101      	movs	r1, #1
    22bc:	4658      	mov	r0, fp
    22be:	f001 fd0a 	bl	3cd6 <mbedtls_mpi_shift_r>
    22c2:	4602      	mov	r2, r0
    22c4:	b128      	cbz	r0, 22d2 <mpi_egcd+0xe4>
/mnt/disk/raspbian-tee/optee_os/lib/libutee/tee_api_arith_mpi.c:647 (discriminator 1)
    22c6:	48c5      	ldr	r0, [pc, #788]	; (25dc <mpi_egcd+0x3ee>)
    22c8:	f240 2187 	movw	r1, #647	; 0x287
    22cc:	4478      	add	r0, pc
    22ce:	e7c3      	b.n	2258 <mpi_egcd+0x6a>
    22d0:	9001      	str	r0, [sp, #4]
mpi_is_even():
/mnt/disk/raspbian-tee/optee_os/lib/libutee/tee_api_arith_mpi.c:605
    22d2:	4650      	mov	r0, sl
    22d4:	f7ff ff6a 	bl	21ac <mpi_is_odd>
mpi_egcd():
/mnt/disk/raspbian-tee/optee_os/lib/libutee/tee_api_arith_mpi.c:644
    22d8:	b150      	cbz	r0, 22f0 <mpi_egcd+0x102>
/mnt/disk/raspbian-tee/optee_os/lib/libutee/tee_api_arith_mpi.c:650
    22da:	4651      	mov	r1, sl
    22dc:	4630      	mov	r0, r6
    22de:	f001 fb0b 	bl	38f8 <mbedtls_mpi_copy>
    22e2:	4602      	mov	r2, r0
    22e4:	b1c0      	cbz	r0, 2318 <mpi_egcd+0x12a>
/mnt/disk/raspbian-tee/optee_os/lib/libutee/tee_api_arith_mpi.c:650 (discriminator 1)
    22e6:	48be      	ldr	r0, [pc, #760]	; (25e0 <mpi_egcd+0x3f2>)
    22e8:	f240 218a 	movw	r1, #650	; 0x28a
    22ec:	4478      	add	r0, pc
    22ee:	e7b3      	b.n	2258 <mpi_egcd+0x6a>
mpi_is_even():
/mnt/disk/raspbian-tee/optee_os/lib/libutee/tee_api_arith_mpi.c:605
    22f0:	4658      	mov	r0, fp
    22f2:	f7ff ff5b 	bl	21ac <mpi_is_odd>
mpi_egcd():
/mnt/disk/raspbian-tee/optee_os/lib/libutee/tee_api_arith_mpi.c:644
    22f6:	2800      	cmp	r0, #0
    22f8:	d1ef      	bne.n	22da <mpi_egcd+0xec>
/mnt/disk/raspbian-tee/optee_os/lib/libutee/tee_api_arith_mpi.c:645
    22fa:	9b01      	ldr	r3, [sp, #4]
/mnt/disk/raspbian-tee/optee_os/lib/libutee/tee_api_arith_mpi.c:646
    22fc:	2101      	movs	r1, #1
    22fe:	4650      	mov	r0, sl
/mnt/disk/raspbian-tee/optee_os/lib/libutee/tee_api_arith_mpi.c:645
    2300:	3301      	adds	r3, #1
    2302:	9301      	str	r3, [sp, #4]
/mnt/disk/raspbian-tee/optee_os/lib/libutee/tee_api_arith_mpi.c:646
    2304:	f001 fce7 	bl	3cd6 <mbedtls_mpi_shift_r>
    2308:	4602      	mov	r2, r0
    230a:	2800      	cmp	r0, #0
    230c:	d0d5      	beq.n	22ba <mpi_egcd+0xcc>
/mnt/disk/raspbian-tee/optee_os/lib/libutee/tee_api_arith_mpi.c:646 (discriminator 1)
    230e:	48b5      	ldr	r0, [pc, #724]	; (25e4 <mpi_egcd+0x3f6>)
    2310:	f240 2186 	movw	r1, #646	; 0x286
    2314:	4478      	add	r0, pc
    2316:	e79f      	b.n	2258 <mpi_egcd+0x6a>
/mnt/disk/raspbian-tee/optee_os/lib/libutee/tee_api_arith_mpi.c:651
    2318:	4659      	mov	r1, fp
    231a:	4648      	mov	r0, r9
    231c:	f001 faec 	bl	38f8 <mbedtls_mpi_copy>
    2320:	4602      	mov	r2, r0
    2322:	b120      	cbz	r0, 232e <mpi_egcd+0x140>
/mnt/disk/raspbian-tee/optee_os/lib/libutee/tee_api_arith_mpi.c:651 (discriminator 1)
    2324:	48b0      	ldr	r0, [pc, #704]	; (25e8 <mpi_egcd+0x3fa>)
    2326:	f240 218b 	movw	r1, #651	; 0x28b
    232a:	4478      	add	r0, pc
    232c:	e794      	b.n	2258 <mpi_egcd+0x6a>
/mnt/disk/raspbian-tee/optee_os/lib/libutee/tee_api_arith_mpi.c:652
    232e:	2101      	movs	r1, #1
    2330:	4640      	mov	r0, r8
    2332:	f001 fb9c 	bl	3a6e <mbedtls_mpi_lset>
    2336:	4602      	mov	r2, r0
    2338:	b120      	cbz	r0, 2344 <mpi_egcd+0x156>
/mnt/disk/raspbian-tee/optee_os/lib/libutee/tee_api_arith_mpi.c:652 (discriminator 1)
    233a:	48ac      	ldr	r0, [pc, #688]	; (25ec <mpi_egcd+0x3fe>)
    233c:	f44f 7123 	mov.w	r1, #652	; 0x28c
    2340:	4478      	add	r0, pc
    2342:	e789      	b.n	2258 <mpi_egcd+0x6a>
/mnt/disk/raspbian-tee/optee_os/lib/libutee/tee_api_arith_mpi.c:653
    2344:	4601      	mov	r1, r0
    2346:	4638      	mov	r0, r7
    2348:	f001 fb91 	bl	3a6e <mbedtls_mpi_lset>
    234c:	4602      	mov	r2, r0
    234e:	b120      	cbz	r0, 235a <mpi_egcd+0x16c>
/mnt/disk/raspbian-tee/optee_os/lib/libutee/tee_api_arith_mpi.c:653 (discriminator 1)
    2350:	48a7      	ldr	r0, [pc, #668]	; (25f0 <mpi_egcd+0x402>)
    2352:	f240 218d 	movw	r1, #653	; 0x28d
    2356:	4478      	add	r0, pc
    2358:	e77e      	b.n	2258 <mpi_egcd+0x6a>
/mnt/disk/raspbian-tee/optee_os/lib/libutee/tee_api_arith_mpi.c:654
    235a:	4601      	mov	r1, r0
    235c:	4628      	mov	r0, r5
    235e:	f001 fb86 	bl	3a6e <mbedtls_mpi_lset>
    2362:	4602      	mov	r2, r0
    2364:	b120      	cbz	r0, 2370 <mpi_egcd+0x182>
/mnt/disk/raspbian-tee/optee_os/lib/libutee/tee_api_arith_mpi.c:654 (discriminator 1)
    2366:	48a3      	ldr	r0, [pc, #652]	; (25f4 <mpi_egcd+0x406>)
    2368:	f240 218e 	movw	r1, #654	; 0x28e
    236c:	4478      	add	r0, pc
    236e:	e773      	b.n	2258 <mpi_egcd+0x6a>
/mnt/disk/raspbian-tee/optee_os/lib/libutee/tee_api_arith_mpi.c:655
    2370:	2101      	movs	r1, #1
    2372:	4620      	mov	r0, r4
    2374:	f001 fb7b 	bl	3a6e <mbedtls_mpi_lset>
    2378:	4602      	mov	r2, r0
    237a:	2800      	cmp	r0, #0
    237c:	f000 80e4 	beq.w	2548 <mpi_egcd+0x35a>
/mnt/disk/raspbian-tee/optee_os/lib/libutee/tee_api_arith_mpi.c:655 (discriminator 1)
    2380:	489d      	ldr	r0, [pc, #628]	; (25f8 <mpi_egcd+0x40a>)
    2382:	f240 218f 	movw	r1, #655	; 0x28f
    2386:	4478      	add	r0, pc
    2388:	e766      	b.n	2258 <mpi_egcd+0x6a>
/mnt/disk/raspbian-tee/optee_os/lib/libutee/tee_api_arith_mpi.c:659
    238a:	2101      	movs	r1, #1
    238c:	4630      	mov	r0, r6
    238e:	f001 fca2 	bl	3cd6 <mbedtls_mpi_shift_r>
    2392:	4602      	mov	r2, r0
    2394:	b120      	cbz	r0, 23a0 <mpi_egcd+0x1b2>
/mnt/disk/raspbian-tee/optee_os/lib/libutee/tee_api_arith_mpi.c:659 (discriminator 1)
    2396:	4899      	ldr	r0, [pc, #612]	; (25fc <mpi_egcd+0x40e>)
    2398:	f240 2193 	movw	r1, #659	; 0x293
    239c:	4478      	add	r0, pc
    239e:	e75b      	b.n	2258 <mpi_egcd+0x6a>
/mnt/disk/raspbian-tee/optee_os/lib/libutee/tee_api_arith_mpi.c:660
    23a0:	4640      	mov	r0, r8
    23a2:	f7ff ff03 	bl	21ac <mpi_is_odd>
    23a6:	b158      	cbz	r0, 23c0 <mpi_egcd+0x1d2>
/mnt/disk/raspbian-tee/optee_os/lib/libutee/tee_api_arith_mpi.c:661
    23a8:	465a      	mov	r2, fp
    23aa:	4641      	mov	r1, r8
    23ac:	4640      	mov	r0, r8
    23ae:	f001 fe06 	bl	3fbe <mbedtls_mpi_add_mpi>
    23b2:	4602      	mov	r2, r0
    23b4:	b1a0      	cbz	r0, 23e0 <mpi_egcd+0x1f2>
/mnt/disk/raspbian-tee/optee_os/lib/libutee/tee_api_arith_mpi.c:661 (discriminator 1)
    23b6:	4892      	ldr	r0, [pc, #584]	; (2600 <mpi_egcd+0x412>)
    23b8:	f240 2195 	movw	r1, #661	; 0x295
    23bc:	4478      	add	r0, pc
    23be:	e74b      	b.n	2258 <mpi_egcd+0x6a>
/mnt/disk/raspbian-tee/optee_os/lib/libutee/tee_api_arith_mpi.c:660 (discriminator 1)
    23c0:	4638      	mov	r0, r7
    23c2:	f7ff fef3 	bl	21ac <mpi_is_odd>
    23c6:	2800      	cmp	r0, #0
    23c8:	d1ee      	bne.n	23a8 <mpi_egcd+0x1ba>
/mnt/disk/raspbian-tee/optee_os/lib/libutee/tee_api_arith_mpi.c:664
    23ca:	2101      	movs	r1, #1
    23cc:	4640      	mov	r0, r8
    23ce:	f001 fc82 	bl	3cd6 <mbedtls_mpi_shift_r>
    23d2:	4602      	mov	r2, r0
    23d4:	b188      	cbz	r0, 23fa <mpi_egcd+0x20c>
/mnt/disk/raspbian-tee/optee_os/lib/libutee/tee_api_arith_mpi.c:664 (discriminator 1)
    23d6:	488b      	ldr	r0, [pc, #556]	; (2604 <mpi_egcd+0x416>)
    23d8:	f44f 7126 	mov.w	r1, #664	; 0x298
    23dc:	4478      	add	r0, pc
    23de:	e73b      	b.n	2258 <mpi_egcd+0x6a>
/mnt/disk/raspbian-tee/optee_os/lib/libutee/tee_api_arith_mpi.c:662
    23e0:	4652      	mov	r2, sl
    23e2:	4639      	mov	r1, r7
    23e4:	4638      	mov	r0, r7
    23e6:	f001 fe0e 	bl	4006 <mbedtls_mpi_sub_mpi>
    23ea:	4602      	mov	r2, r0
    23ec:	2800      	cmp	r0, #0
    23ee:	d0ec      	beq.n	23ca <mpi_egcd+0x1dc>
/mnt/disk/raspbian-tee/optee_os/lib/libutee/tee_api_arith_mpi.c:662 (discriminator 1)
    23f0:	4885      	ldr	r0, [pc, #532]	; (2608 <mpi_egcd+0x41a>)
    23f2:	f240 2196 	movw	r1, #662	; 0x296
    23f6:	4478      	add	r0, pc
    23f8:	e72e      	b.n	2258 <mpi_egcd+0x6a>
/mnt/disk/raspbian-tee/optee_os/lib/libutee/tee_api_arith_mpi.c:665
    23fa:	2101      	movs	r1, #1
    23fc:	4638      	mov	r0, r7
    23fe:	f001 fc6a 	bl	3cd6 <mbedtls_mpi_shift_r>
    2402:	4602      	mov	r2, r0
    2404:	b120      	cbz	r0, 2410 <mpi_egcd+0x222>
/mnt/disk/raspbian-tee/optee_os/lib/libutee/tee_api_arith_mpi.c:665 (discriminator 1)
    2406:	4881      	ldr	r0, [pc, #516]	; (260c <mpi_egcd+0x41e>)
    2408:	f240 2199 	movw	r1, #665	; 0x299
    240c:	4478      	add	r0, pc
    240e:	e723      	b.n	2258 <mpi_egcd+0x6a>
mpi_is_even():
/mnt/disk/raspbian-tee/optee_os/lib/libutee/tee_api_arith_mpi.c:605
    2410:	4630      	mov	r0, r6
    2412:	f7ff fecb 	bl	21ac <mpi_is_odd>
mpi_egcd():
/mnt/disk/raspbian-tee/optee_os/lib/libutee/tee_api_arith_mpi.c:658
    2416:	2800      	cmp	r0, #0
    2418:	d0b7      	beq.n	238a <mpi_egcd+0x19c>
mpi_is_even():
/mnt/disk/raspbian-tee/optee_os/lib/libutee/tee_api_arith_mpi.c:605
    241a:	4648      	mov	r0, r9
    241c:	f7ff fec6 	bl	21ac <mpi_is_odd>
mpi_egcd():
/mnt/disk/raspbian-tee/optee_os/lib/libutee/tee_api_arith_mpi.c:668
    2420:	b190      	cbz	r0, 2448 <mpi_egcd+0x25a>
/mnt/disk/raspbian-tee/optee_os/lib/libutee/tee_api_arith_mpi.c:679
    2422:	4649      	mov	r1, r9
    2424:	4630      	mov	r0, r6
    2426:	f001 fcc9 	bl	3dbc <mbedtls_mpi_cmp_mpi>
    242a:	2800      	cmp	r0, #0
    242c:	db68      	blt.n	2500 <mpi_egcd+0x312>
/mnt/disk/raspbian-tee/optee_os/lib/libutee/tee_api_arith_mpi.c:680
    242e:	464a      	mov	r2, r9
    2430:	4631      	mov	r1, r6
    2432:	4630      	mov	r0, r6
    2434:	f001 fde7 	bl	4006 <mbedtls_mpi_sub_mpi>
    2438:	4602      	mov	r2, r0
    243a:	2800      	cmp	r0, #0
    243c:	d048      	beq.n	24d0 <mpi_egcd+0x2e2>
/mnt/disk/raspbian-tee/optee_os/lib/libutee/tee_api_arith_mpi.c:680 (discriminator 1)
    243e:	4874      	ldr	r0, [pc, #464]	; (2610 <mpi_egcd+0x422>)
    2440:	f44f 712a 	mov.w	r1, #680	; 0x2a8
    2444:	4478      	add	r0, pc
    2446:	e707      	b.n	2258 <mpi_egcd+0x6a>
/mnt/disk/raspbian-tee/optee_os/lib/libutee/tee_api_arith_mpi.c:669
    2448:	2101      	movs	r1, #1
    244a:	4648      	mov	r0, r9
    244c:	f001 fc43 	bl	3cd6 <mbedtls_mpi_shift_r>
    2450:	4602      	mov	r2, r0
    2452:	b120      	cbz	r0, 245e <mpi_egcd+0x270>
/mnt/disk/raspbian-tee/optee_os/lib/libutee/tee_api_arith_mpi.c:669 (discriminator 1)
    2454:	486f      	ldr	r0, [pc, #444]	; (2614 <mpi_egcd+0x426>)
    2456:	f240 219d 	movw	r1, #669	; 0x29d
    245a:	4478      	add	r0, pc
    245c:	e6fc      	b.n	2258 <mpi_egcd+0x6a>
/mnt/disk/raspbian-tee/optee_os/lib/libutee/tee_api_arith_mpi.c:670
    245e:	4628      	mov	r0, r5
    2460:	f7ff fea4 	bl	21ac <mpi_is_odd>
    2464:	b158      	cbz	r0, 247e <mpi_egcd+0x290>
/mnt/disk/raspbian-tee/optee_os/lib/libutee/tee_api_arith_mpi.c:671
    2466:	465a      	mov	r2, fp
    2468:	4629      	mov	r1, r5
    246a:	4628      	mov	r0, r5
    246c:	f001 fda7 	bl	3fbe <mbedtls_mpi_add_mpi>
    2470:	4602      	mov	r2, r0
    2472:	b1a0      	cbz	r0, 249e <mpi_egcd+0x2b0>
/mnt/disk/raspbian-tee/optee_os/lib/libutee/tee_api_arith_mpi.c:671 (discriminator 1)
    2474:	4868      	ldr	r0, [pc, #416]	; (2618 <mpi_egcd+0x42a>)
    2476:	f240 219f 	movw	r1, #671	; 0x29f
    247a:	4478      	add	r0, pc
    247c:	e6ec      	b.n	2258 <mpi_egcd+0x6a>
/mnt/disk/raspbian-tee/optee_os/lib/libutee/tee_api_arith_mpi.c:670 (discriminator 1)
    247e:	4620      	mov	r0, r4
    2480:	f7ff fe94 	bl	21ac <mpi_is_odd>
    2484:	2800      	cmp	r0, #0
    2486:	d1ee      	bne.n	2466 <mpi_egcd+0x278>
/mnt/disk/raspbian-tee/optee_os/lib/libutee/tee_api_arith_mpi.c:674
    2488:	2101      	movs	r1, #1
    248a:	4628      	mov	r0, r5
    248c:	f001 fc23 	bl	3cd6 <mbedtls_mpi_shift_r>
    2490:	4602      	mov	r2, r0
    2492:	b188      	cbz	r0, 24b8 <mpi_egcd+0x2ca>
/mnt/disk/raspbian-tee/optee_os/lib/libutee/tee_api_arith_mpi.c:674 (discriminator 1)
    2494:	4861      	ldr	r0, [pc, #388]	; (261c <mpi_egcd+0x42e>)
    2496:	f240 21a2 	movw	r1, #674	; 0x2a2
    249a:	4478      	add	r0, pc
    249c:	e6dc      	b.n	2258 <mpi_egcd+0x6a>
/mnt/disk/raspbian-tee/optee_os/lib/libutee/tee_api_arith_mpi.c:672
    249e:	4652      	mov	r2, sl
    24a0:	4621      	mov	r1, r4
    24a2:	4620      	mov	r0, r4
    24a4:	f001 fdaf 	bl	4006 <mbedtls_mpi_sub_mpi>
    24a8:	4602      	mov	r2, r0
    24aa:	2800      	cmp	r0, #0
    24ac:	d0ec      	beq.n	2488 <mpi_egcd+0x29a>
/mnt/disk/raspbian-tee/optee_os/lib/libutee/tee_api_arith_mpi.c:672 (discriminator 1)
    24ae:	485c      	ldr	r0, [pc, #368]	; (2620 <mpi_egcd+0x432>)
    24b0:	f44f 7128 	mov.w	r1, #672	; 0x2a0
    24b4:	4478      	add	r0, pc
    24b6:	e6cf      	b.n	2258 <mpi_egcd+0x6a>
/mnt/disk/raspbian-tee/optee_os/lib/libutee/tee_api_arith_mpi.c:675
    24b8:	2101      	movs	r1, #1
    24ba:	4620      	mov	r0, r4
    24bc:	f001 fc0b 	bl	3cd6 <mbedtls_mpi_shift_r>
    24c0:	4602      	mov	r2, r0
    24c2:	2800      	cmp	r0, #0
    24c4:	d0a9      	beq.n	241a <mpi_egcd+0x22c>
/mnt/disk/raspbian-tee/optee_os/lib/libutee/tee_api_arith_mpi.c:675 (discriminator 1)
    24c6:	4857      	ldr	r0, [pc, #348]	; (2624 <mpi_egcd+0x436>)
    24c8:	f240 21a3 	movw	r1, #675	; 0x2a3
    24cc:	4478      	add	r0, pc
    24ce:	e6c3      	b.n	2258 <mpi_egcd+0x6a>
/mnt/disk/raspbian-tee/optee_os/lib/libutee/tee_api_arith_mpi.c:681
    24d0:	462a      	mov	r2, r5
    24d2:	4641      	mov	r1, r8
    24d4:	4640      	mov	r0, r8
    24d6:	f001 fd96 	bl	4006 <mbedtls_mpi_sub_mpi>
    24da:	4602      	mov	r2, r0
    24dc:	b120      	cbz	r0, 24e8 <mpi_egcd+0x2fa>
/mnt/disk/raspbian-tee/optee_os/lib/libutee/tee_api_arith_mpi.c:681 (discriminator 1)
    24de:	4852      	ldr	r0, [pc, #328]	; (2628 <mpi_egcd+0x43a>)
    24e0:	f240 21a9 	movw	r1, #681	; 0x2a9
    24e4:	4478      	add	r0, pc
    24e6:	e6b7      	b.n	2258 <mpi_egcd+0x6a>
/mnt/disk/raspbian-tee/optee_os/lib/libutee/tee_api_arith_mpi.c:682
    24e8:	4622      	mov	r2, r4
    24ea:	4639      	mov	r1, r7
    24ec:	4638      	mov	r0, r7
    24ee:	f001 fd8a 	bl	4006 <mbedtls_mpi_sub_mpi>
    24f2:	4602      	mov	r2, r0
    24f4:	b340      	cbz	r0, 2548 <mpi_egcd+0x35a>
/mnt/disk/raspbian-tee/optee_os/lib/libutee/tee_api_arith_mpi.c:682 (discriminator 1)
    24f6:	484d      	ldr	r0, [pc, #308]	; (262c <mpi_egcd+0x43e>)
    24f8:	f240 21aa 	movw	r1, #682	; 0x2aa
    24fc:	4478      	add	r0, pc
    24fe:	e6ab      	b.n	2258 <mpi_egcd+0x6a>
/mnt/disk/raspbian-tee/optee_os/lib/libutee/tee_api_arith_mpi.c:684
    2500:	4632      	mov	r2, r6
    2502:	4649      	mov	r1, r9
    2504:	4648      	mov	r0, r9
    2506:	f001 fd7e 	bl	4006 <mbedtls_mpi_sub_mpi>
    250a:	4602      	mov	r2, r0
    250c:	b120      	cbz	r0, 2518 <mpi_egcd+0x32a>
/mnt/disk/raspbian-tee/optee_os/lib/libutee/tee_api_arith_mpi.c:684 (discriminator 1)
    250e:	4848      	ldr	r0, [pc, #288]	; (2630 <mpi_egcd+0x442>)
    2510:	f44f 712b 	mov.w	r1, #684	; 0x2ac
    2514:	4478      	add	r0, pc
    2516:	e69f      	b.n	2258 <mpi_egcd+0x6a>
/mnt/disk/raspbian-tee/optee_os/lib/libutee/tee_api_arith_mpi.c:685
    2518:	4642      	mov	r2, r8
    251a:	4629      	mov	r1, r5
    251c:	4628      	mov	r0, r5
    251e:	f001 fd72 	bl	4006 <mbedtls_mpi_sub_mpi>
    2522:	4602      	mov	r2, r0
    2524:	b120      	cbz	r0, 2530 <mpi_egcd+0x342>
/mnt/disk/raspbian-tee/optee_os/lib/libutee/tee_api_arith_mpi.c:685 (discriminator 1)
    2526:	4843      	ldr	r0, [pc, #268]	; (2634 <mpi_egcd+0x446>)
    2528:	f240 21ad 	movw	r1, #685	; 0x2ad
    252c:	4478      	add	r0, pc
    252e:	e693      	b.n	2258 <mpi_egcd+0x6a>
/mnt/disk/raspbian-tee/optee_os/lib/libutee/tee_api_arith_mpi.c:686
    2530:	463a      	mov	r2, r7
    2532:	4621      	mov	r1, r4
    2534:	4620      	mov	r0, r4
    2536:	f001 fd66 	bl	4006 <mbedtls_mpi_sub_mpi>
    253a:	4602      	mov	r2, r0
    253c:	b120      	cbz	r0, 2548 <mpi_egcd+0x35a>
/mnt/disk/raspbian-tee/optee_os/lib/libutee/tee_api_arith_mpi.c:686 (discriminator 1)
    253e:	483e      	ldr	r0, [pc, #248]	; (2638 <mpi_egcd+0x44a>)
    2540:	f240 21ae 	movw	r1, #686	; 0x2ae
    2544:	4478      	add	r0, pc
    2546:	e687      	b.n	2258 <mpi_egcd+0x6a>
/mnt/disk/raspbian-tee/optee_os/lib/libutee/tee_api_arith_mpi.c:657
    2548:	2100      	movs	r1, #0
    254a:	4630      	mov	r0, r6
    254c:	f001 fc81 	bl	3e52 <mbedtls_mpi_cmp_int>
    2550:	2800      	cmp	r0, #0
    2552:	f47f af5d 	bne.w	2410 <mpi_egcd+0x222>
/mnt/disk/raspbian-tee/optee_os/lib/libutee/tee_api_arith_mpi.c:690
    2556:	4629      	mov	r1, r5
    2558:	9802      	ldr	r0, [sp, #8]
    255a:	f001 f9cd 	bl	38f8 <mbedtls_mpi_copy>
    255e:	4602      	mov	r2, r0
    2560:	b120      	cbz	r0, 256c <mpi_egcd+0x37e>
/mnt/disk/raspbian-tee/optee_os/lib/libutee/tee_api_arith_mpi.c:690 (discriminator 1)
    2562:	4836      	ldr	r0, [pc, #216]	; (263c <mpi_egcd+0x44e>)
    2564:	f240 21b2 	movw	r1, #690	; 0x2b2
    2568:	4478      	add	r0, pc
    256a:	e675      	b.n	2258 <mpi_egcd+0x6a>
/mnt/disk/raspbian-tee/optee_os/lib/libutee/tee_api_arith_mpi.c:691
    256c:	4621      	mov	r1, r4
    256e:	9803      	ldr	r0, [sp, #12]
    2570:	f001 f9c2 	bl	38f8 <mbedtls_mpi_copy>
    2574:	4602      	mov	r2, r0
    2576:	b120      	cbz	r0, 2582 <mpi_egcd+0x394>
/mnt/disk/raspbian-tee/optee_os/lib/libutee/tee_api_arith_mpi.c:691 (discriminator 1)
    2578:	4831      	ldr	r0, [pc, #196]	; (2640 <mpi_egcd+0x452>)
    257a:	f240 21b3 	movw	r1, #691	; 0x2b3
    257e:	4478      	add	r0, pc
    2580:	e66a      	b.n	2258 <mpi_egcd+0x6a>
/mnt/disk/raspbian-tee/optee_os/lib/libutee/tee_api_arith_mpi.c:692
    2582:	9901      	ldr	r1, [sp, #4]
    2584:	4648      	mov	r0, r9
    2586:	f001 fb5a 	bl	3c3e <mbedtls_mpi_shift_l>
    258a:	4602      	mov	r2, r0
    258c:	b120      	cbz	r0, 2598 <mpi_egcd+0x3aa>
/mnt/disk/raspbian-tee/optee_os/lib/libutee/tee_api_arith_mpi.c:692 (discriminator 1)
    258e:	482d      	ldr	r0, [pc, #180]	; (2644 <mpi_egcd+0x456>)
    2590:	f44f 712d 	mov.w	r1, #692	; 0x2b4
    2594:	4478      	add	r0, pc
    2596:	e65f      	b.n	2258 <mpi_egcd+0x6a>
/mnt/disk/raspbian-tee/optee_os/lib/libutee/tee_api_arith_mpi.c:695
    2598:	4640      	mov	r0, r8
    259a:	f7ff fe1a 	bl	21d2 <put_mpi>
/mnt/disk/raspbian-tee/optee_os/lib/libutee/tee_api_arith_mpi.c:696
    259e:	4638      	mov	r0, r7
    25a0:	f7ff fe17 	bl	21d2 <put_mpi>
/mnt/disk/raspbian-tee/optee_os/lib/libutee/tee_api_arith_mpi.c:697
    25a4:	4628      	mov	r0, r5
    25a6:	f7ff fe14 	bl	21d2 <put_mpi>
/mnt/disk/raspbian-tee/optee_os/lib/libutee/tee_api_arith_mpi.c:698
    25aa:	4620      	mov	r0, r4
    25ac:	f7ff fe11 	bl	21d2 <put_mpi>
/mnt/disk/raspbian-tee/optee_os/lib/libutee/tee_api_arith_mpi.c:699
    25b0:	4650      	mov	r0, sl
    25b2:	f7ff fe0e 	bl	21d2 <put_mpi>
/mnt/disk/raspbian-tee/optee_os/lib/libutee/tee_api_arith_mpi.c:700
    25b6:	4658      	mov	r0, fp
    25b8:	f7ff fe0b 	bl	21d2 <put_mpi>
/mnt/disk/raspbian-tee/optee_os/lib/libutee/tee_api_arith_mpi.c:701
    25bc:	4630      	mov	r0, r6
    25be:	f7ff fe08 	bl	21d2 <put_mpi>
/mnt/disk/raspbian-tee/optee_os/lib/libutee/tee_api_arith_mpi.c:702
    25c2:	b01b      	add	sp, #108	; 0x6c
    25c4:	e8bd 8ff0 	ldmia.w	sp!, {r4, r5, r6, r7, r8, r9, sl, fp, pc}
    25c8:	00004c83 	.word	0x00004c83
    25cc:	00004c69 	.word	0x00004c69
    25d0:	00004c4f 	.word	0x00004c4f
    25d4:	00004c39 	.word	0x00004c39
    25d8:	00004c23 	.word	0x00004c23
    25dc:	00004c0d 	.word	0x00004c0d
    25e0:	00004bed 	.word	0x00004bed
    25e4:	00004bc5 	.word	0x00004bc5
    25e8:	00004baf 	.word	0x00004baf
    25ec:	00004b99 	.word	0x00004b99
    25f0:	00004b83 	.word	0x00004b83
    25f4:	00004b6d 	.word	0x00004b6d
    25f8:	00004b53 	.word	0x00004b53
    25fc:	00004b3d 	.word	0x00004b3d
    2600:	00004b1d 	.word	0x00004b1d
    2604:	00004afd 	.word	0x00004afd
    2608:	00004ae3 	.word	0x00004ae3
    260c:	00004acd 	.word	0x00004acd
    2610:	00004a95 	.word	0x00004a95
    2614:	00004a7f 	.word	0x00004a7f
    2618:	00004a5f 	.word	0x00004a5f
    261c:	00004a3f 	.word	0x00004a3f
    2620:	00004a25 	.word	0x00004a25
    2624:	00004a0d 	.word	0x00004a0d
    2628:	000049f5 	.word	0x000049f5
    262c:	000049dd 	.word	0x000049dd
    2630:	000049c5 	.word	0x000049c5
    2634:	000049ad 	.word	0x000049ad
    2638:	00004995 	.word	0x00004995
    263c:	00004971 	.word	0x00004971
    2640:	0000495b 	.word	0x0000495b
    2644:	00004945 	.word	0x00004945

00002648 <get_mpi>:
get_mpi():
/mnt/disk/raspbian-tee/optee_os/lib/libutee/tee_api_arith_mpi.c:81
    2648:	b507      	push	{r0, r1, r2, lr}
/mnt/disk/raspbian-tee/optee_os/lib/libutee/tee_api_arith_mpi.c:96
    264a:	b151      	cbz	r1, 2662 <get_mpi+0x1a>
init_static_mpi():
/mnt/disk/raspbian-tee/optee_os/lib/libutee/tee_api_arith_mpi.c:65
    264c:	88ca      	ldrh	r2, [r1, #6]
    264e:	888b      	ldrh	r3, [r1, #4]
    2650:	3108      	adds	r1, #8
    2652:	9200      	str	r2, [sp, #0]
    2654:	f851 2c08 	ldr.w	r2, [r1, #-8]
    2658:	f001 f864 	bl	3724 <mbedtls_mpi_init_static>
get_mpi():
/mnt/disk/raspbian-tee/optee_os/lib/libutee/tee_api_arith_mpi.c:100
    265c:	b003      	add	sp, #12
    265e:	f85d fb04 	ldr.w	pc, [sp], #4
    2662:	b003      	add	sp, #12
    2664:	f85d eb04 	ldr.w	lr, [sp], #4
/mnt/disk/raspbian-tee/optee_os/lib/libutee/tee_api_arith_mpi.c:99
    2668:	f001 b849 	b.w	36fe <mbedtls_mpi_init_mempool>

0000266c <bigint_binary>:
bigint_binary():
/mnt/disk/raspbian-tee/optee_os/lib/libutee/tee_api_arith_mpi.c:336
    266c:	e92d 47f0 	stmdb	sp!, {r4, r5, r6, r7, r8, r9, sl, lr}
    2670:	4607      	mov	r7, r0
    2672:	4689      	mov	r9, r1
    2674:	b08a      	sub	sp, #40	; 0x28
/mnt/disk/raspbian-tee/optee_os/lib/libutee/tee_api_arith_mpi.c:343
    2676:	4601      	mov	r1, r0
    2678:	ae01      	add	r6, sp, #4
/mnt/disk/raspbian-tee/optee_os/lib/libutee/tee_api_arith_mpi.c:336
    267a:	4614      	mov	r4, r2
/mnt/disk/raspbian-tee/optee_os/lib/libutee/tee_api_arith_mpi.c:343
    267c:	4630      	mov	r0, r6
