
b9aa5f00-d229-11e4-925c0002a5d5c51b.elf:     file format elf32-littlearm
b9aa5f00-d229-11e4-925c0002a5d5c51b.elf
architecture: arm, flags 0x00000150:
HAS_SYMS, DYNAMIC, D_PAGED
start address 0x00000020

Program Header:
0x70000001 off    0x00017454 vaddr 0x00007454 paddr 0x00007454 align 2**2
         filesz 0x00000500 memsz 0x00000500 flags r--
    LOAD off    0x00010000 vaddr 0x00000000 paddr 0x00000000 align 2**16
         filesz 0x00006178 memsz 0x00006178 flags r-x
    LOAD off    0x00016178 vaddr 0x00006178 paddr 0x00006178 align 2**16
         filesz 0x00001b80 memsz 0x00001b80 flags r--
    LOAD off    0x00018000 vaddr 0x00008000 paddr 0x00008000 align 2**16
         filesz 0x0000017c memsz 0x0000a520 flags rw-
 DYNAMIC off    0x00017ac0 vaddr 0x00007ac0 paddr 0x00007ac0 align 2**2
         filesz 0x00000080 memsz 0x00000080 flags rw-

Dynamic Section:
  HASH                 0x00007cb0
  STRTAB               0x00007c10
  SYMTAB               0x00007b40
  STRSZ                0x0000009f
  SYMENT               0x00000010
  DEBUG                0x00000000
  REL                  0x00007988
  RELSZ                0x00000138
  RELENT               0x00000008
  FLAGS_1              0x08000000
  RELCOUNT             0x0000001d
private flags = 5000400: [Version5 EABI] [hard-float ABI]

Sections:
Idx Name          Size      VMA       LMA       File off  Algn
  0 .ta_head      00000020  00000000  00000000  00010000  2**3
                  CONTENTS, ALLOC, LOAD, DATA
  1 .text         00006158  00000020  00000020  00010020  2**3
                  CONTENTS, ALLOC, LOAD, READONLY, CODE
  2 .rodata       000011d4  00006178  00006178  00016178  2**2
                  CONTENTS, ALLOC, LOAD, READONLY, DATA
  3 .ARM.extab    000000d8  0000734c  0000734c  0001734c  2**2
                  CONTENTS, ALLOC, LOAD, READONLY, DATA
  4 .ARM.extab.text.__aeabi_ldivmod 0000000c  00007424  00007424  00017424  2**2
                  CONTENTS, ALLOC, LOAD, READONLY, DATA
  5 .ARM.extab.text.__aeabi_uldivmod 0000000c  00007430  00007430  00017430  2**2
                  CONTENTS, ALLOC, LOAD, READONLY, DATA
  6 .ARM.extab.text.utee_panic 0000000c  0000743c  0000743c  0001743c  2**2
                  CONTENTS, ALLOC, LOAD, READONLY, DATA
  7 .ARM.extab.text.unlikely 0000000c  00007448  00007448  00017448  2**2
                  CONTENTS, ALLOC, LOAD, READONLY, DATA
  8 .ARM.exidx    00000500  00007454  00007454  00017454  2**2
                  CONTENTS, ALLOC, LOAD, READONLY, DATA
  9 .got          00000034  00007954  00007954  00017954  2**2
                  CONTENTS, ALLOC, LOAD, DATA
 10 .dynsym       000000d0  00007b40  00007b40  00017b40  2**2
                  CONTENTS, ALLOC, LOAD, READONLY, DATA
 11 .rel.got      00000050  00007a70  00007a70  00017a70  2**2
                  CONTENTS, ALLOC, LOAD, READONLY, DATA
 12 .dynamic      00000080  00007ac0  00007ac0  00017ac0  2**2
                  CONTENTS, ALLOC, LOAD, DATA
 13 .dynstr       0000009f  00007c10  00007c10  00017c10  2**0
                  CONTENTS, ALLOC, LOAD, READONLY, DATA
 14 .hash         00000048  00007cb0  00007cb0  00017cb0  2**2
                  CONTENTS, ALLOC, LOAD, READONLY, DATA
 15 .data         0000017c  00008000  00008000  00018000  2**2
                  CONTENTS, ALLOC, LOAD, DATA
 16 .bss          0000a3a0  00008180  00008180  0001817c  2**3
                  ALLOC
 17 .debug_info   0000e04e  00000000  00000000  0001817c  2**0
                  CONTENTS, READONLY, DEBUGGING
 18 .debug_abbrev 00002894  00000000  00000000  000261ca  2**0
                  CONTENTS, READONLY, DEBUGGING
 19 .debug_loc    0000d666  00000000  00000000  00028a5e  2**0
                  CONTENTS, READONLY, DEBUGGING
 20 .debug_aranges 00000530  00000000  00000000  000360c8  2**3
                  CONTENTS, READONLY, DEBUGGING
 21 .debug_ranges 000007c8  00000000  00000000  000365f8  2**3
                  CONTENTS, READONLY, DEBUGGING
 22 .debug_macro  00010f5b  00000000  00000000  00036dc0  2**0
                  CONTENTS, READONLY, DEBUGGING
 23 .debug_line   00004cfd  00000000  00000000  00047d1b  2**0
                  CONTENTS, READONLY, DEBUGGING
 24 .debug_str    00010b35  00000000  00000000  0004ca18  2**0
                  CONTENTS, READONLY, DEBUGGING
 25 .comment      00000024  00000000  00000000  0005d54d  2**0
                  CONTENTS, READONLY
 26 .ARM.attributes 00000036  00000000  00000000  0005d571  2**0
                  CONTENTS, READONLY
 27 .debug_frame  00001854  00000000  00000000  0005d5a8  2**2
                  CONTENTS, READONLY, DEBUGGING
 28 .rel.dyn      000000e8  00007988  00007988  00017988  2**2
                  CONTENTS, ALLOC, LOAD, READONLY, DATA
SYMBOL TABLE:
00000000 l    d  .ta_head	00000000 .ta_head
00000020 l    d  .text	00000000 .text
00006178 l    d  .rodata	00000000 .rodata
0000734c l    d  .ARM.extab	00000000 .ARM.extab
00007424 l    d  .ARM.extab.text.__aeabi_ldivmod	00000000 .ARM.extab.text.__aeabi_ldivmod
00007430 l    d  .ARM.extab.text.__aeabi_uldivmod	00000000 .ARM.extab.text.__aeabi_uldivmod
0000743c l    d  .ARM.extab.text.utee_panic	00000000 .ARM.extab.text.utee_panic
00007448 l    d  .ARM.extab.text.unlikely	00000000 .ARM.extab.text.unlikely
00007454 l    d  .ARM.exidx	00000000 .ARM.exidx
00007954 l    d  .got	00000000 .got
00007a70 l    d  .rel.got	00000000 .rel.got
00007ac0 l    d  .dynamic	00000000 .dynamic
00007b40 l    d  .dynsym	00000000 .dynsym
00007c10 l    d  .dynstr	00000000 .dynstr
00007cb0 l    d  .hash	00000000 .hash
00008000 l    d  .data	00000000 .data
00008180 l    d  .bss	00000000 .bss
00000000 l    d  .debug_info	00000000 .debug_info
00000000 l    d  .debug_abbrev	00000000 .debug_abbrev
00000000 l    d  .debug_loc	00000000 .debug_loc
00000000 l    d  .debug_aranges	00000000 .debug_aranges
00000000 l    d  .debug_ranges	00000000 .debug_ranges
00000000 l    d  .debug_macro	00000000 .debug_macro
00000000 l    d  .debug_line	00000000 .debug_line
00000000 l    d  .debug_str	00000000 .debug_str
00000000 l    d  .comment	00000000 .comment
00000000 l    d  .ARM.attributes	00000000 .ARM.attributes
00000000 l    d  .debug_frame	00000000 .debug_frame
00007988 l    d  .rel.dyn	00000000 .rel.dyn
00000000 l    df *ABS*	00000000 user_ta_header.c
0000617c l     O .rodata	00000004 __compound_literal.5
00006180 l     O .rodata	00000004 __compound_literal.4
00006184 l     O .rodata	00000004 __compound_literal.3
00006188 l     O .rodata	00000001 __compound_literal.2
00006189 l     O .rodata	00000001 __compound_literal.1
0000618a l     O .rodata	00000001 __compound_literal.0
00000000 l    df *ABS*	00000000 sdp_ta.c
00006458 l     O .rodata	0000001a __func__.6292
00006472 l     O .rodata	0000000e __func__.6317
00000000 l    df *ABS*	00000000 stub.c
00000164 l     F .text	00000010 delta_inc_refcount
00000174 l     F .text	00000010 delta_dec_refcount
00000184 l     F .text	00000010 bdisp_inc_refcount
00000194 l     F .text	00000010 bdisp_dec_refcount
000001a4 l     F .text	00000010 sti_inc_refcount
000001b4 l     F .text	00000010 sti_dec_refcount
000064d6 l     O .rodata	0000001b __func__.6344
00008180 l     O .bss	00000004 delta_refcount
00008184 l     O .bss	00000004 bdisp_refcount
00008188 l     O .bss	00000004 sti_refcount
00008190 l     O .bss	00000320 regions
00000000 l    df *ABS*	00000000 snprintk.c
000066e5 l     O .rodata	00000011 HEXDIGITS
000066f6 l     O .rodata	00000011 hexdigits
00000000 l    df *ABS*	00000000 trace.c
00000c54 l     F .text	0000004e append
0000673f l     O .rodata	00000005 lvl_strs.5561
00006744 l     O .rodata	0000000a __func__.5615
00000000 l    df *ABS*	00000000 arm32_aeabi_ldivmod_a32.o
00000000 l    df *ABS*	00000000 trace_ext.c
00000000 l    df *ABS*	00000000 user_ta_entry.c
00000fdc l     F .text	0000001c ta_header_get_session
00000ff8 l     F .text	00000068 ta_header_remove_session
000084b0 l     O .bss	00000001 init_done
00008158 l     O .data	00000008 ta_sessions
00000000 l    df *ABS*	00000000 utee_syscalls_a32.o
00000000 l    df *ABS*	00000000 gprof_a32.o
00000000 l    df *ABS*	00000000 tee_api.c
00006788 l     O .rodata	0000000b __func__.6728
000084d8 l     O .bss	00000004 tee_api_instance_data
00000000 l    df *ABS*	00000000 tee_api_arith_mpi.c
000029a4 l     F .text	00000020 api_panic
00001990 l     F .text	00000020 mpi_panic
000019b0 l     F .text	00000044 get_const_mpi
000019f4 l     F .text	00000010 mpi_is_odd
00001a04 l     F .text	00000016 rng_read
00001a1a l     F .text	0000001c put_mpi
00001a36 l     F .text	0000045a mpi_egcd
00001e90 l     F .text	00000024 get_mpi
00001eb4 l     F .text	00000088 bigint_binary
000084dc l     O .bss	00002000 data.6728
00002142 l     F .text	000000ea bigint_binary_mod
000067a4 l     O .rodata	0000000e __func__.6757
000067b2 l     O .rodata	00000009 __func__.6996
000067bb l     O .rodata	0000000e __func__.6856
000067c9 l     O .rodata	00000012 __func__.6729
000067db l     O .rodata	0000000f __func__.6767
000067ea l     O .rodata	0000001f __func__.6785
00006809 l     O .rodata	00000019 __func__.6792
00006822 l     O .rodata	00000012 __func__.6867
00006834 l     O .rodata	00000015 __func__.6822
00006849 l     O .rodata	0000000e __func__.6894
00006857 l     O .rodata	0000000e __func__.6922
00006865 l     O .rodata	0000000e __func__.6928
00006873 l     O .rodata	00000011 __func__.6957
00006884 l     O .rodata	00000018 __func__.6973
0000689c l     O .rodata	0000001d __func__.7053
000068b9 l     O .rodata	00000019 __func__.7103
000068d2 l     O .rodata	00000015 __func__.7117
00000000 l    df *ABS*	00000000 bignum.c
000029c4 l     F .text	00000038 mpi_get_digit
000029fc l     F .text	0000005e mpi_sub_hlp
00002a5a l     F .text	00000492 mpi_mul_hlp
00002eec l     F .text	00000048 mbedtls_mpi_mod_int.part.1
00003f8e l     F .text	0000006c mpi_write_hlp
00004134 l     F .text	00000050 mpi_check_small_factors
00004820 l     F .text	00000216 mpi_miller_rabin
00006194 l     O .rodata	000002a0 small_prime
00006434 l     O .rodata	00000024 gcd_pairs
00000000 l    df *ABS*	00000000 bget_malloc.c
000051c4 l     F .text	00000030 raw_malloc_return_hook.isra.3
000051f4 l     F .text	000000d8 create_free_block.constprop.11
00005400 l     F .text	00000038 raw_malloc.constprop.15
00006dfb l     O .rodata	00000012 __func__.5854
00006e0d l     O .rodata	00000005 __func__.5710
00006e12 l     O .rodata	00000006 __func__.5725
00006e18 l     O .rodata	00000005 __func__.5742
00006e1d l     O .rodata	00000006 __func__.5734
00006e23 l     O .rodata	00000006 __func__.5751
00006e29 l     O .rodata	00000007 __func__.5761
00006e30 l     O .rodata	0000000d __func__.5890
00006e3d l     O .rodata	0000000c __func__.5864
00006e49 l     O .rodata	0000000b __func__.5875
00006e54 l     O .rodata	00000010 __func__.5942
00006e64 l     O .rodata	0000000e __func__.5896
00006e72 l     O .rodata	00000013 __func__.5802
0000a4e0 l     O .bss	00000038 mstats
0000a518 l     O .bss	00000004 malloc_pool_len
0000a51c l     O .bss	00000004 malloc_pool
00008160 l     O .data	0000001c malloc_poolset
00000000 l    df *ABS*	00000000 mempool.c
0000728d l     O .rodata	00000013 __func__.5618
000072a0 l     O .rodata	0000000e __func__.5627
00000000 l    df *ABS*	00000000 assert.c
00000000 l    df *ABS*	00000000 snprintf.c
00000000 l    df *ABS*	00000000 memset.c
00000000 l    df *ABS*	00000000 strcmp.c
00000000 l    df *ABS*	00000000 aeabi_unwind.c
00000000 l    df *ABS*	00000000 memchr.c
00000000 l    df *ABS*	00000000 strlen.c
00000000 l    df *ABS*	00000000 arm32_aeabi_ldivmod.c
00000000 l    df *ABS*	00000000 tee_api_panic.c
00000000 l    df *ABS*	00000000 memcmp.c
00000000 l    df *ABS*	00000000 memcpy.c
00000000 l    df *ABS*	00000000 memmove.c
00000000 l    df *ABS*	00000000 
00007ac0 l     O *ABS*	00000000 _DYNAMIC
00007954 l     O *ABS*	00000000 _GLOBAL_OFFSET_TABLE_
00006138 l     F .text	00000010 __utee_check_access_rights_from_thumb
00006148 l     F .text	00000010 __utee_cache_operation_from_thumb
00006158 l     F .text	00000010 __utee_panic_from_thumb
00006168 l     F .text	00000010 __utee_log_from_thumb
00000fb8 g     F .text	00000022 putchar
000001c4 g     F .text	00000028 platform_init
000028b6 g     F .text	00000004 TEE_BigIntConvertToFMM
000025f8 g     F .text	00000008 TEE_BigIntSquareMod
0000222c g     F .text	000000f4 TEE_BigIntShiftRight
00001584 g     F .text	00000018 utee_storage_obj_create
00002fcc g     F .text	000000a8 mbedtls_mpi_grow
00005fdc g     F .text	000000ec __l_divmod
00001204 g     F .text	00000014 utee_return
00001974 g     F .text	00000004 TEE_Realloc
00000f5a g     F .text	0000003a printf
00001218 g     F .text	00000014 utee_log
00001792 g     F .text	00000066 TEE_InvokeTACommand
00002f46 g     F .text	00000026 mbedtls_mpi_init_mempool
00003440 g     F .text	00000046 mbedtls_mpi_write_binary
00000c2c g     F .text	0000000e vsnprintk
000038ca g     F .text	00000030 mbedtls_mpi_sub_int
00006100 g     F .text	00000034 memmove
00005ee0 g     F .text	0000001e snprintf
0000211c g     F .text	00000026 TEE_BigIntCmpS32
00003074 g     F .text	000000cc mbedtls_mpi_shrink
00005f36 g     F .text	00000002 __aeabi_unwind_cpp_pr0
0000236c g     F .text	0000001c TEE_BigIntAdd
00001258 g     F .text	00000014 utee_get_property_name_to_index
0000618c g     O .rodata	00000004 ta_heap_size
0000133c g     F .text	00000018 utee_cryp_state_alloc
0000150c g     F .text	00000018 utee_authenc_enc_final
000039f4 g     F .text	0000012c mbedtls_mpi_read_string
000023a4 g     F .text	00000058 TEE_BigIntNeg
00000020 g       .text	00000000 __text_start
0000351e g     F .text	00000078 mbedtls_mpi_shift_r
00005d54 g     F .text	0000004c malloc_buffer_overlaps_heap
000025c0 g     F .text	0000001c TEE_BigIntSubMod
00004d62 g     F .text	00000136 mbedtls_mpi_gen_prime
000032ee g     F .text	00000020 mbedtls_mpi_get_bit
000033da g     F .text	00000066 mbedtls_mpi_read_binary
00000cd4 g     F .text	0000013c trace_printf
000041ac g     F .text	000000c4 mbedtls_mpi_montmul
000060ea g     F .text	00000016 memcpy
00001368 g     F .text	00000014 utee_cryp_state_free
000028ba g     F .text	0000004a TEE_BigIntConvertFromFMM
000060c8 g     F .text	00000004 TEE_Panic
00000f28 g     F .text	00000018 __aeabi_uldivmod
00000f94 g     F .text	00000024 puts
00002904 g     F .text	000000a0 TEE_BigIntComputeFMM
0000581c g     F .text	00000020 malloc_get_stats
000013e8 g     F .text	00000018 utee_cipher_final
00001914 g     F .text	00000016 TEE_GetREETime
000080e8 g     O .data	0000006c ta_props
0000583c g     F .text	00000002 malloc
00001450 g     F .text	00000014 utee_cryp_obj_close
000004a4 g     F .text	00000054 platform_dump_device
00005efe g     F .text	0000000e vsnprintf
000080e4 g     O .data	00000004 trace_level
0000029c g     F .text	00000078 platform_check_permissions
000020e8 g     F .text	00000034 TEE_BigIntCmp
00006178 g     O .rodata	00000004 ta_num_props
0000568c g     F .text	0000007c bgetr
00008000 g     O .data	000000e4 stm_devices
000014f4 g     F .text	00000018 utee_authenc_update_payload
00005e74 g     F .text	0000002e mempool_free
00002000 g     F .text	00000058 TEE_BigIntConvertToOctetString
0000168c g     F .text	00000014 utee_cache_operation
0000338c g     F .text	00000042 mbedtls_mpi_bitlen
000014c8 g     F .text	00000018 utee_authenc_init
00002320 g     F .text	0000002a TEE_BigIntGetBit
00006190 g     O .rodata	00000003 trace_ext_prefix
00005438 g     F .text	0000005c bgetz
00001864 g     F .text	0000000c TEE_GetInstanceData
00001892 g     F .text	0000001e TEE_Wait
0000163c g     F .text	00000014 utee_storage_obj_write
000038fa g     F .text	000000dc mbedtls_mpi_mul_mpi
00005f3a g     F .text	00000002 __aeabi_unwind_cpp_pr2
00001982 g     F .text	00000006 TEE_CacheFlush
0000002a g     F .text	00000002 TA_DestroyEntryPoint
00002f34 g     F .text	00000012 mbedtls_mpi_init
0000335e g     F .text	0000002e mbedtls_mpi_lsb
00005ea4 g     F .text	00000028 _assert_log
000028b2 g     F .text	00000004 TEE_BigIntFMMContextSizeInU32
00001f3c g     F .text	00000044 _TEE_MathAPI_Init
00003806 g     F .text	00000048 mbedtls_mpi_add_mpi
00001614 g     F .text	00000014 utee_storage_next_enum
0000a520 g     O .bss	00008000 ta_heap
00002600 g     F .text	000000a4 TEE_BigIntInvMod
0000003c g     F .text	00000024 TA_CloseSessionEntryPoint
00000314 g     F .text	00000034 platform_add_device_to_region
00000274 g     F .text	00000028 platform_find_device_by_name
0000384e g     F .text	0000004c mbedtls_mpi_sub_mpi
0000122c g     F .text	00000014 __utee_panic
00001354 g     F .text	00000014 utee_cryp_state_copy
00000060 g     F .text	00000104 TA_InvokeCommandEntryPoint
00005de4 g     F .text	0000006c mempool_alloc
0000143c g     F .text	00000014 utee_cryp_obj_alloc
00001328 g     F .text	00000014 utee_set_ta_time
00001428 g     F .text	00000014 utee_cryp_obj_get_attr
00005e50 g     F .text	00000024 mempool_calloc
00005850 g     F .text	00000048 calloc
0000192a g     F .text	0000004a TEE_Malloc
000012ec g     F .text	00000014 utee_mask_cancellation
00001464 g     F .text	00000014 utee_cryp_obj_reset
0000184c g     F .text	0000000a TEE_CheckMemoryAccessRights
00012520 g       .bss	00000000 __gprof_buf_end
00005f68 g     F .text	00000074 __ul_divmod
000032b6 g     F .text	00000038 mbedtls_mpi_lset
00000348 g     F .text	00000036 platform_remove_device_from_region
0000002c g     F .text	00000010 TA_OpenSessionEntryPoint
00001600 g     F .text	00000014 utee_storage_start_enum
000015b0 g     F .text	00000014 utee_storage_obj_rename
000084b4 g     O .bss	00000004 ta_param_types
00003ec2 g     F .text	0000002e mbedtls_mpi_div_int
00002874 g     F .text	00000030 TEE_BigIntIsProbablePrime
000039d6 g     F .text	0000001e mbedtls_mpi_mul_int
00004294 g     F .text	00000446 mbedtls_mpi_exp_mod
000031c4 g     F .text	0000006c mbedtls_mpi_safe_cond_assign
00001240 g     F .text	00000018 utee_get_property
00001f80 g     F .text	00000040 TEE_BigIntInit
00001870 g     F .text	00000004 TEE_MemMove
00001fc0 g     F .text	00000040 TEE_BigIntConvertFromOctetString
00008154 g     O .data	00000004 _ref__utee_mcount
00003596 g     F .text	0000006e mbedtls_mpi_cmp_abs
00005f3c g     F .text	0000001c memchr
00001814 g     F .text	0000001c TEE_UnmaskCancellation
00004e98 g     F .text	0000032c mbedtls_mpi_self_test
0000159c g     F .text	00000014 utee_storage_obj_del
00001664 g     F .text	00000014 utee_storage_obj_seek
0000369a g     F .text	00000030 mbedtls_mpi_cmp_int
00001390 g     F .text	00000014 utee_hash_update
000016a0  w    F .text	0000000c __utee_mcount
00002554 g     F .text	00000050 TEE_BigIntMod
00003f54 g     F .text	0000003a mbedtls_mpi_mod_int
00001284 g     F .text	00000014 utee_close_ta_session
000024a6 g     F .text	000000ae TEE_BigIntDiv
00003140 g     F .text	00000056 mbedtls_mpi_copy
00005808 g     F .text	00000014 malloc_reset_stats
000013d0 g     F .text	00000018 utee_cipher_update
00005898 g     F .text	00000038 realloc
00003196 g     F .text	0000002e mbedtls_mpi_swap
00005da0 g     F .text	00000044 mempool_alloc_pool
00001554 g     F .text	00000018 utee_asymm_verify
000023fc g     F .text	000000a4 TEE_BigIntMul
00003486 g     F .text	00000098 mbedtls_mpi_shift_l
00003604 g     F .text	00000096 mbedtls_mpi_cmp_mpi
00001878 g     F .text	00000004 TEE_MemFill
000060cc g     F .text	0000001e memcmp
00005b80 g     F .text	000000f8 malloc_add_pool
00000cc0 g     F .text	00000014 trace_get_level
000036ca g     F .text	000000bc mbedtls_mpi_add_abs
000014b4 g     F .text	00000014 utee_cryp_random_number_generate
000028aa g     F .text	00000008 TEE_BigIntFMMSizeInU32
000028a4 g     F .text	00000004 TEE_BigIntInitFMM
0000153c g     F .text	00000018 utee_asymm_operate
00001060 g     F .text	00000190 __utee_entry
00006178 g       .text	00000000 __text_end
000026a4 g     F .text	0000007c TEE_BigIntRelativePrime
00003ef0 g     F .text	00000064 mbedtls_mpi_mod_mpi
00005708 g     F .text	0000009c bpool
000017f8 g     F .text	0000001c TEE_GetCancellationFlag
000046da g     F .text	00000114 mbedtls_mpi_gcd
000018ec g     F .text	00000028 TEE_SetTAPersistentTime
00005f0c g     F .text	00000010 memset
00000258 g     F .text	0000001c platform_find_region_by_id
000018b0 g     F .text	0000003c TEE_GetTAPersistentTime
00000e10 g     F .text	00000100 dhex_dump
00001830 g     F .text	0000001c TEE_MaskCancellation
00001628 g     F .text	00000014 utee_storage_obj_read
00001478 g     F .text	00000014 utee_cryp_obj_populate
00000ca2 g     F .text	0000001e trace_set_level
00001400 g     F .text	00000014 utee_cryp_obj_get_info
000015c4 g     F .text	00000014 utee_storage_alloc_enum
000015ec g     F .text	00000014 utee_storage_reset_enum
00001650 g     F .text	00000014 utee_storage_obj_trunc
00005f1c g     F .text	0000001a strcmp
00002090 g     F .text	00000058 TEE_BigIntConvertToS32
00002388 g     F .text	0000001c TEE_BigIntSub
000012b0 g     F .text	00000014 utee_get_cancellation_flag
0000137c g     F .text	00000014 utee_hash_init
00005edc g     F .text	00000004 tahead_get_trace_level
000016ac g     F .text	00000050 __utee_from_param
000016fc g     F .text	0000003e __utee_to_param
00004270 g     F .text	00000024 mbedtls_mpi_montred
000058d0 g     F .text	000002b0 memalign
00002058 g     F .text	00000038 TEE_BigIntConvertFromS32
0000389a g     F .text	00000030 mbedtls_mpi_add_int
00001414 g     F .text	00000014 utee_cryp_obj_restrict_usage
00005c78 g     F .text	000000dc malloc_buffer_is_within_alloced
0000148c g     F .text	00000014 utee_cryp_obj_copy
000028a8 g     F .text	00000002 TEE_BigIntInitFMMContext
000014a0 g     F .text	00000014 utee_cryp_derive_key
00001524 g     F .text	00000018 utee_authenc_dec_final
000024a0 g     F .text	00000006 TEE_BigIntSquare
00000020 g     F .text	0000000a TA_CreateEntryPoint
00004184 g     F .text	00000028 mbedtls_mpi_montg_init
00000c3a g     F .text	0000001a snprintk
0000234a g     F .text	00000022 TEE_BigIntGetBitCount
000025dc g     F .text	0000001c TEE_BigIntMulMod
00004a36 g     F .text	000002d0 mbedtls_mpi_inv_mod
0000037e g     F .text	00000126 platform_dump_status
000084b8 g     O .bss	00000020 ta_params
00003b20 g     F .text	000003a2 mbedtls_mpi_div_mpi
000033ce g     F .text	0000000c mbedtls_mpi_size
000052cc g     F .text	00000134 bget
0000330e g     F .text	00000050 mbedtls_mpi_set_bit
00002f6c g     F .text	00000012 mbedtls_mpi_init_static
00001978 g     F .text	00000004 TEE_Free
00004d06 g     F .text	0000005c mbedtls_mpi_is_prime
00001988 g     F .text	00000006 TEE_CacheInvalidate
000013bc g     F .text	00000014 utee_cipher_init
00005ecc g     F .text	00000010 _assert_break
000025a4 g     F .text	0000001c TEE_BigIntAddMod
000015d8 g     F .text	00000014 utee_storage_free_enum
000014e0 g     F .text	00000014 utee_authenc_update_aad
00000230 g     F .text	00000028 platform_destroy_region
00001874 g     F .text	00000004 TEE_MemCompare
000004f8 g     F .text	00000734 __vsnprintf
0000173a g     F .text	00000044 TEE_OpenTASession
000011f0 g     F .text	00000014 utee_panic
00000f40 g     F .text	00000014 trace_ext_puts
00000f54 g     F .text	00000006 trace_ext_get_thread_id
00002f7e g     F .text	0000004e mbedtls_mpi_free
0000197c g     F .text	00000006 TEE_CacheClean
0000126c g     F .text	00000018 utee_open_ta_session
00003230 g     F .text	00000086 mbedtls_mpi_safe_cond_swap
000013a4 g     F .text	00000018 utee_hash_final
000001ec g     F .text	00000044 platform_create_region
00005f58 g     F .text	00000010 strlen
00002720 g     F .text	00000154 TEE_BigIntComputeExtendedGcd
00005f38 g     F .text	00000002 __aeabi_unwind_cpp_pr1
0000156c g     F .text	00000018 utee_storage_obj_open
00001298 g     F .text	00000018 utee_invoke_ta_command
00001300 g     F .text	00000014 utee_wait
0000187c g     F .text	00000016 TEE_GetSystemTime
00000000 g     O .ta_head	00000020 ta_head
00005494 g     F .text	000001f8 brel
00003786 g     F .text	00000080 mbedtls_mpi_sub_abs
00001314 g     F .text	00000014 utee_get_time
000047ee g     F .text	00000032 mbedtls_mpi_fill_random
00001856 g     F .text	0000000e TEE_SetInstanceData
000012d8 g     F .text	00000014 utee_unmask_cancellation
00000f10 g     F .text	00000018 __aeabi_ldivmod
000012c4 g     F .text	00000014 utee_check_access_rights
00003ffa g     F .text	0000013a mbedtls_mpi_write_string
00001678 g     F .text	00000014 utee_cryp_obj_generate_key
0000177e g     F .text	00000014 TEE_CloseTASession
00012520 g       .bss	00000000 __gprof_buf_start
0000583e g     F .text	00000012 free
000057a4 g     F .text	00000064 bstats
0000a4dc g     O .bss	00000004 mbedtls_mpi_mempool



Disassembly of section .text:

00000020 <TA_CreateEntryPoint>:
TA_CreateEntryPoint():
/workspace/benchmark/optee-sdp/ta/sdp_ta.c:24
      20:	b508      	push	{r3, lr}
/workspace/benchmark/optee-sdp/ta/sdp_ta.c:25
      22:	f000 f8cf 	bl	1c4 <platform_init>
/workspace/benchmark/optee-sdp/ta/sdp_ta.c:27
      26:	2000      	movs	r0, #0
      28:	bd08      	pop	{r3, pc}

0000002a <TA_DestroyEntryPoint>:
TA_DestroyEntryPoint():
/workspace/benchmark/optee-sdp/ta/sdp_ta.c:34
      2a:	4770      	bx	lr

0000002c <TA_OpenSessionEntryPoint>:
TA_OpenSessionEntryPoint():
/workspace/benchmark/optee-sdp/ta/sdp_ta.c:50
      2c:	2800      	cmp	r0, #0
/workspace/benchmark/optee-sdp/ta/sdp_ta.c:59
      2e:	4802      	ldr	r0, [pc, #8]	; (38 <TA_OpenSessionEntryPoint+0xc>)
      30:	bf08      	it	eq
      32:	2000      	moveq	r0, #0
      34:	4770      	bx	lr
      36:	bf00      	nop
      38:	ffff0006 	.word	0xffff0006

0000003c <TA_CloseSessionEntryPoint>:
TA_CloseSessionEntryPoint():
/workspace/benchmark/optee-sdp/ta/sdp_ta.c:66
      3c:	b507      	push	{r0, r1, r2, lr}
/workspace/benchmark/optee-sdp/ta/sdp_ta.c:68
      3e:	2202      	movs	r2, #2
      40:	4b05      	ldr	r3, [pc, #20]	; (58 <TA_CloseSessionEntryPoint+0x1c>)
      42:	4806      	ldr	r0, [pc, #24]	; (5c <TA_CloseSessionEntryPoint+0x20>)
      44:	2144      	movs	r1, #68	; 0x44
      46:	447b      	add	r3, pc
      48:	9300      	str	r3, [sp, #0]
      4a:	4478      	add	r0, pc
      4c:	2301      	movs	r3, #1
      4e:	f000 fe41 	bl	cd4 <trace_printf>
/workspace/benchmark/optee-sdp/ta/sdp_ta.c:69
      52:	b003      	add	sp, #12
      54:	f85d fb04 	ldr.w	pc, [sp], #4
      58:	00006436 	.word	0x00006436
      5c:	0000640a 	.word	0x0000640a

00000060 <TA_InvokeCommandEntryPoint>:
TA_InvokeCommandEntryPoint():
/workspace/benchmark/optee-sdp/ta/sdp_ta.c:186
      60:	e92d 41f3 	stmdb	sp!, {r0, r1, r4, r5, r6, r7, r8, lr}
      64:	461d      	mov	r5, r3
/workspace/benchmark/optee-sdp/ta/sdp_ta.c:190
      66:	2903      	cmp	r1, #3
      68:	d807      	bhi.n	7a <TA_InvokeCommandEntryPoint+0x1a>
      6a:	e8df f001 	tbb	[pc, r1]
      6e:	1402      	.short	0x1402
      70:	611a      	.short	0x611a
create_region():
/workspace/benchmark/optee-sdp/ta/sdp_ta.c:80
      72:	f240 2311 	movw	r3, #529	; 0x211
      76:	429a      	cmp	r2, r3
      78:	d001      	beq.n	7e <TA_InvokeCommandEntryPoint+0x1e>
TA_InvokeCommandEntryPoint():
/workspace/benchmark/optee-sdp/ta/sdp_ta.c:200
      7a:	4833      	ldr	r0, [pc, #204]	; (148 <TA_InvokeCommandEntryPoint+0xe8>)
      7c:	e008      	b.n	90 <TA_InvokeCommandEntryPoint+0x30>
create_region():
/workspace/benchmark/optee-sdp/ta/sdp_ta.c:86
      7e:	68aa      	ldr	r2, [r5, #8]
      80:	2100      	movs	r1, #0
      82:	6868      	ldr	r0, [r5, #4]
      84:	f000 f8b2 	bl	1ec <platform_create_region>
/workspace/benchmark/optee-sdp/ta/sdp_ta.c:87
      88:	2800      	cmp	r0, #0
      8a:	dbf6      	blt.n	7a <TA_InvokeCommandEntryPoint+0x1a>
/workspace/benchmark/optee-sdp/ta/sdp_ta.c:90
      8c:	6128      	str	r0, [r5, #16]
dump_status():
/workspace/benchmark/optee-sdp/ta/sdp_ta.c:176
      8e:	2000      	movs	r0, #0
TA_InvokeCommandEntryPoint():
/workspace/benchmark/optee-sdp/ta/sdp_ta.c:202
      90:	b002      	add	sp, #8
      92:	e8bd 81f0 	ldmia.w	sp!, {r4, r5, r6, r7, r8, pc}
destroy_region():
/workspace/benchmark/optee-sdp/ta/sdp_ta.c:103
      96:	2a01      	cmp	r2, #1
      98:	d1ef      	bne.n	7a <TA_InvokeCommandEntryPoint+0x1a>
/workspace/benchmark/optee-sdp/ta/sdp_ta.c:108
      9a:	6828      	ldr	r0, [r5, #0]
      9c:	f000 f8c8 	bl	230 <platform_destroy_region>
      a0:	e7f5      	b.n	8e <TA_InvokeCommandEntryPoint+0x2e>
update_region():
/workspace/benchmark/optee-sdp/ta/sdp_ta.c:126
      a2:	f240 1351 	movw	r3, #337	; 0x151
      a6:	429a      	cmp	r2, r3
      a8:	d1e7      	bne.n	7a <TA_InvokeCommandEntryPoint+0x1a>
/workspace/benchmark/optee-sdp/ta/sdp_ta.c:133
      aa:	f8d5 8008 	ldr.w	r8, [r5, #8]
/workspace/benchmark/optee-sdp/ta/sdp_ta.c:130
      ae:	682f      	ldr	r7, [r5, #0]
/workspace/benchmark/optee-sdp/ta/sdp_ta.c:137
      b0:	4640      	mov	r0, r8
/workspace/benchmark/optee-sdp/ta/sdp_ta.c:131
      b2:	686c      	ldr	r4, [r5, #4]
/workspace/benchmark/optee-sdp/ta/sdp_ta.c:135
      b4:	692e      	ldr	r6, [r5, #16]
/workspace/benchmark/optee-sdp/ta/sdp_ta.c:137
      b6:	f000 f8dd 	bl	274 <platform_find_device_by_name>
/workspace/benchmark/optee-sdp/ta/sdp_ta.c:138
      ba:	4605      	mov	r5, r0
      bc:	b968      	cbnz	r0, da <TA_InvokeCommandEntryPoint+0x7a>
/workspace/benchmark/optee-sdp/ta/sdp_ta.c:139
      be:	4b23      	ldr	r3, [pc, #140]	; (14c <TA_InvokeCommandEntryPoint+0xec>)
      c0:	2202      	movs	r2, #2
      c2:	4823      	ldr	r0, [pc, #140]	; (150 <TA_InvokeCommandEntryPoint+0xf0>)
      c4:	218b      	movs	r1, #139	; 0x8b
      c6:	447b      	add	r3, pc
      c8:	9300      	str	r3, [sp, #0]
      ca:	4478      	add	r0, pc
      cc:	2301      	movs	r3, #1
      ce:	f8cd 8004 	str.w	r8, [sp, #4]
/workspace/benchmark/optee-sdp/ta/sdp_ta.c:145
      d2:	301a      	adds	r0, #26
      d4:	f000 fdfe 	bl	cd4 <trace_printf>
      d8:	e7cf      	b.n	7a <TA_InvokeCommandEntryPoint+0x1a>
/workspace/benchmark/optee-sdp/ta/sdp_ta.c:143
      da:	4638      	mov	r0, r7
      dc:	f000 f8bc 	bl	258 <platform_find_region_by_id>
/workspace/benchmark/optee-sdp/ta/sdp_ta.c:144
      e0:	4680      	mov	r8, r0
      e2:	b948      	cbnz	r0, f8 <TA_InvokeCommandEntryPoint+0x98>
/workspace/benchmark/optee-sdp/ta/sdp_ta.c:145
      e4:	4b1b      	ldr	r3, [pc, #108]	; (154 <TA_InvokeCommandEntryPoint+0xf4>)
      e6:	2202      	movs	r2, #2
      e8:	481b      	ldr	r0, [pc, #108]	; (158 <TA_InvokeCommandEntryPoint+0xf8>)
      ea:	2191      	movs	r1, #145	; 0x91
      ec:	447b      	add	r3, pc
      ee:	9701      	str	r7, [sp, #4]
      f0:	9300      	str	r3, [sp, #0]
      f2:	4478      	add	r0, pc
      f4:	2301      	movs	r3, #1
      f6:	e7ec      	b.n	d2 <TA_InvokeCommandEntryPoint+0x72>
/workspace/benchmark/optee-sdp/ta/sdp_ta.c:149
      f8:	b1b4      	cbz	r4, 128 <TA_InvokeCommandEntryPoint+0xc8>
/workspace/benchmark/optee-sdp/ta/sdp_ta.c:150
      fa:	4632      	mov	r2, r6
      fc:	4629      	mov	r1, r5
      fe:	f000 f8cd 	bl	29c <platform_check_permissions>
     102:	b158      	cbz	r0, 11c <TA_InvokeCommandEntryPoint+0xbc>
/workspace/benchmark/optee-sdp/ta/sdp_ta.c:151
     104:	4815      	ldr	r0, [pc, #84]	; (15c <TA_InvokeCommandEntryPoint+0xfc>)
     106:	2202      	movs	r2, #2
     108:	4b15      	ldr	r3, [pc, #84]	; (160 <TA_InvokeCommandEntryPoint+0x100>)
     10a:	2197      	movs	r1, #151	; 0x97
     10c:	4478      	add	r0, pc
     10e:	447b      	add	r3, pc
     110:	301a      	adds	r0, #26
     112:	9300      	str	r3, [sp, #0]
     114:	2301      	movs	r3, #1
     116:	f000 fddd 	bl	cd4 <trace_printf>
     11a:	e7ae      	b.n	7a <TA_InvokeCommandEntryPoint+0x1a>
/workspace/benchmark/optee-sdp/ta/sdp_ta.c:155
     11c:	4632      	mov	r2, r6
     11e:	4629      	mov	r1, r5
     120:	4640      	mov	r0, r8
     122:	f000 f8f7 	bl	314 <platform_add_device_to_region>
     126:	e7b2      	b.n	8e <TA_InvokeCommandEntryPoint+0x2e>
/workspace/benchmark/optee-sdp/ta/sdp_ta.c:157
     128:	4629      	mov	r1, r5
     12a:	f000 f90d 	bl	348 <platform_remove_device_from_region>
     12e:	e7ae      	b.n	8e <TA_InvokeCommandEntryPoint+0x2e>
dump_status():
/workspace/benchmark/optee-sdp/ta/sdp_ta.c:169
     130:	2a06      	cmp	r2, #6
     132:	d1a2      	bne.n	7a <TA_InvokeCommandEntryPoint+0x1a>
/workspace/benchmark/optee-sdp/ta/sdp_ta.c:173
     134:	6869      	ldr	r1, [r5, #4]
     136:	4628      	mov	r0, r5
     138:	f000 f921 	bl	37e <platform_dump_status>
/workspace/benchmark/optee-sdp/ta/sdp_ta.c:174
     13c:	e895 0003 	ldmia.w	r5, {r0, r1}
     140:	f000 f9b0 	bl	4a4 <platform_dump_device>
     144:	e7a3      	b.n	8e <TA_InvokeCommandEntryPoint+0x2e>
     146:	bf00      	nop
     148:	ffff0006 	.word	0xffff0006
     14c:	000063c3 	.word	0x000063c3
     150:	0000638a 	.word	0x0000638a
     154:	000063b3 	.word	0x000063b3
     158:	00006362 	.word	0x00006362
     15c:	00006348 	.word	0x00006348
     160:	000063aa 	.word	0x000063aa

00000164 <delta_inc_refcount>:
delta_inc_refcount():
/workspace/benchmark/optee-sdp/ta/platform/stub.c:27
     164:	4a02      	ldr	r2, [pc, #8]	; (170 <delta_inc_refcount+0xc>)
     166:	447a      	add	r2, pc
     168:	6813      	ldr	r3, [r2, #0]
     16a:	3301      	adds	r3, #1
     16c:	6013      	str	r3, [r2, #0]
     16e:	4770      	bx	lr
     170:	00008016 	.word	0x00008016

00000174 <delta_dec_refcount>:
delta_dec_refcount():
/workspace/benchmark/optee-sdp/ta/platform/stub.c:32
     174:	4a02      	ldr	r2, [pc, #8]	; (180 <delta_dec_refcount+0xc>)
     176:	447a      	add	r2, pc
     178:	6813      	ldr	r3, [r2, #0]
     17a:	3b01      	subs	r3, #1
     17c:	6013      	str	r3, [r2, #0]
     17e:	4770      	bx	lr
     180:	00008006 	.word	0x00008006

00000184 <bdisp_inc_refcount>:
bdisp_inc_refcount():
/workspace/benchmark/optee-sdp/ta/platform/stub.c:37
     184:	4a02      	ldr	r2, [pc, #8]	; (190 <bdisp_inc_refcount+0xc>)
     186:	447a      	add	r2, pc
     188:	6853      	ldr	r3, [r2, #4]
     18a:	3301      	adds	r3, #1
     18c:	6053      	str	r3, [r2, #4]
     18e:	4770      	bx	lr
     190:	00007ff6 	.word	0x00007ff6

00000194 <bdisp_dec_refcount>:
bdisp_dec_refcount():
/workspace/benchmark/optee-sdp/ta/platform/stub.c:42
     194:	4a02      	ldr	r2, [pc, #8]	; (1a0 <bdisp_dec_refcount+0xc>)
     196:	447a      	add	r2, pc
     198:	6853      	ldr	r3, [r2, #4]
     19a:	3b01      	subs	r3, #1
     19c:	6053      	str	r3, [r2, #4]
     19e:	4770      	bx	lr
     1a0:	00007fe6 	.word	0x00007fe6

000001a4 <sti_inc_refcount>:
sti_inc_refcount():
/workspace/benchmark/optee-sdp/ta/platform/stub.c:47
     1a4:	4a02      	ldr	r2, [pc, #8]	; (1b0 <sti_inc_refcount+0xc>)
     1a6:	447a      	add	r2, pc
     1a8:	6893      	ldr	r3, [r2, #8]
     1aa:	3301      	adds	r3, #1
     1ac:	6093      	str	r3, [r2, #8]
     1ae:	4770      	bx	lr
     1b0:	00007fd6 	.word	0x00007fd6

000001b4 <sti_dec_refcount>:
sti_dec_refcount():
/workspace/benchmark/optee-sdp/ta/platform/stub.c:52
     1b4:	4a02      	ldr	r2, [pc, #8]	; (1c0 <sti_dec_refcount+0xc>)
     1b6:	447a      	add	r2, pc
     1b8:	6893      	ldr	r3, [r2, #8]
     1ba:	3b01      	subs	r3, #1
     1bc:	6093      	str	r3, [r2, #8]
     1be:	4770      	bx	lr
     1c0:	00007fc6 	.word	0x00007fc6

000001c4 <platform_init>:
platform_init():
/workspace/benchmark/optee-sdp/ta/platform/stub.c:85
     1c4:	4808      	ldr	r0, [pc, #32]	; (1e8 <platform_init+0x24>)
/workspace/benchmark/optee-sdp/ta/platform/stub.c:89
     1c6:	f44f 7248 	mov.w	r2, #800	; 0x320
/workspace/benchmark/optee-sdp/ta/platform/stub.c:84
     1ca:	b510      	push	{r4, lr}
/workspace/benchmark/optee-sdp/ta/platform/stub.c:85
     1cc:	2400      	movs	r4, #0
     1ce:	4478      	add	r0, pc
/workspace/benchmark/optee-sdp/ta/platform/stub.c:89
     1d0:	4621      	mov	r1, r4
     1d2:	3010      	adds	r0, #16
/workspace/benchmark/optee-sdp/ta/platform/stub.c:85
     1d4:	f840 4c10 	str.w	r4, [r0, #-16]
/workspace/benchmark/optee-sdp/ta/platform/stub.c:86
     1d8:	f840 4c0c 	str.w	r4, [r0, #-12]
/workspace/benchmark/optee-sdp/ta/platform/stub.c:87
     1dc:	f840 4c08 	str.w	r4, [r0, #-8]
/workspace/benchmark/optee-sdp/ta/platform/stub.c:89
     1e0:	f005 fe94 	bl	5f0c <memset>
/workspace/benchmark/optee-sdp/ta/platform/stub.c:92
     1e4:	4620      	mov	r0, r4
     1e6:	bd10      	pop	{r4, pc}
     1e8:	00007fae 	.word	0x00007fae

000001ec <platform_create_region>:
platform_create_region():
/workspace/benchmark/optee-sdp/ta/platform/stub.c:95
     1ec:	e92d 43f0 	stmdb	sp!, {r4, r5, r6, r7, r8, r9, lr}
     1f0:	460f      	mov	r7, r1
find_free_region():
/workspace/benchmark/optee-sdp/ta/platform/stub.c:77
     1f2:	490e      	ldr	r1, [pc, #56]	; (22c <platform_create_region+0x40>)
platform_create_region():
/workspace/benchmark/optee-sdp/ta/platform/stub.c:95
     1f4:	4606      	mov	r6, r0
find_free_region():
/workspace/benchmark/optee-sdp/ta/platform/stub.c:76
     1f6:	2300      	movs	r3, #0
/workspace/benchmark/optee-sdp/ta/platform/stub.c:77
     1f8:	4479      	add	r1, pc
     1fa:	2528      	movs	r5, #40	; 0x28
     1fc:	f101 0010 	add.w	r0, r1, #16
     200:	fb05 f403 	mul.w	r4, r5, r3
     204:	eb00 0c04 	add.w	ip, r0, r4
     208:	e9dc 8900 	ldrd	r8, r9, [ip]
     20c:	ea58 0c09 	orrs.w	ip, r8, r9
     210:	d007      	beq.n	222 <platform_create_region+0x36>
/workspace/benchmark/optee-sdp/ta/platform/stub.c:76
     212:	3301      	adds	r3, #1
     214:	2b14      	cmp	r3, #20
     216:	d1f3      	bne.n	200 <platform_create_region+0x14>
/workspace/benchmark/optee-sdp/ta/platform/stub.c:80
     218:	f04f 33ff 	mov.w	r3, #4294967295	; 0xffffffff
platform_create_region():
/workspace/benchmark/optee-sdp/ta/platform/stub.c:105
     21c:	4618      	mov	r0, r3
     21e:	e8bd 83f0 	ldmia.w	sp!, {r4, r5, r6, r7, r8, r9, pc}
/workspace/benchmark/optee-sdp/ta/platform/stub.c:101
     222:	4421      	add	r1, r4
     224:	e9c1 6704 	strd	r6, r7, [r1, #16]
/workspace/benchmark/optee-sdp/ta/platform/stub.c:102
     228:	618a      	str	r2, [r1, #24]
/workspace/benchmark/optee-sdp/ta/platform/stub.c:104
     22a:	e7f7      	b.n	21c <platform_create_region+0x30>
     22c:	00007f84 	.word	0x00007f84

00000230 <platform_destroy_region>:
platform_destroy_region():
/workspace/benchmark/optee-sdp/ta/platform/stub.c:108
     230:	b508      	push	{r3, lr}
/workspace/benchmark/optee-sdp/ta/platform/stub.c:109
     232:	2814      	cmp	r0, #20
     234:	dc0a      	bgt.n	24c <platform_destroy_region+0x1c>
/workspace/benchmark/optee-sdp/ta/platform/stub.c:112
     236:	4b07      	ldr	r3, [pc, #28]	; (254 <platform_destroy_region+0x24>)
     238:	2228      	movs	r2, #40	; 0x28
     23a:	2100      	movs	r1, #0
     23c:	447b      	add	r3, pc
     23e:	3310      	adds	r3, #16
     240:	fb02 3000 	mla	r0, r2, r0, r3
     244:	f005 fe62 	bl	5f0c <memset>
/workspace/benchmark/optee-sdp/ta/platform/stub.c:114
     248:	2000      	movs	r0, #0
     24a:	bd08      	pop	{r3, pc}
/workspace/benchmark/optee-sdp/ta/platform/stub.c:110
     24c:	f04f 30ff 	mov.w	r0, #4294967295	; 0xffffffff
/workspace/benchmark/optee-sdp/ta/platform/stub.c:115
     250:	bd08      	pop	{r3, pc}
     252:	bf00      	nop
     254:	00007f40 	.word	0x00007f40

00000258 <platform_find_region_by_id>:
platform_find_region_by_id():
/workspace/benchmark/optee-sdp/ta/platform/stub.c:119
     258:	2814      	cmp	r0, #20
     25a:	dc06      	bgt.n	26a <platform_find_region_by_id+0x12>
/workspace/benchmark/optee-sdp/ta/platform/stub.c:122
     25c:	4b04      	ldr	r3, [pc, #16]	; (270 <platform_find_region_by_id+0x18>)
     25e:	2228      	movs	r2, #40	; 0x28
     260:	447b      	add	r3, pc
     262:	3310      	adds	r3, #16
     264:	fb02 3000 	mla	r0, r2, r0, r3
     268:	4770      	bx	lr
/workspace/benchmark/optee-sdp/ta/platform/stub.c:120
     26a:	2000      	movs	r0, #0
/workspace/benchmark/optee-sdp/ta/platform/stub.c:123
     26c:	4770      	bx	lr
     26e:	bf00      	nop
     270:	00007f1c 	.word	0x00007f1c

00000274 <platform_find_device_by_name>:
platform_find_device_by_name():
/workspace/benchmark/optee-sdp/ta/platform/stub.c:126
     274:	b5f8      	push	{r3, r4, r5, r6, r7, lr}
     276:	4606      	mov	r6, r0
/workspace/benchmark/optee-sdp/ta/platform/stub.c:130
     278:	4f07      	ldr	r7, [pc, #28]	; (298 <platform_find_device_by_name+0x24>)
/workspace/benchmark/optee-sdp/ta/platform/stub.c:126
     27a:	2500      	movs	r5, #0
/workspace/benchmark/optee-sdp/ta/platform/stub.c:130
     27c:	447f      	add	r7, pc
     27e:	197c      	adds	r4, r7, r5
     280:	4631      	mov	r1, r6
     282:	4620      	mov	r0, r4
     284:	f005 fe4a 	bl	5f1c <strcmp>
     288:	b120      	cbz	r0, 294 <platform_find_device_by_name+0x20>
     28a:	354c      	adds	r5, #76	; 0x4c
/workspace/benchmark/optee-sdp/ta/platform/stub.c:129 (discriminator 2)
     28c:	2de4      	cmp	r5, #228	; 0xe4
     28e:	d1f6      	bne.n	27e <platform_find_device_by_name+0xa>
/workspace/benchmark/optee-sdp/ta/platform/stub.c:134
     290:	2000      	movs	r0, #0
     292:	bdf8      	pop	{r3, r4, r5, r6, r7, pc}
/workspace/benchmark/optee-sdp/ta/platform/stub.c:130
     294:	4620      	mov	r0, r4
/workspace/benchmark/optee-sdp/ta/platform/stub.c:135
     296:	bdf8      	pop	{r3, r4, r5, r6, r7, pc}
     298:	00007d80 	.word	0x00007d80

0000029c <platform_check_permissions>:
platform_check_permissions():
/workspace/benchmark/optee-sdp/ta/platform/stub.c:139
     29c:	b51f      	push	{r0, r1, r2, r3, r4, lr}
/workspace/benchmark/optee-sdp/ta/platform/stub.c:140
     29e:	68c4      	ldr	r4, [r0, #12]
     2a0:	b90c      	cbnz	r4, 2a6 <platform_check_permissions+0xa>
/workspace/benchmark/optee-sdp/ta/platform/stub.c:140 (discriminator 1)
     2a2:	2a02      	cmp	r2, #2
     2a4:	d030      	beq.n	308 <platform_check_permissions+0x6c>
/workspace/benchmark/optee-sdp/ta/platform/stub.c:143
     2a6:	6c09      	ldr	r1, [r1, #64]	; 0x40
     2a8:	428c      	cmp	r4, r1
     2aa:	d101      	bne.n	2b0 <platform_check_permissions+0x14>
/workspace/benchmark/optee-sdp/ta/platform/stub.c:143 (discriminator 1)
     2ac:	2a02      	cmp	r2, #2
     2ae:	d02b      	beq.n	308 <platform_check_permissions+0x6c>
/workspace/benchmark/optee-sdp/ta/platform/stub.c:146
     2b0:	f004 437f 	and.w	r3, r4, #4278190080	; 0xff000000
     2b4:	f1b3 7f40 	cmp.w	r3, #50331648	; 0x3000000
     2b8:	d10d      	bne.n	2d6 <platform_check_permissions+0x3a>
/workspace/benchmark/optee-sdp/ta/platform/stub.c:146 (discriminator 1)
     2ba:	2a02      	cmp	r2, #2
     2bc:	d015      	beq.n	2ea <platform_check_permissions+0x4e>
/workspace/benchmark/optee-sdp/ta/platform/stub.c:146 (discriminator 2)
     2be:	f001 437f 	and.w	r3, r1, #4278190080	; 0xff000000
     2c2:	f1b3 6f80 	cmp.w	r3, #67108864	; 0x4000000
     2c6:	d10d      	bne.n	2e4 <platform_check_permissions+0x48>
/workspace/benchmark/optee-sdp/ta/platform/stub.c:155
     2c8:	ea84 0301 	eor.w	r3, r4, r1
     2cc:	f413 007f 	ands.w	r0, r3, #16711680	; 0xff0000
     2d0:	d10b      	bne.n	2ea <platform_check_permissions+0x4e>
/workspace/benchmark/optee-sdp/ta/platform/stub.c:160
     2d2:	b004      	add	sp, #16
     2d4:	bd10      	pop	{r4, pc}
/workspace/benchmark/optee-sdp/ta/platform/stub.c:154
     2d6:	f1b3 6f80 	cmp.w	r3, #67108864	; 0x4000000
     2da:	d106      	bne.n	2ea <platform_check_permissions+0x4e>
/workspace/benchmark/optee-sdp/ta/platform/stub.c:154 (discriminator 1)
     2dc:	2a02      	cmp	r2, #2
     2de:	d004      	beq.n	2ea <platform_check_permissions+0x4e>
/workspace/benchmark/optee-sdp/ta/platform/stub.c:154 (discriminator 2)
     2e0:	f001 437f 	and.w	r3, r1, #4278190080	; 0xff000000
     2e4:	f1b3 6fa0 	cmp.w	r3, #83886080	; 0x5000000
     2e8:	d0ee      	beq.n	2c8 <platform_check_permissions+0x2c>
/workspace/benchmark/optee-sdp/ta/platform/stub.c:158
     2ea:	4b08      	ldr	r3, [pc, #32]	; (30c <platform_check_permissions+0x70>)
     2ec:	4808      	ldr	r0, [pc, #32]	; (310 <platform_check_permissions+0x74>)
     2ee:	9103      	str	r1, [sp, #12]
     2f0:	447b      	add	r3, pc
     2f2:	9202      	str	r2, [sp, #8]
     2f4:	4478      	add	r0, pc
     2f6:	9300      	str	r3, [sp, #0]
     2f8:	2202      	movs	r2, #2
     2fa:	9401      	str	r4, [sp, #4]
     2fc:	2301      	movs	r3, #1
     2fe:	219e      	movs	r1, #158	; 0x9e
     300:	f000 fce8 	bl	cd4 <trace_printf>
/workspace/benchmark/optee-sdp/ta/platform/stub.c:159
     304:	2001      	movs	r0, #1
     306:	e7e4      	b.n	2d2 <platform_check_permissions+0x36>
/workspace/benchmark/optee-sdp/ta/platform/stub.c:141
     308:	2000      	movs	r0, #0
     30a:	e7e2      	b.n	2d2 <platform_check_permissions+0x36>
     30c:	000061fd 	.word	0x000061fd
     310:	000061de 	.word	0x000061de

00000314 <platform_add_device_to_region>:
platform_add_device_to_region():
/workspace/benchmark/optee-sdp/ta/platform/stub.c:163
     314:	b570      	push	{r4, r5, r6, lr}
/workspace/benchmark/optee-sdp/ta/platform/stub.c:166
     316:	2a02      	cmp	r2, #2
     318:	6c0c      	ldr	r4, [r1, #64]	; 0x40
     31a:	d100      	bne.n	31e <platform_add_device_to_region+0xa>
/workspace/benchmark/optee-sdp/ta/platform/stub.c:167
     31c:	60c4      	str	r4, [r0, #12]
     31e:	f100 0510 	add.w	r5, r0, #16
/workspace/benchmark/optee-sdp/ta/platform/stub.c:170
     322:	2300      	movs	r3, #0
/workspace/benchmark/optee-sdp/ta/platform/stub.c:171
     324:	f855 6b04 	ldr.w	r6, [r5], #4
     328:	b93e      	cbnz	r6, 33a <platform_add_device_to_region+0x26>
     32a:	eb00 0083 	add.w	r0, r0, r3, lsl #2
/workspace/benchmark/optee-sdp/ta/platform/stub.c:181
     32e:	6c4b      	ldr	r3, [r1, #68]	; 0x44
/workspace/benchmark/optee-sdp/ta/platform/stub.c:172
     330:	6104      	str	r4, [r0, #16]
/workspace/benchmark/optee-sdp/ta/platform/stub.c:173
     332:	61c2      	str	r2, [r0, #28]
/workspace/benchmark/optee-sdp/ta/platform/stub.c:181
     334:	4798      	blx	r3
/workspace/benchmark/optee-sdp/ta/platform/stub.c:183
     336:	2000      	movs	r0, #0
     338:	bd70      	pop	{r4, r5, r6, pc}
/workspace/benchmark/optee-sdp/ta/platform/stub.c:171 (discriminator 1)
     33a:	42a6      	cmp	r6, r4
     33c:	d0f5      	beq.n	32a <platform_add_device_to_region+0x16>
/workspace/benchmark/optee-sdp/ta/platform/stub.c:170 (discriminator 2)
     33e:	3301      	adds	r3, #1
     340:	2b03      	cmp	r3, #3
     342:	d1ef      	bne.n	324 <platform_add_device_to_region+0x10>
/workspace/benchmark/optee-sdp/ta/platform/stub.c:178
     344:	2001      	movs	r0, #1
/workspace/benchmark/optee-sdp/ta/platform/stub.c:184
     346:	bd70      	pop	{r4, r5, r6, pc}

00000348 <platform_remove_device_from_region>:
platform_remove_device_from_region():
/workspace/benchmark/optee-sdp/ta/platform/stub.c:191
     348:	6c0b      	ldr	r3, [r1, #64]	; 0x40
     34a:	6902      	ldr	r2, [r0, #16]
/workspace/benchmark/optee-sdp/ta/platform/stub.c:187
     34c:	b510      	push	{r4, lr}
/workspace/benchmark/optee-sdp/ta/platform/stub.c:191
     34e:	4293      	cmp	r3, r2
     350:	d00f      	beq.n	372 <platform_remove_device_from_region+0x2a>
     352:	6942      	ldr	r2, [r0, #20]
     354:	4293      	cmp	r3, r2
     356:	d00e      	beq.n	376 <platform_remove_device_from_region+0x2e>
     358:	6982      	ldr	r2, [r0, #24]
     35a:	429a      	cmp	r2, r3
     35c:	d10d      	bne.n	37a <platform_remove_device_from_region+0x32>
/workspace/benchmark/optee-sdp/ta/platform/stub.c:190
     35e:	2302      	movs	r3, #2
     360:	eb00 0383 	add.w	r3, r0, r3, lsl #2
/workspace/benchmark/optee-sdp/ta/platform/stub.c:192
     364:	2400      	movs	r4, #0
     366:	611c      	str	r4, [r3, #16]
/workspace/benchmark/optee-sdp/ta/platform/stub.c:193
     368:	61dc      	str	r4, [r3, #28]
/workspace/benchmark/optee-sdp/ta/platform/stub.c:201
     36a:	6c8b      	ldr	r3, [r1, #72]	; 0x48
     36c:	4798      	blx	r3
/workspace/benchmark/optee-sdp/ta/platform/stub.c:202
     36e:	4620      	mov	r0, r4
     370:	bd10      	pop	{r4, pc}
/workspace/benchmark/optee-sdp/ta/platform/stub.c:190
     372:	2300      	movs	r3, #0
     374:	e7f4      	b.n	360 <platform_remove_device_from_region+0x18>
     376:	2301      	movs	r3, #1
     378:	e7f2      	b.n	360 <platform_remove_device_from_region+0x18>
/workspace/benchmark/optee-sdp/ta/platform/stub.c:198
     37a:	2001      	movs	r0, #1
/workspace/benchmark/optee-sdp/ta/platform/stub.c:203
     37c:	bd10      	pop	{r4, pc}

0000037e <platform_dump_status>:
platform_dump_status():
/workspace/benchmark/optee-sdp/ta/platform/stub.c:206
     37e:	e92d 47f3 	stmdb	sp!, {r0, r1, r4, r5, r6, r7, r8, r9, sl, lr}
     382:	4605      	mov	r5, r0
/workspace/benchmark/optee-sdp/ta/platform/stub.c:210
     384:	4a3e      	ldr	r2, [pc, #248]	; (480 <platform_dump_status+0x102>)
     386:	6800      	ldr	r0, [r0, #0]
/workspace/benchmark/optee-sdp/ta/platform/stub.c:206
     388:	460c      	mov	r4, r1
/workspace/benchmark/optee-sdp/ta/platform/stub.c:210
     38a:	447a      	add	r2, pc
/workspace/benchmark/optee-sdp/ta/platform/stub.c:215
     38c:	f8df 80f4 	ldr.w	r8, [pc, #244]	; 484 <platform_dump_status+0x106>
     390:	4f3d      	ldr	r7, [pc, #244]	; (488 <platform_dump_status+0x10a>)
/workspace/benchmark/optee-sdp/ta/platform/stub.c:210
     392:	f005 fda5 	bl	5ee0 <snprintf>
/workspace/benchmark/optee-sdp/ta/platform/stub.c:211
     396:	682b      	ldr	r3, [r5, #0]
/workspace/benchmark/optee-sdp/ta/platform/stub.c:212
     398:	1a24      	subs	r4, r4, r0
     39a:	2600      	movs	r6, #0
/workspace/benchmark/optee-sdp/ta/platform/stub.c:215
     39c:	44f8      	add	r8, pc
     39e:	447f      	add	r7, pc
/workspace/benchmark/optee-sdp/ta/platform/stub.c:211
     3a0:	4403      	add	r3, r0
     3a2:	602b      	str	r3, [r5, #0]
/workspace/benchmark/optee-sdp/ta/platform/stub.c:215 (discriminator 3)
     3a4:	eb08 0306 	add.w	r3, r8, r6
     3a8:	4621      	mov	r1, r4
     3aa:	6828      	ldr	r0, [r5, #0]
     3ac:	364c      	adds	r6, #76	; 0x4c
     3ae:	6c1a      	ldr	r2, [r3, #64]	; 0x40
     3b0:	9200      	str	r2, [sp, #0]
     3b2:	463a      	mov	r2, r7
     3b4:	f005 fd94 	bl	5ee0 <snprintf>
/workspace/benchmark/optee-sdp/ta/platform/stub.c:216 (discriminator 3)
     3b8:	682b      	ldr	r3, [r5, #0]
/workspace/benchmark/optee-sdp/ta/platform/stub.c:215 (discriminator 3)
     3ba:	4602      	mov	r2, r0
/workspace/benchmark/optee-sdp/ta/platform/stub.c:214 (discriminator 3)
     3bc:	2ee4      	cmp	r6, #228	; 0xe4
/workspace/benchmark/optee-sdp/ta/platform/stub.c:216 (discriminator 3)
     3be:	4418      	add	r0, r3
/workspace/benchmark/optee-sdp/ta/platform/stub.c:217 (discriminator 3)
     3c0:	eba4 0402 	sub.w	r4, r4, r2
/workspace/benchmark/optee-sdp/ta/platform/stub.c:216 (discriminator 3)
     3c4:	6028      	str	r0, [r5, #0]
/workspace/benchmark/optee-sdp/ta/platform/stub.c:214 (discriminator 3)
     3c6:	d1ed      	bne.n	3a4 <platform_dump_status+0x26>
/workspace/benchmark/optee-sdp/ta/platform/stub.c:220
     3c8:	4f30      	ldr	r7, [pc, #192]	; (48c <platform_dump_status+0x10e>)
     3ca:	4621      	mov	r1, r4
     3cc:	4a30      	ldr	r2, [pc, #192]	; (490 <platform_dump_status+0x112>)
     3ce:	447f      	add	r7, pc
/workspace/benchmark/optee-sdp/ta/platform/stub.c:235
     3d0:	f8df 90c0 	ldr.w	r9, [pc, #192]	; 494 <platform_dump_status+0x116>
/workspace/benchmark/optee-sdp/ta/platform/stub.c:220
     3d4:	447a      	add	r2, pc
/workspace/benchmark/optee-sdp/ta/platform/stub.c:241
     3d6:	f8df a0c0 	ldr.w	sl, [pc, #192]	; 498 <platform_dump_status+0x11a>
/workspace/benchmark/optee-sdp/ta/platform/stub.c:235
     3da:	44f9      	add	r9, pc
/workspace/benchmark/optee-sdp/ta/platform/stub.c:220
     3dc:	683b      	ldr	r3, [r7, #0]
/workspace/benchmark/optee-sdp/ta/platform/stub.c:241
     3de:	44fa      	add	sl, pc
/workspace/benchmark/optee-sdp/ta/platform/stub.c:220
     3e0:	f005 fd7e 	bl	5ee0 <snprintf>
/workspace/benchmark/optee-sdp/ta/platform/stub.c:221
     3e4:	682e      	ldr	r6, [r5, #0]
/workspace/benchmark/optee-sdp/ta/platform/stub.c:224
     3e6:	4a2d      	ldr	r2, [pc, #180]	; (49c <platform_dump_status+0x11e>)
/workspace/benchmark/optee-sdp/ta/platform/stub.c:222
     3e8:	1a24      	subs	r4, r4, r0
/workspace/benchmark/optee-sdp/ta/platform/stub.c:221
     3ea:	4406      	add	r6, r0
/workspace/benchmark/optee-sdp/ta/platform/stub.c:224
     3ec:	687b      	ldr	r3, [r7, #4]
     3ee:	4621      	mov	r1, r4
/workspace/benchmark/optee-sdp/ta/platform/stub.c:221
     3f0:	602e      	str	r6, [r5, #0]
/workspace/benchmark/optee-sdp/ta/platform/stub.c:224
     3f2:	447a      	add	r2, pc
     3f4:	4630      	mov	r0, r6
     3f6:	f005 fd73 	bl	5ee0 <snprintf>
/workspace/benchmark/optee-sdp/ta/platform/stub.c:225
     3fa:	682e      	ldr	r6, [r5, #0]
/workspace/benchmark/optee-sdp/ta/platform/stub.c:228
     3fc:	4a28      	ldr	r2, [pc, #160]	; (4a0 <platform_dump_status+0x122>)
/workspace/benchmark/optee-sdp/ta/platform/stub.c:226
     3fe:	1a24      	subs	r4, r4, r0
/workspace/benchmark/optee-sdp/ta/platform/stub.c:225
     400:	4406      	add	r6, r0
/workspace/benchmark/optee-sdp/ta/platform/stub.c:228
     402:	68bb      	ldr	r3, [r7, #8]
/workspace/benchmark/optee-sdp/ta/platform/stub.c:225
     404:	602e      	str	r6, [r5, #0]
/workspace/benchmark/optee-sdp/ta/platform/stub.c:228
     406:	4621      	mov	r1, r4
     408:	4630      	mov	r0, r6
     40a:	447a      	add	r2, pc
     40c:	f005 fd68 	bl	5ee0 <snprintf>
/workspace/benchmark/optee-sdp/ta/platform/stub.c:229
     410:	682b      	ldr	r3, [r5, #0]
     412:	f107 0628 	add.w	r6, r7, #40	; 0x28
/workspace/benchmark/optee-sdp/ta/platform/stub.c:230
     416:	1a24      	subs	r4, r4, r0
     418:	f507 7752 	add.w	r7, r7, #840	; 0x348
/workspace/benchmark/optee-sdp/ta/platform/stub.c:229
     41c:	4403      	add	r3, r0
     41e:	602b      	str	r3, [r5, #0]
/workspace/benchmark/optee-sdp/ta/platform/stub.c:233
     420:	e956 2306 	ldrd	r2, r3, [r6, #-24]
     424:	ea52 0103 	orrs.w	r1, r2, r3
     428:	d022      	beq.n	470 <platform_dump_status+0xf2>
/workspace/benchmark/optee-sdp/ta/platform/stub.c:235
     42a:	f856 3c0c 	ldr.w	r3, [r6, #-12]
     42e:	4621      	mov	r1, r4
     430:	9301      	str	r3, [sp, #4]
     432:	f1a6 080c 	sub.w	r8, r6, #12
     436:	6828      	ldr	r0, [r5, #0]
     438:	f856 3c10 	ldr.w	r3, [r6, #-16]
     43c:	9300      	str	r3, [sp, #0]
     43e:	4613      	mov	r3, r2
     440:	464a      	mov	r2, r9
     442:	f005 fd4d 	bl	5ee0 <snprintf>
/workspace/benchmark/optee-sdp/ta/platform/stub.c:236
     446:	682b      	ldr	r3, [r5, #0]
/workspace/benchmark/optee-sdp/ta/platform/stub.c:237
     448:	1a24      	subs	r4, r4, r0
/workspace/benchmark/optee-sdp/ta/platform/stub.c:236
     44a:	4403      	add	r3, r0
     44c:	602b      	str	r3, [r5, #0]
/workspace/benchmark/optee-sdp/ta/platform/stub.c:240
     44e:	f858 3f04 	ldr.w	r3, [r8, #4]!
     452:	b15b      	cbz	r3, 46c <platform_dump_status+0xee>
/workspace/benchmark/optee-sdp/ta/platform/stub.c:241
     454:	f8d8 200c 	ldr.w	r2, [r8, #12]
     458:	4621      	mov	r1, r4
     45a:	9200      	str	r2, [sp, #0]
     45c:	4652      	mov	r2, sl
     45e:	6828      	ldr	r0, [r5, #0]
     460:	f005 fd3e 	bl	5ee0 <snprintf>
/workspace/benchmark/optee-sdp/ta/platform/stub.c:242
     464:	682b      	ldr	r3, [r5, #0]
/workspace/benchmark/optee-sdp/ta/platform/stub.c:243
     466:	1a24      	subs	r4, r4, r0
/workspace/benchmark/optee-sdp/ta/platform/stub.c:242
     468:	4403      	add	r3, r0
     46a:	602b      	str	r3, [r5, #0]
/workspace/benchmark/optee-sdp/ta/platform/stub.c:239 (discriminator 2)
     46c:	4546      	cmp	r6, r8
     46e:	d1ee      	bne.n	44e <platform_dump_status+0xd0>
     470:	3628      	adds	r6, #40	; 0x28
/workspace/benchmark/optee-sdp/ta/platform/stub.c:232 (discriminator 2)
     472:	42be      	cmp	r6, r7
     474:	d1d4      	bne.n	420 <platform_dump_status+0xa2>
/workspace/benchmark/optee-sdp/ta/platform/stub.c:249
     476:	2000      	movs	r0, #0
     478:	b002      	add	sp, #8
     47a:	e8bd 87f0 	ldmia.w	sp!, {r4, r5, r6, r7, r8, r9, sl, pc}
     47e:	bf00      	nop
     480:	000061b1 	.word	0x000061b1
     484:	00007c60 	.word	0x00007c60
     488:	000061b0 	.word	0x000061b0
     48c:	00007dae 	.word	0x00007dae
     490:	00006192 	.word	0x00006192
     494:	000061e3 	.word	0x000061e3
     498:	00006205 	.word	0x00006205
     49c:	00006191 	.word	0x00006191
     4a0:	00006198 	.word	0x00006198

000004a4 <platform_dump_device>:
platform_dump_device():
/workspace/benchmark/optee-sdp/ta/platform/stub.c:252
     4a4:	e92d 41f3 	stmdb	sp!, {r0, r1, r4, r5, r6, r7, r8, lr}
     4a8:	4606      	mov	r6, r0
/workspace/benchmark/optee-sdp/ta/platform/stub.c:256
     4aa:	4a10      	ldr	r2, [pc, #64]	; (4ec <platform_dump_device+0x48>)
     4ac:	4c10      	ldr	r4, [pc, #64]	; (4f0 <platform_dump_device+0x4c>)
/workspace/benchmark/optee-sdp/ta/platform/stub.c:252
     4ae:	460d      	mov	r5, r1
/workspace/benchmark/optee-sdp/ta/platform/stub.c:261
     4b0:	f8df 8040 	ldr.w	r8, [pc, #64]	; 4f4 <platform_dump_device+0x50>
/workspace/benchmark/optee-sdp/ta/platform/stub.c:256
     4b4:	447a      	add	r2, pc
     4b6:	447c      	add	r4, pc
     4b8:	f005 fd12 	bl	5ee0 <snprintf>
     4bc:	f104 07e4 	add.w	r7, r4, #228	; 0xe4
/workspace/benchmark/optee-sdp/ta/platform/stub.c:257
     4c0:	4406      	add	r6, r0
/workspace/benchmark/optee-sdp/ta/platform/stub.c:258
     4c2:	1a2d      	subs	r5, r5, r0
/workspace/benchmark/optee-sdp/ta/platform/stub.c:261
     4c4:	44f8      	add	r8, pc
/workspace/benchmark/optee-sdp/ta/platform/stub.c:261 (discriminator 3)
     4c6:	6c23      	ldr	r3, [r4, #64]	; 0x40
     4c8:	4629      	mov	r1, r5
     4ca:	9300      	str	r3, [sp, #0]
     4cc:	4630      	mov	r0, r6
     4ce:	4623      	mov	r3, r4
     4d0:	4642      	mov	r2, r8
     4d2:	344c      	adds	r4, #76	; 0x4c
     4d4:	f005 fd04 	bl	5ee0 <snprintf>
/workspace/benchmark/optee-sdp/ta/platform/stub.c:260 (discriminator 3)
     4d8:	42bc      	cmp	r4, r7
/workspace/benchmark/optee-sdp/ta/platform/stub.c:262 (discriminator 3)
     4da:	4406      	add	r6, r0
/workspace/benchmark/optee-sdp/ta/platform/stub.c:263 (discriminator 3)
     4dc:	eba5 0500 	sub.w	r5, r5, r0
/workspace/benchmark/optee-sdp/ta/platform/stub.c:260 (discriminator 3)
     4e0:	d1f1      	bne.n	4c6 <platform_dump_device+0x22>
/workspace/benchmark/optee-sdp/ta/platform/stub.c:266
     4e2:	2000      	movs	r0, #0
     4e4:	b002      	add	sp, #8
     4e6:	e8bd 81f0 	ldmia.w	sp!, {r4, r5, r6, r7, r8, pc}
     4ea:	bf00      	nop
     4ec:	00006087 	.word	0x00006087
     4f0:	00007b46 	.word	0x00007b46
     4f4:	0000608a 	.word	0x0000608a

000004f8 <__vsnprintf>:
__vsnprintf():
/mnt/disk/raspbian-tee/optee_os/lib/libutils/ext/snprintk.c:137
     4f8:	e92d 4ff0 	stmdb	sp!, {r4, r5, r6, r7, r8, r9, sl, fp, lr}
/mnt/disk/raspbian-tee/optee_os/lib/libutils/ext/snprintk.c:141
     4fc:	4680      	mov	r8, r0
     4fe:	461f      	mov	r7, r3
/mnt/disk/raspbian-tee/optee_os/lib/libutils/ext/snprintk.c:137
     500:	b09f      	sub	sp, #124	; 0x7c
kprintf():
/mnt/disk/raspbian-tee/optee_os/lib/libutils/ext/snprintk.c:269
     502:	2300      	movs	r3, #0
__vsnprintf():
/mnt/disk/raspbian-tee/optee_os/lib/libutils/ext/snprintk.c:137
     504:	920b      	str	r2, [sp, #44]	; 0x2c
     506:	f89d 20a0 	ldrb.w	r2, [sp, #160]	; 0xa0
     50a:	9213      	str	r2, [sp, #76]	; 0x4c
/mnt/disk/raspbian-tee/optee_os/lib/libutils/ext/snprintk.c:141
     50c:	4602      	mov	r2, r0
     50e:	440a      	add	r2, r1
/mnt/disk/raspbian-tee/optee_os/lib/libutils/ext/snprintk.c:137
     510:	9010      	str	r0, [sp, #64]	; 0x40
     512:	9112      	str	r1, [sp, #72]	; 0x48
/mnt/disk/raspbian-tee/optee_os/lib/libutils/ext/snprintk.c:141
     514:	920e      	str	r2, [sp, #56]	; 0x38
kprintf():
/mnt/disk/raspbian-tee/optee_os/lib/libutils/ext/snprintk.c:269
     516:	930f      	str	r3, [sp, #60]	; 0x3c
/mnt/disk/raspbian-tee/optee_os/lib/libutils/ext/snprintk.c:267
     518:	930c      	str	r3, [sp, #48]	; 0x30
/mnt/disk/raspbian-tee/optee_os/lib/libutils/ext/snprintk.c:275
     51a:	9b0b      	ldr	r3, [sp, #44]	; 0x2c
     51c:	781b      	ldrb	r3, [r3, #0]
     51e:	2b25      	cmp	r3, #37	; 0x25
     520:	d024      	beq.n	56c <__vsnprintf+0x74>
     522:	b993      	cbnz	r3, 54a <__vsnprintf+0x52>
__vsnprintf():
/mnt/disk/raspbian-tee/optee_os/lib/libutils/ext/snprintk.c:143
     524:	9b10      	ldr	r3, [sp, #64]	; 0x40
     526:	b163      	cbz	r3, 542 <__vsnprintf+0x4a>
/mnt/disk/raspbian-tee/optee_os/lib/libutils/ext/snprintk.c:143 (discriminator 1)
     528:	9b12      	ldr	r3, [sp, #72]	; 0x48
     52a:	b153      	cbz	r3, 542 <__vsnprintf+0x4a>
/mnt/disk/raspbian-tee/optee_os/lib/libutils/ext/snprintk.c:145
     52c:	9a0c      	ldr	r2, [sp, #48]	; 0x30
     52e:	4293      	cmp	r3, r2
     530:	f04f 0300 	mov.w	r3, #0
/mnt/disk/raspbian-tee/optee_os/lib/libutils/ext/snprintk.c:146
     534:	9a10      	ldr	r2, [sp, #64]	; 0x40
/mnt/disk/raspbian-tee/optee_os/lib/libutils/ext/snprintk.c:145
     536:	f200 835f 	bhi.w	bf8 <__vsnprintf+0x700>
/mnt/disk/raspbian-tee/optee_os/lib/libutils/ext/snprintk.c:146
     53a:	9912      	ldr	r1, [sp, #72]	; 0x48
     53c:	440a      	add	r2, r1
     53e:	f802 3c01 	strb.w	r3, [r2, #-1]
/mnt/disk/raspbian-tee/optee_os/lib/libutils/ext/snprintk.c:151
     542:	980c      	ldr	r0, [sp, #48]	; 0x30
     544:	b01f      	add	sp, #124	; 0x7c
     546:	e8bd 8ff0 	ldmia.w	sp!, {r4, r5, r6, r7, r8, r9, sl, fp, pc}
kprintf():
/mnt/disk/raspbian-tee/optee_os/lib/libutils/ext/snprintk.c:276
     54a:	9a0c      	ldr	r2, [sp, #48]	; 0x30
     54c:	3201      	adds	r2, #1
     54e:	920c      	str	r2, [sp, #48]	; 0x30
/mnt/disk/raspbian-tee/optee_os/lib/libutils/ext/snprintk.c:277
     550:	f1b8 0f00 	cmp.w	r8, #0
     554:	d006      	beq.n	564 <__vsnprintf+0x6c>
     556:	9a0e      	ldr	r2, [sp, #56]	; 0x38
     558:	4542      	cmp	r2, r8
     55a:	d903      	bls.n	564 <__vsnprintf+0x6c>
     55c:	f888 3000 	strb.w	r3, [r8]
     560:	f108 0801 	add.w	r8, r8, #1
/mnt/disk/raspbian-tee/optee_os/lib/libutils/ext/snprintk.c:275
     564:	9b0b      	ldr	r3, [sp, #44]	; 0x2c
     566:	3301      	adds	r3, #1
     568:	930b      	str	r3, [sp, #44]	; 0x2c
     56a:	e7d6      	b.n	51a <__vsnprintf+0x22>
/mnt/disk/raspbian-tee/optee_os/lib/libutils/ext/snprintk.c:282
     56c:	9b0b      	ldr	r3, [sp, #44]	; 0x2c
/mnt/disk/raspbian-tee/optee_os/lib/libutils/ext/snprintk.c:288
     56e:	f04f 0a00 	mov.w	sl, #0
/mnt/disk/raspbian-tee/optee_os/lib/libutils/ext/snprintk.c:282
     572:	463a      	mov	r2, r7
/mnt/disk/raspbian-tee/optee_os/lib/libutils/ext/snprintk.c:287
     574:	f04f 3bff 	mov.w	fp, #4294967295	; 0xffffffff
/mnt/disk/raspbian-tee/optee_os/lib/libutils/ext/snprintk.c:282
     578:	3301      	adds	r3, #1
/mnt/disk/raspbian-tee/optee_os/lib/libutils/ext/snprintk.c:284
     57a:	4656      	mov	r6, sl
/mnt/disk/raspbian-tee/optee_os/lib/libutils/ext/snprintk.c:286
     57c:	f8cd a034 	str.w	sl, [sp, #52]	; 0x34
/mnt/disk/raspbian-tee/optee_os/lib/libutils/ext/snprintk.c:290
     580:	f893 9000 	ldrb.w	r9, [r3]
     584:	1c59      	adds	r1, r3, #1
     586:	910b      	str	r1, [sp, #44]	; 0x2c
/mnt/disk/raspbian-tee/optee_os/lib/libutils/ext/snprintk.c:291
     588:	f1b9 0f63 	cmp.w	r9, #99	; 0x63
     58c:	f000 8163 	beq.w	856 <__vsnprintf+0x35e>
     590:	f300 8095 	bgt.w	6be <__vsnprintf+0x1c6>
     594:	f1b9 0f30 	cmp.w	r9, #48	; 0x30
     598:	f000 8147 	beq.w	82a <__vsnprintf+0x332>
     59c:	dc26      	bgt.n	5ec <__vsnprintf+0xf4>
     59e:	f1b9 0f2a 	cmp.w	r9, #42	; 0x2a
     5a2:	f000 8119 	beq.w	7d8 <__vsnprintf+0x2e0>
     5a6:	dc13      	bgt.n	5d0 <__vsnprintf+0xd8>
     5a8:	f1b9 0f20 	cmp.w	r9, #32
     5ac:	f000 810a 	beq.w	7c4 <__vsnprintf+0x2cc>
     5b0:	f1b9 0f23 	cmp.w	r9, #35	; 0x23
     5b4:	f000 810d 	beq.w	7d2 <__vsnprintf+0x2da>
/mnt/disk/raspbian-tee/optee_os/lib/libutils/ext/snprintk.c:541
     5b8:	f1b9 0f00 	cmp.w	r9, #0
     5bc:	d0b2      	beq.n	524 <__vsnprintf+0x2c>
/mnt/disk/raspbian-tee/optee_os/lib/libutils/ext/snprintk.c:545
     5be:	ab1e      	add	r3, sp, #120	; 0x78
     5c0:	4617      	mov	r7, r2
/mnt/disk/raspbian-tee/optee_os/lib/libutils/ext/snprintk.c:546
     5c2:	f04f 0b01 	mov.w	fp, #1
/mnt/disk/raspbian-tee/optee_os/lib/libutils/ext/snprintk.c:545
     5c6:	f803 9d28 	strb.w	r9, [r3, #-40]!
     5ca:	e0c0      	b.n	74e <__vsnprintf+0x256>
/mnt/disk/raspbian-tee/optee_os/lib/libutils/ext/snprintk.c:311
     5cc:	461a      	mov	r2, r3
     5ce:	e00b      	b.n	5e8 <__vsnprintf+0xf0>
/mnt/disk/raspbian-tee/optee_os/lib/libutils/ext/snprintk.c:291
     5d0:	f1b9 0f2d 	cmp.w	r9, #45	; 0x2d
     5d4:	f000 8109 	beq.w	7ea <__vsnprintf+0x2f2>
     5d8:	f1b9 0f2e 	cmp.w	r9, #46	; 0x2e
     5dc:	f000 8108 	beq.w	7f0 <__vsnprintf+0x2f8>
     5e0:	f1b9 0f2b 	cmp.w	r9, #43	; 0x2b
     5e4:	d1e8      	bne.n	5b8 <__vsnprintf+0xc0>
/mnt/disk/raspbian-tee/optee_os/lib/libutils/ext/snprintk.c:319
     5e6:	46ca      	mov	sl, r9
/mnt/disk/raspbian-tee/optee_os/lib/libutils/ext/snprintk.c:322
     5e8:	9b0b      	ldr	r3, [sp, #44]	; 0x2c
     5ea:	e7c9      	b.n	580 <__vsnprintf+0x88>
/mnt/disk/raspbian-tee/optee_os/lib/libutils/ext/snprintk.c:291
     5ec:	f1b9 0f44 	cmp.w	r9, #68	; 0x44
     5f0:	f000 818a 	beq.w	908 <__vsnprintf+0x410>
     5f4:	dc14      	bgt.n	620 <__vsnprintf+0x128>
     5f6:	f1b9 0f39 	cmp.w	r9, #57	; 0x39
     5fa:	dcdd      	bgt.n	5b8 <__vsnprintf+0xc0>
     5fc:	2300      	movs	r3, #0
     5fe:	930d      	str	r3, [sp, #52]	; 0x34
/mnt/disk/raspbian-tee/optee_os/lib/libutils/ext/snprintk.c:346
     600:	9b0d      	ldr	r3, [sp, #52]	; 0x34
     602:	f1a9 0930 	sub.w	r9, r9, #48	; 0x30
     606:	210a      	movs	r1, #10
     608:	fb01 9303 	mla	r3, r1, r3, r9
     60c:	930d      	str	r3, [sp, #52]	; 0x34
/mnt/disk/raspbian-tee/optee_os/lib/libutils/ext/snprintk.c:347
     60e:	9b0b      	ldr	r3, [sp, #44]	; 0x2c
     610:	f813 9b01 	ldrb.w	r9, [r3], #1
     614:	930b      	str	r3, [sp, #44]	; 0x2c
/mnt/disk/raspbian-tee/optee_os/lib/libutils/ext/snprintk.c:348
     616:	f1a9 0330 	sub.w	r3, r9, #48	; 0x30
     61a:	2b09      	cmp	r3, #9
     61c:	d9f0      	bls.n	600 <__vsnprintf+0x108>
     61e:	e7b3      	b.n	588 <__vsnprintf+0x90>
/mnt/disk/raspbian-tee/optee_os/lib/libutils/ext/snprintk.c:291
     620:	f1b9 0f55 	cmp.w	r9, #85	; 0x55
     624:	f000 823d 	beq.w	aa2 <__vsnprintf+0x5aa>
     628:	f1b9 0f58 	cmp.w	r9, #88	; 0x58
     62c:	f000 80ab 	beq.w	786 <__vsnprintf+0x28e>
     630:	f1b9 0f4f 	cmp.w	r9, #79	; 0x4f
     634:	d1c0      	bne.n	5b8 <__vsnprintf+0xc0>
/mnt/disk/raspbian-tee/optee_os/lib/libutils/ext/snprintk.c:408
     636:	f046 0610 	orr.w	r6, r6, #16
/mnt/disk/raspbian-tee/optee_os/lib/libutils/ext/snprintk.c:411
     63a:	0635      	lsls	r5, r6, #24
     63c:	f140 81c0 	bpl.w	9c0 <__vsnprintf+0x4c8>
     640:	3207      	adds	r2, #7
     642:	f022 0207 	bic.w	r2, r2, #7
     646:	f102 0708 	add.w	r7, r2, #8
     64a:	e9d2 4500 	ldrd	r4, r5, [r2]
/mnt/disk/raspbian-tee/optee_os/lib/libutils/ext/snprintk.c:488
     64e:	f04f 0a00 	mov.w	sl, #0
     652:	f1bb 3fff 	cmp.w	fp, #4294967295	; 0xffffffff
     656:	d011      	beq.n	67c <__vsnprintf+0x184>
     658:	4653      	mov	r3, sl
/mnt/disk/raspbian-tee/optee_os/lib/libutils/ext/snprintk.c:489
     65a:	f426 6680 	bic.w	r6, r6, #1024	; 0x400
/mnt/disk/raspbian-tee/optee_os/lib/libutils/ext/snprintk.c:497
     65e:	ea54 0205 	orrs.w	r2, r4, r5
     662:	d105      	bne.n	670 <__vsnprintf+0x178>
     664:	f1bb 0f00 	cmp.w	fp, #0
     668:	f000 8269 	beq.w	b3e <__vsnprintf+0x646>
     66c:	2400      	movs	r4, #0
     66e:	2500      	movs	r5, #0
/mnt/disk/raspbian-tee/optee_os/lib/libutils/ext/snprintk.c:503
     670:	2b01      	cmp	r3, #1
     672:	f000 8161 	beq.w	938 <__vsnprintf+0x440>
     676:	2b02      	cmp	r3, #2
     678:	f000 81f8 	beq.w	a6c <__vsnprintf+0x574>
/mnt/disk/raspbian-tee/optee_os/lib/libutils/ext/snprintk.c:488
     67c:	f10d 0275 	add.w	r2, sp, #117	; 0x75
/mnt/disk/raspbian-tee/optee_os/lib/libutils/ext/snprintk.c:507
     680:	08e0      	lsrs	r0, r4, #3
     682:	ea4f 0cd5 	mov.w	ip, r5, lsr #3
     686:	ea40 7045 	orr.w	r0, r0, r5, lsl #29
/mnt/disk/raspbian-tee/optee_os/lib/libutils/ext/snprintk.c:506
     68a:	f004 0107 	and.w	r1, r4, #7
/mnt/disk/raspbian-tee/optee_os/lib/libutils/ext/snprintk.c:507
     68e:	4665      	mov	r5, ip
     690:	4604      	mov	r4, r0
/mnt/disk/raspbian-tee/optee_os/lib/libutils/ext/snprintk.c:506
     692:	3130      	adds	r1, #48	; 0x30
     694:	1e53      	subs	r3, r2, #1
     696:	f802 1c01 	strb.w	r1, [r2, #-1]
/mnt/disk/raspbian-tee/optee_os/lib/libutils/ext/snprintk.c:508
     69a:	ea54 0005 	orrs.w	r0, r4, r5
     69e:	f040 8239 	bne.w	b14 <__vsnprintf+0x61c>
/mnt/disk/raspbian-tee/optee_os/lib/libutils/ext/snprintk.c:510
     6a2:	07f5      	lsls	r5, r6, #31
     6a4:	d505      	bpl.n	6b2 <__vsnprintf+0x1ba>
     6a6:	2930      	cmp	r1, #48	; 0x30
     6a8:	d003      	beq.n	6b2 <__vsnprintf+0x1ba>
/mnt/disk/raspbian-tee/optee_os/lib/libutils/ext/snprintk.c:511
     6aa:	2130      	movs	r1, #48	; 0x30
     6ac:	f803 1c01 	strb.w	r1, [r3, #-1]
     6b0:	1e93      	subs	r3, r2, #2
/mnt/disk/raspbian-tee/optee_os/lib/libutils/ext/snprintk.c:537
     6b2:	f10d 0275 	add.w	r2, sp, #117	; 0x75
     6b6:	4658      	mov	r0, fp
     6b8:	eba2 0b03 	sub.w	fp, r2, r3
     6bc:	e0d5      	b.n	86a <__vsnprintf+0x372>
/mnt/disk/raspbian-tee/optee_os/lib/libutils/ext/snprintk.c:291
     6be:	f1b9 0f6f 	cmp.w	r9, #111	; 0x6f
     6c2:	d0ba      	beq.n	63a <__vsnprintf+0x142>
     6c4:	dc1e      	bgt.n	704 <__vsnprintf+0x20c>
     6c6:	f1b9 0f69 	cmp.w	r9, #105	; 0x69
     6ca:	f000 811f 	beq.w	90c <__vsnprintf+0x414>
     6ce:	dc0a      	bgt.n	6e6 <__vsnprintf+0x1ee>
     6d0:	f1b9 0f64 	cmp.w	r9, #100	; 0x64
     6d4:	f000 811a 	beq.w	90c <__vsnprintf+0x414>
     6d8:	f1b9 0f68 	cmp.w	r9, #104	; 0x68
     6dc:	f47f af6c 	bne.w	5b8 <__vsnprintf+0xc0>
/mnt/disk/raspbian-tee/optee_os/lib/libutils/ext/snprintk.c:352
     6e0:	f046 0640 	orr.w	r6, r6, #64	; 0x40
     6e4:	e780      	b.n	5e8 <__vsnprintf+0xf0>
/mnt/disk/raspbian-tee/optee_os/lib/libutils/ext/snprintk.c:291
     6e6:	f1b9 0f6c 	cmp.w	r9, #108	; 0x6c
     6ea:	f000 80a1 	beq.w	830 <__vsnprintf+0x338>
     6ee:	f1b9 0f6e 	cmp.w	r9, #110	; 0x6e
     6f2:	f000 8146 	beq.w	982 <__vsnprintf+0x48a>
     6f6:	f1b9 0f6a 	cmp.w	r9, #106	; 0x6a
     6fa:	f47f af5d 	bne.w	5b8 <__vsnprintf+0xc0>
/mnt/disk/raspbian-tee/optee_os/lib/libutils/ext/snprintk.c:355
     6fe:	f046 0680 	orr.w	r6, r6, #128	; 0x80
     702:	e771      	b.n	5e8 <__vsnprintf+0xf0>
/mnt/disk/raspbian-tee/optee_os/lib/libutils/ext/snprintk.c:291
     704:	f1b9 0f74 	cmp.w	r9, #116	; 0x74
     708:	f000 809f 	beq.w	84a <__vsnprintf+0x352>
     70c:	dc22      	bgt.n	754 <__vsnprintf+0x25c>
     70e:	f1b9 0f71 	cmp.w	r9, #113	; 0x71
     712:	f000 8094 	beq.w	83e <__vsnprintf+0x346>
     716:	f2c0 8167 	blt.w	9e8 <__vsnprintf+0x4f0>
     71a:	f1b9 0f73 	cmp.w	r9, #115	; 0x73
     71e:	f47f af4b 	bne.w	5b8 <__vsnprintf+0xc0>
/mnt/disk/raspbian-tee/optee_os/lib/libutils/ext/snprintk.c:442
     722:	6813      	ldr	r3, [r2, #0]
     724:	1d17      	adds	r7, r2, #4
     726:	b913      	cbnz	r3, 72e <__vsnprintf+0x236>
/mnt/disk/raspbian-tee/optee_os/lib/libutils/ext/snprintk.c:444
     728:	f8df 34ec 	ldr.w	r3, [pc, #1260]	; c18 <__vsnprintf+0x720>
     72c:	447b      	add	r3, pc
/mnt/disk/raspbian-tee/optee_os/lib/libutils/ext/snprintk.c:445
     72e:	f1bb 3fff 	cmp.w	fp, #4294967295	; 0xffffffff
     732:	f000 81ad 	beq.w	a90 <__vsnprintf+0x598>
/mnt/disk/raspbian-tee/optee_os/lib/libutils/ext/snprintk.c:451
     736:	4618      	mov	r0, r3
     738:	465a      	mov	r2, fp
     73a:	2100      	movs	r1, #0
     73c:	9311      	str	r3, [sp, #68]	; 0x44
     73e:	f005 fbfd 	bl	5f3c <memchr>
/mnt/disk/raspbian-tee/optee_os/lib/libutils/ext/snprintk.c:453
     742:	9b11      	ldr	r3, [sp, #68]	; 0x44
     744:	b120      	cbz	r0, 750 <__vsnprintf+0x258>
/mnt/disk/raspbian-tee/optee_os/lib/libutils/ext/snprintk.c:454
     746:	1ac0      	subs	r0, r0, r3
     748:	4583      	cmp	fp, r0
     74a:	bfa8      	it	ge
     74c:	4683      	movge	fp, r0
/mnt/disk/raspbian-tee/optee_os/lib/libutils/ext/snprintk.c:285
     74e:	2000      	movs	r0, #0
/mnt/disk/raspbian-tee/optee_os/lib/libutils/ext/snprintk.c:461
     750:	4682      	mov	sl, r0
     752:	e08a      	b.n	86a <__vsnprintf+0x372>
/mnt/disk/raspbian-tee/optee_os/lib/libutils/ext/snprintk.c:291
     754:	f1b9 0f78 	cmp.w	r9, #120	; 0x78
     758:	f000 81c2 	beq.w	ae0 <__vsnprintf+0x5e8>
     75c:	f1b9 0f7a 	cmp.w	r9, #122	; 0x7a
     760:	d076      	beq.n	850 <__vsnprintf+0x358>
     762:	f1b9 0f75 	cmp.w	r9, #117	; 0x75
     766:	f47f af27 	bne.w	5b8 <__vsnprintf+0xc0>
/mnt/disk/raspbian-tee/optee_os/lib/libutils/ext/snprintk.c:467
     76a:	f016 0380 	ands.w	r3, r6, #128	; 0x80
     76e:	f000 819b 	beq.w	aa8 <__vsnprintf+0x5b0>
     772:	3207      	adds	r2, #7
     774:	f022 0207 	bic.w	r2, r2, #7
     778:	f102 0708 	add.w	r7, r2, #8
     77c:	e9d2 4500 	ldrd	r4, r5, [r2]
/mnt/disk/raspbian-tee/optee_os/lib/libutils/ext/snprintk.c:482
     780:	f04f 0a00 	mov.w	sl, #0
     784:	e0d4      	b.n	930 <__vsnprintf+0x438>
/mnt/disk/raspbian-tee/optee_os/lib/libutils/ext/snprintk.c:471
     786:	f8df 3494 	ldr.w	r3, [pc, #1172]	; c1c <__vsnprintf+0x724>
     78a:	447b      	add	r3, pc
/mnt/disk/raspbian-tee/optee_os/lib/libutils/ext/snprintk.c:474
     78c:	930f      	str	r3, [sp, #60]	; 0x3c
/mnt/disk/raspbian-tee/optee_os/lib/libutils/ext/snprintk.c:475
     78e:	0637      	lsls	r7, r6, #24
     790:	f140 81aa 	bpl.w	ae8 <__vsnprintf+0x5f0>
     794:	3207      	adds	r2, #7
     796:	f022 0207 	bic.w	r2, r2, #7
     79a:	f102 0708 	add.w	r7, r2, #8
     79e:	e9d2 4500 	ldrd	r4, r5, [r2]
/mnt/disk/raspbian-tee/optee_os/lib/libutils/ext/snprintk.c:478
     7a2:	07f3      	lsls	r3, r6, #31
     7a4:	f140 815c 	bpl.w	a60 <__vsnprintf+0x568>
     7a8:	ea54 0305 	orrs.w	r3, r4, r5
     7ac:	f000 822d 	beq.w	c0a <__vsnprintf+0x712>
/mnt/disk/raspbian-tee/optee_os/lib/libutils/ext/snprintk.c:479
     7b0:	f046 0602 	orr.w	r6, r6, #2
/mnt/disk/raspbian-tee/optee_os/lib/libutils/ext/snprintk.c:488
     7b4:	f1bb 3fff 	cmp.w	fp, #4294967295	; 0xffffffff
     7b8:	f000 822a 	beq.w	c10 <__vsnprintf+0x718>
     7bc:	f04f 0a00 	mov.w	sl, #0
     7c0:	2302      	movs	r3, #2
     7c2:	e74a      	b.n	65a <__vsnprintf+0x162>
/mnt/disk/raspbian-tee/optee_os/lib/libutils/ext/snprintk.c:299
     7c4:	f1ba 0f00 	cmp.w	sl, #0
     7c8:	f04f 0320 	mov.w	r3, #32
     7cc:	bf08      	it	eq
     7ce:	469a      	moveq	sl, r3
     7d0:	e70a      	b.n	5e8 <__vsnprintf+0xf0>
/mnt/disk/raspbian-tee/optee_os/lib/libutils/ext/snprintk.c:302
     7d2:	f046 0601 	orr.w	r6, r6, #1
     7d6:	e707      	b.n	5e8 <__vsnprintf+0xf0>
/mnt/disk/raspbian-tee/optee_os/lib/libutils/ext/snprintk.c:311
     7d8:	1d13      	adds	r3, r2, #4
     7da:	6812      	ldr	r2, [r2, #0]
     7dc:	920d      	str	r2, [sp, #52]	; 0x34
     7de:	2a00      	cmp	r2, #0
     7e0:	f6bf aef4 	bge.w	5cc <__vsnprintf+0xd4>
/mnt/disk/raspbian-tee/optee_os/lib/libutils/ext/snprintk.c:313
     7e4:	4252      	negs	r2, r2
     7e6:	920d      	str	r2, [sp, #52]	; 0x34
/mnt/disk/raspbian-tee/optee_os/lib/libutils/ext/snprintk.c:311
     7e8:	461a      	mov	r2, r3
/mnt/disk/raspbian-tee/optee_os/lib/libutils/ext/snprintk.c:316
     7ea:	f046 0604 	orr.w	r6, r6, #4
     7ee:	e6fb      	b.n	5e8 <__vsnprintf+0xf0>
/mnt/disk/raspbian-tee/optee_os/lib/libutils/ext/snprintk.c:322
     7f0:	990b      	ldr	r1, [sp, #44]	; 0x2c
     7f2:	9b0b      	ldr	r3, [sp, #44]	; 0x2c
     7f4:	f891 9000 	ldrb.w	r9, [r1]
     7f8:	3301      	adds	r3, #1
     7fa:	f1b9 0f2a 	cmp.w	r9, #42	; 0x2a
     7fe:	d00e      	beq.n	81e <__vsnprintf+0x326>
     800:	f04f 0b00 	mov.w	fp, #0
/mnt/disk/raspbian-tee/optee_os/lib/libutils/ext/snprintk.c:330
     804:	930b      	str	r3, [sp, #44]	; 0x2c
/mnt/disk/raspbian-tee/optee_os/lib/libutils/ext/snprintk.c:328
     806:	f1a9 0330 	sub.w	r3, r9, #48	; 0x30
     80a:	2b09      	cmp	r3, #9
     80c:	f63f aebc 	bhi.w	588 <__vsnprintf+0x90>
/mnt/disk/raspbian-tee/optee_os/lib/libutils/ext/snprintk.c:329
     810:	210a      	movs	r1, #10
     812:	fb01 3b0b 	mla	fp, r1, fp, r3
/mnt/disk/raspbian-tee/optee_os/lib/libutils/ext/snprintk.c:330
     816:	9b0b      	ldr	r3, [sp, #44]	; 0x2c
     818:	f813 9b01 	ldrb.w	r9, [r3], #1
     81c:	e7f2      	b.n	804 <__vsnprintf+0x30c>
/mnt/disk/raspbian-tee/optee_os/lib/libutils/ext/snprintk.c:324
     81e:	6811      	ldr	r1, [r2, #0]
/mnt/disk/raspbian-tee/optee_os/lib/libutils/ext/snprintk.c:323
     820:	3204      	adds	r2, #4
/mnt/disk/raspbian-tee/optee_os/lib/libutils/ext/snprintk.c:322
     822:	930b      	str	r3, [sp, #44]	; 0x2c
/mnt/disk/raspbian-tee/optee_os/lib/libutils/ext/snprintk.c:324
     824:	ea41 7be1 	orr.w	fp, r1, r1, asr #31
     828:	e6de      	b.n	5e8 <__vsnprintf+0xf0>
/mnt/disk/raspbian-tee/optee_os/lib/libutils/ext/snprintk.c:340
     82a:	f446 6680 	orr.w	r6, r6, #1024	; 0x400
     82e:	e6db      	b.n	5e8 <__vsnprintf+0xf0>
/mnt/disk/raspbian-tee/optee_os/lib/libutils/ext/snprintk.c:358
     830:	9b0b      	ldr	r3, [sp, #44]	; 0x2c
     832:	781b      	ldrb	r3, [r3, #0]
     834:	2b6c      	cmp	r3, #108	; 0x6c
     836:	d105      	bne.n	844 <__vsnprintf+0x34c>
/mnt/disk/raspbian-tee/optee_os/lib/libutils/ext/snprintk.c:359
     838:	9b0b      	ldr	r3, [sp, #44]	; 0x2c
     83a:	3301      	adds	r3, #1
     83c:	930b      	str	r3, [sp, #44]	; 0x2c
/mnt/disk/raspbian-tee/optee_os/lib/libutils/ext/snprintk.c:366
     83e:	f046 0620 	orr.w	r6, r6, #32
     842:	e6d1      	b.n	5e8 <__vsnprintf+0xf0>
/mnt/disk/raspbian-tee/optee_os/lib/libutils/ext/snprintk.c:362
     844:	f046 0610 	orr.w	r6, r6, #16
     848:	e6ce      	b.n	5e8 <__vsnprintf+0xf0>
/mnt/disk/raspbian-tee/optee_os/lib/libutils/ext/snprintk.c:369
     84a:	f446 7680 	orr.w	r6, r6, #256	; 0x100
     84e:	e6cb      	b.n	5e8 <__vsnprintf+0xf0>
/mnt/disk/raspbian-tee/optee_os/lib/libutils/ext/snprintk.c:372
     850:	f446 7600 	orr.w	r6, r6, #512	; 0x200
     854:	e6c8      	b.n	5e8 <__vsnprintf+0xf0>
/mnt/disk/raspbian-tee/optee_os/lib/libutils/ext/snprintk.c:375
     856:	ab1e      	add	r3, sp, #120	; 0x78
/mnt/disk/raspbian-tee/optee_os/lib/libutils/ext/snprintk.c:285
     858:	f04f 0a00 	mov.w	sl, #0
/mnt/disk/raspbian-tee/optee_os/lib/libutils/ext/snprintk.c:375
     85c:	1d17      	adds	r7, r2, #4
/mnt/disk/raspbian-tee/optee_os/lib/libutils/ext/snprintk.c:376
     85e:	f04f 0b01 	mov.w	fp, #1
/mnt/disk/raspbian-tee/optee_os/lib/libutils/ext/snprintk.c:375
     862:	6812      	ldr	r2, [r2, #0]
/mnt/disk/raspbian-tee/optee_os/lib/libutils/ext/snprintk.c:377
     864:	4650      	mov	r0, sl
/mnt/disk/raspbian-tee/optee_os/lib/libutils/ext/snprintk.c:375
     866:	f803 2d28 	strb.w	r2, [r3, #-40]!
/mnt/disk/raspbian-tee/optee_os/lib/libutils/ext/snprintk.c:565
     86a:	4558      	cmp	r0, fp
     86c:	4602      	mov	r2, r0
     86e:	bfb8      	it	lt
     870:	465a      	movlt	r2, fp
/mnt/disk/raspbian-tee/optee_os/lib/libutils/ext/snprintk.c:566
     872:	f1ba 0f00 	cmp.w	sl, #0
     876:	f000 8165 	beq.w	b44 <__vsnprintf+0x64c>
/mnt/disk/raspbian-tee/optee_os/lib/libutils/ext/snprintk.c:567
     87a:	3201      	adds	r2, #1
/mnt/disk/raspbian-tee/optee_os/lib/libutils/ext/snprintk.c:572
     87c:	990d      	ldr	r1, [sp, #52]	; 0x34
     87e:	9c0c      	ldr	r4, [sp, #48]	; 0x30
     880:	4291      	cmp	r1, r2
     882:	bfb8      	it	lt
     884:	4611      	movlt	r1, r2
     886:	440c      	add	r4, r1
/mnt/disk/raspbian-tee/optee_os/lib/libutils/ext/snprintk.c:575
     888:	f240 4104 	movw	r1, #1028	; 0x404
/mnt/disk/raspbian-tee/optee_os/lib/libutils/ext/snprintk.c:572
     88c:	940c      	str	r4, [sp, #48]	; 0x30
/mnt/disk/raspbian-tee/optee_os/lib/libutils/ext/snprintk.c:575
     88e:	ea16 0401 	ands.w	r4, r6, r1
     892:	d106      	bne.n	8a2 <__vsnprintf+0x3aa>
/mnt/disk/raspbian-tee/optee_os/lib/libutils/ext/snprintk.c:576
     894:	990d      	ldr	r1, [sp, #52]	; 0x34
/mnt/disk/raspbian-tee/optee_os/lib/libutils/ext/snprintk.c:578
     896:	f04f 0c20 	mov.w	ip, #32
/mnt/disk/raspbian-tee/optee_os/lib/libutils/ext/snprintk.c:576
     89a:	1a89      	subs	r1, r1, r2
/mnt/disk/raspbian-tee/optee_os/lib/libutils/ext/snprintk.c:577
     89c:	2900      	cmp	r1, #0
     89e:	f300 8155 	bgt.w	b4c <__vsnprintf+0x654>
/mnt/disk/raspbian-tee/optee_os/lib/libutils/ext/snprintk.c:582
     8a2:	f1ba 0f00 	cmp.w	sl, #0
     8a6:	f000 8166 	beq.w	b76 <__vsnprintf+0x67e>
/mnt/disk/raspbian-tee/optee_os/lib/libutils/ext/snprintk.c:583
     8aa:	f1b8 0f00 	cmp.w	r8, #0
     8ae:	f040 8159 	bne.w	b64 <__vsnprintf+0x66c>
/mnt/disk/raspbian-tee/optee_os/lib/libutils/ext/snprintk.c:586
     8b2:	f04f 0800 	mov.w	r8, #0
/mnt/disk/raspbian-tee/optee_os/lib/libutils/ext/snprintk.c:590
     8b6:	f5b4 6f80 	cmp.w	r4, #1024	; 0x400
     8ba:	d105      	bne.n	8c8 <__vsnprintf+0x3d0>
/mnt/disk/raspbian-tee/optee_os/lib/libutils/ext/snprintk.c:591
     8bc:	990d      	ldr	r1, [sp, #52]	; 0x34
/mnt/disk/raspbian-tee/optee_os/lib/libutils/ext/snprintk.c:593
     8be:	2430      	movs	r4, #48	; 0x30
/mnt/disk/raspbian-tee/optee_os/lib/libutils/ext/snprintk.c:591
     8c0:	1a89      	subs	r1, r1, r2
/mnt/disk/raspbian-tee/optee_os/lib/libutils/ext/snprintk.c:592
     8c2:	2900      	cmp	r1, #0
     8c4:	f300 8173 	bgt.w	bae <__vsnprintf+0x6b6>
/mnt/disk/raspbian-tee/optee_os/lib/libutils/ext/snprintk.c:597
     8c8:	eba0 000b 	sub.w	r0, r0, fp
/mnt/disk/raspbian-tee/optee_os/lib/libutils/ext/snprintk.c:599
     8cc:	2130      	movs	r1, #48	; 0x30
/mnt/disk/raspbian-tee/optee_os/lib/libutils/ext/snprintk.c:598
     8ce:	2800      	cmp	r0, #0
     8d0:	f300 8179 	bgt.w	bc6 <__vsnprintf+0x6ce>
     8d4:	eb03 010b 	add.w	r1, r3, fp
/mnt/disk/raspbian-tee/optee_os/lib/libutils/ext/snprintk.c:602
     8d8:	428b      	cmp	r3, r1
     8da:	f040 8180 	bne.w	bde <__vsnprintf+0x6e6>
/mnt/disk/raspbian-tee/optee_os/lib/libutils/ext/snprintk.c:605
     8de:	0773      	lsls	r3, r6, #29
     8e0:	f57f ae1b 	bpl.w	51a <__vsnprintf+0x22>
/mnt/disk/raspbian-tee/optee_os/lib/libutils/ext/snprintk.c:606
     8e4:	9b0d      	ldr	r3, [sp, #52]	; 0x34
     8e6:	1a9b      	subs	r3, r3, r2
/mnt/disk/raspbian-tee/optee_os/lib/libutils/ext/snprintk.c:608
     8e8:	2220      	movs	r2, #32
/mnt/disk/raspbian-tee/optee_os/lib/libutils/ext/snprintk.c:607
     8ea:	2b00      	cmp	r3, #0
     8ec:	f77f ae15 	ble.w	51a <__vsnprintf+0x22>
/mnt/disk/raspbian-tee/optee_os/lib/libutils/ext/snprintk.c:608
     8f0:	f1b8 0f00 	cmp.w	r8, #0
     8f4:	d006      	beq.n	904 <__vsnprintf+0x40c>
     8f6:	990e      	ldr	r1, [sp, #56]	; 0x38
     8f8:	4541      	cmp	r1, r8
     8fa:	d903      	bls.n	904 <__vsnprintf+0x40c>
     8fc:	f888 2000 	strb.w	r2, [r8]
     900:	f108 0801 	add.w	r8, r8, #1
     904:	3b01      	subs	r3, #1
     906:	e7f0      	b.n	8ea <__vsnprintf+0x3f2>
/mnt/disk/raspbian-tee/optee_os/lib/libutils/ext/snprintk.c:380
     908:	f046 0610 	orr.w	r6, r6, #16
/mnt/disk/raspbian-tee/optee_os/lib/libutils/ext/snprintk.c:384
     90c:	0631      	lsls	r1, r6, #24
     90e:	d523      	bpl.n	958 <__vsnprintf+0x460>
     910:	3207      	adds	r2, #7
     912:	f022 0207 	bic.w	r2, r2, #7
     916:	f102 0708 	add.w	r7, r2, #8
     91a:	e9d2 4500 	ldrd	r4, r5, [r2]
/mnt/disk/raspbian-tee/optee_os/lib/libutils/ext/snprintk.c:385
     91e:	2c00      	cmp	r4, #0
     920:	f175 0300 	sbcs.w	r3, r5, #0
     924:	da04      	bge.n	930 <__vsnprintf+0x438>
/mnt/disk/raspbian-tee/optee_os/lib/libutils/ext/snprintk.c:386
     926:	4264      	negs	r4, r4
/mnt/disk/raspbian-tee/optee_os/lib/libutils/ext/snprintk.c:387
     928:	f04f 0a2d 	mov.w	sl, #45	; 0x2d
/mnt/disk/raspbian-tee/optee_os/lib/libutils/ext/snprintk.c:386
     92c:	eb65 0545 	sbc.w	r5, r5, r5, lsl #1
/mnt/disk/raspbian-tee/optee_os/lib/libutils/ext/snprintk.c:488
     930:	f1bb 3fff 	cmp.w	fp, #4294967295	; 0xffffffff
     934:	f040 80ec 	bne.w	b10 <__vsnprintf+0x618>
/mnt/disk/raspbian-tee/optee_os/lib/libutils/ext/snprintk.c:508
     938:	f10d 0375 	add.w	r3, sp, #117	; 0x75
     93c:	9311      	str	r3, [sp, #68]	; 0x44
     93e:	9b11      	ldr	r3, [sp, #68]	; 0x44
/mnt/disk/raspbian-tee/optee_os/lib/libutils/ext/snprintk.c:516
     940:	2d00      	cmp	r5, #0
     942:	bf08      	it	eq
     944:	2c0a      	cmpeq	r4, #10
     946:	f103 33ff 	add.w	r3, r3, #4294967295	; 0xffffffff
     94a:	f080 80e5 	bcs.w	b18 <__vsnprintf+0x620>
/mnt/disk/raspbian-tee/optee_os/lib/libutils/ext/snprintk.c:520
     94e:	9a11      	ldr	r2, [sp, #68]	; 0x44
     950:	3430      	adds	r4, #48	; 0x30
     952:	f802 4c01 	strb.w	r4, [r2, #-1]
     956:	e6ac      	b.n	6b2 <__vsnprintf+0x1ba>
/mnt/disk/raspbian-tee/optee_os/lib/libutils/ext/snprintk.c:384
     958:	05f3      	lsls	r3, r6, #23
     95a:	d503      	bpl.n	964 <__vsnprintf+0x46c>
     95c:	1d17      	adds	r7, r2, #4
     95e:	6814      	ldr	r4, [r2, #0]
     960:	17e5      	asrs	r5, r4, #31
     962:	e7dc      	b.n	91e <__vsnprintf+0x426>
     964:	05b7      	lsls	r7, r6, #22
     966:	d4f9      	bmi.n	95c <__vsnprintf+0x464>
     968:	06b5      	lsls	r5, r6, #26
     96a:	d4d1      	bmi.n	910 <__vsnprintf+0x418>
     96c:	f016 0f10 	tst.w	r6, #16
     970:	f102 0704 	add.w	r7, r2, #4
     974:	d1f3      	bne.n	95e <__vsnprintf+0x466>
     976:	f016 0f40 	tst.w	r6, #64	; 0x40
     97a:	6814      	ldr	r4, [r2, #0]
     97c:	d0f0      	beq.n	960 <__vsnprintf+0x468>
     97e:	b224      	sxth	r4, r4
     980:	e7ee      	b.n	960 <__vsnprintf+0x468>
/mnt/disk/raspbian-tee/optee_os/lib/libutils/ext/snprintk.c:392
     982:	f016 0f80 	tst.w	r6, #128	; 0x80
     986:	f102 0704 	add.w	r7, r2, #4
     98a:	d006      	beq.n	99a <__vsnprintf+0x4a2>
/mnt/disk/raspbian-tee/optee_os/lib/libutils/ext/snprintk.c:399
     98c:	6813      	ldr	r3, [r2, #0]
     98e:	9a0c      	ldr	r2, [sp, #48]	; 0x30
     990:	4610      	mov	r0, r2
     992:	17d1      	asrs	r1, r2, #31
     994:	e9c3 0100 	strd	r0, r1, [r3]
     998:	e5bf      	b.n	51a <__vsnprintf+0x22>
/mnt/disk/raspbian-tee/optee_os/lib/libutils/ext/snprintk.c:394
     99a:	05f4      	lsls	r4, r6, #23
     99c:	d503      	bpl.n	9a6 <__vsnprintf+0x4ae>
/mnt/disk/raspbian-tee/optee_os/lib/libutils/ext/snprintk.c:405
     99e:	6813      	ldr	r3, [r2, #0]
     9a0:	9a0c      	ldr	r2, [sp, #48]	; 0x30
     9a2:	601a      	str	r2, [r3, #0]
     9a4:	e5b9      	b.n	51a <__vsnprintf+0x22>
/mnt/disk/raspbian-tee/optee_os/lib/libutils/ext/snprintk.c:396
     9a6:	05b0      	lsls	r0, r6, #22
     9a8:	d4f9      	bmi.n	99e <__vsnprintf+0x4a6>
/mnt/disk/raspbian-tee/optee_os/lib/libutils/ext/snprintk.c:398
     9aa:	06b1      	lsls	r1, r6, #26
     9ac:	d4ee      	bmi.n	98c <__vsnprintf+0x494>
/mnt/disk/raspbian-tee/optee_os/lib/libutils/ext/snprintk.c:400
     9ae:	06f3      	lsls	r3, r6, #27
     9b0:	d4f5      	bmi.n	99e <__vsnprintf+0x4a6>
/mnt/disk/raspbian-tee/optee_os/lib/libutils/ext/snprintk.c:402
     9b2:	0676      	lsls	r6, r6, #25
     9b4:	d5f3      	bpl.n	99e <__vsnprintf+0x4a6>
/mnt/disk/raspbian-tee/optee_os/lib/libutils/ext/snprintk.c:403
     9b6:	6813      	ldr	r3, [r2, #0]
     9b8:	f8bd 2030 	ldrh.w	r2, [sp, #48]	; 0x30
     9bc:	801a      	strh	r2, [r3, #0]
     9be:	e5ac      	b.n	51a <__vsnprintf+0x22>
/mnt/disk/raspbian-tee/optee_os/lib/libutils/ext/snprintk.c:411
     9c0:	05f4      	lsls	r4, r6, #23
     9c2:	d502      	bpl.n	9ca <__vsnprintf+0x4d2>
     9c4:	1d17      	adds	r7, r2, #4
     9c6:	6814      	ldr	r4, [r2, #0]
     9c8:	e00c      	b.n	9e4 <__vsnprintf+0x4ec>
     9ca:	05b0      	lsls	r0, r6, #22
     9cc:	d4fa      	bmi.n	9c4 <__vsnprintf+0x4cc>
     9ce:	06b1      	lsls	r1, r6, #26
     9d0:	f53f ae36 	bmi.w	640 <__vsnprintf+0x148>
     9d4:	f016 0f10 	tst.w	r6, #16
     9d8:	f102 0704 	add.w	r7, r2, #4
     9dc:	d1f3      	bne.n	9c6 <__vsnprintf+0x4ce>
     9de:	0673      	lsls	r3, r6, #25
     9e0:	d5f1      	bpl.n	9c6 <__vsnprintf+0x4ce>
     9e2:	8814      	ldrh	r4, [r2, #0]
     9e4:	2500      	movs	r5, #0
     9e6:	e632      	b.n	64e <__vsnprintf+0x156>
/mnt/disk/raspbian-tee/optee_os/lib/libutils/ext/snprintk.c:415
     9e8:	9b13      	ldr	r3, [sp, #76]	; 0x4c
     9ea:	2b00      	cmp	r3, #0
     9ec:	d02d      	beq.n	a4a <__vsnprintf+0x552>
     9ee:	9b0b      	ldr	r3, [sp, #44]	; 0x2c
     9f0:	781b      	ldrb	r3, [r3, #0]
     9f2:	2b55      	cmp	r3, #85	; 0x55
     9f4:	d129      	bne.n	a4a <__vsnprintf+0x552>
     9f6:	9b0b      	ldr	r3, [sp, #44]	; 0x2c
     9f8:	785b      	ldrb	r3, [r3, #1]
     9fa:	2b6c      	cmp	r3, #108	; 0x6c
     9fc:	d125      	bne.n	a4a <__vsnprintf+0x552>
/mnt/disk/raspbian-tee/optee_os/lib/libutils/ext/snprintk.c:420
     9fe:	9b0b      	ldr	r3, [sp, #44]	; 0x2c
/mnt/disk/raspbian-tee/optee_os/lib/libutils/ext/snprintk.c:421
     a00:	1d17      	adds	r7, r2, #4
uuid2str():
/mnt/disk/raspbian-tee/optee_os/lib/libutils/ext/snprintk.c:223
     a02:	ac14      	add	r4, sp, #80	; 0x50
     a04:	2125      	movs	r1, #37	; 0x25
kprintf():
/mnt/disk/raspbian-tee/optee_os/lib/libutils/ext/snprintk.c:420
     a06:	3302      	adds	r3, #2
     a08:	930b      	str	r3, [sp, #44]	; 0x2c
/mnt/disk/raspbian-tee/optee_os/lib/libutils/ext/snprintk.c:421
     a0a:	6813      	ldr	r3, [r2, #0]
uuid2str():
/mnt/disk/raspbian-tee/optee_os/lib/libutils/ext/snprintk.c:223
     a0c:	4620      	mov	r0, r4
     a0e:	7bda      	ldrb	r2, [r3, #15]
     a10:	9209      	str	r2, [sp, #36]	; 0x24
     a12:	7b9a      	ldrb	r2, [r3, #14]
     a14:	9208      	str	r2, [sp, #32]
     a16:	7b5a      	ldrb	r2, [r3, #13]
     a18:	9207      	str	r2, [sp, #28]
     a1a:	7b1a      	ldrb	r2, [r3, #12]
     a1c:	9206      	str	r2, [sp, #24]
     a1e:	7ada      	ldrb	r2, [r3, #11]
     a20:	9205      	str	r2, [sp, #20]
     a22:	7a9a      	ldrb	r2, [r3, #10]
     a24:	9204      	str	r2, [sp, #16]
     a26:	7a5a      	ldrb	r2, [r3, #9]
     a28:	9203      	str	r2, [sp, #12]
     a2a:	7a1a      	ldrb	r2, [r3, #8]
     a2c:	9202      	str	r2, [sp, #8]
     a2e:	88da      	ldrh	r2, [r3, #6]
     a30:	9201      	str	r2, [sp, #4]
     a32:	889a      	ldrh	r2, [r3, #4]
     a34:	9200      	str	r2, [sp, #0]
     a36:	4a7a      	ldr	r2, [pc, #488]	; (c20 <__vsnprintf+0x728>)
     a38:	681b      	ldr	r3, [r3, #0]
     a3a:	447a      	add	r2, pc
     a3c:	f000 f8fd 	bl	c3a <snprintk>
     a40:	4683      	mov	fp, r0
kprintf():
/mnt/disk/raspbian-tee/optee_os/lib/libutils/ext/snprintk.c:285
     a42:	2000      	movs	r0, #0
/mnt/disk/raspbian-tee/optee_os/lib/libutils/ext/snprintk.c:423
     a44:	4623      	mov	r3, r4
/mnt/disk/raspbian-tee/optee_os/lib/libutils/ext/snprintk.c:424
     a46:	4682      	mov	sl, r0
     a48:	e70f      	b.n	86a <__vsnprintf+0x372>
/mnt/disk/raspbian-tee/optee_os/lib/libutils/ext/snprintk.c:437
     a4a:	4b76      	ldr	r3, [pc, #472]	; (c24 <__vsnprintf+0x72c>)
/mnt/disk/raspbian-tee/optee_os/lib/libutils/ext/snprintk.c:435
     a4c:	1d17      	adds	r7, r2, #4
     a4e:	6814      	ldr	r4, [r2, #0]
     a50:	2500      	movs	r5, #0
/mnt/disk/raspbian-tee/optee_os/lib/libutils/ext/snprintk.c:437
     a52:	447b      	add	r3, pc
/mnt/disk/raspbian-tee/optee_os/lib/libutils/ext/snprintk.c:438
     a54:	f046 0602 	orr.w	r6, r6, #2
/mnt/disk/raspbian-tee/optee_os/lib/libutils/ext/snprintk.c:439
     a58:	f04f 0978 	mov.w	r9, #120	; 0x78
/mnt/disk/raspbian-tee/optee_os/lib/libutils/ext/snprintk.c:437
     a5c:	3311      	adds	r3, #17
     a5e:	930f      	str	r3, [sp, #60]	; 0x3c
/mnt/disk/raspbian-tee/optee_os/lib/libutils/ext/snprintk.c:488
     a60:	f1bb 3fff 	cmp.w	fp, #4294967295	; 0xffffffff
     a64:	f47f aeaa 	bne.w	7bc <__vsnprintf+0x2c4>
     a68:	f04f 0a00 	mov.w	sl, #0
     a6c:	f10d 0375 	add.w	r3, sp, #117	; 0x75
/mnt/disk/raspbian-tee/optee_os/lib/libutils/ext/snprintk.c:525
     a70:	f004 020f 	and.w	r2, r4, #15
     a74:	990f      	ldr	r1, [sp, #60]	; 0x3c
     a76:	5c8a      	ldrb	r2, [r1, r2]
/mnt/disk/raspbian-tee/optee_os/lib/libutils/ext/snprintk.c:526
     a78:	0929      	lsrs	r1, r5, #4
/mnt/disk/raspbian-tee/optee_os/lib/libutils/ext/snprintk.c:525
     a7a:	f803 2d01 	strb.w	r2, [r3, #-1]!
/mnt/disk/raspbian-tee/optee_os/lib/libutils/ext/snprintk.c:526
     a7e:	0922      	lsrs	r2, r4, #4
     a80:	ea42 7205 	orr.w	r2, r2, r5, lsl #28
     a84:	460d      	mov	r5, r1
     a86:	4614      	mov	r4, r2
/mnt/disk/raspbian-tee/optee_os/lib/libutils/ext/snprintk.c:527
     a88:	ea54 0205 	orrs.w	r2, r4, r5
     a8c:	d1f0      	bne.n	a70 <__vsnprintf+0x578>
     a8e:	e610      	b.n	6b2 <__vsnprintf+0x1ba>
/mnt/disk/raspbian-tee/optee_os/lib/libutils/ext/snprintk.c:460
     a90:	4618      	mov	r0, r3
     a92:	9311      	str	r3, [sp, #68]	; 0x44
     a94:	f005 fa60 	bl	5f58 <strlen>
     a98:	4683      	mov	fp, r0
/mnt/disk/raspbian-tee/optee_os/lib/libutils/ext/snprintk.c:285
     a9a:	2000      	movs	r0, #0
     a9c:	9b11      	ldr	r3, [sp, #68]	; 0x44
/mnt/disk/raspbian-tee/optee_os/lib/libutils/ext/snprintk.c:461
     a9e:	4682      	mov	sl, r0
     aa0:	e6e3      	b.n	86a <__vsnprintf+0x372>
/mnt/disk/raspbian-tee/optee_os/lib/libutils/ext/snprintk.c:464
     aa2:	f046 0610 	orr.w	r6, r6, #16
     aa6:	e660      	b.n	76a <__vsnprintf+0x272>
/mnt/disk/raspbian-tee/optee_os/lib/libutils/ext/snprintk.c:467
     aa8:	f416 7a80 	ands.w	sl, r6, #256	; 0x100
     aac:	d003      	beq.n	ab6 <__vsnprintf+0x5be>
     aae:	6814      	ldr	r4, [r2, #0]
     ab0:	1d17      	adds	r7, r2, #4
     ab2:	2500      	movs	r5, #0
     ab4:	e664      	b.n	780 <__vsnprintf+0x288>
     ab6:	f416 7300 	ands.w	r3, r6, #512	; 0x200
     aba:	d003      	beq.n	ac4 <__vsnprintf+0x5cc>
     abc:	1d17      	adds	r7, r2, #4
     abe:	6814      	ldr	r4, [r2, #0]
     ac0:	2500      	movs	r5, #0
     ac2:	e735      	b.n	930 <__vsnprintf+0x438>
     ac4:	f016 0a20 	ands.w	sl, r6, #32
     ac8:	f47f ae53 	bne.w	772 <__vsnprintf+0x27a>
     acc:	f016 0310 	ands.w	r3, r6, #16
     ad0:	f102 0704 	add.w	r7, r2, #4
     ad4:	d1f3      	bne.n	abe <__vsnprintf+0x5c6>
     ad6:	f016 0a40 	ands.w	sl, r6, #64	; 0x40
     ada:	d0f0      	beq.n	abe <__vsnprintf+0x5c6>
     adc:	8814      	ldrh	r4, [r2, #0]
     ade:	e7e8      	b.n	ab2 <__vsnprintf+0x5ba>
/mnt/disk/raspbian-tee/optee_os/lib/libutils/ext/snprintk.c:474
     ae0:	4b51      	ldr	r3, [pc, #324]	; (c28 <__vsnprintf+0x730>)
     ae2:	447b      	add	r3, pc
     ae4:	3311      	adds	r3, #17
     ae6:	e651      	b.n	78c <__vsnprintf+0x294>
/mnt/disk/raspbian-tee/optee_os/lib/libutils/ext/snprintk.c:475
     ae8:	05f5      	lsls	r5, r6, #23
     aea:	d502      	bpl.n	af2 <__vsnprintf+0x5fa>
     aec:	1d17      	adds	r7, r2, #4
     aee:	6814      	ldr	r4, [r2, #0]
     af0:	e00c      	b.n	b0c <__vsnprintf+0x614>
     af2:	05b4      	lsls	r4, r6, #22
     af4:	d4fa      	bmi.n	aec <__vsnprintf+0x5f4>
     af6:	06b0      	lsls	r0, r6, #26
     af8:	f53f ae4c 	bmi.w	794 <__vsnprintf+0x29c>
     afc:	f016 0f10 	tst.w	r6, #16
     b00:	f102 0704 	add.w	r7, r2, #4
     b04:	d1f3      	bne.n	aee <__vsnprintf+0x5f6>
     b06:	0671      	lsls	r1, r6, #25
     b08:	d5f1      	bpl.n	aee <__vsnprintf+0x5f6>
     b0a:	8814      	ldrh	r4, [r2, #0]
     b0c:	2500      	movs	r5, #0
     b0e:	e648      	b.n	7a2 <__vsnprintf+0x2aa>
/mnt/disk/raspbian-tee/optee_os/lib/libutils/ext/snprintk.c:488
     b10:	2301      	movs	r3, #1
     b12:	e5a2      	b.n	65a <__vsnprintf+0x162>
/mnt/disk/raspbian-tee/optee_os/lib/libutils/ext/snprintk.c:508
     b14:	461a      	mov	r2, r3
     b16:	e5b3      	b.n	680 <__vsnprintf+0x188>
/mnt/disk/raspbian-tee/optee_os/lib/libutils/ext/snprintk.c:517
     b18:	9311      	str	r3, [sp, #68]	; 0x44
     b1a:	4620      	mov	r0, r4
     b1c:	4629      	mov	r1, r5
     b1e:	220a      	movs	r2, #10
     b20:	2300      	movs	r3, #0
     b22:	f000 ea02 	blx	f28 <__aeabi_uldivmod>
     b26:	9b11      	ldr	r3, [sp, #68]	; 0x44
     b28:	3230      	adds	r2, #48	; 0x30
/mnt/disk/raspbian-tee/optee_os/lib/libutils/ext/snprintk.c:518
     b2a:	4620      	mov	r0, r4
     b2c:	4629      	mov	r1, r5
/mnt/disk/raspbian-tee/optee_os/lib/libutils/ext/snprintk.c:517
     b2e:	701a      	strb	r2, [r3, #0]
/mnt/disk/raspbian-tee/optee_os/lib/libutils/ext/snprintk.c:518
     b30:	220a      	movs	r2, #10
     b32:	2300      	movs	r3, #0
     b34:	f000 e9f8 	blx	f28 <__aeabi_uldivmod>
     b38:	4604      	mov	r4, r0
     b3a:	460d      	mov	r5, r1
     b3c:	e6ff      	b.n	93e <__vsnprintf+0x446>
/mnt/disk/raspbian-tee/optee_os/lib/libutils/ext/snprintk.c:496
     b3e:	f10d 0375 	add.w	r3, sp, #117	; 0x75
     b42:	e5b6      	b.n	6b2 <__vsnprintf+0x1ba>
/mnt/disk/raspbian-tee/optee_os/lib/libutils/ext/snprintk.c:568
     b44:	07b4      	lsls	r4, r6, #30
/mnt/disk/raspbian-tee/optee_os/lib/libutils/ext/snprintk.c:569
     b46:	bf48      	it	mi
     b48:	3202      	addmi	r2, #2
     b4a:	e697      	b.n	87c <__vsnprintf+0x384>
/mnt/disk/raspbian-tee/optee_os/lib/libutils/ext/snprintk.c:578
     b4c:	f1b8 0f00 	cmp.w	r8, #0
     b50:	d006      	beq.n	b60 <__vsnprintf+0x668>
     b52:	9d0e      	ldr	r5, [sp, #56]	; 0x38
     b54:	4545      	cmp	r5, r8
     b56:	d903      	bls.n	b60 <__vsnprintf+0x668>
     b58:	f888 c000 	strb.w	ip, [r8]
     b5c:	f108 0801 	add.w	r8, r8, #1
     b60:	3901      	subs	r1, #1
     b62:	e69b      	b.n	89c <__vsnprintf+0x3a4>
/mnt/disk/raspbian-tee/optee_os/lib/libutils/ext/snprintk.c:583
     b64:	990e      	ldr	r1, [sp, #56]	; 0x38
     b66:	4541      	cmp	r1, r8
     b68:	f67f aea5 	bls.w	8b6 <__vsnprintf+0x3be>
     b6c:	f888 a000 	strb.w	sl, [r8]
     b70:	f108 0801 	add.w	r8, r8, #1
     b74:	e69f      	b.n	8b6 <__vsnprintf+0x3be>
/mnt/disk/raspbian-tee/optee_os/lib/libutils/ext/snprintk.c:584
     b76:	07b1      	lsls	r1, r6, #30
     b78:	f57f ae9d 	bpl.w	8b6 <__vsnprintf+0x3be>
/mnt/disk/raspbian-tee/optee_os/lib/libutils/ext/snprintk.c:585
     b7c:	f1b8 0f00 	cmp.w	r8, #0
     b80:	f43f ae97 	beq.w	8b2 <__vsnprintf+0x3ba>
     b84:	990e      	ldr	r1, [sp, #56]	; 0x38
     b86:	4541      	cmp	r1, r8
     b88:	f67f ae95 	bls.w	8b6 <__vsnprintf+0x3be>
     b8c:	2130      	movs	r1, #48	; 0x30
     b8e:	f888 1000 	strb.w	r1, [r8]
/mnt/disk/raspbian-tee/optee_os/lib/libutils/ext/snprintk.c:586
     b92:	f118 0101 	adds.w	r1, r8, #1
     b96:	f43f ae8c 	beq.w	8b2 <__vsnprintf+0x3ba>
     b9a:	9d0e      	ldr	r5, [sp, #56]	; 0x38
     b9c:	428d      	cmp	r5, r1
     b9e:	d904      	bls.n	baa <__vsnprintf+0x6b2>
     ba0:	f888 9001 	strb.w	r9, [r8, #1]
     ba4:	f108 0802 	add.w	r8, r8, #2
     ba8:	e685      	b.n	8b6 <__vsnprintf+0x3be>
     baa:	4688      	mov	r8, r1
     bac:	e683      	b.n	8b6 <__vsnprintf+0x3be>
/mnt/disk/raspbian-tee/optee_os/lib/libutils/ext/snprintk.c:593
     bae:	f1b8 0f00 	cmp.w	r8, #0
     bb2:	d006      	beq.n	bc2 <__vsnprintf+0x6ca>
     bb4:	9d0e      	ldr	r5, [sp, #56]	; 0x38
     bb6:	4545      	cmp	r5, r8
     bb8:	d903      	bls.n	bc2 <__vsnprintf+0x6ca>
     bba:	f888 4000 	strb.w	r4, [r8]
     bbe:	f108 0801 	add.w	r8, r8, #1
     bc2:	3901      	subs	r1, #1
     bc4:	e67d      	b.n	8c2 <__vsnprintf+0x3ca>
/mnt/disk/raspbian-tee/optee_os/lib/libutils/ext/snprintk.c:599
     bc6:	f1b8 0f00 	cmp.w	r8, #0
     bca:	d006      	beq.n	bda <__vsnprintf+0x6e2>
     bcc:	9c0e      	ldr	r4, [sp, #56]	; 0x38
     bce:	4544      	cmp	r4, r8
     bd0:	d903      	bls.n	bda <__vsnprintf+0x6e2>
     bd2:	f888 1000 	strb.w	r1, [r8]
     bd6:	f108 0801 	add.w	r8, r8, #1
     bda:	3801      	subs	r0, #1
     bdc:	e677      	b.n	8ce <__vsnprintf+0x3d6>
/mnt/disk/raspbian-tee/optee_os/lib/libutils/ext/snprintk.c:603
     bde:	f1b8 0f00 	cmp.w	r8, #0
     be2:	d007      	beq.n	bf4 <__vsnprintf+0x6fc>
     be4:	980e      	ldr	r0, [sp, #56]	; 0x38
     be6:	4540      	cmp	r0, r8
     be8:	d904      	bls.n	bf4 <__vsnprintf+0x6fc>
     bea:	7818      	ldrb	r0, [r3, #0]
     bec:	f108 0801 	add.w	r8, r8, #1
     bf0:	f808 0c01 	strb.w	r0, [r8, #-1]
/mnt/disk/raspbian-tee/optee_os/lib/libutils/ext/snprintk.c:602
     bf4:	3301      	adds	r3, #1
     bf6:	e66f      	b.n	8d8 <__vsnprintf+0x3e0>
__vsnprintf():
/mnt/disk/raspbian-tee/optee_os/lib/libutils/ext/snprintk.c:148
     bf8:	990c      	ldr	r1, [sp, #48]	; 0x30
     bfa:	5453      	strb	r3, [r2, r1]
/mnt/disk/raspbian-tee/optee_os/lib/libutils/ext/snprintk.c:150
     bfc:	e4a1      	b.n	542 <__vsnprintf+0x4a>
kprintf():
/mnt/disk/raspbian-tee/optee_os/lib/libutils/ext/snprintk.c:489
     bfe:	f426 6680 	bic.w	r6, r6, #1024	; 0x400
/mnt/disk/raspbian-tee/optee_os/lib/libutils/ext/snprintk.c:482
     c02:	f04f 0a00 	mov.w	sl, #0
/mnt/disk/raspbian-tee/optee_os/lib/libutils/ext/snprintk.c:476
     c06:	2302      	movs	r3, #2
     c08:	e52c      	b.n	664 <__vsnprintf+0x16c>
/mnt/disk/raspbian-tee/optee_os/lib/libutils/ext/snprintk.c:488
     c0a:	f1bb 3fff 	cmp.w	fp, #4294967295	; 0xffffffff
     c0e:	d1f6      	bne.n	bfe <__vsnprintf+0x706>
     c10:	f04f 3bff 	mov.w	fp, #4294967295	; 0xffffffff
     c14:	e728      	b.n	a68 <__vsnprintf+0x570>
     c16:	bf00      	nop
     c18:	00005fd7 	.word	0x00005fd7
     c1c:	00005f57 	.word	0x00005f57
     c20:	00005cd0 	.word	0x00005cd0
     c24:	00005c8f 	.word	0x00005c8f
     c28:	00005bff 	.word	0x00005bff

00000c2c <vsnprintk>:
vsnprintk():
/mnt/disk/raspbian-tee/optee_os/lib/libutils/ext/snprintk.c:129
     c2c:	b513      	push	{r0, r1, r4, lr}
/mnt/disk/raspbian-tee/optee_os/lib/libutils/ext/snprintk.c:130
     c2e:	2401      	movs	r4, #1
     c30:	9400      	str	r4, [sp, #0]
     c32:	f7ff fc61 	bl	4f8 <__vsnprintf>
/mnt/disk/raspbian-tee/optee_os/lib/libutils/ext/snprintk.c:131
     c36:	b002      	add	sp, #8
     c38:	bd10      	pop	{r4, pc}

00000c3a <snprintk>:
snprintk():
/mnt/disk/raspbian-tee/optee_os/lib/libutils/ext/snprintk.c:112
     c3a:	b40c      	push	{r2, r3}
     c3c:	b507      	push	{r0, r1, r2, lr}
     c3e:	ab04      	add	r3, sp, #16
     c40:	f853 2b04 	ldr.w	r2, [r3], #4
/mnt/disk/raspbian-tee/optee_os/lib/libutils/ext/snprintk.c:116
     c44:	9301      	str	r3, [sp, #4]
/mnt/disk/raspbian-tee/optee_os/lib/libutils/ext/snprintk.c:117
     c46:	f7ff fff1 	bl	c2c <vsnprintk>
/mnt/disk/raspbian-tee/optee_os/lib/libutils/ext/snprintk.c:121
     c4a:	b003      	add	sp, #12
     c4c:	f85d eb04 	ldr.w	lr, [sp], #4
     c50:	b002      	add	sp, #8
     c52:	4770      	bx	lr

00000c54 <append>:
append():
/mnt/disk/raspbian-tee/optee_os/lib/libutils/ext/trace.c:198
     c54:	b40e      	push	{r1, r2, r3}
/mnt/disk/raspbian-tee/optee_os/lib/libutils/ext/trace.c:203
     c56:	f8d0 3100 	ldr.w	r3, [r0, #256]	; 0x100
/mnt/disk/raspbian-tee/optee_os/lib/libutils/ext/trace.c:198
     c5a:	b533      	push	{r0, r1, r4, r5, lr}
     c5c:	4604      	mov	r4, r0
/mnt/disk/raspbian-tee/optee_os/lib/libutils/ext/trace.c:203
     c5e:	b90b      	cbnz	r3, c64 <append+0x10>
/mnt/disk/raspbian-tee/optee_os/lib/libutils/ext/trace.c:204
     c60:	f8c4 0100 	str.w	r0, [r4, #256]	; 0x100
/mnt/disk/raspbian-tee/optee_os/lib/libutils/ext/trace.c:205
     c64:	f8d4 0100 	ldr.w	r0, [r4, #256]	; 0x100
/mnt/disk/raspbian-tee/optee_os/lib/libutils/ext/trace.c:206
     c68:	ab06      	add	r3, sp, #24
/mnt/disk/raspbian-tee/optee_os/lib/libutils/ext/trace.c:207
     c6a:	9a05      	ldr	r2, [sp, #20]
/mnt/disk/raspbian-tee/optee_os/lib/libutils/ext/trace.c:205
     c6c:	1b05      	subs	r5, r0, r4
/mnt/disk/raspbian-tee/optee_os/lib/libutils/ext/trace.c:206
     c6e:	9301      	str	r3, [sp, #4]
/mnt/disk/raspbian-tee/optee_os/lib/libutils/ext/trace.c:205
     c70:	f5c5 7580 	rsb	r5, r5, #256	; 0x100
/mnt/disk/raspbian-tee/optee_os/lib/libutils/ext/trace.c:207
     c74:	4629      	mov	r1, r5
     c76:	f7ff ffd9 	bl	c2c <vsnprintk>
/mnt/disk/raspbian-tee/optee_os/lib/libutils/ext/trace.c:209
     c7a:	2800      	cmp	r0, #0
     c7c:	db0f      	blt.n	c9e <append+0x4a>
/mnt/disk/raspbian-tee/optee_os/lib/libutils/ext/trace.c:213
     c7e:	4285      	cmp	r5, r0
     c80:	dd0d      	ble.n	c9e <append+0x4a>
/mnt/disk/raspbian-tee/optee_os/lib/libutils/ext/trace.c:217
     c82:	4285      	cmp	r5, r0
     c84:	bfa8      	it	ge
     c86:	4605      	movge	r5, r0
     c88:	f8d4 0100 	ldr.w	r0, [r4, #256]	; 0x100
     c8c:	4405      	add	r5, r0
/mnt/disk/raspbian-tee/optee_os/lib/libutils/ext/trace.c:218
     c8e:	2001      	movs	r0, #1
/mnt/disk/raspbian-tee/optee_os/lib/libutils/ext/trace.c:217
     c90:	f8c4 5100 	str.w	r5, [r4, #256]	; 0x100
/mnt/disk/raspbian-tee/optee_os/lib/libutils/ext/trace.c:219
     c94:	b002      	add	sp, #8
     c96:	e8bd 4030 	ldmia.w	sp!, {r4, r5, lr}
     c9a:	b003      	add	sp, #12
     c9c:	4770      	bx	lr
/mnt/disk/raspbian-tee/optee_os/lib/libutils/ext/trace.c:211
     c9e:	2000      	movs	r0, #0
     ca0:	e7f8      	b.n	c94 <append+0x40>

00000ca2 <trace_set_level>:
trace_set_level():
/mnt/disk/raspbian-tee/optee_os/lib/libutils/ext/trace.c:25
     ca2:	4b05      	ldr	r3, [pc, #20]	; (cb8 <trace_set_level+0x16>)
/mnt/disk/raspbian-tee/optee_os/lib/libutils/ext/trace.c:26
     ca4:	2804      	cmp	r0, #4
     ca6:	4a05      	ldr	r2, [pc, #20]	; (cbc <trace_set_level+0x1a>)
/mnt/disk/raspbian-tee/optee_os/lib/libutils/ext/trace.c:25
     ca8:	447b      	add	r3, pc
     caa:	589b      	ldr	r3, [r3, r2]
/mnt/disk/raspbian-tee/optee_os/lib/libutils/ext/trace.c:26
     cac:	d801      	bhi.n	cb2 <trace_set_level+0x10>
/mnt/disk/raspbian-tee/optee_os/lib/libutils/ext/trace.c:27
     cae:	6018      	str	r0, [r3, #0]
     cb0:	4770      	bx	lr
/mnt/disk/raspbian-tee/optee_os/lib/libutils/ext/trace.c:29
     cb2:	2204      	movs	r2, #4
     cb4:	601a      	str	r2, [r3, #0]
     cb6:	4770      	bx	lr
     cb8:	00006ca8 	.word	0x00006ca8
     cbc:	00000010 	.word	0x00000010

00000cc0 <trace_get_level>:
trace_get_level():
/mnt/disk/raspbian-tee/optee_os/lib/libutils/ext/trace.c:33
     cc0:	4b02      	ldr	r3, [pc, #8]	; (ccc <trace_get_level+0xc>)
/mnt/disk/raspbian-tee/optee_os/lib/libutils/ext/trace.c:34
     cc2:	4a03      	ldr	r2, [pc, #12]	; (cd0 <trace_get_level+0x10>)
/mnt/disk/raspbian-tee/optee_os/lib/libutils/ext/trace.c:33
     cc4:	447b      	add	r3, pc
/mnt/disk/raspbian-tee/optee_os/lib/libutils/ext/trace.c:34
     cc6:	589b      	ldr	r3, [r3, r2]
/mnt/disk/raspbian-tee/optee_os/lib/libutils/ext/trace.c:35
     cc8:	6818      	ldr	r0, [r3, #0]
     cca:	4770      	bx	lr
     ccc:	00006c8c 	.word	0x00006c8c
     cd0:	00000010 	.word	0x00000010

00000cd4 <trace_printf>:
trace_printf():
/mnt/disk/raspbian-tee/optee_os/lib/libutils/ext/trace.c:97
     cd4:	e92d 47f0 	stmdb	sp!, {r4, r5, r6, r7, r8, r9, sl, lr}
     cd8:	4607      	mov	r7, r0
     cda:	f8df 910c 	ldr.w	r9, [pc, #268]	; de8 <trace_printf+0x114>
     cde:	b0c6      	sub	sp, #280	; 0x118
     ce0:	4688      	mov	r8, r1
     ce2:	44f9      	add	r9, pc
     ce4:	4614      	mov	r4, r2
/mnt/disk/raspbian-tee/optee_os/lib/libutils/ext/trace.c:103
     ce6:	469a      	mov	sl, r3
     ce8:	2b00      	cmp	r3, #0
     cea:	d06a      	beq.n	dc2 <trace_printf+0xee>
/mnt/disk/raspbian-tee/optee_os/lib/libutils/ext/trace.c:103 (discriminator 1)
     cec:	4b3f      	ldr	r3, [pc, #252]	; (dec <trace_printf+0x118>)
     cee:	f859 3003 	ldr.w	r3, [r9, r3]
     cf2:	681b      	ldr	r3, [r3, #0]
     cf4:	4293      	cmp	r3, r2
     cf6:	db61      	blt.n	dbc <trace_printf+0xe8>
trace_level_to_string():
/mnt/disk/raspbian-tee/optee_os/lib/libutils/ext/trace.c:52
     cf8:	4613      	mov	r3, r2
     cfa:	2a04      	cmp	r2, #4
/mnt/disk/raspbian-tee/optee_os/lib/libutils/ext/trace.c:55
     cfc:	4a3c      	ldr	r2, [pc, #240]	; (df0 <trace_printf+0x11c>)
/mnt/disk/raspbian-tee/optee_os/lib/libutils/ext/trace.c:52
     cfe:	bf88      	it	hi
     d00:	2300      	movhi	r3, #0
/mnt/disk/raspbian-tee/optee_os/lib/libutils/ext/trace.c:55
     d02:	447a      	add	r2, pc
     d04:	5cd3      	ldrb	r3, [r2, r3]
trace_printf():
/mnt/disk/raspbian-tee/optee_os/lib/libutils/ext/trace.c:107
     d06:	4a3b      	ldr	r2, [pc, #236]	; (df4 <trace_printf+0x120>)
     d08:	ad06      	add	r5, sp, #24
     d0a:	f44f 7180 	mov.w	r1, #256	; 0x100
     d0e:	4628      	mov	r0, r5
     d10:	447a      	add	r2, pc
     d12:	f7ff ff92 	bl	c3a <snprintk>
/mnt/disk/raspbian-tee/optee_os/lib/libutils/ext/trace.c:109
     d16:	1e06      	subs	r6, r0, #0
     d18:	db50      	blt.n	dbc <trace_printf+0xe8>
/mnt/disk/raspbian-tee/optee_os/lib/libutils/ext/trace.c:114
     d1a:	4b37      	ldr	r3, [pc, #220]	; (df8 <trace_printf+0x124>)
     d1c:	f5c6 7180 	rsb	r1, r6, #256	; 0x100
     d20:	4a36      	ldr	r2, [pc, #216]	; (dfc <trace_printf+0x128>)
     d22:	19a8      	adds	r0, r5, r6
     d24:	447a      	add	r2, pc
     d26:	f859 3003 	ldr.w	r3, [r9, r3]
     d2a:	9303      	str	r3, [sp, #12]
     d2c:	f7ff ff85 	bl	c3a <snprintk>
/mnt/disk/raspbian-tee/optee_os/lib/libutils/ext/trace.c:116
     d30:	2800      	cmp	r0, #0
     d32:	db43      	blt.n	dbc <trace_printf+0xe8>
/mnt/disk/raspbian-tee/optee_os/lib/libutils/ext/trace.c:118
     d34:	4406      	add	r6, r0
/mnt/disk/raspbian-tee/optee_os/lib/libutils/ext/trace.c:120
     d36:	f1ba 0f00 	cmp.w	sl, #0
     d3a:	d04b      	beq.n	dd4 <trace_printf+0x100>
/mnt/disk/raspbian-tee/optee_os/lib/libutils/ext/trace.c:120 (discriminator 1)
     d3c:	231a      	movs	r3, #26
     d3e:	fa23 f404 	lsr.w	r4, r3, r4
     d42:	07e3      	lsls	r3, r4, #31
     d44:	d546      	bpl.n	dd4 <trace_printf+0x100>
print_thread_id():
/mnt/disk/raspbian-tee/optee_os/lib/libutils/ext/trace.c:65
     d46:	f000 f905 	bl	f54 <trace_ext_get_thread_id>
trace_printf():
/mnt/disk/raspbian-tee/optee_os/lib/libutils/ext/trace.c:122
     d4a:	19ac      	adds	r4, r5, r6
     d4c:	f5c6 7980 	rsb	r9, r6, #256	; 0x100
print_thread_id():
/mnt/disk/raspbian-tee/optee_os/lib/libutils/ext/trace.c:67
     d50:	2800      	cmp	r0, #0
     d52:	db38      	blt.n	dc6 <trace_printf+0xf2>
/mnt/disk/raspbian-tee/optee_os/lib/libutils/ext/trace.c:68
     d54:	4a2a      	ldr	r2, [pc, #168]	; (e00 <trace_printf+0x12c>)
     d56:	2301      	movs	r3, #1
     d58:	9000      	str	r0, [sp, #0]
     d5a:	447a      	add	r2, pc
/mnt/disk/raspbian-tee/optee_os/lib/libutils/ext/trace.c:70
     d5c:	4649      	mov	r1, r9
     d5e:	4620      	mov	r0, r4
     d60:	f7ff ff6b 	bl	c3a <snprintk>
trace_printf():
/mnt/disk/raspbian-tee/optee_os/lib/libutils/ext/trace.c:129
     d64:	2800      	cmp	r0, #0
     d66:	db29      	blt.n	dbc <trace_printf+0xe8>
/mnt/disk/raspbian-tee/optee_os/lib/libutils/ext/trace.c:131
     d68:	1984      	adds	r4, r0, r6
/mnt/disk/raspbian-tee/optee_os/lib/libutils/ext/trace.c:133
     d6a:	b167      	cbz	r7, d86 <trace_printf+0xb2>
/mnt/disk/raspbian-tee/optee_os/lib/libutils/ext/trace.c:134
     d6c:	4a25      	ldr	r2, [pc, #148]	; (e04 <trace_printf+0x130>)
     d6e:	463b      	mov	r3, r7
     d70:	f8cd 8000 	str.w	r8, [sp]
     d74:	f5c4 7180 	rsb	r1, r4, #256	; 0x100
     d78:	447a      	add	r2, pc
     d7a:	1928      	adds	r0, r5, r4
     d7c:	f7ff ff5d 	bl	c3a <snprintk>
/mnt/disk/raspbian-tee/optee_os/lib/libutils/ext/trace.c:136
     d80:	2800      	cmp	r0, #0
     d82:	db1b      	blt.n	dbc <trace_printf+0xe8>
/mnt/disk/raspbian-tee/optee_os/lib/libutils/ext/trace.c:138
     d84:	4404      	add	r4, r0
/mnt/disk/raspbian-tee/optee_os/lib/libutils/ext/trace.c:148
     d86:	ab4f      	add	r3, sp, #316	; 0x13c
/mnt/disk/raspbian-tee/optee_os/lib/libutils/ext/trace.c:149
     d88:	f5c4 7180 	rsb	r1, r4, #256	; 0x100
     d8c:	1928      	adds	r0, r5, r4
     d8e:	9a4e      	ldr	r2, [sp, #312]	; 0x138
/mnt/disk/raspbian-tee/optee_os/lib/libutils/ext/trace.c:148
     d90:	9305      	str	r3, [sp, #20]
/mnt/disk/raspbian-tee/optee_os/lib/libutils/ext/trace.c:149
     d92:	f7ff ff4b 	bl	c2c <vsnprintk>
/mnt/disk/raspbian-tee/optee_os/lib/libutils/ext/trace.c:151
     d96:	2800      	cmp	r0, #0
/mnt/disk/raspbian-tee/optee_os/lib/libutils/ext/trace.c:157
     d98:	f04f 030a 	mov.w	r3, #10
/mnt/disk/raspbian-tee/optee_os/lib/libutils/ext/trace.c:152
     d9c:	bfc8      	it	gt
     d9e:	1824      	addgt	r4, r4, r0
     da0:	2cfe      	cmp	r4, #254	; 0xfe
     da2:	bf28      	it	cs
     da4:	24fe      	movcs	r4, #254	; 0xfe
/mnt/disk/raspbian-tee/optee_os/lib/libutils/ext/trace.c:157
     da6:	552b      	strb	r3, [r5, r4]
/mnt/disk/raspbian-tee/optee_os/lib/libutils/ext/trace.c:158
     da8:	b114      	cbz	r4, db0 <trace_printf+0xdc>
/mnt/disk/raspbian-tee/optee_os/lib/libutils/ext/trace.c:158 (discriminator 1)
     daa:	5d2b      	ldrb	r3, [r5, r4]
     dac:	2b0a      	cmp	r3, #10
     dae:	d019      	beq.n	de4 <trace_printf+0x110>
/mnt/disk/raspbian-tee/optee_os/lib/libutils/ext/trace.c:161
     db0:	442c      	add	r4, r5
/mnt/disk/raspbian-tee/optee_os/lib/libutils/ext/trace.c:163
     db2:	4628      	mov	r0, r5
/mnt/disk/raspbian-tee/optee_os/lib/libutils/ext/trace.c:161
     db4:	2300      	movs	r3, #0
     db6:	70a3      	strb	r3, [r4, #2]
/mnt/disk/raspbian-tee/optee_os/lib/libutils/ext/trace.c:163
     db8:	f000 f8c2 	bl	f40 <trace_ext_puts>
/mnt/disk/raspbian-tee/optee_os/lib/libutils/ext/trace.c:164
     dbc:	b046      	add	sp, #280	; 0x118
     dbe:	e8bd 87f0 	ldmia.w	sp!, {r4, r5, r6, r7, r8, r9, sl, pc}
trace_level_to_string():
/mnt/disk/raspbian-tee/optee_os/lib/libutils/ext/trace.c:50
     dc2:	234d      	movs	r3, #77	; 0x4d
     dc4:	e79f      	b.n	d06 <trace_printf+0x32>
print_thread_id():
/mnt/disk/raspbian-tee/optee_os/lib/libutils/ext/trace.c:70
     dc6:	4b10      	ldr	r3, [pc, #64]	; (e08 <trace_printf+0x134>)
     dc8:	4a10      	ldr	r2, [pc, #64]	; (e0c <trace_printf+0x138>)
     dca:	447b      	add	r3, pc
     dcc:	9300      	str	r3, [sp, #0]
     dce:	447a      	add	r2, pc
     dd0:	2301      	movs	r3, #1
     dd2:	e7c3      	b.n	d5c <trace_printf+0x88>
trace_printf():
/mnt/disk/raspbian-tee/optee_os/lib/libutils/ext/trace.c:142
     dd4:	2efe      	cmp	r6, #254	; 0xfe
     dd6:	d8f1      	bhi.n	dbc <trace_printf+0xe8>
/mnt/disk/raspbian-tee/optee_os/lib/libutils/ext/trace.c:144
     dd8:	1c74      	adds	r4, r6, #1
     dda:	2320      	movs	r3, #32
     ddc:	55ab      	strb	r3, [r5, r6]
/mnt/disk/raspbian-tee/optee_os/lib/libutils/ext/trace.c:145
     dde:	2300      	movs	r3, #0
     de0:	552b      	strb	r3, [r5, r4]
     de2:	e7d0      	b.n	d86 <trace_printf+0xb2>
/mnt/disk/raspbian-tee/optee_os/lib/libutils/ext/trace.c:159
     de4:	3c01      	subs	r4, #1
     de6:	e7df      	b.n	da8 <trace_printf+0xd4>
     de8:	00006c6e 	.word	0x00006c6e
     dec:	00000010 	.word	0x00000010
     df0:	00005a39 	.word	0x00005a39
     df4:	00005a3a 	.word	0x00005a3a
     df8:	00000014 	.word	0x00000014
     dfc:	00005a2a 	.word	0x00005a2a
     e00:	000059f8 	.word	0x000059f8
     e04:	000059e5 	.word	0x000059e5
     e08:	000056be 	.word	0x000056be
     e0c:	0000598a 	.word	0x0000598a

00000e10 <dhex_dump>:
dhex_dump():
/mnt/disk/raspbian-tee/optee_os/lib/libutils/ext/trace.c:225
     e10:	e92d 4ff0 	stmdb	sp!, {r4, r5, r6, r7, r8, r9, sl, fp, lr}
     e14:	4690      	mov	r8, r2
     e16:	4a35      	ldr	r2, [pc, #212]	; (eec <dhex_dump+0xdc>)
     e18:	468a      	mov	sl, r1
/mnt/disk/raspbian-tee/optee_os/lib/libutils/ext/trace.c:231
     e1a:	4935      	ldr	r1, [pc, #212]	; (ef0 <dhex_dump+0xe0>)
/mnt/disk/raspbian-tee/optee_os/lib/libutils/ext/trace.c:225
     e1c:	447a      	add	r2, pc
     e1e:	b0c7      	sub	sp, #284	; 0x11c
     e20:	4681      	mov	r9, r0
/mnt/disk/raspbian-tee/optee_os/lib/libutils/ext/trace.c:231
     e22:	5852      	ldr	r2, [r2, r1]
     e24:	6812      	ldr	r2, [r2, #0]
     e26:	4542      	cmp	r2, r8
     e28:	db1d      	blt.n	e66 <dhex_dump+0x56>
     e2a:	461e      	mov	r6, r3
/mnt/disk/raspbian-tee/optee_os/lib/libutils/ext/trace.c:240
     e2c:	4b31      	ldr	r3, [pc, #196]	; (ef4 <dhex_dump+0xe4>)
/mnt/disk/raspbian-tee/optee_os/lib/libutils/ext/trace.c:232
     e2e:	ad05      	add	r5, sp, #20
/mnt/disk/raspbian-tee/optee_os/lib/libutils/ext/trace.c:235
     e30:	f8df b0c4 	ldr.w	fp, [pc, #196]	; ef8 <dhex_dump+0xe8>
/mnt/disk/raspbian-tee/optee_os/lib/libutils/ext/trace.c:240
     e34:	447b      	add	r3, pc
     e36:	9302      	str	r3, [sp, #8]
/mnt/disk/raspbian-tee/optee_os/lib/libutils/ext/trace.c:248
     e38:	4b30      	ldr	r3, [pc, #192]	; (efc <dhex_dump+0xec>)
/mnt/disk/raspbian-tee/optee_os/lib/libutils/ext/trace.c:235
     e3a:	44fb      	add	fp, pc
/mnt/disk/raspbian-tee/optee_os/lib/libutils/ext/trace.c:232
     e3c:	2400      	movs	r4, #0
     e3e:	f8c5 4100 	str.w	r4, [r5, #256]	; 0x100
/mnt/disk/raspbian-tee/optee_os/lib/libutils/ext/trace.c:248
     e42:	447b      	add	r3, pc
     e44:	9303      	str	r3, [sp, #12]
/mnt/disk/raspbian-tee/optee_os/lib/libutils/ext/trace.c:233 (discriminator 1)
     e46:	9b50      	ldr	r3, [sp, #320]	; 0x140
     e48:	429c      	cmp	r4, r3
     e4a:	db0f      	blt.n	e6c <dhex_dump+0x5c>
/mnt/disk/raspbian-tee/optee_os/lib/libutils/ext/trace.c:253
     e4c:	f8d5 3100 	ldr.w	r3, [r5, #256]	; 0x100
     e50:	b14b      	cbz	r3, e66 <dhex_dump+0x56>
/mnt/disk/raspbian-tee/optee_os/lib/libutils/ext/trace.c:255
     e52:	4b2b      	ldr	r3, [pc, #172]	; (f00 <dhex_dump+0xf0>)
     e54:	4642      	mov	r2, r8
     e56:	9501      	str	r5, [sp, #4]
     e58:	4651      	mov	r1, sl
     e5a:	447b      	add	r3, pc
     e5c:	4648      	mov	r0, r9
     e5e:	9300      	str	r3, [sp, #0]
     e60:	2301      	movs	r3, #1
     e62:	f7ff ff37 	bl	cd4 <trace_printf>
/mnt/disk/raspbian-tee/optee_os/lib/libutils/ext/trace.c:263
     e66:	b047      	add	sp, #284	; 0x11c
     e68:	e8bd 8ff0 	ldmia.w	sp!, {r4, r5, r6, r7, r8, r9, sl, fp, pc}
/mnt/disk/raspbian-tee/optee_os/lib/libutils/ext/trace.c:234
     e6c:	f014 070f 	ands.w	r7, r4, #15
     e70:	d013      	beq.n	e9a <dhex_dump+0x8a>
/mnt/disk/raspbian-tee/optee_os/lib/libutils/ext/trace.c:240
     e72:	f816 2b01 	ldrb.w	r2, [r6], #1
     e76:	4628      	mov	r0, r5
     e78:	9902      	ldr	r1, [sp, #8]
     e7a:	f7ff feeb 	bl	c54 <append>
/mnt/disk/raspbian-tee/optee_os/lib/libutils/ext/trace.c:241
     e7e:	b9a8      	cbnz	r0, eac <dhex_dump+0x9c>
/mnt/disk/raspbian-tee/optee_os/lib/libutils/ext/trace.c:262
     e80:	4820      	ldr	r0, [pc, #128]	; (f04 <dhex_dump+0xf4>)
     e82:	2203      	movs	r2, #3
     e84:	4b20      	ldr	r3, [pc, #128]	; (f08 <dhex_dump+0xf8>)
     e86:	f44f 7183 	mov.w	r1, #262	; 0x106
     e8a:	4478      	add	r0, pc
     e8c:	447b      	add	r3, pc
     e8e:	3005      	adds	r0, #5
     e90:	9300      	str	r3, [sp, #0]
     e92:	2301      	movs	r3, #1
     e94:	f7ff ff1e 	bl	cd4 <trace_printf>
     e98:	e7e5      	b.n	e66 <dhex_dump+0x56>
/mnt/disk/raspbian-tee/optee_os/lib/libutils/ext/trace.c:235
     e9a:	4633      	mov	r3, r6
     e9c:	2208      	movs	r2, #8
     e9e:	4659      	mov	r1, fp
     ea0:	4628      	mov	r0, r5
     ea2:	f7ff fed7 	bl	c54 <append>
/mnt/disk/raspbian-tee/optee_os/lib/libutils/ext/trace.c:237
     ea6:	2800      	cmp	r0, #0
     ea8:	d1e3      	bne.n	e72 <dhex_dump+0x62>
     eaa:	e7e9      	b.n	e80 <dhex_dump+0x70>
/mnt/disk/raspbian-tee/optee_os/lib/libutils/ext/trace.c:243
     eac:	4263      	negs	r3, r4
     eae:	f003 030f 	and.w	r3, r3, #15
     eb2:	bf58      	it	pl
     eb4:	425f      	negpl	r7, r3
     eb6:	2f07      	cmp	r7, #7
     eb8:	d108      	bne.n	ecc <dhex_dump+0xbc>
/mnt/disk/raspbian-tee/optee_os/lib/libutils/ext/trace.c:244
     eba:	4914      	ldr	r1, [pc, #80]	; (f0c <dhex_dump+0xfc>)
     ebc:	4628      	mov	r0, r5
     ebe:	4479      	add	r1, pc
     ec0:	f7ff fec8 	bl	c54 <append>
/mnt/disk/raspbian-tee/optee_os/lib/libutils/ext/trace.c:245
     ec4:	2800      	cmp	r0, #0
     ec6:	d0db      	beq.n	e80 <dhex_dump+0x70>
/mnt/disk/raspbian-tee/optee_os/lib/libutils/ext/trace.c:233 (discriminator 2)
     ec8:	3401      	adds	r4, #1
     eca:	e7bc      	b.n	e46 <dhex_dump+0x36>
/mnt/disk/raspbian-tee/optee_os/lib/libutils/ext/trace.c:247
     ecc:	2f0f      	cmp	r7, #15
     ece:	d1fb      	bne.n	ec8 <dhex_dump+0xb8>
/mnt/disk/raspbian-tee/optee_os/lib/libutils/ext/trace.c:248
     ed0:	9b03      	ldr	r3, [sp, #12]
     ed2:	4642      	mov	r2, r8
     ed4:	9300      	str	r3, [sp, #0]
     ed6:	4651      	mov	r1, sl
     ed8:	2301      	movs	r3, #1
     eda:	9501      	str	r5, [sp, #4]
     edc:	4648      	mov	r0, r9
     ede:	f7ff fef9 	bl	cd4 <trace_printf>
/mnt/disk/raspbian-tee/optee_os/lib/libutils/ext/trace.c:250
     ee2:	2300      	movs	r3, #0
     ee4:	f8c5 3100 	str.w	r3, [r5, #256]	; 0x100
     ee8:	e7ee      	b.n	ec8 <dhex_dump+0xb8>
     eea:	bf00      	nop
     eec:	00006b34 	.word	0x00006b34
     ef0:	00000010 	.word	0x00000010
     ef4:	00005930 	.word	0x00005930
     ef8:	00005930 	.word	0x00005930
     efc:	00005930 	.word	0x00005930
     f00:	00005918 	.word	0x00005918
     f04:	000058b1 	.word	0x000058b1
     f08:	000058e9 	.word	0x000058e9
     f0c:	000058b2 	.word	0x000058b2

00000f10 <__aeabi_ldivmod>:
__aeabi_ldivmod():
/mnt/disk/raspbian-tee/optee_os/lib/libutils/isoc/arch/arm/arm32_aeabi_ldivmod_a32.S:24
     f10:	e92d5000 	push	{ip, lr}
/mnt/disk/raspbian-tee/optee_os/lib/libutils/isoc/arch/arm/arm32_aeabi_ldivmod_a32.S:26
     f14:	e92d000f 	push	{r0, r1, r2, r3}
/mnt/disk/raspbian-tee/optee_os/lib/libutils/isoc/arch/arm/arm32_aeabi_ldivmod_a32.S:28
     f18:	e1a0000d 	mov	r0, sp
/mnt/disk/raspbian-tee/optee_os/lib/libutils/isoc/arch/arm/arm32_aeabi_ldivmod_a32.S:29
     f1c:	fa00142e 	blx	5fdc <__l_divmod>
/mnt/disk/raspbian-tee/optee_os/lib/libutils/isoc/arch/arm/arm32_aeabi_ldivmod_a32.S:30
     f20:	e8bd000f 	pop	{r0, r1, r2, r3}
/mnt/disk/raspbian-tee/optee_os/lib/libutils/isoc/arch/arm/arm32_aeabi_ldivmod_a32.S:31
     f24:	e8bd9000 	pop	{ip, pc}

00000f28 <__aeabi_uldivmod>:
__aeabi_uldivmod():
/mnt/disk/raspbian-tee/optee_os/lib/libutils/isoc/arch/arm/arm32_aeabi_ldivmod_a32.S:42
     f28:	e92d5000 	push	{ip, lr}
/mnt/disk/raspbian-tee/optee_os/lib/libutils/isoc/arch/arm/arm32_aeabi_ldivmod_a32.S:44
     f2c:	e92d000f 	push	{r0, r1, r2, r3}
/mnt/disk/raspbian-tee/optee_os/lib/libutils/isoc/arch/arm/arm32_aeabi_ldivmod_a32.S:46
     f30:	e1a0000d 	mov	r0, sp
/mnt/disk/raspbian-tee/optee_os/lib/libutils/isoc/arch/arm/arm32_aeabi_ldivmod_a32.S:47
     f34:	fa00140b 	blx	5f68 <__ul_divmod>
/mnt/disk/raspbian-tee/optee_os/lib/libutils/isoc/arch/arm/arm32_aeabi_ldivmod_a32.S:48
     f38:	e8bd000f 	pop	{r0, r1, r2, r3}
/mnt/disk/raspbian-tee/optee_os/lib/libutils/isoc/arch/arm/arm32_aeabi_ldivmod_a32.S:49
     f3c:	e8bd9000 	pop	{ip, pc}

00000f40 <trace_ext_puts>:
trace_ext_puts():
/mnt/disk/raspbian-tee/optee_os/lib/libutee/trace_ext.c:17
     f40:	b510      	push	{r4, lr}
     f42:	4604      	mov	r4, r0
/mnt/disk/raspbian-tee/optee_os/lib/libutee/trace_ext.c:18
     f44:	f005 f808 	bl	5f58 <strlen>
     f48:	4601      	mov	r1, r0
     f4a:	4620      	mov	r0, r4
/mnt/disk/raspbian-tee/optee_os/lib/libutee/trace_ext.c:19
     f4c:	e8bd 4010 	ldmia.w	sp!, {r4, lr}
/mnt/disk/raspbian-tee/optee_os/lib/libutee/trace_ext.c:18
     f50:	f005 b90a 	b.w	6168 <__utee_log_from_thumb>

00000f54 <trace_ext_get_thread_id>:
trace_ext_get_thread_id():
/mnt/disk/raspbian-tee/optee_os/lib/libutee/trace_ext.c:24
     f54:	f04f 30ff 	mov.w	r0, #4294967295	; 0xffffffff
     f58:	4770      	bx	lr

00000f5a <printf>:
printf():
/mnt/disk/raspbian-tee/optee_os/lib/libutee/trace_ext.c:32
     f5a:	b40f      	push	{r0, r1, r2, r3}
     f5c:	b530      	push	{r4, r5, lr}
     f5e:	b0c3      	sub	sp, #268	; 0x10c
/mnt/disk/raspbian-tee/optee_os/lib/libutee/trace_ext.c:37
     f60:	f7ff feae 	bl	cc0 <trace_get_level>
     f64:	2800      	cmp	r0, #0
     f66:	dd13      	ble.n	f90 <printf+0x36>
/mnt/disk/raspbian-tee/optee_os/lib/libutee/trace_ext.c:41
     f68:	ad02      	add	r5, sp, #8
/mnt/disk/raspbian-tee/optee_os/lib/libutee/trace_ext.c:40
     f6a:	ab47      	add	r3, sp, #284	; 0x11c
/mnt/disk/raspbian-tee/optee_os/lib/libutee/trace_ext.c:41
     f6c:	9a46      	ldr	r2, [sp, #280]	; 0x118
     f6e:	f44f 7180 	mov.w	r1, #256	; 0x100
     f72:	4628      	mov	r0, r5
/mnt/disk/raspbian-tee/optee_os/lib/libutee/trace_ext.c:40
     f74:	9301      	str	r3, [sp, #4]
/mnt/disk/raspbian-tee/optee_os/lib/libutee/trace_ext.c:41
     f76:	f004 ffc2 	bl	5efe <vsnprintf>
/mnt/disk/raspbian-tee/optee_os/lib/libutee/trace_ext.c:44
     f7a:	1e04      	subs	r4, r0, #0
     f7c:	db02      	blt.n	f84 <printf+0x2a>
/mnt/disk/raspbian-tee/optee_os/lib/libutee/trace_ext.c:47
     f7e:	4628      	mov	r0, r5
     f80:	f7ff ffde 	bl	f40 <trace_ext_puts>
/mnt/disk/raspbian-tee/optee_os/lib/libutee/trace_ext.c:50
     f84:	4620      	mov	r0, r4
     f86:	b043      	add	sp, #268	; 0x10c
     f88:	e8bd 4030 	ldmia.w	sp!, {r4, r5, lr}
     f8c:	b004      	add	sp, #16
     f8e:	4770      	bx	lr
/mnt/disk/raspbian-tee/optee_os/lib/libutee/trace_ext.c:38
     f90:	2400      	movs	r4, #0
     f92:	e7f7      	b.n	f84 <printf+0x2a>

00000f94 <puts>:
puts():
/mnt/disk/raspbian-tee/optee_os/lib/libutee/trace_ext.c:53
     f94:	b510      	push	{r4, lr}
     f96:	4604      	mov	r4, r0
/mnt/disk/raspbian-tee/optee_os/lib/libutee/trace_ext.c:54
     f98:	f7ff fe92 	bl	cc0 <trace_get_level>
     f9c:	2800      	cmp	r0, #0
     f9e:	dd06      	ble.n	fae <puts+0x1a>
/mnt/disk/raspbian-tee/optee_os/lib/libutee/trace_ext.c:55
     fa0:	4620      	mov	r0, r4
     fa2:	f7ff ffcd 	bl	f40 <trace_ext_puts>
/mnt/disk/raspbian-tee/optee_os/lib/libutee/trace_ext.c:56
     fa6:	4803      	ldr	r0, [pc, #12]	; (fb4 <puts+0x20>)
     fa8:	4478      	add	r0, pc
     faa:	f7ff ffc9 	bl	f40 <trace_ext_puts>
/mnt/disk/raspbian-tee/optee_os/lib/libutee/trace_ext.c:59
     fae:	2001      	movs	r0, #1
     fb0:	bd10      	pop	{r4, pc}
     fb2:	bf00      	nop
     fb4:	000054df 	.word	0x000054df

00000fb8 <putchar>:
putchar():
/mnt/disk/raspbian-tee/optee_os/lib/libutee/trace_ext.c:62
     fb8:	b513      	push	{r0, r1, r4, lr}
/mnt/disk/raspbian-tee/optee_os/lib/libutee/trace_ext.c:63
     fba:	2300      	movs	r3, #0
/mnt/disk/raspbian-tee/optee_os/lib/libutee/trace_ext.c:62
     fbc:	4604      	mov	r4, r0
/mnt/disk/raspbian-tee/optee_os/lib/libutee/trace_ext.c:63
     fbe:	f88d 0004 	strb.w	r0, [sp, #4]
     fc2:	f88d 3005 	strb.w	r3, [sp, #5]
/mnt/disk/raspbian-tee/optee_os/lib/libutee/trace_ext.c:65
     fc6:	f7ff fe7b 	bl	cc0 <trace_get_level>
     fca:	2800      	cmp	r0, #0
     fcc:	dd02      	ble.n	fd4 <putchar+0x1c>
/mnt/disk/raspbian-tee/optee_os/lib/libutee/trace_ext.c:66
     fce:	a801      	add	r0, sp, #4
     fd0:	f7ff ffb6 	bl	f40 <trace_ext_puts>
/mnt/disk/raspbian-tee/optee_os/lib/libutee/trace_ext.c:73
     fd4:	b2e0      	uxtb	r0, r4
     fd6:	b002      	add	sp, #8
     fd8:	bd10      	pop	{r4, pc}
     fda:	bf00      	nop

00000fdc <ta_header_get_session>:
ta_header_get_session():
/mnt/disk/raspbian-tee/optee_os/lib/libutee/arch/arm/user_ta_entry.c:81
     fdc:	4b05      	ldr	r3, [pc, #20]	; (ff4 <ta_header_get_session+0x18>)
     fde:	447b      	add	r3, pc
     fe0:	681b      	ldr	r3, [r3, #0]
/mnt/disk/raspbian-tee/optee_os/lib/libutee/arch/arm/user_ta_entry.c:81 (discriminator 1)
     fe2:	b90b      	cbnz	r3, fe8 <ta_header_get_session+0xc>
/mnt/disk/raspbian-tee/optee_os/lib/libutee/arch/arm/user_ta_entry.c:86
     fe4:	4618      	mov	r0, r3
     fe6:	4770      	bx	lr
/mnt/disk/raspbian-tee/optee_os/lib/libutee/arch/arm/user_ta_entry.c:82
     fe8:	681a      	ldr	r2, [r3, #0]
     fea:	4282      	cmp	r2, r0
     fec:	d0fa      	beq.n	fe4 <ta_header_get_session+0x8>
/mnt/disk/raspbian-tee/optee_os/lib/libutee/arch/arm/user_ta_entry.c:81 (discriminator 2)
     fee:	689b      	ldr	r3, [r3, #8]
     ff0:	e7f7      	b.n	fe2 <ta_header_get_session+0x6>
     ff2:	bf00      	nop
     ff4:	00007176 	.word	0x00007176

00000ff8 <ta_header_remove_session>:
ta_header_remove_session():
/mnt/disk/raspbian-tee/optee_os/lib/libutee/arch/arm/user_ta_entry.c:119
     ff8:	4b14      	ldr	r3, [pc, #80]	; (104c <ta_header_remove_session+0x54>)
/mnt/disk/raspbian-tee/optee_os/lib/libutee/arch/arm/user_ta_entry.c:115
     ffa:	b510      	push	{r4, lr}
/mnt/disk/raspbian-tee/optee_os/lib/libutee/arch/arm/user_ta_entry.c:119
     ffc:	447b      	add	r3, pc
/mnt/disk/raspbian-tee/optee_os/lib/libutee/arch/arm/user_ta_entry.c:115
     ffe:	4c14      	ldr	r4, [pc, #80]	; (1050 <ta_header_remove_session+0x58>)
/mnt/disk/raspbian-tee/optee_os/lib/libutee/arch/arm/user_ta_entry.c:119
    1000:	681b      	ldr	r3, [r3, #0]
/mnt/disk/raspbian-tee/optee_os/lib/libutee/arch/arm/user_ta_entry.c:115
    1002:	447c      	add	r4, pc
/mnt/disk/raspbian-tee/optee_os/lib/libutee/arch/arm/user_ta_entry.c:119 (discriminator 1)
    1004:	b903      	cbnz	r3, 1008 <ta_header_remove_session+0x10>
    1006:	bd10      	pop	{r4, pc}
/mnt/disk/raspbian-tee/optee_os/lib/libutee/arch/arm/user_ta_entry.c:120
    1008:	681a      	ldr	r2, [r3, #0]
    100a:	4282      	cmp	r2, r0
    100c:	689a      	ldr	r2, [r3, #8]
    100e:	d11b      	bne.n	1048 <ta_header_remove_session+0x50>
    1010:	68d9      	ldr	r1, [r3, #12]
/mnt/disk/raspbian-tee/optee_os/lib/libutee/arch/arm/user_ta_entry.c:121
    1012:	b1aa      	cbz	r2, 1040 <ta_header_remove_session+0x48>
/mnt/disk/raspbian-tee/optee_os/lib/libutee/arch/arm/user_ta_entry.c:121 (discriminator 1)
    1014:	60d1      	str	r1, [r2, #12]
/mnt/disk/raspbian-tee/optee_os/lib/libutee/arch/arm/user_ta_entry.c:121 (discriminator 4)
    1016:	68d9      	ldr	r1, [r3, #12]
/mnt/disk/raspbian-tee/optee_os/lib/libutee/arch/arm/user_ta_entry.c:122 (discriminator 4)
    1018:	4618      	mov	r0, r3
/mnt/disk/raspbian-tee/optee_os/lib/libutee/arch/arm/user_ta_entry.c:121 (discriminator 4)
    101a:	600a      	str	r2, [r1, #0]
/mnt/disk/raspbian-tee/optee_os/lib/libutee/arch/arm/user_ta_entry.c:122 (discriminator 4)
    101c:	f000 fcac 	bl	1978 <TEE_Free>
/mnt/disk/raspbian-tee/optee_os/lib/libutee/arch/arm/user_ta_entry.c:127 (discriminator 4)
    1020:	4b0c      	ldr	r3, [pc, #48]	; (1054 <ta_header_remove_session+0x5c>)
    1022:	447b      	add	r3, pc
    1024:	681b      	ldr	r3, [r3, #0]
    1026:	2b00      	cmp	r3, #0
    1028:	d1ed      	bne.n	1006 <ta_header_remove_session+0xe>
/mnt/disk/raspbian-tee/optee_os/lib/libutee/arch/arm/user_ta_entry.c:125 (discriminator 1)
    102a:	4b0b      	ldr	r3, [pc, #44]	; (1058 <ta_header_remove_session+0x60>)
    102c:	58e3      	ldr	r3, [r4, r3]
    102e:	695b      	ldr	r3, [r3, #20]
    1030:	f003 0314 	and.w	r3, r3, #20
/mnt/disk/raspbian-tee/optee_os/lib/libutee/arch/arm/user_ta_entry.c:127 (discriminator 1)
    1034:	2b14      	cmp	r3, #20
    1036:	d0e6      	beq.n	1006 <ta_header_remove_session+0xe>
/mnt/disk/raspbian-tee/optee_os/lib/libutee/arch/arm/user_ta_entry.c:133
    1038:	e8bd 4010 	ldmia.w	sp!, {r4, lr}
uninit_instance():
/mnt/disk/raspbian-tee/optee_os/lib/libutee/arch/arm/user_ta_entry.c:63
    103c:	f7fe bff5 	b.w	2a <TA_DestroyEntryPoint>
ta_header_remove_session():
/mnt/disk/raspbian-tee/optee_os/lib/libutee/arch/arm/user_ta_entry.c:121 (discriminator 2)
    1040:	4806      	ldr	r0, [pc, #24]	; (105c <ta_header_remove_session+0x64>)
    1042:	4478      	add	r0, pc
    1044:	6041      	str	r1, [r0, #4]
    1046:	e7e6      	b.n	1016 <ta_header_remove_session+0x1e>
/mnt/disk/raspbian-tee/optee_os/lib/libutee/arch/arm/user_ta_entry.c:119 (discriminator 2)
    1048:	4613      	mov	r3, r2
    104a:	e7db      	b.n	1004 <ta_header_remove_session+0xc>
    104c:	00007158 	.word	0x00007158
    1050:	0000694e 	.word	0x0000694e
    1054:	00007132 	.word	0x00007132
    1058:	0000002c 	.word	0x0000002c
    105c:	00007112 	.word	0x00007112

00001060 <__utee_entry>:
__utee_entry():
/mnt/disk/raspbian-tee/optee_os/lib/libutee/arch/arm/user_ta_entry.c:200
    1060:	b580      	push	{r7, lr}
    1062:	4616      	mov	r6, r2
    1064:	4c5a      	ldr	r4, [pc, #360]	; (11d0 <__utee_entry+0x170>)
    1066:	b08c      	sub	sp, #48	; 0x30
    1068:	460f      	mov	r7, r1
    106a:	447c      	add	r4, pc
    106c:	4698      	mov	r8, r3
/mnt/disk/raspbian-tee/optee_os/lib/libutee/arch/arm/user_ta_entry.c:211
    106e:	2801      	cmp	r0, #1
    1070:	d074      	beq.n	115c <__utee_entry+0xfc>
    1072:	d307      	bcc.n	1084 <__utee_entry+0x24>
    1074:	2802      	cmp	r0, #2
    1076:	d07e      	beq.n	1176 <__utee_entry+0x116>
/mnt/disk/raspbian-tee/optee_os/lib/libutee/arch/arm/user_ta_entry.c:223
    1078:	2000      	movs	r0, #0
/mnt/disk/raspbian-tee/optee_os/lib/libutee/arch/arm/user_ta_entry.c:222
    107a:	f04f 34ff 	mov.w	r4, #4294967295	; 0xffffffff
/mnt/disk/raspbian-tee/optee_os/lib/libutee/arch/arm/user_ta_entry.c:223
    107e:	f005 f823 	bl	60c8 <TEE_Panic>
/mnt/disk/raspbian-tee/optee_os/lib/libutee/arch/arm/user_ta_entry.c:224
    1082:	e026      	b.n	10d2 <__utee_entry+0x72>
ta_header_add_session():
/mnt/disk/raspbian-tee/optee_os/lib/libutee/arch/arm/user_ta_entry.c:90
    1084:	4608      	mov	r0, r1
    1086:	f7ff ffa9 	bl	fdc <ta_header_get_session>
/mnt/disk/raspbian-tee/optee_os/lib/libutee/arch/arm/user_ta_entry.c:93
    108a:	2800      	cmp	r0, #0
    108c:	d138      	bne.n	1100 <__utee_entry+0xa0>
/mnt/disk/raspbian-tee/optee_os/lib/libutee/arch/arm/user_ta_entry.c:96
    108e:	4b51      	ldr	r3, [pc, #324]	; (11d4 <__utee_entry+0x174>)
    1090:	447b      	add	r3, pc
    1092:	781a      	ldrb	r2, [r3, #0]
    1094:	b13a      	cbz	r2, 10a6 <__utee_entry+0x46>
/mnt/disk/raspbian-tee/optee_os/lib/libutee/arch/arm/user_ta_entry.c:103
    1096:	f04f 4100 	mov.w	r1, #2147483648	; 0x80000000
    109a:	2010      	movs	r0, #16
    109c:	f000 fc45 	bl	192a <TEE_Malloc>
/mnt/disk/raspbian-tee/optee_os/lib/libutee/arch/arm/user_ta_entry.c:105
    10a0:	bb18      	cbnz	r0, 10ea <__utee_entry+0x8a>
/mnt/disk/raspbian-tee/optee_os/lib/libutee/arch/arm/user_ta_entry.c:106
    10a2:	4c49      	ldr	r4, [pc, #292]	; (11c8 <__utee_entry+0x168>)
    10a4:	e015      	b.n	10d2 <__utee_entry+0x72>
/mnt/disk/raspbian-tee/optee_os/lib/libutee/arch/arm/user_ta_entry.c:97
    10a6:	2201      	movs	r2, #1
    10a8:	701a      	strb	r2, [r3, #0]
init_instance():
/mnt/disk/raspbian-tee/optee_os/lib/libutee/arch/arm/user_ta_entry.c:53
    10aa:	f004 ff17 	bl	5edc <tahead_get_trace_level>
    10ae:	f7ff fdf8 	bl	ca2 <trace_set_level>
/mnt/disk/raspbian-tee/optee_os/lib/libutee/arch/arm/user_ta_entry.c:55
    10b2:	4b49      	ldr	r3, [pc, #292]	; (11d8 <__utee_entry+0x178>)
    10b4:	4a49      	ldr	r2, [pc, #292]	; (11dc <__utee_entry+0x17c>)
    10b6:	58e3      	ldr	r3, [r4, r3]
    10b8:	58a2      	ldr	r2, [r4, r2]
    10ba:	9201      	str	r2, [sp, #4]
    10bc:	6819      	ldr	r1, [r3, #0]
    10be:	4610      	mov	r0, r2
    10c0:	f004 fd5e 	bl	5b80 <malloc_add_pool>
/mnt/disk/raspbian-tee/optee_os/lib/libutee/arch/arm/user_ta_entry.c:56
    10c4:	f000 ff3a 	bl	1f3c <_TEE_MathAPI_Init>
/mnt/disk/raspbian-tee/optee_os/lib/libutee/arch/arm/user_ta_entry.c:57
    10c8:	f7fe ffaa 	bl	20 <TA_CreateEntryPoint>
ta_header_add_session():
/mnt/disk/raspbian-tee/optee_os/lib/libutee/arch/arm/user_ta_entry.c:99
    10cc:	4604      	mov	r4, r0
    10ce:	2800      	cmp	r0, #0
    10d0:	d0e1      	beq.n	1096 <__utee_entry+0x36>
ta_header_save_params():
/mnt/disk/raspbian-tee/optee_os/lib/libutee/arch/arm/user_ta_entry.c:69
    10d2:	4843      	ldr	r0, [pc, #268]	; (11e0 <__utee_entry+0x180>)
    10d4:	2100      	movs	r1, #0
/mnt/disk/raspbian-tee/optee_os/lib/libutee/arch/arm/user_ta_entry.c:74
    10d6:	2220      	movs	r2, #32
/mnt/disk/raspbian-tee/optee_os/lib/libutee/arch/arm/user_ta_entry.c:69
    10d8:	4478      	add	r0, pc
/mnt/disk/raspbian-tee/optee_os/lib/libutee/arch/arm/user_ta_entry.c:74
    10da:	3008      	adds	r0, #8
/mnt/disk/raspbian-tee/optee_os/lib/libutee/arch/arm/user_ta_entry.c:69
    10dc:	f840 1c04 	str.w	r1, [r0, #-4]
/mnt/disk/raspbian-tee/optee_os/lib/libutee/arch/arm/user_ta_entry.c:74
    10e0:	f004 ff14 	bl	5f0c <memset>
__utee_entry():
/mnt/disk/raspbian-tee/optee_os/lib/libutee/arch/arm/user_ta_entry.c:227
    10e4:	4620      	mov	r0, r4
    10e6:	f000 e88e 	blx	1204 <utee_return>
ta_header_add_session():
/mnt/disk/raspbian-tee/optee_os/lib/libutee/arch/arm/user_ta_entry.c:108
    10ea:	2300      	movs	r3, #0
    10ec:	6043      	str	r3, [r0, #4]
/mnt/disk/raspbian-tee/optee_os/lib/libutee/arch/arm/user_ta_entry.c:109
    10ee:	6083      	str	r3, [r0, #8]
    10f0:	4b3c      	ldr	r3, [pc, #240]	; (11e4 <__utee_entry+0x184>)
/mnt/disk/raspbian-tee/optee_os/lib/libutee/arch/arm/user_ta_entry.c:107
    10f2:	6007      	str	r7, [r0, #0]
/mnt/disk/raspbian-tee/optee_os/lib/libutee/arch/arm/user_ta_entry.c:109
    10f4:	447b      	add	r3, pc
    10f6:	685a      	ldr	r2, [r3, #4]
    10f8:	60c2      	str	r2, [r0, #12]
    10fa:	6010      	str	r0, [r2, #0]
    10fc:	3008      	adds	r0, #8
    10fe:	6058      	str	r0, [r3, #4]
entry_open_session():
/mnt/disk/raspbian-tee/optee_os/lib/libutee/arch/arm/user_ta_entry.c:147
    1100:	4638      	mov	r0, r7
    1102:	f7ff ff6b 	bl	fdc <ta_header_get_session>
/mnt/disk/raspbian-tee/optee_os/lib/libutee/arch/arm/user_ta_entry.c:148
    1106:	4681      	mov	r9, r0
    1108:	b908      	cbnz	r0, 110e <__utee_entry+0xae>
entry_close_session():
/mnt/disk/raspbian-tee/optee_os/lib/libutee/arch/arm/user_ta_entry.c:169
    110a:	4c30      	ldr	r4, [pc, #192]	; (11cc <__utee_entry+0x16c>)
    110c:	e7e1      	b.n	10d2 <__utee_entry+0x72>
entry_open_session():
/mnt/disk/raspbian-tee/optee_os/lib/libutee/arch/arm/user_ta_entry.c:151
    110e:	f10d 0810 	add.w	r8, sp, #16
ta_header_save_params():
/mnt/disk/raspbian-tee/optee_os/lib/libutee/arch/arm/user_ta_entry.c:69
    1112:	4c35      	ldr	r4, [pc, #212]	; (11e8 <__utee_entry+0x188>)
/mnt/disk/raspbian-tee/optee_os/lib/libutee/arch/arm/user_ta_entry.c:72
    1114:	4645      	mov	r5, r8
entry_open_session():
/mnt/disk/raspbian-tee/optee_os/lib/libutee/arch/arm/user_ta_entry.c:151
    1116:	4632      	mov	r2, r6
    1118:	a903      	add	r1, sp, #12
    111a:	4640      	mov	r0, r8
ta_header_save_params():
/mnt/disk/raspbian-tee/optee_os/lib/libutee/arch/arm/user_ta_entry.c:69
    111c:	447c      	add	r4, pc
entry_open_session():
/mnt/disk/raspbian-tee/optee_os/lib/libutee/arch/arm/user_ta_entry.c:151
    111e:	f000 faed 	bl	16fc <__utee_to_param>
ta_header_save_params():
/mnt/disk/raspbian-tee/optee_os/lib/libutee/arch/arm/user_ta_entry.c:72
    1122:	cd0f      	ldmia	r5!, {r0, r1, r2, r3}
    1124:	3408      	adds	r4, #8
entry_open_session():
/mnt/disk/raspbian-tee/optee_os/lib/libutee/arch/arm/user_ta_entry.c:152
    1126:	f8dd c00c 	ldr.w	ip, [sp, #12]
ta_header_save_params():
/mnt/disk/raspbian-tee/optee_os/lib/libutee/arch/arm/user_ta_entry.c:69
    112a:	f844 cc04 	str.w	ip, [r4, #-4]
/mnt/disk/raspbian-tee/optee_os/lib/libutee/arch/arm/user_ta_entry.c:72
    112e:	c40f      	stmia	r4!, {r0, r1, r2, r3}
    1130:	e895 000f 	ldmia.w	r5, {r0, r1, r2, r3}
    1134:	e884 000f 	stmia.w	r4, {r0, r1, r2, r3}
entry_open_session():
/mnt/disk/raspbian-tee/optee_os/lib/libutee/arch/arm/user_ta_entry.c:154
    1138:	f109 0204 	add.w	r2, r9, #4
    113c:	4641      	mov	r1, r8
    113e:	4660      	mov	r0, ip
    1140:	f7fe ff74 	bl	2c <TA_OpenSessionEntryPoint>
/mnt/disk/raspbian-tee/optee_os/lib/libutee/arch/arm/user_ta_entry.c:157
    1144:	4642      	mov	r2, r8
/mnt/disk/raspbian-tee/optee_os/lib/libutee/arch/arm/user_ta_entry.c:154
    1146:	4604      	mov	r4, r0
/mnt/disk/raspbian-tee/optee_os/lib/libutee/arch/arm/user_ta_entry.c:157
    1148:	9903      	ldr	r1, [sp, #12]
    114a:	4630      	mov	r0, r6
    114c:	f000 faae 	bl	16ac <__utee_from_param>
/mnt/disk/raspbian-tee/optee_os/lib/libutee/arch/arm/user_ta_entry.c:159
    1150:	2c00      	cmp	r4, #0
    1152:	d0be      	beq.n	10d2 <__utee_entry+0x72>
/mnt/disk/raspbian-tee/optee_os/lib/libutee/arch/arm/user_ta_entry.c:160
    1154:	4638      	mov	r0, r7
    1156:	f7ff ff4f 	bl	ff8 <ta_header_remove_session>
    115a:	e7ba      	b.n	10d2 <__utee_entry+0x72>
entry_close_session():
/mnt/disk/raspbian-tee/optee_os/lib/libutee/arch/arm/user_ta_entry.c:166
    115c:	4608      	mov	r0, r1
    115e:	f7ff ff3d 	bl	fdc <ta_header_get_session>
/mnt/disk/raspbian-tee/optee_os/lib/libutee/arch/arm/user_ta_entry.c:168
    1162:	2800      	cmp	r0, #0
    1164:	d0d1      	beq.n	110a <__utee_entry+0xaa>
/mnt/disk/raspbian-tee/optee_os/lib/libutee/arch/arm/user_ta_entry.c:171
    1166:	6840      	ldr	r0, [r0, #4]
/mnt/disk/raspbian-tee/optee_os/lib/libutee/arch/arm/user_ta_entry.c:174
    1168:	2400      	movs	r4, #0
/mnt/disk/raspbian-tee/optee_os/lib/libutee/arch/arm/user_ta_entry.c:171
    116a:	f7fe ff67 	bl	3c <TA_CloseSessionEntryPoint>
/mnt/disk/raspbian-tee/optee_os/lib/libutee/arch/arm/user_ta_entry.c:173
    116e:	4638      	mov	r0, r7
    1170:	f7ff ff42 	bl	ff8 <ta_header_remove_session>
    1174:	e7ad      	b.n	10d2 <__utee_entry+0x72>
entry_invoke_command():
/mnt/disk/raspbian-tee/optee_os/lib/libutee/arch/arm/user_ta_entry.c:183
    1176:	4608      	mov	r0, r1
    1178:	f7ff ff30 	bl	fdc <ta_header_get_session>
/mnt/disk/raspbian-tee/optee_os/lib/libutee/arch/arm/user_ta_entry.c:185
    117c:	4681      	mov	r9, r0
    117e:	2800      	cmp	r0, #0
    1180:	d0c3      	beq.n	110a <__utee_entry+0xaa>
/mnt/disk/raspbian-tee/optee_os/lib/libutee/arch/arm/user_ta_entry.c:188
    1182:	af04      	add	r7, sp, #16
ta_header_save_params():
/mnt/disk/raspbian-tee/optee_os/lib/libutee/arch/arm/user_ta_entry.c:69
    1184:	4c19      	ldr	r4, [pc, #100]	; (11ec <__utee_entry+0x18c>)
/mnt/disk/raspbian-tee/optee_os/lib/libutee/arch/arm/user_ta_entry.c:72
    1186:	463d      	mov	r5, r7
entry_invoke_command():
/mnt/disk/raspbian-tee/optee_os/lib/libutee/arch/arm/user_ta_entry.c:188
    1188:	4632      	mov	r2, r6
    118a:	a903      	add	r1, sp, #12
    118c:	4638      	mov	r0, r7
ta_header_save_params():
/mnt/disk/raspbian-tee/optee_os/lib/libutee/arch/arm/user_ta_entry.c:69
    118e:	447c      	add	r4, pc
entry_invoke_command():
/mnt/disk/raspbian-tee/optee_os/lib/libutee/arch/arm/user_ta_entry.c:188
    1190:	f000 fab4 	bl	16fc <__utee_to_param>
ta_header_save_params():
/mnt/disk/raspbian-tee/optee_os/lib/libutee/arch/arm/user_ta_entry.c:72
    1194:	cd0f      	ldmia	r5!, {r0, r1, r2, r3}
    1196:	3408      	adds	r4, #8
entry_invoke_command():
/mnt/disk/raspbian-tee/optee_os/lib/libutee/arch/arm/user_ta_entry.c:189
    1198:	f8dd c00c 	ldr.w	ip, [sp, #12]
ta_header_save_params():
/mnt/disk/raspbian-tee/optee_os/lib/libutee/arch/arm/user_ta_entry.c:69
    119c:	f844 cc04 	str.w	ip, [r4, #-4]
/mnt/disk/raspbian-tee/optee_os/lib/libutee/arch/arm/user_ta_entry.c:72
    11a0:	c40f      	stmia	r4!, {r0, r1, r2, r3}
    11a2:	e895 000f 	ldmia.w	r5, {r0, r1, r2, r3}
    11a6:	e884 000f 	stmia.w	r4, {r0, r1, r2, r3}
entry_invoke_command():
/mnt/disk/raspbian-tee/optee_os/lib/libutee/arch/arm/user_ta_entry.c:191
    11aa:	4662      	mov	r2, ip
    11ac:	4641      	mov	r1, r8
    11ae:	463b      	mov	r3, r7
    11b0:	f8d9 0004 	ldr.w	r0, [r9, #4]
    11b4:	f7fe ff54 	bl	60 <TA_InvokeCommandEntryPoint>
/mnt/disk/raspbian-tee/optee_os/lib/libutee/arch/arm/user_ta_entry.c:194
    11b8:	463a      	mov	r2, r7
/mnt/disk/raspbian-tee/optee_os/lib/libutee/arch/arm/user_ta_entry.c:191
    11ba:	4604      	mov	r4, r0
/mnt/disk/raspbian-tee/optee_os/lib/libutee/arch/arm/user_ta_entry.c:194
    11bc:	9903      	ldr	r1, [sp, #12]
    11be:	4630      	mov	r0, r6
    11c0:	f000 fa74 	bl	16ac <__utee_from_param>
    11c4:	e785      	b.n	10d2 <__utee_entry+0x72>
    11c6:	bf00      	nop
    11c8:	ffff000c 	.word	0xffff000c
    11cc:	ffff0007 	.word	0xffff0007
    11d0:	000068e6 	.word	0x000068e6
    11d4:	0000741c 	.word	0x0000741c
    11d8:	0000000c 	.word	0x0000000c
    11dc:	00000020 	.word	0x00000020
    11e0:	000073d4 	.word	0x000073d4
    11e4:	00007060 	.word	0x00007060
    11e8:	00007390 	.word	0x00007390
    11ec:	0000731e 	.word	0x0000731e

000011f0 <utee_panic>:
utee_panic():
/mnt/disk/raspbian-tee/optee_os/lib/libutee/arch/arm/utee_syscalls_a32.S:47
    11f0:	e92d4fff 	push	{r0, r1, r2, r3, r4, r5, r6, r7, r8, r9, sl, fp, lr}
/mnt/disk/raspbian-tee/optee_os/lib/libutee/arch/arm/utee_syscalls_a32.S:49
    11f4:	e1a0e00f 	mov	lr, pc
/mnt/disk/raspbian-tee/optee_os/lib/libutee/arch/arm/utee_syscalls_a32.S:50
    11f8:	e52de004 	push	{lr}		; (str lr, [sp, #-4]!)
/mnt/disk/raspbian-tee/optee_os/lib/libutee/arch/arm/utee_syscalls_a32.S:52
    11fc:	e1a0100d 	mov	r1, sp
/mnt/disk/raspbian-tee/optee_os/lib/libutee/arch/arm/utee_syscalls_a32.S:53
    1200:	eb000009 	bl	122c <__utee_panic>

00001204 <utee_return>:
utee_return():
/mnt/disk/raspbian-tee/optee_os/lib/libutee/arch/arm/utee_syscalls_asm.S:8
    1204:	e92d40e0 	push	{r5, r6, r7, lr}
    1208:	e3a07000 	mov	r7, #0
    120c:	e3a06000 	mov	r6, #0
    1210:	ef000000 	svc	0x00000000
    1214:	e8bd80e0 	pop	{r5, r6, r7, pc}

00001218 <utee_log>:
utee_log():
/mnt/disk/raspbian-tee/optee_os/lib/libutee/arch/arm/utee_syscalls_asm.S:10
    1218:	e92d40e0 	push	{r5, r6, r7, lr}
    121c:	e3a07001 	mov	r7, #1
    1220:	e3a06000 	mov	r6, #0
    1224:	ef000000 	svc	0x00000000
    1228:	e8bd80e0 	pop	{r5, r6, r7, pc}

0000122c <__utee_panic>:
__utee_panic():
/mnt/disk/raspbian-tee/optee_os/lib/libutee/arch/arm/utee_syscalls_asm.S:12
    122c:	e92d40e0 	push	{r5, r6, r7, lr}
    1230:	e3a07002 	mov	r7, #2
    1234:	e3a06000 	mov	r6, #0
    1238:	ef000000 	svc	0x00000000
    123c:	e8bd80e0 	pop	{r5, r6, r7, pc}

00001240 <utee_get_property>:
utee_get_property():
/mnt/disk/raspbian-tee/optee_os/lib/libutee/arch/arm/utee_syscalls_asm.S:14
    1240:	e92d40e0 	push	{r5, r6, r7, lr}
    1244:	e3a07003 	mov	r7, #3
    1248:	e3a06003 	mov	r6, #3
    124c:	e28d5010 	add	r5, sp, #16
    1250:	ef000000 	svc	0x00000000
    1254:	e8bd80e0 	pop	{r5, r6, r7, pc}

00001258 <utee_get_property_name_to_index>:
utee_get_property_name_to_index():
/mnt/disk/raspbian-tee/optee_os/lib/libutee/arch/arm/utee_syscalls_asm.S:16
    1258:	e92d40e0 	push	{r5, r6, r7, lr}
    125c:	e3a07004 	mov	r7, #4
    1260:	e3a06000 	mov	r6, #0
    1264:	ef000000 	svc	0x00000000
    1268:	e8bd80e0 	pop	{r5, r6, r7, pc}

0000126c <utee_open_ta_session>:
utee_open_ta_session():
/mnt/disk/raspbian-tee/optee_os/lib/libutee/arch/arm/utee_syscalls_asm.S:19
    126c:	e92d40e0 	push	{r5, r6, r7, lr}
    1270:	e3a07005 	mov	r7, #5
    1274:	e3a06001 	mov	r6, #1
    1278:	e28d5010 	add	r5, sp, #16
    127c:	ef000000 	svc	0x00000000
    1280:	e8bd80e0 	pop	{r5, r6, r7, pc}

00001284 <utee_close_ta_session>:
utee_close_ta_session():
/mnt/disk/raspbian-tee/optee_os/lib/libutee/arch/arm/utee_syscalls_asm.S:21
    1284:	e92d40e0 	push	{r5, r6, r7, lr}
    1288:	e3a07006 	mov	r7, #6
    128c:	e3a06000 	mov	r6, #0
    1290:	ef000000 	svc	0x00000000
    1294:	e8bd80e0 	pop	{r5, r6, r7, pc}

00001298 <utee_invoke_ta_command>:
utee_invoke_ta_command():
/mnt/disk/raspbian-tee/optee_os/lib/libutee/arch/arm/utee_syscalls_asm.S:23
    1298:	e92d40e0 	push	{r5, r6, r7, lr}
    129c:	e3a07007 	mov	r7, #7
    12a0:	e3a06001 	mov	r6, #1
    12a4:	e28d5010 	add	r5, sp, #16
    12a8:	ef000000 	svc	0x00000000
    12ac:	e8bd80e0 	pop	{r5, r6, r7, pc}

000012b0 <utee_get_cancellation_flag>:
utee_get_cancellation_flag():
/mnt/disk/raspbian-tee/optee_os/lib/libutee/arch/arm/utee_syscalls_asm.S:25
    12b0:	e92d40e0 	push	{r5, r6, r7, lr}
    12b4:	e3a07009 	mov	r7, #9
    12b8:	e3a06000 	mov	r6, #0
    12bc:	ef000000 	svc	0x00000000
    12c0:	e8bd80e0 	pop	{r5, r6, r7, pc}

000012c4 <utee_check_access_rights>:
utee_check_access_rights():
/mnt/disk/raspbian-tee/optee_os/lib/libutee/arch/arm/utee_syscalls_asm.S:28
    12c4:	e92d40e0 	push	{r5, r6, r7, lr}
    12c8:	e3a07008 	mov	r7, #8
    12cc:	e3a06000 	mov	r6, #0
    12d0:	ef000000 	svc	0x00000000
    12d4:	e8bd80e0 	pop	{r5, r6, r7, pc}

000012d8 <utee_unmask_cancellation>:
utee_unmask_cancellation():
/mnt/disk/raspbian-tee/optee_os/lib/libutee/arch/arm/utee_syscalls_asm.S:30
    12d8:	e92d40e0 	push	{r5, r6, r7, lr}
    12dc:	e3a0700a 	mov	r7, #10
    12e0:	e3a06000 	mov	r6, #0
    12e4:	ef000000 	svc	0x00000000
    12e8:	e8bd80e0 	pop	{r5, r6, r7, pc}

000012ec <utee_mask_cancellation>:
utee_mask_cancellation():
/mnt/disk/raspbian-tee/optee_os/lib/libutee/arch/arm/utee_syscalls_asm.S:32
    12ec:	e92d40e0 	push	{r5, r6, r7, lr}
    12f0:	e3a0700b 	mov	r7, #11
    12f4:	e3a06000 	mov	r6, #0
    12f8:	ef000000 	svc	0x00000000
    12fc:	e8bd80e0 	pop	{r5, r6, r7, pc}

00001300 <utee_wait>:
utee_wait():
/mnt/disk/raspbian-tee/optee_os/lib/libutee/arch/arm/utee_syscalls_asm.S:34
    1300:	e92d40e0 	push	{r5, r6, r7, lr}
    1304:	e3a0700c 	mov	r7, #12
    1308:	e3a06000 	mov	r6, #0
    130c:	ef000000 	svc	0x00000000
    1310:	e8bd80e0 	pop	{r5, r6, r7, pc}

00001314 <utee_get_time>:
utee_get_time():
/mnt/disk/raspbian-tee/optee_os/lib/libutee/arch/arm/utee_syscalls_asm.S:36
    1314:	e92d40e0 	push	{r5, r6, r7, lr}
    1318:	e3a0700d 	mov	r7, #13
    131c:	e3a06000 	mov	r6, #0
    1320:	ef000000 	svc	0x00000000
    1324:	e8bd80e0 	pop	{r5, r6, r7, pc}

00001328 <utee_set_ta_time>:
utee_set_ta_time():
/mnt/disk/raspbian-tee/optee_os/lib/libutee/arch/arm/utee_syscalls_asm.S:38
    1328:	e92d40e0 	push	{r5, r6, r7, lr}
    132c:	e3a0700e 	mov	r7, #14
    1330:	e3a06000 	mov	r6, #0
    1334:	ef000000 	svc	0x00000000
    1338:	e8bd80e0 	pop	{r5, r6, r7, pc}

0000133c <utee_cryp_state_alloc>:
utee_cryp_state_alloc():
/mnt/disk/raspbian-tee/optee_os/lib/libutee/arch/arm/utee_syscalls_asm.S:40
    133c:	e92d40e0 	push	{r5, r6, r7, lr}
    1340:	e3a0700f 	mov	r7, #15
    1344:	e3a06001 	mov	r6, #1
    1348:	e28d5010 	add	r5, sp, #16
    134c:	ef000000 	svc	0x00000000
    1350:	e8bd80e0 	pop	{r5, r6, r7, pc}

00001354 <utee_cryp_state_copy>:
utee_cryp_state_copy():
/mnt/disk/raspbian-tee/optee_os/lib/libutee/arch/arm/utee_syscalls_asm.S:42
    1354:	e92d40e0 	push	{r5, r6, r7, lr}
    1358:	e3a07010 	mov	r7, #16
    135c:	e3a06000 	mov	r6, #0
    1360:	ef000000 	svc	0x00000000
    1364:	e8bd80e0 	pop	{r5, r6, r7, pc}

00001368 <utee_cryp_state_free>:
utee_cryp_state_free():
/mnt/disk/raspbian-tee/optee_os/lib/libutee/arch/arm/utee_syscalls_asm.S:44
    1368:	e92d40e0 	push	{r5, r6, r7, lr}
    136c:	e3a07011 	mov	r7, #17
    1370:	e3a06000 	mov	r6, #0
    1374:	ef000000 	svc	0x00000000
    1378:	e8bd80e0 	pop	{r5, r6, r7, pc}

0000137c <utee_hash_init>:
utee_hash_init():
/mnt/disk/raspbian-tee/optee_os/lib/libutee/arch/arm/utee_syscalls_asm.S:46
    137c:	e92d40e0 	push	{r5, r6, r7, lr}
    1380:	e3a07012 	mov	r7, #18
    1384:	e3a06000 	mov	r6, #0
    1388:	ef000000 	svc	0x00000000
    138c:	e8bd80e0 	pop	{r5, r6, r7, pc}

00001390 <utee_hash_update>:
utee_hash_update():
/mnt/disk/raspbian-tee/optee_os/lib/libutee/arch/arm/utee_syscalls_asm.S:48
    1390:	e92d40e0 	push	{r5, r6, r7, lr}
    1394:	e3a07013 	mov	r7, #19
    1398:	e3a06000 	mov	r6, #0
    139c:	ef000000 	svc	0x00000000
    13a0:	e8bd80e0 	pop	{r5, r6, r7, pc}

000013a4 <utee_hash_final>:
utee_hash_final():
/mnt/disk/raspbian-tee/optee_os/lib/libutee/arch/arm/utee_syscalls_asm.S:50
    13a4:	e92d40e0 	push	{r5, r6, r7, lr}
    13a8:	e3a07014 	mov	r7, #20
    13ac:	e3a06001 	mov	r6, #1
    13b0:	e28d5010 	add	r5, sp, #16
    13b4:	ef000000 	svc	0x00000000
    13b8:	e8bd80e0 	pop	{r5, r6, r7, pc}

000013bc <utee_cipher_init>:
utee_cipher_init():
/mnt/disk/raspbian-tee/optee_os/lib/libutee/arch/arm/utee_syscalls_asm.S:52
    13bc:	e92d40e0 	push	{r5, r6, r7, lr}
    13c0:	e3a07015 	mov	r7, #21
    13c4:	e3a06000 	mov	r6, #0
    13c8:	ef000000 	svc	0x00000000
    13cc:	e8bd80e0 	pop	{r5, r6, r7, pc}

000013d0 <utee_cipher_update>:
utee_cipher_update():
/mnt/disk/raspbian-tee/optee_os/lib/libutee/arch/arm/utee_syscalls_asm.S:54
    13d0:	e92d40e0 	push	{r5, r6, r7, lr}
    13d4:	e3a07016 	mov	r7, #22
    13d8:	e3a06001 	mov	r6, #1
    13dc:	e28d5010 	add	r5, sp, #16
    13e0:	ef000000 	svc	0x00000000
    13e4:	e8bd80e0 	pop	{r5, r6, r7, pc}

000013e8 <utee_cipher_final>:
utee_cipher_final():
/mnt/disk/raspbian-tee/optee_os/lib/libutee/arch/arm/utee_syscalls_asm.S:56
    13e8:	e92d40e0 	push	{r5, r6, r7, lr}
    13ec:	e3a07017 	mov	r7, #23
    13f0:	e3a06001 	mov	r6, #1
    13f4:	e28d5010 	add	r5, sp, #16
    13f8:	ef000000 	svc	0x00000000
    13fc:	e8bd80e0 	pop	{r5, r6, r7, pc}

00001400 <utee_cryp_obj_get_info>:
utee_cryp_obj_get_info():
/mnt/disk/raspbian-tee/optee_os/lib/libutee/arch/arm/utee_syscalls_asm.S:58
    1400:	e92d40e0 	push	{r5, r6, r7, lr}
    1404:	e3a07018 	mov	r7, #24
    1408:	e3a06000 	mov	r6, #0
    140c:	ef000000 	svc	0x00000000
    1410:	e8bd80e0 	pop	{r5, r6, r7, pc}

00001414 <utee_cryp_obj_restrict_usage>:
utee_cryp_obj_restrict_usage():
/mnt/disk/raspbian-tee/optee_os/lib/libutee/arch/arm/utee_syscalls_asm.S:60
    1414:	e92d40e0 	push	{r5, r6, r7, lr}
    1418:	e3a07019 	mov	r7, #25
    141c:	e3a06000 	mov	r6, #0
    1420:	ef000000 	svc	0x00000000
    1424:	e8bd80e0 	pop	{r5, r6, r7, pc}

00001428 <utee_cryp_obj_get_attr>:
utee_cryp_obj_get_attr():
/mnt/disk/raspbian-tee/optee_os/lib/libutee/arch/arm/utee_syscalls_asm.S:63
    1428:	e92d40e0 	push	{r5, r6, r7, lr}
    142c:	e3a0701a 	mov	r7, #26
    1430:	e3a06000 	mov	r6, #0
    1434:	ef000000 	svc	0x00000000
    1438:	e8bd80e0 	pop	{r5, r6, r7, pc}

0000143c <utee_cryp_obj_alloc>:
utee_cryp_obj_alloc():
/mnt/disk/raspbian-tee/optee_os/lib/libutee/arch/arm/utee_syscalls_asm.S:65
    143c:	e92d40e0 	push	{r5, r6, r7, lr}
    1440:	e3a0701b 	mov	r7, #27
    1444:	e3a06000 	mov	r6, #0
    1448:	ef000000 	svc	0x00000000
    144c:	e8bd80e0 	pop	{r5, r6, r7, pc}

00001450 <utee_cryp_obj_close>:
utee_cryp_obj_close():
/mnt/disk/raspbian-tee/optee_os/lib/libutee/arch/arm/utee_syscalls_asm.S:67
    1450:	e92d40e0 	push	{r5, r6, r7, lr}
    1454:	e3a0701c 	mov	r7, #28
    1458:	e3a06000 	mov	r6, #0
    145c:	ef000000 	svc	0x00000000
    1460:	e8bd80e0 	pop	{r5, r6, r7, pc}

00001464 <utee_cryp_obj_reset>:
utee_cryp_obj_reset():
/mnt/disk/raspbian-tee/optee_os/lib/libutee/arch/arm/utee_syscalls_asm.S:69
    1464:	e92d40e0 	push	{r5, r6, r7, lr}
    1468:	e3a0701d 	mov	r7, #29
    146c:	e3a06000 	mov	r6, #0
    1470:	ef000000 	svc	0x00000000
    1474:	e8bd80e0 	pop	{r5, r6, r7, pc}

00001478 <utee_cryp_obj_populate>:
utee_cryp_obj_populate():
/mnt/disk/raspbian-tee/optee_os/lib/libutee/arch/arm/utee_syscalls_asm.S:71
    1478:	e92d40e0 	push	{r5, r6, r7, lr}
    147c:	e3a0701e 	mov	r7, #30
    1480:	e3a06000 	mov	r6, #0
    1484:	ef000000 	svc	0x00000000
    1488:	e8bd80e0 	pop	{r5, r6, r7, pc}

0000148c <utee_cryp_obj_copy>:
utee_cryp_obj_copy():
/mnt/disk/raspbian-tee/optee_os/lib/libutee/arch/arm/utee_syscalls_asm.S:73
    148c:	e92d40e0 	push	{r5, r6, r7, lr}
    1490:	e3a0701f 	mov	r7, #31
    1494:	e3a06000 	mov	r6, #0
    1498:	ef000000 	svc	0x00000000
    149c:	e8bd80e0 	pop	{r5, r6, r7, pc}

000014a0 <utee_cryp_derive_key>:
utee_cryp_derive_key():
/mnt/disk/raspbian-tee/optee_os/lib/libutee/arch/arm/utee_syscalls_asm.S:75
    14a0:	e92d40e0 	push	{r5, r6, r7, lr}
    14a4:	e3a07020 	mov	r7, #32
    14a8:	e3a06000 	mov	r6, #0
    14ac:	ef000000 	svc	0x00000000
    14b0:	e8bd80e0 	pop	{r5, r6, r7, pc}

000014b4 <utee_cryp_random_number_generate>:
utee_cryp_random_number_generate():
/mnt/disk/raspbian-tee/optee_os/lib/libutee/arch/arm/utee_syscalls_asm.S:77
    14b4:	e92d40e0 	push	{r5, r6, r7, lr}
    14b8:	e3a07021 	mov	r7, #33	; 0x21
    14bc:	e3a06000 	mov	r6, #0
    14c0:	ef000000 	svc	0x00000000
    14c4:	e8bd80e0 	pop	{r5, r6, r7, pc}

000014c8 <utee_authenc_init>:
utee_authenc_init():
/mnt/disk/raspbian-tee/optee_os/lib/libutee/arch/arm/utee_syscalls_asm.S:80
    14c8:	e92d40e0 	push	{r5, r6, r7, lr}
    14cc:	e3a07022 	mov	r7, #34	; 0x22
    14d0:	e3a06002 	mov	r6, #2
    14d4:	e28d5010 	add	r5, sp, #16
    14d8:	ef000000 	svc	0x00000000
    14dc:	e8bd80e0 	pop	{r5, r6, r7, pc}

000014e0 <utee_authenc_update_aad>:
utee_authenc_update_aad():
/mnt/disk/raspbian-tee/optee_os/lib/libutee/arch/arm/utee_syscalls_asm.S:82
    14e0:	e92d40e0 	push	{r5, r6, r7, lr}
    14e4:	e3a07023 	mov	r7, #35	; 0x23
    14e8:	e3a06000 	mov	r6, #0
    14ec:	ef000000 	svc	0x00000000
    14f0:	e8bd80e0 	pop	{r5, r6, r7, pc}

000014f4 <utee_authenc_update_payload>:
utee_authenc_update_payload():
/mnt/disk/raspbian-tee/optee_os/lib/libutee/arch/arm/utee_syscalls_asm.S:84
    14f4:	e92d40e0 	push	{r5, r6, r7, lr}
    14f8:	e3a07024 	mov	r7, #36	; 0x24
    14fc:	e3a06001 	mov	r6, #1
    1500:	e28d5010 	add	r5, sp, #16
    1504:	ef000000 	svc	0x00000000
    1508:	e8bd80e0 	pop	{r5, r6, r7, pc}

0000150c <utee_authenc_enc_final>:
utee_authenc_enc_final():
/mnt/disk/raspbian-tee/optee_os/lib/libutee/arch/arm/utee_syscalls_asm.S:87
    150c:	e92d40e0 	push	{r5, r6, r7, lr}
    1510:	e3a07025 	mov	r7, #37	; 0x25
    1514:	e3a06003 	mov	r6, #3
    1518:	e28d5010 	add	r5, sp, #16
    151c:	ef000000 	svc	0x00000000
    1520:	e8bd80e0 	pop	{r5, r6, r7, pc}

00001524 <utee_authenc_dec_final>:
utee_authenc_dec_final():
/mnt/disk/raspbian-tee/optee_os/lib/libutee/arch/arm/utee_syscalls_asm.S:89
    1524:	e92d40e0 	push	{r5, r6, r7, lr}
    1528:	e3a07026 	mov	r7, #38	; 0x26
    152c:	e3a06003 	mov	r6, #3
    1530:	e28d5010 	add	r5, sp, #16
    1534:	ef000000 	svc	0x00000000
    1538:	e8bd80e0 	pop	{r5, r6, r7, pc}

0000153c <utee_asymm_operate>:
utee_asymm_operate():
/mnt/disk/raspbian-tee/optee_os/lib/libutee/arch/arm/utee_syscalls_asm.S:91
    153c:	e92d40e0 	push	{r5, r6, r7, lr}
    1540:	e3a07027 	mov	r7, #39	; 0x27
    1544:	e3a06003 	mov	r6, #3
    1548:	e28d5010 	add	r5, sp, #16
    154c:	ef000000 	svc	0x00000000
    1550:	e8bd80e0 	pop	{r5, r6, r7, pc}

00001554 <utee_asymm_verify>:
utee_asymm_verify():
/mnt/disk/raspbian-tee/optee_os/lib/libutee/arch/arm/utee_syscalls_asm.S:93
    1554:	e92d40e0 	push	{r5, r6, r7, lr}
    1558:	e3a07028 	mov	r7, #40	; 0x28
    155c:	e3a06003 	mov	r6, #3
    1560:	e28d5010 	add	r5, sp, #16
    1564:	ef000000 	svc	0x00000000
    1568:	e8bd80e0 	pop	{r5, r6, r7, pc}

0000156c <utee_storage_obj_open>:
utee_storage_obj_open():
/mnt/disk/raspbian-tee/optee_os/lib/libutee/arch/arm/utee_syscalls_asm.S:95
    156c:	e92d40e0 	push	{r5, r6, r7, lr}
    1570:	e3a07029 	mov	r7, #41	; 0x29
    1574:	e3a06001 	mov	r6, #1
    1578:	e28d5010 	add	r5, sp, #16
    157c:	ef000000 	svc	0x00000000
    1580:	e8bd80e0 	pop	{r5, r6, r7, pc}

00001584 <utee_storage_obj_create>:
utee_storage_obj_create():
/mnt/disk/raspbian-tee/optee_os/lib/libutee/arch/arm/utee_syscalls_asm.S:97
    1584:	e92d40e0 	push	{r5, r6, r7, lr}
    1588:	e3a0702a 	mov	r7, #42	; 0x2a
    158c:	e3a06004 	mov	r6, #4
    1590:	e28d5010 	add	r5, sp, #16
    1594:	ef000000 	svc	0x00000000
    1598:	e8bd80e0 	pop	{r5, r6, r7, pc}

0000159c <utee_storage_obj_del>:
utee_storage_obj_del():
/mnt/disk/raspbian-tee/optee_os/lib/libutee/arch/arm/utee_syscalls_asm.S:99
    159c:	e92d40e0 	push	{r5, r6, r7, lr}
    15a0:	e3a0702b 	mov	r7, #43	; 0x2b
    15a4:	e3a06000 	mov	r6, #0
    15a8:	ef000000 	svc	0x00000000
    15ac:	e8bd80e0 	pop	{r5, r6, r7, pc}

000015b0 <utee_storage_obj_rename>:
utee_storage_obj_rename():
/mnt/disk/raspbian-tee/optee_os/lib/libutee/arch/arm/utee_syscalls_asm.S:101
    15b0:	e92d40e0 	push	{r5, r6, r7, lr}
    15b4:	e3a0702c 	mov	r7, #44	; 0x2c
    15b8:	e3a06000 	mov	r6, #0
    15bc:	ef000000 	svc	0x00000000
    15c0:	e8bd80e0 	pop	{r5, r6, r7, pc}

000015c4 <utee_storage_alloc_enum>:
utee_storage_alloc_enum():
/mnt/disk/raspbian-tee/optee_os/lib/libutee/arch/arm/utee_syscalls_asm.S:103
    15c4:	e92d40e0 	push	{r5, r6, r7, lr}
    15c8:	e3a0702d 	mov	r7, #45	; 0x2d
    15cc:	e3a06000 	mov	r6, #0
    15d0:	ef000000 	svc	0x00000000
    15d4:	e8bd80e0 	pop	{r5, r6, r7, pc}

000015d8 <utee_storage_free_enum>:
utee_storage_free_enum():
/mnt/disk/raspbian-tee/optee_os/lib/libutee/arch/arm/utee_syscalls_asm.S:105
    15d8:	e92d40e0 	push	{r5, r6, r7, lr}
    15dc:	e3a0702e 	mov	r7, #46	; 0x2e
    15e0:	e3a06000 	mov	r6, #0
    15e4:	ef000000 	svc	0x00000000
    15e8:	e8bd80e0 	pop	{r5, r6, r7, pc}

000015ec <utee_storage_reset_enum>:
utee_storage_reset_enum():
/mnt/disk/raspbian-tee/optee_os/lib/libutee/arch/arm/utee_syscalls_asm.S:107
    15ec:	e92d40e0 	push	{r5, r6, r7, lr}
    15f0:	e3a0702f 	mov	r7, #47	; 0x2f
    15f4:	e3a06000 	mov	r6, #0
    15f8:	ef000000 	svc	0x00000000
    15fc:	e8bd80e0 	pop	{r5, r6, r7, pc}

00001600 <utee_storage_start_enum>:
utee_storage_start_enum():
/mnt/disk/raspbian-tee/optee_os/lib/libutee/arch/arm/utee_syscalls_asm.S:109
    1600:	e92d40e0 	push	{r5, r6, r7, lr}
    1604:	e3a07030 	mov	r7, #48	; 0x30
    1608:	e3a06000 	mov	r6, #0
    160c:	ef000000 	svc	0x00000000
    1610:	e8bd80e0 	pop	{r5, r6, r7, pc}

00001614 <utee_storage_next_enum>:
utee_storage_next_enum():
/mnt/disk/raspbian-tee/optee_os/lib/libutee/arch/arm/utee_syscalls_asm.S:111
    1614:	e92d40e0 	push	{r5, r6, r7, lr}
    1618:	e3a07031 	mov	r7, #49	; 0x31
    161c:	e3a06000 	mov	r6, #0
    1620:	ef000000 	svc	0x00000000
    1624:	e8bd80e0 	pop	{r5, r6, r7, pc}

00001628 <utee_storage_obj_read>:
utee_storage_obj_read():
/mnt/disk/raspbian-tee/optee_os/lib/libutee/arch/arm/utee_syscalls_asm.S:113
    1628:	e92d40e0 	push	{r5, r6, r7, lr}
    162c:	e3a07032 	mov	r7, #50	; 0x32
    1630:	e3a06000 	mov	r6, #0
    1634:	ef000000 	svc	0x00000000
    1638:	e8bd80e0 	pop	{r5, r6, r7, pc}

0000163c <utee_storage_obj_write>:
utee_storage_obj_write():
/mnt/disk/raspbian-tee/optee_os/lib/libutee/arch/arm/utee_syscalls_asm.S:115
    163c:	e92d40e0 	push	{r5, r6, r7, lr}
    1640:	e3a07033 	mov	r7, #51	; 0x33
    1644:	e3a06000 	mov	r6, #0
    1648:	ef000000 	svc	0x00000000
    164c:	e8bd80e0 	pop	{r5, r6, r7, pc}

00001650 <utee_storage_obj_trunc>:
utee_storage_obj_trunc():
/mnt/disk/raspbian-tee/optee_os/lib/libutee/arch/arm/utee_syscalls_asm.S:117
    1650:	e92d40e0 	push	{r5, r6, r7, lr}
    1654:	e3a07034 	mov	r7, #52	; 0x34
    1658:	e3a06000 	mov	r6, #0
    165c:	ef000000 	svc	0x00000000
    1660:	e8bd80e0 	pop	{r5, r6, r7, pc}

00001664 <utee_storage_obj_seek>:
utee_storage_obj_seek():
/mnt/disk/raspbian-tee/optee_os/lib/libutee/arch/arm/utee_syscalls_asm.S:119
    1664:	e92d40e0 	push	{r5, r6, r7, lr}
    1668:	e3a07035 	mov	r7, #53	; 0x35
    166c:	e3a06000 	mov	r6, #0
    1670:	ef000000 	svc	0x00000000
    1674:	e8bd80e0 	pop	{r5, r6, r7, pc}

00001678 <utee_cryp_obj_generate_key>:
utee_cryp_obj_generate_key():
/mnt/disk/raspbian-tee/optee_os/lib/libutee/arch/arm/utee_syscalls_asm.S:121
    1678:	e92d40e0 	push	{r5, r6, r7, lr}
    167c:	e3a07036 	mov	r7, #54	; 0x36
    1680:	e3a06000 	mov	r6, #0
    1684:	ef000000 	svc	0x00000000
    1688:	e8bd80e0 	pop	{r5, r6, r7, pc}

0000168c <utee_cache_operation>:
utee_cache_operation():
/mnt/disk/raspbian-tee/optee_os/lib/libutee/arch/arm/utee_syscalls_asm.S:124
    168c:	e92d40e0 	push	{r5, r6, r7, lr}
    1690:	e3a07046 	mov	r7, #70	; 0x46
    1694:	e3a06000 	mov	r6, #0
    1698:	ef000000 	svc	0x00000000
    169c:	e8bd80e0 	pop	{r5, r6, r7, pc}

000016a0 <__utee_mcount>:
__utee_mcount():
/mnt/disk/raspbian-tee/optee_os/lib/libutee/arch/arm/gprof/gprof_a32.S:49
    16a0:	e52de004 	push	{lr}		; (str lr, [sp, #-4]!)
/mnt/disk/raspbian-tee/optee_os/lib/libutee/arch/arm/gprof/gprof_a32.S:50
    16a4:	e8bd5000 	pop	{ip, lr}
/mnt/disk/raspbian-tee/optee_os/lib/libutee/arch/arm/gprof/gprof_a32.S:51
    16a8:	e12fff1c 	bx	ip

000016ac <__utee_from_param>:
__utee_from_param():
/mnt/disk/raspbian-tee/optee_os/lib/libutee/tee_api.c:23
    16ac:	2300      	movs	r3, #0
/mnt/disk/raspbian-tee/optee_os/lib/libutee/tee_api.c:20
    16ae:	b5f0      	push	{r4, r5, r6, r7, lr}
    16b0:	4694      	mov	ip, r2
    16b2:	4615      	mov	r5, r2
/mnt/disk/raspbian-tee/optee_os/lib/libutee/tee_api.c:39
    16b4:	2600      	movs	r6, #0
    16b6:	2700      	movs	r7, #0
/mnt/disk/raspbian-tee/optee_os/lib/libutee/tee_api.c:35
    16b8:	461a      	mov	r2, r3
/mnt/disk/raspbian-tee/optee_os/lib/libutee/tee_api.c:23
    16ba:	e880 000a 	stmia.w	r0, {r1, r3}
/mnt/disk/raspbian-tee/optee_os/lib/libutee/tee_api.c:25
    16be:	fa21 f403 	lsr.w	r4, r1, r3
    16c2:	f004 040f 	and.w	r4, r4, #15
    16c6:	3c01      	subs	r4, #1
    16c8:	2c06      	cmp	r4, #6
    16ca:	d812      	bhi.n	16f2 <__utee_from_param+0x46>
    16cc:	e8df f004 	tbb	[pc, r4]
    16d0:	11040404 	.word	0x11040404
    16d4:	0404      	.short	0x0404
    16d6:	04          	.byte	0x04
    16d7:	00          	.byte	0x00
/mnt/disk/raspbian-tee/optee_os/lib/libutee/tee_api.c:35
    16d8:	f85c 4013 	ldr.w	r4, [ip, r3, lsl #1]
    16dc:	6084      	str	r4, [r0, #8]
    16de:	60c2      	str	r2, [r0, #12]
/mnt/disk/raspbian-tee/optee_os/lib/libutee/tee_api.c:36
    16e0:	686c      	ldr	r4, [r5, #4]
    16e2:	6104      	str	r4, [r0, #16]
    16e4:	6142      	str	r2, [r0, #20]
    16e6:	3304      	adds	r3, #4
    16e8:	3508      	adds	r5, #8
    16ea:	3010      	adds	r0, #16
/mnt/disk/raspbian-tee/optee_os/lib/libutee/tee_api.c:24 (discriminator 2)
    16ec:	2b10      	cmp	r3, #16
    16ee:	d1e6      	bne.n	16be <__utee_from_param+0x12>
/mnt/disk/raspbian-tee/optee_os/lib/libutee/tee_api.c:44
    16f0:	bdf0      	pop	{r4, r5, r6, r7, pc}
/mnt/disk/raspbian-tee/optee_os/lib/libutee/tee_api.c:39
    16f2:	e9c0 6702 	strd	r6, r7, [r0, #8]
/mnt/disk/raspbian-tee/optee_os/lib/libutee/tee_api.c:40
    16f6:	e9c0 6704 	strd	r6, r7, [r0, #16]
/mnt/disk/raspbian-tee/optee_os/lib/libutee/tee_api.c:41
    16fa:	e7f4      	b.n	16e6 <__utee_from_param+0x3a>

000016fc <__utee_to_param>:
__utee_to_param():
/mnt/disk/raspbian-tee/optee_os/lib/libutee/tee_api.c:48
    16fc:	b5f0      	push	{r4, r5, r6, r7, lr}
/mnt/disk/raspbian-tee/optee_os/lib/libutee/tee_api.c:50
    16fe:	2300      	movs	r3, #0
    1700:	6816      	ldr	r6, [r2, #0]
    1702:	4605      	mov	r5, r0
/mnt/disk/raspbian-tee/optee_os/lib/libutee/tee_api.c:56
    1704:	fa26 f403 	lsr.w	r4, r6, r3
/mnt/disk/raspbian-tee/optee_os/lib/libutee/tee_api.c:53
    1708:	f8d2 c008 	ldr.w	ip, [r2, #8]
/mnt/disk/raspbian-tee/optee_os/lib/libutee/tee_api.c:56
    170c:	f004 040f 	and.w	r4, r4, #15
/mnt/disk/raspbian-tee/optee_os/lib/libutee/tee_api.c:54
    1710:	6917      	ldr	r7, [r2, #16]
/mnt/disk/raspbian-tee/optee_os/lib/libutee/tee_api.c:56
    1712:	3c01      	subs	r4, #1
    1714:	2c06      	cmp	r4, #6
    1716:	d808      	bhi.n	172a <__utee_to_param+0x2e>
    1718:	e8df f004 	tbb	[pc, r4]
    171c:	07040404 	.word	0x07040404
    1720:	0404      	.short	0x0404
    1722:	04          	.byte	0x04
    1723:	00          	.byte	0x00
/mnt/disk/raspbian-tee/optee_os/lib/libutee/tee_api.c:66
    1724:	f840 c013 	str.w	ip, [r0, r3, lsl #1]
/mnt/disk/raspbian-tee/optee_os/lib/libutee/tee_api.c:67
    1728:	606f      	str	r7, [r5, #4]
    172a:	3304      	adds	r3, #4
    172c:	3210      	adds	r2, #16
    172e:	3508      	adds	r5, #8
/mnt/disk/raspbian-tee/optee_os/lib/libutee/tee_api.c:52 (discriminator 2)
    1730:	2b10      	cmp	r3, #16
    1732:	d1e7      	bne.n	1704 <__utee_to_param+0x8>
/mnt/disk/raspbian-tee/optee_os/lib/libutee/tee_api.c:74
    1734:	b101      	cbz	r1, 1738 <__utee_to_param+0x3c>
/mnt/disk/raspbian-tee/optee_os/lib/libutee/tee_api.c:75
    1736:	600e      	str	r6, [r1, #0]
    1738:	bdf0      	pop	{r4, r5, r6, r7, pc}

0000173a <TEE_OpenTASession>:
TEE_OpenTASession():
/mnt/disk/raspbian-tee/optee_os/lib/libutee/tee_api.c:84
    173a:	b5f0      	push	{r4, r5, r6, r7, lr}
    173c:	4605      	mov	r5, r0
    173e:	460f      	mov	r7, r1
    1740:	b097      	sub	sp, #92	; 0x5c
    1742:	4611      	mov	r1, r2
/mnt/disk/raspbian-tee/optee_os/lib/libutee/tee_api.c:89
    1744:	ac04      	add	r4, sp, #16
    1746:	461a      	mov	r2, r3
    1748:	4620      	mov	r0, r4
/mnt/disk/raspbian-tee/optee_os/lib/libutee/tee_api.c:84
    174a:	461e      	mov	r6, r3
/mnt/disk/raspbian-tee/optee_os/lib/libutee/tee_api.c:89
    174c:	f7ff ffae 	bl	16ac <__utee_from_param>
/mnt/disk/raspbian-tee/optee_os/lib/libutee/tee_api.c:90
    1750:	9b1d      	ldr	r3, [sp, #116]	; 0x74
    1752:	9300      	str	r3, [sp, #0]
    1754:	4622      	mov	r2, r4
    1756:	4639      	mov	r1, r7
    1758:	4628      	mov	r0, r5
    175a:	ab03      	add	r3, sp, #12
    175c:	f7ff ed86 	blx	126c <utee_open_ta_session>
/mnt/disk/raspbian-tee/optee_os/lib/libutee/tee_api.c:92
    1760:	4622      	mov	r2, r4
/mnt/disk/raspbian-tee/optee_os/lib/libutee/tee_api.c:90
    1762:	4605      	mov	r5, r0
/mnt/disk/raspbian-tee/optee_os/lib/libutee/tee_api.c:92
    1764:	2100      	movs	r1, #0
    1766:	4630      	mov	r0, r6
    1768:	f7ff ffc8 	bl	16fc <__utee_to_param>
/mnt/disk/raspbian-tee/optee_os/lib/libutee/tee_api.c:98
    176c:	b10d      	cbz	r5, 1772 <TEE_OpenTASession+0x38>
/mnt/disk/raspbian-tee/optee_os/lib/libutee/tee_api.c:99
    176e:	2300      	movs	r3, #0
    1770:	9303      	str	r3, [sp, #12]
/mnt/disk/raspbian-tee/optee_os/lib/libutee/tee_api.c:101
    1772:	9b1c      	ldr	r3, [sp, #112]	; 0x70
/mnt/disk/raspbian-tee/optee_os/lib/libutee/tee_api.c:103
    1774:	4628      	mov	r0, r5
/mnt/disk/raspbian-tee/optee_os/lib/libutee/tee_api.c:101
    1776:	9a03      	ldr	r2, [sp, #12]
    1778:	601a      	str	r2, [r3, #0]
/mnt/disk/raspbian-tee/optee_os/lib/libutee/tee_api.c:103
    177a:	b017      	add	sp, #92	; 0x5c
    177c:	bdf0      	pop	{r4, r5, r6, r7, pc}

0000177e <TEE_CloseTASession>:
TEE_CloseTASession():
/mnt/disk/raspbian-tee/optee_os/lib/libutee/tee_api.c:106
    177e:	b508      	push	{r3, lr}
/mnt/disk/raspbian-tee/optee_os/lib/libutee/tee_api.c:107
    1780:	b130      	cbz	r0, 1790 <TEE_CloseTASession+0x12>
/mnt/disk/raspbian-tee/optee_os/lib/libutee/tee_api.c:108
    1782:	f7ff ed80 	blx	1284 <utee_close_ta_session>
/mnt/disk/raspbian-tee/optee_os/lib/libutee/tee_api.c:110
    1786:	b118      	cbz	r0, 1790 <TEE_CloseTASession+0x12>
/mnt/disk/raspbian-tee/optee_os/lib/libutee/tee_api.c:113
    1788:	e8bd 4008 	ldmia.w	sp!, {r3, lr}
/mnt/disk/raspbian-tee/optee_os/lib/libutee/tee_api.c:111
    178c:	f004 bc9c 	b.w	60c8 <TEE_Panic>
    1790:	bd08      	pop	{r3, pc}

00001792 <TEE_InvokeTACommand>:
TEE_InvokeTACommand():
/mnt/disk/raspbian-tee/optee_os/lib/libutee/tee_api.c:120
    1792:	e92d 41f0 	stmdb	sp!, {r4, r5, r6, r7, r8, lr}
    1796:	4604      	mov	r4, r0
    1798:	460f      	mov	r7, r1
    179a:	b096      	sub	sp, #88	; 0x58
/mnt/disk/raspbian-tee/optee_os/lib/libutee/tee_api.c:125
    179c:	4619      	mov	r1, r3
    179e:	ad04      	add	r5, sp, #16
/mnt/disk/raspbian-tee/optee_os/lib/libutee/tee_api.c:120
    17a0:	4690      	mov	r8, r2
/mnt/disk/raspbian-tee/optee_os/lib/libutee/tee_api.c:125
    17a2:	4628      	mov	r0, r5
/mnt/disk/raspbian-tee/optee_os/lib/libutee/tee_api.c:120
    17a4:	9e1d      	ldr	r6, [sp, #116]	; 0x74
/mnt/disk/raspbian-tee/optee_os/lib/libutee/tee_api.c:125
    17a6:	9a1c      	ldr	r2, [sp, #112]	; 0x70
    17a8:	f7ff ff80 	bl	16ac <__utee_from_param>
/mnt/disk/raspbian-tee/optee_os/lib/libutee/tee_api.c:126
    17ac:	ab03      	add	r3, sp, #12
    17ae:	4642      	mov	r2, r8
    17b0:	9300      	str	r3, [sp, #0]
    17b2:	4639      	mov	r1, r7
    17b4:	462b      	mov	r3, r5
    17b6:	4620      	mov	r0, r4
    17b8:	f7ff ed6e 	blx	1298 <utee_invoke_ta_command>
/mnt/disk/raspbian-tee/optee_os/lib/libutee/tee_api.c:129
    17bc:	462a      	mov	r2, r5
/mnt/disk/raspbian-tee/optee_os/lib/libutee/tee_api.c:126
    17be:	4604      	mov	r4, r0
/mnt/disk/raspbian-tee/optee_os/lib/libutee/tee_api.c:129
    17c0:	2100      	movs	r1, #0
    17c2:	981c      	ldr	r0, [sp, #112]	; 0x70
    17c4:	f7ff ff9a 	bl	16fc <__utee_to_param>
    17c8:	9b03      	ldr	r3, [sp, #12]
/mnt/disk/raspbian-tee/optee_os/lib/libutee/tee_api.c:131
    17ca:	b106      	cbz	r6, 17ce <TEE_InvokeTACommand+0x3c>
/mnt/disk/raspbian-tee/optee_os/lib/libutee/tee_api.c:132
    17cc:	6033      	str	r3, [r6, #0]
/mnt/disk/raspbian-tee/optee_os/lib/libutee/tee_api.c:134
    17ce:	2b04      	cmp	r3, #4
    17d0:	d009      	beq.n	17e6 <TEE_InvokeTACommand+0x54>
/mnt/disk/raspbian-tee/optee_os/lib/libutee/tee_api.c:137
    17d2:	b144      	cbz	r4, 17e6 <TEE_InvokeTACommand+0x54>
/mnt/disk/raspbian-tee/optee_os/lib/libutee/tee_api.c:137 (discriminator 1)
    17d4:	4b06      	ldr	r3, [pc, #24]	; (17f0 <TEE_InvokeTACommand+0x5e>)
    17d6:	429c      	cmp	r4, r3
    17d8:	d005      	beq.n	17e6 <TEE_InvokeTACommand+0x54>
/mnt/disk/raspbian-tee/optee_os/lib/libutee/tee_api.c:138
    17da:	4b06      	ldr	r3, [pc, #24]	; (17f4 <TEE_InvokeTACommand+0x62>)
    17dc:	429c      	cmp	r4, r3
    17de:	d002      	beq.n	17e6 <TEE_InvokeTACommand+0x54>
/mnt/disk/raspbian-tee/optee_os/lib/libutee/tee_api.c:140
    17e0:	4620      	mov	r0, r4
    17e2:	f004 fc71 	bl	60c8 <TEE_Panic>
/mnt/disk/raspbian-tee/optee_os/lib/libutee/tee_api.c:143
    17e6:	4620      	mov	r0, r4
    17e8:	b016      	add	sp, #88	; 0x58
    17ea:	e8bd 81f0 	ldmia.w	sp!, {r4, r5, r6, r7, r8, pc}
    17ee:	bf00      	nop
    17f0:	ffff000c 	.word	0xffff000c
    17f4:	ffff3024 	.word	0xffff3024

000017f8 <TEE_GetCancellationFlag>:
TEE_GetCancellationFlag():
/mnt/disk/raspbian-tee/optee_os/lib/libutee/tee_api.c:148
    17f8:	b507      	push	{r0, r1, r2, lr}
/mnt/disk/raspbian-tee/optee_os/lib/libutee/tee_api.c:150
    17fa:	a801      	add	r0, sp, #4
    17fc:	f7ff ed58 	blx	12b0 <utee_get_cancellation_flag>
/mnt/disk/raspbian-tee/optee_os/lib/libutee/tee_api.c:152
    1800:	b108      	cbz	r0, 1806 <TEE_GetCancellationFlag+0xe>
/mnt/disk/raspbian-tee/optee_os/lib/libutee/tee_api.c:153
    1802:	2300      	movs	r3, #0
    1804:	9301      	str	r3, [sp, #4]
/mnt/disk/raspbian-tee/optee_os/lib/libutee/tee_api.c:155
    1806:	9801      	ldr	r0, [sp, #4]
    1808:	3000      	adds	r0, #0
    180a:	bf18      	it	ne
    180c:	2001      	movne	r0, #1
    180e:	b003      	add	sp, #12
    1810:	f85d fb04 	ldr.w	pc, [sp], #4

00001814 <TEE_UnmaskCancellation>:
TEE_UnmaskCancellation():
/mnt/disk/raspbian-tee/optee_os/lib/libutee/tee_api.c:158
    1814:	b507      	push	{r0, r1, r2, lr}
/mnt/disk/raspbian-tee/optee_os/lib/libutee/tee_api.c:160
    1816:	a801      	add	r0, sp, #4
    1818:	f7ff ed5e 	blx	12d8 <utee_unmask_cancellation>
/mnt/disk/raspbian-tee/optee_os/lib/libutee/tee_api.c:162
    181c:	b108      	cbz	r0, 1822 <TEE_UnmaskCancellation+0xe>
/mnt/disk/raspbian-tee/optee_os/lib/libutee/tee_api.c:163
    181e:	f004 fc53 	bl	60c8 <TEE_Panic>
/mnt/disk/raspbian-tee/optee_os/lib/libutee/tee_api.c:165
    1822:	9801      	ldr	r0, [sp, #4]
    1824:	3000      	adds	r0, #0
    1826:	bf18      	it	ne
    1828:	2001      	movne	r0, #1
    182a:	b003      	add	sp, #12
    182c:	f85d fb04 	ldr.w	pc, [sp], #4

00001830 <TEE_MaskCancellation>:
TEE_MaskCancellation():
/mnt/disk/raspbian-tee/optee_os/lib/libutee/tee_api.c:168
    1830:	b507      	push	{r0, r1, r2, lr}
/mnt/disk/raspbian-tee/optee_os/lib/libutee/tee_api.c:170
    1832:	a801      	add	r0, sp, #4
    1834:	f7ff ed5a 	blx	12ec <utee_mask_cancellation>
/mnt/disk/raspbian-tee/optee_os/lib/libutee/tee_api.c:172
    1838:	b108      	cbz	r0, 183e <TEE_MaskCancellation+0xe>
/mnt/disk/raspbian-tee/optee_os/lib/libutee/tee_api.c:173
    183a:	f004 fc45 	bl	60c8 <TEE_Panic>
/mnt/disk/raspbian-tee/optee_os/lib/libutee/tee_api.c:175
    183e:	9801      	ldr	r0, [sp, #4]
    1840:	3000      	adds	r0, #0
    1842:	bf18      	it	ne
    1844:	2001      	movne	r0, #1
    1846:	b003      	add	sp, #12
    1848:	f85d fb04 	ldr.w	pc, [sp], #4

0000184c <TEE_CheckMemoryAccessRights>:
TEE_CheckMemoryAccessRights():
/mnt/disk/raspbian-tee/optee_os/lib/libutee/tee_api.c:184
    184c:	b10a      	cbz	r2, 1852 <TEE_CheckMemoryAccessRights+0x6>
/mnt/disk/raspbian-tee/optee_os/lib/libutee/tee_api.c:188
    184e:	f004 bc73 	b.w	6138 <__utee_check_access_rights_from_thumb>
/mnt/disk/raspbian-tee/optee_os/lib/libutee/tee_api.c:200
    1852:	4610      	mov	r0, r2
    1854:	4770      	bx	lr

00001856 <TEE_SetInstanceData>:
TEE_SetInstanceData():
/mnt/disk/raspbian-tee/optee_os/lib/libutee/tee_api.c:204
    1856:	4b02      	ldr	r3, [pc, #8]	; (1860 <TEE_SetInstanceData+0xa>)
    1858:	447b      	add	r3, pc
    185a:	6018      	str	r0, [r3, #0]
    185c:	4770      	bx	lr
    185e:	bf00      	nop
    1860:	00006c7c 	.word	0x00006c7c

00001864 <TEE_GetInstanceData>:
TEE_GetInstanceData():
/mnt/disk/raspbian-tee/optee_os/lib/libutee/tee_api.c:210
    1864:	4b01      	ldr	r3, [pc, #4]	; (186c <TEE_GetInstanceData+0x8>)
    1866:	447b      	add	r3, pc
    1868:	6818      	ldr	r0, [r3, #0]
    186a:	4770      	bx	lr
    186c:	00006c6e 	.word	0x00006c6e

00001870 <TEE_MemMove>:
TEE_MemMove():
/mnt/disk/raspbian-tee/optee_os/lib/libutee/tee_api.c:214
    1870:	f004 bc46 	b.w	6100 <memmove>

00001874 <TEE_MemCompare>:
TEE_MemCompare():
/mnt/disk/raspbian-tee/optee_os/lib/libutee/tee_api.c:219
    1874:	f004 bc2a 	b.w	60cc <memcmp>

00001878 <TEE_MemFill>:
TEE_MemFill():
/mnt/disk/raspbian-tee/optee_os/lib/libutee/tee_api.c:224
    1878:	f004 bb48 	b.w	5f0c <memset>

0000187c <TEE_GetSystemTime>:
TEE_GetSystemTime():
/mnt/disk/raspbian-tee/optee_os/lib/libutee/tee_api.c:230
    187c:	b508      	push	{r3, lr}
/mnt/disk/raspbian-tee/optee_os/lib/libutee/tee_api.c:231
    187e:	4601      	mov	r1, r0
    1880:	2000      	movs	r0, #0
    1882:	f7ff ed48 	blx	1314 <utee_get_time>
/mnt/disk/raspbian-tee/optee_os/lib/libutee/tee_api.c:233
    1886:	b118      	cbz	r0, 1890 <TEE_GetSystemTime+0x14>
/mnt/disk/raspbian-tee/optee_os/lib/libutee/tee_api.c:235
    1888:	e8bd 4008 	ldmia.w	sp!, {r3, lr}
/mnt/disk/raspbian-tee/optee_os/lib/libutee/tee_api.c:234
    188c:	f004 bc1c 	b.w	60c8 <TEE_Panic>
    1890:	bd08      	pop	{r3, pc}

00001892 <TEE_Wait>:
TEE_Wait():
/mnt/disk/raspbian-tee/optee_os/lib/libutee/tee_api.c:238
    1892:	b510      	push	{r4, lr}
/mnt/disk/raspbian-tee/optee_os/lib/libutee/tee_api.c:239
    1894:	f7ff ed34 	blx	1300 <utee_wait>
/mnt/disk/raspbian-tee/optee_os/lib/libutee/tee_api.c:241
    1898:	4604      	mov	r4, r0
    189a:	b120      	cbz	r0, 18a6 <TEE_Wait+0x14>
/mnt/disk/raspbian-tee/optee_os/lib/libutee/tee_api.c:241 (discriminator 1)
    189c:	4b03      	ldr	r3, [pc, #12]	; (18ac <TEE_Wait+0x1a>)
    189e:	4298      	cmp	r0, r3
    18a0:	d001      	beq.n	18a6 <TEE_Wait+0x14>
/mnt/disk/raspbian-tee/optee_os/lib/libutee/tee_api.c:242
    18a2:	f004 fc11 	bl	60c8 <TEE_Panic>
/mnt/disk/raspbian-tee/optee_os/lib/libutee/tee_api.c:245
    18a6:	4620      	mov	r0, r4
    18a8:	bd10      	pop	{r4, pc}
    18aa:	bf00      	nop
    18ac:	ffff0002 	.word	0xffff0002

000018b0 <TEE_GetTAPersistentTime>:
TEE_GetTAPersistentTime():
/mnt/disk/raspbian-tee/optee_os/lib/libutee/tee_api.c:248
    18b0:	b538      	push	{r3, r4, r5, lr}
/mnt/disk/raspbian-tee/optee_os/lib/libutee/tee_api.c:251
    18b2:	4601      	mov	r1, r0
/mnt/disk/raspbian-tee/optee_os/lib/libutee/tee_api.c:248
    18b4:	4605      	mov	r5, r0
/mnt/disk/raspbian-tee/optee_os/lib/libutee/tee_api.c:251
    18b6:	2001      	movs	r0, #1
    18b8:	f7ff ed2c 	blx	1314 <utee_get_time>
/mnt/disk/raspbian-tee/optee_os/lib/libutee/tee_api.c:253
    18bc:	4604      	mov	r4, r0
    18be:	b170      	cbz	r0, 18de <TEE_GetTAPersistentTime+0x2e>
/mnt/disk/raspbian-tee/optee_os/lib/libutee/tee_api.c:253 (discriminator 1)
    18c0:	4b08      	ldr	r3, [pc, #32]	; (18e4 <TEE_GetTAPersistentTime+0x34>)
    18c2:	4298      	cmp	r0, r3
    18c4:	d00b      	beq.n	18de <TEE_GetTAPersistentTime+0x2e>
/mnt/disk/raspbian-tee/optee_os/lib/libutee/tee_api.c:254
    18c6:	2300      	movs	r3, #0
    18c8:	602b      	str	r3, [r5, #0]
/mnt/disk/raspbian-tee/optee_os/lib/libutee/tee_api.c:255
    18ca:	606b      	str	r3, [r5, #4]
/mnt/disk/raspbian-tee/optee_os/lib/libutee/tee_api.c:258
    18cc:	f500 4330 	add.w	r3, r0, #45056	; 0xb000
    18d0:	2b01      	cmp	r3, #1
    18d2:	d904      	bls.n	18de <TEE_GetTAPersistentTime+0x2e>
/mnt/disk/raspbian-tee/optee_os/lib/libutee/tee_api.c:261
    18d4:	4b04      	ldr	r3, [pc, #16]	; (18e8 <TEE_GetTAPersistentTime+0x38>)
    18d6:	4298      	cmp	r0, r3
    18d8:	d001      	beq.n	18de <TEE_GetTAPersistentTime+0x2e>
/mnt/disk/raspbian-tee/optee_os/lib/libutee/tee_api.c:263
    18da:	f004 fbf5 	bl	60c8 <TEE_Panic>
/mnt/disk/raspbian-tee/optee_os/lib/libutee/tee_api.c:266
    18de:	4620      	mov	r0, r4
    18e0:	bd38      	pop	{r3, r4, r5, pc}
    18e2:	bf00      	nop
    18e4:	ffff300f 	.word	0xffff300f
    18e8:	ffff000c 	.word	0xffff000c

000018ec <TEE_SetTAPersistentTime>:
TEE_SetTAPersistentTime():
/mnt/disk/raspbian-tee/optee_os/lib/libutee/tee_api.c:269
    18ec:	b510      	push	{r4, lr}
/mnt/disk/raspbian-tee/optee_os/lib/libutee/tee_api.c:272
    18ee:	f7ff ed1c 	blx	1328 <utee_set_ta_time>
/mnt/disk/raspbian-tee/optee_os/lib/libutee/tee_api.c:274
    18f2:	4604      	mov	r4, r0
    18f4:	b138      	cbz	r0, 1906 <TEE_SetTAPersistentTime+0x1a>
/mnt/disk/raspbian-tee/optee_os/lib/libutee/tee_api.c:274 (discriminator 1)
    18f6:	4b05      	ldr	r3, [pc, #20]	; (190c <TEE_SetTAPersistentTime+0x20>)
    18f8:	4298      	cmp	r0, r3
    18fa:	d004      	beq.n	1906 <TEE_SetTAPersistentTime+0x1a>
/mnt/disk/raspbian-tee/optee_os/lib/libutee/tee_api.c:275
    18fc:	4b04      	ldr	r3, [pc, #16]	; (1910 <TEE_SetTAPersistentTime+0x24>)
    18fe:	4298      	cmp	r0, r3
    1900:	d001      	beq.n	1906 <TEE_SetTAPersistentTime+0x1a>
/mnt/disk/raspbian-tee/optee_os/lib/libutee/tee_api.c:277
    1902:	f004 fbe1 	bl	60c8 <TEE_Panic>
/mnt/disk/raspbian-tee/optee_os/lib/libutee/tee_api.c:280
    1906:	4620      	mov	r0, r4
    1908:	bd10      	pop	{r4, pc}
    190a:	bf00      	nop
    190c:	ffff000c 	.word	0xffff000c
    1910:	ffff3041 	.word	0xffff3041

00001914 <TEE_GetREETime>:
TEE_GetREETime():
/mnt/disk/raspbian-tee/optee_os/lib/libutee/tee_api.c:283
    1914:	b508      	push	{r3, lr}
/mnt/disk/raspbian-tee/optee_os/lib/libutee/tee_api.c:284
    1916:	4601      	mov	r1, r0
    1918:	2002      	movs	r0, #2
    191a:	f7ff ecfc 	blx	1314 <utee_get_time>
/mnt/disk/raspbian-tee/optee_os/lib/libutee/tee_api.c:286
    191e:	b118      	cbz	r0, 1928 <TEE_GetREETime+0x14>
/mnt/disk/raspbian-tee/optee_os/lib/libutee/tee_api.c:288
    1920:	e8bd 4008 	ldmia.w	sp!, {r3, lr}
/mnt/disk/raspbian-tee/optee_os/lib/libutee/tee_api.c:287
    1924:	f004 bbd0 	b.w	60c8 <TEE_Panic>
    1928:	bd08      	pop	{r3, pc}

0000192a <TEE_Malloc>:
TEE_Malloc():
/mnt/disk/raspbian-tee/optee_os/lib/libutee/tee_api.c:291
    192a:	b507      	push	{r0, r1, r2, lr}
/mnt/disk/raspbian-tee/optee_os/lib/libutee/tee_api.c:292
    192c:	b931      	cbnz	r1, 193c <TEE_Malloc+0x12>
/mnt/disk/raspbian-tee/optee_os/lib/libutee/tee_api.c:293
    192e:	4601      	mov	r1, r0
    1930:	2001      	movs	r0, #1
/mnt/disk/raspbian-tee/optee_os/lib/libutee/tee_api.c:300
    1932:	b003      	add	sp, #12
    1934:	f85d eb04 	ldr.w	lr, [sp], #4
/mnt/disk/raspbian-tee/optee_os/lib/libutee/tee_api.c:293
    1938:	f003 bf8a 	b.w	5850 <calloc>
/mnt/disk/raspbian-tee/optee_os/lib/libutee/tee_api.c:294
    193c:	f1b1 4f00 	cmp.w	r1, #2147483648	; 0x80000000
    1940:	d104      	bne.n	194c <TEE_Malloc+0x22>
/mnt/disk/raspbian-tee/optee_os/lib/libutee/tee_api.c:300
    1942:	b003      	add	sp, #12
    1944:	f85d eb04 	ldr.w	lr, [sp], #4
/mnt/disk/raspbian-tee/optee_os/lib/libutee/tee_api.c:295
    1948:	f003 bf78 	b.w	583c <malloc>
/mnt/disk/raspbian-tee/optee_os/lib/libutee/tee_api.c:297
    194c:	4b07      	ldr	r3, [pc, #28]	; (196c <TEE_Malloc+0x42>)
    194e:	4808      	ldr	r0, [pc, #32]	; (1970 <TEE_Malloc+0x46>)
    1950:	447b      	add	r3, pc
    1952:	9300      	str	r3, [sp, #0]
    1954:	2301      	movs	r3, #1
    1956:	9101      	str	r1, [sp, #4]
    1958:	461a      	mov	r2, r3
    195a:	f240 1129 	movw	r1, #297	; 0x129
    195e:	4478      	add	r0, pc
    1960:	f7ff f9b8 	bl	cd4 <trace_printf>
/mnt/disk/raspbian-tee/optee_os/lib/libutee/tee_api.c:300
    1964:	2000      	movs	r0, #0
    1966:	b003      	add	sp, #12
    1968:	f85d fb04 	ldr.w	pc, [sp], #4
    196c:	00004e3f 	.word	0x00004e3f
    1970:	00004e26 	.word	0x00004e26

00001974 <TEE_Realloc>:
TEE_Realloc():
/mnt/disk/raspbian-tee/optee_os/lib/libutee/tee_api.c:304
    1974:	f003 bf90 	b.w	5898 <realloc>

00001978 <TEE_Free>:
TEE_Free():
/mnt/disk/raspbian-tee/optee_os/lib/libutee/tee_api.c:309
    1978:	f003 bf61 	b.w	583e <free>

0000197c <TEE_CacheClean>:
TEE_CacheClean():
/mnt/disk/raspbian-tee/optee_os/lib/libutee/tee_api.c:315
    197c:	2200      	movs	r2, #0
    197e:	f004 bbe3 	b.w	6148 <__utee_cache_operation_from_thumb>

00001982 <TEE_CacheFlush>:
TEE_CacheFlush():
/mnt/disk/raspbian-tee/optee_os/lib/libutee/tee_api.c:319
    1982:	2201      	movs	r2, #1
    1984:	f004 bbe0 	b.w	6148 <__utee_cache_operation_from_thumb>

00001988 <TEE_CacheInvalidate>:
TEE_CacheInvalidate():
/mnt/disk/raspbian-tee/optee_os/lib/libutee/tee_api.c:324
    1988:	2202      	movs	r2, #2
    198a:	f004 bbdd 	b.w	6148 <__utee_cache_operation_from_thumb>
    198e:	bf00      	nop

00001990 <mpi_panic>:
mpi_panic():
/mnt/disk/raspbian-tee/optee_os/lib/libutee/tee_api_arith_mpi.c:29
    1990:	b508      	push	{r3, lr}
/mnt/disk/raspbian-tee/optee_os/lib/libutee/tee_api_arith_mpi.c:30
    1992:	4613      	mov	r3, r2
    1994:	460a      	mov	r2, r1
    1996:	4601      	mov	r1, r0
    1998:	4804      	ldr	r0, [pc, #16]	; (19ac <mpi_panic+0x1c>)
    199a:	4478      	add	r0, pc
    199c:	f7ff fadd 	bl	f5a <printf>
/mnt/disk/raspbian-tee/optee_os/lib/libutee/tee_api_arith_mpi.c:31
    19a0:	4801      	ldr	r0, [pc, #4]	; (19a8 <mpi_panic+0x18>)
    19a2:	f004 fb91 	bl	60c8 <TEE_Panic>
    19a6:	e7fe      	b.n	19a6 <mpi_panic+0x16>
    19a8:	00b16127 	.word	0x00b16127
    19ac:	00004f69 	.word	0x00004f69

000019b0 <get_const_mpi>:
get_const_mpi():
/mnt/disk/raspbian-tee/optee_os/lib/libutee/tee_api_arith_mpi.c:110
    19b0:	b530      	push	{r4, r5, lr}
init_static_mpi():
/mnt/disk/raspbian-tee/optee_os/lib/libutee/tee_api_arith_mpi.c:65
    19b2:	3108      	adds	r1, #8
    19b4:	f831 2c02 	ldrh.w	r2, [r1, #-2]
get_const_mpi():
/mnt/disk/raspbian-tee/optee_os/lib/libutee/tee_api_arith_mpi.c:110
    19b8:	b087      	sub	sp, #28
init_static_mpi():
/mnt/disk/raspbian-tee/optee_os/lib/libutee/tee_api_arith_mpi.c:65
    19ba:	f831 3c04 	ldrh.w	r3, [r1, #-4]
    19be:	ac03      	add	r4, sp, #12
get_const_mpi():
/mnt/disk/raspbian-tee/optee_os/lib/libutee/tee_api_arith_mpi.c:110
    19c0:	4605      	mov	r5, r0
init_static_mpi():
/mnt/disk/raspbian-tee/optee_os/lib/libutee/tee_api_arith_mpi.c:65
    19c2:	4620      	mov	r0, r4
    19c4:	9200      	str	r2, [sp, #0]
    19c6:	f851 2c08 	ldr.w	r2, [r1, #-8]
    19ca:	f001 facf 	bl	2f6c <mbedtls_mpi_init_static>
get_mpi():
/mnt/disk/raspbian-tee/optee_os/lib/libutee/tee_api_arith_mpi.c:99
    19ce:	4628      	mov	r0, r5
    19d0:	f001 fab9 	bl	2f46 <mbedtls_mpi_init_mempool>
get_const_mpi():
/mnt/disk/raspbian-tee/optee_os/lib/libutee/tee_api_arith_mpi.c:115
    19d4:	4621      	mov	r1, r4
    19d6:	4628      	mov	r0, r5
    19d8:	f001 fbb2 	bl	3140 <mbedtls_mpi_copy>
    19dc:	4602      	mov	r2, r0
    19de:	b120      	cbz	r0, 19ea <get_const_mpi+0x3a>
/mnt/disk/raspbian-tee/optee_os/lib/libutee/tee_api_arith_mpi.c:115 (discriminator 1)
    19e0:	4803      	ldr	r0, [pc, #12]	; (19f0 <get_const_mpi+0x40>)
    19e2:	2173      	movs	r1, #115	; 0x73
    19e4:	4478      	add	r0, pc
    19e6:	f7ff ffd3 	bl	1990 <mpi_panic>
/mnt/disk/raspbian-tee/optee_os/lib/libutee/tee_api_arith_mpi.c:116
    19ea:	b007      	add	sp, #28
    19ec:	bd30      	pop	{r4, r5, pc}
    19ee:	bf00      	nop
    19f0:	00004dbc 	.word	0x00004dbc

000019f4 <mpi_is_odd>:
mpi_is_odd():
/mnt/disk/raspbian-tee/optee_os/lib/libutee/tee_api_arith_mpi.c:599
    19f4:	b508      	push	{r3, lr}
/mnt/disk/raspbian-tee/optee_os/lib/libutee/tee_api_arith_mpi.c:600
    19f6:	2100      	movs	r1, #0
    19f8:	f001 fc79 	bl	32ee <mbedtls_mpi_get_bit>
/mnt/disk/raspbian-tee/optee_os/lib/libutee/tee_api_arith_mpi.c:601
    19fc:	3000      	adds	r0, #0
    19fe:	bf18      	it	ne
    1a00:	2001      	movne	r0, #1
    1a02:	bd08      	pop	{r3, pc}

00001a04 <rng_read>:
rng_read():
/mnt/disk/raspbian-tee/optee_os/lib/libutee/tee_api_arith_mpi.c:763
    1a04:	b508      	push	{r3, lr}
    1a06:	4608      	mov	r0, r1
/mnt/disk/raspbian-tee/optee_os/lib/libutee/tee_api_arith_mpi.c:764
    1a08:	4611      	mov	r1, r2
    1a0a:	f7ff ed54 	blx	14b4 <utee_cryp_random_number_generate>
    1a0e:	2800      	cmp	r0, #0
/mnt/disk/raspbian-tee/optee_os/lib/libutee/tee_api_arith_mpi.c:767
    1a10:	f06f 0001 	mvn.w	r0, #1
    1a14:	bf08      	it	eq
    1a16:	2000      	moveq	r0, #0
    1a18:	bd08      	pop	{r3, pc}

00001a1a <put_mpi>:
put_mpi():
/mnt/disk/raspbian-tee/optee_os/lib/libutee/tee_api_arith_mpi.c:128
    1a1a:	7842      	ldrb	r2, [r0, #1]
    1a1c:	2a02      	cmp	r2, #2
    1a1e:	d108      	bne.n	1a32 <put_mpi+0x18>
/mnt/disk/raspbian-tee/optee_os/lib/libutee/tee_api_arith_mpi.c:129
    1a20:	6882      	ldr	r2, [r0, #8]
/mnt/disk/raspbian-tee/optee_os/lib/libutee/tee_api_arith_mpi.c:131
    1a22:	f990 1000 	ldrsb.w	r1, [r0]
/mnt/disk/raspbian-tee/optee_os/lib/libutee/tee_api_arith_mpi.c:132
    1a26:	8883      	ldrh	r3, [r0, #4]
/mnt/disk/raspbian-tee/optee_os/lib/libutee/tee_api_arith_mpi.c:131
    1a28:	f842 1c08 	str.w	r1, [r2, #-8]
/mnt/disk/raspbian-tee/optee_os/lib/libutee/tee_api_arith_mpi.c:132
    1a2c:	f822 3c02 	strh.w	r3, [r2, #-2]
    1a30:	4770      	bx	lr
/mnt/disk/raspbian-tee/optee_os/lib/libutee/tee_api_arith_mpi.c:134
    1a32:	f001 baa4 	b.w	2f7e <mbedtls_mpi_free>

00001a36 <mpi_egcd>:
mpi_egcd():
/mnt/disk/raspbian-tee/optee_os/lib/libutee/tee_api_arith_mpi.c:614
    1a36:	e92d 4ff0 	stmdb	sp!, {r4, r5, r6, r7, r8, r9, sl, fp, lr}
    1a3a:	4681      	mov	r9, r0
    1a3c:	b09b      	sub	sp, #108	; 0x6c
get_mpi():
/mnt/disk/raspbian-tee/optee_os/lib/libutee/tee_api_arith_mpi.c:99
    1a3e:	f10d 0814 	add.w	r8, sp, #20
    1a42:	af08      	add	r7, sp, #32
    1a44:	4640      	mov	r0, r8
    1a46:	ad0b      	add	r5, sp, #44	; 0x2c
mpi_egcd():
/mnt/disk/raspbian-tee/optee_os/lib/libutee/tee_api_arith_mpi.c:614
    1a48:	9102      	str	r1, [sp, #8]
get_mpi():
/mnt/disk/raspbian-tee/optee_os/lib/libutee/tee_api_arith_mpi.c:99
    1a4a:	ac0e      	add	r4, sp, #56	; 0x38
mpi_egcd():
/mnt/disk/raspbian-tee/optee_os/lib/libutee/tee_api_arith_mpi.c:614
    1a4c:	9203      	str	r2, [sp, #12]
get_mpi():
/mnt/disk/raspbian-tee/optee_os/lib/libutee/tee_api_arith_mpi.c:99
    1a4e:	f10d 0a44 	add.w	sl, sp, #68	; 0x44
mpi_egcd():
/mnt/disk/raspbian-tee/optee_os/lib/libutee/tee_api_arith_mpi.c:614
    1a52:	9301      	str	r3, [sp, #4]
get_mpi():
/mnt/disk/raspbian-tee/optee_os/lib/libutee/tee_api_arith_mpi.c:99
    1a54:	f001 fa77 	bl	2f46 <mbedtls_mpi_init_mempool>
    1a58:	4638      	mov	r0, r7
    1a5a:	f10d 0b50 	add.w	fp, sp, #80	; 0x50
    1a5e:	f001 fa72 	bl	2f46 <mbedtls_mpi_init_mempool>
    1a62:	4628      	mov	r0, r5
    1a64:	f001 fa6f 	bl	2f46 <mbedtls_mpi_init_mempool>
    1a68:	4620      	mov	r0, r4
    1a6a:	f001 fa6c 	bl	2f46 <mbedtls_mpi_init_mempool>
    1a6e:	4650      	mov	r0, sl
    1a70:	f001 fa69 	bl	2f46 <mbedtls_mpi_init_mempool>
    1a74:	ae17      	add	r6, sp, #92	; 0x5c
    1a76:	4658      	mov	r0, fp
    1a78:	f001 fa65 	bl	2f46 <mbedtls_mpi_init_mempool>
    1a7c:	4630      	mov	r0, r6
    1a7e:	f001 fa62 	bl	2f46 <mbedtls_mpi_init_mempool>
mpi_egcd():
/mnt/disk/raspbian-tee/optee_os/lib/libutee/tee_api_arith_mpi.c:633
    1a82:	2100      	movs	r1, #0
    1a84:	9824      	ldr	r0, [sp, #144]	; 0x90
    1a86:	f001 fe08 	bl	369a <mbedtls_mpi_cmp_int>
    1a8a:	bb20      	cbnz	r0, 1ad6 <mpi_egcd+0xa0>
/mnt/disk/raspbian-tee/optee_os/lib/libutee/tee_api_arith_mpi.c:634
    1a8c:	2101      	movs	r1, #1
    1a8e:	9802      	ldr	r0, [sp, #8]
    1a90:	f001 fc11 	bl	32b6 <mbedtls_mpi_lset>
    1a94:	4602      	mov	r2, r0
    1a96:	b130      	cbz	r0, 1aa6 <mpi_egcd+0x70>
/mnt/disk/raspbian-tee/optee_os/lib/libutee/tee_api_arith_mpi.c:634 (discriminator 1)
    1a98:	48dd      	ldr	r0, [pc, #884]	; (1e10 <mpi_egcd+0x3da>)
    1a9a:	f240 217a 	movw	r1, #634	; 0x27a
    1a9e:	4478      	add	r0, pc
/mnt/disk/raspbian-tee/optee_os/lib/libutee/tee_api_arith_mpi.c:635 (discriminator 1)
    1aa0:	300e      	adds	r0, #14
    1aa2:	f7ff ff75 	bl	1990 <mpi_panic>
/mnt/disk/raspbian-tee/optee_os/lib/libutee/tee_api_arith_mpi.c:635
    1aa6:	4601      	mov	r1, r0
    1aa8:	9803      	ldr	r0, [sp, #12]
    1aaa:	f001 fc04 	bl	32b6 <mbedtls_mpi_lset>
    1aae:	4602      	mov	r2, r0
    1ab0:	b120      	cbz	r0, 1abc <mpi_egcd+0x86>
/mnt/disk/raspbian-tee/optee_os/lib/libutee/tee_api_arith_mpi.c:635 (discriminator 1)
    1ab2:	48d8      	ldr	r0, [pc, #864]	; (1e14 <mpi_egcd+0x3de>)
    1ab4:	f240 217b 	movw	r1, #635	; 0x27b
    1ab8:	4478      	add	r0, pc
    1aba:	e7f1      	b.n	1aa0 <mpi_egcd+0x6a>
/mnt/disk/raspbian-tee/optee_os/lib/libutee/tee_api_arith_mpi.c:636
    1abc:	9901      	ldr	r1, [sp, #4]
    1abe:	4648      	mov	r0, r9
    1ac0:	f001 fb3e 	bl	3140 <mbedtls_mpi_copy>
    1ac4:	4602      	mov	r2, r0
    1ac6:	2800      	cmp	r0, #0
    1ac8:	f000 818a 	beq.w	1de0 <mpi_egcd+0x3aa>
/mnt/disk/raspbian-tee/optee_os/lib/libutee/tee_api_arith_mpi.c:636 (discriminator 1)
    1acc:	48d2      	ldr	r0, [pc, #840]	; (1e18 <mpi_egcd+0x3e2>)
    1ace:	f44f 711f 	mov.w	r1, #636	; 0x27c
    1ad2:	4478      	add	r0, pc
    1ad4:	e7e4      	b.n	1aa0 <mpi_egcd+0x6a>
/mnt/disk/raspbian-tee/optee_os/lib/libutee/tee_api_arith_mpi.c:640
    1ad6:	9901      	ldr	r1, [sp, #4]
    1ad8:	4650      	mov	r0, sl
    1ada:	f001 fb31 	bl	3140 <mbedtls_mpi_copy>
    1ade:	4602      	mov	r2, r0
    1ae0:	b120      	cbz	r0, 1aec <mpi_egcd+0xb6>
/mnt/disk/raspbian-tee/optee_os/lib/libutee/tee_api_arith_mpi.c:640 (discriminator 1)
    1ae2:	48ce      	ldr	r0, [pc, #824]	; (1e1c <mpi_egcd+0x3e6>)
    1ae4:	f44f 7120 	mov.w	r1, #640	; 0x280
    1ae8:	4478      	add	r0, pc
    1aea:	e7d9      	b.n	1aa0 <mpi_egcd+0x6a>
/mnt/disk/raspbian-tee/optee_os/lib/libutee/tee_api_arith_mpi.c:641
    1aec:	9924      	ldr	r1, [sp, #144]	; 0x90
    1aee:	4658      	mov	r0, fp
    1af0:	f001 fb26 	bl	3140 <mbedtls_mpi_copy>
    1af4:	4602      	mov	r2, r0
    1af6:	b178      	cbz	r0, 1b18 <mpi_egcd+0xe2>
/mnt/disk/raspbian-tee/optee_os/lib/libutee/tee_api_arith_mpi.c:641 (discriminator 1)
    1af8:	48c9      	ldr	r0, [pc, #804]	; (1e20 <mpi_egcd+0x3ea>)
    1afa:	f240 2181 	movw	r1, #641	; 0x281
    1afe:	4478      	add	r0, pc
    1b00:	e7ce      	b.n	1aa0 <mpi_egcd+0x6a>
/mnt/disk/raspbian-tee/optee_os/lib/libutee/tee_api_arith_mpi.c:647
    1b02:	2101      	movs	r1, #1
    1b04:	4658      	mov	r0, fp
    1b06:	f001 fd0a 	bl	351e <mbedtls_mpi_shift_r>
    1b0a:	4602      	mov	r2, r0
    1b0c:	b128      	cbz	r0, 1b1a <mpi_egcd+0xe4>
/mnt/disk/raspbian-tee/optee_os/lib/libutee/tee_api_arith_mpi.c:647 (discriminator 1)
    1b0e:	48c5      	ldr	r0, [pc, #788]	; (1e24 <mpi_egcd+0x3ee>)
    1b10:	f240 2187 	movw	r1, #647	; 0x287
    1b14:	4478      	add	r0, pc
    1b16:	e7c3      	b.n	1aa0 <mpi_egcd+0x6a>
    1b18:	9001      	str	r0, [sp, #4]
mpi_is_even():
/mnt/disk/raspbian-tee/optee_os/lib/libutee/tee_api_arith_mpi.c:605
    1b1a:	4650      	mov	r0, sl
    1b1c:	f7ff ff6a 	bl	19f4 <mpi_is_odd>
mpi_egcd():
/mnt/disk/raspbian-tee/optee_os/lib/libutee/tee_api_arith_mpi.c:644
    1b20:	b150      	cbz	r0, 1b38 <mpi_egcd+0x102>
/mnt/disk/raspbian-tee/optee_os/lib/libutee/tee_api_arith_mpi.c:650
    1b22:	4651      	mov	r1, sl
    1b24:	4630      	mov	r0, r6
    1b26:	f001 fb0b 	bl	3140 <mbedtls_mpi_copy>
    1b2a:	4602      	mov	r2, r0
    1b2c:	b1c0      	cbz	r0, 1b60 <mpi_egcd+0x12a>
/mnt/disk/raspbian-tee/optee_os/lib/libutee/tee_api_arith_mpi.c:650 (discriminator 1)
    1b2e:	48be      	ldr	r0, [pc, #760]	; (1e28 <mpi_egcd+0x3f2>)
    1b30:	f240 218a 	movw	r1, #650	; 0x28a
    1b34:	4478      	add	r0, pc
    1b36:	e7b3      	b.n	1aa0 <mpi_egcd+0x6a>
mpi_is_even():
/mnt/disk/raspbian-tee/optee_os/lib/libutee/tee_api_arith_mpi.c:605
    1b38:	4658      	mov	r0, fp
    1b3a:	f7ff ff5b 	bl	19f4 <mpi_is_odd>
mpi_egcd():
/mnt/disk/raspbian-tee/optee_os/lib/libutee/tee_api_arith_mpi.c:644
    1b3e:	2800      	cmp	r0, #0
    1b40:	d1ef      	bne.n	1b22 <mpi_egcd+0xec>
/mnt/disk/raspbian-tee/optee_os/lib/libutee/tee_api_arith_mpi.c:645
    1b42:	9b01      	ldr	r3, [sp, #4]
/mnt/disk/raspbian-tee/optee_os/lib/libutee/tee_api_arith_mpi.c:646
    1b44:	2101      	movs	r1, #1
    1b46:	4650      	mov	r0, sl
/mnt/disk/raspbian-tee/optee_os/lib/libutee/tee_api_arith_mpi.c:645
    1b48:	3301      	adds	r3, #1
    1b4a:	9301      	str	r3, [sp, #4]
/mnt/disk/raspbian-tee/optee_os/lib/libutee/tee_api_arith_mpi.c:646
    1b4c:	f001 fce7 	bl	351e <mbedtls_mpi_shift_r>
    1b50:	4602      	mov	r2, r0
    1b52:	2800      	cmp	r0, #0
    1b54:	d0d5      	beq.n	1b02 <mpi_egcd+0xcc>
/mnt/disk/raspbian-tee/optee_os/lib/libutee/tee_api_arith_mpi.c:646 (discriminator 1)
    1b56:	48b5      	ldr	r0, [pc, #724]	; (1e2c <mpi_egcd+0x3f6>)
    1b58:	f240 2186 	movw	r1, #646	; 0x286
    1b5c:	4478      	add	r0, pc
    1b5e:	e79f      	b.n	1aa0 <mpi_egcd+0x6a>
/mnt/disk/raspbian-tee/optee_os/lib/libutee/tee_api_arith_mpi.c:651
    1b60:	4659      	mov	r1, fp
    1b62:	4648      	mov	r0, r9
    1b64:	f001 faec 	bl	3140 <mbedtls_mpi_copy>
    1b68:	4602      	mov	r2, r0
    1b6a:	b120      	cbz	r0, 1b76 <mpi_egcd+0x140>
/mnt/disk/raspbian-tee/optee_os/lib/libutee/tee_api_arith_mpi.c:651 (discriminator 1)
    1b6c:	48b0      	ldr	r0, [pc, #704]	; (1e30 <mpi_egcd+0x3fa>)
    1b6e:	f240 218b 	movw	r1, #651	; 0x28b
    1b72:	4478      	add	r0, pc
    1b74:	e794      	b.n	1aa0 <mpi_egcd+0x6a>
/mnt/disk/raspbian-tee/optee_os/lib/libutee/tee_api_arith_mpi.c:652
    1b76:	2101      	movs	r1, #1
    1b78:	4640      	mov	r0, r8
    1b7a:	f001 fb9c 	bl	32b6 <mbedtls_mpi_lset>
    1b7e:	4602      	mov	r2, r0
    1b80:	b120      	cbz	r0, 1b8c <mpi_egcd+0x156>
/mnt/disk/raspbian-tee/optee_os/lib/libutee/tee_api_arith_mpi.c:652 (discriminator 1)
    1b82:	48ac      	ldr	r0, [pc, #688]	; (1e34 <mpi_egcd+0x3fe>)
    1b84:	f44f 7123 	mov.w	r1, #652	; 0x28c
    1b88:	4478      	add	r0, pc
    1b8a:	e789      	b.n	1aa0 <mpi_egcd+0x6a>
/mnt/disk/raspbian-tee/optee_os/lib/libutee/tee_api_arith_mpi.c:653
    1b8c:	4601      	mov	r1, r0
    1b8e:	4638      	mov	r0, r7
    1b90:	f001 fb91 	bl	32b6 <mbedtls_mpi_lset>
    1b94:	4602      	mov	r2, r0
    1b96:	b120      	cbz	r0, 1ba2 <mpi_egcd+0x16c>
/mnt/disk/raspbian-tee/optee_os/lib/libutee/tee_api_arith_mpi.c:653 (discriminator 1)
    1b98:	48a7      	ldr	r0, [pc, #668]	; (1e38 <mpi_egcd+0x402>)
    1b9a:	f240 218d 	movw	r1, #653	; 0x28d
    1b9e:	4478      	add	r0, pc
    1ba0:	e77e      	b.n	1aa0 <mpi_egcd+0x6a>
/mnt/disk/raspbian-tee/optee_os/lib/libutee/tee_api_arith_mpi.c:654
    1ba2:	4601      	mov	r1, r0
    1ba4:	4628      	mov	r0, r5
    1ba6:	f001 fb86 	bl	32b6 <mbedtls_mpi_lset>
    1baa:	4602      	mov	r2, r0
    1bac:	b120      	cbz	r0, 1bb8 <mpi_egcd+0x182>
/mnt/disk/raspbian-tee/optee_os/lib/libutee/tee_api_arith_mpi.c:654 (discriminator 1)
    1bae:	48a3      	ldr	r0, [pc, #652]	; (1e3c <mpi_egcd+0x406>)
    1bb0:	f240 218e 	movw	r1, #654	; 0x28e
    1bb4:	4478      	add	r0, pc
    1bb6:	e773      	b.n	1aa0 <mpi_egcd+0x6a>
/mnt/disk/raspbian-tee/optee_os/lib/libutee/tee_api_arith_mpi.c:655
    1bb8:	2101      	movs	r1, #1
    1bba:	4620      	mov	r0, r4
    1bbc:	f001 fb7b 	bl	32b6 <mbedtls_mpi_lset>
    1bc0:	4602      	mov	r2, r0
    1bc2:	2800      	cmp	r0, #0
    1bc4:	f000 80e4 	beq.w	1d90 <mpi_egcd+0x35a>
/mnt/disk/raspbian-tee/optee_os/lib/libutee/tee_api_arith_mpi.c:655 (discriminator 1)
    1bc8:	489d      	ldr	r0, [pc, #628]	; (1e40 <mpi_egcd+0x40a>)
    1bca:	f240 218f 	movw	r1, #655	; 0x28f
    1bce:	4478      	add	r0, pc
    1bd0:	e766      	b.n	1aa0 <mpi_egcd+0x6a>
/mnt/disk/raspbian-tee/optee_os/lib/libutee/tee_api_arith_mpi.c:659
    1bd2:	2101      	movs	r1, #1
    1bd4:	4630      	mov	r0, r6
    1bd6:	f001 fca2 	bl	351e <mbedtls_mpi_shift_r>
    1bda:	4602      	mov	r2, r0
    1bdc:	b120      	cbz	r0, 1be8 <mpi_egcd+0x1b2>
/mnt/disk/raspbian-tee/optee_os/lib/libutee/tee_api_arith_mpi.c:659 (discriminator 1)
    1bde:	4899      	ldr	r0, [pc, #612]	; (1e44 <mpi_egcd+0x40e>)
    1be0:	f240 2193 	movw	r1, #659	; 0x293
    1be4:	4478      	add	r0, pc
    1be6:	e75b      	b.n	1aa0 <mpi_egcd+0x6a>
/mnt/disk/raspbian-tee/optee_os/lib/libutee/tee_api_arith_mpi.c:660
    1be8:	4640      	mov	r0, r8
    1bea:	f7ff ff03 	bl	19f4 <mpi_is_odd>
    1bee:	b158      	cbz	r0, 1c08 <mpi_egcd+0x1d2>
/mnt/disk/raspbian-tee/optee_os/lib/libutee/tee_api_arith_mpi.c:661
    1bf0:	465a      	mov	r2, fp
    1bf2:	4641      	mov	r1, r8
    1bf4:	4640      	mov	r0, r8
    1bf6:	f001 fe06 	bl	3806 <mbedtls_mpi_add_mpi>
    1bfa:	4602      	mov	r2, r0
    1bfc:	b1a0      	cbz	r0, 1c28 <mpi_egcd+0x1f2>
/mnt/disk/raspbian-tee/optee_os/lib/libutee/tee_api_arith_mpi.c:661 (discriminator 1)
    1bfe:	4892      	ldr	r0, [pc, #584]	; (1e48 <mpi_egcd+0x412>)
    1c00:	f240 2195 	movw	r1, #661	; 0x295
    1c04:	4478      	add	r0, pc
    1c06:	e74b      	b.n	1aa0 <mpi_egcd+0x6a>
/mnt/disk/raspbian-tee/optee_os/lib/libutee/tee_api_arith_mpi.c:660 (discriminator 1)
    1c08:	4638      	mov	r0, r7
    1c0a:	f7ff fef3 	bl	19f4 <mpi_is_odd>
    1c0e:	2800      	cmp	r0, #0
    1c10:	d1ee      	bne.n	1bf0 <mpi_egcd+0x1ba>
/mnt/disk/raspbian-tee/optee_os/lib/libutee/tee_api_arith_mpi.c:664
    1c12:	2101      	movs	r1, #1
    1c14:	4640      	mov	r0, r8
    1c16:	f001 fc82 	bl	351e <mbedtls_mpi_shift_r>
    1c1a:	4602      	mov	r2, r0
    1c1c:	b188      	cbz	r0, 1c42 <mpi_egcd+0x20c>
/mnt/disk/raspbian-tee/optee_os/lib/libutee/tee_api_arith_mpi.c:664 (discriminator 1)
    1c1e:	488b      	ldr	r0, [pc, #556]	; (1e4c <mpi_egcd+0x416>)
    1c20:	f44f 7126 	mov.w	r1, #664	; 0x298
    1c24:	4478      	add	r0, pc
    1c26:	e73b      	b.n	1aa0 <mpi_egcd+0x6a>
/mnt/disk/raspbian-tee/optee_os/lib/libutee/tee_api_arith_mpi.c:662
    1c28:	4652      	mov	r2, sl
    1c2a:	4639      	mov	r1, r7
    1c2c:	4638      	mov	r0, r7
    1c2e:	f001 fe0e 	bl	384e <mbedtls_mpi_sub_mpi>
    1c32:	4602      	mov	r2, r0
    1c34:	2800      	cmp	r0, #0
    1c36:	d0ec      	beq.n	1c12 <mpi_egcd+0x1dc>
/mnt/disk/raspbian-tee/optee_os/lib/libutee/tee_api_arith_mpi.c:662 (discriminator 1)
    1c38:	4885      	ldr	r0, [pc, #532]	; (1e50 <mpi_egcd+0x41a>)
    1c3a:	f240 2196 	movw	r1, #662	; 0x296
    1c3e:	4478      	add	r0, pc
    1c40:	e72e      	b.n	1aa0 <mpi_egcd+0x6a>
/mnt/disk/raspbian-tee/optee_os/lib/libutee/tee_api_arith_mpi.c:665
    1c42:	2101      	movs	r1, #1
    1c44:	4638      	mov	r0, r7
    1c46:	f001 fc6a 	bl	351e <mbedtls_mpi_shift_r>
    1c4a:	4602      	mov	r2, r0
    1c4c:	b120      	cbz	r0, 1c58 <mpi_egcd+0x222>
/mnt/disk/raspbian-tee/optee_os/lib/libutee/tee_api_arith_mpi.c:665 (discriminator 1)
    1c4e:	4881      	ldr	r0, [pc, #516]	; (1e54 <mpi_egcd+0x41e>)
    1c50:	f240 2199 	movw	r1, #665	; 0x299
    1c54:	4478      	add	r0, pc
    1c56:	e723      	b.n	1aa0 <mpi_egcd+0x6a>
mpi_is_even():
/mnt/disk/raspbian-tee/optee_os/lib/libutee/tee_api_arith_mpi.c:605
    1c58:	4630      	mov	r0, r6
    1c5a:	f7ff fecb 	bl	19f4 <mpi_is_odd>
mpi_egcd():
/mnt/disk/raspbian-tee/optee_os/lib/libutee/tee_api_arith_mpi.c:658
    1c5e:	2800      	cmp	r0, #0
    1c60:	d0b7      	beq.n	1bd2 <mpi_egcd+0x19c>
mpi_is_even():
/mnt/disk/raspbian-tee/optee_os/lib/libutee/tee_api_arith_mpi.c:605
    1c62:	4648      	mov	r0, r9
    1c64:	f7ff fec6 	bl	19f4 <mpi_is_odd>
mpi_egcd():
/mnt/disk/raspbian-tee/optee_os/lib/libutee/tee_api_arith_mpi.c:668
    1c68:	b190      	cbz	r0, 1c90 <mpi_egcd+0x25a>
/mnt/disk/raspbian-tee/optee_os/lib/libutee/tee_api_arith_mpi.c:679
    1c6a:	4649      	mov	r1, r9
    1c6c:	4630      	mov	r0, r6
    1c6e:	f001 fcc9 	bl	3604 <mbedtls_mpi_cmp_mpi>
    1c72:	2800      	cmp	r0, #0
    1c74:	db68      	blt.n	1d48 <mpi_egcd+0x312>
/mnt/disk/raspbian-tee/optee_os/lib/libutee/tee_api_arith_mpi.c:680
    1c76:	464a      	mov	r2, r9
    1c78:	4631      	mov	r1, r6
    1c7a:	4630      	mov	r0, r6
    1c7c:	f001 fde7 	bl	384e <mbedtls_mpi_sub_mpi>
    1c80:	4602      	mov	r2, r0
    1c82:	2800      	cmp	r0, #0
    1c84:	d048      	beq.n	1d18 <mpi_egcd+0x2e2>
/mnt/disk/raspbian-tee/optee_os/lib/libutee/tee_api_arith_mpi.c:680 (discriminator 1)
    1c86:	4874      	ldr	r0, [pc, #464]	; (1e58 <mpi_egcd+0x422>)
    1c88:	f44f 712a 	mov.w	r1, #680	; 0x2a8
    1c8c:	4478      	add	r0, pc
    1c8e:	e707      	b.n	1aa0 <mpi_egcd+0x6a>
/mnt/disk/raspbian-tee/optee_os/lib/libutee/tee_api_arith_mpi.c:669
    1c90:	2101      	movs	r1, #1
    1c92:	4648      	mov	r0, r9
    1c94:	f001 fc43 	bl	351e <mbedtls_mpi_shift_r>
    1c98:	4602      	mov	r2, r0
    1c9a:	b120      	cbz	r0, 1ca6 <mpi_egcd+0x270>
/mnt/disk/raspbian-tee/optee_os/lib/libutee/tee_api_arith_mpi.c:669 (discriminator 1)
    1c9c:	486f      	ldr	r0, [pc, #444]	; (1e5c <mpi_egcd+0x426>)
    1c9e:	f240 219d 	movw	r1, #669	; 0x29d
    1ca2:	4478      	add	r0, pc
    1ca4:	e6fc      	b.n	1aa0 <mpi_egcd+0x6a>
/mnt/disk/raspbian-tee/optee_os/lib/libutee/tee_api_arith_mpi.c:670
    1ca6:	4628      	mov	r0, r5
    1ca8:	f7ff fea4 	bl	19f4 <mpi_is_odd>
    1cac:	b158      	cbz	r0, 1cc6 <mpi_egcd+0x290>
/mnt/disk/raspbian-tee/optee_os/lib/libutee/tee_api_arith_mpi.c:671
    1cae:	465a      	mov	r2, fp
    1cb0:	4629      	mov	r1, r5
    1cb2:	4628      	mov	r0, r5
    1cb4:	f001 fda7 	bl	3806 <mbedtls_mpi_add_mpi>
    1cb8:	4602      	mov	r2, r0
    1cba:	b1a0      	cbz	r0, 1ce6 <mpi_egcd+0x2b0>
/mnt/disk/raspbian-tee/optee_os/lib/libutee/tee_api_arith_mpi.c:671 (discriminator 1)
    1cbc:	4868      	ldr	r0, [pc, #416]	; (1e60 <mpi_egcd+0x42a>)
    1cbe:	f240 219f 	movw	r1, #671	; 0x29f
    1cc2:	4478      	add	r0, pc
    1cc4:	e6ec      	b.n	1aa0 <mpi_egcd+0x6a>
/mnt/disk/raspbian-tee/optee_os/lib/libutee/tee_api_arith_mpi.c:670 (discriminator 1)
    1cc6:	4620      	mov	r0, r4
    1cc8:	f7ff fe94 	bl	19f4 <mpi_is_odd>
    1ccc:	2800      	cmp	r0, #0
    1cce:	d1ee      	bne.n	1cae <mpi_egcd+0x278>
/mnt/disk/raspbian-tee/optee_os/lib/libutee/tee_api_arith_mpi.c:674
    1cd0:	2101      	movs	r1, #1
    1cd2:	4628      	mov	r0, r5
    1cd4:	f001 fc23 	bl	351e <mbedtls_mpi_shift_r>
    1cd8:	4602      	mov	r2, r0
    1cda:	b188      	cbz	r0, 1d00 <mpi_egcd+0x2ca>
/mnt/disk/raspbian-tee/optee_os/lib/libutee/tee_api_arith_mpi.c:674 (discriminator 1)
    1cdc:	4861      	ldr	r0, [pc, #388]	; (1e64 <mpi_egcd+0x42e>)
    1cde:	f240 21a2 	movw	r1, #674	; 0x2a2
    1ce2:	4478      	add	r0, pc
    1ce4:	e6dc      	b.n	1aa0 <mpi_egcd+0x6a>
/mnt/disk/raspbian-tee/optee_os/lib/libutee/tee_api_arith_mpi.c:672
    1ce6:	4652      	mov	r2, sl
    1ce8:	4621      	mov	r1, r4
    1cea:	4620      	mov	r0, r4
    1cec:	f001 fdaf 	bl	384e <mbedtls_mpi_sub_mpi>
    1cf0:	4602      	mov	r2, r0
    1cf2:	2800      	cmp	r0, #0
    1cf4:	d0ec      	beq.n	1cd0 <mpi_egcd+0x29a>
/mnt/disk/raspbian-tee/optee_os/lib/libutee/tee_api_arith_mpi.c:672 (discriminator 1)
    1cf6:	485c      	ldr	r0, [pc, #368]	; (1e68 <mpi_egcd+0x432>)
    1cf8:	f44f 7128 	mov.w	r1, #672	; 0x2a0
    1cfc:	4478      	add	r0, pc
    1cfe:	e6cf      	b.n	1aa0 <mpi_egcd+0x6a>
/mnt/disk/raspbian-tee/optee_os/lib/libutee/tee_api_arith_mpi.c:675
    1d00:	2101      	movs	r1, #1
    1d02:	4620      	mov	r0, r4
    1d04:	f001 fc0b 	bl	351e <mbedtls_mpi_shift_r>
    1d08:	4602      	mov	r2, r0
    1d0a:	2800      	cmp	r0, #0
    1d0c:	d0a9      	beq.n	1c62 <mpi_egcd+0x22c>
/mnt/disk/raspbian-tee/optee_os/lib/libutee/tee_api_arith_mpi.c:675 (discriminator 1)
    1d0e:	4857      	ldr	r0, [pc, #348]	; (1e6c <mpi_egcd+0x436>)
    1d10:	f240 21a3 	movw	r1, #675	; 0x2a3
    1d14:	4478      	add	r0, pc
    1d16:	e6c3      	b.n	1aa0 <mpi_egcd+0x6a>
/mnt/disk/raspbian-tee/optee_os/lib/libutee/tee_api_arith_mpi.c:681
    1d18:	462a      	mov	r2, r5
    1d1a:	4641      	mov	r1, r8
    1d1c:	4640      	mov	r0, r8
    1d1e:	f001 fd96 	bl	384e <mbedtls_mpi_sub_mpi>
    1d22:	4602      	mov	r2, r0
    1d24:	b120      	cbz	r0, 1d30 <mpi_egcd+0x2fa>
/mnt/disk/raspbian-tee/optee_os/lib/libutee/tee_api_arith_mpi.c:681 (discriminator 1)
    1d26:	4852      	ldr	r0, [pc, #328]	; (1e70 <mpi_egcd+0x43a>)
    1d28:	f240 21a9 	movw	r1, #681	; 0x2a9
    1d2c:	4478      	add	r0, pc
    1d2e:	e6b7      	b.n	1aa0 <mpi_egcd+0x6a>
/mnt/disk/raspbian-tee/optee_os/lib/libutee/tee_api_arith_mpi.c:682
    1d30:	4622      	mov	r2, r4
    1d32:	4639      	mov	r1, r7
    1d34:	4638      	mov	r0, r7
    1d36:	f001 fd8a 	bl	384e <mbedtls_mpi_sub_mpi>
    1d3a:	4602      	mov	r2, r0
    1d3c:	b340      	cbz	r0, 1d90 <mpi_egcd+0x35a>
/mnt/disk/raspbian-tee/optee_os/lib/libutee/tee_api_arith_mpi.c:682 (discriminator 1)
    1d3e:	484d      	ldr	r0, [pc, #308]	; (1e74 <mpi_egcd+0x43e>)
    1d40:	f240 21aa 	movw	r1, #682	; 0x2aa
    1d44:	4478      	add	r0, pc
    1d46:	e6ab      	b.n	1aa0 <mpi_egcd+0x6a>
/mnt/disk/raspbian-tee/optee_os/lib/libutee/tee_api_arith_mpi.c:684
    1d48:	4632      	mov	r2, r6
    1d4a:	4649      	mov	r1, r9
    1d4c:	4648      	mov	r0, r9
    1d4e:	f001 fd7e 	bl	384e <mbedtls_mpi_sub_mpi>
    1d52:	4602      	mov	r2, r0
    1d54:	b120      	cbz	r0, 1d60 <mpi_egcd+0x32a>
/mnt/disk/raspbian-tee/optee_os/lib/libutee/tee_api_arith_mpi.c:684 (discriminator 1)
    1d56:	4848      	ldr	r0, [pc, #288]	; (1e78 <mpi_egcd+0x442>)
    1d58:	f44f 712b 	mov.w	r1, #684	; 0x2ac
    1d5c:	4478      	add	r0, pc
    1d5e:	e69f      	b.n	1aa0 <mpi_egcd+0x6a>
/mnt/disk/raspbian-tee/optee_os/lib/libutee/tee_api_arith_mpi.c:685
    1d60:	4642      	mov	r2, r8
    1d62:	4629      	mov	r1, r5
    1d64:	4628      	mov	r0, r5
    1d66:	f001 fd72 	bl	384e <mbedtls_mpi_sub_mpi>
    1d6a:	4602      	mov	r2, r0
    1d6c:	b120      	cbz	r0, 1d78 <mpi_egcd+0x342>
/mnt/disk/raspbian-tee/optee_os/lib/libutee/tee_api_arith_mpi.c:685 (discriminator 1)
    1d6e:	4843      	ldr	r0, [pc, #268]	; (1e7c <mpi_egcd+0x446>)
    1d70:	f240 21ad 	movw	r1, #685	; 0x2ad
    1d74:	4478      	add	r0, pc
    1d76:	e693      	b.n	1aa0 <mpi_egcd+0x6a>
/mnt/disk/raspbian-tee/optee_os/lib/libutee/tee_api_arith_mpi.c:686
    1d78:	463a      	mov	r2, r7
    1d7a:	4621      	mov	r1, r4
    1d7c:	4620      	mov	r0, r4
    1d7e:	f001 fd66 	bl	384e <mbedtls_mpi_sub_mpi>
    1d82:	4602      	mov	r2, r0
    1d84:	b120      	cbz	r0, 1d90 <mpi_egcd+0x35a>
/mnt/disk/raspbian-tee/optee_os/lib/libutee/tee_api_arith_mpi.c:686 (discriminator 1)
    1d86:	483e      	ldr	r0, [pc, #248]	; (1e80 <mpi_egcd+0x44a>)
    1d88:	f240 21ae 	movw	r1, #686	; 0x2ae
    1d8c:	4478      	add	r0, pc
    1d8e:	e687      	b.n	1aa0 <mpi_egcd+0x6a>
/mnt/disk/raspbian-tee/optee_os/lib/libutee/tee_api_arith_mpi.c:657
    1d90:	2100      	movs	r1, #0
    1d92:	4630      	mov	r0, r6
    1d94:	f001 fc81 	bl	369a <mbedtls_mpi_cmp_int>
    1d98:	2800      	cmp	r0, #0
    1d9a:	f47f af5d 	bne.w	1c58 <mpi_egcd+0x222>
/mnt/disk/raspbian-tee/optee_os/lib/libutee/tee_api_arith_mpi.c:690
    1d9e:	4629      	mov	r1, r5
    1da0:	9802      	ldr	r0, [sp, #8]
    1da2:	f001 f9cd 	bl	3140 <mbedtls_mpi_copy>
    1da6:	4602      	mov	r2, r0
    1da8:	b120      	cbz	r0, 1db4 <mpi_egcd+0x37e>
/mnt/disk/raspbian-tee/optee_os/lib/libutee/tee_api_arith_mpi.c:690 (discriminator 1)
    1daa:	4836      	ldr	r0, [pc, #216]	; (1e84 <mpi_egcd+0x44e>)
    1dac:	f240 21b2 	movw	r1, #690	; 0x2b2
    1db0:	4478      	add	r0, pc
    1db2:	e675      	b.n	1aa0 <mpi_egcd+0x6a>
/mnt/disk/raspbian-tee/optee_os/lib/libutee/tee_api_arith_mpi.c:691
    1db4:	4621      	mov	r1, r4
    1db6:	9803      	ldr	r0, [sp, #12]
    1db8:	f001 f9c2 	bl	3140 <mbedtls_mpi_copy>
    1dbc:	4602      	mov	r2, r0
    1dbe:	b120      	cbz	r0, 1dca <mpi_egcd+0x394>
/mnt/disk/raspbian-tee/optee_os/lib/libutee/tee_api_arith_mpi.c:691 (discriminator 1)
    1dc0:	4831      	ldr	r0, [pc, #196]	; (1e88 <mpi_egcd+0x452>)
    1dc2:	f240 21b3 	movw	r1, #691	; 0x2b3
    1dc6:	4478      	add	r0, pc
    1dc8:	e66a      	b.n	1aa0 <mpi_egcd+0x6a>
/mnt/disk/raspbian-tee/optee_os/lib/libutee/tee_api_arith_mpi.c:692
    1dca:	9901      	ldr	r1, [sp, #4]
    1dcc:	4648      	mov	r0, r9
    1dce:	f001 fb5a 	bl	3486 <mbedtls_mpi_shift_l>
    1dd2:	4602      	mov	r2, r0
    1dd4:	b120      	cbz	r0, 1de0 <mpi_egcd+0x3aa>
/mnt/disk/raspbian-tee/optee_os/lib/libutee/tee_api_arith_mpi.c:692 (discriminator 1)
    1dd6:	482d      	ldr	r0, [pc, #180]	; (1e8c <mpi_egcd+0x456>)
    1dd8:	f44f 712d 	mov.w	r1, #692	; 0x2b4
    1ddc:	4478      	add	r0, pc
    1dde:	e65f      	b.n	1aa0 <mpi_egcd+0x6a>
/mnt/disk/raspbian-tee/optee_os/lib/libutee/tee_api_arith_mpi.c:695
    1de0:	4640      	mov	r0, r8
    1de2:	f7ff fe1a 	bl	1a1a <put_mpi>
/mnt/disk/raspbian-tee/optee_os/lib/libutee/tee_api_arith_mpi.c:696
    1de6:	4638      	mov	r0, r7
    1de8:	f7ff fe17 	bl	1a1a <put_mpi>
/mnt/disk/raspbian-tee/optee_os/lib/libutee/tee_api_arith_mpi.c:697
    1dec:	4628      	mov	r0, r5
    1dee:	f7ff fe14 	bl	1a1a <put_mpi>
/mnt/disk/raspbian-tee/optee_os/lib/libutee/tee_api_arith_mpi.c:698
    1df2:	4620      	mov	r0, r4
    1df4:	f7ff fe11 	bl	1a1a <put_mpi>
/mnt/disk/raspbian-tee/optee_os/lib/libutee/tee_api_arith_mpi.c:699
    1df8:	4650      	mov	r0, sl
    1dfa:	f7ff fe0e 	bl	1a1a <put_mpi>
/mnt/disk/raspbian-tee/optee_os/lib/libutee/tee_api_arith_mpi.c:700
    1dfe:	4658      	mov	r0, fp
    1e00:	f7ff fe0b 	bl	1a1a <put_mpi>
/mnt/disk/raspbian-tee/optee_os/lib/libutee/tee_api_arith_mpi.c:701
    1e04:	4630      	mov	r0, r6
    1e06:	f7ff fe08 	bl	1a1a <put_mpi>
/mnt/disk/raspbian-tee/optee_os/lib/libutee/tee_api_arith_mpi.c:702
    1e0a:	b01b      	add	sp, #108	; 0x6c
    1e0c:	e8bd 8ff0 	ldmia.w	sp!, {r4, r5, r6, r7, r8, r9, sl, fp, pc}
    1e10:	00004d02 	.word	0x00004d02
    1e14:	00004ce8 	.word	0x00004ce8
    1e18:	00004cce 	.word	0x00004cce
    1e1c:	00004cb8 	.word	0x00004cb8
    1e20:	00004ca2 	.word	0x00004ca2
    1e24:	00004c8c 	.word	0x00004c8c
    1e28:	00004c6c 	.word	0x00004c6c
    1e2c:	00004c44 	.word	0x00004c44
    1e30:	00004c2e 	.word	0x00004c2e
    1e34:	00004c18 	.word	0x00004c18
    1e38:	00004c02 	.word	0x00004c02
    1e3c:	00004bec 	.word	0x00004bec
    1e40:	00004bd2 	.word	0x00004bd2
    1e44:	00004bbc 	.word	0x00004bbc
    1e48:	00004b9c 	.word	0x00004b9c
    1e4c:	00004b7c 	.word	0x00004b7c
    1e50:	00004b62 	.word	0x00004b62
    1e54:	00004b4c 	.word	0x00004b4c
    1e58:	00004b14 	.word	0x00004b14
    1e5c:	00004afe 	.word	0x00004afe
    1e60:	00004ade 	.word	0x00004ade
    1e64:	00004abe 	.word	0x00004abe
    1e68:	00004aa4 	.word	0x00004aa4
    1e6c:	00004a8c 	.word	0x00004a8c
    1e70:	00004a74 	.word	0x00004a74
    1e74:	00004a5c 	.word	0x00004a5c
    1e78:	00004a44 	.word	0x00004a44
    1e7c:	00004a2c 	.word	0x00004a2c
    1e80:	00004a14 	.word	0x00004a14
    1e84:	000049f0 	.word	0x000049f0
    1e88:	000049da 	.word	0x000049da
    1e8c:	000049c4 	.word	0x000049c4

00001e90 <get_mpi>:
get_mpi():
/mnt/disk/raspbian-tee/optee_os/lib/libutee/tee_api_arith_mpi.c:81
    1e90:	b507      	push	{r0, r1, r2, lr}
/mnt/disk/raspbian-tee/optee_os/lib/libutee/tee_api_arith_mpi.c:96
    1e92:	b151      	cbz	r1, 1eaa <get_mpi+0x1a>
init_static_mpi():
/mnt/disk/raspbian-tee/optee_os/lib/libutee/tee_api_arith_mpi.c:65
    1e94:	88ca      	ldrh	r2, [r1, #6]
    1e96:	888b      	ldrh	r3, [r1, #4]
    1e98:	3108      	adds	r1, #8
    1e9a:	9200      	str	r2, [sp, #0]
    1e9c:	f851 2c08 	ldr.w	r2, [r1, #-8]
    1ea0:	f001 f864 	bl	2f6c <mbedtls_mpi_init_static>
get_mpi():
/mnt/disk/raspbian-tee/optee_os/lib/libutee/tee_api_arith_mpi.c:100
    1ea4:	b003      	add	sp, #12
    1ea6:	f85d fb04 	ldr.w	pc, [sp], #4
    1eaa:	b003      	add	sp, #12
    1eac:	f85d eb04 	ldr.w	lr, [sp], #4
/mnt/disk/raspbian-tee/optee_os/lib/libutee/tee_api_arith_mpi.c:99
    1eb0:	f001 b849 	b.w	2f46 <mbedtls_mpi_init_mempool>

00001eb4 <bigint_binary>:
bigint_binary():
/mnt/disk/raspbian-tee/optee_os/lib/libutee/tee_api_arith_mpi.c:336
    1eb4:	e92d 47f0 	stmdb	sp!, {r4, r5, r6, r7, r8, r9, sl, lr}
    1eb8:	4607      	mov	r7, r0
    1eba:	4689      	mov	r9, r1
    1ebc:	b08a      	sub	sp, #40	; 0x28
/mnt/disk/raspbian-tee/optee_os/lib/libutee/tee_api_arith_mpi.c:343
    1ebe:	4601      	mov	r1, r0
    1ec0:	ae01      	add	r6, sp, #4
/mnt/disk/raspbian-tee/optee_os/lib/libutee/tee_api_arith_mpi.c:336
    1ec2:	4614      	mov	r4, r2
/mnt/disk/raspbian-tee/optee_os/lib/libutee/tee_api_arith_mpi.c:343
    1ec4:	4630      	mov	r0, r6
/mnt/disk/raspbian-tee/optee_os/lib/libutee/tee_api_arith_mpi.c:336
    1ec6:	469a      	mov	sl, r3
    1ec8:	f10d 0810 	add.w	r8, sp, #16
/mnt/disk/raspbian-tee/optee_os/lib/libutee/tee_api_arith_mpi.c:343
    1ecc:	f7ff ffe0 	bl	1e90 <get_mpi>
/mnt/disk/raspbian-tee/optee_os/lib/libutee/tee_api_arith_mpi.c:345
    1ed0:	454f      	cmp	r7, r9
    1ed2:	d01b      	beq.n	1f0c <bigint_binary+0x58>
/mnt/disk/raspbian-tee/optee_os/lib/libutee/tee_api_arith_mpi.c:340
    1ed4:	4645      	mov	r5, r8
/mnt/disk/raspbian-tee/optee_os/lib/libutee/tee_api_arith_mpi.c:348
    1ed6:	4649      	mov	r1, r9
    1ed8:	4640      	mov	r0, r8
    1eda:	f7ff fd69 	bl	19b0 <get_const_mpi>
/mnt/disk/raspbian-tee/optee_os/lib/libutee/tee_api_arith_mpi.c:350
    1ede:	42a7      	cmp	r7, r4
    1ee0:	af07      	add	r7, sp, #28
    1ee2:	d015      	beq.n	1f10 <bigint_binary+0x5c>
/mnt/disk/raspbian-tee/optee_os/lib/libutee/tee_api_arith_mpi.c:352
    1ee4:	45a1      	cmp	r9, r4
    1ee6:	d015      	beq.n	1f14 <bigint_binary+0x60>
/mnt/disk/raspbian-tee/optee_os/lib/libutee/tee_api_arith_mpi.c:355
    1ee8:	4621      	mov	r1, r4
/mnt/disk/raspbian-tee/optee_os/lib/libutee/tee_api_arith_mpi.c:341
    1eea:	463c      	mov	r4, r7
/mnt/disk/raspbian-tee/optee_os/lib/libutee/tee_api_arith_mpi.c:355
    1eec:	4638      	mov	r0, r7
    1eee:	f7ff fd5f 	bl	19b0 <get_const_mpi>
/mnt/disk/raspbian-tee/optee_os/lib/libutee/tee_api_arith_mpi.c:357
    1ef2:	4622      	mov	r2, r4
    1ef4:	4629      	mov	r1, r5
    1ef6:	4630      	mov	r0, r6
    1ef8:	47d0      	blx	sl
    1efa:	4602      	mov	r2, r0
    1efc:	b160      	cbz	r0, 1f18 <bigint_binary+0x64>
/mnt/disk/raspbian-tee/optee_os/lib/libutee/tee_api_arith_mpi.c:357 (discriminator 1)
    1efe:	480e      	ldr	r0, [pc, #56]	; (1f38 <bigint_binary+0x84>)
    1f00:	f240 1165 	movw	r1, #357	; 0x165
    1f04:	4478      	add	r0, pc
    1f06:	3017      	adds	r0, #23
    1f08:	f7ff fd42 	bl	1990 <mpi_panic>
/mnt/disk/raspbian-tee/optee_os/lib/libutee/tee_api_arith_mpi.c:346
    1f0c:	4635      	mov	r5, r6
    1f0e:	e7e6      	b.n	1ede <bigint_binary+0x2a>
/mnt/disk/raspbian-tee/optee_os/lib/libutee/tee_api_arith_mpi.c:351
    1f10:	4634      	mov	r4, r6
    1f12:	e7ee      	b.n	1ef2 <bigint_binary+0x3e>
/mnt/disk/raspbian-tee/optee_os/lib/libutee/tee_api_arith_mpi.c:353
    1f14:	462c      	mov	r4, r5
    1f16:	e7ec      	b.n	1ef2 <bigint_binary+0x3e>
/mnt/disk/raspbian-tee/optee_os/lib/libutee/tee_api_arith_mpi.c:359
    1f18:	4630      	mov	r0, r6
    1f1a:	f7ff fd7e 	bl	1a1a <put_mpi>
/mnt/disk/raspbian-tee/optee_os/lib/libutee/tee_api_arith_mpi.c:360
    1f1e:	4545      	cmp	r5, r8
    1f20:	d102      	bne.n	1f28 <bigint_binary+0x74>
/mnt/disk/raspbian-tee/optee_os/lib/libutee/tee_api_arith_mpi.c:361
    1f22:	4628      	mov	r0, r5
    1f24:	f7ff fd79 	bl	1a1a <put_mpi>
/mnt/disk/raspbian-tee/optee_os/lib/libutee/tee_api_arith_mpi.c:362
    1f28:	42bc      	cmp	r4, r7
    1f2a:	d102      	bne.n	1f32 <bigint_binary+0x7e>
/mnt/disk/raspbian-tee/optee_os/lib/libutee/tee_api_arith_mpi.c:363
    1f2c:	4620      	mov	r0, r4
    1f2e:	f7ff fd74 	bl	1a1a <put_mpi>
/mnt/disk/raspbian-tee/optee_os/lib/libutee/tee_api_arith_mpi.c:364
    1f32:	b00a      	add	sp, #40	; 0x28
    1f34:	e8bd 87f0 	ldmia.w	sp!, {r4, r5, r6, r7, r8, r9, sl, pc}
    1f38:	0000489c 	.word	0x0000489c

00001f3c <_TEE_MathAPI_Init>:
_TEE_MathAPI_Init():
/mnt/disk/raspbian-tee/optee_os/lib/libutee/tee_api_arith_mpi.c:48
    1f3c:	480b      	ldr	r0, [pc, #44]	; (1f6c <_TEE_MathAPI_Init+0x30>)
    1f3e:	2200      	movs	r2, #0
/mnt/disk/raspbian-tee/optee_os/lib/libutee/tee_api_arith_mpi.c:44
    1f40:	b510      	push	{r4, lr}
/mnt/disk/raspbian-tee/optee_os/lib/libutee/tee_api_arith_mpi.c:48
    1f42:	f44f 5100 	mov.w	r1, #8192	; 0x2000
/mnt/disk/raspbian-tee/optee_os/lib/libutee/tee_api_arith_mpi.c:44
    1f46:	4c0a      	ldr	r4, [pc, #40]	; (1f70 <_TEE_MathAPI_Init+0x34>)
/mnt/disk/raspbian-tee/optee_os/lib/libutee/tee_api_arith_mpi.c:48
    1f48:	4478      	add	r0, pc
    1f4a:	f003 ff29 	bl	5da0 <mempool_alloc_pool>
    1f4e:	4b09      	ldr	r3, [pc, #36]	; (1f74 <_TEE_MathAPI_Init+0x38>)
/mnt/disk/raspbian-tee/optee_os/lib/libutee/tee_api_arith_mpi.c:44
    1f50:	447c      	add	r4, pc
/mnt/disk/raspbian-tee/optee_os/lib/libutee/tee_api_arith_mpi.c:48
    1f52:	58e3      	ldr	r3, [r4, r3]
    1f54:	6018      	str	r0, [r3, #0]
/mnt/disk/raspbian-tee/optee_os/lib/libutee/tee_api_arith_mpi.c:49
    1f56:	b938      	cbnz	r0, 1f68 <_TEE_MathAPI_Init+0x2c>
/mnt/disk/raspbian-tee/optee_os/lib/libutee/tee_api_arith_mpi.c:50
    1f58:	4807      	ldr	r0, [pc, #28]	; (1f78 <_TEE_MathAPI_Init+0x3c>)
    1f5a:	2132      	movs	r1, #50	; 0x32
    1f5c:	4a07      	ldr	r2, [pc, #28]	; (1f7c <_TEE_MathAPI_Init+0x40>)
    1f5e:	4478      	add	r0, pc
    1f60:	447a      	add	r2, pc
    1f62:	3025      	adds	r0, #37	; 0x25
    1f64:	f000 fd1e 	bl	29a4 <api_panic>
    1f68:	bd10      	pop	{r4, pc}
    1f6a:	bf00      	nop
    1f6c:	00006590 	.word	0x00006590
    1f70:	00005a00 	.word	0x00005a00
    1f74:	00000030 	.word	0x00000030
    1f78:	00004842 	.word	0x00004842
    1f7c:	000049c8 	.word	0x000049c8

00001f80 <TEE_BigIntInit>:
TEE_BigIntInit():
/mnt/disk/raspbian-tee/optee_os/lib/libutee/tee_api_arith_mpi.c:140
    1f80:	f101 021f 	add.w	r2, r1, #31
/mnt/disk/raspbian-tee/optee_os/lib/libutee/tee_api_arith_mpi.c:139
    1f84:	b538      	push	{r3, r4, r5, lr}
/mnt/disk/raspbian-tee/optee_os/lib/libutee/tee_api_arith_mpi.c:140
    1f86:	0952      	lsrs	r2, r2, #5
/mnt/disk/raspbian-tee/optee_os/lib/libutee/tee_api_arith_mpi.c:139
    1f88:	4605      	mov	r5, r0
    1f8a:	460c      	mov	r4, r1
/mnt/disk/raspbian-tee/optee_os/lib/libutee/tee_api_arith_mpi.c:140
    1f8c:	3202      	adds	r2, #2
    1f8e:	2100      	movs	r1, #0
    1f90:	0092      	lsls	r2, r2, #2
/mnt/disk/raspbian-tee/optee_os/lib/libutee/tee_api_arith_mpi.c:146
    1f92:	3c02      	subs	r4, #2
/mnt/disk/raspbian-tee/optee_os/lib/libutee/tee_api_arith_mpi.c:140
    1f94:	f003 ffba 	bl	5f0c <memset>
/mnt/disk/raspbian-tee/optee_os/lib/libutee/tee_api_arith_mpi.c:145
    1f98:	2301      	movs	r3, #1
    1f9a:	602b      	str	r3, [r5, #0]
/mnt/disk/raspbian-tee/optee_os/lib/libutee/tee_api_arith_mpi.c:146
    1f9c:	f242 7310 	movw	r3, #10000	; 0x2710
    1fa0:	429c      	cmp	r4, r3
    1fa2:	d907      	bls.n	1fb4 <TEE_BigIntInit+0x34>
/mnt/disk/raspbian-tee/optee_os/lib/libutee/tee_api_arith_mpi.c:147
    1fa4:	4804      	ldr	r0, [pc, #16]	; (1fb8 <TEE_BigIntInit+0x38>)
    1fa6:	2193      	movs	r1, #147	; 0x93
    1fa8:	4a04      	ldr	r2, [pc, #16]	; (1fbc <TEE_BigIntInit+0x3c>)
    1faa:	4478      	add	r0, pc
    1fac:	447a      	add	r2, pc
    1fae:	3037      	adds	r0, #55	; 0x37
    1fb0:	f000 fcf8 	bl	29a4 <api_panic>
/mnt/disk/raspbian-tee/optee_os/lib/libutee/tee_api_arith_mpi.c:148
    1fb4:	80ac      	strh	r4, [r5, #4]
    1fb6:	bd38      	pop	{r3, r4, r5, pc}
    1fb8:	000047f6 	.word	0x000047f6
    1fbc:	0000499d 	.word	0x0000499d

00001fc0 <TEE_BigIntConvertFromOctetString>:
TEE_BigIntConvertFromOctetString():
/mnt/disk/raspbian-tee/optee_os/lib/libutee/tee_api_arith_mpi.c:154
    1fc0:	b5f0      	push	{r4, r5, r6, r7, lr}
    1fc2:	460c      	mov	r4, r1
    1fc4:	4617      	mov	r7, r2
    1fc6:	b085      	sub	sp, #20
/mnt/disk/raspbian-tee/optee_os/lib/libutee/tee_api_arith_mpi.c:158
    1fc8:	4601      	mov	r1, r0
    1fca:	ad01      	add	r5, sp, #4
/mnt/disk/raspbian-tee/optee_os/lib/libutee/tee_api_arith_mpi.c:154
    1fcc:	461e      	mov	r6, r3
/mnt/disk/raspbian-tee/optee_os/lib/libutee/tee_api_arith_mpi.c:158
    1fce:	4628      	mov	r0, r5
    1fd0:	f7ff ff5e 	bl	1e90 <get_mpi>
/mnt/disk/raspbian-tee/optee_os/lib/libutee/tee_api_arith_mpi.c:160
    1fd4:	4621      	mov	r1, r4
    1fd6:	463a      	mov	r2, r7
    1fd8:	4628      	mov	r0, r5
    1fda:	f001 f9fe 	bl	33da <mbedtls_mpi_read_binary>
/mnt/disk/raspbian-tee/optee_os/lib/libutee/tee_api_arith_mpi.c:163
    1fde:	2800      	cmp	r0, #0
    1fe0:	4c06      	ldr	r4, [pc, #24]	; (1ffc <TEE_BigIntConvertFromOctetString+0x3c>)
    1fe2:	bf08      	it	eq
    1fe4:	2400      	moveq	r4, #0
/mnt/disk/raspbian-tee/optee_os/lib/libutee/tee_api_arith_mpi.c:165
    1fe6:	2e00      	cmp	r6, #0
    1fe8:	da02      	bge.n	1ff0 <TEE_BigIntConvertFromOctetString+0x30>
/mnt/disk/raspbian-tee/optee_os/lib/libutee/tee_api_arith_mpi.c:166
    1fea:	23ff      	movs	r3, #255	; 0xff
    1fec:	f88d 3004 	strb.w	r3, [sp, #4]
/mnt/disk/raspbian-tee/optee_os/lib/libutee/tee_api_arith_mpi.c:168
    1ff0:	4628      	mov	r0, r5
    1ff2:	f7ff fd12 	bl	1a1a <put_mpi>
/mnt/disk/raspbian-tee/optee_os/lib/libutee/tee_api_arith_mpi.c:171
    1ff6:	4620      	mov	r0, r4
    1ff8:	b005      	add	sp, #20
    1ffa:	bdf0      	pop	{r4, r5, r6, r7, pc}
    1ffc:	ffff300f 	.word	0xffff300f

00002000 <TEE_BigIntConvertToOctetString>:
TEE_BigIntConvertToOctetString():
/mnt/disk/raspbian-tee/optee_os/lib/libutee/tee_api_arith_mpi.c:175
    2000:	b5f0      	push	{r4, r5, r6, r7, lr}
    2002:	460f      	mov	r7, r1
    2004:	4604      	mov	r4, r0
    2006:	b085      	sub	sp, #20
/mnt/disk/raspbian-tee/optee_os/lib/libutee/tee_api_arith_mpi.c:180
    2008:	4611      	mov	r1, r2
    200a:	ad01      	add	r5, sp, #4
    200c:	4628      	mov	r0, r5
    200e:	f7ff fccf 	bl	19b0 <get_const_mpi>
/mnt/disk/raspbian-tee/optee_os/lib/libutee/tee_api_arith_mpi.c:182
    2012:	4628      	mov	r0, r5
    2014:	f001 f9db 	bl	33ce <mbedtls_mpi_size>
/mnt/disk/raspbian-tee/optee_os/lib/libutee/tee_api_arith_mpi.c:183
    2018:	683b      	ldr	r3, [r7, #0]
/mnt/disk/raspbian-tee/optee_os/lib/libutee/tee_api_arith_mpi.c:182
    201a:	4606      	mov	r6, r0
/mnt/disk/raspbian-tee/optee_os/lib/libutee/tee_api_arith_mpi.c:183
    201c:	4298      	cmp	r0, r3
    201e:	d80c      	bhi.n	203a <TEE_BigIntConvertToOctetString+0x3a>
/mnt/disk/raspbian-tee/optee_os/lib/libutee/tee_api_arith_mpi.c:184
    2020:	4602      	mov	r2, r0
    2022:	4621      	mov	r1, r4
    2024:	4628      	mov	r0, r5
    2026:	f001 fa0b 	bl	3440 <mbedtls_mpi_write_binary>
    202a:	b170      	cbz	r0, 204a <TEE_BigIntConvertToOctetString+0x4a>
/mnt/disk/raspbian-tee/optee_os/lib/libutee/tee_api_arith_mpi.c:184 (discriminator 1)
    202c:	4602      	mov	r2, r0
    202e:	4809      	ldr	r0, [pc, #36]	; (2054 <TEE_BigIntConvertToOctetString+0x54>)
    2030:	21b8      	movs	r1, #184	; 0xb8
    2032:	4478      	add	r0, pc
    2034:	3046      	adds	r0, #70	; 0x46
    2036:	f7ff fcab 	bl	1990 <mpi_panic>
/mnt/disk/raspbian-tee/optee_os/lib/libutee/tee_api_arith_mpi.c:186
    203a:	4c05      	ldr	r4, [pc, #20]	; (2050 <TEE_BigIntConvertToOctetString+0x50>)
/mnt/disk/raspbian-tee/optee_os/lib/libutee/tee_api_arith_mpi.c:190
    203c:	4628      	mov	r0, r5
/mnt/disk/raspbian-tee/optee_os/lib/libutee/tee_api_arith_mpi.c:188
    203e:	603e      	str	r6, [r7, #0]
/mnt/disk/raspbian-tee/optee_os/lib/libutee/tee_api_arith_mpi.c:190
    2040:	f7ff fceb 	bl	1a1a <put_mpi>
/mnt/disk/raspbian-tee/optee_os/lib/libutee/tee_api_arith_mpi.c:193
    2044:	4620      	mov	r0, r4
    2046:	b005      	add	sp, #20
    2048:	bdf0      	pop	{r4, r5, r6, r7, pc}
/mnt/disk/raspbian-tee/optee_os/lib/libutee/tee_api_arith_mpi.c:176
    204a:	4604      	mov	r4, r0
    204c:	e7f6      	b.n	203c <TEE_BigIntConvertToOctetString+0x3c>
    204e:	bf00      	nop
    2050:	ffff0010 	.word	0xffff0010
    2054:	0000476e 	.word	0x0000476e

00002058 <TEE_BigIntConvertFromS32>:
TEE_BigIntConvertFromS32():
/mnt/disk/raspbian-tee/optee_os/lib/libutee/tee_api_arith_mpi.c:196
    2058:	b530      	push	{r4, r5, lr}
    205a:	460d      	mov	r5, r1
/mnt/disk/raspbian-tee/optee_os/lib/libutee/tee_api_arith_mpi.c:199
    205c:	4601      	mov	r1, r0
/mnt/disk/raspbian-tee/optee_os/lib/libutee/tee_api_arith_mpi.c:196
    205e:	b085      	sub	sp, #20
/mnt/disk/raspbian-tee/optee_os/lib/libutee/tee_api_arith_mpi.c:199
    2060:	ac01      	add	r4, sp, #4
    2062:	4620      	mov	r0, r4
    2064:	f7ff ff14 	bl	1e90 <get_mpi>
/mnt/disk/raspbian-tee/optee_os/lib/libutee/tee_api_arith_mpi.c:201
    2068:	4629      	mov	r1, r5
    206a:	4620      	mov	r0, r4
    206c:	f001 f923 	bl	32b6 <mbedtls_mpi_lset>
    2070:	4602      	mov	r2, r0
    2072:	b128      	cbz	r0, 2080 <TEE_BigIntConvertFromS32+0x28>
/mnt/disk/raspbian-tee/optee_os/lib/libutee/tee_api_arith_mpi.c:201 (discriminator 1)
    2074:	4805      	ldr	r0, [pc, #20]	; (208c <TEE_BigIntConvertFromS32+0x34>)
    2076:	21c9      	movs	r1, #201	; 0xc9
    2078:	4478      	add	r0, pc
    207a:	3065      	adds	r0, #101	; 0x65
    207c:	f7ff fc88 	bl	1990 <mpi_panic>
/mnt/disk/raspbian-tee/optee_os/lib/libutee/tee_api_arith_mpi.c:203
    2080:	4620      	mov	r0, r4
    2082:	f7ff fcca 	bl	1a1a <put_mpi>
/mnt/disk/raspbian-tee/optee_os/lib/libutee/tee_api_arith_mpi.c:204
    2086:	b005      	add	sp, #20
    2088:	bd30      	pop	{r4, r5, pc}
    208a:	bf00      	nop
    208c:	00004728 	.word	0x00004728

00002090 <TEE_BigIntConvertToS32>:
TEE_BigIntConvertToS32():
/mnt/disk/raspbian-tee/optee_os/lib/libutee/tee_api_arith_mpi.c:207
    2090:	b530      	push	{r4, r5, lr}
    2092:	4605      	mov	r5, r0
    2094:	b085      	sub	sp, #20
/mnt/disk/raspbian-tee/optee_os/lib/libutee/tee_api_arith_mpi.c:212
    2096:	ac01      	add	r4, sp, #4
    2098:	4620      	mov	r0, r4
    209a:	f7ff fc89 	bl	19b0 <get_const_mpi>
/mnt/disk/raspbian-tee/optee_os/lib/libutee/tee_api_arith_mpi.c:214
    209e:	2204      	movs	r2, #4
    20a0:	4669      	mov	r1, sp
    20a2:	4620      	mov	r0, r4
    20a4:	f001 f9cc 	bl	3440 <mbedtls_mpi_write_binary>
    20a8:	b9d0      	cbnz	r0, 20e0 <TEE_BigIntConvertToS32+0x50>
/mnt/disk/raspbian-tee/optee_os/lib/libutee/tee_api_arith_mpi.c:219
    20aa:	f99d 3004 	ldrsb.w	r3, [sp, #4]
    20ae:	2b00      	cmp	r3, #0
    20b0:	9b00      	ldr	r3, [sp, #0]
/mnt/disk/raspbian-tee/optee_os/lib/libutee/tee_api_arith_mpi.c:220
    20b2:	ba1b      	rev	r3, r3
/mnt/disk/raspbian-tee/optee_os/lib/libutee/tee_api_arith_mpi.c:219
    20b4:	dd09      	ble.n	20ca <TEE_BigIntConvertToS32+0x3a>
/mnt/disk/raspbian-tee/optee_os/lib/libutee/tee_api_arith_mpi.c:220
    20b6:	602b      	str	r3, [r5, #0]
    20b8:	2b00      	cmp	r3, #0
    20ba:	db11      	blt.n	20e0 <TEE_BigIntConvertToS32+0x50>
/mnt/disk/raspbian-tee/optee_os/lib/libutee/tee_api_arith_mpi.c:208
    20bc:	2500      	movs	r5, #0
/mnt/disk/raspbian-tee/optee_os/lib/libutee/tee_api_arith_mpi.c:228
    20be:	4620      	mov	r0, r4
    20c0:	f7ff fcab 	bl	1a1a <put_mpi>
/mnt/disk/raspbian-tee/optee_os/lib/libutee/tee_api_arith_mpi.c:231
    20c4:	4628      	mov	r0, r5
    20c6:	b005      	add	sp, #20
    20c8:	bd30      	pop	{r4, r5, pc}
/mnt/disk/raspbian-tee/optee_os/lib/libutee/tee_api_arith_mpi.c:223
    20ca:	425a      	negs	r2, r3
    20cc:	b11b      	cbz	r3, 20d6 <TEE_BigIntConvertToS32+0x46>
    20ce:	2a00      	cmp	r2, #0
    20d0:	db03      	blt.n	20da <TEE_BigIntConvertToS32+0x4a>
    20d2:	2001      	movs	r0, #1
    20d4:	e001      	b.n	20da <TEE_BigIntConvertToS32+0x4a>
    20d6:	2a00      	cmp	r2, #0
    20d8:	dbfb      	blt.n	20d2 <TEE_BigIntConvertToS32+0x42>
    20da:	602a      	str	r2, [r5, #0]
    20dc:	2800      	cmp	r0, #0
    20de:	d0ed      	beq.n	20bc <TEE_BigIntConvertToS32+0x2c>
/mnt/disk/raspbian-tee/optee_os/lib/libutee/tee_api_arith_mpi.c:221
    20e0:	4d00      	ldr	r5, [pc, #0]	; (20e4 <TEE_BigIntConvertToS32+0x54>)
    20e2:	e7ec      	b.n	20be <TEE_BigIntConvertToS32+0x2e>
    20e4:	ffff300f 	.word	0xffff300f

000020e8 <TEE_BigIntCmp>:
TEE_BigIntCmp():
/mnt/disk/raspbian-tee/optee_os/lib/libutee/tee_api_arith_mpi.c:234
    20e8:	b570      	push	{r4, r5, r6, lr}
    20ea:	460c      	mov	r4, r1
/mnt/disk/raspbian-tee/optee_os/lib/libutee/tee_api_arith_mpi.c:239
    20ec:	4601      	mov	r1, r0
/mnt/disk/raspbian-tee/optee_os/lib/libutee/tee_api_arith_mpi.c:234
    20ee:	b086      	sub	sp, #24
/mnt/disk/raspbian-tee/optee_os/lib/libutee/tee_api_arith_mpi.c:239
    20f0:	4668      	mov	r0, sp
    20f2:	f7ff fc5d 	bl	19b0 <get_const_mpi>
/mnt/disk/raspbian-tee/optee_os/lib/libutee/tee_api_arith_mpi.c:240
    20f6:	4621      	mov	r1, r4
    20f8:	ac03      	add	r4, sp, #12
    20fa:	4620      	mov	r0, r4
    20fc:	f7ff fc58 	bl	19b0 <get_const_mpi>
/mnt/disk/raspbian-tee/optee_os/lib/libutee/tee_api_arith_mpi.c:242
    2100:	4621      	mov	r1, r4
    2102:	4668      	mov	r0, sp
    2104:	f001 fa7e 	bl	3604 <mbedtls_mpi_cmp_mpi>
    2108:	4606      	mov	r6, r0
/mnt/disk/raspbian-tee/optee_os/lib/libutee/tee_api_arith_mpi.c:244
    210a:	4668      	mov	r0, sp
    210c:	f7ff fc85 	bl	1a1a <put_mpi>
/mnt/disk/raspbian-tee/optee_os/lib/libutee/tee_api_arith_mpi.c:245
    2110:	4620      	mov	r0, r4
    2112:	f7ff fc82 	bl	1a1a <put_mpi>
/mnt/disk/raspbian-tee/optee_os/lib/libutee/tee_api_arith_mpi.c:248
    2116:	4630      	mov	r0, r6
    2118:	b006      	add	sp, #24
    211a:	bd70      	pop	{r4, r5, r6, pc}

0000211c <TEE_BigIntCmpS32>:
TEE_BigIntCmpS32():
/mnt/disk/raspbian-tee/optee_os/lib/libutee/tee_api_arith_mpi.c:251
    211c:	b530      	push	{r4, r5, lr}
    211e:	460d      	mov	r5, r1
/mnt/disk/raspbian-tee/optee_os/lib/libutee/tee_api_arith_mpi.c:255
    2120:	4601      	mov	r1, r0
/mnt/disk/raspbian-tee/optee_os/lib/libutee/tee_api_arith_mpi.c:251
    2122:	b085      	sub	sp, #20
/mnt/disk/raspbian-tee/optee_os/lib/libutee/tee_api_arith_mpi.c:255
    2124:	ac01      	add	r4, sp, #4
    2126:	4620      	mov	r0, r4
    2128:	f7ff fc42 	bl	19b0 <get_const_mpi>
/mnt/disk/raspbian-tee/optee_os/lib/libutee/tee_api_arith_mpi.c:257
    212c:	4629      	mov	r1, r5
    212e:	4620      	mov	r0, r4
    2130:	f001 fab3 	bl	369a <mbedtls_mpi_cmp_int>
    2134:	4605      	mov	r5, r0
/mnt/disk/raspbian-tee/optee_os/lib/libutee/tee_api_arith_mpi.c:259
    2136:	4620      	mov	r0, r4
    2138:	f7ff fc6f 	bl	1a1a <put_mpi>
/mnt/disk/raspbian-tee/optee_os/lib/libutee/tee_api_arith_mpi.c:262
    213c:	4628      	mov	r0, r5
    213e:	b005      	add	sp, #20
    2140:	bd30      	pop	{r4, r5, pc}

00002142 <bigint_binary_mod>:
bigint_binary_mod():
/mnt/disk/raspbian-tee/optee_os/lib/libutee/tee_api_arith_mpi.c:370
    2142:	e92d 47f0 	stmdb	sp!, {r4, r5, r6, r7, r8, r9, sl, lr}
    2146:	4680      	mov	r8, r0
    2148:	460f      	mov	r7, r1
    214a:	b090      	sub	sp, #64	; 0x40
/mnt/disk/raspbian-tee/optee_os/lib/libutee/tee_api_arith_mpi.c:371
    214c:	2102      	movs	r1, #2
    214e:	4618      	mov	r0, r3
/mnt/disk/raspbian-tee/optee_os/lib/libutee/tee_api_arith_mpi.c:370
    2150:	4614      	mov	r4, r2
    2152:	461d      	mov	r5, r3
/mnt/disk/raspbian-tee/optee_os/lib/libutee/tee_api_arith_mpi.c:371
    2154:	f7ff ffe2 	bl	211c <TEE_BigIntCmpS32>
    2158:	2800      	cmp	r0, #0
    215a:	da08      	bge.n	216e <bigint_binary_mod+0x2c>
/mnt/disk/raspbian-tee/optee_os/lib/libutee/tee_api_arith_mpi.c:372
    215c:	482f      	ldr	r0, [pc, #188]	; (221c <bigint_binary_mod+0xda>)
    215e:	f44f 71ba 	mov.w	r1, #372	; 0x174
    2162:	4a2f      	ldr	r2, [pc, #188]	; (2220 <bigint_binary_mod+0xde>)
    2164:	4478      	add	r0, pc
    2166:	447a      	add	r2, pc
    2168:	307e      	adds	r0, #126	; 0x7e
    216a:	f000 fc1b 	bl	29a4 <api_panic>
/mnt/disk/raspbian-tee/optee_os/lib/libutee/tee_api_arith_mpi.c:382
    216e:	ae01      	add	r6, sp, #4
    2170:	4641      	mov	r1, r8
    2172:	4630      	mov	r0, r6
/mnt/disk/raspbian-tee/optee_os/lib/libutee/tee_api_arith_mpi.c:383
    2174:	f10d 0a28 	add.w	sl, sp, #40	; 0x28
/mnt/disk/raspbian-tee/optee_os/lib/libutee/tee_api_arith_mpi.c:382
    2178:	f7ff fe8a 	bl	1e90 <get_mpi>
/mnt/disk/raspbian-tee/optee_os/lib/libutee/tee_api_arith_mpi.c:383
    217c:	4629      	mov	r1, r5
    217e:	4650      	mov	r0, sl
    2180:	f10d 0910 	add.w	r9, sp, #16
    2184:	f7ff fc14 	bl	19b0 <get_const_mpi>
/mnt/disk/raspbian-tee/optee_os/lib/libutee/tee_api_arith_mpi.c:385
    2188:	45b8      	cmp	r8, r7
    218a:	d021      	beq.n	21d0 <bigint_binary_mod+0x8e>
/mnt/disk/raspbian-tee/optee_os/lib/libutee/tee_api_arith_mpi.c:378
    218c:	464d      	mov	r5, r9
/mnt/disk/raspbian-tee/optee_os/lib/libutee/tee_api_arith_mpi.c:388
    218e:	4639      	mov	r1, r7
    2190:	4648      	mov	r0, r9
    2192:	f7ff fc0d 	bl	19b0 <get_const_mpi>
/mnt/disk/raspbian-tee/optee_os/lib/libutee/tee_api_arith_mpi.c:390
    2196:	45a0      	cmp	r8, r4
    2198:	f10d 081c 	add.w	r8, sp, #28
    219c:	d01a      	beq.n	21d4 <bigint_binary_mod+0x92>
/mnt/disk/raspbian-tee/optee_os/lib/libutee/tee_api_arith_mpi.c:392
    219e:	42a7      	cmp	r7, r4
    21a0:	d01a      	beq.n	21d8 <bigint_binary_mod+0x96>
/mnt/disk/raspbian-tee/optee_os/lib/libutee/tee_api_arith_mpi.c:395
    21a2:	4621      	mov	r1, r4
/mnt/disk/raspbian-tee/optee_os/lib/libutee/tee_api_arith_mpi.c:379
    21a4:	4644      	mov	r4, r8
/mnt/disk/raspbian-tee/optee_os/lib/libutee/tee_api_arith_mpi.c:395
    21a6:	4640      	mov	r0, r8
    21a8:	f7ff fc02 	bl	19b0 <get_const_mpi>
get_mpi():
/mnt/disk/raspbian-tee/optee_os/lib/libutee/tee_api_arith_mpi.c:99
    21ac:	af0d      	add	r7, sp, #52	; 0x34
    21ae:	4638      	mov	r0, r7
    21b0:	f000 fec9 	bl	2f46 <mbedtls_mpi_init_mempool>
bigint_binary_mod():
/mnt/disk/raspbian-tee/optee_os/lib/libutee/tee_api_arith_mpi.c:399
    21b4:	4622      	mov	r2, r4
    21b6:	4629      	mov	r1, r5
    21b8:	4638      	mov	r0, r7
    21ba:	9b18      	ldr	r3, [sp, #96]	; 0x60
    21bc:	4798      	blx	r3
    21be:	4602      	mov	r2, r0
    21c0:	b160      	cbz	r0, 21dc <bigint_binary_mod+0x9a>
/mnt/disk/raspbian-tee/optee_os/lib/libutee/tee_api_arith_mpi.c:399 (discriminator 1)
    21c2:	4818      	ldr	r0, [pc, #96]	; (2224 <bigint_binary_mod+0xe2>)
    21c4:	f240 118f 	movw	r1, #399	; 0x18f
    21c8:	4478      	add	r0, pc
/mnt/disk/raspbian-tee/optee_os/lib/libutee/tee_api_arith_mpi.c:400 (discriminator 1)
    21ca:	307e      	adds	r0, #126	; 0x7e
    21cc:	f7ff fbe0 	bl	1990 <mpi_panic>
/mnt/disk/raspbian-tee/optee_os/lib/libutee/tee_api_arith_mpi.c:386
    21d0:	4635      	mov	r5, r6
    21d2:	e7e0      	b.n	2196 <bigint_binary_mod+0x54>
/mnt/disk/raspbian-tee/optee_os/lib/libutee/tee_api_arith_mpi.c:391
    21d4:	4634      	mov	r4, r6
    21d6:	e7e9      	b.n	21ac <bigint_binary_mod+0x6a>
/mnt/disk/raspbian-tee/optee_os/lib/libutee/tee_api_arith_mpi.c:393
    21d8:	462c      	mov	r4, r5
    21da:	e7e7      	b.n	21ac <bigint_binary_mod+0x6a>
/mnt/disk/raspbian-tee/optee_os/lib/libutee/tee_api_arith_mpi.c:400
    21dc:	4652      	mov	r2, sl
    21de:	4639      	mov	r1, r7
    21e0:	4630      	mov	r0, r6
    21e2:	f001 fe85 	bl	3ef0 <mbedtls_mpi_mod_mpi>
    21e6:	4602      	mov	r2, r0
    21e8:	b120      	cbz	r0, 21f4 <bigint_binary_mod+0xb2>
/mnt/disk/raspbian-tee/optee_os/lib/libutee/tee_api_arith_mpi.c:400 (discriminator 1)
    21ea:	480f      	ldr	r0, [pc, #60]	; (2228 <bigint_binary_mod+0xe6>)
    21ec:	f44f 71c8 	mov.w	r1, #400	; 0x190
    21f0:	4478      	add	r0, pc
    21f2:	e7ea      	b.n	21ca <bigint_binary_mod+0x88>
/mnt/disk/raspbian-tee/optee_os/lib/libutee/tee_api_arith_mpi.c:402
    21f4:	4630      	mov	r0, r6
    21f6:	f7ff fc10 	bl	1a1a <put_mpi>
/mnt/disk/raspbian-tee/optee_os/lib/libutee/tee_api_arith_mpi.c:403
    21fa:	454d      	cmp	r5, r9
    21fc:	d102      	bne.n	2204 <bigint_binary_mod+0xc2>
/mnt/disk/raspbian-tee/optee_os/lib/libutee/tee_api_arith_mpi.c:404
    21fe:	4628      	mov	r0, r5
    2200:	f7ff fc0b 	bl	1a1a <put_mpi>
/mnt/disk/raspbian-tee/optee_os/lib/libutee/tee_api_arith_mpi.c:405
    2204:	4544      	cmp	r4, r8
    2206:	d102      	bne.n	220e <bigint_binary_mod+0xcc>
/mnt/disk/raspbian-tee/optee_os/lib/libutee/tee_api_arith_mpi.c:406
    2208:	4620      	mov	r0, r4
    220a:	f7ff fc06 	bl	1a1a <put_mpi>
/mnt/disk/raspbian-tee/optee_os/lib/libutee/tee_api_arith_mpi.c:407
    220e:	4638      	mov	r0, r7
    2210:	f7ff fc03 	bl	1a1a <put_mpi>
/mnt/disk/raspbian-tee/optee_os/lib/libutee/tee_api_arith_mpi.c:408
    2214:	b010      	add	sp, #64	; 0x40
    2216:	e8bd 87f0 	ldmia.w	sp!, {r4, r5, r6, r7, r8, r9, sl, pc}
    221a:	bf00      	nop
    221c:	0000463c 	.word	0x0000463c
    2220:	000047f4 	.word	0x000047f4
    2224:	000045d8 	.word	0x000045d8
    2228:	000045b0 	.word	0x000045b0

0000222c <TEE_BigIntShiftRight>:
TEE_BigIntShiftRight():
/mnt/disk/raspbian-tee/optee_os/lib/libutee/tee_api_arith_mpi.c:265
    222c:	b5f0      	push	{r4, r5, r6, r7, lr}
    222e:	4605      	mov	r5, r0
    2230:	460e      	mov	r6, r1
    2232:	b08b      	sub	sp, #44	; 0x2c
/mnt/disk/raspbian-tee/optee_os/lib/libutee/tee_api_arith_mpi.c:269
    2234:	4601      	mov	r1, r0
    2236:	ac01      	add	r4, sp, #4
/mnt/disk/raspbian-tee/optee_os/lib/libutee/tee_api_arith_mpi.c:265
    2238:	4617      	mov	r7, r2
/mnt/disk/raspbian-tee/optee_os/lib/libutee/tee_api_arith_mpi.c:269
    223a:	4620      	mov	r0, r4
    223c:	f7ff fe28 	bl	1e90 <get_mpi>
/mnt/disk/raspbian-tee/optee_os/lib/libutee/tee_api_arith_mpi.c:271
    2240:	42b5      	cmp	r5, r6
    2242:	d10d      	bne.n	2260 <TEE_BigIntShiftRight+0x34>
/mnt/disk/raspbian-tee/optee_os/lib/libutee/tee_api_arith_mpi.c:272
    2244:	4639      	mov	r1, r7
    2246:	4620      	mov	r0, r4
    2248:	f001 f969 	bl	351e <mbedtls_mpi_shift_r>
    224c:	4602      	mov	r2, r0
    224e:	2800      	cmp	r0, #0
    2250:	d055      	beq.n	22fe <TEE_BigIntShiftRight+0xd2>
/mnt/disk/raspbian-tee/optee_os/lib/libutee/tee_api_arith_mpi.c:272 (discriminator 1)
    2252:	482d      	ldr	r0, [pc, #180]	; (2308 <TEE_BigIntShiftRight+0xdc>)
    2254:	f44f 7188 	mov.w	r1, #272	; 0x110
    2258:	4478      	add	r0, pc
/mnt/disk/raspbian-tee/optee_os/lib/libutee/tee_api_arith_mpi.c:279 (discriminator 1)
    225a:	3090      	adds	r0, #144	; 0x90
    225c:	f7ff fb98 	bl	1990 <mpi_panic>
/mnt/disk/raspbian-tee/optee_os/lib/libutee/tee_api_arith_mpi.c:276
    2260:	ad04      	add	r5, sp, #16
    2262:	4631      	mov	r1, r6
    2264:	4628      	mov	r0, r5
    2266:	f7ff fba3 	bl	19b0 <get_const_mpi>
/mnt/disk/raspbian-tee/optee_os/lib/libutee/tee_api_arith_mpi.c:278
    226a:	4620      	mov	r0, r4
    226c:	f001 f8af 	bl	33ce <mbedtls_mpi_size>
    2270:	4606      	mov	r6, r0
    2272:	4628      	mov	r0, r5
    2274:	f001 f8ab 	bl	33ce <mbedtls_mpi_size>
    2278:	4286      	cmp	r6, r0
    227a:	d315      	bcc.n	22a8 <TEE_BigIntShiftRight+0x7c>
/mnt/disk/raspbian-tee/optee_os/lib/libutee/tee_api_arith_mpi.c:279
    227c:	4629      	mov	r1, r5
    227e:	4620      	mov	r0, r4
    2280:	f000 ff5e 	bl	3140 <mbedtls_mpi_copy>
    2284:	4602      	mov	r2, r0
    2286:	b120      	cbz	r0, 2292 <TEE_BigIntShiftRight+0x66>
/mnt/disk/raspbian-tee/optee_os/lib/libutee/tee_api_arith_mpi.c:279 (discriminator 1)
    2288:	4820      	ldr	r0, [pc, #128]	; (230c <TEE_BigIntShiftRight+0xe0>)
    228a:	f240 1117 	movw	r1, #279	; 0x117
    228e:	4478      	add	r0, pc
    2290:	e7e3      	b.n	225a <TEE_BigIntShiftRight+0x2e>
/mnt/disk/raspbian-tee/optee_os/lib/libutee/tee_api_arith_mpi.c:280
    2292:	4639      	mov	r1, r7
    2294:	4620      	mov	r0, r4
    2296:	f001 f942 	bl	351e <mbedtls_mpi_shift_r>
    229a:	4602      	mov	r2, r0
    229c:	b360      	cbz	r0, 22f8 <TEE_BigIntShiftRight+0xcc>
/mnt/disk/raspbian-tee/optee_os/lib/libutee/tee_api_arith_mpi.c:280 (discriminator 1)
    229e:	481c      	ldr	r0, [pc, #112]	; (2310 <TEE_BigIntShiftRight+0xe4>)
    22a0:	f44f 718c 	mov.w	r1, #280	; 0x118
    22a4:	4478      	add	r0, pc
    22a6:	e7d8      	b.n	225a <TEE_BigIntShiftRight+0x2e>
get_mpi():
/mnt/disk/raspbian-tee/optee_os/lib/libutee/tee_api_arith_mpi.c:99
    22a8:	ae07      	add	r6, sp, #28
    22aa:	4630      	mov	r0, r6
    22ac:	f000 fe4b 	bl	2f46 <mbedtls_mpi_init_mempool>
TEE_BigIntShiftRight():
/mnt/disk/raspbian-tee/optee_os/lib/libutee/tee_api_arith_mpi.c:291
    22b0:	4629      	mov	r1, r5
    22b2:	4630      	mov	r0, r6
    22b4:	f000 ff44 	bl	3140 <mbedtls_mpi_copy>
    22b8:	4602      	mov	r2, r0
    22ba:	b120      	cbz	r0, 22c6 <TEE_BigIntShiftRight+0x9a>
/mnt/disk/raspbian-tee/optee_os/lib/libutee/tee_api_arith_mpi.c:291 (discriminator 1)
    22bc:	4815      	ldr	r0, [pc, #84]	; (2314 <TEE_BigIntShiftRight+0xe8>)
    22be:	f240 1123 	movw	r1, #291	; 0x123
    22c2:	4478      	add	r0, pc
    22c4:	e7c9      	b.n	225a <TEE_BigIntShiftRight+0x2e>
/mnt/disk/raspbian-tee/optee_os/lib/libutee/tee_api_arith_mpi.c:292
    22c6:	4639      	mov	r1, r7
    22c8:	4630      	mov	r0, r6
    22ca:	f001 f928 	bl	351e <mbedtls_mpi_shift_r>
    22ce:	4602      	mov	r2, r0
    22d0:	b120      	cbz	r0, 22dc <TEE_BigIntShiftRight+0xb0>
/mnt/disk/raspbian-tee/optee_os/lib/libutee/tee_api_arith_mpi.c:292 (discriminator 1)
    22d2:	4811      	ldr	r0, [pc, #68]	; (2318 <TEE_BigIntShiftRight+0xec>)
    22d4:	f44f 7192 	mov.w	r1, #292	; 0x124
    22d8:	4478      	add	r0, pc
    22da:	e7be      	b.n	225a <TEE_BigIntShiftRight+0x2e>
/mnt/disk/raspbian-tee/optee_os/lib/libutee/tee_api_arith_mpi.c:293
    22dc:	4631      	mov	r1, r6
    22de:	4620      	mov	r0, r4
    22e0:	f000 ff2e 	bl	3140 <mbedtls_mpi_copy>
    22e4:	4602      	mov	r2, r0
    22e6:	b120      	cbz	r0, 22f2 <TEE_BigIntShiftRight+0xc6>
/mnt/disk/raspbian-tee/optee_os/lib/libutee/tee_api_arith_mpi.c:293 (discriminator 1)
    22e8:	480c      	ldr	r0, [pc, #48]	; (231c <TEE_BigIntShiftRight+0xf0>)
    22ea:	f240 1125 	movw	r1, #293	; 0x125
    22ee:	4478      	add	r0, pc
    22f0:	e7b3      	b.n	225a <TEE_BigIntShiftRight+0x2e>
/mnt/disk/raspbian-tee/optee_os/lib/libutee/tee_api_arith_mpi.c:295
    22f2:	4630      	mov	r0, r6
    22f4:	f7ff fb91 	bl	1a1a <put_mpi>
/mnt/disk/raspbian-tee/optee_os/lib/libutee/tee_api_arith_mpi.c:298
    22f8:	4628      	mov	r0, r5
    22fa:	f7ff fb8e 	bl	1a1a <put_mpi>
/mnt/disk/raspbian-tee/optee_os/lib/libutee/tee_api_arith_mpi.c:301
    22fe:	4620      	mov	r0, r4
    2300:	f7ff fb8b 	bl	1a1a <put_mpi>
/mnt/disk/raspbian-tee/optee_os/lib/libutee/tee_api_arith_mpi.c:302
    2304:	b00b      	add	sp, #44	; 0x2c
    2306:	bdf0      	pop	{r4, r5, r6, r7, pc}
    2308:	00004548 	.word	0x00004548
    230c:	00004512 	.word	0x00004512
    2310:	000044fc 	.word	0x000044fc
    2314:	000044de 	.word	0x000044de
    2318:	000044c8 	.word	0x000044c8
    231c:	000044b2 	.word	0x000044b2

00002320 <TEE_BigIntGetBit>:
TEE_BigIntGetBit():
/mnt/disk/raspbian-tee/optee_os/lib/libutee/tee_api_arith_mpi.c:305
    2320:	b530      	push	{r4, r5, lr}
    2322:	460d      	mov	r5, r1
/mnt/disk/raspbian-tee/optee_os/lib/libutee/tee_api_arith_mpi.c:309
    2324:	4601      	mov	r1, r0
/mnt/disk/raspbian-tee/optee_os/lib/libutee/tee_api_arith_mpi.c:305
    2326:	b085      	sub	sp, #20
/mnt/disk/raspbian-tee/optee_os/lib/libutee/tee_api_arith_mpi.c:309
    2328:	ac01      	add	r4, sp, #4
    232a:	4620      	mov	r0, r4
    232c:	f7ff fb40 	bl	19b0 <get_const_mpi>
/mnt/disk/raspbian-tee/optee_os/lib/libutee/tee_api_arith_mpi.c:311
    2330:	4629      	mov	r1, r5
    2332:	4620      	mov	r0, r4
    2334:	f000 ffdb 	bl	32ee <mbedtls_mpi_get_bit>
    2338:	4605      	mov	r5, r0
/mnt/disk/raspbian-tee/optee_os/lib/libutee/tee_api_arith_mpi.c:313
    233a:	4620      	mov	r0, r4
    233c:	f7ff fb6d 	bl	1a1a <put_mpi>
/mnt/disk/raspbian-tee/optee_os/lib/libutee/tee_api_arith_mpi.c:316
    2340:	1c28      	adds	r0, r5, #0
    2342:	bf18      	it	ne
    2344:	2001      	movne	r0, #1
    2346:	b005      	add	sp, #20
    2348:	bd30      	pop	{r4, r5, pc}

0000234a <TEE_BigIntGetBitCount>:
TEE_BigIntGetBitCount():
/mnt/disk/raspbian-tee/optee_os/lib/libutee/tee_api_arith_mpi.c:319
    234a:	b530      	push	{r4, r5, lr}
/mnt/disk/raspbian-tee/optee_os/lib/libutee/tee_api_arith_mpi.c:323
    234c:	4601      	mov	r1, r0
/mnt/disk/raspbian-tee/optee_os/lib/libutee/tee_api_arith_mpi.c:319
    234e:	b085      	sub	sp, #20
/mnt/disk/raspbian-tee/optee_os/lib/libutee/tee_api_arith_mpi.c:323
    2350:	ac01      	add	r4, sp, #4
    2352:	4620      	mov	r0, r4
    2354:	f7ff fb2c 	bl	19b0 <get_const_mpi>
/mnt/disk/raspbian-tee/optee_os/lib/libutee/tee_api_arith_mpi.c:325
    2358:	4620      	mov	r0, r4
    235a:	f001 f817 	bl	338c <mbedtls_mpi_bitlen>
    235e:	4605      	mov	r5, r0
/mnt/disk/raspbian-tee/optee_os/lib/libutee/tee_api_arith_mpi.c:327
    2360:	4620      	mov	r0, r4
    2362:	f7ff fb5a 	bl	1a1a <put_mpi>
/mnt/disk/raspbian-tee/optee_os/lib/libutee/tee_api_arith_mpi.c:330
    2366:	4628      	mov	r0, r5
    2368:	b005      	add	sp, #20
    236a:	bd30      	pop	{r4, r5, pc}

0000236c <TEE_BigIntAdd>:
TEE_BigIntAdd():
/mnt/disk/raspbian-tee/optee_os/lib/libutee/tee_api_arith_mpi.c:412
    236c:	4b04      	ldr	r3, [pc, #16]	; (2380 <TEE_BigIntAdd+0x14>)
    236e:	b417      	push	{r0, r1, r2, r4}
/mnt/disk/raspbian-tee/optee_os/lib/libutee/tee_api_arith_mpi.c:413
    2370:	4c04      	ldr	r4, [pc, #16]	; (2384 <TEE_BigIntAdd+0x18>)
/mnt/disk/raspbian-tee/optee_os/lib/libutee/tee_api_arith_mpi.c:412
    2372:	447b      	add	r3, pc
/mnt/disk/raspbian-tee/optee_os/lib/libutee/tee_api_arith_mpi.c:413
    2374:	591b      	ldr	r3, [r3, r4]
    2376:	9301      	str	r3, [sp, #4]
/mnt/disk/raspbian-tee/optee_os/lib/libutee/tee_api_arith_mpi.c:414
    2378:	b003      	add	sp, #12
    237a:	f85d 4b04 	ldr.w	r4, [sp], #4
/mnt/disk/raspbian-tee/optee_os/lib/libutee/tee_api_arith_mpi.c:413
    237e:	e599      	b.n	1eb4 <bigint_binary>
    2380:	000055de 	.word	0x000055de
    2384:	0000001c 	.word	0x0000001c

00002388 <TEE_BigIntSub>:
TEE_BigIntSub():
/mnt/disk/raspbian-tee/optee_os/lib/libutee/tee_api_arith_mpi.c:418
    2388:	4b04      	ldr	r3, [pc, #16]	; (239c <TEE_BigIntSub+0x14>)
    238a:	b417      	push	{r0, r1, r2, r4}
/mnt/disk/raspbian-tee/optee_os/lib/libutee/tee_api_arith_mpi.c:419
    238c:	4c04      	ldr	r4, [pc, #16]	; (23a0 <TEE_BigIntSub+0x18>)
/mnt/disk/raspbian-tee/optee_os/lib/libutee/tee_api_arith_mpi.c:418
    238e:	447b      	add	r3, pc
/mnt/disk/raspbian-tee/optee_os/lib/libutee/tee_api_arith_mpi.c:419
    2390:	591b      	ldr	r3, [r3, r4]
    2392:	9301      	str	r3, [sp, #4]
/mnt/disk/raspbian-tee/optee_os/lib/libutee/tee_api_arith_mpi.c:420
    2394:	b003      	add	sp, #12
    2396:	f85d 4b04 	ldr.w	r4, [sp], #4
/mnt/disk/raspbian-tee/optee_os/lib/libutee/tee_api_arith_mpi.c:419
    239a:	e58b      	b.n	1eb4 <bigint_binary>
    239c:	000055c2 	.word	0x000055c2
    23a0:	00000024 	.word	0x00000024

000023a4 <TEE_BigIntNeg>:
TEE_BigIntNeg():
/mnt/disk/raspbian-tee/optee_os/lib/libutee/tee_api_arith_mpi.c:423
    23a4:	b570      	push	{r4, r5, r6, lr}
    23a6:	4605      	mov	r5, r0
    23a8:	460e      	mov	r6, r1
    23aa:	b086      	sub	sp, #24
/mnt/disk/raspbian-tee/optee_os/lib/libutee/tee_api_arith_mpi.c:426
    23ac:	4601      	mov	r1, r0
    23ae:	4668      	mov	r0, sp
    23b0:	466c      	mov	r4, sp
    23b2:	f7ff fd6d 	bl	1e90 <get_mpi>
/mnt/disk/raspbian-tee/optee_os/lib/libutee/tee_api_arith_mpi.c:428
    23b6:	42b5      	cmp	r5, r6
