
5dbac793-f574-4871-8ad3-04331ec17f24.elf:     file format elf32-littlearm
5dbac793-f574-4871-8ad3-04331ec17f24.elf
architecture: armv8-a, flags 0x00000150:
HAS_SYMS, DYNAMIC, D_PAGED
start address 0x00000020

Program Header:
0x70000001 off    0x0001920c vaddr 0x0000920c paddr 0x0000920c align 2**2
         filesz 0x00000648 memsz 0x00000648 flags r--
    LOAD off    0x00010000 vaddr 0x00000000 paddr 0x00000000 align 2**16
         filesz 0x00007e58 memsz 0x00007e58 flags r-x
    LOAD off    0x00017e58 vaddr 0x00007e58 paddr 0x00007e58 align 2**16
         filesz 0x00001c10 memsz 0x00001c10 flags r--
    LOAD off    0x0001a000 vaddr 0x0000a000 paddr 0x0000a000 align 2**16
         filesz 0x00000084 memsz 0x0000a0f8 flags rw-
 DYNAMIC off    0x00019994 vaddr 0x00009994 paddr 0x00009994 align 2**2
         filesz 0x00000088 memsz 0x00000088 flags rw-

Dynamic Section:
  HASH                 0x00009a50
  GNU_HASH             0x000091c4
  STRTAB               0x00009a4c
  SYMTAB               0x00009a1c
  STRSZ                0x00000001
  SYMENT               0x00000010
  DEBUG                0x00000000
  REL                  0x00009894
  RELSZ                0x00000100
  RELENT               0x00000008
  FLAGS_1              0x08000000
  RELCOUNT             0x00000013
private flags = 0x5000400: [Version5 EABI] [hard-float ABI]

Sections:
Idx Name          Size      VMA       LMA       File off  Algn
  0 .ta_head      00000020  00000000  00000000  00010000  2**3
                  CONTENTS, ALLOC, LOAD, DATA
  1 .text         00007e38  00000020  00000020  00010020  2**3
                  CONTENTS, ALLOC, LOAD, READONLY, CODE
  2 .rodata       00001270  00007e58  00007e58  00017e58  2**2
                  CONTENTS, ALLOC, LOAD, READONLY, DATA
  3 .ARM.extab    000000fc  000090c8  000090c8  000190c8  2**2
                  CONTENTS, ALLOC, LOAD, READONLY, DATA
  4 .gnu.hash     00000018  000091c4  000091c4  000191c4  2**2
                  CONTENTS, ALLOC, LOAD, READONLY, DATA
  5 .ARM.extab.text.__aeabi_ldivmod 0000000c  000091dc  000091dc  000191dc  2**2
                  CONTENTS, ALLOC, LOAD, READONLY, DATA
  6 .ARM.extab.text.__aeabi_uldivmod 0000000c  000091e8  000091e8  000191e8  2**2
                  CONTENTS, ALLOC, LOAD, READONLY, DATA
  7 .ARM.extab.text.utee_panic 0000000c  000091f4  000091f4  000191f4  2**2
                  CONTENTS, ALLOC, LOAD, READONLY, DATA
  8 .ARM.extab.text.unlikely 0000000c  00009200  00009200  00019200  2**2
                  CONTENTS, ALLOC, LOAD, READONLY, DATA
  9 .ARM.exidx    00000648  0000920c  0000920c  0001920c  2**2
                  CONTENTS, ALLOC, LOAD, READONLY, DATA
 10 .got          00000040  00009854  00009854  00019854  2**2
                  CONTENTS, ALLOC, LOAD, DATA
 11 .dynsym       00000030  00009a1c  00009a1c  00019a1c  2**2
                  CONTENTS, ALLOC, LOAD, READONLY, DATA
 12 .rel.got      00000068  0000992c  0000992c  0001992c  2**2
                  CONTENTS, ALLOC, LOAD, READONLY, DATA
 13 .dynamic      00000088  00009994  00009994  00019994  2**2
                  CONTENTS, ALLOC, LOAD, DATA
 14 .dynstr       00000001  00009a4c  00009a4c  00019a4c  2**0
                  CONTENTS, ALLOC, LOAD, READONLY, DATA
 15 .hash         00000018  00009a50  00009a50  00019a50  2**2
                  CONTENTS, ALLOC, LOAD, READONLY, DATA
 16 .data         00000084  0000a000  0000a000  0001a000  2**2
                  CONTENTS, ALLOC, LOAD, DATA
 17 .bss          0000a074  0000a084  0000a084  0001a084  2**2
                  ALLOC
 18 .debug_info   00011d76  00000000  00000000  0001a084  2**0
                  CONTENTS, READONLY, DEBUGGING, OCTETS
 19 .debug_abbrev 00002ea4  00000000  00000000  0002bdfa  2**0
                  CONTENTS, READONLY, DEBUGGING, OCTETS
 20 .debug_loclists 000005f1  00000000  00000000  0002ec9e  2**0
                  CONTENTS, READONLY, DEBUGGING, OCTETS
 21 .debug_aranges 00000570  00000000  00000000  0002f290  2**3
                  CONTENTS, READONLY, DEBUGGING, OCTETS
 22 .debug_rnglists 00000067  00000000  00000000  0002f800  2**0
                  CONTENTS, READONLY, DEBUGGING, OCTETS
 23 .debug_macro  0001270a  00000000  00000000  0002f867  2**0
                  CONTENTS, READONLY, DEBUGGING, OCTETS
 24 .debug_line   00005997  00000000  00000000  00041f71  2**0
                  CONTENTS, READONLY, DEBUGGING, OCTETS
 25 .debug_str    0001244e  00000000  00000000  00047908  2**0
                  CONTENTS, READONLY, DEBUGGING, OCTETS
 26 .comment      0000004f  00000000  00000000  00059d56  2**0
                  CONTENTS, READONLY
 27 .ARM.attributes 00000031  00000000  00000000  00059da5  2**0
                  CONTENTS, READONLY
 28 .debug_frame  00001f94  00000000  00000000  00059dd8  2**2
                  CONTENTS, READONLY, DEBUGGING, OCTETS
 29 .rel.dyn      00000098  00009894  00009894  00019894  2**2
                  CONTENTS, ALLOC, LOAD, READONLY, DATA
 30 .debug_loc    00010a49  00000000  00000000  0005bd6c  2**0
                  CONTENTS, READONLY, DEBUGGING, OCTETS
 31 .debug_ranges 000007c0  00000000  00000000  0006c7b8  2**3
                  CONTENTS, READONLY, DEBUGGING, OCTETS
SYMBOL TABLE:
00000000 l    d  .ta_head	00000000 .ta_head
00000020 l    d  .text	00000000 .text
00007e58 l    d  .rodata	00000000 .rodata
000090c8 l    d  .ARM.extab	00000000 .ARM.extab
000091c4 l    d  .gnu.hash	00000000 .gnu.hash
000091dc l    d  .ARM.extab.text.__aeabi_ldivmod	00000000 .ARM.extab.text.__aeabi_ldivmod
000091e8 l    d  .ARM.extab.text.__aeabi_uldivmod	00000000 .ARM.extab.text.__aeabi_uldivmod
000091f4 l    d  .ARM.extab.text.utee_panic	00000000 .ARM.extab.text.utee_panic
00009200 l    d  .ARM.extab.text.unlikely	00000000 .ARM.extab.text.unlikely
0000920c l    d  .ARM.exidx	00000000 .ARM.exidx
00009854 l    d  .got	00000000 .got
0000992c l    d  .rel.got	00000000 .rel.got
00009994 l    d  .dynamic	00000000 .dynamic
00009a1c l    d  .dynsym	00000000 .dynsym
00009a4c l    d  .dynstr	00000000 .dynstr
00009a50 l    d  .hash	00000000 .hash
0000a000 l    d  .data	00000000 .data
0000a084 l    d  .bss	00000000 .bss
00000000 l    d  .debug_info	00000000 .debug_info
00000000 l    d  .debug_abbrev	00000000 .debug_abbrev
00000000 l    d  .debug_loclists	00000000 .debug_loclists
00000000 l    d  .debug_aranges	00000000 .debug_aranges
00000000 l    d  .debug_rnglists	00000000 .debug_rnglists
00000000 l    d  .debug_macro	00000000 .debug_macro
00000000 l    d  .debug_line	00000000 .debug_line
00000000 l    d  .debug_str	00000000 .debug_str
00000000 l    d  .comment	00000000 .comment
00000000 l    d  .ARM.attributes	00000000 .ARM.attributes
00000000 l    d  .debug_frame	00000000 .debug_frame
00009894 l    d  .rel.dyn	00000000 .rel.dyn
00000000 l    d  .debug_loc	00000000 .debug_loc
00000000 l    d  .debug_ranges	00000000 .debug_ranges
00000000 l    df *ABS*	00000000 user_ta_header.c
00007e5c l     O .rodata	00000004 __compound_literal.4
00007e60 l     O .rodata	00000004 __compound_literal.3
00007e64 l     O .rodata	00000001 __compound_literal.2
00007e65 l     O .rodata	00000001 __compound_literal.1
00007e66 l     O .rodata	00000001 __compound_literal.0
00000000 l    df *ABS*	00000000 aes_ta.c
00008300 l     O .rodata	00000019 __func__.9
00008319 l     O .rodata	0000001a __func__.8
00008333 l     O .rodata	00000010 __func__.6
00008343 l     O .rodata	0000000f __func__.5
00008352 l     O .rodata	00000010 __func__.4
00008362 l     O .rodata	0000000f __func__.3
00008371 l     O .rodata	0000000c __func__.2
0000837d l     O .rodata	0000000d __func__.1
0000838a l     O .rodata	0000000e __func__.0
00008398 l     O .rodata	0000001b __func__.7
00000000 l    df *ABS*	00000000 trace.c
00000474 l     F .text	0000004e append
00008461 l     O .rodata	00000005 lvl_strs.5561
00008466 l     O .rodata	0000000a __func__.5615
00000000 l    df *ABS*	00000000 snprintk.c
000084aa l     O .rodata	00000011 HEXDIGITS
000084bb l     O .rodata	00000011 hexdigits
00000000 l    df *ABS*	00000000 arm32_aeabi_ldivmod_a32.o
00000000 l    df *ABS*	00000000 trace_ext.c
00000000 l    df *ABS*	00000000 tee_api.c
00008504 l     O .rodata	0000000b __func__.6728
0000a084 l     O .bss	00000004 tee_api_instance_data
00000000 l    df *ABS*	00000000 tee_api_objects.c
00000000 l    df *ABS*	00000000 tee_api_operations.c
000019c8 l     F .text	00000160 tee_buffer_update
00000000 l    df *ABS*	00000000 user_ta_entry.c
00002f90 l     F .text	0000001c ta_header_get_session
00002fac l     F .text	00000068 ta_header_remove_session
0000a088 l     O .bss	00000001 init_done
0000a060 l     O .data	00000008 ta_sessions
00000000 l    df *ABS*	00000000 utee_syscalls_a32.o
00000000 l    df *ABS*	00000000 gprof_a32.o
00000000 l    df *ABS*	00000000 tee_api_arith_mpi.c
00004674 l     F .text	00000020 api_panic
00003660 l     F .text	00000020 mpi_panic
00003680 l     F .text	00000044 get_const_mpi
000036c4 l     F .text	00000010 mpi_is_odd
000036d4 l     F .text	00000016 rng_read
000036ea l     F .text	0000001c put_mpi
00003706 l     F .text	0000045a mpi_egcd
00003b60 l     F .text	00000024 get_mpi
00003b84 l     F .text	00000088 bigint_binary
0000a0b0 l     O .bss	00002000 data.6728
00003e12 l     F .text	000000ea bigint_binary_mod
00008520 l     O .rodata	0000000e __func__.6757
0000852e l     O .rodata	00000009 __func__.6996
00008537 l     O .rodata	0000000e __func__.6856
00008545 l     O .rodata	00000012 __func__.6729
00008557 l     O .rodata	0000000f __func__.6767
00008566 l     O .rodata	0000001f __func__.6785
00008585 l     O .rodata	00000019 __func__.6792
0000859e l     O .rodata	00000012 __func__.6867
000085b0 l     O .rodata	00000015 __func__.6822
000085c5 l     O .rodata	0000000e __func__.6894
000085d3 l     O .rodata	0000000e __func__.6922
000085e1 l     O .rodata	0000000e __func__.6928
000085ef l     O .rodata	00000011 __func__.6957
00008600 l     O .rodata	00000018 __func__.6973
00008618 l     O .rodata	0000001d __func__.7053
00008635 l     O .rodata	00000019 __func__.7103
0000864e l     O .rodata	00000015 __func__.7117
00000000 l    df *ABS*	00000000 bignum.c
00004694 l     F .text	00000038 mpi_get_digit
000046cc l     F .text	0000005e mpi_sub_hlp
0000472a l     F .text	00000492 mpi_mul_hlp
00004bbc l     F .text	00000048 mbedtls_mpi_mod_int.part.1
00005c5e l     F .text	0000006c mpi_write_hlp
00005e04 l     F .text	00000050 mpi_check_small_factors
000064f0 l     F .text	00000216 mpi_miller_rabin
00007e70 l     O .rodata	000002a0 small_prime
00008110 l     O .rodata	00000024 gcd_pairs
00000000 l    df *ABS*	00000000 bget_malloc.c
00006e94 l     F .text	00000030 raw_malloc_return_hook.isra.3
00006ec4 l     F .text	000000d8 create_free_block.constprop.11
000070d0 l     F .text	00000038 raw_malloc.constprop.15
00008b77 l     O .rodata	00000012 __func__.5854
00008b89 l     O .rodata	00000005 __func__.5710
00008b8e l     O .rodata	00000006 __func__.5725
00008b94 l     O .rodata	00000005 __func__.5742
00008b99 l     O .rodata	00000006 __func__.5734
00008b9f l     O .rodata	00000006 __func__.5751
00008ba5 l     O .rodata	00000007 __func__.5761
00008bac l     O .rodata	0000000d __func__.5890
00008bb9 l     O .rodata	0000000c __func__.5864
00008bc5 l     O .rodata	0000000b __func__.5875
00008bd0 l     O .rodata	00000010 __func__.5942
00008be0 l     O .rodata	0000000e __func__.5896
00008bee l     O .rodata	00000013 __func__.5802
0000c0b4 l     O .bss	00000038 mstats
0000c0ec l     O .bss	00000004 malloc_pool_len
0000c0f0 l     O .bss	00000004 malloc_pool
0000a068 l     O .data	0000001c malloc_poolset
00000000 l    df *ABS*	00000000 mempool.c
00009009 l     O .rodata	00000013 __func__.5618
0000901c l     O .rodata	0000000e __func__.5627
00000000 l    df *ABS*	00000000 assert.c
00000000 l    df *ABS*	00000000 stack_check.c
00000000 l    df *ABS*	00000000 aeabi_unwind.c
00000000 l    df *ABS*	00000000 memchr.c
00000000 l    df *ABS*	00000000 strlen.c
00000000 l    df *ABS*	00000000 arm32_aeabi_ldivmod.c
00000000 l    df *ABS*	00000000 tee_api_panic.c
00000000 l    df *ABS*	00000000 snprintf.c
00000000 l    df *ABS*	00000000 memcmp.c
00000000 l    df *ABS*	00000000 memcpy.c
00000000 l    df *ABS*	00000000 memmove.c
00000000 l    df *ABS*	00000000 memset.c
00000000 l    df *ABS*	00000000 buf_compare_ct.c
00000000 l    df *ABS*	00000000 
00009994 l     O *ABS*	00000000 _DYNAMIC
00009854 l     O *ABS*	00000000 _GLOBAL_OFFSET_TABLE_
00007e18 l     F .text	00000010 __utee_cache_operation_from_thumb
00007e28 l     F .text	00000010 __utee_log_from_thumb
00007e38 l     F .text	00000010 __utee_panic_from_thumb
00007e48 l     F .text	00000010 __utee_check_access_rights_from_thumb
00000f34 g     F .text	00000022 putchar
000014a4 g     F .text	00000070 TEE_PopulateTransientObject
00004586 g     F .text	00000004 TEE_BigIntConvertToFMM
000042c8 g     F .text	00000008 TEE_BigIntSquareMod
00003efc g     F .text	000000f4 TEE_BigIntShiftRight
00003538 g     F .text	00000018 utee_storage_obj_create
00004c9c g     F .text	000000a8 mbedtls_mpi_grow
00007c58 g     F .text	000000ec __l_divmod
000031b8 g     F .text	00000014 utee_return
000023d0 g     F .text	00000030 TEE_DigestUpdate
00001220 g     F .text	00000004 TEE_Realloc
00002238 g     F .text	000000f4 TEE_SetOperationKey2
00000ed6 g     F .text	0000003a printf
000031cc g     F .text	00000014 utee_log
00001514 g     F .text	00000022 TEE_InitRefAttribute
0000103e g     F .text	00000066 TEE_InvokeTACommand
00004c16 g     F .text	00000026 mbedtls_mpi_init_mempool
00005110 g     F .text	00000046 mbedtls_mpi_write_binary
000029b0 g     F .text	00000118 TEE_AEEncryptFinal
00000e64 g     F .text	0000000e vsnprintk
0000559a g     F .text	00000030 mbedtls_mpi_sub_int
00007da8 g     F .text	00000034 memmove
00007d48 g     F .text	0000001e snprintf
00003dec g     F .text	00000026 TEE_BigIntCmpS32
0000a058 g     O .data	00000004 __stack_chk_guard
00001536 g     F .text	00000022 TEE_InitValueAttribute
00004d44 g     F .text	000000cc mbedtls_mpi_shrink
00007bb2 g     F .text	00000002 __aeabi_unwind_cpp_pr0
0000403c g     F .text	0000001c TEE_BigIntAdd
0000320c g     F .text	00000014 utee_get_property_name_to_index
00007e68 g     O .rodata	00000004 ta_heap_size
00001474 g     F .text	00000030 TEE_ResetTransientObject
000032f0 g     F .text	00000018 utee_cryp_state_alloc
000034c0 g     F .text	00000018 utee_authenc_enc_final
000056c4 g     F .text	0000012c mbedtls_mpi_read_string
00002470 g     F .text	00000056 TEE_CipherInit
00004074 g     F .text	00000058 TEE_BigIntNeg
00000020 g       .text	00000000 __text_start
00001814 g     F .text	0000002c TEE_StartPersistentObjectEnumerator
000051ee g     F .text	00000078 mbedtls_mpi_shift_r
00007a24 g     F .text	0000004c malloc_buffer_overlaps_heap
00004290 g     F .text	0000001c TEE_BigIntSubMod
00006a32 g     F .text	00000136 mbedtls_mpi_gen_prime
00004fbe g     F .text	00000020 mbedtls_mpi_get_bit
000050aa g     F .text	00000066 mbedtls_mpi_read_binary
0000282c g     F .text	00000070 TEE_AEInit
000004f4 g     F .text	0000013c trace_printf
00005e7c g     F .text	000000c4 mbedtls_mpi_montmul
00007d92 g     F .text	00000016 memcpy
0000331c g     F .text	00000014 utee_cryp_state_free
0000458a g     F .text	0000004a TEE_BigIntConvertFromFMM
00007d44 g     F .text	00000004 TEE_Panic
00000ea4 g     F .text	00000018 __aeabi_uldivmod
0000232c g     F .text	000000a4 TEE_CopyOperation
00000f10 g     F .text	00000024 puts
000045d4 g     F .text	000000a0 TEE_BigIntComputeFMM
000074ec g     F .text	00000020 malloc_get_stats
0000339c g     F .text	00000018 utee_cipher_final
000011c0 g     F .text	00000016 TEE_GetREETime
000017b4 g     F .text	00000038 TEE_AllocatePersistentObjectEnumerator
0000a004 g     O .data	00000054 ta_props
00002bd0 g     F .text	000000bc TEE_AsymmetricEncrypt
0000750c g     F .text	00000002 malloc
00003404 g     F .text	00000014 utee_cryp_obj_close
000015f0 g     F .text	00000048 TEE_GenerateKey
00007d66 g     F .text	0000000e vsnprintf
0000a000 g     O .data	00000004 trace_level
00003db8 g     F .text	00000034 TEE_BigIntCmp
00007e58 g     O .rodata	00000004 ta_num_props
0000735c g     F .text	0000007c bgetr
000034a8 g     F .text	00000018 utee_authenc_update_payload
00007b44 g     F .text	0000002e mempool_free
000024c6 g     F .text	000000e6 TEE_CipherUpdate
00003cd0 g     F .text	00000058 TEE_BigIntConvertToOctetString
000020b6 g     F .text	000000b6 TEE_GetOperationInfoMultiple
00003640 g     F .text	00000014 utee_cache_operation
0000505c g     F .text	00000042 mbedtls_mpi_bitlen
0000347c g     F .text	00000018 utee_authenc_init
00003ff0 g     F .text	0000002a TEE_BigIntGetBit
00007e6c g     O .rodata	00000003 trace_ext_prefix
00007108 g     F .text	0000005c bgetz
00001110 g     F .text	0000000c TEE_GetInstanceData
0000113e g     F .text	0000001e TEE_Wait
000035f0 g     F .text	00000014 utee_storage_obj_write
000055ca g     F .text	000000dc mbedtls_mpi_mul_mpi
00007bb6 g     F .text	00000002 __aeabi_unwind_cpp_pr2
0000122e g     F .text	00000006 TEE_CacheFlush
00000024 g     F .text	00000002 TA_DestroyEntryPoint
00004c04 g     F .text	00000012 mbedtls_mpi_init
0000502e g     F .text	0000002e mbedtls_mpi_lsb
00007b74 g     F .text	00000028 _assert_log
00004582 g     F .text	00000004 TEE_BigIntFMMContextSizeInU32
000027c8 g     F .text	00000064 TEE_MACCompareFinal
0000176e g     F .text	00000046 TEE_RenamePersistentObject
00002400 g     F .text	00000070 TEE_DigestDoFinal
00003c0c g     F .text	00000044 _TEE_MathAPI_Init
000054d6 g     F .text	00000048 mbedtls_mpi_add_mpi
000035c8 g     F .text	00000014 utee_storage_next_enum
00007bb0 g     F .text	00000002 __stack_chk_fail
0000c0f4 g     O .bss	00008000 ta_heap
000042d0 g     F .text	000000a4 TEE_BigIntInvMod
0000006c g     F .text	00000044 TA_CloseSessionEntryPoint
00002c8c g     F .text	000000c0 TEE_AsymmetricDecrypt
00001638 g     F .text	00000064 TEE_OpenPersistentObject
0000551e g     F .text	0000004c mbedtls_mpi_sub_mpi
000031e0 g     F .text	00000014 __utee_panic
00003308 g     F .text	00000014 utee_cryp_state_copy
000000b0 g     F .text	000003c4 TA_InvokeCommandEntryPoint
00007ab4 g     F .text	0000006c mempool_alloc
000033f0 g     F .text	00000014 utee_cryp_obj_alloc
000032dc g     F .text	00000014 utee_set_ta_time
000033dc g     F .text	00000014 utee_cryp_obj_get_attr
00007b20 g     F .text	00000024 mempool_calloc
000015c0 g     F .text	00000030 TEE_CopyObjectAttributes
00007520 g     F .text	00000048 calloc
000011d6 g     F .text	0000004a TEE_Malloc
000032a0 g     F .text	00000014 utee_mask_cancellation
00003418 g     F .text	00000014 utee_cryp_obj_reset
000010f8 g     F .text	0000000a TEE_CheckMemoryAccessRights
000140f8 g       .bss	00000000 __gprof_buf_end
00007be4 g     F .text	00000074 __ul_divmod
00004f86 g     F .text	00000038 mbedtls_mpi_lset
00001894 g     F .text	00000040 TEE_ReadObjectData
0000130c g     F .text	00000070 TEE_GetObjectBufferAttribute
00000026 g     F .text	00000046 TA_OpenSessionEntryPoint
000035b4 g     F .text	00000014 utee_storage_start_enum
00001b28 g     F .text	00000026 TEE_FreeOperation
00003564 g     F .text	00000014 utee_storage_obj_rename
0000a08c g     O .bss	00000004 ta_param_types
00005b92 g     F .text	0000002e mbedtls_mpi_div_int
0000123c g     F .text	0000003a __utee_from_attr
00004544 g     F .text	00000030 TEE_BigIntIsProbablePrime
000056a6 g     F .text	0000001e mbedtls_mpi_mul_int
00001734 g     F .text	00000024 TEE_CloseAndDeletePersistentObject1
00005f64 g     F .text	00000446 mbedtls_mpi_exp_mod
00004e94 g     F .text	0000006c mbedtls_mpi_safe_cond_assign
000031f4 g     F .text	00000018 utee_get_property
00002ac8 g     F .text	00000108 TEE_AEDecryptFinal
00003c50 g     F .text	00000040 TEE_BigIntInit
0000111c g     F .text	00000004 TEE_MemMove
00003c90 g     F .text	00000040 TEE_BigIntConvertFromOctetString
0000a05c g     O .data	00000004 _ref__utee_mcount
00005266 g     F .text	0000006e mbedtls_mpi_cmp_abs
000026bc g     F .text	00000056 TEE_MACInit
00002d4c g     F .text	000000b4 TEE_AsymmetricSignDigest
00007bb8 g     F .text	0000001c memchr
000010c0 g     F .text	0000001c TEE_UnmaskCancellation
00001276 g     F .text	0000002a TEE_GetObjectInfo
00006b68 g     F .text	0000032c mbedtls_mpi_self_test
00003550 g     F .text	00000014 utee_storage_obj_del
000028e2 g     F .text	000000ce TEE_AEUpdate
00003618 g     F .text	00000014 utee_storage_obj_seek
00001444 g     F .text	00000030 TEE_FreeTransientObject
0000536a g     F .text	00000030 mbedtls_mpi_cmp_int
00003344 g     F .text	00000014 utee_hash_update
00002f78 g     F .text	00000018 rand
00003654  w    F .text	0000000c __utee_mcount
00002094 g     F .text	00000022 TEE_GetOperationInfo
00004224 g     F .text	00000050 TEE_BigIntMod
00005c24 g     F .text	0000003a mbedtls_mpi_mod_int
00003238 g     F .text	00000014 utee_close_ta_session
00004176 g     F .text	000000ae TEE_BigIntDiv
00004e10 g     F .text	00000056 mbedtls_mpi_copy
000074d8 g     F .text	00000014 malloc_reset_stats
00003384 g     F .text	00000018 utee_cipher_update
000012c0 g     F .text	00000020 TEE_RestrictObjectUsage1
00007568 g     F .text	00000038 realloc
00004e66 g     F .text	0000002e mbedtls_mpi_swap
00007a70 g     F .text	00000044 mempool_alloc_pool
00003508 g     F .text	00000018 utee_asymm_verify
000040cc g     F .text	000000a4 TEE_BigIntMul
0000216c g     F .text	00000040 TEE_ResetOperation
00005156 g     F .text	00000098 mbedtls_mpi_shift_l
000052d4 g     F .text	00000096 mbedtls_mpi_cmp_mpi
00001124 g     F .text	00000004 TEE_MemFill
00007d74 g     F .text	0000001e memcmp
00007850 g     F .text	000000f8 malloc_add_pool
00002712 g     F .text	0000004e TEE_MACUpdate
000004e0 g     F .text	00000014 trace_get_level
0000539a g     F .text	000000bc mbedtls_mpi_add_abs
00003468 g     F .text	00000014 utee_cryp_random_number_generate
000012e0 g     F .text	0000002c TEE_RestrictObjectUsage
0000457a g     F .text	00000008 TEE_BigIntFMMSizeInU32
00004574 g     F .text	00000004 TEE_BigIntInitFMM
000034f0 g     F .text	00000018 utee_asymm_operate
00001400 g     F .text	00000014 TEE_CloseObject
00003014 g     F .text	00000190 __utee_entry
00007e58 g       .text	00000000 __text_end
00004374 g     F .text	0000007c TEE_BigIntRelativePrime
00005bc0 g     F .text	00000064 mbedtls_mpi_mod_mpi
000073d8 g     F .text	0000009c bpool
000010a4 g     F .text	0000001c TEE_GetCancellationFlag
000063aa g     F .text	00000114 mbedtls_mpi_gcd
00001198 g     F .text	00000028 TEE_SetTAPersistentTime
00007ddc g     F .text	00000010 memset
0000115c g     F .text	0000003c TEE_GetTAPersistentTime
00000630 g     F .text	00000100 dhex_dump
0000169c g     F .text	00000098 TEE_CreatePersistentObject
000010dc g     F .text	0000001c TEE_MaskCancellation
0000289c g     F .text	00000046 TEE_AEUpdateAAD
000035dc g     F .text	00000014 utee_storage_obj_read
00001914 g     F .text	00000038 TEE_TruncateObjectData
0000342c g     F .text	00000014 utee_cryp_obj_populate
000012a0 g     F .text	00000020 TEE_GetObjectInfo1
000004c2 g     F .text	0000001e trace_set_level
000033b4 g     F .text	00000014 utee_cryp_obj_get_info
0000137c g     F .text	00000084 TEE_GetObjectValueAttribute
000021ac g     F .text	0000008c TEE_SetOperationKey
00003578 g     F .text	00000014 utee_storage_alloc_enum
000035a0 g     F .text	00000014 utee_storage_reset_enum
00003604 g     F .text	00000014 utee_storage_obj_trunc
00003d60 g     F .text	00000058 TEE_BigIntConvertToS32
00004058 g     F .text	0000001c TEE_BigIntSub
00003264 g     F .text	00000014 utee_get_cancellation_flag
00003330 g     F .text	00000014 utee_hash_init
00007bac g     F .text	00000004 tahead_get_trace_level
00000f58 g     F .text	00000050 __utee_from_param
0000194c g     F .text	0000007c TEE_SeekObjectData
00000fa8 g     F .text	0000003e __utee_to_param
00005f40 g     F .text	00000024 mbedtls_mpi_montred
000075a0 g     F .text	000002b0 memalign
000025ac g     F .text	00000110 TEE_CipherDoFinal
00003d28 g     F .text	00000038 TEE_BigIntConvertFromS32
0000556a g     F .text	00000030 mbedtls_mpi_add_int
000033c8 g     F .text	00000014 utee_cryp_obj_restrict_usage
00007948 g     F .text	000000dc malloc_buffer_is_within_alloced
00003440 g     F .text	00000014 utee_cryp_obj_copy
00004578 g     F .text	00000002 TEE_BigIntInitFMMContext
00003454 g     F .text	00000014 utee_cryp_derive_key
000034d8 g     F .text	00000018 utee_authenc_dec_final
000018d4 g     F .text	00000040 TEE_WriteObjectData
00001800 g     F .text	00000014 TEE_ResetPersistentObjectEnumerator
00004170 g     F .text	00000006 TEE_BigIntSquare
00000020 g     F .text	00000004 TA_CreateEntryPoint
00005e54 g     F .text	00000028 mbedtls_mpi_montg_init
00000e72 g     F .text	0000001a snprintk
0000401a g     F .text	00000022 TEE_BigIntGetBitCount
000042ac g     F .text	0000001c TEE_BigIntMulMod
00006706 g     F .text	000002d0 mbedtls_mpi_inv_mod
00002eac g     F .text	000000ba TEE_DeriveKey
0000a090 g     O .bss	00000020 ta_params
000057f0 g     F .text	000003a2 mbedtls_mpi_div_mpi
0000509e g     F .text	0000000c mbedtls_mpi_size
00006f9c g     F .text	00000134 bget
00001414 g     F .text	00000030 TEE_AllocateTransientObject
00004fde g     F .text	00000050 mbedtls_mpi_set_bit
00004c3c g     F .text	00000012 mbedtls_mpi_init_static
00001224 g     F .text	00000004 TEE_Free
000069d6 g     F .text	0000005c mbedtls_mpi_is_prime
00001234 g     F .text	00000006 TEE_CacheInvalidate
00003370 g     F .text	00000014 utee_cipher_init
00007b9c g     F .text	00000010 _assert_break
00004274 g     F .text	0000001c TEE_BigIntAddMod
0000358c g     F .text	00000014 utee_storage_free_enum
00003494 g     F .text	00000014 utee_authenc_update_aad
00001b4e g     F .text	00000546 TEE_AllocateOperation
00002f66 g     F .text	00000012 TEE_GenerateRandom
00001120 g     F .text	00000004 TEE_MemCompare
00000730 g     F .text	00000734 __vsnprintf
000017ec g     F .text	00000014 TEE_FreePersistentObjectEnumerator
000031a4 g     F .text	00000014 utee_panic
00000fe6 g     F .text	00000044 TEE_OpenTASession
00000ebc g     F .text	00000014 trace_ext_puts
00000ed0 g     F .text	00000006 trace_ext_get_thread_id
00001758 g     F .text	00000016 TEE_CloseAndDeletePersistentObject
00004c4e g     F .text	0000004e mbedtls_mpi_free
00001228 g     F .text	00000006 TEE_CacheClean
00003220 g     F .text	00000018 utee_open_ta_session
00007dec g     F .text	0000002c buf_compare_ct
00004f00 g     F .text	00000086 mbedtls_mpi_safe_cond_swap
00001558 g     F .text	00000068 TEE_CopyObjectAttributes1
00003358 g     F .text	00000018 utee_hash_final
00007bd4 g     F .text	00000010 strlen
000043f0 g     F .text	00000154 TEE_BigIntComputeExtendedGcd
00007bb4 g     F .text	00000002 __aeabi_unwind_cpp_pr1
00003520 g     F .text	00000018 utee_storage_obj_open
0000324c g     F .text	00000018 utee_invoke_ta_command
000032b4 g     F .text	00000014 utee_wait
00001128 g     F .text	00000016 TEE_GetSystemTime
00000000 g     O .ta_head	00000020 ta_head
00007164 g     F .text	000001f8 brel
00005456 g     F .text	00000080 mbedtls_mpi_sub_abs
000032c8 g     F .text	00000014 utee_get_time
000064be g     F .text	00000032 mbedtls_mpi_fill_random
00001102 g     F .text	0000000e TEE_SetInstanceData
0000328c g     F .text	00000014 utee_unmask_cancellation
00000e8c g     F .text	00000018 __aeabi_ldivmod
00003278 g     F .text	00000014 utee_check_access_rights
00005cca g     F .text	0000013a mbedtls_mpi_write_string
00001840 g     F .text	00000054 TEE_GetNextPersistentObject
0000362c g     F .text	00000014 utee_cryp_obj_generate_key
0000102a g     F .text	00000014 TEE_CloseTASession
00002e00 g     F .text	000000ac TEE_AsymmetricVerifyDigest
000140f8 g       .bss	00000000 __gprof_buf_start
0000750e g     F .text	00000012 free
00007474 g     F .text	00000064 bstats
00002760 g     F .text	00000068 TEE_MACComputeFinal
0000c0b0 g     O .bss	00000004 mbedtls_mpi_mempool



Disassembly of section .text:

00000020 <TA_CreateEntryPoint>:
TA_CreateEntryPoint():
/workspace/benchmark/aes/ta/aes_ta.c:369
      20:	2000      	movs	r0, #0
      22:	4770      	bx	lr

00000024 <TA_DestroyEntryPoint>:
TA_DestroyEntryPoint():
/workspace/benchmark/aes/ta/aes_ta.c:374
      24:	4770      	bx	lr

00000026 <TA_OpenSessionEntryPoint>:
TA_OpenSessionEntryPoint():
/workspace/benchmark/aes/ta/aes_ta.c:379
      26:	b537      	push	{r0, r1, r2, r4, r5, lr}
/workspace/benchmark/aes/ta/aes_ta.c:387
      28:	2100      	movs	r1, #0
      2a:	2014      	movs	r0, #20
/workspace/benchmark/aes/ta/aes_ta.c:379
      2c:	4615      	mov	r5, r2
/workspace/benchmark/aes/ta/aes_ta.c:387
      2e:	f001 f8d2 	bl	11d6 <TEE_Malloc>
/workspace/benchmark/aes/ta/aes_ta.c:388
      32:	b190      	cbz	r0, 5a <TA_OpenSessionEntryPoint+0x34>
/workspace/benchmark/aes/ta/aes_ta.c:391
      34:	2400      	movs	r4, #0
/workspace/benchmark/aes/ta/aes_ta.c:395
      36:	4b0b      	ldr	r3, [pc, #44]	; (64 <TA_OpenSessionEntryPoint+0x3e>)
/workspace/benchmark/aes/ta/aes_ta.c:391
      38:	6104      	str	r4, [r0, #16]
/workspace/benchmark/aes/ta/aes_ta.c:395
      3a:	2203      	movs	r2, #3
/workspace/benchmark/aes/ta/aes_ta.c:392
      3c:	60c4      	str	r4, [r0, #12]
/workspace/benchmark/aes/ta/aes_ta.c:395
      3e:	447b      	add	r3, pc
/workspace/benchmark/aes/ta/aes_ta.c:394
      40:	6028      	str	r0, [r5, #0]
/workspace/benchmark/aes/ta/aes_ta.c:395
      42:	f240 118b 	movw	r1, #395	; 0x18b
      46:	9001      	str	r0, [sp, #4]
      48:	4807      	ldr	r0, [pc, #28]	; (68 <TA_OpenSessionEntryPoint+0x42>)
      4a:	9300      	str	r3, [sp, #0]
      4c:	2301      	movs	r3, #1
      4e:	4478      	add	r0, pc
      50:	f000 fa50 	bl	4f4 <trace_printf>
/workspace/benchmark/aes/ta/aes_ta.c:397
      54:	4620      	mov	r0, r4
/workspace/benchmark/aes/ta/aes_ta.c:398
      56:	b003      	add	sp, #12
      58:	bd30      	pop	{r4, r5, pc}
/workspace/benchmark/aes/ta/aes_ta.c:389
      5a:	4801      	ldr	r0, [pc, #4]	; (60 <TA_OpenSessionEntryPoint+0x3a>)
      5c:	e7fb      	b.n	56 <TA_OpenSessionEntryPoint+0x30>
      5e:	bf00      	nop
      60:	ffff000c 	.word	0xffff000c
      64:	000080f2 	.word	0x000080f2
      68:	000082ae 	.word	0x000082ae

0000006c <TA_CloseSessionEntryPoint>:
TA_CloseSessionEntryPoint():
/workspace/benchmark/aes/ta/aes_ta.c:401
      6c:	b513      	push	{r0, r1, r4, lr}
      6e:	4604      	mov	r4, r0
/workspace/benchmark/aes/ta/aes_ta.c:405
      70:	4b0d      	ldr	r3, [pc, #52]	; (a8 <TA_CloseSessionEntryPoint+0x3c>)
      72:	9001      	str	r0, [sp, #4]
      74:	2203      	movs	r2, #3
      76:	480d      	ldr	r0, [pc, #52]	; (ac <TA_CloseSessionEntryPoint+0x40>)
      78:	447b      	add	r3, pc
      7a:	f240 1195 	movw	r1, #405	; 0x195
      7e:	9300      	str	r3, [sp, #0]
      80:	4478      	add	r0, pc
      82:	2301      	movs	r3, #1
      84:	3019      	adds	r0, #25
      86:	f000 fa35 	bl	4f4 <trace_printf>
/workspace/benchmark/aes/ta/aes_ta.c:409
      8a:	6920      	ldr	r0, [r4, #16]
      8c:	b108      	cbz	r0, 92 <TA_CloseSessionEntryPoint+0x26>
/workspace/benchmark/aes/ta/aes_ta.c:410
      8e:	f001 f9d9 	bl	1444 <TEE_FreeTransientObject>
/workspace/benchmark/aes/ta/aes_ta.c:411
      92:	68e0      	ldr	r0, [r4, #12]
      94:	b108      	cbz	r0, 9a <TA_CloseSessionEntryPoint+0x2e>
/workspace/benchmark/aes/ta/aes_ta.c:412
      96:	f001 fd47 	bl	1b28 <TEE_FreeOperation>
/workspace/benchmark/aes/ta/aes_ta.c:413
      9a:	4620      	mov	r0, r4
/workspace/benchmark/aes/ta/aes_ta.c:414
      9c:	b002      	add	sp, #8
      9e:	e8bd 4010 	ldmia.w	sp!, {r4, lr}
/workspace/benchmark/aes/ta/aes_ta.c:413
      a2:	f001 b8bf 	b.w	1224 <TEE_Free>
      a6:	bf00      	nop
      a8:	000080d4 	.word	0x000080d4
      ac:	0000827c 	.word	0x0000827c

000000b0 <TA_InvokeCommandEntryPoint>:
TA_InvokeCommandEntryPoint():
/workspace/benchmark/aes/ta/aes_ta.c:420
      b0:	e92d 41f0 	stmdb	sp!, {r4, r5, r6, r7, r8, lr}
      b4:	4690      	mov	r8, r2
      b6:	4acf      	ldr	r2, [pc, #828]	; (3f4 <TA_InvokeCommandEntryPoint+0x344>)
      b8:	461c      	mov	r4, r3
      ba:	4bcf      	ldr	r3, [pc, #828]	; (3f8 <TA_InvokeCommandEntryPoint+0x348>)
      bc:	447a      	add	r2, pc
      be:	b088      	sub	sp, #32
      c0:	4605      	mov	r5, r0
      c2:	460f      	mov	r7, r1
      c4:	58d3      	ldr	r3, [r2, r3]
      c6:	681b      	ldr	r3, [r3, #0]
      c8:	9307      	str	r3, [sp, #28]
      ca:	f04f 0300 	mov.w	r3, #0
/workspace/benchmark/aes/ta/aes_ta.c:421
      ce:	2903      	cmp	r1, #3
      d0:	f200 816f 	bhi.w	3b2 <TA_InvokeCommandEntryPoint+0x302>
      d4:	e8df f011 	tbh	[pc, r1, lsl #1]
      d8:	00d80004 	.word	0x00d80004
      dc:	0142012a 	.word	0x0142012a
alloc_resources():
/workspace/benchmark/aes/ta/aes_ta.c:124
      e0:	4ec6      	ldr	r6, [pc, #792]	; (3fc <TA_InvokeCommandEntryPoint+0x34c>)
      e2:	2203      	movs	r2, #3
      e4:	4bc6      	ldr	r3, [pc, #792]	; (400 <TA_InvokeCommandEntryPoint+0x350>)
      e6:	217c      	movs	r1, #124	; 0x7c
      e8:	447e      	add	r6, pc
      ea:	9001      	str	r0, [sp, #4]
      ec:	447b      	add	r3, pc
      ee:	f106 0033 	add.w	r0, r6, #51	; 0x33
      f2:	9300      	str	r3, [sp, #0]
      f4:	2301      	movs	r3, #1
      f6:	f000 f9fd 	bl	4f4 <trace_printf>
/workspace/benchmark/aes/ta/aes_ta.c:128
      fa:	f240 1311 	movw	r3, #273	; 0x111
      fe:	4598      	cmp	r8, r3
     100:	d111      	bne.n	126 <TA_InvokeCommandEntryPoint+0x76>
/workspace/benchmark/aes/ta/aes_ta.c:131
     102:	6823      	ldr	r3, [r4, #0]
ta2tee_algo_id():
/workspace/benchmark/aes/ta/aes_ta.c:59
     104:	2b01      	cmp	r3, #1
     106:	d01c      	beq.n	142 <TA_InvokeCommandEntryPoint+0x92>
     108:	2b02      	cmp	r3, #2
     10a:	d031      	beq.n	170 <TA_InvokeCommandEntryPoint+0xc0>
     10c:	2b00      	cmp	r3, #0
     10e:	d031      	beq.n	174 <TA_InvokeCommandEntryPoint+0xc4>
/workspace/benchmark/aes/ta/aes_ta.c:70
     110:	9301      	str	r3, [sp, #4]
     112:	2146      	movs	r1, #70	; 0x46
     114:	4bbb      	ldr	r3, [pc, #748]	; (404 <TA_InvokeCommandEntryPoint+0x354>)
     116:	f106 0043 	add.w	r0, r6, #67	; 0x43
     11a:	447b      	add	r3, pc
     11c:	9300      	str	r3, [sp, #0]
     11e:	2301      	movs	r3, #1
     120:	461a      	mov	r2, r3
ta2tee_key_size():
/workspace/benchmark/aes/ta/aes_ta.c:82
     122:	f000 f9e7 	bl	4f4 <trace_printf>
/workspace/benchmark/aes/ta/aes_ta.c:83
     126:	4cab      	ldr	r4, [pc, #684]	; (3d4 <TA_InvokeCommandEntryPoint+0x324>)
TA_InvokeCommandEntryPoint():
/workspace/benchmark/aes/ta/aes_ta.c:420
     128:	4ab7      	ldr	r2, [pc, #732]	; (408 <TA_InvokeCommandEntryPoint+0x358>)
/workspace/benchmark/aes/ta/aes_ta.c:434
     12a:	4bb3      	ldr	r3, [pc, #716]	; (3f8 <TA_InvokeCommandEntryPoint+0x348>)
/workspace/benchmark/aes/ta/aes_ta.c:420
     12c:	447a      	add	r2, pc
/workspace/benchmark/aes/ta/aes_ta.c:434
     12e:	58d3      	ldr	r3, [r2, r3]
     130:	681a      	ldr	r2, [r3, #0]
     132:	9b07      	ldr	r3, [sp, #28]
     134:	405a      	eors	r2, r3
     136:	f04f 0300 	mov.w	r3, #0
     13a:	f000 8197 	beq.w	46c <TA_InvokeCommandEntryPoint+0x3bc>
     13e:	f007 fd37 	bl	7bb0 <__stack_chk_fail>
ta2tee_algo_id():
/workspace/benchmark/aes/ta/aes_ta.c:59
     142:	4ba5      	ldr	r3, [pc, #660]	; (3d8 <TA_InvokeCommandEntryPoint+0x328>)
/workspace/benchmark/aes/ta/aes_ta.c:64
     144:	602b      	str	r3, [r5, #0]
alloc_resources():
/workspace/benchmark/aes/ta/aes_ta.c:135
     146:	68a3      	ldr	r3, [r4, #8]
ta2tee_key_size():
/workspace/benchmark/aes/ta/aes_ta.c:76
     148:	2b10      	cmp	r3, #16
     14a:	d001      	beq.n	150 <TA_InvokeCommandEntryPoint+0xa0>
     14c:	2b20      	cmp	r3, #32
     14e:	d113      	bne.n	178 <TA_InvokeCommandEntryPoint+0xc8>
/workspace/benchmark/aes/ta/aes_ta.c:79
     150:	60ab      	str	r3, [r5, #8]
alloc_resources():
/workspace/benchmark/aes/ta/aes_ta.c:139
     152:	6923      	ldr	r3, [r4, #16]
ta2tee_mode_id():
/workspace/benchmark/aes/ta/aes_ta.c:88
     154:	b1db      	cbz	r3, 18e <TA_InvokeCommandEntryPoint+0xde>
     156:	2b01      	cmp	r3, #1
     158:	d01a      	beq.n	190 <TA_InvokeCommandEntryPoint+0xe0>
/workspace/benchmark/aes/ta/aes_ta.c:96
     15a:	48ac      	ldr	r0, [pc, #688]	; (40c <TA_InvokeCommandEntryPoint+0x35c>)
     15c:	2160      	movs	r1, #96	; 0x60
     15e:	9301      	str	r3, [sp, #4]
     160:	4bab      	ldr	r3, [pc, #684]	; (410 <TA_InvokeCommandEntryPoint+0x360>)
     162:	4478      	add	r0, pc
     164:	3062      	adds	r0, #98	; 0x62
     166:	447b      	add	r3, pc
     168:	9300      	str	r3, [sp, #0]
     16a:	2301      	movs	r3, #1
     16c:	461a      	mov	r2, r3
     16e:	e7d8      	b.n	122 <TA_InvokeCommandEntryPoint+0x72>
ta2tee_algo_id():
/workspace/benchmark/aes/ta/aes_ta.c:59
     170:	4b9a      	ldr	r3, [pc, #616]	; (3dc <TA_InvokeCommandEntryPoint+0x32c>)
     172:	e7e7      	b.n	144 <TA_InvokeCommandEntryPoint+0x94>
     174:	4b9a      	ldr	r3, [pc, #616]	; (3e0 <TA_InvokeCommandEntryPoint+0x330>)
     176:	e7e5      	b.n	144 <TA_InvokeCommandEntryPoint+0x94>
ta2tee_key_size():
/workspace/benchmark/aes/ta/aes_ta.c:82
     178:	48a6      	ldr	r0, [pc, #664]	; (414 <TA_InvokeCommandEntryPoint+0x364>)
     17a:	2152      	movs	r1, #82	; 0x52
     17c:	9301      	str	r3, [sp, #4]
     17e:	4ba6      	ldr	r3, [pc, #664]	; (418 <TA_InvokeCommandEntryPoint+0x368>)
     180:	4478      	add	r0, pc
     182:	4408      	add	r0, r1
     184:	447b      	add	r3, pc
     186:	9300      	str	r3, [sp, #0]
     188:	2301      	movs	r3, #1
     18a:	461a      	mov	r2, r3
     18c:	e7c9      	b.n	122 <TA_InvokeCommandEntryPoint+0x72>
ta2tee_mode_id():
/workspace/benchmark/aes/ta/aes_ta.c:88
     18e:	2701      	movs	r7, #1
alloc_resources():
/workspace/benchmark/aes/ta/aes_ta.c:151
     190:	68e8      	ldr	r0, [r5, #12]
ta2tee_mode_id():
/workspace/benchmark/aes/ta/aes_ta.c:90
     192:	606f      	str	r7, [r5, #4]
alloc_resources():
/workspace/benchmark/aes/ta/aes_ta.c:151
     194:	b108      	cbz	r0, 19a <TA_InvokeCommandEntryPoint+0xea>
/workspace/benchmark/aes/ta/aes_ta.c:152
     196:	f001 fcc7 	bl	1b28 <TEE_FreeOperation>
/workspace/benchmark/aes/ta/aes_ta.c:155
     19a:	68ab      	ldr	r3, [r5, #8]
     19c:	f105 000c 	add.w	r0, r5, #12
     1a0:	e9d5 1200 	ldrd	r1, r2, [r5]
     1a4:	00db      	lsls	r3, r3, #3
     1a6:	f001 fcd2 	bl	1b4e <TEE_AllocateOperation>
/workspace/benchmark/aes/ta/aes_ta.c:159
     1aa:	4604      	mov	r4, r0
     1ac:	b1c0      	cbz	r0, 1e0 <TA_InvokeCommandEntryPoint+0x130>
/workspace/benchmark/aes/ta/aes_ta.c:160
     1ae:	4b9b      	ldr	r3, [pc, #620]	; (41c <TA_InvokeCommandEntryPoint+0x36c>)
     1b0:	21a0      	movs	r1, #160	; 0xa0
     1b2:	489b      	ldr	r0, [pc, #620]	; (420 <TA_InvokeCommandEntryPoint+0x370>)
     1b4:	447b      	add	r3, pc
     1b6:	9300      	str	r3, [sp, #0]
     1b8:	4478      	add	r0, pc
     1ba:	2301      	movs	r3, #1
     1bc:	461a      	mov	r2, r3
     1be:	3033      	adds	r0, #51	; 0x33
     1c0:	f000 f998 	bl	4f4 <trace_printf>
/workspace/benchmark/aes/ta/aes_ta.c:161
     1c4:	2300      	movs	r3, #0
     1c6:	60eb      	str	r3, [r5, #12]
/workspace/benchmark/aes/ta/aes_ta.c:212
     1c8:	68e8      	ldr	r0, [r5, #12]
     1ca:	b108      	cbz	r0, 1d0 <TA_InvokeCommandEntryPoint+0x120>
/workspace/benchmark/aes/ta/aes_ta.c:213
     1cc:	f001 fcac 	bl	1b28 <TEE_FreeOperation>
/workspace/benchmark/aes/ta/aes_ta.c:216
     1d0:	6928      	ldr	r0, [r5, #16]
/workspace/benchmark/aes/ta/aes_ta.c:214
     1d2:	2600      	movs	r6, #0
     1d4:	60ee      	str	r6, [r5, #12]
/workspace/benchmark/aes/ta/aes_ta.c:216
     1d6:	b108      	cbz	r0, 1dc <TA_InvokeCommandEntryPoint+0x12c>
/workspace/benchmark/aes/ta/aes_ta.c:217
     1d8:	f001 f934 	bl	1444 <TEE_FreeTransientObject>
/workspace/benchmark/aes/ta/aes_ta.c:218
     1dc:	612e      	str	r6, [r5, #16]
/workspace/benchmark/aes/ta/aes_ta.c:220
     1de:	e7a3      	b.n	128 <TA_InvokeCommandEntryPoint+0x78>
/workspace/benchmark/aes/ta/aes_ta.c:166
     1e0:	6928      	ldr	r0, [r5, #16]
     1e2:	b108      	cbz	r0, 1e8 <TA_InvokeCommandEntryPoint+0x138>
/workspace/benchmark/aes/ta/aes_ta.c:167
     1e4:	f001 f92e 	bl	1444 <TEE_FreeTransientObject>
/workspace/benchmark/aes/ta/aes_ta.c:170
     1e8:	68a9      	ldr	r1, [r5, #8]
     1ea:	f105 0210 	add.w	r2, r5, #16
     1ee:	487d      	ldr	r0, [pc, #500]	; (3e4 <TA_InvokeCommandEntryPoint+0x334>)
     1f0:	00c9      	lsls	r1, r1, #3
     1f2:	f001 f90f 	bl	1414 <TEE_AllocateTransientObject>
/workspace/benchmark/aes/ta/aes_ta.c:173
     1f6:	4604      	mov	r4, r0
     1f8:	b168      	cbz	r0, 216 <TA_InvokeCommandEntryPoint+0x166>
/workspace/benchmark/aes/ta/aes_ta.c:174
     1fa:	4b8a      	ldr	r3, [pc, #552]	; (424 <TA_InvokeCommandEntryPoint+0x374>)
     1fc:	21ae      	movs	r1, #174	; 0xae
     1fe:	488a      	ldr	r0, [pc, #552]	; (428 <TA_InvokeCommandEntryPoint+0x378>)
     200:	447b      	add	r3, pc
     202:	9300      	str	r3, [sp, #0]
     204:	4478      	add	r0, pc
     206:	2301      	movs	r3, #1
     208:	461a      	mov	r2, r3
     20a:	3033      	adds	r0, #51	; 0x33
     20c:	f000 f972 	bl	4f4 <trace_printf>
/workspace/benchmark/aes/ta/aes_ta.c:175
     210:	2300      	movs	r3, #0
     212:	612b      	str	r3, [r5, #16]
/workspace/benchmark/aes/ta/aes_ta.c:176
     214:	e7d8      	b.n	1c8 <TA_InvokeCommandEntryPoint+0x118>
/workspace/benchmark/aes/ta/aes_ta.c:188
     216:	4601      	mov	r1, r0
     218:	68a8      	ldr	r0, [r5, #8]
     21a:	f000 ffdc 	bl	11d6 <TEE_Malloc>
/workspace/benchmark/aes/ta/aes_ta.c:189
     21e:	4606      	mov	r6, r0
     220:	b380      	cbz	r0, 284 <TA_InvokeCommandEntryPoint+0x1d4>
/workspace/benchmark/aes/ta/aes_ta.c:194
     222:	ac04      	add	r4, sp, #16
     224:	4602      	mov	r2, r0
     226:	68ab      	ldr	r3, [r5, #8]
     228:	4620      	mov	r0, r4
     22a:	f04f 4140 	mov.w	r1, #3221225472	; 0xc0000000
     22e:	f001 f971 	bl	1514 <TEE_InitRefAttribute>
/workspace/benchmark/aes/ta/aes_ta.c:196
     232:	4621      	mov	r1, r4
     234:	6928      	ldr	r0, [r5, #16]
     236:	2201      	movs	r2, #1
     238:	f001 f934 	bl	14a4 <TEE_PopulateTransientObject>
     23c:	4604      	mov	r4, r0
/workspace/benchmark/aes/ta/aes_ta.c:197
     23e:	4630      	mov	r0, r6
     240:	f000 fff0 	bl	1224 <TEE_Free>
/workspace/benchmark/aes/ta/aes_ta.c:198
     244:	b164      	cbz	r4, 260 <TA_InvokeCommandEntryPoint+0x1b0>
/workspace/benchmark/aes/ta/aes_ta.c:199
     246:	4b79      	ldr	r3, [pc, #484]	; (42c <TA_InvokeCommandEntryPoint+0x37c>)
     248:	21c7      	movs	r1, #199	; 0xc7
     24a:	4879      	ldr	r0, [pc, #484]	; (430 <TA_InvokeCommandEntryPoint+0x380>)
     24c:	447b      	add	r3, pc
     24e:	9300      	str	r3, [sp, #0]
     250:	2301      	movs	r3, #1
     252:	4478      	add	r0, pc
     254:	461a      	mov	r2, r3
     256:	9401      	str	r4, [sp, #4]
/workspace/benchmark/aes/ta/aes_ta.c:205
     258:	3033      	adds	r0, #51	; 0x33
     25a:	f000 f94b 	bl	4f4 <trace_printf>
/workspace/benchmark/aes/ta/aes_ta.c:206
     25e:	e7b3      	b.n	1c8 <TA_InvokeCommandEntryPoint+0x118>
/workspace/benchmark/aes/ta/aes_ta.c:203
     260:	6929      	ldr	r1, [r5, #16]
     262:	68e8      	ldr	r0, [r5, #12]
     264:	f001 ffa2 	bl	21ac <TEE_SetOperationKey>
/workspace/benchmark/aes/ta/aes_ta.c:204
     268:	4604      	mov	r4, r0
     26a:	2800      	cmp	r0, #0
     26c:	f43f af5c 	beq.w	128 <TA_InvokeCommandEntryPoint+0x78>
/workspace/benchmark/aes/ta/aes_ta.c:205
     270:	4b70      	ldr	r3, [pc, #448]	; (434 <TA_InvokeCommandEntryPoint+0x384>)
     272:	21cd      	movs	r1, #205	; 0xcd
     274:	9001      	str	r0, [sp, #4]
     276:	4870      	ldr	r0, [pc, #448]	; (438 <TA_InvokeCommandEntryPoint+0x388>)
     278:	447b      	add	r3, pc
     27a:	9300      	str	r3, [sp, #0]
     27c:	2301      	movs	r3, #1
     27e:	461a      	mov	r2, r3
     280:	4478      	add	r0, pc
     282:	e7e9      	b.n	258 <TA_InvokeCommandEntryPoint+0x1a8>
/workspace/benchmark/aes/ta/aes_ta.c:190
     284:	4c58      	ldr	r4, [pc, #352]	; (3e8 <TA_InvokeCommandEntryPoint+0x338>)
     286:	e79f      	b.n	1c8 <TA_InvokeCommandEntryPoint+0x118>
set_aes_key():
/workspace/benchmark/aes/ta/aes_ta.c:241
     288:	4e6c      	ldr	r6, [pc, #432]	; (43c <TA_InvokeCommandEntryPoint+0x38c>)
     28a:	2203      	movs	r2, #3
     28c:	4b6c      	ldr	r3, [pc, #432]	; (440 <TA_InvokeCommandEntryPoint+0x390>)
     28e:	21f1      	movs	r1, #241	; 0xf1
     290:	447e      	add	r6, pc
     292:	9001      	str	r0, [sp, #4]
     294:	3671      	adds	r6, #113	; 0x71
     296:	447b      	add	r3, pc
     298:	4630      	mov	r0, r6
     29a:	9300      	str	r3, [sp, #0]
     29c:	2301      	movs	r3, #1
     29e:	f000 f929 	bl	4f4 <trace_printf>
/workspace/benchmark/aes/ta/aes_ta.c:245
     2a2:	f1b8 0f05 	cmp.w	r8, #5
     2a6:	f47f af3e 	bne.w	126 <TA_InvokeCommandEntryPoint+0x76>
/workspace/benchmark/aes/ta/aes_ta.c:249
     2aa:	e9d4 2300 	ldrd	r2, r3, [r4]
/workspace/benchmark/aes/ta/aes_ta.c:251
     2ae:	68a9      	ldr	r1, [r5, #8]
     2b0:	428b      	cmp	r3, r1
     2b2:	d00b      	beq.n	2cc <TA_InvokeCommandEntryPoint+0x21c>
/workspace/benchmark/aes/ta/aes_ta.c:252
     2b4:	9301      	str	r3, [sp, #4]
     2b6:	4b63      	ldr	r3, [pc, #396]	; (444 <TA_InvokeCommandEntryPoint+0x394>)
     2b8:	9102      	str	r1, [sp, #8]
     2ba:	21fc      	movs	r1, #252	; 0xfc
     2bc:	447b      	add	r3, pc
     2be:	9300      	str	r3, [sp, #0]
     2c0:	2301      	movs	r3, #1
     2c2:	461a      	mov	r2, r3
cipher_buffer():
/workspace/benchmark/aes/ta/aes_ta.c:349
     2c4:	4630      	mov	r0, r6
     2c6:	f000 f915 	bl	4f4 <trace_printf>
/workspace/benchmark/aes/ta/aes_ta.c:351
     2ca:	e72c      	b.n	126 <TA_InvokeCommandEntryPoint+0x76>
set_aes_key():
/workspace/benchmark/aes/ta/aes_ta.c:274
     2cc:	ac04      	add	r4, sp, #16
     2ce:	f04f 4140 	mov.w	r1, #3221225472	; 0xc0000000
     2d2:	4620      	mov	r0, r4
     2d4:	f001 f91e 	bl	1514 <TEE_InitRefAttribute>
/workspace/benchmark/aes/ta/aes_ta.c:276
     2d8:	6928      	ldr	r0, [r5, #16]
     2da:	f001 f8cb 	bl	1474 <TEE_ResetTransientObject>
/workspace/benchmark/aes/ta/aes_ta.c:277
     2de:	4621      	mov	r1, r4
     2e0:	6928      	ldr	r0, [r5, #16]
     2e2:	2201      	movs	r2, #1
     2e4:	f001 f8de 	bl	14a4 <TEE_PopulateTransientObject>
/workspace/benchmark/aes/ta/aes_ta.c:278
     2e8:	4604      	mov	r4, r0
     2ea:	b158      	cbz	r0, 304 <TA_InvokeCommandEntryPoint+0x254>
/workspace/benchmark/aes/ta/aes_ta.c:279
     2ec:	4b56      	ldr	r3, [pc, #344]	; (448 <TA_InvokeCommandEntryPoint+0x398>)
     2ee:	f240 1117 	movw	r1, #279	; 0x117
     2f2:	9001      	str	r0, [sp, #4]
     2f4:	447b      	add	r3, pc
     2f6:	9300      	str	r3, [sp, #0]
     2f8:	2301      	movs	r3, #1
     2fa:	461a      	mov	r2, r3
/workspace/benchmark/aes/ta/aes_ta.c:286
     2fc:	4630      	mov	r0, r6
     2fe:	f000 f8f9 	bl	4f4 <trace_printf>
/workspace/benchmark/aes/ta/aes_ta.c:287
     302:	e711      	b.n	128 <TA_InvokeCommandEntryPoint+0x78>
/workspace/benchmark/aes/ta/aes_ta.c:283
     304:	68e8      	ldr	r0, [r5, #12]
     306:	f001 ff31 	bl	216c <TEE_ResetOperation>
/workspace/benchmark/aes/ta/aes_ta.c:284
     30a:	6929      	ldr	r1, [r5, #16]
     30c:	68e8      	ldr	r0, [r5, #12]
     30e:	f001 ff4d 	bl	21ac <TEE_SetOperationKey>
/workspace/benchmark/aes/ta/aes_ta.c:285
     312:	4604      	mov	r4, r0
     314:	2800      	cmp	r0, #0
     316:	f43f af07 	beq.w	128 <TA_InvokeCommandEntryPoint+0x78>
/workspace/benchmark/aes/ta/aes_ta.c:286
     31a:	4b4c      	ldr	r3, [pc, #304]	; (44c <TA_InvokeCommandEntryPoint+0x39c>)
     31c:	f44f 718f 	mov.w	r1, #286	; 0x11e
     320:	9001      	str	r0, [sp, #4]
     322:	447b      	add	r3, pc
     324:	9300      	str	r3, [sp, #0]
     326:	2301      	movs	r3, #1
     328:	461a      	mov	r2, r3
     32a:	e7e7      	b.n	2fc <TA_InvokeCommandEntryPoint+0x24c>
reset_aes_iv():
/workspace/benchmark/aes/ta/aes_ta.c:309
     32c:	9001      	str	r0, [sp, #4]
     32e:	2203      	movs	r2, #3
     330:	4847      	ldr	r0, [pc, #284]	; (450 <TA_InvokeCommandEntryPoint+0x3a0>)
     332:	f240 1135 	movw	r1, #309	; 0x135
     336:	4b47      	ldr	r3, [pc, #284]	; (454 <TA_InvokeCommandEntryPoint+0x3a4>)
     338:	4478      	add	r0, pc
     33a:	447b      	add	r3, pc
     33c:	307d      	adds	r0, #125	; 0x7d
     33e:	9300      	str	r3, [sp, #0]
     340:	2301      	movs	r3, #1
     342:	f000 f8d7 	bl	4f4 <trace_printf>
/workspace/benchmark/aes/ta/aes_ta.c:313
     346:	f1b8 0f05 	cmp.w	r8, #5
     34a:	f47f aeec 	bne.w	126 <TA_InvokeCommandEntryPoint+0x76>
/workspace/benchmark/aes/ta/aes_ta.c:322
     34e:	e9d4 1200 	ldrd	r1, r2, [r4]
/workspace/benchmark/aes/ta/aes_ta.c:324
     352:	2400      	movs	r4, #0
/workspace/benchmark/aes/ta/aes_ta.c:322
     354:	68e8      	ldr	r0, [r5, #12]
     356:	f002 f88b 	bl	2470 <TEE_CipherInit>
/workspace/benchmark/aes/ta/aes_ta.c:324
     35a:	e6e5      	b.n	128 <TA_InvokeCommandEntryPoint+0x78>
cipher_buffer():
/workspace/benchmark/aes/ta/aes_ta.c:341
     35c:	4e3e      	ldr	r6, [pc, #248]	; (458 <TA_InvokeCommandEntryPoint+0x3a8>)
     35e:	2203      	movs	r2, #3
     360:	4b3e      	ldr	r3, [pc, #248]	; (45c <TA_InvokeCommandEntryPoint+0x3ac>)
     362:	f240 1155 	movw	r1, #341	; 0x155
     366:	447e      	add	r6, pc
     368:	9001      	str	r0, [sp, #4]
     36a:	368a      	adds	r6, #138	; 0x8a
     36c:	447b      	add	r3, pc
     36e:	4630      	mov	r0, r6
     370:	9300      	str	r3, [sp, #0]
     372:	2301      	movs	r3, #1
     374:	f000 f8be 	bl	4f4 <trace_printf>
/workspace/benchmark/aes/ta/aes_ta.c:345
     378:	f1b8 0f65 	cmp.w	r8, #101	; 0x65
     37c:	f47f aed3 	bne.w	126 <TA_InvokeCommandEntryPoint+0x76>
/workspace/benchmark/aes/ta/aes_ta.c:348
     380:	68e3      	ldr	r3, [r4, #12]
     382:	6862      	ldr	r2, [r4, #4]
     384:	4293      	cmp	r3, r2
     386:	d209      	bcs.n	39c <TA_InvokeCommandEntryPoint+0x2ec>
/workspace/benchmark/aes/ta/aes_ta.c:349
     388:	9302      	str	r3, [sp, #8]
     38a:	f240 115d 	movw	r1, #349	; 0x15d
     38e:	4b34      	ldr	r3, [pc, #208]	; (460 <TA_InvokeCommandEntryPoint+0x3b0>)
     390:	9201      	str	r2, [sp, #4]
     392:	447b      	add	r3, pc
     394:	9300      	str	r3, [sp, #0]
     396:	2301      	movs	r3, #1
     398:	461a      	mov	r2, r3
     39a:	e793      	b.n	2c4 <TA_InvokeCommandEntryPoint+0x214>
/workspace/benchmark/aes/ta/aes_ta.c:354
     39c:	68e8      	ldr	r0, [r5, #12]
     39e:	b1b8      	cbz	r0, 3d0 <TA_InvokeCommandEntryPoint+0x320>
/workspace/benchmark/aes/ta/aes_ta.c:360
     3a0:	f104 030c 	add.w	r3, r4, #12
     3a4:	9300      	str	r3, [sp, #0]
     3a6:	68a3      	ldr	r3, [r4, #8]
     3a8:	6821      	ldr	r1, [r4, #0]
     3aa:	f002 f88c 	bl	24c6 <TEE_CipherUpdate>
     3ae:	4604      	mov	r4, r0
     3b0:	e6ba      	b.n	128 <TA_InvokeCommandEntryPoint+0x78>
TA_InvokeCommandEntryPoint():
/workspace/benchmark/aes/ta/aes_ta.c:431
     3b2:	4b2c      	ldr	r3, [pc, #176]	; (464 <TA_InvokeCommandEntryPoint+0x3b4>)
     3b4:	482c      	ldr	r0, [pc, #176]	; (468 <TA_InvokeCommandEntryPoint+0x3b8>)
     3b6:	447b      	add	r3, pc
     3b8:	9300      	str	r3, [sp, #0]
     3ba:	4478      	add	r0, pc
     3bc:	2301      	movs	r3, #1
     3be:	9101      	str	r1, [sp, #4]
     3c0:	461a      	mov	r2, r3
     3c2:	3098      	adds	r0, #152	; 0x98
     3c4:	f240 11af 	movw	r1, #431	; 0x1af
/workspace/benchmark/aes/ta/aes_ta.c:432
     3c8:	4c08      	ldr	r4, [pc, #32]	; (3ec <TA_InvokeCommandEntryPoint+0x33c>)
/workspace/benchmark/aes/ta/aes_ta.c:431
     3ca:	f000 f893 	bl	4f4 <trace_printf>
/workspace/benchmark/aes/ta/aes_ta.c:432
     3ce:	e6ab      	b.n	128 <TA_InvokeCommandEntryPoint+0x78>
cipher_buffer():
/workspace/benchmark/aes/ta/aes_ta.c:355
     3d0:	4c07      	ldr	r4, [pc, #28]	; (3f0 <TA_InvokeCommandEntryPoint+0x340>)
     3d2:	e6a9      	b.n	128 <TA_InvokeCommandEntryPoint+0x78>
     3d4:	ffff0006 	.word	0xffff0006
     3d8:	10000110 	.word	0x10000110
     3dc:	10000210 	.word	0x10000210
     3e0:	10000010 	.word	0x10000010
     3e4:	a0000010 	.word	0xa0000010
     3e8:	ffff000c 	.word	0xffff000c
     3ec:	ffff000a 	.word	0xffff000a
     3f0:	ffff0007 	.word	0xffff0007
     3f4:	00009794 	.word	0x00009794
     3f8:	0000000c 	.word	0x0000000c
     3fc:	00008214 	.word	0x00008214
     400:	0000807c 	.word	0x0000807c
     404:	00008072 	.word	0x00008072
     408:	00009724 	.word	0x00009724
     40c:	0000819a 	.word	0x0000819a
     410:	0000804a 	.word	0x0000804a
     414:	0000817c 	.word	0x0000817c
     418:	00008018 	.word	0x00008018
     41c:	0000800c 	.word	0x0000800c
     420:	00008144 	.word	0x00008144
     424:	00007fdd 	.word	0x00007fdd
     428:	000080f8 	.word	0x000080f8
     42c:	00007fb5 	.word	0x00007fb5
     430:	000080aa 	.word	0x000080aa
     434:	00007fb0 	.word	0x00007fb0
     438:	0000807c 	.word	0x0000807c
     43c:	0000806c 	.word	0x0000806c
     440:	00007fb0 	.word	0x00007fb0
     444:	00007fa8 	.word	0x00007fa8
     448:	00007f0d 	.word	0x00007f0d
     44c:	00007f06 	.word	0x00007f06
     450:	00007fc4 	.word	0x00007fc4
     454:	00007f4d 	.word	0x00007f4d
     458:	00007f96 	.word	0x00007f96
     45c:	00007f3c 	.word	0x00007f3c
     460:	00007f30 	.word	0x00007f30
     464:	00007f25 	.word	0x00007f25
     468:	00007f42 	.word	0x00007f42
TA_InvokeCommandEntryPoint():
/workspace/benchmark/aes/ta/aes_ta.c:434
     46c:	4620      	mov	r0, r4
     46e:	b008      	add	sp, #32
     470:	e8bd 81f0 	ldmia.w	sp!, {r4, r5, r6, r7, r8, pc}

00000474 <append>:
append():
/mnt/disk/raspbian-tee/optee_os/lib/libutils/ext/trace.c:198
     474:	b40e      	push	{r1, r2, r3}
/mnt/disk/raspbian-tee/optee_os/lib/libutils/ext/trace.c:203
     476:	f8d0 3100 	ldr.w	r3, [r0, #256]	; 0x100
/mnt/disk/raspbian-tee/optee_os/lib/libutils/ext/trace.c:198
     47a:	b533      	push	{r0, r1, r4, r5, lr}
     47c:	4604      	mov	r4, r0
/mnt/disk/raspbian-tee/optee_os/lib/libutils/ext/trace.c:203
     47e:	b90b      	cbnz	r3, 484 <append+0x10>
/mnt/disk/raspbian-tee/optee_os/lib/libutils/ext/trace.c:204
     480:	f8c4 0100 	str.w	r0, [r4, #256]	; 0x100
/mnt/disk/raspbian-tee/optee_os/lib/libutils/ext/trace.c:205
     484:	f8d4 0100 	ldr.w	r0, [r4, #256]	; 0x100
/mnt/disk/raspbian-tee/optee_os/lib/libutils/ext/trace.c:206
     488:	ab06      	add	r3, sp, #24
/mnt/disk/raspbian-tee/optee_os/lib/libutils/ext/trace.c:207
     48a:	9a05      	ldr	r2, [sp, #20]
/mnt/disk/raspbian-tee/optee_os/lib/libutils/ext/trace.c:205
     48c:	1b05      	subs	r5, r0, r4
/mnt/disk/raspbian-tee/optee_os/lib/libutils/ext/trace.c:206
     48e:	9301      	str	r3, [sp, #4]
/mnt/disk/raspbian-tee/optee_os/lib/libutils/ext/trace.c:205
     490:	f5c5 7580 	rsb	r5, r5, #256	; 0x100
/mnt/disk/raspbian-tee/optee_os/lib/libutils/ext/trace.c:207
     494:	4629      	mov	r1, r5
     496:	f000 fce5 	bl	e64 <vsnprintk>
/mnt/disk/raspbian-tee/optee_os/lib/libutils/ext/trace.c:209
     49a:	2800      	cmp	r0, #0
     49c:	db0f      	blt.n	4be <append+0x4a>
/mnt/disk/raspbian-tee/optee_os/lib/libutils/ext/trace.c:213
     49e:	4285      	cmp	r5, r0
     4a0:	dd0d      	ble.n	4be <append+0x4a>
/mnt/disk/raspbian-tee/optee_os/lib/libutils/ext/trace.c:217
     4a2:	4285      	cmp	r5, r0
     4a4:	bfa8      	it	ge
     4a6:	4605      	movge	r5, r0
     4a8:	f8d4 0100 	ldr.w	r0, [r4, #256]	; 0x100
     4ac:	4405      	add	r5, r0
/mnt/disk/raspbian-tee/optee_os/lib/libutils/ext/trace.c:218
     4ae:	2001      	movs	r0, #1
/mnt/disk/raspbian-tee/optee_os/lib/libutils/ext/trace.c:217
     4b0:	f8c4 5100 	str.w	r5, [r4, #256]	; 0x100
/mnt/disk/raspbian-tee/optee_os/lib/libutils/ext/trace.c:219
     4b4:	b002      	add	sp, #8
     4b6:	e8bd 4030 	ldmia.w	sp!, {r4, r5, lr}
     4ba:	b003      	add	sp, #12
     4bc:	4770      	bx	lr
/mnt/disk/raspbian-tee/optee_os/lib/libutils/ext/trace.c:211
     4be:	2000      	movs	r0, #0
     4c0:	e7f8      	b.n	4b4 <append+0x40>

000004c2 <trace_set_level>:
trace_set_level():
/mnt/disk/raspbian-tee/optee_os/lib/libutils/ext/trace.c:25
     4c2:	4b05      	ldr	r3, [pc, #20]	; (4d8 <trace_set_level+0x16>)
/mnt/disk/raspbian-tee/optee_os/lib/libutils/ext/trace.c:26
     4c4:	2804      	cmp	r0, #4
     4c6:	4a05      	ldr	r2, [pc, #20]	; (4dc <trace_set_level+0x1a>)
/mnt/disk/raspbian-tee/optee_os/lib/libutils/ext/trace.c:25
     4c8:	447b      	add	r3, pc
     4ca:	589b      	ldr	r3, [r3, r2]
/mnt/disk/raspbian-tee/optee_os/lib/libutils/ext/trace.c:26
     4cc:	d801      	bhi.n	4d2 <trace_set_level+0x10>
/mnt/disk/raspbian-tee/optee_os/lib/libutils/ext/trace.c:27
     4ce:	6018      	str	r0, [r3, #0]
     4d0:	4770      	bx	lr
/mnt/disk/raspbian-tee/optee_os/lib/libutils/ext/trace.c:29
     4d2:	2204      	movs	r2, #4
     4d4:	601a      	str	r2, [r3, #0]
     4d6:	4770      	bx	lr
     4d8:	00009388 	.word	0x00009388
     4dc:	00000014 	.word	0x00000014

000004e0 <trace_get_level>:
trace_get_level():
/mnt/disk/raspbian-tee/optee_os/lib/libutils/ext/trace.c:33
     4e0:	4b02      	ldr	r3, [pc, #8]	; (4ec <trace_get_level+0xc>)
/mnt/disk/raspbian-tee/optee_os/lib/libutils/ext/trace.c:34
     4e2:	4a03      	ldr	r2, [pc, #12]	; (4f0 <trace_get_level+0x10>)
/mnt/disk/raspbian-tee/optee_os/lib/libutils/ext/trace.c:33
     4e4:	447b      	add	r3, pc
/mnt/disk/raspbian-tee/optee_os/lib/libutils/ext/trace.c:34
     4e6:	589b      	ldr	r3, [r3, r2]
/mnt/disk/raspbian-tee/optee_os/lib/libutils/ext/trace.c:35
     4e8:	6818      	ldr	r0, [r3, #0]
     4ea:	4770      	bx	lr
     4ec:	0000936c 	.word	0x0000936c
     4f0:	00000014 	.word	0x00000014

000004f4 <trace_printf>:
trace_printf():
/mnt/disk/raspbian-tee/optee_os/lib/libutils/ext/trace.c:97
     4f4:	e92d 47f0 	stmdb	sp!, {r4, r5, r6, r7, r8, r9, sl, lr}
     4f8:	4607      	mov	r7, r0
     4fa:	f8df 910c 	ldr.w	r9, [pc, #268]	; 608 <trace_printf+0x114>
     4fe:	b0c6      	sub	sp, #280	; 0x118
     500:	4688      	mov	r8, r1
     502:	44f9      	add	r9, pc
     504:	4614      	mov	r4, r2
/mnt/disk/raspbian-tee/optee_os/lib/libutils/ext/trace.c:103
     506:	469a      	mov	sl, r3
     508:	2b00      	cmp	r3, #0
     50a:	d06a      	beq.n	5e2 <trace_printf+0xee>
/mnt/disk/raspbian-tee/optee_os/lib/libutils/ext/trace.c:103 (discriminator 1)
     50c:	4b3f      	ldr	r3, [pc, #252]	; (60c <trace_printf+0x118>)
     50e:	f859 3003 	ldr.w	r3, [r9, r3]
     512:	681b      	ldr	r3, [r3, #0]
     514:	4293      	cmp	r3, r2
     516:	db61      	blt.n	5dc <trace_printf+0xe8>
trace_level_to_string():
/mnt/disk/raspbian-tee/optee_os/lib/libutils/ext/trace.c:52
     518:	4613      	mov	r3, r2
     51a:	2a04      	cmp	r2, #4
/mnt/disk/raspbian-tee/optee_os/lib/libutils/ext/trace.c:55
     51c:	4a3c      	ldr	r2, [pc, #240]	; (610 <trace_printf+0x11c>)
/mnt/disk/raspbian-tee/optee_os/lib/libutils/ext/trace.c:52
     51e:	bf88      	it	hi
     520:	2300      	movhi	r3, #0
/mnt/disk/raspbian-tee/optee_os/lib/libutils/ext/trace.c:55
     522:	447a      	add	r2, pc
     524:	5cd3      	ldrb	r3, [r2, r3]
trace_printf():
/mnt/disk/raspbian-tee/optee_os/lib/libutils/ext/trace.c:107
     526:	4a3b      	ldr	r2, [pc, #236]	; (614 <trace_printf+0x120>)
     528:	ad06      	add	r5, sp, #24
     52a:	f44f 7180 	mov.w	r1, #256	; 0x100
     52e:	4628      	mov	r0, r5
     530:	447a      	add	r2, pc
     532:	f000 fc9e 	bl	e72 <snprintk>
/mnt/disk/raspbian-tee/optee_os/lib/libutils/ext/trace.c:109
     536:	1e06      	subs	r6, r0, #0
     538:	db50      	blt.n	5dc <trace_printf+0xe8>
/mnt/disk/raspbian-tee/optee_os/lib/libutils/ext/trace.c:114
     53a:	4b37      	ldr	r3, [pc, #220]	; (618 <trace_printf+0x124>)
     53c:	f5c6 7180 	rsb	r1, r6, #256	; 0x100
     540:	4a36      	ldr	r2, [pc, #216]	; (61c <trace_printf+0x128>)
     542:	19a8      	adds	r0, r5, r6
     544:	447a      	add	r2, pc
     546:	f859 3003 	ldr.w	r3, [r9, r3]
     54a:	9303      	str	r3, [sp, #12]
     54c:	f000 fc91 	bl	e72 <snprintk>
/mnt/disk/raspbian-tee/optee_os/lib/libutils/ext/trace.c:116
     550:	2800      	cmp	r0, #0
     552:	db43      	blt.n	5dc <trace_printf+0xe8>
/mnt/disk/raspbian-tee/optee_os/lib/libutils/ext/trace.c:118
     554:	4406      	add	r6, r0
/mnt/disk/raspbian-tee/optee_os/lib/libutils/ext/trace.c:120
     556:	f1ba 0f00 	cmp.w	sl, #0
     55a:	d04b      	beq.n	5f4 <trace_printf+0x100>
/mnt/disk/raspbian-tee/optee_os/lib/libutils/ext/trace.c:120 (discriminator 1)
     55c:	231a      	movs	r3, #26
     55e:	fa23 f404 	lsr.w	r4, r3, r4
     562:	07e3      	lsls	r3, r4, #31
     564:	d546      	bpl.n	5f4 <trace_printf+0x100>
print_thread_id():
/mnt/disk/raspbian-tee/optee_os/lib/libutils/ext/trace.c:65
     566:	f000 fcb3 	bl	ed0 <trace_ext_get_thread_id>
trace_printf():
/mnt/disk/raspbian-tee/optee_os/lib/libutils/ext/trace.c:122
     56a:	19ac      	adds	r4, r5, r6
     56c:	f5c6 7980 	rsb	r9, r6, #256	; 0x100
print_thread_id():
/mnt/disk/raspbian-tee/optee_os/lib/libutils/ext/trace.c:67
     570:	2800      	cmp	r0, #0
     572:	db38      	blt.n	5e6 <trace_printf+0xf2>
/mnt/disk/raspbian-tee/optee_os/lib/libutils/ext/trace.c:68
     574:	4a2a      	ldr	r2, [pc, #168]	; (620 <trace_printf+0x12c>)
     576:	2301      	movs	r3, #1
     578:	9000      	str	r0, [sp, #0]
     57a:	447a      	add	r2, pc
/mnt/disk/raspbian-tee/optee_os/lib/libutils/ext/trace.c:70
     57c:	4649      	mov	r1, r9
     57e:	4620      	mov	r0, r4
     580:	f000 fc77 	bl	e72 <snprintk>
trace_printf():
/mnt/disk/raspbian-tee/optee_os/lib/libutils/ext/trace.c:129
     584:	2800      	cmp	r0, #0
     586:	db29      	blt.n	5dc <trace_printf+0xe8>
/mnt/disk/raspbian-tee/optee_os/lib/libutils/ext/trace.c:131
     588:	1984      	adds	r4, r0, r6
/mnt/disk/raspbian-tee/optee_os/lib/libutils/ext/trace.c:133
     58a:	b167      	cbz	r7, 5a6 <trace_printf+0xb2>
/mnt/disk/raspbian-tee/optee_os/lib/libutils/ext/trace.c:134
     58c:	4a25      	ldr	r2, [pc, #148]	; (624 <trace_printf+0x130>)
     58e:	463b      	mov	r3, r7
     590:	f8cd 8000 	str.w	r8, [sp]
     594:	f5c4 7180 	rsb	r1, r4, #256	; 0x100
     598:	447a      	add	r2, pc
     59a:	1928      	adds	r0, r5, r4
     59c:	f000 fc69 	bl	e72 <snprintk>
/mnt/disk/raspbian-tee/optee_os/lib/libutils/ext/trace.c:136
     5a0:	2800      	cmp	r0, #0
     5a2:	db1b      	blt.n	5dc <trace_printf+0xe8>
/mnt/disk/raspbian-tee/optee_os/lib/libutils/ext/trace.c:138
     5a4:	4404      	add	r4, r0
/mnt/disk/raspbian-tee/optee_os/lib/libutils/ext/trace.c:148
     5a6:	ab4f      	add	r3, sp, #316	; 0x13c
/mnt/disk/raspbian-tee/optee_os/lib/libutils/ext/trace.c:149
     5a8:	f5c4 7180 	rsb	r1, r4, #256	; 0x100
     5ac:	1928      	adds	r0, r5, r4
     5ae:	9a4e      	ldr	r2, [sp, #312]	; 0x138
/mnt/disk/raspbian-tee/optee_os/lib/libutils/ext/trace.c:148
     5b0:	9305      	str	r3, [sp, #20]
/mnt/disk/raspbian-tee/optee_os/lib/libutils/ext/trace.c:149
     5b2:	f000 fc57 	bl	e64 <vsnprintk>
/mnt/disk/raspbian-tee/optee_os/lib/libutils/ext/trace.c:151
     5b6:	2800      	cmp	r0, #0
/mnt/disk/raspbian-tee/optee_os/lib/libutils/ext/trace.c:157
     5b8:	f04f 030a 	mov.w	r3, #10
/mnt/disk/raspbian-tee/optee_os/lib/libutils/ext/trace.c:152
     5bc:	bfc8      	it	gt
     5be:	1824      	addgt	r4, r4, r0
     5c0:	2cfe      	cmp	r4, #254	; 0xfe
     5c2:	bf28      	it	cs
     5c4:	24fe      	movcs	r4, #254	; 0xfe
/mnt/disk/raspbian-tee/optee_os/lib/libutils/ext/trace.c:157
     5c6:	552b      	strb	r3, [r5, r4]
/mnt/disk/raspbian-tee/optee_os/lib/libutils/ext/trace.c:158
     5c8:	b114      	cbz	r4, 5d0 <trace_printf+0xdc>
/mnt/disk/raspbian-tee/optee_os/lib/libutils/ext/trace.c:158 (discriminator 1)
     5ca:	5d2b      	ldrb	r3, [r5, r4]
     5cc:	2b0a      	cmp	r3, #10
     5ce:	d019      	beq.n	604 <trace_printf+0x110>
/mnt/disk/raspbian-tee/optee_os/lib/libutils/ext/trace.c:161
     5d0:	442c      	add	r4, r5
/mnt/disk/raspbian-tee/optee_os/lib/libutils/ext/trace.c:163
     5d2:	4628      	mov	r0, r5
/mnt/disk/raspbian-tee/optee_os/lib/libutils/ext/trace.c:161
     5d4:	2300      	movs	r3, #0
     5d6:	70a3      	strb	r3, [r4, #2]
/mnt/disk/raspbian-tee/optee_os/lib/libutils/ext/trace.c:163
     5d8:	f000 fc70 	bl	ebc <trace_ext_puts>
/mnt/disk/raspbian-tee/optee_os/lib/libutils/ext/trace.c:164
     5dc:	b046      	add	sp, #280	; 0x118
     5de:	e8bd 87f0 	ldmia.w	sp!, {r4, r5, r6, r7, r8, r9, sl, pc}
trace_level_to_string():
/mnt/disk/raspbian-tee/optee_os/lib/libutils/ext/trace.c:50
     5e2:	234d      	movs	r3, #77	; 0x4d
     5e4:	e79f      	b.n	526 <trace_printf+0x32>
print_thread_id():
/mnt/disk/raspbian-tee/optee_os/lib/libutils/ext/trace.c:70
     5e6:	4b10      	ldr	r3, [pc, #64]	; (628 <trace_printf+0x134>)
     5e8:	4a10      	ldr	r2, [pc, #64]	; (62c <trace_printf+0x138>)
     5ea:	447b      	add	r3, pc
     5ec:	9300      	str	r3, [sp, #0]
     5ee:	447a      	add	r2, pc
     5f0:	2301      	movs	r3, #1
     5f2:	e7c3      	b.n	57c <trace_printf+0x88>
trace_printf():
/mnt/disk/raspbian-tee/optee_os/lib/libutils/ext/trace.c:142
     5f4:	2efe      	cmp	r6, #254	; 0xfe
     5f6:	d8f1      	bhi.n	5dc <trace_printf+0xe8>
/mnt/disk/raspbian-tee/optee_os/lib/libutils/ext/trace.c:144
     5f8:	1c74      	adds	r4, r6, #1
     5fa:	2320      	movs	r3, #32
     5fc:	55ab      	strb	r3, [r5, r6]
/mnt/disk/raspbian-tee/optee_os/lib/libutils/ext/trace.c:145
     5fe:	2300      	movs	r3, #0
     600:	552b      	strb	r3, [r5, r4]
     602:	e7d0      	b.n	5a6 <trace_printf+0xb2>
/mnt/disk/raspbian-tee/optee_os/lib/libutils/ext/trace.c:159
     604:	3c01      	subs	r4, #1
     606:	e7df      	b.n	5c8 <trace_printf+0xd4>
     608:	0000934e 	.word	0x0000934e
     60c:	00000014 	.word	0x00000014
     610:	00007f3b 	.word	0x00007f3b
     614:	00007f3c 	.word	0x00007f3c
     618:	0000001c 	.word	0x0000001c
     61c:	00007f2c 	.word	0x00007f2c
     620:	00007efa 	.word	0x00007efa
     624:	00007ee7 	.word	0x00007ee7
     628:	00008588 	.word	0x00008588
     62c:	00007e8c 	.word	0x00007e8c

00000630 <dhex_dump>:
dhex_dump():
/mnt/disk/raspbian-tee/optee_os/lib/libutils/ext/trace.c:225
     630:	e92d 4ff0 	stmdb	sp!, {r4, r5, r6, r7, r8, r9, sl, fp, lr}
     634:	4690      	mov	r8, r2
     636:	4a35      	ldr	r2, [pc, #212]	; (70c <dhex_dump+0xdc>)
     638:	468a      	mov	sl, r1
/mnt/disk/raspbian-tee/optee_os/lib/libutils/ext/trace.c:231
     63a:	4935      	ldr	r1, [pc, #212]	; (710 <dhex_dump+0xe0>)
/mnt/disk/raspbian-tee/optee_os/lib/libutils/ext/trace.c:225
     63c:	447a      	add	r2, pc
     63e:	b0c7      	sub	sp, #284	; 0x11c
     640:	4681      	mov	r9, r0
/mnt/disk/raspbian-tee/optee_os/lib/libutils/ext/trace.c:231
     642:	5852      	ldr	r2, [r2, r1]
     644:	6812      	ldr	r2, [r2, #0]
     646:	4542      	cmp	r2, r8
     648:	db1d      	blt.n	686 <dhex_dump+0x56>
     64a:	461e      	mov	r6, r3
/mnt/disk/raspbian-tee/optee_os/lib/libutils/ext/trace.c:240
     64c:	4b31      	ldr	r3, [pc, #196]	; (714 <dhex_dump+0xe4>)
/mnt/disk/raspbian-tee/optee_os/lib/libutils/ext/trace.c:232
     64e:	ad05      	add	r5, sp, #20
/mnt/disk/raspbian-tee/optee_os/lib/libutils/ext/trace.c:235
     650:	f8df b0c4 	ldr.w	fp, [pc, #196]	; 718 <dhex_dump+0xe8>
/mnt/disk/raspbian-tee/optee_os/lib/libutils/ext/trace.c:240
     654:	447b      	add	r3, pc
     656:	9302      	str	r3, [sp, #8]
/mnt/disk/raspbian-tee/optee_os/lib/libutils/ext/trace.c:248
     658:	4b30      	ldr	r3, [pc, #192]	; (71c <dhex_dump+0xec>)
/mnt/disk/raspbian-tee/optee_os/lib/libutils/ext/trace.c:235
     65a:	44fb      	add	fp, pc
/mnt/disk/raspbian-tee/optee_os/lib/libutils/ext/trace.c:232
     65c:	2400      	movs	r4, #0
     65e:	f8c5 4100 	str.w	r4, [r5, #256]	; 0x100
/mnt/disk/raspbian-tee/optee_os/lib/libutils/ext/trace.c:248
     662:	447b      	add	r3, pc
     664:	9303      	str	r3, [sp, #12]
/mnt/disk/raspbian-tee/optee_os/lib/libutils/ext/trace.c:233 (discriminator 1)
     666:	9b50      	ldr	r3, [sp, #320]	; 0x140
     668:	429c      	cmp	r4, r3
     66a:	db0f      	blt.n	68c <dhex_dump+0x5c>
/mnt/disk/raspbian-tee/optee_os/lib/libutils/ext/trace.c:253
     66c:	f8d5 3100 	ldr.w	r3, [r5, #256]	; 0x100
     670:	b14b      	cbz	r3, 686 <dhex_dump+0x56>
/mnt/disk/raspbian-tee/optee_os/lib/libutils/ext/trace.c:255
     672:	4b2b      	ldr	r3, [pc, #172]	; (720 <dhex_dump+0xf0>)
     674:	4642      	mov	r2, r8
     676:	9501      	str	r5, [sp, #4]
     678:	4651      	mov	r1, sl
     67a:	447b      	add	r3, pc
     67c:	4648      	mov	r0, r9
     67e:	9300      	str	r3, [sp, #0]
     680:	2301      	movs	r3, #1
     682:	f7ff ff37 	bl	4f4 <trace_printf>
/mnt/disk/raspbian-tee/optee_os/lib/libutils/ext/trace.c:263
     686:	b047      	add	sp, #284	; 0x11c
     688:	e8bd 8ff0 	ldmia.w	sp!, {r4, r5, r6, r7, r8, r9, sl, fp, pc}
/mnt/disk/raspbian-tee/optee_os/lib/libutils/ext/trace.c:234
     68c:	f014 070f 	ands.w	r7, r4, #15
     690:	d013      	beq.n	6ba <dhex_dump+0x8a>
/mnt/disk/raspbian-tee/optee_os/lib/libutils/ext/trace.c:240
     692:	f816 2b01 	ldrb.w	r2, [r6], #1
     696:	4628      	mov	r0, r5
     698:	9902      	ldr	r1, [sp, #8]
     69a:	f7ff feeb 	bl	474 <append>
/mnt/disk/raspbian-tee/optee_os/lib/libutils/ext/trace.c:241
     69e:	b9a8      	cbnz	r0, 6cc <dhex_dump+0x9c>
/mnt/disk/raspbian-tee/optee_os/lib/libutils/ext/trace.c:262
     6a0:	4820      	ldr	r0, [pc, #128]	; (724 <dhex_dump+0xf4>)
     6a2:	2203      	movs	r2, #3
     6a4:	4b20      	ldr	r3, [pc, #128]	; (728 <dhex_dump+0xf8>)
     6a6:	f44f 7183 	mov.w	r1, #262	; 0x106
     6aa:	4478      	add	r0, pc
     6ac:	447b      	add	r3, pc
     6ae:	3005      	adds	r0, #5
     6b0:	9300      	str	r3, [sp, #0]
     6b2:	2301      	movs	r3, #1
     6b4:	f7ff ff1e 	bl	4f4 <trace_printf>
     6b8:	e7e5      	b.n	686 <dhex_dump+0x56>
/mnt/disk/raspbian-tee/optee_os/lib/libutils/ext/trace.c:235
     6ba:	4633      	mov	r3, r6
     6bc:	2208      	movs	r2, #8
     6be:	4659      	mov	r1, fp
     6c0:	4628      	mov	r0, r5
     6c2:	f7ff fed7 	bl	474 <append>
/mnt/disk/raspbian-tee/optee_os/lib/libutils/ext/trace.c:237
     6c6:	2800      	cmp	r0, #0
     6c8:	d1e3      	bne.n	692 <dhex_dump+0x62>
     6ca:	e7e9      	b.n	6a0 <dhex_dump+0x70>
/mnt/disk/raspbian-tee/optee_os/lib/libutils/ext/trace.c:243
     6cc:	4263      	negs	r3, r4
     6ce:	f003 030f 	and.w	r3, r3, #15
     6d2:	bf58      	it	pl
     6d4:	425f      	negpl	r7, r3
     6d6:	2f07      	cmp	r7, #7
     6d8:	d108      	bne.n	6ec <dhex_dump+0xbc>
/mnt/disk/raspbian-tee/optee_os/lib/libutils/ext/trace.c:244
     6da:	4914      	ldr	r1, [pc, #80]	; (72c <dhex_dump+0xfc>)
     6dc:	4628      	mov	r0, r5
     6de:	4479      	add	r1, pc
     6e0:	f7ff fec8 	bl	474 <append>
/mnt/disk/raspbian-tee/optee_os/lib/libutils/ext/trace.c:245
     6e4:	2800      	cmp	r0, #0
     6e6:	d0db      	beq.n	6a0 <dhex_dump+0x70>
/mnt/disk/raspbian-tee/optee_os/lib/libutils/ext/trace.c:233 (discriminator 2)
     6e8:	3401      	adds	r4, #1
     6ea:	e7bc      	b.n	666 <dhex_dump+0x36>
/mnt/disk/raspbian-tee/optee_os/lib/libutils/ext/trace.c:247
     6ec:	2f0f      	cmp	r7, #15
     6ee:	d1fb      	bne.n	6e8 <dhex_dump+0xb8>
/mnt/disk/raspbian-tee/optee_os/lib/libutils/ext/trace.c:248
     6f0:	9b03      	ldr	r3, [sp, #12]
     6f2:	4642      	mov	r2, r8
     6f4:	9300      	str	r3, [sp, #0]
     6f6:	4651      	mov	r1, sl
     6f8:	2301      	movs	r3, #1
     6fa:	9501      	str	r5, [sp, #4]
     6fc:	4648      	mov	r0, r9
     6fe:	f7ff fef9 	bl	4f4 <trace_printf>
/mnt/disk/raspbian-tee/optee_os/lib/libutils/ext/trace.c:250
     702:	2300      	movs	r3, #0
     704:	f8c5 3100 	str.w	r3, [r5, #256]	; 0x100
     708:	e7ee      	b.n	6e8 <dhex_dump+0xb8>
     70a:	bf00      	nop
     70c:	00009214 	.word	0x00009214
     710:	00000014 	.word	0x00000014
     714:	00007e32 	.word	0x00007e32
     718:	00007e32 	.word	0x00007e32
     71c:	00007e32 	.word	0x00007e32
     720:	00007e1a 	.word	0x00007e1a
     724:	00007db3 	.word	0x00007db3
     728:	00007deb 	.word	0x00007deb
     72c:	00007db4 	.word	0x00007db4

00000730 <__vsnprintf>:
__vsnprintf():
/mnt/disk/raspbian-tee/optee_os/lib/libutils/ext/snprintk.c:137
     730:	e92d 4ff0 	stmdb	sp!, {r4, r5, r6, r7, r8, r9, sl, fp, lr}
/mnt/disk/raspbian-tee/optee_os/lib/libutils/ext/snprintk.c:141
     734:	4680      	mov	r8, r0
     736:	461f      	mov	r7, r3
/mnt/disk/raspbian-tee/optee_os/lib/libutils/ext/snprintk.c:137
     738:	b09f      	sub	sp, #124	; 0x7c
kprintf():
/mnt/disk/raspbian-tee/optee_os/lib/libutils/ext/snprintk.c:269
     73a:	2300      	movs	r3, #0
__vsnprintf():
/mnt/disk/raspbian-tee/optee_os/lib/libutils/ext/snprintk.c:137
     73c:	920b      	str	r2, [sp, #44]	; 0x2c
     73e:	f89d 20a0 	ldrb.w	r2, [sp, #160]	; 0xa0
     742:	9213      	str	r2, [sp, #76]	; 0x4c
/mnt/disk/raspbian-tee/optee_os/lib/libutils/ext/snprintk.c:141
     744:	4602      	mov	r2, r0
     746:	440a      	add	r2, r1
/mnt/disk/raspbian-tee/optee_os/lib/libutils/ext/snprintk.c:137
     748:	9010      	str	r0, [sp, #64]	; 0x40
     74a:	9112      	str	r1, [sp, #72]	; 0x48
/mnt/disk/raspbian-tee/optee_os/lib/libutils/ext/snprintk.c:141
     74c:	920e      	str	r2, [sp, #56]	; 0x38
kprintf():
/mnt/disk/raspbian-tee/optee_os/lib/libutils/ext/snprintk.c:269
     74e:	930f      	str	r3, [sp, #60]	; 0x3c
/mnt/disk/raspbian-tee/optee_os/lib/libutils/ext/snprintk.c:267
     750:	930c      	str	r3, [sp, #48]	; 0x30
/mnt/disk/raspbian-tee/optee_os/lib/libutils/ext/snprintk.c:275
     752:	9b0b      	ldr	r3, [sp, #44]	; 0x2c
     754:	781b      	ldrb	r3, [r3, #0]
     756:	2b25      	cmp	r3, #37	; 0x25
     758:	d024      	beq.n	7a4 <__vsnprintf+0x74>
     75a:	b993      	cbnz	r3, 782 <__vsnprintf+0x52>
__vsnprintf():
/mnt/disk/raspbian-tee/optee_os/lib/libutils/ext/snprintk.c:143
     75c:	9b10      	ldr	r3, [sp, #64]	; 0x40
     75e:	b163      	cbz	r3, 77a <__vsnprintf+0x4a>
/mnt/disk/raspbian-tee/optee_os/lib/libutils/ext/snprintk.c:143 (discriminator 1)
     760:	9b12      	ldr	r3, [sp, #72]	; 0x48
     762:	b153      	cbz	r3, 77a <__vsnprintf+0x4a>
/mnt/disk/raspbian-tee/optee_os/lib/libutils/ext/snprintk.c:145
     764:	9a0c      	ldr	r2, [sp, #48]	; 0x30
     766:	4293      	cmp	r3, r2
     768:	f04f 0300 	mov.w	r3, #0
/mnt/disk/raspbian-tee/optee_os/lib/libutils/ext/snprintk.c:146
     76c:	9a10      	ldr	r2, [sp, #64]	; 0x40
/mnt/disk/raspbian-tee/optee_os/lib/libutils/ext/snprintk.c:145
     76e:	f200 835f 	bhi.w	e30 <__vsnprintf+0x700>
/mnt/disk/raspbian-tee/optee_os/lib/libutils/ext/snprintk.c:146
     772:	9912      	ldr	r1, [sp, #72]	; 0x48
     774:	440a      	add	r2, r1
     776:	f802 3c01 	strb.w	r3, [r2, #-1]
/mnt/disk/raspbian-tee/optee_os/lib/libutils/ext/snprintk.c:151
     77a:	980c      	ldr	r0, [sp, #48]	; 0x30
     77c:	b01f      	add	sp, #124	; 0x7c
     77e:	e8bd 8ff0 	ldmia.w	sp!, {r4, r5, r6, r7, r8, r9, sl, fp, pc}
kprintf():
/mnt/disk/raspbian-tee/optee_os/lib/libutils/ext/snprintk.c:276
     782:	9a0c      	ldr	r2, [sp, #48]	; 0x30
     784:	3201      	adds	r2, #1
     786:	920c      	str	r2, [sp, #48]	; 0x30
/mnt/disk/raspbian-tee/optee_os/lib/libutils/ext/snprintk.c:277
     788:	f1b8 0f00 	cmp.w	r8, #0
     78c:	d006      	beq.n	79c <__vsnprintf+0x6c>
     78e:	9a0e      	ldr	r2, [sp, #56]	; 0x38
     790:	4542      	cmp	r2, r8
     792:	d903      	bls.n	79c <__vsnprintf+0x6c>
     794:	f888 3000 	strb.w	r3, [r8]
     798:	f108 0801 	add.w	r8, r8, #1
/mnt/disk/raspbian-tee/optee_os/lib/libutils/ext/snprintk.c:275
     79c:	9b0b      	ldr	r3, [sp, #44]	; 0x2c
     79e:	3301      	adds	r3, #1
     7a0:	930b      	str	r3, [sp, #44]	; 0x2c
     7a2:	e7d6      	b.n	752 <__vsnprintf+0x22>
/mnt/disk/raspbian-tee/optee_os/lib/libutils/ext/snprintk.c:282
     7a4:	9b0b      	ldr	r3, [sp, #44]	; 0x2c
/mnt/disk/raspbian-tee/optee_os/lib/libutils/ext/snprintk.c:288
     7a6:	f04f 0a00 	mov.w	sl, #0
/mnt/disk/raspbian-tee/optee_os/lib/libutils/ext/snprintk.c:282
     7aa:	463a      	mov	r2, r7
/mnt/disk/raspbian-tee/optee_os/lib/libutils/ext/snprintk.c:287
     7ac:	f04f 3bff 	mov.w	fp, #4294967295	; 0xffffffff
/mnt/disk/raspbian-tee/optee_os/lib/libutils/ext/snprintk.c:282
     7b0:	3301      	adds	r3, #1
/mnt/disk/raspbian-tee/optee_os/lib/libutils/ext/snprintk.c:284
     7b2:	4656      	mov	r6, sl
/mnt/disk/raspbian-tee/optee_os/lib/libutils/ext/snprintk.c:286
     7b4:	f8cd a034 	str.w	sl, [sp, #52]	; 0x34
/mnt/disk/raspbian-tee/optee_os/lib/libutils/ext/snprintk.c:290
     7b8:	f893 9000 	ldrb.w	r9, [r3]
     7bc:	1c59      	adds	r1, r3, #1
     7be:	910b      	str	r1, [sp, #44]	; 0x2c
/mnt/disk/raspbian-tee/optee_os/lib/libutils/ext/snprintk.c:291
     7c0:	f1b9 0f63 	cmp.w	r9, #99	; 0x63
     7c4:	f000 8163 	beq.w	a8e <__vsnprintf+0x35e>
     7c8:	f300 8095 	bgt.w	8f6 <__vsnprintf+0x1c6>
     7cc:	f1b9 0f30 	cmp.w	r9, #48	; 0x30
     7d0:	f000 8147 	beq.w	a62 <__vsnprintf+0x332>
     7d4:	dc26      	bgt.n	824 <__vsnprintf+0xf4>
     7d6:	f1b9 0f2a 	cmp.w	r9, #42	; 0x2a
     7da:	f000 8119 	beq.w	a10 <__vsnprintf+0x2e0>
     7de:	dc13      	bgt.n	808 <__vsnprintf+0xd8>
     7e0:	f1b9 0f20 	cmp.w	r9, #32
     7e4:	f000 810a 	beq.w	9fc <__vsnprintf+0x2cc>
     7e8:	f1b9 0f23 	cmp.w	r9, #35	; 0x23
     7ec:	f000 810d 	beq.w	a0a <__vsnprintf+0x2da>
/mnt/disk/raspbian-tee/optee_os/lib/libutils/ext/snprintk.c:541
     7f0:	f1b9 0f00 	cmp.w	r9, #0
     7f4:	d0b2      	beq.n	75c <__vsnprintf+0x2c>
/mnt/disk/raspbian-tee/optee_os/lib/libutils/ext/snprintk.c:545
     7f6:	ab1e      	add	r3, sp, #120	; 0x78
     7f8:	4617      	mov	r7, r2
/mnt/disk/raspbian-tee/optee_os/lib/libutils/ext/snprintk.c:546
     7fa:	f04f 0b01 	mov.w	fp, #1
/mnt/disk/raspbian-tee/optee_os/lib/libutils/ext/snprintk.c:545
     7fe:	f803 9d28 	strb.w	r9, [r3, #-40]!
     802:	e0c0      	b.n	986 <__vsnprintf+0x256>
/mnt/disk/raspbian-tee/optee_os/lib/libutils/ext/snprintk.c:311
     804:	461a      	mov	r2, r3
     806:	e00b      	b.n	820 <__vsnprintf+0xf0>
/mnt/disk/raspbian-tee/optee_os/lib/libutils/ext/snprintk.c:291
     808:	f1b9 0f2d 	cmp.w	r9, #45	; 0x2d
     80c:	f000 8109 	beq.w	a22 <__vsnprintf+0x2f2>
     810:	f1b9 0f2e 	cmp.w	r9, #46	; 0x2e
     814:	f000 8108 	beq.w	a28 <__vsnprintf+0x2f8>
     818:	f1b9 0f2b 	cmp.w	r9, #43	; 0x2b
     81c:	d1e8      	bne.n	7f0 <__vsnprintf+0xc0>
/mnt/disk/raspbian-tee/optee_os/lib/libutils/ext/snprintk.c:319
     81e:	46ca      	mov	sl, r9
/mnt/disk/raspbian-tee/optee_os/lib/libutils/ext/snprintk.c:322
     820:	9b0b      	ldr	r3, [sp, #44]	; 0x2c
     822:	e7c9      	b.n	7b8 <__vsnprintf+0x88>
/mnt/disk/raspbian-tee/optee_os/lib/libutils/ext/snprintk.c:291
     824:	f1b9 0f44 	cmp.w	r9, #68	; 0x44
     828:	f000 818a 	beq.w	b40 <__vsnprintf+0x410>
     82c:	dc14      	bgt.n	858 <__vsnprintf+0x128>
     82e:	f1b9 0f39 	cmp.w	r9, #57	; 0x39
     832:	dcdd      	bgt.n	7f0 <__vsnprintf+0xc0>
     834:	2300      	movs	r3, #0
     836:	930d      	str	r3, [sp, #52]	; 0x34
/mnt/disk/raspbian-tee/optee_os/lib/libutils/ext/snprintk.c:346
     838:	9b0d      	ldr	r3, [sp, #52]	; 0x34
     83a:	f1a9 0930 	sub.w	r9, r9, #48	; 0x30
     83e:	210a      	movs	r1, #10
     840:	fb01 9303 	mla	r3, r1, r3, r9
     844:	930d      	str	r3, [sp, #52]	; 0x34
/mnt/disk/raspbian-tee/optee_os/lib/libutils/ext/snprintk.c:347
     846:	9b0b      	ldr	r3, [sp, #44]	; 0x2c
     848:	f813 9b01 	ldrb.w	r9, [r3], #1
     84c:	930b      	str	r3, [sp, #44]	; 0x2c
/mnt/disk/raspbian-tee/optee_os/lib/libutils/ext/snprintk.c:348
     84e:	f1a9 0330 	sub.w	r3, r9, #48	; 0x30
     852:	2b09      	cmp	r3, #9
     854:	d9f0      	bls.n	838 <__vsnprintf+0x108>
     856:	e7b3      	b.n	7c0 <__vsnprintf+0x90>
/mnt/disk/raspbian-tee/optee_os/lib/libutils/ext/snprintk.c:291
     858:	f1b9 0f55 	cmp.w	r9, #85	; 0x55
     85c:	f000 823d 	beq.w	cda <__vsnprintf+0x5aa>
     860:	f1b9 0f58 	cmp.w	r9, #88	; 0x58
     864:	f000 80ab 	beq.w	9be <__vsnprintf+0x28e>
     868:	f1b9 0f4f 	cmp.w	r9, #79	; 0x4f
     86c:	d1c0      	bne.n	7f0 <__vsnprintf+0xc0>
/mnt/disk/raspbian-tee/optee_os/lib/libutils/ext/snprintk.c:408
     86e:	f046 0610 	orr.w	r6, r6, #16
/mnt/disk/raspbian-tee/optee_os/lib/libutils/ext/snprintk.c:411
     872:	0635      	lsls	r5, r6, #24
     874:	f140 81c0 	bpl.w	bf8 <__vsnprintf+0x4c8>
     878:	3207      	adds	r2, #7
     87a:	f022 0207 	bic.w	r2, r2, #7
     87e:	f102 0708 	add.w	r7, r2, #8
     882:	e9d2 4500 	ldrd	r4, r5, [r2]
/mnt/disk/raspbian-tee/optee_os/lib/libutils/ext/snprintk.c:488
     886:	f04f 0a00 	mov.w	sl, #0
     88a:	f1bb 3fff 	cmp.w	fp, #4294967295	; 0xffffffff
     88e:	d011      	beq.n	8b4 <__vsnprintf+0x184>
     890:	4653      	mov	r3, sl
/mnt/disk/raspbian-tee/optee_os/lib/libutils/ext/snprintk.c:489
     892:	f426 6680 	bic.w	r6, r6, #1024	; 0x400
/mnt/disk/raspbian-tee/optee_os/lib/libutils/ext/snprintk.c:497
     896:	ea54 0205 	orrs.w	r2, r4, r5
     89a:	d105      	bne.n	8a8 <__vsnprintf+0x178>
     89c:	f1bb 0f00 	cmp.w	fp, #0
     8a0:	f000 8269 	beq.w	d76 <__vsnprintf+0x646>
     8a4:	2400      	movs	r4, #0
     8a6:	2500      	movs	r5, #0
/mnt/disk/raspbian-tee/optee_os/lib/libutils/ext/snprintk.c:503
     8a8:	2b01      	cmp	r3, #1
     8aa:	f000 8161 	beq.w	b70 <__vsnprintf+0x440>
     8ae:	2b02      	cmp	r3, #2
     8b0:	f000 81f8 	beq.w	ca4 <__vsnprintf+0x574>
/mnt/disk/raspbian-tee/optee_os/lib/libutils/ext/snprintk.c:488
     8b4:	f10d 0275 	add.w	r2, sp, #117	; 0x75
/mnt/disk/raspbian-tee/optee_os/lib/libutils/ext/snprintk.c:507
     8b8:	08e0      	lsrs	r0, r4, #3
     8ba:	ea4f 0cd5 	mov.w	ip, r5, lsr #3
     8be:	ea40 7045 	orr.w	r0, r0, r5, lsl #29
/mnt/disk/raspbian-tee/optee_os/lib/libutils/ext/snprintk.c:506
     8c2:	f004 0107 	and.w	r1, r4, #7
/mnt/disk/raspbian-tee/optee_os/lib/libutils/ext/snprintk.c:507
     8c6:	4665      	mov	r5, ip
     8c8:	4604      	mov	r4, r0
/mnt/disk/raspbian-tee/optee_os/lib/libutils/ext/snprintk.c:506
     8ca:	3130      	adds	r1, #48	; 0x30
     8cc:	1e53      	subs	r3, r2, #1
     8ce:	f802 1c01 	strb.w	r1, [r2, #-1]
/mnt/disk/raspbian-tee/optee_os/lib/libutils/ext/snprintk.c:508
     8d2:	ea54 0005 	orrs.w	r0, r4, r5
     8d6:	f040 8239 	bne.w	d4c <__vsnprintf+0x61c>
/mnt/disk/raspbian-tee/optee_os/lib/libutils/ext/snprintk.c:510
     8da:	07f5      	lsls	r5, r6, #31
     8dc:	d505      	bpl.n	8ea <__vsnprintf+0x1ba>
     8de:	2930      	cmp	r1, #48	; 0x30
     8e0:	d003      	beq.n	8ea <__vsnprintf+0x1ba>
/mnt/disk/raspbian-tee/optee_os/lib/libutils/ext/snprintk.c:511
     8e2:	2130      	movs	r1, #48	; 0x30
     8e4:	f803 1c01 	strb.w	r1, [r3, #-1]
     8e8:	1e93      	subs	r3, r2, #2
/mnt/disk/raspbian-tee/optee_os/lib/libutils/ext/snprintk.c:537
     8ea:	f10d 0275 	add.w	r2, sp, #117	; 0x75
     8ee:	4658      	mov	r0, fp
     8f0:	eba2 0b03 	sub.w	fp, r2, r3
     8f4:	e0d5      	b.n	aa2 <__vsnprintf+0x372>
/mnt/disk/raspbian-tee/optee_os/lib/libutils/ext/snprintk.c:291
     8f6:	f1b9 0f6f 	cmp.w	r9, #111	; 0x6f
     8fa:	d0ba      	beq.n	872 <__vsnprintf+0x142>
     8fc:	dc1e      	bgt.n	93c <__vsnprintf+0x20c>
     8fe:	f1b9 0f69 	cmp.w	r9, #105	; 0x69
     902:	f000 811f 	beq.w	b44 <__vsnprintf+0x414>
     906:	dc0a      	bgt.n	91e <__vsnprintf+0x1ee>
     908:	f1b9 0f64 	cmp.w	r9, #100	; 0x64
     90c:	f000 811a 	beq.w	b44 <__vsnprintf+0x414>
     910:	f1b9 0f68 	cmp.w	r9, #104	; 0x68
     914:	f47f af6c 	bne.w	7f0 <__vsnprintf+0xc0>
/mnt/disk/raspbian-tee/optee_os/lib/libutils/ext/snprintk.c:352
     918:	f046 0640 	orr.w	r6, r6, #64	; 0x40
     91c:	e780      	b.n	820 <__vsnprintf+0xf0>
/mnt/disk/raspbian-tee/optee_os/lib/libutils/ext/snprintk.c:291
     91e:	f1b9 0f6c 	cmp.w	r9, #108	; 0x6c
     922:	f000 80a1 	beq.w	a68 <__vsnprintf+0x338>
     926:	f1b9 0f6e 	cmp.w	r9, #110	; 0x6e
     92a:	f000 8146 	beq.w	bba <__vsnprintf+0x48a>
     92e:	f1b9 0f6a 	cmp.w	r9, #106	; 0x6a
     932:	f47f af5d 	bne.w	7f0 <__vsnprintf+0xc0>
/mnt/disk/raspbian-tee/optee_os/lib/libutils/ext/snprintk.c:355
     936:	f046 0680 	orr.w	r6, r6, #128	; 0x80
     93a:	e771      	b.n	820 <__vsnprintf+0xf0>
/mnt/disk/raspbian-tee/optee_os/lib/libutils/ext/snprintk.c:291
     93c:	f1b9 0f74 	cmp.w	r9, #116	; 0x74
     940:	f000 809f 	beq.w	a82 <__vsnprintf+0x352>
     944:	dc22      	bgt.n	98c <__vsnprintf+0x25c>
     946:	f1b9 0f71 	cmp.w	r9, #113	; 0x71
     94a:	f000 8094 	beq.w	a76 <__vsnprintf+0x346>
     94e:	f2c0 8167 	blt.w	c20 <__vsnprintf+0x4f0>
     952:	f1b9 0f73 	cmp.w	r9, #115	; 0x73
     956:	f47f af4b 	bne.w	7f0 <__vsnprintf+0xc0>
/mnt/disk/raspbian-tee/optee_os/lib/libutils/ext/snprintk.c:442
     95a:	6813      	ldr	r3, [r2, #0]
     95c:	1d17      	adds	r7, r2, #4
     95e:	b913      	cbnz	r3, 966 <__vsnprintf+0x236>
/mnt/disk/raspbian-tee/optee_os/lib/libutils/ext/snprintk.c:444
     960:	f8df 34ec 	ldr.w	r3, [pc, #1260]	; e50 <__vsnprintf+0x720>
     964:	447b      	add	r3, pc
/mnt/disk/raspbian-tee/optee_os/lib/libutils/ext/snprintk.c:445
     966:	f1bb 3fff 	cmp.w	fp, #4294967295	; 0xffffffff
     96a:	f000 81ad 	beq.w	cc8 <__vsnprintf+0x598>
/mnt/disk/raspbian-tee/optee_os/lib/libutils/ext/snprintk.c:451
     96e:	4618      	mov	r0, r3
     970:	465a      	mov	r2, fp
     972:	2100      	movs	r1, #0
     974:	9311      	str	r3, [sp, #68]	; 0x44
     976:	f007 f91f 	bl	7bb8 <memchr>
/mnt/disk/raspbian-tee/optee_os/lib/libutils/ext/snprintk.c:453
     97a:	9b11      	ldr	r3, [sp, #68]	; 0x44
     97c:	b120      	cbz	r0, 988 <__vsnprintf+0x258>
/mnt/disk/raspbian-tee/optee_os/lib/libutils/ext/snprintk.c:454
     97e:	1ac0      	subs	r0, r0, r3
     980:	4583      	cmp	fp, r0
     982:	bfa8      	it	ge
     984:	4683      	movge	fp, r0
/mnt/disk/raspbian-tee/optee_os/lib/libutils/ext/snprintk.c:285
     986:	2000      	movs	r0, #0
/mnt/disk/raspbian-tee/optee_os/lib/libutils/ext/snprintk.c:461
     988:	4682      	mov	sl, r0
     98a:	e08a      	b.n	aa2 <__vsnprintf+0x372>
/mnt/disk/raspbian-tee/optee_os/lib/libutils/ext/snprintk.c:291
     98c:	f1b9 0f78 	cmp.w	r9, #120	; 0x78
     990:	f000 81c2 	beq.w	d18 <__vsnprintf+0x5e8>
     994:	f1b9 0f7a 	cmp.w	r9, #122	; 0x7a
     998:	d076      	beq.n	a88 <__vsnprintf+0x358>
     99a:	f1b9 0f75 	cmp.w	r9, #117	; 0x75
     99e:	f47f af27 	bne.w	7f0 <__vsnprintf+0xc0>
/mnt/disk/raspbian-tee/optee_os/lib/libutils/ext/snprintk.c:467
     9a2:	f016 0380 	ands.w	r3, r6, #128	; 0x80
     9a6:	f000 819b 	beq.w	ce0 <__vsnprintf+0x5b0>
     9aa:	3207      	adds	r2, #7
     9ac:	f022 0207 	bic.w	r2, r2, #7
     9b0:	f102 0708 	add.w	r7, r2, #8
     9b4:	e9d2 4500 	ldrd	r4, r5, [r2]
/mnt/disk/raspbian-tee/optee_os/lib/libutils/ext/snprintk.c:482
     9b8:	f04f 0a00 	mov.w	sl, #0
     9bc:	e0d4      	b.n	b68 <__vsnprintf+0x438>
/mnt/disk/raspbian-tee/optee_os/lib/libutils/ext/snprintk.c:471
     9be:	f8df 3494 	ldr.w	r3, [pc, #1172]	; e54 <__vsnprintf+0x724>
     9c2:	447b      	add	r3, pc
/mnt/disk/raspbian-tee/optee_os/lib/libutils/ext/snprintk.c:474
     9c4:	930f      	str	r3, [sp, #60]	; 0x3c
/mnt/disk/raspbian-tee/optee_os/lib/libutils/ext/snprintk.c:475
     9c6:	0637      	lsls	r7, r6, #24
     9c8:	f140 81aa 	bpl.w	d20 <__vsnprintf+0x5f0>
     9cc:	3207      	adds	r2, #7
     9ce:	f022 0207 	bic.w	r2, r2, #7
     9d2:	f102 0708 	add.w	r7, r2, #8
     9d6:	e9d2 4500 	ldrd	r4, r5, [r2]
/mnt/disk/raspbian-tee/optee_os/lib/libutils/ext/snprintk.c:478
     9da:	07f3      	lsls	r3, r6, #31
     9dc:	f140 815c 	bpl.w	c98 <__vsnprintf+0x568>
     9e0:	ea54 0305 	orrs.w	r3, r4, r5
     9e4:	f000 822d 	beq.w	e42 <__vsnprintf+0x712>
/mnt/disk/raspbian-tee/optee_os/lib/libutils/ext/snprintk.c:479
     9e8:	f046 0602 	orr.w	r6, r6, #2
/mnt/disk/raspbian-tee/optee_os/lib/libutils/ext/snprintk.c:488
     9ec:	f1bb 3fff 	cmp.w	fp, #4294967295	; 0xffffffff
     9f0:	f000 822a 	beq.w	e48 <__vsnprintf+0x718>
     9f4:	f04f 0a00 	mov.w	sl, #0
     9f8:	2302      	movs	r3, #2
     9fa:	e74a      	b.n	892 <__vsnprintf+0x162>
/mnt/disk/raspbian-tee/optee_os/lib/libutils/ext/snprintk.c:299
     9fc:	f1ba 0f00 	cmp.w	sl, #0
     a00:	f04f 0320 	mov.w	r3, #32
     a04:	bf08      	it	eq
     a06:	469a      	moveq	sl, r3
     a08:	e70a      	b.n	820 <__vsnprintf+0xf0>
/mnt/disk/raspbian-tee/optee_os/lib/libutils/ext/snprintk.c:302
     a0a:	f046 0601 	orr.w	r6, r6, #1
     a0e:	e707      	b.n	820 <__vsnprintf+0xf0>
/mnt/disk/raspbian-tee/optee_os/lib/libutils/ext/snprintk.c:311
     a10:	1d13      	adds	r3, r2, #4
     a12:	6812      	ldr	r2, [r2, #0]
     a14:	920d      	str	r2, [sp, #52]	; 0x34
     a16:	2a00      	cmp	r2, #0
     a18:	f6bf aef4 	bge.w	804 <__vsnprintf+0xd4>
/mnt/disk/raspbian-tee/optee_os/lib/libutils/ext/snprintk.c:313
     a1c:	4252      	negs	r2, r2
     a1e:	920d      	str	r2, [sp, #52]	; 0x34
/mnt/disk/raspbian-tee/optee_os/lib/libutils/ext/snprintk.c:311
     a20:	461a      	mov	r2, r3
/mnt/disk/raspbian-tee/optee_os/lib/libutils/ext/snprintk.c:316
     a22:	f046 0604 	orr.w	r6, r6, #4
     a26:	e6fb      	b.n	820 <__vsnprintf+0xf0>
/mnt/disk/raspbian-tee/optee_os/lib/libutils/ext/snprintk.c:322
     a28:	990b      	ldr	r1, [sp, #44]	; 0x2c
     a2a:	9b0b      	ldr	r3, [sp, #44]	; 0x2c
     a2c:	f891 9000 	ldrb.w	r9, [r1]
     a30:	3301      	adds	r3, #1
     a32:	f1b9 0f2a 	cmp.w	r9, #42	; 0x2a
     a36:	d00e      	beq.n	a56 <__vsnprintf+0x326>
     a38:	f04f 0b00 	mov.w	fp, #0
/mnt/disk/raspbian-tee/optee_os/lib/libutils/ext/snprintk.c:330
     a3c:	930b      	str	r3, [sp, #44]	; 0x2c
/mnt/disk/raspbian-tee/optee_os/lib/libutils/ext/snprintk.c:328
     a3e:	f1a9 0330 	sub.w	r3, r9, #48	; 0x30
     a42:	2b09      	cmp	r3, #9
     a44:	f63f aebc 	bhi.w	7c0 <__vsnprintf+0x90>
/mnt/disk/raspbian-tee/optee_os/lib/libutils/ext/snprintk.c:329
     a48:	210a      	movs	r1, #10
     a4a:	fb01 3b0b 	mla	fp, r1, fp, r3
/mnt/disk/raspbian-tee/optee_os/lib/libutils/ext/snprintk.c:330
     a4e:	9b0b      	ldr	r3, [sp, #44]	; 0x2c
     a50:	f813 9b01 	ldrb.w	r9, [r3], #1
     a54:	e7f2      	b.n	a3c <__vsnprintf+0x30c>
/mnt/disk/raspbian-tee/optee_os/lib/libutils/ext/snprintk.c:324
     a56:	6811      	ldr	r1, [r2, #0]
/mnt/disk/raspbian-tee/optee_os/lib/libutils/ext/snprintk.c:323
     a58:	3204      	adds	r2, #4
/mnt/disk/raspbian-tee/optee_os/lib/libutils/ext/snprintk.c:322
     a5a:	930b      	str	r3, [sp, #44]	; 0x2c
/mnt/disk/raspbian-tee/optee_os/lib/libutils/ext/snprintk.c:324
     a5c:	ea41 7be1 	orr.w	fp, r1, r1, asr #31
     a60:	e6de      	b.n	820 <__vsnprintf+0xf0>
/mnt/disk/raspbian-tee/optee_os/lib/libutils/ext/snprintk.c:340
     a62:	f446 6680 	orr.w	r6, r6, #1024	; 0x400
     a66:	e6db      	b.n	820 <__vsnprintf+0xf0>
/mnt/disk/raspbian-tee/optee_os/lib/libutils/ext/snprintk.c:358
     a68:	9b0b      	ldr	r3, [sp, #44]	; 0x2c
     a6a:	781b      	ldrb	r3, [r3, #0]
     a6c:	2b6c      	cmp	r3, #108	; 0x6c
     a6e:	d105      	bne.n	a7c <__vsnprintf+0x34c>
/mnt/disk/raspbian-tee/optee_os/lib/libutils/ext/snprintk.c:359
     a70:	9b0b      	ldr	r3, [sp, #44]	; 0x2c
     a72:	3301      	adds	r3, #1
     a74:	930b      	str	r3, [sp, #44]	; 0x2c
/mnt/disk/raspbian-tee/optee_os/lib/libutils/ext/snprintk.c:366
     a76:	f046 0620 	orr.w	r6, r6, #32
     a7a:	e6d1      	b.n	820 <__vsnprintf+0xf0>
/mnt/disk/raspbian-tee/optee_os/lib/libutils/ext/snprintk.c:362
     a7c:	f046 0610 	orr.w	r6, r6, #16
     a80:	e6ce      	b.n	820 <__vsnprintf+0xf0>
/mnt/disk/raspbian-tee/optee_os/lib/libutils/ext/snprintk.c:369
     a82:	f446 7680 	orr.w	r6, r6, #256	; 0x100
     a86:	e6cb      	b.n	820 <__vsnprintf+0xf0>
/mnt/disk/raspbian-tee/optee_os/lib/libutils/ext/snprintk.c:372
     a88:	f446 7600 	orr.w	r6, r6, #512	; 0x200
     a8c:	e6c8      	b.n	820 <__vsnprintf+0xf0>
/mnt/disk/raspbian-tee/optee_os/lib/libutils/ext/snprintk.c:375
     a8e:	ab1e      	add	r3, sp, #120	; 0x78
/mnt/disk/raspbian-tee/optee_os/lib/libutils/ext/snprintk.c:285
     a90:	f04f 0a00 	mov.w	sl, #0
/mnt/disk/raspbian-tee/optee_os/lib/libutils/ext/snprintk.c:375
     a94:	1d17      	adds	r7, r2, #4
/mnt/disk/raspbian-tee/optee_os/lib/libutils/ext/snprintk.c:376
     a96:	f04f 0b01 	mov.w	fp, #1
/mnt/disk/raspbian-tee/optee_os/lib/libutils/ext/snprintk.c:375
     a9a:	6812      	ldr	r2, [r2, #0]
/mnt/disk/raspbian-tee/optee_os/lib/libutils/ext/snprintk.c:377
     a9c:	4650      	mov	r0, sl
/mnt/disk/raspbian-tee/optee_os/lib/libutils/ext/snprintk.c:375
     a9e:	f803 2d28 	strb.w	r2, [r3, #-40]!
/mnt/disk/raspbian-tee/optee_os/lib/libutils/ext/snprintk.c:565
     aa2:	4558      	cmp	r0, fp
     aa4:	4602      	mov	r2, r0
     aa6:	bfb8      	it	lt
     aa8:	465a      	movlt	r2, fp
/mnt/disk/raspbian-tee/optee_os/lib/libutils/ext/snprintk.c:566
     aaa:	f1ba 0f00 	cmp.w	sl, #0
     aae:	f000 8165 	beq.w	d7c <__vsnprintf+0x64c>
/mnt/disk/raspbian-tee/optee_os/lib/libutils/ext/snprintk.c:567
     ab2:	3201      	adds	r2, #1
/mnt/disk/raspbian-tee/optee_os/lib/libutils/ext/snprintk.c:572
     ab4:	990d      	ldr	r1, [sp, #52]	; 0x34
     ab6:	9c0c      	ldr	r4, [sp, #48]	; 0x30
     ab8:	4291      	cmp	r1, r2
     aba:	bfb8      	it	lt
     abc:	4611      	movlt	r1, r2
     abe:	440c      	add	r4, r1
/mnt/disk/raspbian-tee/optee_os/lib/libutils/ext/snprintk.c:575
     ac0:	f240 4104 	movw	r1, #1028	; 0x404
/mnt/disk/raspbian-tee/optee_os/lib/libutils/ext/snprintk.c:572
     ac4:	940c      	str	r4, [sp, #48]	; 0x30
/mnt/disk/raspbian-tee/optee_os/lib/libutils/ext/snprintk.c:575
     ac6:	ea16 0401 	ands.w	r4, r6, r1
     aca:	d106      	bne.n	ada <__vsnprintf+0x3aa>
/mnt/disk/raspbian-tee/optee_os/lib/libutils/ext/snprintk.c:576
     acc:	990d      	ldr	r1, [sp, #52]	; 0x34
/mnt/disk/raspbian-tee/optee_os/lib/libutils/ext/snprintk.c:578
     ace:	f04f 0c20 	mov.w	ip, #32
/mnt/disk/raspbian-tee/optee_os/lib/libutils/ext/snprintk.c:576
     ad2:	1a89      	subs	r1, r1, r2
/mnt/disk/raspbian-tee/optee_os/lib/libutils/ext/snprintk.c:577
     ad4:	2900      	cmp	r1, #0
     ad6:	f300 8155 	bgt.w	d84 <__vsnprintf+0x654>
/mnt/disk/raspbian-tee/optee_os/lib/libutils/ext/snprintk.c:582
     ada:	f1ba 0f00 	cmp.w	sl, #0
     ade:	f000 8166 	beq.w	dae <__vsnprintf+0x67e>
/mnt/disk/raspbian-tee/optee_os/lib/libutils/ext/snprintk.c:583
     ae2:	f1b8 0f00 	cmp.w	r8, #0
     ae6:	f040 8159 	bne.w	d9c <__vsnprintf+0x66c>
/mnt/disk/raspbian-tee/optee_os/lib/libutils/ext/snprintk.c:586
     aea:	f04f 0800 	mov.w	r8, #0
/mnt/disk/raspbian-tee/optee_os/lib/libutils/ext/snprintk.c:590
     aee:	f5b4 6f80 	cmp.w	r4, #1024	; 0x400
     af2:	d105      	bne.n	b00 <__vsnprintf+0x3d0>
/mnt/disk/raspbian-tee/optee_os/lib/libutils/ext/snprintk.c:591
     af4:	990d      	ldr	r1, [sp, #52]	; 0x34
/mnt/disk/raspbian-tee/optee_os/lib/libutils/ext/snprintk.c:593
     af6:	2430      	movs	r4, #48	; 0x30
/mnt/disk/raspbian-tee/optee_os/lib/libutils/ext/snprintk.c:591
     af8:	1a89      	subs	r1, r1, r2
/mnt/disk/raspbian-tee/optee_os/lib/libutils/ext/snprintk.c:592
     afa:	2900      	cmp	r1, #0
     afc:	f300 8173 	bgt.w	de6 <__vsnprintf+0x6b6>
/mnt/disk/raspbian-tee/optee_os/lib/libutils/ext/snprintk.c:597
     b00:	eba0 000b 	sub.w	r0, r0, fp
/mnt/disk/raspbian-tee/optee_os/lib/libutils/ext/snprintk.c:599
     b04:	2130      	movs	r1, #48	; 0x30
/mnt/disk/raspbian-tee/optee_os/lib/libutils/ext/snprintk.c:598
     b06:	2800      	cmp	r0, #0
     b08:	f300 8179 	bgt.w	dfe <__vsnprintf+0x6ce>
     b0c:	eb03 010b 	add.w	r1, r3, fp
/mnt/disk/raspbian-tee/optee_os/lib/libutils/ext/snprintk.c:602
     b10:	428b      	cmp	r3, r1
     b12:	f040 8180 	bne.w	e16 <__vsnprintf+0x6e6>
/mnt/disk/raspbian-tee/optee_os/lib/libutils/ext/snprintk.c:605
     b16:	0773      	lsls	r3, r6, #29
     b18:	f57f ae1b 	bpl.w	752 <__vsnprintf+0x22>
/mnt/disk/raspbian-tee/optee_os/lib/libutils/ext/snprintk.c:606
     b1c:	9b0d      	ldr	r3, [sp, #52]	; 0x34
     b1e:	1a9b      	subs	r3, r3, r2
/mnt/disk/raspbian-tee/optee_os/lib/libutils/ext/snprintk.c:608
     b20:	2220      	movs	r2, #32
/mnt/disk/raspbian-tee/optee_os/lib/libutils/ext/snprintk.c:607
     b22:	2b00      	cmp	r3, #0
     b24:	f77f ae15 	ble.w	752 <__vsnprintf+0x22>
/mnt/disk/raspbian-tee/optee_os/lib/libutils/ext/snprintk.c:608
     b28:	f1b8 0f00 	cmp.w	r8, #0
     b2c:	d006      	beq.n	b3c <__vsnprintf+0x40c>
     b2e:	990e      	ldr	r1, [sp, #56]	; 0x38
     b30:	4541      	cmp	r1, r8
     b32:	d903      	bls.n	b3c <__vsnprintf+0x40c>
     b34:	f888 2000 	strb.w	r2, [r8]
     b38:	f108 0801 	add.w	r8, r8, #1
     b3c:	3b01      	subs	r3, #1
     b3e:	e7f0      	b.n	b22 <__vsnprintf+0x3f2>
/mnt/disk/raspbian-tee/optee_os/lib/libutils/ext/snprintk.c:380
     b40:	f046 0610 	orr.w	r6, r6, #16
/mnt/disk/raspbian-tee/optee_os/lib/libutils/ext/snprintk.c:384
     b44:	0631      	lsls	r1, r6, #24
     b46:	d523      	bpl.n	b90 <__vsnprintf+0x460>
     b48:	3207      	adds	r2, #7
     b4a:	f022 0207 	bic.w	r2, r2, #7
     b4e:	f102 0708 	add.w	r7, r2, #8
     b52:	e9d2 4500 	ldrd	r4, r5, [r2]
/mnt/disk/raspbian-tee/optee_os/lib/libutils/ext/snprintk.c:385
     b56:	2c00      	cmp	r4, #0
     b58:	f175 0300 	sbcs.w	r3, r5, #0
     b5c:	da04      	bge.n	b68 <__vsnprintf+0x438>
/mnt/disk/raspbian-tee/optee_os/lib/libutils/ext/snprintk.c:386
     b5e:	4264      	negs	r4, r4
/mnt/disk/raspbian-tee/optee_os/lib/libutils/ext/snprintk.c:387
     b60:	f04f 0a2d 	mov.w	sl, #45	; 0x2d
/mnt/disk/raspbian-tee/optee_os/lib/libutils/ext/snprintk.c:386
     b64:	eb65 0545 	sbc.w	r5, r5, r5, lsl #1
/mnt/disk/raspbian-tee/optee_os/lib/libutils/ext/snprintk.c:488
     b68:	f1bb 3fff 	cmp.w	fp, #4294967295	; 0xffffffff
     b6c:	f040 80ec 	bne.w	d48 <__vsnprintf+0x618>
/mnt/disk/raspbian-tee/optee_os/lib/libutils/ext/snprintk.c:508
     b70:	f10d 0375 	add.w	r3, sp, #117	; 0x75
     b74:	9311      	str	r3, [sp, #68]	; 0x44
     b76:	9b11      	ldr	r3, [sp, #68]	; 0x44
/mnt/disk/raspbian-tee/optee_os/lib/libutils/ext/snprintk.c:516
     b78:	2d00      	cmp	r5, #0
     b7a:	bf08      	it	eq
     b7c:	2c0a      	cmpeq	r4, #10
     b7e:	f103 33ff 	add.w	r3, r3, #4294967295	; 0xffffffff
     b82:	f080 80e5 	bcs.w	d50 <__vsnprintf+0x620>
/mnt/disk/raspbian-tee/optee_os/lib/libutils/ext/snprintk.c:520
     b86:	9a11      	ldr	r2, [sp, #68]	; 0x44
     b88:	3430      	adds	r4, #48	; 0x30
     b8a:	f802 4c01 	strb.w	r4, [r2, #-1]
     b8e:	e6ac      	b.n	8ea <__vsnprintf+0x1ba>
/mnt/disk/raspbian-tee/optee_os/lib/libutils/ext/snprintk.c:384
     b90:	05f3      	lsls	r3, r6, #23
     b92:	d503      	bpl.n	b9c <__vsnprintf+0x46c>
     b94:	1d17      	adds	r7, r2, #4
     b96:	6814      	ldr	r4, [r2, #0]
     b98:	17e5      	asrs	r5, r4, #31
     b9a:	e7dc      	b.n	b56 <__vsnprintf+0x426>
     b9c:	05b7      	lsls	r7, r6, #22
     b9e:	d4f9      	bmi.n	b94 <__vsnprintf+0x464>
     ba0:	06b5      	lsls	r5, r6, #26
     ba2:	d4d1      	bmi.n	b48 <__vsnprintf+0x418>
     ba4:	f016 0f10 	tst.w	r6, #16
     ba8:	f102 0704 	add.w	r7, r2, #4
     bac:	d1f3      	bne.n	b96 <__vsnprintf+0x466>
     bae:	f016 0f40 	tst.w	r6, #64	; 0x40
     bb2:	6814      	ldr	r4, [r2, #0]
     bb4:	d0f0      	beq.n	b98 <__vsnprintf+0x468>
     bb6:	b224      	sxth	r4, r4
     bb8:	e7ee      	b.n	b98 <__vsnprintf+0x468>
/mnt/disk/raspbian-tee/optee_os/lib/libutils/ext/snprintk.c:392
     bba:	f016 0f80 	tst.w	r6, #128	; 0x80
     bbe:	f102 0704 	add.w	r7, r2, #4
     bc2:	d006      	beq.n	bd2 <__vsnprintf+0x4a2>
/mnt/disk/raspbian-tee/optee_os/lib/libutils/ext/snprintk.c:399
     bc4:	6813      	ldr	r3, [r2, #0]
     bc6:	9a0c      	ldr	r2, [sp, #48]	; 0x30
     bc8:	4610      	mov	r0, r2
     bca:	17d1      	asrs	r1, r2, #31
     bcc:	e9c3 0100 	strd	r0, r1, [r3]
     bd0:	e5bf      	b.n	752 <__vsnprintf+0x22>
/mnt/disk/raspbian-tee/optee_os/lib/libutils/ext/snprintk.c:394
     bd2:	05f4      	lsls	r4, r6, #23
     bd4:	d503      	bpl.n	bde <__vsnprintf+0x4ae>
/mnt/disk/raspbian-tee/optee_os/lib/libutils/ext/snprintk.c:405
     bd6:	6813      	ldr	r3, [r2, #0]
     bd8:	9a0c      	ldr	r2, [sp, #48]	; 0x30
     bda:	601a      	str	r2, [r3, #0]
     bdc:	e5b9      	b.n	752 <__vsnprintf+0x22>
/mnt/disk/raspbian-tee/optee_os/lib/libutils/ext/snprintk.c:396
     bde:	05b0      	lsls	r0, r6, #22
     be0:	d4f9      	bmi.n	bd6 <__vsnprintf+0x4a6>
/mnt/disk/raspbian-tee/optee_os/lib/libutils/ext/snprintk.c:398
     be2:	06b1      	lsls	r1, r6, #26
     be4:	d4ee      	bmi.n	bc4 <__vsnprintf+0x494>
/mnt/disk/raspbian-tee/optee_os/lib/libutils/ext/snprintk.c:400
     be6:	06f3      	lsls	r3, r6, #27
     be8:	d4f5      	bmi.n	bd6 <__vsnprintf+0x4a6>
/mnt/disk/raspbian-tee/optee_os/lib/libutils/ext/snprintk.c:402
     bea:	0676      	lsls	r6, r6, #25
     bec:	d5f3      	bpl.n	bd6 <__vsnprintf+0x4a6>
/mnt/disk/raspbian-tee/optee_os/lib/libutils/ext/snprintk.c:403
     bee:	6813      	ldr	r3, [r2, #0]
     bf0:	f8bd 2030 	ldrh.w	r2, [sp, #48]	; 0x30
     bf4:	801a      	strh	r2, [r3, #0]
     bf6:	e5ac      	b.n	752 <__vsnprintf+0x22>
/mnt/disk/raspbian-tee/optee_os/lib/libutils/ext/snprintk.c:411
     bf8:	05f4      	lsls	r4, r6, #23
     bfa:	d502      	bpl.n	c02 <__vsnprintf+0x4d2>
     bfc:	1d17      	adds	r7, r2, #4
     bfe:	6814      	ldr	r4, [r2, #0]
     c00:	e00c      	b.n	c1c <__vsnprintf+0x4ec>
     c02:	05b0      	lsls	r0, r6, #22
     c04:	d4fa      	bmi.n	bfc <__vsnprintf+0x4cc>
     c06:	06b1      	lsls	r1, r6, #26
     c08:	f53f ae36 	bmi.w	878 <__vsnprintf+0x148>
     c0c:	f016 0f10 	tst.w	r6, #16
     c10:	f102 0704 	add.w	r7, r2, #4
     c14:	d1f3      	bne.n	bfe <__vsnprintf+0x4ce>
     c16:	0673      	lsls	r3, r6, #25
     c18:	d5f1      	bpl.n	bfe <__vsnprintf+0x4ce>
     c1a:	8814      	ldrh	r4, [r2, #0]
     c1c:	2500      	movs	r5, #0
     c1e:	e632      	b.n	886 <__vsnprintf+0x156>
/mnt/disk/raspbian-tee/optee_os/lib/libutils/ext/snprintk.c:415
     c20:	9b13      	ldr	r3, [sp, #76]	; 0x4c
     c22:	2b00      	cmp	r3, #0
     c24:	d02d      	beq.n	c82 <__vsnprintf+0x552>
     c26:	9b0b      	ldr	r3, [sp, #44]	; 0x2c
     c28:	781b      	ldrb	r3, [r3, #0]
     c2a:	2b55      	cmp	r3, #85	; 0x55
     c2c:	d129      	bne.n	c82 <__vsnprintf+0x552>
     c2e:	9b0b      	ldr	r3, [sp, #44]	; 0x2c
     c30:	785b      	ldrb	r3, [r3, #1]
     c32:	2b6c      	cmp	r3, #108	; 0x6c
     c34:	d125      	bne.n	c82 <__vsnprintf+0x552>
/mnt/disk/raspbian-tee/optee_os/lib/libutils/ext/snprintk.c:420
     c36:	9b0b      	ldr	r3, [sp, #44]	; 0x2c
/mnt/disk/raspbian-tee/optee_os/lib/libutils/ext/snprintk.c:421
     c38:	1d17      	adds	r7, r2, #4
uuid2str():
/mnt/disk/raspbian-tee/optee_os/lib/libutils/ext/snprintk.c:223
     c3a:	ac14      	add	r4, sp, #80	; 0x50
     c3c:	2125      	movs	r1, #37	; 0x25
kprintf():
/mnt/disk/raspbian-tee/optee_os/lib/libutils/ext/snprintk.c:420
     c3e:	3302      	adds	r3, #2
     c40:	930b      	str	r3, [sp, #44]	; 0x2c
/mnt/disk/raspbian-tee/optee_os/lib/libutils/ext/snprintk.c:421
     c42:	6813      	ldr	r3, [r2, #0]
uuid2str():
/mnt/disk/raspbian-tee/optee_os/lib/libutils/ext/snprintk.c:223
     c44:	4620      	mov	r0, r4
     c46:	7bda      	ldrb	r2, [r3, #15]
     c48:	9209      	str	r2, [sp, #36]	; 0x24
     c4a:	7b9a      	ldrb	r2, [r3, #14]
     c4c:	9208      	str	r2, [sp, #32]
     c4e:	7b5a      	ldrb	r2, [r3, #13]
     c50:	9207      	str	r2, [sp, #28]
     c52:	7b1a      	ldrb	r2, [r3, #12]
     c54:	9206      	str	r2, [sp, #24]
     c56:	7ada      	ldrb	r2, [r3, #11]
     c58:	9205      	str	r2, [sp, #20]
     c5a:	7a9a      	ldrb	r2, [r3, #10]
     c5c:	9204      	str	r2, [sp, #16]
     c5e:	7a5a      	ldrb	r2, [r3, #9]
     c60:	9203      	str	r2, [sp, #12]
     c62:	7a1a      	ldrb	r2, [r3, #8]
     c64:	9202      	str	r2, [sp, #8]
     c66:	88da      	ldrh	r2, [r3, #6]
     c68:	9201      	str	r2, [sp, #4]
     c6a:	889a      	ldrh	r2, [r3, #4]
     c6c:	9200      	str	r2, [sp, #0]
     c6e:	4a7a      	ldr	r2, [pc, #488]	; (e58 <__vsnprintf+0x728>)
     c70:	681b      	ldr	r3, [r3, #0]
     c72:	447a      	add	r2, pc
     c74:	f000 f8fd 	bl	e72 <snprintk>
     c78:	4683      	mov	fp, r0
kprintf():
/mnt/disk/raspbian-tee/optee_os/lib/libutils/ext/snprintk.c:285
     c7a:	2000      	movs	r0, #0
/mnt/disk/raspbian-tee/optee_os/lib/libutils/ext/snprintk.c:423
     c7c:	4623      	mov	r3, r4
/mnt/disk/raspbian-tee/optee_os/lib/libutils/ext/snprintk.c:424
     c7e:	4682      	mov	sl, r0
     c80:	e70f      	b.n	aa2 <__vsnprintf+0x372>
/mnt/disk/raspbian-tee/optee_os/lib/libutils/ext/snprintk.c:437
     c82:	4b76      	ldr	r3, [pc, #472]	; (e5c <__vsnprintf+0x72c>)
/mnt/disk/raspbian-tee/optee_os/lib/libutils/ext/snprintk.c:435
     c84:	1d17      	adds	r7, r2, #4
     c86:	6814      	ldr	r4, [r2, #0]
     c88:	2500      	movs	r5, #0
/mnt/disk/raspbian-tee/optee_os/lib/libutils/ext/snprintk.c:437
     c8a:	447b      	add	r3, pc
/mnt/disk/raspbian-tee/optee_os/lib/libutils/ext/snprintk.c:438
     c8c:	f046 0602 	orr.w	r6, r6, #2
/mnt/disk/raspbian-tee/optee_os/lib/libutils/ext/snprintk.c:439
     c90:	f04f 0978 	mov.w	r9, #120	; 0x78
/mnt/disk/raspbian-tee/optee_os/lib/libutils/ext/snprintk.c:437
     c94:	3311      	adds	r3, #17
     c96:	930f      	str	r3, [sp, #60]	; 0x3c
/mnt/disk/raspbian-tee/optee_os/lib/libutils/ext/snprintk.c:488
     c98:	f1bb 3fff 	cmp.w	fp, #4294967295	; 0xffffffff
     c9c:	f47f aeaa 	bne.w	9f4 <__vsnprintf+0x2c4>
     ca0:	f04f 0a00 	mov.w	sl, #0
     ca4:	f10d 0375 	add.w	r3, sp, #117	; 0x75
/mnt/disk/raspbian-tee/optee_os/lib/libutils/ext/snprintk.c:525
     ca8:	f004 020f 	and.w	r2, r4, #15
     cac:	990f      	ldr	r1, [sp, #60]	; 0x3c
     cae:	5c8a      	ldrb	r2, [r1, r2]
/mnt/disk/raspbian-tee/optee_os/lib/libutils/ext/snprintk.c:526
     cb0:	0929      	lsrs	r1, r5, #4
/mnt/disk/raspbian-tee/optee_os/lib/libutils/ext/snprintk.c:525
     cb2:	f803 2d01 	strb.w	r2, [r3, #-1]!
/mnt/disk/raspbian-tee/optee_os/lib/libutils/ext/snprintk.c:526
     cb6:	0922      	lsrs	r2, r4, #4
     cb8:	ea42 7205 	orr.w	r2, r2, r5, lsl #28
     cbc:	460d      	mov	r5, r1
     cbe:	4614      	mov	r4, r2
/mnt/disk/raspbian-tee/optee_os/lib/libutils/ext/snprintk.c:527
     cc0:	ea54 0205 	orrs.w	r2, r4, r5
     cc4:	d1f0      	bne.n	ca8 <__vsnprintf+0x578>
     cc6:	e610      	b.n	8ea <__vsnprintf+0x1ba>
/mnt/disk/raspbian-tee/optee_os/lib/libutils/ext/snprintk.c:460
     cc8:	4618      	mov	r0, r3
     cca:	9311      	str	r3, [sp, #68]	; 0x44
     ccc:	f006 ff82 	bl	7bd4 <strlen>
     cd0:	4683      	mov	fp, r0
/mnt/disk/raspbian-tee/optee_os/lib/libutils/ext/snprintk.c:285
     cd2:	2000      	movs	r0, #0
     cd4:	9b11      	ldr	r3, [sp, #68]	; 0x44
/mnt/disk/raspbian-tee/optee_os/lib/libutils/ext/snprintk.c:461
     cd6:	4682      	mov	sl, r0
     cd8:	e6e3      	b.n	aa2 <__vsnprintf+0x372>
/mnt/disk/raspbian-tee/optee_os/lib/libutils/ext/snprintk.c:464
     cda:	f046 0610 	orr.w	r6, r6, #16
     cde:	e660      	b.n	9a2 <__vsnprintf+0x272>
/mnt/disk/raspbian-tee/optee_os/lib/libutils/ext/snprintk.c:467
     ce0:	f416 7a80 	ands.w	sl, r6, #256	; 0x100
     ce4:	d003      	beq.n	cee <__vsnprintf+0x5be>
     ce6:	6814      	ldr	r4, [r2, #0]
     ce8:	1d17      	adds	r7, r2, #4
     cea:	2500      	movs	r5, #0
     cec:	e664      	b.n	9b8 <__vsnprintf+0x288>
     cee:	f416 7300 	ands.w	r3, r6, #512	; 0x200
     cf2:	d003      	beq.n	cfc <__vsnprintf+0x5cc>
     cf4:	1d17      	adds	r7, r2, #4
     cf6:	6814      	ldr	r4, [r2, #0]
     cf8:	2500      	movs	r5, #0
     cfa:	e735      	b.n	b68 <__vsnprintf+0x438>
     cfc:	f016 0a20 	ands.w	sl, r6, #32
     d00:	f47f ae53 	bne.w	9aa <__vsnprintf+0x27a>
     d04:	f016 0310 	ands.w	r3, r6, #16
     d08:	f102 0704 	add.w	r7, r2, #4
     d0c:	d1f3      	bne.n	cf6 <__vsnprintf+0x5c6>
     d0e:	f016 0a40 	ands.w	sl, r6, #64	; 0x40
     d12:	d0f0      	beq.n	cf6 <__vsnprintf+0x5c6>
     d14:	8814      	ldrh	r4, [r2, #0]
     d16:	e7e8      	b.n	cea <__vsnprintf+0x5ba>
/mnt/disk/raspbian-tee/optee_os/lib/libutils/ext/snprintk.c:474
     d18:	4b51      	ldr	r3, [pc, #324]	; (e60 <__vsnprintf+0x730>)
     d1a:	447b      	add	r3, pc
     d1c:	3311      	adds	r3, #17
     d1e:	e651      	b.n	9c4 <__vsnprintf+0x294>
/mnt/disk/raspbian-tee/optee_os/lib/libutils/ext/snprintk.c:475
     d20:	05f5      	lsls	r5, r6, #23
     d22:	d502      	bpl.n	d2a <__vsnprintf+0x5fa>
     d24:	1d17      	adds	r7, r2, #4
     d26:	6814      	ldr	r4, [r2, #0]
     d28:	e00c      	b.n	d44 <__vsnprintf+0x614>
     d2a:	05b4      	lsls	r4, r6, #22
     d2c:	d4fa      	bmi.n	d24 <__vsnprintf+0x5f4>
     d2e:	06b0      	lsls	r0, r6, #26
     d30:	f53f ae4c 	bmi.w	9cc <__vsnprintf+0x29c>
     d34:	f016 0f10 	tst.w	r6, #16
     d38:	f102 0704 	add.w	r7, r2, #4
     d3c:	d1f3      	bne.n	d26 <__vsnprintf+0x5f6>
     d3e:	0671      	lsls	r1, r6, #25
     d40:	d5f1      	bpl.n	d26 <__vsnprintf+0x5f6>
     d42:	8814      	ldrh	r4, [r2, #0]
     d44:	2500      	movs	r5, #0
     d46:	e648      	b.n	9da <__vsnprintf+0x2aa>
/mnt/disk/raspbian-tee/optee_os/lib/libutils/ext/snprintk.c:488
     d48:	2301      	movs	r3, #1
     d4a:	e5a2      	b.n	892 <__vsnprintf+0x162>
/mnt/disk/raspbian-tee/optee_os/lib/libutils/ext/snprintk.c:508
     d4c:	461a      	mov	r2, r3
     d4e:	e5b3      	b.n	8b8 <__vsnprintf+0x188>
/mnt/disk/raspbian-tee/optee_os/lib/libutils/ext/snprintk.c:517
     d50:	9311      	str	r3, [sp, #68]	; 0x44
     d52:	4620      	mov	r0, r4
     d54:	4629      	mov	r1, r5
     d56:	220a      	movs	r2, #10
     d58:	2300      	movs	r3, #0
     d5a:	f000 e8a4 	blx	ea4 <__aeabi_uldivmod>
     d5e:	9b11      	ldr	r3, [sp, #68]	; 0x44
     d60:	3230      	adds	r2, #48	; 0x30
/mnt/disk/raspbian-tee/optee_os/lib/libutils/ext/snprintk.c:518
     d62:	4620      	mov	r0, r4
     d64:	4629      	mov	r1, r5
/mnt/disk/raspbian-tee/optee_os/lib/libutils/ext/snprintk.c:517
     d66:	701a      	strb	r2, [r3, #0]
/mnt/disk/raspbian-tee/optee_os/lib/libutils/ext/snprintk.c:518
     d68:	220a      	movs	r2, #10
     d6a:	2300      	movs	r3, #0
     d6c:	f000 e89a 	blx	ea4 <__aeabi_uldivmod>
     d70:	4604      	mov	r4, r0
     d72:	460d      	mov	r5, r1
     d74:	e6ff      	b.n	b76 <__vsnprintf+0x446>
/mnt/disk/raspbian-tee/optee_os/lib/libutils/ext/snprintk.c:496
     d76:	f10d 0375 	add.w	r3, sp, #117	; 0x75
     d7a:	e5b6      	b.n	8ea <__vsnprintf+0x1ba>
/mnt/disk/raspbian-tee/optee_os/lib/libutils/ext/snprintk.c:568
     d7c:	07b4      	lsls	r4, r6, #30
/mnt/disk/raspbian-tee/optee_os/lib/libutils/ext/snprintk.c:569
     d7e:	bf48      	it	mi
     d80:	3202      	addmi	r2, #2
     d82:	e697      	b.n	ab4 <__vsnprintf+0x384>
/mnt/disk/raspbian-tee/optee_os/lib/libutils/ext/snprintk.c:578
     d84:	f1b8 0f00 	cmp.w	r8, #0
     d88:	d006      	beq.n	d98 <__vsnprintf+0x668>
     d8a:	9d0e      	ldr	r5, [sp, #56]	; 0x38
     d8c:	4545      	cmp	r5, r8
     d8e:	d903      	bls.n	d98 <__vsnprintf+0x668>
     d90:	f888 c000 	strb.w	ip, [r8]
     d94:	f108 0801 	add.w	r8, r8, #1
     d98:	3901      	subs	r1, #1
     d9a:	e69b      	b.n	ad4 <__vsnprintf+0x3a4>
/mnt/disk/raspbian-tee/optee_os/lib/libutils/ext/snprintk.c:583
     d9c:	990e      	ldr	r1, [sp, #56]	; 0x38
     d9e:	4541      	cmp	r1, r8
     da0:	f67f aea5 	bls.w	aee <__vsnprintf+0x3be>
     da4:	f888 a000 	strb.w	sl, [r8]
     da8:	f108 0801 	add.w	r8, r8, #1
     dac:	e69f      	b.n	aee <__vsnprintf+0x3be>
/mnt/disk/raspbian-tee/optee_os/lib/libutils/ext/snprintk.c:584
     dae:	07b1      	lsls	r1, r6, #30
     db0:	f57f ae9d 	bpl.w	aee <__vsnprintf+0x3be>
/mnt/disk/raspbian-tee/optee_os/lib/libutils/ext/snprintk.c:585
     db4:	f1b8 0f00 	cmp.w	r8, #0
     db8:	f43f ae97 	beq.w	aea <__vsnprintf+0x3ba>
     dbc:	990e      	ldr	r1, [sp, #56]	; 0x38
     dbe:	4541      	cmp	r1, r8
     dc0:	f67f ae95 	bls.w	aee <__vsnprintf+0x3be>
     dc4:	2130      	movs	r1, #48	; 0x30
     dc6:	f888 1000 	strb.w	r1, [r8]
/mnt/disk/raspbian-tee/optee_os/lib/libutils/ext/snprintk.c:586
     dca:	f118 0101 	adds.w	r1, r8, #1
     dce:	f43f ae8c 	beq.w	aea <__vsnprintf+0x3ba>
     dd2:	9d0e      	ldr	r5, [sp, #56]	; 0x38
     dd4:	428d      	cmp	r5, r1
     dd6:	d904      	bls.n	de2 <__vsnprintf+0x6b2>
     dd8:	f888 9001 	strb.w	r9, [r8, #1]
     ddc:	f108 0802 	add.w	r8, r8, #2
     de0:	e685      	b.n	aee <__vsnprintf+0x3be>
     de2:	4688      	mov	r8, r1
     de4:	e683      	b.n	aee <__vsnprintf+0x3be>
/mnt/disk/raspbian-tee/optee_os/lib/libutils/ext/snprintk.c:593
     de6:	f1b8 0f00 	cmp.w	r8, #0
     dea:	d006      	beq.n	dfa <__vsnprintf+0x6ca>
     dec:	9d0e      	ldr	r5, [sp, #56]	; 0x38
     dee:	4545      	cmp	r5, r8
     df0:	d903      	bls.n	dfa <__vsnprintf+0x6ca>
     df2:	f888 4000 	strb.w	r4, [r8]
     df6:	f108 0801 	add.w	r8, r8, #1
     dfa:	3901      	subs	r1, #1
     dfc:	e67d      	b.n	afa <__vsnprintf+0x3ca>
/mnt/disk/raspbian-tee/optee_os/lib/libutils/ext/snprintk.c:599
     dfe:	f1b8 0f00 	cmp.w	r8, #0
     e02:	d006      	beq.n	e12 <__vsnprintf+0x6e2>
     e04:	9c0e      	ldr	r4, [sp, #56]	; 0x38
     e06:	4544      	cmp	r4, r8
     e08:	d903      	bls.n	e12 <__vsnprintf+0x6e2>
     e0a:	f888 1000 	strb.w	r1, [r8]
     e0e:	f108 0801 	add.w	r8, r8, #1
     e12:	3801      	subs	r0, #1
     e14:	e677      	b.n	b06 <__vsnprintf+0x3d6>
/mnt/disk/raspbian-tee/optee_os/lib/libutils/ext/snprintk.c:603
     e16:	f1b8 0f00 	cmp.w	r8, #0
     e1a:	d007      	beq.n	e2c <__vsnprintf+0x6fc>
     e1c:	980e      	ldr	r0, [sp, #56]	; 0x38
     e1e:	4540      	cmp	r0, r8
     e20:	d904      	bls.n	e2c <__vsnprintf+0x6fc>
     e22:	7818      	ldrb	r0, [r3, #0]
     e24:	f108 0801 	add.w	r8, r8, #1
     e28:	f808 0c01 	strb.w	r0, [r8, #-1]
/mnt/disk/raspbian-tee/optee_os/lib/libutils/ext/snprintk.c:602
     e2c:	3301      	adds	r3, #1
     e2e:	e66f      	b.n	b10 <__vsnprintf+0x3e0>
__vsnprintf():
/mnt/disk/raspbian-tee/optee_os/lib/libutils/ext/snprintk.c:148
     e30:	990c      	ldr	r1, [sp, #48]	; 0x30
     e32:	5453      	strb	r3, [r2, r1]
/mnt/disk/raspbian-tee/optee_os/lib/libutils/ext/snprintk.c:150
     e34:	e4a1      	b.n	77a <__vsnprintf+0x4a>
kprintf():
/mnt/disk/raspbian-tee/optee_os/lib/libutils/ext/snprintk.c:489
     e36:	f426 6680 	bic.w	r6, r6, #1024	; 0x400
/mnt/disk/raspbian-tee/optee_os/lib/libutils/ext/snprintk.c:482
     e3a:	f04f 0a00 	mov.w	sl, #0
/mnt/disk/raspbian-tee/optee_os/lib/libutils/ext/snprintk.c:476
     e3e:	2302      	movs	r3, #2
     e40:	e52c      	b.n	89c <__vsnprintf+0x16c>
/mnt/disk/raspbian-tee/optee_os/lib/libutils/ext/snprintk.c:488
     e42:	f1bb 3fff 	cmp.w	fp, #4294967295	; 0xffffffff
     e46:	d1f6      	bne.n	e36 <__vsnprintf+0x706>
     e48:	f04f 3bff 	mov.w	fp, #4294967295	; 0xffffffff
     e4c:	e728      	b.n	ca0 <__vsnprintf+0x570>
     e4e:	bf00      	nop
     e50:	00007b64 	.word	0x00007b64
     e54:	00007ae4 	.word	0x00007ae4
     e58:	0000785d 	.word	0x0000785d
     e5c:	0000781c 	.word	0x0000781c
     e60:	0000778c 	.word	0x0000778c

00000e64 <vsnprintk>:
vsnprintk():
/mnt/disk/raspbian-tee/optee_os/lib/libutils/ext/snprintk.c:129
     e64:	b513      	push	{r0, r1, r4, lr}
/mnt/disk/raspbian-tee/optee_os/lib/libutils/ext/snprintk.c:130
     e66:	2401      	movs	r4, #1
     e68:	9400      	str	r4, [sp, #0]
     e6a:	f7ff fc61 	bl	730 <__vsnprintf>
/mnt/disk/raspbian-tee/optee_os/lib/libutils/ext/snprintk.c:131
     e6e:	b002      	add	sp, #8
     e70:	bd10      	pop	{r4, pc}

00000e72 <snprintk>:
snprintk():
/mnt/disk/raspbian-tee/optee_os/lib/libutils/ext/snprintk.c:112
     e72:	b40c      	push	{r2, r3}
     e74:	b507      	push	{r0, r1, r2, lr}
     e76:	ab04      	add	r3, sp, #16
     e78:	f853 2b04 	ldr.w	r2, [r3], #4
/mnt/disk/raspbian-tee/optee_os/lib/libutils/ext/snprintk.c:116
     e7c:	9301      	str	r3, [sp, #4]
/mnt/disk/raspbian-tee/optee_os/lib/libutils/ext/snprintk.c:117
     e7e:	f7ff fff1 	bl	e64 <vsnprintk>
/mnt/disk/raspbian-tee/optee_os/lib/libutils/ext/snprintk.c:121
     e82:	b003      	add	sp, #12
     e84:	f85d eb04 	ldr.w	lr, [sp], #4
     e88:	b002      	add	sp, #8
     e8a:	4770      	bx	lr

00000e8c <__aeabi_ldivmod>:
__aeabi_ldivmod():
/mnt/disk/raspbian-tee/optee_os/lib/libutils/isoc/arch/arm/arm32_aeabi_ldivmod_a32.S:24
     e8c:	e92d5000 	push	{ip, lr}
/mnt/disk/raspbian-tee/optee_os/lib/libutils/isoc/arch/arm/arm32_aeabi_ldivmod_a32.S:26
     e90:	e92d000f 	push	{r0, r1, r2, r3}
/mnt/disk/raspbian-tee/optee_os/lib/libutils/isoc/arch/arm/arm32_aeabi_ldivmod_a32.S:28
     e94:	e1a0000d 	mov	r0, sp
/mnt/disk/raspbian-tee/optee_os/lib/libutils/isoc/arch/arm/arm32_aeabi_ldivmod_a32.S:29
     e98:	fa001b6e 	blx	7c58 <__l_divmod>
/mnt/disk/raspbian-tee/optee_os/lib/libutils/isoc/arch/arm/arm32_aeabi_ldivmod_a32.S:30
     e9c:	e8bd000f 	pop	{r0, r1, r2, r3}
/mnt/disk/raspbian-tee/optee_os/lib/libutils/isoc/arch/arm/arm32_aeabi_ldivmod_a32.S:31
     ea0:	e8bd9000 	pop	{ip, pc}

00000ea4 <__aeabi_uldivmod>:
__aeabi_uldivmod():
/mnt/disk/raspbian-tee/optee_os/lib/libutils/isoc/arch/arm/arm32_aeabi_ldivmod_a32.S:42
     ea4:	e92d5000 	push	{ip, lr}
/mnt/disk/raspbian-tee/optee_os/lib/libutils/isoc/arch/arm/arm32_aeabi_ldivmod_a32.S:44
     ea8:	e92d000f 	push	{r0, r1, r2, r3}
/mnt/disk/raspbian-tee/optee_os/lib/libutils/isoc/arch/arm/arm32_aeabi_ldivmod_a32.S:46
     eac:	e1a0000d 	mov	r0, sp
/mnt/disk/raspbian-tee/optee_os/lib/libutils/isoc/arch/arm/arm32_aeabi_ldivmod_a32.S:47
     eb0:	fa001b4b 	blx	7be4 <__ul_divmod>
/mnt/disk/raspbian-tee/optee_os/lib/libutils/isoc/arch/arm/arm32_aeabi_ldivmod_a32.S:48
     eb4:	e8bd000f 	pop	{r0, r1, r2, r3}
/mnt/disk/raspbian-tee/optee_os/lib/libutils/isoc/arch/arm/arm32_aeabi_ldivmod_a32.S:49
     eb8:	e8bd9000 	pop	{ip, pc}

00000ebc <trace_ext_puts>:
trace_ext_puts():
/mnt/disk/raspbian-tee/optee_os/lib/libutee/trace_ext.c:17
     ebc:	b510      	push	{r4, lr}
     ebe:	4604      	mov	r4, r0
/mnt/disk/raspbian-tee/optee_os/lib/libutee/trace_ext.c:18
     ec0:	f006 fe88 	bl	7bd4 <strlen>
     ec4:	4601      	mov	r1, r0
     ec6:	4620      	mov	r0, r4
/mnt/disk/raspbian-tee/optee_os/lib/libutee/trace_ext.c:19
     ec8:	e8bd 4010 	ldmia.w	sp!, {r4, lr}
/mnt/disk/raspbian-tee/optee_os/lib/libutee/trace_ext.c:18
     ecc:	f006 bfac 	b.w	7e28 <__utee_log_from_thumb>

00000ed0 <trace_ext_get_thread_id>:
trace_ext_get_thread_id():
/mnt/disk/raspbian-tee/optee_os/lib/libutee/trace_ext.c:24
     ed0:	f04f 30ff 	mov.w	r0, #4294967295	; 0xffffffff
     ed4:	4770      	bx	lr

00000ed6 <printf>:
printf():
/mnt/disk/raspbian-tee/optee_os/lib/libutee/trace_ext.c:32
     ed6:	b40f      	push	{r0, r1, r2, r3}
     ed8:	b530      	push	{r4, r5, lr}
     eda:	b0c3      	sub	sp, #268	; 0x10c
/mnt/disk/raspbian-tee/optee_os/lib/libutee/trace_ext.c:37
     edc:	f7ff fb00 	bl	4e0 <trace_get_level>
     ee0:	2800      	cmp	r0, #0
     ee2:	dd13      	ble.n	f0c <printf+0x36>
/mnt/disk/raspbian-tee/optee_os/lib/libutee/trace_ext.c:41
     ee4:	ad02      	add	r5, sp, #8
/mnt/disk/raspbian-tee/optee_os/lib/libutee/trace_ext.c:40
     ee6:	ab47      	add	r3, sp, #284	; 0x11c
/mnt/disk/raspbian-tee/optee_os/lib/libutee/trace_ext.c:41
     ee8:	9a46      	ldr	r2, [sp, #280]	; 0x118
     eea:	f44f 7180 	mov.w	r1, #256	; 0x100
     eee:	4628      	mov	r0, r5
/mnt/disk/raspbian-tee/optee_os/lib/libutee/trace_ext.c:40
     ef0:	9301      	str	r3, [sp, #4]
/mnt/disk/raspbian-tee/optee_os/lib/libutee/trace_ext.c:41
     ef2:	f006 ff38 	bl	7d66 <vsnprintf>
/mnt/disk/raspbian-tee/optee_os/lib/libutee/trace_ext.c:44
     ef6:	1e04      	subs	r4, r0, #0
     ef8:	db02      	blt.n	f00 <printf+0x2a>
/mnt/disk/raspbian-tee/optee_os/lib/libutee/trace_ext.c:47
     efa:	4628      	mov	r0, r5
     efc:	f7ff ffde 	bl	ebc <trace_ext_puts>
/mnt/disk/raspbian-tee/optee_os/lib/libutee/trace_ext.c:50
     f00:	4620      	mov	r0, r4
     f02:	b043      	add	sp, #268	; 0x10c
     f04:	e8bd 4030 	ldmia.w	sp!, {r4, r5, lr}
     f08:	b004      	add	sp, #16
     f0a:	4770      	bx	lr
/mnt/disk/raspbian-tee/optee_os/lib/libutee/trace_ext.c:38
     f0c:	2400      	movs	r4, #0
     f0e:	e7f7      	b.n	f00 <printf+0x2a>

00000f10 <puts>:
puts():
/mnt/disk/raspbian-tee/optee_os/lib/libutee/trace_ext.c:53
     f10:	b510      	push	{r4, lr}
     f12:	4604      	mov	r4, r0
/mnt/disk/raspbian-tee/optee_os/lib/libutee/trace_ext.c:54
     f14:	f7ff fae4 	bl	4e0 <trace_get_level>
     f18:	2800      	cmp	r0, #0
     f1a:	dd06      	ble.n	f2a <puts+0x1a>
/mnt/disk/raspbian-tee/optee_os/lib/libutee/trace_ext.c:55
     f1c:	4620      	mov	r0, r4
     f1e:	f7ff ffcd 	bl	ebc <trace_ext_puts>
/mnt/disk/raspbian-tee/optee_os/lib/libutee/trace_ext.c:56
     f22:	4803      	ldr	r0, [pc, #12]	; (f30 <puts+0x20>)
     f24:	4478      	add	r0, pc
     f26:	f7ff ffc9 	bl	ebc <trace_ext_puts>
/mnt/disk/raspbian-tee/optee_os/lib/libutee/trace_ext.c:59
     f2a:	2001      	movs	r0, #1
     f2c:	bd10      	pop	{r4, pc}
     f2e:	bf00      	nop
     f30:	00007c4d 	.word	0x00007c4d

00000f34 <putchar>:
putchar():
/mnt/disk/raspbian-tee/optee_os/lib/libutee/trace_ext.c:62
     f34:	b513      	push	{r0, r1, r4, lr}
/mnt/disk/raspbian-tee/optee_os/lib/libutee/trace_ext.c:63
     f36:	2300      	movs	r3, #0
/mnt/disk/raspbian-tee/optee_os/lib/libutee/trace_ext.c:62
     f38:	4604      	mov	r4, r0
/mnt/disk/raspbian-tee/optee_os/lib/libutee/trace_ext.c:63
     f3a:	f88d 0004 	strb.w	r0, [sp, #4]
     f3e:	f88d 3005 	strb.w	r3, [sp, #5]
/mnt/disk/raspbian-tee/optee_os/lib/libutee/trace_ext.c:65
     f42:	f7ff facd 	bl	4e0 <trace_get_level>
     f46:	2800      	cmp	r0, #0
     f48:	dd02      	ble.n	f50 <putchar+0x1c>
/mnt/disk/raspbian-tee/optee_os/lib/libutee/trace_ext.c:66
     f4a:	a801      	add	r0, sp, #4
     f4c:	f7ff ffb6 	bl	ebc <trace_ext_puts>
/mnt/disk/raspbian-tee/optee_os/lib/libutee/trace_ext.c:73
     f50:	b2e0      	uxtb	r0, r4
     f52:	b002      	add	sp, #8
     f54:	bd10      	pop	{r4, pc}
     f56:	bf00      	nop

00000f58 <__utee_from_param>:
__utee_from_param():
/mnt/disk/raspbian-tee/optee_os/lib/libutee/tee_api.c:23
     f58:	2300      	movs	r3, #0
/mnt/disk/raspbian-tee/optee_os/lib/libutee/tee_api.c:20
     f5a:	b5f0      	push	{r4, r5, r6, r7, lr}
     f5c:	4694      	mov	ip, r2
     f5e:	4615      	mov	r5, r2
/mnt/disk/raspbian-tee/optee_os/lib/libutee/tee_api.c:39
     f60:	2600      	movs	r6, #0
     f62:	2700      	movs	r7, #0
/mnt/disk/raspbian-tee/optee_os/lib/libutee/tee_api.c:35
     f64:	461a      	mov	r2, r3
/mnt/disk/raspbian-tee/optee_os/lib/libutee/tee_api.c:23
     f66:	e880 000a 	stmia.w	r0, {r1, r3}
/mnt/disk/raspbian-tee/optee_os/lib/libutee/tee_api.c:25
     f6a:	fa21 f403 	lsr.w	r4, r1, r3
     f6e:	f004 040f 	and.w	r4, r4, #15
     f72:	3c01      	subs	r4, #1
     f74:	2c06      	cmp	r4, #6
     f76:	d812      	bhi.n	f9e <__utee_from_param+0x46>
     f78:	e8df f004 	tbb	[pc, r4]
     f7c:	11040404 	.word	0x11040404
     f80:	0404      	.short	0x0404
     f82:	04          	.byte	0x04
     f83:	00          	.byte	0x00
/mnt/disk/raspbian-tee/optee_os/lib/libutee/tee_api.c:35
     f84:	f85c 4013 	ldr.w	r4, [ip, r3, lsl #1]
     f88:	6084      	str	r4, [r0, #8]
     f8a:	60c2      	str	r2, [r0, #12]
/mnt/disk/raspbian-tee/optee_os/lib/libutee/tee_api.c:36
     f8c:	686c      	ldr	r4, [r5, #4]
     f8e:	6104      	str	r4, [r0, #16]
     f90:	6142      	str	r2, [r0, #20]
     f92:	3304      	adds	r3, #4
     f94:	3508      	adds	r5, #8
     f96:	3010      	adds	r0, #16
/mnt/disk/raspbian-tee/optee_os/lib/libutee/tee_api.c:24 (discriminator 2)
     f98:	2b10      	cmp	r3, #16
     f9a:	d1e6      	bne.n	f6a <__utee_from_param+0x12>
/mnt/disk/raspbian-tee/optee_os/lib/libutee/tee_api.c:44
     f9c:	bdf0      	pop	{r4, r5, r6, r7, pc}
/mnt/disk/raspbian-tee/optee_os/lib/libutee/tee_api.c:39
     f9e:	e9c0 6702 	strd	r6, r7, [r0, #8]
/mnt/disk/raspbian-tee/optee_os/lib/libutee/tee_api.c:40
     fa2:	e9c0 6704 	strd	r6, r7, [r0, #16]
/mnt/disk/raspbian-tee/optee_os/lib/libutee/tee_api.c:41
     fa6:	e7f4      	b.n	f92 <__utee_from_param+0x3a>

00000fa8 <__utee_to_param>:
__utee_to_param():
/mnt/disk/raspbian-tee/optee_os/lib/libutee/tee_api.c:48
     fa8:	b5f0      	push	{r4, r5, r6, r7, lr}
/mnt/disk/raspbian-tee/optee_os/lib/libutee/tee_api.c:50
     faa:	2300      	movs	r3, #0
     fac:	6816      	ldr	r6, [r2, #0]
     fae:	4605      	mov	r5, r0
/mnt/disk/raspbian-tee/optee_os/lib/libutee/tee_api.c:56
     fb0:	fa26 f403 	lsr.w	r4, r6, r3
/mnt/disk/raspbian-tee/optee_os/lib/libutee/tee_api.c:53
     fb4:	f8d2 c008 	ldr.w	ip, [r2, #8]
/mnt/disk/raspbian-tee/optee_os/lib/libutee/tee_api.c:56
     fb8:	f004 040f 	and.w	r4, r4, #15
/mnt/disk/raspbian-tee/optee_os/lib/libutee/tee_api.c:54
     fbc:	6917      	ldr	r7, [r2, #16]
/mnt/disk/raspbian-tee/optee_os/lib/libutee/tee_api.c:56
     fbe:	3c01      	subs	r4, #1
     fc0:	2c06      	cmp	r4, #6
     fc2:	d808      	bhi.n	fd6 <__utee_to_param+0x2e>
     fc4:	e8df f004 	tbb	[pc, r4]
     fc8:	07040404 	.word	0x07040404
     fcc:	0404      	.short	0x0404
     fce:	04          	.byte	0x04
     fcf:	00          	.byte	0x00
/mnt/disk/raspbian-tee/optee_os/lib/libutee/tee_api.c:66
     fd0:	f840 c013 	str.w	ip, [r0, r3, lsl #1]
/mnt/disk/raspbian-tee/optee_os/lib/libutee/tee_api.c:67
     fd4:	606f      	str	r7, [r5, #4]
     fd6:	3304      	adds	r3, #4
     fd8:	3210      	adds	r2, #16
     fda:	3508      	adds	r5, #8
/mnt/disk/raspbian-tee/optee_os/lib/libutee/tee_api.c:52 (discriminator 2)
     fdc:	2b10      	cmp	r3, #16
     fde:	d1e7      	bne.n	fb0 <__utee_to_param+0x8>
/mnt/disk/raspbian-tee/optee_os/lib/libutee/tee_api.c:74
     fe0:	b101      	cbz	r1, fe4 <__utee_to_param+0x3c>
/mnt/disk/raspbian-tee/optee_os/lib/libutee/tee_api.c:75
     fe2:	600e      	str	r6, [r1, #0]
     fe4:	bdf0      	pop	{r4, r5, r6, r7, pc}

00000fe6 <TEE_OpenTASession>:
TEE_OpenTASession():
/mnt/disk/raspbian-tee/optee_os/lib/libutee/tee_api.c:84
     fe6:	b5f0      	push	{r4, r5, r6, r7, lr}
     fe8:	4605      	mov	r5, r0
     fea:	460f      	mov	r7, r1
     fec:	b097      	sub	sp, #92	; 0x5c
     fee:	4611      	mov	r1, r2
/mnt/disk/raspbian-tee/optee_os/lib/libutee/tee_api.c:89
     ff0:	ac04      	add	r4, sp, #16
     ff2:	461a      	mov	r2, r3
     ff4:	4620      	mov	r0, r4
/mnt/disk/raspbian-tee/optee_os/lib/libutee/tee_api.c:84
     ff6:	461e      	mov	r6, r3
/mnt/disk/raspbian-tee/optee_os/lib/libutee/tee_api.c:89
     ff8:	f7ff ffae 	bl	f58 <__utee_from_param>
/mnt/disk/raspbian-tee/optee_os/lib/libutee/tee_api.c:90
     ffc:	9b1d      	ldr	r3, [sp, #116]	; 0x74
     ffe:	9300      	str	r3, [sp, #0]
    1000:	4622      	mov	r2, r4
    1002:	4639      	mov	r1, r7
    1004:	4628      	mov	r0, r5
    1006:	ab03      	add	r3, sp, #12
    1008:	f002 e90a 	blx	3220 <utee_open_ta_session>
/mnt/disk/raspbian-tee/optee_os/lib/libutee/tee_api.c:92
    100c:	4622      	mov	r2, r4
/mnt/disk/raspbian-tee/optee_os/lib/libutee/tee_api.c:90
    100e:	4605      	mov	r5, r0
/mnt/disk/raspbian-tee/optee_os/lib/libutee/tee_api.c:92
    1010:	2100      	movs	r1, #0
    1012:	4630      	mov	r0, r6
    1014:	f7ff ffc8 	bl	fa8 <__utee_to_param>
/mnt/disk/raspbian-tee/optee_os/lib/libutee/tee_api.c:98
    1018:	b10d      	cbz	r5, 101e <TEE_OpenTASession+0x38>
/mnt/disk/raspbian-tee/optee_os/lib/libutee/tee_api.c:99
    101a:	2300      	movs	r3, #0
    101c:	9303      	str	r3, [sp, #12]
/mnt/disk/raspbian-tee/optee_os/lib/libutee/tee_api.c:101
    101e:	9b1c      	ldr	r3, [sp, #112]	; 0x70
/mnt/disk/raspbian-tee/optee_os/lib/libutee/tee_api.c:103
    1020:	4628      	mov	r0, r5
/mnt/disk/raspbian-tee/optee_os/lib/libutee/tee_api.c:101
    1022:	9a03      	ldr	r2, [sp, #12]
    1024:	601a      	str	r2, [r3, #0]
/mnt/disk/raspbian-tee/optee_os/lib/libutee/tee_api.c:103
    1026:	b017      	add	sp, #92	; 0x5c
    1028:	bdf0      	pop	{r4, r5, r6, r7, pc}

0000102a <TEE_CloseTASession>:
TEE_CloseTASession():
/mnt/disk/raspbian-tee/optee_os/lib/libutee/tee_api.c:106
    102a:	b508      	push	{r3, lr}
/mnt/disk/raspbian-tee/optee_os/lib/libutee/tee_api.c:107
    102c:	b130      	cbz	r0, 103c <TEE_CloseTASession+0x12>
/mnt/disk/raspbian-tee/optee_os/lib/libutee/tee_api.c:108
    102e:	f002 e904 	blx	3238 <utee_close_ta_session>
/mnt/disk/raspbian-tee/optee_os/lib/libutee/tee_api.c:110
    1032:	b118      	cbz	r0, 103c <TEE_CloseTASession+0x12>
/mnt/disk/raspbian-tee/optee_os/lib/libutee/tee_api.c:113
    1034:	e8bd 4008 	ldmia.w	sp!, {r3, lr}
/mnt/disk/raspbian-tee/optee_os/lib/libutee/tee_api.c:111
    1038:	f006 be84 	b.w	7d44 <TEE_Panic>
    103c:	bd08      	pop	{r3, pc}

0000103e <TEE_InvokeTACommand>:
TEE_InvokeTACommand():
/mnt/disk/raspbian-tee/optee_os/lib/libutee/tee_api.c:120
    103e:	e92d 41f0 	stmdb	sp!, {r4, r5, r6, r7, r8, lr}
    1042:	4604      	mov	r4, r0
    1044:	460f      	mov	r7, r1
    1046:	b096      	sub	sp, #88	; 0x58
/mnt/disk/raspbian-tee/optee_os/lib/libutee/tee_api.c:125
    1048:	4619      	mov	r1, r3
    104a:	ad04      	add	r5, sp, #16
/mnt/disk/raspbian-tee/optee_os/lib/libutee/tee_api.c:120
    104c:	4690      	mov	r8, r2
/mnt/disk/raspbian-tee/optee_os/lib/libutee/tee_api.c:125
    104e:	4628      	mov	r0, r5
/mnt/disk/raspbian-tee/optee_os/lib/libutee/tee_api.c:120
    1050:	9e1d      	ldr	r6, [sp, #116]	; 0x74
/mnt/disk/raspbian-tee/optee_os/lib/libutee/tee_api.c:125
    1052:	9a1c      	ldr	r2, [sp, #112]	; 0x70
    1054:	f7ff ff80 	bl	f58 <__utee_from_param>
/mnt/disk/raspbian-tee/optee_os/lib/libutee/tee_api.c:126
    1058:	ab03      	add	r3, sp, #12
    105a:	4642      	mov	r2, r8
    105c:	9300      	str	r3, [sp, #0]
    105e:	4639      	mov	r1, r7
    1060:	462b      	mov	r3, r5
    1062:	4620      	mov	r0, r4
    1064:	f002 e8f2 	blx	324c <utee_invoke_ta_command>
/mnt/disk/raspbian-tee/optee_os/lib/libutee/tee_api.c:129
    1068:	462a      	mov	r2, r5
/mnt/disk/raspbian-tee/optee_os/lib/libutee/tee_api.c:126
    106a:	4604      	mov	r4, r0
/mnt/disk/raspbian-tee/optee_os/lib/libutee/tee_api.c:129
    106c:	2100      	movs	r1, #0
    106e:	981c      	ldr	r0, [sp, #112]	; 0x70
    1070:	f7ff ff9a 	bl	fa8 <__utee_to_param>
    1074:	9b03      	ldr	r3, [sp, #12]
/mnt/disk/raspbian-tee/optee_os/lib/libutee/tee_api.c:131
    1076:	b106      	cbz	r6, 107a <TEE_InvokeTACommand+0x3c>
/mnt/disk/raspbian-tee/optee_os/lib/libutee/tee_api.c:132
    1078:	6033      	str	r3, [r6, #0]
/mnt/disk/raspbian-tee/optee_os/lib/libutee/tee_api.c:134
    107a:	2b04      	cmp	r3, #4
    107c:	d009      	beq.n	1092 <TEE_InvokeTACommand+0x54>
/mnt/disk/raspbian-tee/optee_os/lib/libutee/tee_api.c:137
    107e:	b144      	cbz	r4, 1092 <TEE_InvokeTACommand+0x54>
/mnt/disk/raspbian-tee/optee_os/lib/libutee/tee_api.c:137 (discriminator 1)
    1080:	4b06      	ldr	r3, [pc, #24]	; (109c <TEE_InvokeTACommand+0x5e>)
    1082:	429c      	cmp	r4, r3
    1084:	d005      	beq.n	1092 <TEE_InvokeTACommand+0x54>
/mnt/disk/raspbian-tee/optee_os/lib/libutee/tee_api.c:138
    1086:	4b06      	ldr	r3, [pc, #24]	; (10a0 <TEE_InvokeTACommand+0x62>)
    1088:	429c      	cmp	r4, r3
    108a:	d002      	beq.n	1092 <TEE_InvokeTACommand+0x54>
/mnt/disk/raspbian-tee/optee_os/lib/libutee/tee_api.c:140
    108c:	4620      	mov	r0, r4
    108e:	f006 fe59 	bl	7d44 <TEE_Panic>
/mnt/disk/raspbian-tee/optee_os/lib/libutee/tee_api.c:143
    1092:	4620      	mov	r0, r4
    1094:	b016      	add	sp, #88	; 0x58
    1096:	e8bd 81f0 	ldmia.w	sp!, {r4, r5, r6, r7, r8, pc}
    109a:	bf00      	nop
    109c:	ffff000c 	.word	0xffff000c
    10a0:	ffff3024 	.word	0xffff3024

000010a4 <TEE_GetCancellationFlag>:
TEE_GetCancellationFlag():
/mnt/disk/raspbian-tee/optee_os/lib/libutee/tee_api.c:148
    10a4:	b507      	push	{r0, r1, r2, lr}
/mnt/disk/raspbian-tee/optee_os/lib/libutee/tee_api.c:150
    10a6:	a801      	add	r0, sp, #4
    10a8:	f002 e8dc 	blx	3264 <utee_get_cancellation_flag>
/mnt/disk/raspbian-tee/optee_os/lib/libutee/tee_api.c:152
    10ac:	b108      	cbz	r0, 10b2 <TEE_GetCancellationFlag+0xe>
/mnt/disk/raspbian-tee/optee_os/lib/libutee/tee_api.c:153
    10ae:	2300      	movs	r3, #0
    10b0:	9301      	str	r3, [sp, #4]
/mnt/disk/raspbian-tee/optee_os/lib/libutee/tee_api.c:155
    10b2:	9801      	ldr	r0, [sp, #4]
    10b4:	3000      	adds	r0, #0
    10b6:	bf18      	it	ne
    10b8:	2001      	movne	r0, #1
    10ba:	b003      	add	sp, #12
    10bc:	f85d fb04 	ldr.w	pc, [sp], #4

000010c0 <TEE_UnmaskCancellation>:
TEE_UnmaskCancellation():
/mnt/disk/raspbian-tee/optee_os/lib/libutee/tee_api.c:158
    10c0:	b507      	push	{r0, r1, r2, lr}
/mnt/disk/raspbian-tee/optee_os/lib/libutee/tee_api.c:160
    10c2:	a801      	add	r0, sp, #4
    10c4:	f002 e8e2 	blx	328c <utee_unmask_cancellation>
/mnt/disk/raspbian-tee/optee_os/lib/libutee/tee_api.c:162
    10c8:	b108      	cbz	r0, 10ce <TEE_UnmaskCancellation+0xe>
/mnt/disk/raspbian-tee/optee_os/lib/libutee/tee_api.c:163
    10ca:	f006 fe3b 	bl	7d44 <TEE_Panic>
/mnt/disk/raspbian-tee/optee_os/lib/libutee/tee_api.c:165
    10ce:	9801      	ldr	r0, [sp, #4]
    10d0:	3000      	adds	r0, #0
    10d2:	bf18      	it	ne
    10d4:	2001      	movne	r0, #1
    10d6:	b003      	add	sp, #12
    10d8:	f85d fb04 	ldr.w	pc, [sp], #4

000010dc <TEE_MaskCancellation>:
TEE_MaskCancellation():
/mnt/disk/raspbian-tee/optee_os/lib/libutee/tee_api.c:168
    10dc:	b507      	push	{r0, r1, r2, lr}
/mnt/disk/raspbian-tee/optee_os/lib/libutee/tee_api.c:170
    10de:	a801      	add	r0, sp, #4
    10e0:	f002 e8de 	blx	32a0 <utee_mask_cancellation>
/mnt/disk/raspbian-tee/optee_os/lib/libutee/tee_api.c:172
    10e4:	b108      	cbz	r0, 10ea <TEE_MaskCancellation+0xe>
/mnt/disk/raspbian-tee/optee_os/lib/libutee/tee_api.c:173
    10e6:	f006 fe2d 	bl	7d44 <TEE_Panic>
/mnt/disk/raspbian-tee/optee_os/lib/libutee/tee_api.c:175
    10ea:	9801      	ldr	r0, [sp, #4]
    10ec:	3000      	adds	r0, #0
    10ee:	bf18      	it	ne
    10f0:	2001      	movne	r0, #1
    10f2:	b003      	add	sp, #12
    10f4:	f85d fb04 	ldr.w	pc, [sp], #4

000010f8 <TEE_CheckMemoryAccessRights>:
TEE_CheckMemoryAccessRights():
/mnt/disk/raspbian-tee/optee_os/lib/libutee/tee_api.c:184
    10f8:	b10a      	cbz	r2, 10fe <TEE_CheckMemoryAccessRights+0x6>
/mnt/disk/raspbian-tee/optee_os/lib/libutee/tee_api.c:188
    10fa:	f006 bea5 	b.w	7e48 <__utee_check_access_rights_from_thumb>
/mnt/disk/raspbian-tee/optee_os/lib/libutee/tee_api.c:200
    10fe:	4610      	mov	r0, r2
    1100:	4770      	bx	lr

00001102 <TEE_SetInstanceData>:
TEE_SetInstanceData():
/mnt/disk/raspbian-tee/optee_os/lib/libutee/tee_api.c:204
    1102:	4b02      	ldr	r3, [pc, #8]	; (110c <TEE_SetInstanceData+0xa>)
    1104:	447b      	add	r3, pc
    1106:	6018      	str	r0, [r3, #0]
    1108:	4770      	bx	lr
    110a:	bf00      	nop
    110c:	00008f7c 	.word	0x00008f7c

00001110 <TEE_GetInstanceData>:
TEE_GetInstanceData():
/mnt/disk/raspbian-tee/optee_os/lib/libutee/tee_api.c:210
    1110:	4b01      	ldr	r3, [pc, #4]	; (1118 <TEE_GetInstanceData+0x8>)
    1112:	447b      	add	r3, pc
    1114:	6818      	ldr	r0, [r3, #0]
    1116:	4770      	bx	lr
    1118:	00008f6e 	.word	0x00008f6e

0000111c <TEE_MemMove>:
TEE_MemMove():
/mnt/disk/raspbian-tee/optee_os/lib/libutee/tee_api.c:214
    111c:	f006 be44 	b.w	7da8 <memmove>

00001120 <TEE_MemCompare>:
TEE_MemCompare():
/mnt/disk/raspbian-tee/optee_os/lib/libutee/tee_api.c:219
    1120:	f006 be28 	b.w	7d74 <memcmp>

00001124 <TEE_MemFill>:
TEE_MemFill():
/mnt/disk/raspbian-tee/optee_os/lib/libutee/tee_api.c:224
    1124:	f006 be5a 	b.w	7ddc <memset>

00001128 <TEE_GetSystemTime>:
TEE_GetSystemTime():
/mnt/disk/raspbian-tee/optee_os/lib/libutee/tee_api.c:230
    1128:	b508      	push	{r3, lr}
/mnt/disk/raspbian-tee/optee_os/lib/libutee/tee_api.c:231
    112a:	4601      	mov	r1, r0
    112c:	2000      	movs	r0, #0
    112e:	f002 e8cc 	blx	32c8 <utee_get_time>
/mnt/disk/raspbian-tee/optee_os/lib/libutee/tee_api.c:233
    1132:	b118      	cbz	r0, 113c <TEE_GetSystemTime+0x14>
/mnt/disk/raspbian-tee/optee_os/lib/libutee/tee_api.c:235
    1134:	e8bd 4008 	ldmia.w	sp!, {r3, lr}
/mnt/disk/raspbian-tee/optee_os/lib/libutee/tee_api.c:234
    1138:	f006 be04 	b.w	7d44 <TEE_Panic>
    113c:	bd08      	pop	{r3, pc}

0000113e <TEE_Wait>:
TEE_Wait():
/mnt/disk/raspbian-tee/optee_os/lib/libutee/tee_api.c:238
    113e:	b510      	push	{r4, lr}
/mnt/disk/raspbian-tee/optee_os/lib/libutee/tee_api.c:239
    1140:	f002 e8b8 	blx	32b4 <utee_wait>
/mnt/disk/raspbian-tee/optee_os/lib/libutee/tee_api.c:241
    1144:	4604      	mov	r4, r0
    1146:	b120      	cbz	r0, 1152 <TEE_Wait+0x14>
/mnt/disk/raspbian-tee/optee_os/lib/libutee/tee_api.c:241 (discriminator 1)
    1148:	4b03      	ldr	r3, [pc, #12]	; (1158 <TEE_Wait+0x1a>)
    114a:	4298      	cmp	r0, r3
    114c:	d001      	beq.n	1152 <TEE_Wait+0x14>
/mnt/disk/raspbian-tee/optee_os/lib/libutee/tee_api.c:242
    114e:	f006 fdf9 	bl	7d44 <TEE_Panic>
/mnt/disk/raspbian-tee/optee_os/lib/libutee/tee_api.c:245
    1152:	4620      	mov	r0, r4
    1154:	bd10      	pop	{r4, pc}
    1156:	bf00      	nop
    1158:	ffff0002 	.word	0xffff0002

0000115c <TEE_GetTAPersistentTime>:
TEE_GetTAPersistentTime():
/mnt/disk/raspbian-tee/optee_os/lib/libutee/tee_api.c:248
    115c:	b538      	push	{r3, r4, r5, lr}
/mnt/disk/raspbian-tee/optee_os/lib/libutee/tee_api.c:251
    115e:	4601      	mov	r1, r0
/mnt/disk/raspbian-tee/optee_os/lib/libutee/tee_api.c:248
    1160:	4605      	mov	r5, r0
/mnt/disk/raspbian-tee/optee_os/lib/libutee/tee_api.c:251
    1162:	2001      	movs	r0, #1
    1164:	f002 e8b0 	blx	32c8 <utee_get_time>
/mnt/disk/raspbian-tee/optee_os/lib/libutee/tee_api.c:253
    1168:	4604      	mov	r4, r0
    116a:	b170      	cbz	r0, 118a <TEE_GetTAPersistentTime+0x2e>
/mnt/disk/raspbian-tee/optee_os/lib/libutee/tee_api.c:253 (discriminator 1)
    116c:	4b08      	ldr	r3, [pc, #32]	; (1190 <TEE_GetTAPersistentTime+0x34>)
    116e:	4298      	cmp	r0, r3
    1170:	d00b      	beq.n	118a <TEE_GetTAPersistentTime+0x2e>
/mnt/disk/raspbian-tee/optee_os/lib/libutee/tee_api.c:254
    1172:	2300      	movs	r3, #0
    1174:	602b      	str	r3, [r5, #0]
/mnt/disk/raspbian-tee/optee_os/lib/libutee/tee_api.c:255
    1176:	606b      	str	r3, [r5, #4]
/mnt/disk/raspbian-tee/optee_os/lib/libutee/tee_api.c:258
    1178:	f500 4330 	add.w	r3, r0, #45056	; 0xb000
    117c:	2b01      	cmp	r3, #1
    117e:	d904      	bls.n	118a <TEE_GetTAPersistentTime+0x2e>
/mnt/disk/raspbian-tee/optee_os/lib/libutee/tee_api.c:261
    1180:	4b04      	ldr	r3, [pc, #16]	; (1194 <TEE_GetTAPersistentTime+0x38>)
    1182:	4298      	cmp	r0, r3
    1184:	d001      	beq.n	118a <TEE_GetTAPersistentTime+0x2e>
/mnt/disk/raspbian-tee/optee_os/lib/libutee/tee_api.c:263
    1186:	f006 fddd 	bl	7d44 <TEE_Panic>
/mnt/disk/raspbian-tee/optee_os/lib/libutee/tee_api.c:266
    118a:	4620      	mov	r0, r4
    118c:	bd38      	pop	{r3, r4, r5, pc}
    118e:	bf00      	nop
    1190:	ffff300f 	.word	0xffff300f
    1194:	ffff000c 	.word	0xffff000c

00001198 <TEE_SetTAPersistentTime>:
TEE_SetTAPersistentTime():
/mnt/disk/raspbian-tee/optee_os/lib/libutee/tee_api.c:269
    1198:	b510      	push	{r4, lr}
/mnt/disk/raspbian-tee/optee_os/lib/libutee/tee_api.c:272
    119a:	f002 e8a0 	blx	32dc <utee_set_ta_time>
/mnt/disk/raspbian-tee/optee_os/lib/libutee/tee_api.c:274
    119e:	4604      	mov	r4, r0
    11a0:	b138      	cbz	r0, 11b2 <TEE_SetTAPersistentTime+0x1a>
/mnt/disk/raspbian-tee/optee_os/lib/libutee/tee_api.c:274 (discriminator 1)
    11a2:	4b05      	ldr	r3, [pc, #20]	; (11b8 <TEE_SetTAPersistentTime+0x20>)
    11a4:	4298      	cmp	r0, r3
    11a6:	d004      	beq.n	11b2 <TEE_SetTAPersistentTime+0x1a>
/mnt/disk/raspbian-tee/optee_os/lib/libutee/tee_api.c:275
    11a8:	4b04      	ldr	r3, [pc, #16]	; (11bc <TEE_SetTAPersistentTime+0x24>)
    11aa:	4298      	cmp	r0, r3
    11ac:	d001      	beq.n	11b2 <TEE_SetTAPersistentTime+0x1a>
/mnt/disk/raspbian-tee/optee_os/lib/libutee/tee_api.c:277
    11ae:	f006 fdc9 	bl	7d44 <TEE_Panic>
/mnt/disk/raspbian-tee/optee_os/lib/libutee/tee_api.c:280
    11b2:	4620      	mov	r0, r4
    11b4:	bd10      	pop	{r4, pc}
    11b6:	bf00      	nop
    11b8:	ffff000c 	.word	0xffff000c
    11bc:	ffff3041 	.word	0xffff3041

000011c0 <TEE_GetREETime>:
TEE_GetREETime():
/mnt/disk/raspbian-tee/optee_os/lib/libutee/tee_api.c:283
    11c0:	b508      	push	{r3, lr}
/mnt/disk/raspbian-tee/optee_os/lib/libutee/tee_api.c:284
    11c2:	4601      	mov	r1, r0
    11c4:	2002      	movs	r0, #2
    11c6:	f002 e880 	blx	32c8 <utee_get_time>
/mnt/disk/raspbian-tee/optee_os/lib/libutee/tee_api.c:286
    11ca:	b118      	cbz	r0, 11d4 <TEE_GetREETime+0x14>
/mnt/disk/raspbian-tee/optee_os/lib/libutee/tee_api.c:288
    11cc:	e8bd 4008 	ldmia.w	sp!, {r3, lr}
/mnt/disk/raspbian-tee/optee_os/lib/libutee/tee_api.c:287
    11d0:	f006 bdb8 	b.w	7d44 <TEE_Panic>
    11d4:	bd08      	pop	{r3, pc}

000011d6 <TEE_Malloc>:
TEE_Malloc():
/mnt/disk/raspbian-tee/optee_os/lib/libutee/tee_api.c:291
    11d6:	b507      	push	{r0, r1, r2, lr}
/mnt/disk/raspbian-tee/optee_os/lib/libutee/tee_api.c:292
    11d8:	b931      	cbnz	r1, 11e8 <TEE_Malloc+0x12>
/mnt/disk/raspbian-tee/optee_os/lib/libutee/tee_api.c:293
    11da:	4601      	mov	r1, r0
    11dc:	2001      	movs	r0, #1
/mnt/disk/raspbian-tee/optee_os/lib/libutee/tee_api.c:300
    11de:	b003      	add	sp, #12
    11e0:	f85d eb04 	ldr.w	lr, [sp], #4
/mnt/disk/raspbian-tee/optee_os/lib/libutee/tee_api.c:293
    11e4:	f006 b99c 	b.w	7520 <calloc>
/mnt/disk/raspbian-tee/optee_os/lib/libutee/tee_api.c:294
    11e8:	f1b1 4f00 	cmp.w	r1, #2147483648	; 0x80000000
    11ec:	d104      	bne.n	11f8 <TEE_Malloc+0x22>
/mnt/disk/raspbian-tee/optee_os/lib/libutee/tee_api.c:300
    11ee:	b003      	add	sp, #12
    11f0:	f85d eb04 	ldr.w	lr, [sp], #4
/mnt/disk/raspbian-tee/optee_os/lib/libutee/tee_api.c:295
    11f4:	f006 b98a 	b.w	750c <malloc>
/mnt/disk/raspbian-tee/optee_os/lib/libutee/tee_api.c:297
    11f8:	4b07      	ldr	r3, [pc, #28]	; (1218 <TEE_Malloc+0x42>)
    11fa:	4808      	ldr	r0, [pc, #32]	; (121c <TEE_Malloc+0x46>)
    11fc:	447b      	add	r3, pc
    11fe:	9300      	str	r3, [sp, #0]
    1200:	2301      	movs	r3, #1
    1202:	9101      	str	r1, [sp, #4]
    1204:	461a      	mov	r2, r3
    1206:	f240 1129 	movw	r1, #297	; 0x129
    120a:	4478      	add	r0, pc
    120c:	f7ff f972 	bl	4f4 <trace_printf>
/mnt/disk/raspbian-tee/optee_os/lib/libutee/tee_api.c:300
    1210:	2000      	movs	r0, #0
    1212:	b003      	add	sp, #12
    1214:	f85d fb04 	ldr.w	pc, [sp], #4
    1218:	0000730f 	.word	0x0000730f
    121c:	000072f6 	.word	0x000072f6

00001220 <TEE_Realloc>:
TEE_Realloc():
/mnt/disk/raspbian-tee/optee_os/lib/libutee/tee_api.c:304
    1220:	f006 b9a2 	b.w	7568 <realloc>

00001224 <TEE_Free>:
TEE_Free():
/mnt/disk/raspbian-tee/optee_os/lib/libutee/tee_api.c:309
    1224:	f006 b973 	b.w	750e <free>

00001228 <TEE_CacheClean>:
TEE_CacheClean():
/mnt/disk/raspbian-tee/optee_os/lib/libutee/tee_api.c:315
    1228:	2200      	movs	r2, #0
    122a:	f006 bdf5 	b.w	7e18 <__utee_cache_operation_from_thumb>

0000122e <TEE_CacheFlush>:
TEE_CacheFlush():
/mnt/disk/raspbian-tee/optee_os/lib/libutee/tee_api.c:319
    122e:	2201      	movs	r2, #1
    1230:	f006 bdf2 	b.w	7e18 <__utee_cache_operation_from_thumb>

00001234 <TEE_CacheInvalidate>:
TEE_CacheInvalidate():
/mnt/disk/raspbian-tee/optee_os/lib/libutee/tee_api.c:324
    1234:	2202      	movs	r2, #2
    1236:	f006 bdef 	b.w	7e18 <__utee_cache_operation_from_thumb>
    123a:	bf00      	nop

0000123c <__utee_from_attr>:
__utee_from_attr():
/mnt/disk/raspbian-tee/optee_os/lib/libutee/tee_api_objects.c:19
    123c:	2318      	movs	r3, #24
    123e:	b530      	push	{r4, r5, lr}
/mnt/disk/raspbian-tee/optee_os/lib/libutee/tee_api_objects.c:25
    1240:	2400      	movs	r4, #0
    1242:	fb03 0202 	mla	r2, r3, r2, r0
/mnt/disk/raspbian-tee/optee_os/lib/libutee/tee_api_objects.c:22 (discriminator 1)
    1246:	4290      	cmp	r0, r2
    1248:	d100      	bne.n	124c <__utee_from_attr+0x10>
/mnt/disk/raspbian-tee/optee_os/lib/libutee/tee_api_objects.c:32
    124a:	bd30      	pop	{r4, r5, pc}
/mnt/disk/raspbian-tee/optee_os/lib/libutee/tee_api_objects.c:23
    124c:	680b      	ldr	r3, [r1, #0]
    124e:	6103      	str	r3, [r0, #16]
/mnt/disk/raspbian-tee/optee_os/lib/libutee/tee_api_objects.c:24
    1250:	f013 5300 	ands.w	r3, r3, #536870912	; 0x20000000
    1254:	d008      	beq.n	1268 <__utee_from_attr+0x2c>
/mnt/disk/raspbian-tee/optee_os/lib/libutee/tee_api_objects.c:25
    1256:	684b      	ldr	r3, [r1, #4]
    1258:	e880 0018 	stmia.w	r0, {r3, r4}
/mnt/disk/raspbian-tee/optee_os/lib/libutee/tee_api_objects.c:26
    125c:	688b      	ldr	r3, [r1, #8]
    125e:	6083      	str	r3, [r0, #8]
    1260:	60c4      	str	r4, [r0, #12]
    1262:	310c      	adds	r1, #12
    1264:	3018      	adds	r0, #24
    1266:	e7ee      	b.n	1246 <__utee_from_attr+0xa>
/mnt/disk/raspbian-tee/optee_os/lib/libutee/tee_api_objects.c:28
    1268:	684d      	ldr	r5, [r1, #4]
    126a:	6005      	str	r5, [r0, #0]
    126c:	6043      	str	r3, [r0, #4]
/mnt/disk/raspbian-tee/optee_os/lib/libutee/tee_api_objects.c:29
    126e:	688d      	ldr	r5, [r1, #8]
    1270:	6085      	str	r5, [r0, #8]
    1272:	60c3      	str	r3, [r0, #12]
    1274:	e7f5      	b.n	1262 <__utee_from_attr+0x26>

00001276 <TEE_GetObjectInfo>:
TEE_GetObjectInfo():
/mnt/disk/raspbian-tee/optee_os/lib/libutee/tee_api_objects.c:42
    1276:	b510      	push	{r4, lr}
    1278:	460c      	mov	r4, r1
/mnt/disk/raspbian-tee/optee_os/lib/libutee/tee_api_objects.c:45
    127a:	f002 e89c 	blx	33b4 <utee_cryp_obj_get_info>
/mnt/disk/raspbian-tee/optee_os/lib/libutee/tee_api_objects.c:47
    127e:	b108      	cbz	r0, 1284 <TEE_GetObjectInfo+0xe>
/mnt/disk/raspbian-tee/optee_os/lib/libutee/tee_api_objects.c:48
    1280:	f006 fd60 	bl	7d44 <TEE_Panic>
/mnt/disk/raspbian-tee/optee_os/lib/libutee/tee_api_objects.c:50
    1284:	6822      	ldr	r2, [r4, #0]
    1286:	4b05      	ldr	r3, [pc, #20]	; (129c <TEE_GetObjectInfo+0x26>)
    1288:	429a      	cmp	r2, r3
    128a:	d106      	bne.n	129a <TEE_GetObjectInfo+0x24>
/mnt/disk/raspbian-tee/optee_os/lib/libutee/tee_api_objects.c:51
    128c:	2300      	movs	r3, #0
    128e:	6063      	str	r3, [r4, #4]
/mnt/disk/raspbian-tee/optee_os/lib/libutee/tee_api_objects.c:52
    1290:	60a3      	str	r3, [r4, #8]
/mnt/disk/raspbian-tee/optee_os/lib/libutee/tee_api_objects.c:53
    1292:	60e3      	str	r3, [r4, #12]
/mnt/disk/raspbian-tee/optee_os/lib/libutee/tee_api_objects.c:54
    1294:	6123      	str	r3, [r4, #16]
/mnt/disk/raspbian-tee/optee_os/lib/libutee/tee_api_objects.c:55
    1296:	6163      	str	r3, [r4, #20]
/mnt/disk/raspbian-tee/optee_os/lib/libutee/tee_api_objects.c:56
    1298:	61a3      	str	r3, [r4, #24]
    129a:	bd10      	pop	{r4, pc}
    129c:	a00000be 	.word	0xa00000be

000012a0 <TEE_GetObjectInfo1>:
TEE_GetObjectInfo1():
/mnt/disk/raspbian-tee/optee_os/lib/libutee/tee_api_objects.c:61
    12a0:	b510      	push	{r4, lr}
/mnt/disk/raspbian-tee/optee_os/lib/libutee/tee_api_objects.c:64
    12a2:	f002 e888 	blx	33b4 <utee_cryp_obj_get_info>
/mnt/disk/raspbian-tee/optee_os/lib/libutee/tee_api_objects.c:66
    12a6:	4604      	mov	r4, r0
    12a8:	b130      	cbz	r0, 12b8 <TEE_GetObjectInfo1+0x18>
/mnt/disk/raspbian-tee/optee_os/lib/libutee/tee_api_objects.c:66 (discriminator 1)
    12aa:	4b04      	ldr	r3, [pc, #16]	; (12bc <TEE_GetObjectInfo1+0x1c>)
    12ac:	f020 0202 	bic.w	r2, r0, #2
    12b0:	429a      	cmp	r2, r3
    12b2:	d001      	beq.n	12b8 <TEE_GetObjectInfo1+0x18>
/mnt/disk/raspbian-tee/optee_os/lib/libutee/tee_api_objects.c:69
    12b4:	f006 fd46 	bl	7d44 <TEE_Panic>
/mnt/disk/raspbian-tee/optee_os/lib/libutee/tee_api_objects.c:72
    12b8:	4620      	mov	r0, r4
    12ba:	bd10      	pop	{r4, pc}
    12bc:	f0100001 	.word	0xf0100001

000012c0 <TEE_RestrictObjectUsage1>:
TEE_RestrictObjectUsage1():
/mnt/disk/raspbian-tee/optee_os/lib/libutee/tee_api_objects.c:96
    12c0:	b510      	push	{r4, lr}
/mnt/disk/raspbian-tee/optee_os/lib/libutee/tee_api_objects.c:99
    12c2:	f002 e882 	blx	33c8 <utee_cryp_obj_restrict_usage>
/mnt/disk/raspbian-tee/optee_os/lib/libutee/tee_api_objects.c:101
    12c6:	4604      	mov	r4, r0
    12c8:	b130      	cbz	r0, 12d8 <TEE_RestrictObjectUsage1+0x18>
/mnt/disk/raspbian-tee/optee_os/lib/libutee/tee_api_objects.c:101 (discriminator 1)
    12ca:	4b04      	ldr	r3, [pc, #16]	; (12dc <TEE_RestrictObjectUsage1+0x1c>)
    12cc:	f020 0202 	bic.w	r2, r0, #2
    12d0:	429a      	cmp	r2, r3
    12d2:	d001      	beq.n	12d8 <TEE_RestrictObjectUsage1+0x18>
/mnt/disk/raspbian-tee/optee_os/lib/libutee/tee_api_objects.c:104
    12d4:	f006 fd36 	bl	7d44 <TEE_Panic>
/mnt/disk/raspbian-tee/optee_os/lib/libutee/tee_api_objects.c:107
    12d8:	4620      	mov	r0, r4
    12da:	bd10      	pop	{r4, pc}
    12dc:	f0100001 	.word	0xf0100001

000012e0 <TEE_RestrictObjectUsage>:
TEE_RestrictObjectUsage():
/mnt/disk/raspbian-tee/optee_os/lib/libutee/tee_api_objects.c:81
    12e0:	b530      	push	{r4, r5, lr}
    12e2:	460d      	mov	r5, r1
    12e4:	4604      	mov	r4, r0
    12e6:	b089      	sub	sp, #36	; 0x24
/mnt/disk/raspbian-tee/optee_os/lib/libutee/tee_api_objects.c:85
    12e8:	a901      	add	r1, sp, #4
    12ea:	f002 e864 	blx	33b4 <utee_cryp_obj_get_info>
/mnt/disk/raspbian-tee/optee_os/lib/libutee/tee_api_objects.c:86
    12ee:	4b06      	ldr	r3, [pc, #24]	; (1308 <TEE_RestrictObjectUsage+0x28>)
    12f0:	9a01      	ldr	r2, [sp, #4]
    12f2:	429a      	cmp	r2, r3
    12f4:	d006      	beq.n	1304 <TEE_RestrictObjectUsage+0x24>
/mnt/disk/raspbian-tee/optee_os/lib/libutee/tee_api_objects.c:89
    12f6:	4629      	mov	r1, r5
    12f8:	4620      	mov	r0, r4
    12fa:	f7ff ffe1 	bl	12c0 <TEE_RestrictObjectUsage1>
/mnt/disk/raspbian-tee/optee_os/lib/libutee/tee_api_objects.c:91
    12fe:	b108      	cbz	r0, 1304 <TEE_RestrictObjectUsage+0x24>
/mnt/disk/raspbian-tee/optee_os/lib/libutee/tee_api_objects.c:92
    1300:	f006 fd20 	bl	7d44 <TEE_Panic>
/mnt/disk/raspbian-tee/optee_os/lib/libutee/tee_api_objects.c:93
    1304:	b009      	add	sp, #36	; 0x24
    1306:	bd30      	pop	{r4, r5, pc}
    1308:	a00000be 	.word	0xa00000be

0000130c <TEE_GetObjectBufferAttribute>:
TEE_GetObjectBufferAttribute():
/mnt/disk/raspbian-tee/optee_os/lib/libutee/tee_api_objects.c:112
    130c:	e92d 41f0 	stmdb	sp!, {r4, r5, r6, r7, r8, lr}
    1310:	460e      	mov	r6, r1
    1312:	4607      	mov	r7, r0
    1314:	b08a      	sub	sp, #40	; 0x28
    1316:	4690      	mov	r8, r2
/mnt/disk/raspbian-tee/optee_os/lib/libutee/tee_api_objects.c:117
    1318:	a903      	add	r1, sp, #12
/mnt/disk/raspbian-tee/optee_os/lib/libutee/tee_api_objects.c:112
    131a:	461d      	mov	r5, r3
/mnt/disk/raspbian-tee/optee_os/lib/libutee/tee_api_objects.c:117
    131c:	f002 e84a 	blx	33b4 <utee_cryp_obj_get_info>
/mnt/disk/raspbian-tee/optee_os/lib/libutee/tee_api_objects.c:118
    1320:	4604      	mov	r4, r0
    1322:	b970      	cbnz	r0, 1342 <TEE_GetObjectBufferAttribute+0x36>
/mnt/disk/raspbian-tee/optee_os/lib/libutee/tee_api_objects.c:122
    1324:	00b3      	lsls	r3, r6, #2
    1326:	d422      	bmi.n	136e <TEE_GetObjectBufferAttribute+0x62>
/mnt/disk/raspbian-tee/optee_os/lib/libutee/tee_api_objects.c:127
    1328:	682b      	ldr	r3, [r5, #0]
/mnt/disk/raspbian-tee/optee_os/lib/libutee/tee_api_objects.c:128
    132a:	4642      	mov	r2, r8
/mnt/disk/raspbian-tee/optee_os/lib/libutee/tee_api_objects.c:127
    132c:	e88d 0018 	stmia.w	sp, {r3, r4}
/mnt/disk/raspbian-tee/optee_os/lib/libutee/tee_api_objects.c:128
    1330:	4631      	mov	r1, r6
    1332:	466b      	mov	r3, sp
    1334:	4638      	mov	r0, r7
    1336:	f002 e852 	blx	33dc <utee_cryp_obj_get_attr>
/mnt/disk/raspbian-tee/optee_os/lib/libutee/tee_api_objects.c:130
    133a:	9b00      	ldr	r3, [sp, #0]
    133c:	602b      	str	r3, [r5, #0]
/mnt/disk/raspbian-tee/optee_os/lib/libutee/tee_api_objects.c:133
    133e:	4604      	mov	r4, r0
    1340:	b188      	cbz	r0, 1366 <TEE_GetObjectBufferAttribute+0x5a>
/mnt/disk/raspbian-tee/optee_os/lib/libutee/tee_api_objects.c:133 (discriminator 1)
    1342:	4b0c      	ldr	r3, [pc, #48]	; (1374 <TEE_GetObjectBufferAttribute+0x68>)
    1344:	429c      	cmp	r4, r3
    1346:	d00e      	beq.n	1366 <TEE_GetObjectBufferAttribute+0x5a>
/mnt/disk/raspbian-tee/optee_os/lib/libutee/tee_api_objects.c:134
    1348:	3308      	adds	r3, #8
    134a:	429c      	cmp	r4, r3
    134c:	d00b      	beq.n	1366 <TEE_GetObjectBufferAttribute+0x5a>
/mnt/disk/raspbian-tee/optee_os/lib/libutee/tee_api_objects.c:135
    134e:	f1a3 637e 	sub.w	r3, r3, #266338304	; 0xfe00000
    1352:	f1a3 130f 	sub.w	r3, r3, #983055	; 0xf000f
    1356:	429c      	cmp	r4, r3
    1358:	d005      	beq.n	1366 <TEE_GetObjectBufferAttribute+0x5a>
/mnt/disk/raspbian-tee/optee_os/lib/libutee/tee_api_objects.c:136
    135a:	3302      	adds	r3, #2
    135c:	429c      	cmp	r4, r3
    135e:	d002      	beq.n	1366 <TEE_GetObjectBufferAttribute+0x5a>
/mnt/disk/raspbian-tee/optee_os/lib/libutee/tee_api_objects.c:138
    1360:	4620      	mov	r0, r4
    1362:	f006 fcef 	bl	7d44 <TEE_Panic>
/mnt/disk/raspbian-tee/optee_os/lib/libutee/tee_api_objects.c:141
    1366:	4620      	mov	r0, r4
    1368:	b00a      	add	sp, #40	; 0x28
    136a:	e8bd 81f0 	ldmia.w	sp!, {r4, r5, r6, r7, r8, pc}
/mnt/disk/raspbian-tee/optee_os/lib/libutee/tee_api_objects.c:123
    136e:	4c02      	ldr	r4, [pc, #8]	; (1378 <TEE_GetObjectBufferAttribute+0x6c>)
    1370:	e7f6      	b.n	1360 <TEE_GetObjectBufferAttribute+0x54>
    1372:	bf00      	nop
    1374:	ffff0008 	.word	0xffff0008
    1378:	ffff0006 	.word	0xffff0006

0000137c <TEE_GetObjectValueAttribute>:
TEE_GetObjectValueAttribute():
/mnt/disk/raspbian-tee/optee_os/lib/libutee/tee_api_objects.c:146
    137c:	e92d 41f0 	stmdb	sp!, {r4, r5, r6, r7, r8, lr}
    1380:	460f      	mov	r7, r1
    1382:	4680      	mov	r8, r0
    1384:	b08c      	sub	sp, #48	; 0x30
    1386:	4616      	mov	r6, r2
/mnt/disk/raspbian-tee/optee_os/lib/libutee/tee_api_objects.c:152
    1388:	a905      	add	r1, sp, #20
/mnt/disk/raspbian-tee/optee_os/lib/libutee/tee_api_objects.c:150
    138a:	2208      	movs	r2, #8
/mnt/disk/raspbian-tee/optee_os/lib/libutee/tee_api_objects.c:146
    138c:	461d      	mov	r5, r3
/mnt/disk/raspbian-tee/optee_os/lib/libutee/tee_api_objects.c:150
    138e:	2300      	movs	r3, #0
    1390:	e9cd 2300 	strd	r2, r3, [sp]
/mnt/disk/raspbian-tee/optee_os/lib/libutee/tee_api_objects.c:152
    1394:	f002 e80e 	blx	33b4 <utee_cryp_obj_get_info>
/mnt/disk/raspbian-tee/optee_os/lib/libutee/tee_api_objects.c:153
    1398:	4604      	mov	r4, r0
    139a:	b948      	cbnz	r0, 13b0 <TEE_GetObjectValueAttribute+0x34>
/mnt/disk/raspbian-tee/optee_os/lib/libutee/tee_api_objects.c:157
    139c:	00bb      	lsls	r3, r7, #2
    139e:	d527      	bpl.n	13f0 <TEE_GetObjectValueAttribute+0x74>
/mnt/disk/raspbian-tee/optee_os/lib/libutee/tee_api_objects.c:162
    13a0:	466b      	mov	r3, sp
    13a2:	aa03      	add	r2, sp, #12
    13a4:	4639      	mov	r1, r7
    13a6:	4640      	mov	r0, r8
    13a8:	f002 e818 	blx	33dc <utee_cryp_obj_get_attr>
/mnt/disk/raspbian-tee/optee_os/lib/libutee/tee_api_objects.c:166
    13ac:	4604      	mov	r4, r0
    13ae:	b158      	cbz	r0, 13c8 <TEE_GetObjectValueAttribute+0x4c>
/mnt/disk/raspbian-tee/optee_os/lib/libutee/tee_api_objects.c:166 (discriminator 1)
    13b0:	4b10      	ldr	r3, [pc, #64]	; (13f4 <TEE_GetObjectValueAttribute+0x78>)
    13b2:	429c      	cmp	r4, r3
    13b4:	d008      	beq.n	13c8 <TEE_GetObjectValueAttribute+0x4c>
/mnt/disk/raspbian-tee/optee_os/lib/libutee/tee_api_objects.c:167
    13b6:	4b10      	ldr	r3, [pc, #64]	; (13f8 <TEE_GetObjectValueAttribute+0x7c>)
    13b8:	429c      	cmp	r4, r3
    13ba:	d005      	beq.n	13c8 <TEE_GetObjectValueAttribute+0x4c>
/mnt/disk/raspbian-tee/optee_os/lib/libutee/tee_api_objects.c:168
    13bc:	3302      	adds	r3, #2
    13be:	429c      	cmp	r4, r3
    13c0:	d002      	beq.n	13c8 <TEE_GetObjectValueAttribute+0x4c>
/mnt/disk/raspbian-tee/optee_os/lib/libutee/tee_api_objects.c:170
    13c2:	4620      	mov	r0, r4
    13c4:	f006 fcbe 	bl	7d44 <TEE_Panic>
/mnt/disk/raspbian-tee/optee_os/lib/libutee/tee_api_objects.c:172
    13c8:	e9dd 2300 	ldrd	r2, r3, [sp]
    13cc:	2b00      	cmp	r3, #0
    13ce:	bf08      	it	eq
    13d0:	2a08      	cmpeq	r2, #8
    13d2:	d002      	beq.n	13da <TEE_GetObjectValueAttribute+0x5e>
/mnt/disk/raspbian-tee/optee_os/lib/libutee/tee_api_objects.c:173
    13d4:	2000      	movs	r0, #0
    13d6:	f006 fcb5 	bl	7d44 <TEE_Panic>
/mnt/disk/raspbian-tee/optee_os/lib/libutee/tee_api_objects.c:175
    13da:	b92c      	cbnz	r4, 13e8 <TEE_GetObjectValueAttribute+0x6c>
/mnt/disk/raspbian-tee/optee_os/lib/libutee/tee_api_objects.c:176
    13dc:	b10e      	cbz	r6, 13e2 <TEE_GetObjectValueAttribute+0x66>
/mnt/disk/raspbian-tee/optee_os/lib/libutee/tee_api_objects.c:177
    13de:	9b03      	ldr	r3, [sp, #12]
    13e0:	6033      	str	r3, [r6, #0]
/mnt/disk/raspbian-tee/optee_os/lib/libutee/tee_api_objects.c:178
    13e2:	b10d      	cbz	r5, 13e8 <TEE_GetObjectValueAttribute+0x6c>
/mnt/disk/raspbian-tee/optee_os/lib/libutee/tee_api_objects.c:179
    13e4:	9b04      	ldr	r3, [sp, #16]
    13e6:	602b      	str	r3, [r5, #0]
/mnt/disk/raspbian-tee/optee_os/lib/libutee/tee_api_objects.c:183
    13e8:	4620      	mov	r0, r4
    13ea:	b00c      	add	sp, #48	; 0x30
    13ec:	e8bd 81f0 	ldmia.w	sp!, {r4, r5, r6, r7, r8, pc}
/mnt/disk/raspbian-tee/optee_os/lib/libutee/tee_api_objects.c:158
    13f0:	4c02      	ldr	r4, [pc, #8]	; (13fc <TEE_GetObjectValueAttribute+0x80>)
    13f2:	e7e6      	b.n	13c2 <TEE_GetObjectValueAttribute+0x46>
    13f4:	ffff0008 	.word	0xffff0008
    13f8:	f0100001 	.word	0xf0100001
    13fc:	ffff0006 	.word	0xffff0006

00001400 <TEE_CloseObject>:
TEE_CloseObject():
/mnt/disk/raspbian-tee/optee_os/lib/libutee/tee_api_objects.c:186
    1400:	b508      	push	{r3, lr}
/mnt/disk/raspbian-tee/optee_os/lib/libutee/tee_api_objects.c:189
    1402:	b130      	cbz	r0, 1412 <TEE_CloseObject+0x12>
/mnt/disk/raspbian-tee/optee_os/lib/libutee/tee_api_objects.c:192
    1404:	f001 effe 	blx	3404 <utee_cryp_obj_close>
/mnt/disk/raspbian-tee/optee_os/lib/libutee/tee_api_objects.c:193
    1408:	b118      	cbz	r0, 1412 <TEE_CloseObject+0x12>
/mnt/disk/raspbian-tee/optee_os/lib/libutee/tee_api_objects.c:195
    140a:	e8bd 4008 	ldmia.w	sp!, {r3, lr}
/mnt/disk/raspbian-tee/optee_os/lib/libutee/tee_api_objects.c:194
    140e:	f006 bc99 	b.w	7d44 <TEE_Panic>
    1412:	bd08      	pop	{r3, pc}

00001414 <TEE_AllocateTransientObject>:
TEE_AllocateTransientObject():
/mnt/disk/raspbian-tee/optee_os/lib/libutee/tee_api_objects.c:202
    1414:	b537      	push	{r0, r1, r2, r4, r5, lr}
    1416:	4615      	mov	r5, r2
/mnt/disk/raspbian-tee/optee_os/lib/libutee/tee_api_objects.c:206
    1418:	aa01      	add	r2, sp, #4
    141a:	f001 efea 	blx	33f0 <utee_cryp_obj_alloc>
/mnt/disk/raspbian-tee/optee_os/lib/libutee/tee_api_objects.c:208
    141e:	4604      	mov	r4, r0
    1420:	b150      	cbz	r0, 1438 <TEE_AllocateTransientObject+0x24>
/mnt/disk/raspbian-tee/optee_os/lib/libutee/tee_api_objects.c:208 (discriminator 1)
    1422:	4b07      	ldr	r3, [pc, #28]	; (1440 <TEE_AllocateTransientObject+0x2c>)
    1424:	4298      	cmp	r0, r3
    1426:	d004      	beq.n	1432 <TEE_AllocateTransientObject+0x1e>
/mnt/disk/raspbian-tee/optee_os/lib/libutee/tee_api_objects.c:209
    1428:	3b02      	subs	r3, #2
    142a:	4298      	cmp	r0, r3
    142c:	d001      	beq.n	1432 <TEE_AllocateTransientObject+0x1e>
/mnt/disk/raspbian-tee/optee_os/lib/libutee/tee_api_objects.c:211
    142e:	f006 fc89 	bl	7d44 <TEE_Panic>
/mnt/disk/raspbian-tee/optee_os/lib/libutee/tee_api_objects.c:217
    1432:	4620      	mov	r0, r4
    1434:	b003      	add	sp, #12
    1436:	bd30      	pop	{r4, r5, pc}
/mnt/disk/raspbian-tee/optee_os/lib/libutee/tee_api_objects.c:214
    1438:	9b01      	ldr	r3, [sp, #4]
    143a:	602b      	str	r3, [r5, #0]
    143c:	e7f9      	b.n	1432 <TEE_AllocateTransientObject+0x1e>
    143e:	bf00      	nop
    1440:	ffff000c 	.word	0xffff000c

00001444 <TEE_FreeTransientObject>:
TEE_FreeTransientObject():
/mnt/disk/raspbian-tee/optee_os/lib/libutee/tee_api_objects.c:220
    1444:	b510      	push	{r4, lr}
/mnt/disk/raspbian-tee/optee_os/lib/libutee/tee_api_objects.c:224
    1446:	4604      	mov	r4, r0
/mnt/disk/raspbian-tee/optee_os/lib/libutee/tee_api_objects.c:220
    1448:	b088      	sub	sp, #32
/mnt/disk/raspbian-tee/optee_os/lib/libutee/tee_api_objects.c:224
    144a:	b188      	cbz	r0, 1470 <TEE_FreeTransientObject+0x2c>
/mnt/disk/raspbian-tee/optee_os/lib/libutee/tee_api_objects.c:227
    144c:	a901      	add	r1, sp, #4
    144e:	f001 efb2 	blx	33b4 <utee_cryp_obj_get_info>
/mnt/disk/raspbian-tee/optee_os/lib/libutee/tee_api_objects.c:228
    1452:	b108      	cbz	r0, 1458 <TEE_FreeTransientObject+0x14>
/mnt/disk/raspbian-tee/optee_os/lib/libutee/tee_api_objects.c:229
    1454:	f006 fc76 	bl	7d44 <TEE_Panic>
/mnt/disk/raspbian-tee/optee_os/lib/libutee/tee_api_objects.c:231
    1458:	9b07      	ldr	r3, [sp, #28]
    145a:	03db      	lsls	r3, r3, #15
    145c:	d502      	bpl.n	1464 <TEE_FreeTransientObject+0x20>
/mnt/disk/raspbian-tee/optee_os/lib/libutee/tee_api_objects.c:232
    145e:	2000      	movs	r0, #0
    1460:	f006 fc70 	bl	7d44 <TEE_Panic>
/mnt/disk/raspbian-tee/optee_os/lib/libutee/tee_api_objects.c:234
    1464:	4620      	mov	r0, r4
    1466:	f001 efce 	blx	3404 <utee_cryp_obj_close>
/mnt/disk/raspbian-tee/optee_os/lib/libutee/tee_api_objects.c:235
    146a:	b108      	cbz	r0, 1470 <TEE_FreeTransientObject+0x2c>
/mnt/disk/raspbian-tee/optee_os/lib/libutee/tee_api_objects.c:236
    146c:	f006 fc6a 	bl	7d44 <TEE_Panic>
/mnt/disk/raspbian-tee/optee_os/lib/libutee/tee_api_objects.c:237
    1470:	b008      	add	sp, #32
    1472:	bd10      	pop	{r4, pc}

00001474 <TEE_ResetTransientObject>:
TEE_ResetTransientObject():
/mnt/disk/raspbian-tee/optee_os/lib/libutee/tee_api_objects.c:240
    1474:	b510      	push	{r4, lr}
/mnt/disk/raspbian-tee/optee_os/lib/libutee/tee_api_objects.c:244
    1476:	4604      	mov	r4, r0
/mnt/disk/raspbian-tee/optee_os/lib/libutee/tee_api_objects.c:240
    1478:	b088      	sub	sp, #32
/mnt/disk/raspbian-tee/optee_os/lib/libutee/tee_api_objects.c:244
    147a:	b188      	cbz	r0, 14a0 <TEE_ResetTransientObject+0x2c>
/mnt/disk/raspbian-tee/optee_os/lib/libutee/tee_api_objects.c:247
    147c:	a901      	add	r1, sp, #4
    147e:	f001 ef9a 	blx	33b4 <utee_cryp_obj_get_info>
/mnt/disk/raspbian-tee/optee_os/lib/libutee/tee_api_objects.c:248
    1482:	b108      	cbz	r0, 1488 <TEE_ResetTransientObject+0x14>
/mnt/disk/raspbian-tee/optee_os/lib/libutee/tee_api_objects.c:249
    1484:	f006 fc5e 	bl	7d44 <TEE_Panic>
/mnt/disk/raspbian-tee/optee_os/lib/libutee/tee_api_objects.c:251
    1488:	9b07      	ldr	r3, [sp, #28]
    148a:	03db      	lsls	r3, r3, #15
    148c:	d502      	bpl.n	1494 <TEE_ResetTransientObject+0x20>
/mnt/disk/raspbian-tee/optee_os/lib/libutee/tee_api_objects.c:252
    148e:	2000      	movs	r0, #0
    1490:	f006 fc58 	bl	7d44 <TEE_Panic>
/mnt/disk/raspbian-tee/optee_os/lib/libutee/tee_api_objects.c:254
    1494:	4620      	mov	r0, r4
    1496:	f001 efc0 	blx	3418 <utee_cryp_obj_reset>
/mnt/disk/raspbian-tee/optee_os/lib/libutee/tee_api_objects.c:255
    149a:	b108      	cbz	r0, 14a0 <TEE_ResetTransientObject+0x2c>
/mnt/disk/raspbian-tee/optee_os/lib/libutee/tee_api_objects.c:256
    149c:	f006 fc52 	bl	7d44 <TEE_Panic>
/mnt/disk/raspbian-tee/optee_os/lib/libutee/tee_api_objects.c:257
    14a0:	b008      	add	sp, #32
    14a2:	bd10      	pop	{r4, pc}

000014a4 <TEE_PopulateTransientObject>:
TEE_PopulateTransientObject():
/mnt/disk/raspbian-tee/optee_os/lib/libutee/tee_api_objects.c:265
    14a4:	2318      	movs	r3, #24
/mnt/disk/raspbian-tee/optee_os/lib/libutee/tee_api_objects.c:262
    14a6:	e92d 41f0 	stmdb	sp!, {r4, r5, r6, r7, r8, lr}
    14aa:	4688      	mov	r8, r1
    14ac:	b088      	sub	sp, #32
/mnt/disk/raspbian-tee/optee_os/lib/libutee/tee_api_objects.c:265
    14ae:	4353      	muls	r3, r2
/mnt/disk/raspbian-tee/optee_os/lib/libutee/tee_api_objects.c:262
    14b0:	af00      	add	r7, sp, #0
/mnt/disk/raspbian-tee/optee_os/lib/libutee/tee_api_objects.c:267
    14b2:	1d39      	adds	r1, r7, #4
/mnt/disk/raspbian-tee/optee_os/lib/libutee/tee_api_objects.c:262
    14b4:	4606      	mov	r6, r0
/mnt/disk/raspbian-tee/optee_os/lib/libutee/tee_api_objects.c:265
    14b6:	3308      	adds	r3, #8
/mnt/disk/raspbian-tee/optee_os/lib/libutee/tee_api_objects.c:262
    14b8:	4614      	mov	r4, r2
/mnt/disk/raspbian-tee/optee_os/lib/libutee/tee_api_objects.c:265
    14ba:	ebad 0d03 	sub.w	sp, sp, r3
    14be:	466d      	mov	r5, sp
/mnt/disk/raspbian-tee/optee_os/lib/libutee/tee_api_objects.c:267
    14c0:	f001 ef78 	blx	33b4 <utee_cryp_obj_get_info>
/mnt/disk/raspbian-tee/optee_os/lib/libutee/tee_api_objects.c:268
    14c4:	b108      	cbz	r0, 14ca <TEE_PopulateTransientObject+0x26>
/mnt/disk/raspbian-tee/optee_os/lib/libutee/tee_api_objects.c:269
    14c6:	f006 fc3d 	bl	7d44 <TEE_Panic>
/mnt/disk/raspbian-tee/optee_os/lib/libutee/tee_api_objects.c:272
    14ca:	69fb      	ldr	r3, [r7, #28]
    14cc:	03da      	lsls	r2, r3, #15
    14ce:	d502      	bpl.n	14d6 <TEE_PopulateTransientObject+0x32>
/mnt/disk/raspbian-tee/optee_os/lib/libutee/tee_api_objects.c:273
    14d0:	2000      	movs	r0, #0
    14d2:	f006 fc37 	bl	7d44 <TEE_Panic>
/mnt/disk/raspbian-tee/optee_os/lib/libutee/tee_api_objects.c:276
    14d6:	69fb      	ldr	r3, [r7, #28]
    14d8:	039b      	lsls	r3, r3, #14
    14da:	d502      	bpl.n	14e2 <TEE_PopulateTransientObject+0x3e>
/mnt/disk/raspbian-tee/optee_os/lib/libutee/tee_api_objects.c:277
    14dc:	2000      	movs	r0, #0
    14de:	f006 fc31 	bl	7d44 <TEE_Panic>
/mnt/disk/raspbian-tee/optee_os/lib/libutee/tee_api_objects.c:279
    14e2:	4622      	mov	r2, r4
    14e4:	4641      	mov	r1, r8
    14e6:	4628      	mov	r0, r5
    14e8:	f7ff fea8 	bl	123c <__utee_from_attr>
/mnt/disk/raspbian-tee/optee_os/lib/libutee/tee_api_objects.c:280
    14ec:	4622      	mov	r2, r4
    14ee:	4629      	mov	r1, r5
    14f0:	4630      	mov	r0, r6
    14f2:	f001 ef9c 	blx	342c <utee_cryp_obj_populate>
/mnt/disk/raspbian-tee/optee_os/lib/libutee/tee_api_objects.c:281
    14f6:	4604      	mov	r4, r0
    14f8:	b120      	cbz	r0, 1504 <TEE_PopulateTransientObject+0x60>
/mnt/disk/raspbian-tee/optee_os/lib/libutee/tee_api_objects.c:281 (discriminator 1)
    14fa:	4b05      	ldr	r3, [pc, #20]	; (1510 <TEE_PopulateTransientObject+0x6c>)
    14fc:	4298      	cmp	r0, r3
    14fe:	d001      	beq.n	1504 <TEE_PopulateTransientObject+0x60>
/mnt/disk/raspbian-tee/optee_os/lib/libutee/tee_api_objects.c:282
    1500:	f006 fc20 	bl	7d44 <TEE_Panic>
/mnt/disk/raspbian-tee/optee_os/lib/libutee/tee_api_objects.c:284
    1504:	4620      	mov	r0, r4
    1506:	3720      	adds	r7, #32
    1508:	46bd      	mov	sp, r7
    150a:	e8bd 81f0 	ldmia.w	sp!, {r4, r5, r6, r7, r8, pc}
    150e:	bf00      	nop
    1510:	ffff0006 	.word	0xffff0006

00001514 <TEE_InitRefAttribute>:
TEE_InitRefAttribute():
/mnt/disk/raspbian-tee/optee_os/lib/libutee/tee_api_objects.c:288
    1514:	b5f8      	push	{r3, r4, r5, r6, r7, lr}
    1516:	460d      	mov	r5, r1
    1518:	4617      	mov	r7, r2
    151a:	461e      	mov	r6, r3
/mnt/disk/raspbian-tee/optee_os/lib/libutee/tee_api_objects.c:289
    151c:	4604      	mov	r4, r0
    151e:	b908      	cbnz	r0, 1524 <TEE_InitRefAttribute+0x10>
/mnt/disk/raspbian-tee/optee_os/lib/libutee/tee_api_objects.c:290
    1520:	f006 fc10 	bl	7d44 <TEE_Panic>
/mnt/disk/raspbian-tee/optee_os/lib/libutee/tee_api_objects.c:291
    1524:	00ab      	lsls	r3, r5, #2
    1526:	d502      	bpl.n	152e <TEE_InitRefAttribute+0x1a>
/mnt/disk/raspbian-tee/optee_os/lib/libutee/tee_api_objects.c:292
    1528:	2000      	movs	r0, #0
    152a:	f006 fc0b 	bl	7d44 <TEE_Panic>
/mnt/disk/raspbian-tee/optee_os/lib/libutee/tee_api_objects.c:294
    152e:	e884 00a0 	stmia.w	r4, {r5, r7}
/mnt/disk/raspbian-tee/optee_os/lib/libutee/tee_api_objects.c:295
    1532:	60a6      	str	r6, [r4, #8]
    1534:	bdf8      	pop	{r3, r4, r5, r6, r7, pc}

00001536 <TEE_InitValueAttribute>:
TEE_InitValueAttribute():
/mnt/disk/raspbian-tee/optee_os/lib/libutee/tee_api_objects.c:300
    1536:	b5f8      	push	{r3, r4, r5, r6, r7, lr}
    1538:	460d      	mov	r5, r1
    153a:	4617      	mov	r7, r2
    153c:	461e      	mov	r6, r3
/mnt/disk/raspbian-tee/optee_os/lib/libutee/tee_api_objects.c:301
    153e:	4604      	mov	r4, r0
    1540:	b908      	cbnz	r0, 1546 <TEE_InitValueAttribute+0x10>
/mnt/disk/raspbian-tee/optee_os/lib/libutee/tee_api_objects.c:302
    1542:	f006 fbff 	bl	7d44 <TEE_Panic>
/mnt/disk/raspbian-tee/optee_os/lib/libutee/tee_api_objects.c:303
    1546:	f015 5000 	ands.w	r0, r5, #536870912	; 0x20000000
    154a:	d101      	bne.n	1550 <TEE_InitValueAttribute+0x1a>
/mnt/disk/raspbian-tee/optee_os/lib/libutee/tee_api_objects.c:304
    154c:	f006 fbfa 	bl	7d44 <TEE_Panic>
/mnt/disk/raspbian-tee/optee_os/lib/libutee/tee_api_objects.c:306
    1550:	e884 00a0 	stmia.w	r4, {r5, r7}
/mnt/disk/raspbian-tee/optee_os/lib/libutee/tee_api_objects.c:307
    1554:	60a6      	str	r6, [r4, #8]
    1556:	bdf8      	pop	{r3, r4, r5, r6, r7, pc}

00001558 <TEE_CopyObjectAttributes1>:
TEE_CopyObjectAttributes1():
/mnt/disk/raspbian-tee/optee_os/lib/libutee/tee_api_objects.c:333
    1558:	b570      	push	{r4, r5, r6, lr}
    155a:	460d      	mov	r5, r1
    155c:	4606      	mov	r6, r0
    155e:	b08e      	sub	sp, #56	; 0x38
/mnt/disk/raspbian-tee/optee_os/lib/libutee/tee_api_objects.c:338
    1560:	4669      	mov	r1, sp
    1562:	f001 ef28 	blx	33b4 <utee_cryp_obj_get_info>
/mnt/disk/raspbian-tee/optee_os/lib/libutee/tee_api_objects.c:339
    1566:	4604      	mov	r4, r0
    1568:	b9e0      	cbnz	r0, 15a4 <TEE_CopyObjectAttributes1+0x4c>
/mnt/disk/raspbian-tee/optee_os/lib/libutee/tee_api_objects.c:342
    156a:	a907      	add	r1, sp, #28
    156c:	4628      	mov	r0, r5
    156e:	f001 ef22 	blx	33b4 <utee_cryp_obj_get_info>
/mnt/disk/raspbian-tee/optee_os/lib/libutee/tee_api_objects.c:343
    1572:	4604      	mov	r4, r0
    1574:	b9b0      	cbnz	r0, 15a4 <TEE_CopyObjectAttributes1+0x4c>
/mnt/disk/raspbian-tee/optee_os/lib/libutee/tee_api_objects.c:346
    1576:	9b0d      	ldr	r3, [sp, #52]	; 0x34
    1578:	0399      	lsls	r1, r3, #14
    157a:	d401      	bmi.n	1580 <TEE_CopyObjectAttributes1+0x28>
/mnt/disk/raspbian-tee/optee_os/lib/libutee/tee_api_objects.c:347
    157c:	f006 fbe2 	bl	7d44 <TEE_Panic>
/mnt/disk/raspbian-tee/optee_os/lib/libutee/tee_api_objects.c:349
    1580:	9b06      	ldr	r3, [sp, #24]
    1582:	03da      	lsls	r2, r3, #15
    1584:	d502      	bpl.n	158c <TEE_CopyObjectAttributes1+0x34>
/mnt/disk/raspbian-tee/optee_os/lib/libutee/tee_api_objects.c:350
    1586:	2000      	movs	r0, #0
    1588:	f006 fbdc 	bl	7d44 <TEE_Panic>
/mnt/disk/raspbian-tee/optee_os/lib/libutee/tee_api_objects.c:352
    158c:	9b06      	ldr	r3, [sp, #24]
    158e:	039b      	lsls	r3, r3, #14
    1590:	d502      	bpl.n	1598 <TEE_CopyObjectAttributes1+0x40>
/mnt/disk/raspbian-tee/optee_os/lib/libutee/tee_api_objects.c:353
    1592:	2000      	movs	r0, #0
    1594:	f006 fbd6 	bl	7d44 <TEE_Panic>
/mnt/disk/raspbian-tee/optee_os/lib/libutee/tee_api_objects.c:355
    1598:	4629      	mov	r1, r5
    159a:	4630      	mov	r0, r6
    159c:	f001 ef50 	blx	3440 <utee_cryp_obj_copy>
/mnt/disk/raspbian-tee/optee_os/lib/libutee/tee_api_objects.c:359
    15a0:	4604      	mov	r4, r0
    15a2:	b140      	cbz	r0, 15b6 <TEE_CopyObjectAttributes1+0x5e>
/mnt/disk/raspbian-tee/optee_os/lib/libutee/tee_api_objects.c:359 (discriminator 1)
    15a4:	4b05      	ldr	r3, [pc, #20]	; (15bc <TEE_CopyObjectAttributes1+0x64>)
    15a6:	429c      	cmp	r4, r3
    15a8:	d005      	beq.n	15b6 <TEE_CopyObjectAttributes1+0x5e>
/mnt/disk/raspbian-tee/optee_os/lib/libutee/tee_api_objects.c:360
    15aa:	3302      	adds	r3, #2
    15ac:	429c      	cmp	r4, r3
    15ae:	d002      	beq.n	15b6 <TEE_CopyObjectAttributes1+0x5e>
/mnt/disk/raspbian-tee/optee_os/lib/libutee/tee_api_objects.c:362
    15b0:	4620      	mov	r0, r4
    15b2:	f006 fbc7 	bl	7d44 <TEE_Panic>
/mnt/disk/raspbian-tee/optee_os/lib/libutee/tee_api_objects.c:365
    15b6:	4620      	mov	r0, r4
    15b8:	b00e      	add	sp, #56	; 0x38
    15ba:	bd70      	pop	{r4, r5, r6, pc}
    15bc:	f0100001 	.word	0xf0100001

000015c0 <TEE_CopyObjectAttributes>:
TEE_CopyObjectAttributes():
/mnt/disk/raspbian-tee/optee_os/lib/libutee/tee_api_objects.c:318
    15c0:	b530      	push	{r4, r5, lr}
    15c2:	460c      	mov	r4, r1
    15c4:	4605      	mov	r5, r0
    15c6:	b089      	sub	sp, #36	; 0x24
/mnt/disk/raspbian-tee/optee_os/lib/libutee/tee_api_objects.c:322
    15c8:	4620      	mov	r0, r4
    15ca:	a901      	add	r1, sp, #4
    15cc:	f001 eef2 	blx	33b4 <utee_cryp_obj_get_info>
/mnt/disk/raspbian-tee/optee_os/lib/libutee/tee_api_objects.c:323
    15d0:	4b06      	ldr	r3, [pc, #24]	; (15ec <TEE_CopyObjectAttributes+0x2c>)
    15d2:	9a01      	ldr	r2, [sp, #4]
    15d4:	429a      	cmp	r2, r3
    15d6:	d006      	beq.n	15e6 <TEE_CopyObjectAttributes+0x26>
/mnt/disk/raspbian-tee/optee_os/lib/libutee/tee_api_objects.c:326
    15d8:	4621      	mov	r1, r4
    15da:	4628      	mov	r0, r5
    15dc:	f7ff ffbc 	bl	1558 <TEE_CopyObjectAttributes1>
/mnt/disk/raspbian-tee/optee_os/lib/libutee/tee_api_objects.c:327
    15e0:	b108      	cbz	r0, 15e6 <TEE_CopyObjectAttributes+0x26>
/mnt/disk/raspbian-tee/optee_os/lib/libutee/tee_api_objects.c:328
    15e2:	f006 fbaf 	bl	7d44 <TEE_Panic>
/mnt/disk/raspbian-tee/optee_os/lib/libutee/tee_api_objects.c:329
    15e6:	b009      	add	sp, #36	; 0x24
    15e8:	bd30      	pop	{r4, r5, pc}
    15ea:	bf00      	nop
    15ec:	a00000be 	.word	0xa00000be

000015f0 <TEE_GenerateKey>:
TEE_GenerateKey():
/mnt/disk/raspbian-tee/optee_os/lib/libutee/tee_api_objects.c:369
    15f0:	e92d 41f0 	stmdb	sp!, {r4, r5, r6, r7, r8, lr}
    15f4:	4688      	mov	r8, r1
    15f6:	4611      	mov	r1, r2
/mnt/disk/raspbian-tee/optee_os/lib/libutee/tee_api_objects.c:371
    15f8:	2218      	movs	r2, #24
/mnt/disk/raspbian-tee/optee_os/lib/libutee/tee_api_objects.c:369
    15fa:	af00      	add	r7, sp, #0
    15fc:	461c      	mov	r4, r3
    15fe:	4606      	mov	r6, r0
/mnt/disk/raspbian-tee/optee_os/lib/libutee/tee_api_objects.c:371
    1600:	435a      	muls	r2, r3
    1602:	3208      	adds	r2, #8
    1604:	ebad 0d02 	sub.w	sp, sp, r2
/mnt/disk/raspbian-tee/optee_os/lib/libutee/tee_api_objects.c:373
    1608:	461a      	mov	r2, r3
    160a:	4668      	mov	r0, sp
    160c:	f7ff fe16 	bl	123c <__utee_from_attr>
/mnt/disk/raspbian-tee/optee_os/lib/libutee/tee_api_objects.c:374
    1610:	4623      	mov	r3, r4
    1612:	466a      	mov	r2, sp
    1614:	4641      	mov	r1, r8
    1616:	4630      	mov	r0, r6
    1618:	f002 e808 	blx	362c <utee_cryp_obj_generate_key>
/mnt/disk/raspbian-tee/optee_os/lib/libutee/tee_api_objects.c:377
    161c:	4604      	mov	r4, r0
    161e:	b120      	cbz	r0, 162a <TEE_GenerateKey+0x3a>
/mnt/disk/raspbian-tee/optee_os/lib/libutee/tee_api_objects.c:377 (discriminator 1)
    1620:	4b04      	ldr	r3, [pc, #16]	; (1634 <TEE_GenerateKey+0x44>)
    1622:	4298      	cmp	r0, r3
    1624:	d001      	beq.n	162a <TEE_GenerateKey+0x3a>
/mnt/disk/raspbian-tee/optee_os/lib/libutee/tee_api_objects.c:378
    1626:	f006 fb8d 	bl	7d44 <TEE_Panic>
/mnt/disk/raspbian-tee/optee_os/lib/libutee/tee_api_objects.c:381
    162a:	4620      	mov	r0, r4
    162c:	46bd      	mov	sp, r7
    162e:	e8bd 81f0 	ldmia.w	sp!, {r4, r5, r6, r7, r8, pc}
    1632:	bf00      	nop
    1634:	ffff0006 	.word	0xffff0006

00001638 <TEE_OpenPersistentObject>:
TEE_OpenPersistentObject():
/mnt/disk/raspbian-tee/optee_os/lib/libutee/tee_api_objects.c:388
    1638:	b530      	push	{r4, r5, lr}
    163a:	b085      	sub	sp, #20
    163c:	9d08      	ldr	r5, [sp, #32]
/mnt/disk/raspbian-tee/optee_os/lib/libutee/tee_api_objects.c:392
    163e:	b919      	cbnz	r1, 1648 <TEE_OpenPersistentObject+0x10>
    1640:	4c12      	ldr	r4, [pc, #72]	; (168c <TEE_OpenPersistentObject+0x54>)
/mnt/disk/raspbian-tee/optee_os/lib/libutee/tee_api_objects.c:422
    1642:	4620      	mov	r0, r4
    1644:	b005      	add	sp, #20
    1646:	bd30      	pop	{r4, r5, pc}
/mnt/disk/raspbian-tee/optee_os/lib/libutee/tee_api_objects.c:397
    1648:	2a40      	cmp	r2, #64	; 0x40
    164a:	d809      	bhi.n	1660 <TEE_OpenPersistentObject+0x28>
/mnt/disk/raspbian-tee/optee_os/lib/libutee/tee_api_objects.c:402
    164c:	b145      	cbz	r5, 1660 <TEE_OpenPersistentObject+0x28>
/mnt/disk/raspbian-tee/optee_os/lib/libutee/tee_api_objects.c:407
    164e:	ac03      	add	r4, sp, #12
    1650:	9400      	str	r4, [sp, #0]
    1652:	f001 ef66 	blx	3520 <utee_storage_obj_open>
/mnt/disk/raspbian-tee/optee_os/lib/libutee/tee_api_objects.c:409
    1656:	4604      	mov	r4, r0
    1658:	b920      	cbnz	r0, 1664 <TEE_OpenPersistentObject+0x2c>
/mnt/disk/raspbian-tee/optee_os/lib/libutee/tee_api_objects.c:410
    165a:	9b03      	ldr	r3, [sp, #12]
    165c:	602b      	str	r3, [r5, #0]
    165e:	e7f0      	b.n	1642 <TEE_OpenPersistentObject+0xa>
    1660:	4c0b      	ldr	r4, [pc, #44]	; (1690 <TEE_OpenPersistentObject+0x58>)
    1662:	e00e      	b.n	1682 <TEE_OpenPersistentObject+0x4a>
/mnt/disk/raspbian-tee/optee_os/lib/libutee/tee_api_objects.c:413
    1664:	4b09      	ldr	r3, [pc, #36]	; (168c <TEE_OpenPersistentObject+0x54>)
    1666:	4298      	cmp	r0, r3
    1668:	d0ea      	beq.n	1640 <TEE_OpenPersistentObject+0x8>
/mnt/disk/raspbian-tee/optee_os/lib/libutee/tee_api_objects.c:414
    166a:	4b0a      	ldr	r3, [pc, #40]	; (1694 <TEE_OpenPersistentObject+0x5c>)
    166c:	429c      	cmp	r4, r3
    166e:	d0e8      	beq.n	1642 <TEE_OpenPersistentObject+0xa>
/mnt/disk/raspbian-tee/optee_os/lib/libutee/tee_api_objects.c:415
    1670:	3309      	adds	r3, #9
    1672:	429c      	cmp	r4, r3
    1674:	d0e5      	beq.n	1642 <TEE_OpenPersistentObject+0xa>
/mnt/disk/raspbian-tee/optee_os/lib/libutee/tee_api_objects.c:416
    1676:	4b08      	ldr	r3, [pc, #32]	; (1698 <TEE_OpenPersistentObject+0x60>)
    1678:	429c      	cmp	r4, r3
    167a:	d0e2      	beq.n	1642 <TEE_OpenPersistentObject+0xa>
/mnt/disk/raspbian-tee/optee_os/lib/libutee/tee_api_objects.c:417
    167c:	3302      	adds	r3, #2
    167e:	429c      	cmp	r4, r3
    1680:	d0df      	beq.n	1642 <TEE_OpenPersistentObject+0xa>
/mnt/disk/raspbian-tee/optee_os/lib/libutee/tee_api_objects.c:419
    1682:	4620      	mov	r0, r4
    1684:	f006 fb5e 	bl	7d44 <TEE_Panic>
/mnt/disk/raspbian-tee/optee_os/lib/libutee/tee_api_objects.c:421
    1688:	e7db      	b.n	1642 <TEE_OpenPersistentObject+0xa>
    168a:	bf00      	nop
    168c:	ffff0008 	.word	0xffff0008
    1690:	ffff0006 	.word	0xffff0006
    1694:	ffff0003 	.word	0xffff0003
    1698:	f0100001 	.word	0xf0100001

0000169c <TEE_CreatePersistentObject>:
TEE_CreatePersistentObject():
/mnt/disk/raspbian-tee/optee_os/lib/libutee/tee_api_objects.c:430
    169c:	b530      	push	{r4, r5, lr}
    169e:	b087      	sub	sp, #28
    16a0:	9c0d      	ldr	r4, [sp, #52]	; 0x34
/mnt/disk/raspbian-tee/optee_os/lib/libutee/tee_api_objects.c:434
    16a2:	2900      	cmp	r1, #0
    16a4:	d033      	beq.n	170e <TEE_CreatePersistentObject+0x72>
/mnt/disk/raspbian-tee/optee_os/lib/libutee/tee_api_objects.c:439
    16a6:	2a40      	cmp	r2, #64	; 0x40
    16a8:	d835      	bhi.n	1716 <TEE_CreatePersistentObject+0x7a>
/mnt/disk/raspbian-tee/optee_os/lib/libutee/tee_api_objects.c:444
    16aa:	ad05      	add	r5, sp, #20
    16ac:	9503      	str	r5, [sp, #12]
    16ae:	9d0c      	ldr	r5, [sp, #48]	; 0x30
    16b0:	9502      	str	r5, [sp, #8]
    16b2:	9d0b      	ldr	r5, [sp, #44]	; 0x2c
    16b4:	9501      	str	r5, [sp, #4]
    16b6:	9d0a      	ldr	r5, [sp, #40]	; 0x28
    16b8:	9500      	str	r5, [sp, #0]
    16ba:	f001 ef3e 	blx	3538 <utee_storage_obj_create>
/mnt/disk/raspbian-tee/optee_os/lib/libutee/tee_api_objects.c:447
    16be:	b970      	cbnz	r0, 16de <TEE_CreatePersistentObject+0x42>
/mnt/disk/raspbian-tee/optee_os/lib/libutee/tee_api_objects.c:448
    16c0:	b11c      	cbz	r4, 16ca <TEE_CreatePersistentObject+0x2e>
/mnt/disk/raspbian-tee/optee_os/lib/libutee/tee_api_objects.c:449
    16c2:	9b05      	ldr	r3, [sp, #20]
    16c4:	6023      	str	r3, [r4, #0]
/mnt/disk/raspbian-tee/optee_os/lib/libutee/tee_api_objects.c:468
    16c6:	b007      	add	sp, #28
    16c8:	bd30      	pop	{r4, r5, pc}
/mnt/disk/raspbian-tee/optee_os/lib/libutee/tee_api_objects.c:451
    16ca:	9805      	ldr	r0, [sp, #20]
    16cc:	f001 ee9a 	blx	3404 <utee_cryp_obj_close>
/mnt/disk/raspbian-tee/optee_os/lib/libutee/tee_api_objects.c:452
    16d0:	2800      	cmp	r0, #0
    16d2:	d0f8      	beq.n	16c6 <TEE_CreatePersistentObject+0x2a>
/mnt/disk/raspbian-tee/optee_os/lib/libutee/tee_api_objects.c:458
    16d4:	4b12      	ldr	r3, [pc, #72]	; (1720 <TEE_CreatePersistentObject+0x84>)
    16d6:	4298      	cmp	r0, r3
    16d8:	d106      	bne.n	16e8 <TEE_CreatePersistentObject+0x4c>
/mnt/disk/raspbian-tee/optee_os/lib/libutee/tee_api_objects.c:467
    16da:	4811      	ldr	r0, [pc, #68]	; (1720 <TEE_CreatePersistentObject+0x84>)
    16dc:	e7f3      	b.n	16c6 <TEE_CreatePersistentObject+0x2a>
/mnt/disk/raspbian-tee/optee_os/lib/libutee/tee_api_objects.c:456
    16de:	2c00      	cmp	r4, #0
    16e0:	d0f8      	beq.n	16d4 <TEE_CreatePersistentObject+0x38>
/mnt/disk/raspbian-tee/optee_os/lib/libutee/tee_api_objects.c:457
    16e2:	2300      	movs	r3, #0
    16e4:	6023      	str	r3, [r4, #0]
    16e6:	e7f5      	b.n	16d4 <TEE_CreatePersistentObject+0x38>
/mnt/disk/raspbian-tee/optee_os/lib/libutee/tee_api_objects.c:458 (discriminator 1)
    16e8:	4b0e      	ldr	r3, [pc, #56]	; (1724 <TEE_CreatePersistentObject+0x88>)
    16ea:	4298      	cmp	r0, r3
    16ec:	d0eb      	beq.n	16c6 <TEE_CreatePersistentObject+0x2a>
/mnt/disk/raspbian-tee/optee_os/lib/libutee/tee_api_objects.c:459
    16ee:	3309      	adds	r3, #9
    16f0:	4298      	cmp	r0, r3
    16f2:	d0e8      	beq.n	16c6 <TEE_CreatePersistentObject+0x2a>
/mnt/disk/raspbian-tee/optee_os/lib/libutee/tee_api_objects.c:460
    16f4:	4b0c      	ldr	r3, [pc, #48]	; (1728 <TEE_CreatePersistentObject+0x8c>)
    16f6:	4298      	cmp	r0, r3
    16f8:	d0e5      	beq.n	16c6 <TEE_CreatePersistentObject+0x2a>
/mnt/disk/raspbian-tee/optee_os/lib/libutee/tee_api_objects.c:461
    16fa:	4b0c      	ldr	r3, [pc, #48]	; (172c <TEE_CreatePersistentObject+0x90>)
    16fc:	4298      	cmp	r0, r3
    16fe:	d0e2      	beq.n	16c6 <TEE_CreatePersistentObject+0x2a>
/mnt/disk/raspbian-tee/optee_os/lib/libutee/tee_api_objects.c:462
    1700:	3302      	adds	r3, #2
    1702:	4298      	cmp	r0, r3
    1704:	d0df      	beq.n	16c6 <TEE_CreatePersistentObject+0x2a>
/mnt/disk/raspbian-tee/optee_os/lib/libutee/tee_api_objects.c:465
    1706:	f006 fb1d 	bl	7d44 <TEE_Panic>
/mnt/disk/raspbian-tee/optee_os/lib/libutee/tee_api_objects.c:467
    170a:	2000      	movs	r0, #0
    170c:	e7db      	b.n	16c6 <TEE_CreatePersistentObject+0x2a>
/mnt/disk/raspbian-tee/optee_os/lib/libutee/tee_api_objects.c:456
    170e:	2c00      	cmp	r4, #0
    1710:	d0e3      	beq.n	16da <TEE_CreatePersistentObject+0x3e>
/mnt/disk/raspbian-tee/optee_os/lib/libutee/tee_api_objects.c:435
    1712:	4803      	ldr	r0, [pc, #12]	; (1720 <TEE_CreatePersistentObject+0x84>)
    1714:	e7e5      	b.n	16e2 <TEE_CreatePersistentObject+0x46>
/mnt/disk/raspbian-tee/optee_os/lib/libutee/tee_api_objects.c:440
    1716:	4806      	ldr	r0, [pc, #24]	; (1730 <TEE_CreatePersistentObject+0x94>)
/mnt/disk/raspbian-tee/optee_os/lib/libutee/tee_api_objects.c:456
    1718:	2c00      	cmp	r4, #0
    171a:	d1e2      	bne.n	16e2 <TEE_CreatePersistentObject+0x46>
    171c:	e7f3      	b.n	1706 <TEE_CreatePersistentObject+0x6a>
    171e:	bf00      	nop
    1720:	ffff0008 	.word	0xffff0008
    1724:	ffff0003 	.word	0xffff0003
    1728:	ffff3041 	.word	0xffff3041
    172c:	f0100001 	.word	0xf0100001
    1730:	ffff0006 	.word	0xffff0006

00001734 <TEE_CloseAndDeletePersistentObject1>:
TEE_CloseAndDeletePersistentObject1():
/mnt/disk/raspbian-tee/optee_os/lib/libutee/tee_api_objects.c:490
    1734:	b510      	push	{r4, lr}
/mnt/disk/raspbian-tee/optee_os/lib/libutee/tee_api_objects.c:493
    1736:	b150      	cbz	r0, 174e <TEE_CloseAndDeletePersistentObject1+0x1a>
/mnt/disk/raspbian-tee/optee_os/lib/libutee/tee_api_objects.c:496
    1738:	f001 ef0a 	blx	3550 <utee_storage_obj_del>
/mnt/disk/raspbian-tee/optee_os/lib/libutee/tee_api_objects.c:498
    173c:	4604      	mov	r4, r0
    173e:	b120      	cbz	r0, 174a <TEE_CloseAndDeletePersistentObject1+0x16>
    1740:	4b04      	ldr	r3, [pc, #16]	; (1754 <TEE_CloseAndDeletePersistentObject1+0x20>)
    1742:	4298      	cmp	r0, r3
    1744:	d001      	beq.n	174a <TEE_CloseAndDeletePersistentObject1+0x16>
/mnt/disk/raspbian-tee/optee_os/lib/libutee/tee_api_objects.c:499
    1746:	f006 fafd 	bl	7d44 <TEE_Panic>
/mnt/disk/raspbian-tee/optee_os/lib/libutee/tee_api_objects.c:502
    174a:	4620      	mov	r0, r4
    174c:	bd10      	pop	{r4, pc}
/mnt/disk/raspbian-tee/optee_os/lib/libutee/tee_api_objects.c:494
    174e:	4c01      	ldr	r4, [pc, #4]	; (1754 <TEE_CloseAndDeletePersistentObject1+0x20>)
    1750:	e7fb      	b.n	174a <TEE_CloseAndDeletePersistentObject1+0x16>
    1752:	bf00      	nop
    1754:	f0100003 	.word	0xf0100003

00001758 <TEE_CloseAndDeletePersistentObject>:
TEE_CloseAndDeletePersistentObject():
/mnt/disk/raspbian-tee/optee_os/lib/libutee/tee_api_objects.c:477
    1758:	b508      	push	{r3, lr}
/mnt/disk/raspbian-tee/optee_os/lib/libutee/tee_api_objects.c:480
    175a:	b138      	cbz	r0, 176c <TEE_CloseAndDeletePersistentObject+0x14>
/mnt/disk/raspbian-tee/optee_os/lib/libutee/tee_api_objects.c:483
    175c:	f7ff ffea 	bl	1734 <TEE_CloseAndDeletePersistentObject1>
/mnt/disk/raspbian-tee/optee_os/lib/libutee/tee_api_objects.c:485
    1760:	b120      	cbz	r0, 176c <TEE_CloseAndDeletePersistentObject+0x14>
/mnt/disk/raspbian-tee/optee_os/lib/libutee/tee_api_objects.c:486
    1762:	2000      	movs	r0, #0
/mnt/disk/raspbian-tee/optee_os/lib/libutee/tee_api_objects.c:487
    1764:	e8bd 4008 	ldmia.w	sp!, {r3, lr}
/mnt/disk/raspbian-tee/optee_os/lib/libutee/tee_api_objects.c:486
    1768:	f006 baec 	b.w	7d44 <TEE_Panic>
    176c:	bd08      	pop	{r3, pc}

0000176e <TEE_RenamePersistentObject>:
TEE_RenamePersistentObject():
/mnt/disk/raspbian-tee/optee_os/lib/libutee/tee_api_objects.c:508
    176e:	b510      	push	{r4, lr}
/mnt/disk/raspbian-tee/optee_os/lib/libutee/tee_api_objects.c:511
    1770:	b1a0      	cbz	r0, 179c <TEE_RenamePersistentObject+0x2e>
/mnt/disk/raspbian-tee/optee_os/lib/libutee/tee_api_objects.c:516
    1772:	b1a9      	cbz	r1, 17a0 <TEE_RenamePersistentObject+0x32>
/mnt/disk/raspbian-tee/optee_os/lib/libutee/tee_api_objects.c:521
    1774:	2a40      	cmp	r2, #64	; 0x40
    1776:	d813      	bhi.n	17a0 <TEE_RenamePersistentObject+0x32>
/mnt/disk/raspbian-tee/optee_os/lib/libutee/tee_api_objects.c:526
    1778:	f001 eef4 	blx	3564 <utee_storage_obj_rename>
/mnt/disk/raspbian-tee/optee_os/lib/libutee/tee_api_objects.c:530
    177c:	4604      	mov	r4, r0
    177e:	b158      	cbz	r0, 1798 <TEE_RenamePersistentObject+0x2a>
/mnt/disk/raspbian-tee/optee_os/lib/libutee/tee_api_objects.c:530 (discriminator 1)
    1780:	4b08      	ldr	r3, [pc, #32]	; (17a4 <TEE_RenamePersistentObject+0x36>)
    1782:	4298      	cmp	r0, r3
    1784:	d008      	beq.n	1798 <TEE_RenamePersistentObject+0x2a>
/mnt/disk/raspbian-tee/optee_os/lib/libutee/tee_api_objects.c:531
    1786:	4b08      	ldr	r3, [pc, #32]	; (17a8 <TEE_RenamePersistentObject+0x3a>)
    1788:	4298      	cmp	r0, r3
    178a:	d005      	beq.n	1798 <TEE_RenamePersistentObject+0x2a>
/mnt/disk/raspbian-tee/optee_os/lib/libutee/tee_api_objects.c:532
    178c:	3302      	adds	r3, #2
    178e:	4298      	cmp	r0, r3
    1790:	d002      	beq.n	1798 <TEE_RenamePersistentObject+0x2a>
/mnt/disk/raspbian-tee/optee_os/lib/libutee/tee_api_objects.c:534
    1792:	4620      	mov	r0, r4
    1794:	f006 fad6 	bl	7d44 <TEE_Panic>
/mnt/disk/raspbian-tee/optee_os/lib/libutee/tee_api_objects.c:537
    1798:	4620      	mov	r0, r4
    179a:	bd10      	pop	{r4, pc}
/mnt/disk/raspbian-tee/optee_os/lib/libutee/tee_api_objects.c:512
    179c:	4c03      	ldr	r4, [pc, #12]	; (17ac <TEE_RenamePersistentObject+0x3e>)
    179e:	e7f8      	b.n	1792 <TEE_RenamePersistentObject+0x24>
/mnt/disk/raspbian-tee/optee_os/lib/libutee/tee_api_objects.c:517
    17a0:	4c03      	ldr	r4, [pc, #12]	; (17b0 <TEE_RenamePersistentObject+0x42>)
    17a2:	e7f6      	b.n	1792 <TEE_RenamePersistentObject+0x24>
    17a4:	ffff0003 	.word	0xffff0003
    17a8:	f0100001 	.word	0xf0100001
    17ac:	ffff0008 	.word	0xffff0008
    17b0:	ffff0006 	.word	0xffff0006

000017b4 <TEE_AllocatePersistentObjectEnumerator>:
TEE_AllocatePersistentObjectEnumerator():
/mnt/disk/raspbian-tee/optee_os/lib/libutee/tee_api_objects.c:541
    17b4:	b537      	push	{r0, r1, r2, r4, r5, lr}
/mnt/disk/raspbian-tee/optee_os/lib/libutee/tee_api_objects.c:545
    17b6:	4605      	mov	r5, r0
    17b8:	b190      	cbz	r0, 17e0 <TEE_AllocatePersistentObjectEnumerator+0x2c>
/mnt/disk/raspbian-tee/optee_os/lib/libutee/tee_api_objects.c:548
    17ba:	a801      	add	r0, sp, #4
    17bc:	f001 eedc 	blx	3578 <utee_storage_alloc_enum>
/mnt/disk/raspbian-tee/optee_os/lib/libutee/tee_api_objects.c:550
    17c0:	4604      	mov	r4, r0
    17c2:	b108      	cbz	r0, 17c8 <TEE_AllocatePersistentObjectEnumerator+0x14>
/mnt/disk/raspbian-tee/optee_os/lib/libutee/tee_api_objects.c:551
    17c4:	2300      	movs	r3, #0
    17c6:	9301      	str	r3, [sp, #4]
/mnt/disk/raspbian-tee/optee_os/lib/libutee/tee_api_objects.c:553
    17c8:	9b01      	ldr	r3, [sp, #4]
    17ca:	602b      	str	r3, [r5, #0]
/mnt/disk/raspbian-tee/optee_os/lib/libutee/tee_api_objects.c:555
    17cc:	b12c      	cbz	r4, 17da <TEE_AllocatePersistentObjectEnumerator+0x26>
/mnt/disk/raspbian-tee/optee_os/lib/libutee/tee_api_objects.c:555 (discriminator 1)
    17ce:	4b05      	ldr	r3, [pc, #20]	; (17e4 <TEE_AllocatePersistentObjectEnumerator+0x30>)
    17d0:	429c      	cmp	r4, r3
    17d2:	d002      	beq.n	17da <TEE_AllocatePersistentObjectEnumerator+0x26>
/mnt/disk/raspbian-tee/optee_os/lib/libutee/tee_api_objects.c:557
    17d4:	4620      	mov	r0, r4
    17d6:	f006 fab5 	bl	7d44 <TEE_Panic>
/mnt/disk/raspbian-tee/optee_os/lib/libutee/tee_api_objects.c:560
    17da:	4620      	mov	r0, r4
    17dc:	b003      	add	sp, #12
    17de:	bd30      	pop	{r4, r5, pc}
/mnt/disk/raspbian-tee/optee_os/lib/libutee/tee_api_objects.c:546
    17e0:	4c01      	ldr	r4, [pc, #4]	; (17e8 <TEE_AllocatePersistentObjectEnumerator+0x34>)
    17e2:	e7fa      	b.n	17da <TEE_AllocatePersistentObjectEnumerator+0x26>
    17e4:	ffff0003 	.word	0xffff0003
    17e8:	ffff0006 	.word	0xffff0006

000017ec <TEE_FreePersistentObjectEnumerator>:
TEE_FreePersistentObjectEnumerator():
/mnt/disk/raspbian-tee/optee_os/lib/libutee/tee_api_objects.c:563
    17ec:	b508      	push	{r3, lr}
/mnt/disk/raspbian-tee/optee_os/lib/libutee/tee_api_objects.c:566
    17ee:	b130      	cbz	r0, 17fe <TEE_FreePersistentObjectEnumerator+0x12>
/mnt/disk/raspbian-tee/optee_os/lib/libutee/tee_api_objects.c:569
    17f0:	f001 eecc 	blx	358c <utee_storage_free_enum>
/mnt/disk/raspbian-tee/optee_os/lib/libutee/tee_api_objects.c:571
    17f4:	b118      	cbz	r0, 17fe <TEE_FreePersistentObjectEnumerator+0x12>
/mnt/disk/raspbian-tee/optee_os/lib/libutee/tee_api_objects.c:573
    17f6:	e8bd 4008 	ldmia.w	sp!, {r3, lr}
/mnt/disk/raspbian-tee/optee_os/lib/libutee/tee_api_objects.c:572
    17fa:	f006 baa3 	b.w	7d44 <TEE_Panic>
    17fe:	bd08      	pop	{r3, pc}

00001800 <TEE_ResetPersistentObjectEnumerator>:
TEE_ResetPersistentObjectEnumerator():
/mnt/disk/raspbian-tee/optee_os/lib/libutee/tee_api_objects.c:576
    1800:	b508      	push	{r3, lr}
/mnt/disk/raspbian-tee/optee_os/lib/libutee/tee_api_objects.c:579
    1802:	b130      	cbz	r0, 1812 <TEE_ResetPersistentObjectEnumerator+0x12>
/mnt/disk/raspbian-tee/optee_os/lib/libutee/tee_api_objects.c:582
    1804:	f001 eecc 	blx	35a0 <utee_storage_reset_enum>
/mnt/disk/raspbian-tee/optee_os/lib/libutee/tee_api_objects.c:584
    1808:	b118      	cbz	r0, 1812 <TEE_ResetPersistentObjectEnumerator+0x12>
/mnt/disk/raspbian-tee/optee_os/lib/libutee/tee_api_objects.c:586
    180a:	e8bd 4008 	ldmia.w	sp!, {r3, lr}
/mnt/disk/raspbian-tee/optee_os/lib/libutee/tee_api_objects.c:585
    180e:	f006 ba99 	b.w	7d44 <TEE_Panic>
    1812:	bd08      	pop	{r3, pc}

00001814 <TEE_StartPersistentObjectEnumerator>:
TEE_StartPersistentObjectEnumerator():
/mnt/disk/raspbian-tee/optee_os/lib/libutee/tee_api_objects.c:591
    1814:	b510      	push	{r4, lr}
/mnt/disk/raspbian-tee/optee_os/lib/libutee/tee_api_objects.c:594
    1816:	f001 eece 	blx	35b4 <utee_storage_start_enum>
/mnt/disk/raspbian-tee/optee_os/lib/libutee/tee_api_objects.c:597
    181a:	4604      	mov	r4, r0
    181c:	b148      	cbz	r0, 1832 <TEE_StartPersistentObjectEnumerator+0x1e>
/mnt/disk/raspbian-tee/optee_os/lib/libutee/tee_api_objects.c:597 (discriminator 1)
    181e:	4b06      	ldr	r3, [pc, #24]	; (1838 <TEE_StartPersistentObjectEnumerator+0x24>)
    1820:	4298      	cmp	r0, r3
    1822:	d006      	beq.n	1832 <TEE_StartPersistentObjectEnumerator+0x1e>
/mnt/disk/raspbian-tee/optee_os/lib/libutee/tee_api_objects.c:598
    1824:	4b05      	ldr	r3, [pc, #20]	; (183c <TEE_StartPersistentObjectEnumerator+0x28>)
    1826:	f020 0202 	bic.w	r2, r0, #2
    182a:	429a      	cmp	r2, r3
    182c:	d001      	beq.n	1832 <TEE_StartPersistentObjectEnumerator+0x1e>
/mnt/disk/raspbian-tee/optee_os/lib/libutee/tee_api_objects.c:601
    182e:	f006 fa89 	bl	7d44 <TEE_Panic>
/mnt/disk/raspbian-tee/optee_os/lib/libutee/tee_api_objects.c:604
    1832:	4620      	mov	r0, r4
    1834:	bd10      	pop	{r4, pc}
    1836:	bf00      	nop
    1838:	ffff0008 	.word	0xffff0008
    183c:	f0100001 	.word	0xf0100001

00001840 <TEE_GetNextPersistentObject>:
TEE_GetNextPersistentObject():
/mnt/disk/raspbian-tee/optee_os/lib/libutee/tee_api_objects.c:609
    1840:	b510      	push	{r4, lr}
    1842:	461c      	mov	r4, r3
    1844:	b08a      	sub	sp, #40	; 0x28
/mnt/disk/raspbian-tee/optee_os/lib/libutee/tee_api_objects.c:615
    1846:	b1e2      	cbz	r2, 1882 <TEE_GetNextPersistentObject+0x42>
/mnt/disk/raspbian-tee/optee_os/lib/libutee/tee_api_objects.c:620
    1848:	b1db      	cbz	r3, 1882 <TEE_GetNextPersistentObject+0x42>
/mnt/disk/raspbian-tee/optee_os/lib/libutee/tee_api_objects.c:625
    184a:	b901      	cbnz	r1, 184e <TEE_GetNextPersistentObject+0xe>
/mnt/disk/raspbian-tee/optee_os/lib/libutee/tee_api_objects.c:628
    184c:	a903      	add	r1, sp, #12
/mnt/disk/raspbian-tee/optee_os/lib/libutee/tee_api_objects.c:629
    184e:	6823      	ldr	r3, [r4, #0]
    1850:	9300      	str	r3, [sp, #0]
    1852:	2300      	movs	r3, #0
    1854:	9301      	str	r3, [sp, #4]
/mnt/disk/raspbian-tee/optee_os/lib/libutee/tee_api_objects.c:630
    1856:	466b      	mov	r3, sp
    1858:	f001 eeb6 	blx	35c8 <utee_storage_next_enum>
/mnt/disk/raspbian-tee/optee_os/lib/libutee/tee_api_objects.c:632
    185c:	9b00      	ldr	r3, [sp, #0]
    185e:	6023      	str	r3, [r4, #0]
/mnt/disk/raspbian-tee/optee_os/lib/libutee/tee_api_objects.c:635
    1860:	4604      	mov	r4, r0
    1862:	b158      	cbz	r0, 187c <TEE_GetNextPersistentObject+0x3c>
/mnt/disk/raspbian-tee/optee_os/lib/libutee/tee_api_objects.c:635 (discriminator 1)
    1864:	4b08      	ldr	r3, [pc, #32]	; (1888 <TEE_GetNextPersistentObject+0x48>)
    1866:	4298      	cmp	r0, r3
    1868:	d008      	beq.n	187c <TEE_GetNextPersistentObject+0x3c>
/mnt/disk/raspbian-tee/optee_os/lib/libutee/tee_api_objects.c:636
    186a:	4b08      	ldr	r3, [pc, #32]	; (188c <TEE_GetNextPersistentObject+0x4c>)
    186c:	4298      	cmp	r0, r3
    186e:	d005      	beq.n	187c <TEE_GetNextPersistentObject+0x3c>
/mnt/disk/raspbian-tee/optee_os/lib/libutee/tee_api_objects.c:637
    1870:	3302      	adds	r3, #2
    1872:	4298      	cmp	r0, r3
    1874:	d002      	beq.n	187c <TEE_GetNextPersistentObject+0x3c>
/mnt/disk/raspbian-tee/optee_os/lib/libutee/tee_api_objects.c:639
    1876:	4620      	mov	r0, r4
    1878:	f006 fa64 	bl	7d44 <TEE_Panic>
/mnt/disk/raspbian-tee/optee_os/lib/libutee/tee_api_objects.c:642
    187c:	4620      	mov	r0, r4
    187e:	b00a      	add	sp, #40	; 0x28
    1880:	bd10      	pop	{r4, pc}
    1882:	4c03      	ldr	r4, [pc, #12]	; (1890 <TEE_GetNextPersistentObject+0x50>)
    1884:	e7f7      	b.n	1876 <TEE_GetNextPersistentObject+0x36>
    1886:	bf00      	nop
    1888:	ffff0008 	.word	0xffff0008
    188c:	f0100001 	.word	0xf0100001
    1890:	ffff0006 	.word	0xffff0006

00001894 <TEE_ReadObjectData>:
TEE_ReadObjectData():
/mnt/disk/raspbian-tee/optee_os/lib/libutee/tee_api_objects.c:648
    1894:	b513      	push	{r0, r1, r4, lr}
    1896:	461c      	mov	r4, r3
/mnt/disk/raspbian-tee/optee_os/lib/libutee/tee_api_objects.c:652
    1898:	b1b0      	cbz	r0, 18c8 <TEE_ReadObjectData+0x34>
/mnt/disk/raspbian-tee/optee_os/lib/libutee/tee_api_objects.c:657
    189a:	681b      	ldr	r3, [r3, #0]
    189c:	9300      	str	r3, [sp, #0]
    189e:	2300      	movs	r3, #0
    18a0:	9301      	str	r3, [sp, #4]
/mnt/disk/raspbian-tee/optee_os/lib/libutee/tee_api_objects.c:658
    18a2:	466b      	mov	r3, sp
    18a4:	f001 ee9a 	blx	35dc <utee_storage_obj_read>
/mnt/disk/raspbian-tee/optee_os/lib/libutee/tee_api_objects.c:660
    18a8:	9b00      	ldr	r3, [sp, #0]
    18aa:	6023      	str	r3, [r4, #0]
/mnt/disk/raspbian-tee/optee_os/lib/libutee/tee_api_objects.c:663
    18ac:	4604      	mov	r4, r0
    18ae:	b140      	cbz	r0, 18c2 <TEE_ReadObjectData+0x2e>
/mnt/disk/raspbian-tee/optee_os/lib/libutee/tee_api_objects.c:663 (discriminator 1)
    18b0:	4b06      	ldr	r3, [pc, #24]	; (18cc <TEE_ReadObjectData+0x38>)
    18b2:	4298      	cmp	r0, r3
    18b4:	d005      	beq.n	18c2 <TEE_ReadObjectData+0x2e>
/mnt/disk/raspbian-tee/optee_os/lib/libutee/tee_api_objects.c:664
    18b6:	3302      	adds	r3, #2
    18b8:	4298      	cmp	r0, r3
    18ba:	d002      	beq.n	18c2 <TEE_ReadObjectData+0x2e>
/mnt/disk/raspbian-tee/optee_os/lib/libutee/tee_api_objects.c:666
    18bc:	4620      	mov	r0, r4
    18be:	f006 fa41 	bl	7d44 <TEE_Panic>
/mnt/disk/raspbian-tee/optee_os/lib/libutee/tee_api_objects.c:669
    18c2:	4620      	mov	r0, r4
    18c4:	b002      	add	sp, #8
    18c6:	bd10      	pop	{r4, pc}
/mnt/disk/raspbian-tee/optee_os/lib/libutee/tee_api_objects.c:653
    18c8:	4c01      	ldr	r4, [pc, #4]	; (18d0 <TEE_ReadObjectData+0x3c>)
    18ca:	e7f7      	b.n	18bc <TEE_ReadObjectData+0x28>
    18cc:	f0100001 	.word	0xf0100001
    18d0:	ffff0006 	.word	0xffff0006

000018d4 <TEE_WriteObjectData>:
TEE_WriteObjectData():
/mnt/disk/raspbian-tee/optee_os/lib/libutee/tee_api_objects.c:673
    18d4:	b510      	push	{r4, lr}
/mnt/disk/raspbian-tee/optee_os/lib/libutee/tee_api_objects.c:676
    18d6:	b1a0      	cbz	r0, 1902 <TEE_WriteObjectData+0x2e>
/mnt/disk/raspbian-tee/optee_os/lib/libutee/tee_api_objects.c:686
    18d8:	f001 ee8a 	blx	35f0 <utee_storage_obj_write>
/mnt/disk/raspbian-tee/optee_os/lib/libutee/tee_api_objects.c:689
    18dc:	4604      	mov	r4, r0
    18de:	b170      	cbz	r0, 18fe <TEE_WriteObjectData+0x2a>
/mnt/disk/raspbian-tee/optee_os/lib/libutee/tee_api_objects.c:689 (discriminator 1)
    18e0:	4b09      	ldr	r3, [pc, #36]	; (1908 <TEE_WriteObjectData+0x34>)
    18e2:	4298      	cmp	r0, r3
    18e4:	d00b      	beq.n	18fe <TEE_WriteObjectData+0x2a>
/mnt/disk/raspbian-tee/optee_os/lib/libutee/tee_api_objects.c:690
    18e6:	3b32      	subs	r3, #50	; 0x32
    18e8:	4298      	cmp	r0, r3
    18ea:	d008      	beq.n	18fe <TEE_WriteObjectData+0x2a>
/mnt/disk/raspbian-tee/optee_os/lib/libutee/tee_api_objects.c:691
    18ec:	4b07      	ldr	r3, [pc, #28]	; (190c <TEE_WriteObjectData+0x38>)
    18ee:	4298      	cmp	r0, r3
    18f0:	d005      	beq.n	18fe <TEE_WriteObjectData+0x2a>
/mnt/disk/raspbian-tee/optee_os/lib/libutee/tee_api_objects.c:692
    18f2:	3302      	adds	r3, #2
    18f4:	4298      	cmp	r0, r3
    18f6:	d002      	beq.n	18fe <TEE_WriteObjectData+0x2a>
/mnt/disk/raspbian-tee/optee_os/lib/libutee/tee_api_objects.c:694
    18f8:	4620      	mov	r0, r4
    18fa:	f006 fa23 	bl	7d44 <TEE_Panic>
/mnt/disk/raspbian-tee/optee_os/lib/libutee/tee_api_objects.c:697
    18fe:	4620      	mov	r0, r4
    1900:	bd10      	pop	{r4, pc}
/mnt/disk/raspbian-tee/optee_os/lib/libutee/tee_api_objects.c:677
    1902:	4c03      	ldr	r4, [pc, #12]	; (1910 <TEE_WriteObjectData+0x3c>)
    1904:	e7f8      	b.n	18f8 <TEE_WriteObjectData+0x24>
    1906:	bf00      	nop
    1908:	ffff3041 	.word	0xffff3041
    190c:	f0100001 	.word	0xf0100001
    1910:	ffff0006 	.word	0xffff0006

00001914 <TEE_TruncateObjectData>:
TEE_TruncateObjectData():
/mnt/disk/raspbian-tee/optee_os/lib/libutee/tee_api_objects.c:700
    1914:	b510      	push	{r4, lr}
/mnt/disk/raspbian-tee/optee_os/lib/libutee/tee_api_objects.c:703
    1916:	b188      	cbz	r0, 193c <TEE_TruncateObjectData+0x28>
/mnt/disk/raspbian-tee/optee_os/lib/libutee/tee_api_objects.c:708
    1918:	f001 ee74 	blx	3604 <utee_storage_obj_trunc>
/mnt/disk/raspbian-tee/optee_os/lib/libutee/tee_api_objects.c:711
    191c:	4604      	mov	r4, r0
    191e:	b158      	cbz	r0, 1938 <TEE_TruncateObjectData+0x24>
/mnt/disk/raspbian-tee/optee_os/lib/libutee/tee_api_objects.c:711 (discriminator 1)
    1920:	4b07      	ldr	r3, [pc, #28]	; (1940 <TEE_TruncateObjectData+0x2c>)
    1922:	4298      	cmp	r0, r3
    1924:	d008      	beq.n	1938 <TEE_TruncateObjectData+0x24>
/mnt/disk/raspbian-tee/optee_os/lib/libutee/tee_api_objects.c:712
    1926:	4b07      	ldr	r3, [pc, #28]	; (1944 <TEE_TruncateObjectData+0x30>)
    1928:	4298      	cmp	r0, r3
    192a:	d005      	beq.n	1938 <TEE_TruncateObjectData+0x24>
/mnt/disk/raspbian-tee/optee_os/lib/libutee/tee_api_objects.c:713
    192c:	3302      	adds	r3, #2
    192e:	4298      	cmp	r0, r3
    1930:	d002      	beq.n	1938 <TEE_TruncateObjectData+0x24>
/mnt/disk/raspbian-tee/optee_os/lib/libutee/tee_api_objects.c:715
    1932:	4620      	mov	r0, r4
    1934:	f006 fa06 	bl	7d44 <TEE_Panic>
/mnt/disk/raspbian-tee/optee_os/lib/libutee/tee_api_objects.c:718
    1938:	4620      	mov	r0, r4
    193a:	bd10      	pop	{r4, pc}
/mnt/disk/raspbian-tee/optee_os/lib/libutee/tee_api_objects.c:704
    193c:	4c02      	ldr	r4, [pc, #8]	; (1948 <TEE_TruncateObjectData+0x34>)
    193e:	e7f8      	b.n	1932 <TEE_TruncateObjectData+0x1e>
    1940:	ffff3041 	.word	0xffff3041
    1944:	f0100001 	.word	0xf0100001
    1948:	ffff0006 	.word	0xffff0006

0000194c <TEE_SeekObjectData>:
TEE_SeekObjectData():
/mnt/disk/raspbian-tee/optee_os/lib/libutee/tee_api_objects.c:722
    194c:	b5f0      	push	{r4, r5, r6, r7, lr}
    194e:	460d      	mov	r5, r1
    1950:	4616      	mov	r6, r2
    1952:	b089      	sub	sp, #36	; 0x24
/mnt/disk/raspbian-tee/optee_os/lib/libutee/tee_api_objects.c:726
    1954:	4607      	mov	r7, r0
    1956:	b368      	cbz	r0, 19b4 <TEE_SeekObjectData+0x68>
/mnt/disk/raspbian-tee/optee_os/lib/libutee/tee_api_objects.c:731
    1958:	a901      	add	r1, sp, #4
    195a:	f001 ed2c 	blx	33b4 <utee_cryp_obj_get_info>
/mnt/disk/raspbian-tee/optee_os/lib/libutee/tee_api_objects.c:732
    195e:	4604      	mov	r4, r0
    1960:	b9d8      	cbnz	r0, 199a <TEE_SeekObjectData+0x4e>
/mnt/disk/raspbian-tee/optee_os/lib/libutee/tee_api_objects.c:735
    1962:	2e01      	cmp	r6, #1
    1964:	d004      	beq.n	1970 <TEE_SeekObjectData+0x24>
    1966:	d310      	bcc.n	198a <TEE_SeekObjectData+0x3e>
    1968:	2e02      	cmp	r6, #2
    196a:	d00a      	beq.n	1982 <TEE_SeekObjectData+0x36>
/mnt/disk/raspbian-tee/optee_os/lib/libutee/tee_api_objects.c:761
    196c:	4c12      	ldr	r4, [pc, #72]	; (19b8 <TEE_SeekObjectData+0x6c>)
    196e:	e017      	b.n	19a0 <TEE_SeekObjectData+0x54>
/mnt/disk/raspbian-tee/optee_os/lib/libutee/tee_api_objects.c:743
    1970:	2d00      	cmp	r5, #0
    1972:	dd0a      	ble.n	198a <TEE_SeekObjectData+0x3e>
/mnt/disk/raspbian-tee/optee_os/lib/libutee/tee_api_objects.c:743 (discriminator 1)
    1974:	9b06      	ldr	r3, [sp, #24]
    1976:	42dd      	cmn	r5, r3
    1978:	d307      	bcc.n	198a <TEE_SeekObjectData+0x3e>
/mnt/disk/raspbian-tee/optee_os/lib/libutee/tee_api_objects.c:727
    197a:	4c10      	ldr	r4, [pc, #64]	; (19bc <TEE_SeekObjectData+0x70>)
/mnt/disk/raspbian-tee/optee_os/lib/libutee/tee_api_objects.c:775
    197c:	4620      	mov	r0, r4
    197e:	b009      	add	sp, #36	; 0x24
    1980:	bdf0      	pop	{r4, r5, r6, r7, pc}
/mnt/disk/raspbian-tee/optee_os/lib/libutee/tee_api_objects.c:753
    1982:	2d00      	cmp	r5, #0
    1984:	dd01      	ble.n	198a <TEE_SeekObjectData+0x3e>
/mnt/disk/raspbian-tee/optee_os/lib/libutee/tee_api_objects.c:753 (discriminator 1)
    1986:	9b05      	ldr	r3, [sp, #20]
    1988:	e7f5      	b.n	1976 <TEE_SeekObjectData+0x2a>
/mnt/disk/raspbian-tee/optee_os/lib/libutee/tee_api_objects.c:765
    198a:	4632      	mov	r2, r6
    198c:	4629      	mov	r1, r5
    198e:	4638      	mov	r0, r7
    1990:	f001 ee42 	blx	3618 <utee_storage_obj_seek>
/mnt/disk/raspbian-tee/optee_os/lib/libutee/tee_api_objects.c:768
    1994:	4604      	mov	r4, r0
    1996:	2800      	cmp	r0, #0
    1998:	d0f0      	beq.n	197c <TEE_SeekObjectData+0x30>
/mnt/disk/raspbian-tee/optee_os/lib/libutee/tee_api_objects.c:768 (discriminator 1)
    199a:	4b08      	ldr	r3, [pc, #32]	; (19bc <TEE_SeekObjectData+0x70>)
    199c:	429c      	cmp	r4, r3
    199e:	d0ec      	beq.n	197a <TEE_SeekObjectData+0x2e>
/mnt/disk/raspbian-tee/optee_os/lib/libutee/tee_api_objects.c:769
    19a0:	4b07      	ldr	r3, [pc, #28]	; (19c0 <TEE_SeekObjectData+0x74>)
    19a2:	429c      	cmp	r4, r3
    19a4:	d0ea      	beq.n	197c <TEE_SeekObjectData+0x30>
/mnt/disk/raspbian-tee/optee_os/lib/libutee/tee_api_objects.c:770
    19a6:	3302      	adds	r3, #2
    19a8:	429c      	cmp	r4, r3
    19aa:	d0e7      	beq.n	197c <TEE_SeekObjectData+0x30>
/mnt/disk/raspbian-tee/optee_os/lib/libutee/tee_api_objects.c:772
    19ac:	4620      	mov	r0, r4
    19ae:	f006 f9c9 	bl	7d44 <TEE_Panic>
/mnt/disk/raspbian-tee/optee_os/lib/libutee/tee_api_objects.c:774
    19b2:	e7e3      	b.n	197c <TEE_SeekObjectData+0x30>
/mnt/disk/raspbian-tee/optee_os/lib/libutee/tee_api_objects.c:727
    19b4:	4c03      	ldr	r4, [pc, #12]	; (19c4 <TEE_SeekObjectData+0x78>)
    19b6:	e7f9      	b.n	19ac <TEE_SeekObjectData+0x60>
    19b8:	ffff0008 	.word	0xffff0008
    19bc:	ffff300f 	.word	0xffff300f
    19c0:	f0100001 	.word	0xf0100001
    19c4:	ffff0006 	.word	0xffff0006

000019c8 <tee_buffer_update>:
tee_buffer_update():
/mnt/disk/raspbian-tee/optee_os/lib/libutee/tee_api_operations.c:852
    19c8:	e92d 4ff0 	stmdb	sp!, {r4, r5, r6, r7, r8, r9, sl, fp, lr}
    19cc:	461f      	mov	r7, r3
    19ce:	4604      	mov	r4, r0
    19d0:	b087      	sub	sp, #28
    19d2:	468b      	mov	fp, r1
/mnt/disk/raspbian-tee/optee_os/lib/libutee/tee_api_operations.c:864
    19d4:	4692      	mov	sl, r2
/mnt/disk/raspbian-tee/optee_os/lib/libutee/tee_api_operations.c:857
    19d6:	9b11      	ldr	r3, [sp, #68]	; 0x44
/mnt/disk/raspbian-tee/optee_os/lib/libutee/tee_api_operations.c:852
    19d8:	f8dd 8040 	ldr.w	r8, [sp, #64]	; 0x40
/mnt/disk/raspbian-tee/optee_os/lib/libutee/tee_api_operations.c:857
    19dc:	e9d3 0100 	ldrd	r0, r1, [r3]
    19e0:	e9cd 0102 	strd	r0, r1, [sp, #8]
/mnt/disk/raspbian-tee/optee_os/lib/libutee/tee_api_operations.c:864
    19e4:	b962      	cbnz	r2, 1a00 <tee_buffer_update+0x38>
/mnt/disk/raspbian-tee/optee_os/lib/libutee/tee_api_operations.c:865
    19e6:	b93f      	cbnz	r7, 19f8 <tee_buffer_update+0x30>
/mnt/disk/raspbian-tee/optee_os/lib/libutee/tee_api_operations.c:858
    19e8:	2500      	movs	r5, #0
/mnt/disk/raspbian-tee/optee_os/lib/libutee/tee_api_operations.c:940
    19ea:	9b11      	ldr	r3, [sp, #68]	; 0x44
    19ec:	2000      	movs	r0, #0
    19ee:	601d      	str	r5, [r3, #0]
    19f0:	6058      	str	r0, [r3, #4]
/mnt/disk/raspbian-tee/optee_os/lib/libutee/tee_api_operations.c:942
    19f2:	b007      	add	sp, #28
    19f4:	e8bd 8ff0 	ldmia.w	sp!, {r4, r5, r6, r7, r8, r9, sl, fp, pc}
/mnt/disk/raspbian-tee/optee_os/lib/libutee/tee_api_operations.c:866
    19f8:	4610      	mov	r0, r2
    19fa:	f006 f9a3 	bl	7d44 <TEE_Panic>
    19fe:	e7f3      	b.n	19e8 <tee_buffer_update+0x20>
/mnt/disk/raspbian-tee/optee_os/lib/libutee/tee_api_operations.c:870
    1a00:	f894 3030 	ldrb.w	r3, [r4, #48]	; 0x30
    1a04:	6b65      	ldr	r5, [r4, #52]	; 0x34
    1a06:	2b00      	cmp	r3, #0
    1a08:	d05b      	beq.n	1ac2 <tee_buffer_update+0xfa>
/mnt/disk/raspbian-tee/optee_os/lib/libutee/tee_api_operations.c:871
    1a0a:	006e      	lsls	r6, r5, #1
/mnt/disk/raspbian-tee/optee_os/lib/libutee/tee_api_operations.c:872
    1a0c:	f04f 0901 	mov.w	r9, #1
/mnt/disk/raspbian-tee/optee_os/lib/libutee/tee_api_operations.c:878
    1a10:	6ba0      	ldr	r0, [r4, #56]	; 0x38
    1a12:	b1c8      	cbz	r0, 1a48 <tee_buffer_update+0x80>
/mnt/disk/raspbian-tee/optee_os/lib/libutee/tee_api_operations.c:880
    1a14:	42a8      	cmp	r0, r5
/mnt/disk/raspbian-tee/optee_os/lib/libutee/tee_api_operations.c:884
    1a16:	6ae3      	ldr	r3, [r4, #44]	; 0x2c
/mnt/disk/raspbian-tee/optee_os/lib/libutee/tee_api_operations.c:883
    1a18:	bf28      	it	cs
    1a1a:	1a35      	subcs	r5, r6, r0
/mnt/disk/raspbian-tee/optee_os/lib/libutee/tee_api_operations.c:881
    1a1c:	bf38      	it	cc
    1a1e:	1a2d      	subcc	r5, r5, r0
/mnt/disk/raspbian-tee/optee_os/lib/libutee/tee_api_operations.c:883
    1a20:	42bd      	cmp	r5, r7
/mnt/disk/raspbian-tee/optee_os/lib/libutee/tee_api_operations.c:884
    1a22:	4651      	mov	r1, sl
/mnt/disk/raspbian-tee/optee_os/lib/libutee/tee_api_operations.c:883
    1a24:	bf28      	it	cs
    1a26:	463d      	movcs	r5, r7
/mnt/disk/raspbian-tee/optee_os/lib/libutee/tee_api_operations.c:884
    1a28:	4418      	add	r0, r3
    1a2a:	462a      	mov	r2, r5
    1a2c:	f006 f9b1 	bl	7d92 <memcpy>
/mnt/disk/raspbian-tee/optee_os/lib/libutee/tee_api_operations.c:885
    1a30:	6ba3      	ldr	r3, [r4, #56]	; 0x38
/mnt/disk/raspbian-tee/optee_os/lib/libutee/tee_api_operations.c:888
    1a32:	6b61      	ldr	r1, [r4, #52]	; 0x34
/mnt/disk/raspbian-tee/optee_os/lib/libutee/tee_api_operations.c:885
    1a34:	442b      	add	r3, r5
    1a36:	63a3      	str	r3, [r4, #56]	; 0x38
/mnt/disk/raspbian-tee/optee_os/lib/libutee/tee_api_operations.c:888
    1a38:	fbb3 f2f1 	udiv	r2, r3, r1
    1a3c:	fb01 3312 	mls	r3, r1, r2, r3
    1a40:	2b00      	cmp	r3, #0
    1a42:	d1d1      	bne.n	19e8 <tee_buffer_update+0x20>
/mnt/disk/raspbian-tee/optee_os/lib/libutee/tee_api_operations.c:886
    1a44:	44aa      	add	sl, r5
/mnt/disk/raspbian-tee/optee_os/lib/libutee/tee_api_operations.c:887
    1a46:	1b7f      	subs	r7, r7, r5
/mnt/disk/raspbian-tee/optee_os/lib/libutee/tee_api_operations.c:893
    1a48:	6ba5      	ldr	r5, [r4, #56]	; 0x38
/mnt/disk/raspbian-tee/optee_os/lib/libutee/tee_api_operations.c:857
    1a4a:	9902      	ldr	r1, [sp, #8]
/mnt/disk/raspbian-tee/optee_os/lib/libutee/tee_api_operations.c:893
    1a4c:	2d00      	cmp	r5, #0
    1a4e:	d03c      	beq.n	1aca <tee_buffer_update+0x102>
/mnt/disk/raspbian-tee/optee_os/lib/libutee/tee_api_operations.c:894 (discriminator 1)
    1a50:	1978      	adds	r0, r7, r5
    1a52:	eb06 0309 	add.w	r3, r6, r9
/mnt/disk/raspbian-tee/optee_os/lib/libutee/tee_api_operations.c:893 (discriminator 1)
    1a56:	4298      	cmp	r0, r3
    1a58:	d336      	bcc.n	1ac8 <tee_buffer_update+0x100>
/mnt/disk/raspbian-tee/optee_os/lib/libutee/tee_api_operations.c:895
    1a5a:	6b62      	ldr	r2, [r4, #52]	; 0x34
    1a5c:	1e53      	subs	r3, r2, #1
    1a5e:	4252      	negs	r2, r2
    1a60:	1b9b      	subs	r3, r3, r6
    1a62:	4403      	add	r3, r0
    1a64:	4013      	ands	r3, r2
/mnt/disk/raspbian-tee/optee_os/lib/libutee/tee_api_operations.c:897
    1a66:	429d      	cmp	r5, r3
    1a68:	bf28      	it	cs
    1a6a:	461d      	movcs	r5, r3
/mnt/disk/raspbian-tee/optee_os/lib/libutee/tee_api_operations.c:898
    1a6c:	ab06      	add	r3, sp, #24
    1a6e:	e9dd 0102 	ldrd	r0, r1, [sp, #8]
    1a72:	2100      	movs	r1, #0
    1a74:	e963 0102 	strd	r0, r1, [r3, #-8]!
/mnt/disk/raspbian-tee/optee_os/lib/libutee/tee_api_operations.c:899
    1a78:	462a      	mov	r2, r5
    1a7a:	6ae1      	ldr	r1, [r4, #44]	; 0x2c
    1a7c:	9300      	str	r3, [sp, #0]
    1a7e:	4643      	mov	r3, r8
    1a80:	6be0      	ldr	r0, [r4, #60]	; 0x3c
    1a82:	47d8      	blx	fp
/mnt/disk/raspbian-tee/optee_os/lib/libutee/tee_api_operations.c:900
    1a84:	b108      	cbz	r0, 1a8a <tee_buffer_update+0xc2>
/mnt/disk/raspbian-tee/optee_os/lib/libutee/tee_api_operations.c:901
    1a86:	f006 f95d 	bl	7d44 <TEE_Panic>
/mnt/disk/raspbian-tee/optee_os/lib/libutee/tee_api_operations.c:902
    1a8a:	9b04      	ldr	r3, [sp, #16]
/mnt/disk/raspbian-tee/optee_os/lib/libutee/tee_api_operations.c:903
    1a8c:	9a02      	ldr	r2, [sp, #8]
/mnt/disk/raspbian-tee/optee_os/lib/libutee/tee_api_operations.c:902
    1a8e:	4498      	add	r8, r3
/mnt/disk/raspbian-tee/optee_os/lib/libutee/tee_api_operations.c:903
    1a90:	1ad1      	subs	r1, r2, r3
/mnt/disk/raspbian-tee/optee_os/lib/libutee/tee_api_operations.c:905
    1a92:	6ba2      	ldr	r2, [r4, #56]	; 0x38
    1a94:	1b52      	subs	r2, r2, r5
    1a96:	63a2      	str	r2, [r4, #56]	; 0x38
/mnt/disk/raspbian-tee/optee_os/lib/libutee/tee_api_operations.c:906
    1a98:	2a00      	cmp	r2, #0
    1a9a:	d03f      	beq.n	1b1c <tee_buffer_update+0x154>
/mnt/disk/raspbian-tee/optee_os/lib/libutee/tee_api_operations.c:910
    1a9c:	6ae0      	ldr	r0, [r4, #44]	; 0x2c
    1a9e:	1b72      	subs	r2, r6, r5
    1aa0:	9302      	str	r3, [sp, #8]
    1aa2:	1941      	adds	r1, r0, r5
    1aa4:	f006 f975 	bl	7d92 <memcpy>
/mnt/disk/raspbian-tee/optee_os/lib/libutee/tee_api_operations.c:911
    1aa8:	6ae5      	ldr	r5, [r4, #44]	; 0x2c
    1aaa:	6ba0      	ldr	r0, [r4, #56]	; 0x38
    1aac:	463a      	mov	r2, r7
    1aae:	4651      	mov	r1, sl
    1ab0:	4428      	add	r0, r5
    1ab2:	f006 f96e 	bl	7d92 <memcpy>
/mnt/disk/raspbian-tee/optee_os/lib/libutee/tee_api_operations.c:912
    1ab6:	6ba2      	ldr	r2, [r4, #56]	; 0x38
/mnt/disk/raspbian-tee/optee_os/lib/libutee/tee_api_operations.c:904
    1ab8:	9b02      	ldr	r3, [sp, #8]
/mnt/disk/raspbian-tee/optee_os/lib/libutee/tee_api_operations.c:912
    1aba:	4417      	add	r7, r2
    1abc:	63a7      	str	r7, [r4, #56]	; 0x38
/mnt/disk/raspbian-tee/optee_os/lib/libutee/tee_api_operations.c:904
    1abe:	461d      	mov	r5, r3
/mnt/disk/raspbian-tee/optee_os/lib/libutee/tee_api_operations.c:913
    1ac0:	e793      	b.n	19ea <tee_buffer_update+0x22>
/mnt/disk/raspbian-tee/optee_os/lib/libutee/tee_api_operations.c:874
    1ac2:	462e      	mov	r6, r5
/mnt/disk/raspbian-tee/optee_os/lib/libutee/tee_api_operations.c:875
    1ac4:	4699      	mov	r9, r3
    1ac6:	e7a3      	b.n	1a10 <tee_buffer_update+0x48>
/mnt/disk/raspbian-tee/optee_os/lib/libutee/tee_api_operations.c:858
    1ac8:	2500      	movs	r5, #0
/mnt/disk/raspbian-tee/optee_os/lib/libutee/tee_api_operations.c:917
    1aca:	44b1      	add	r9, r6
    1acc:	454f      	cmp	r7, r9
    1ace:	d31a      	bcc.n	1b06 <tee_buffer_update+0x13e>
/mnt/disk/raspbian-tee/optee_os/lib/libutee/tee_api_operations.c:919
    1ad0:	6822      	ldr	r2, [r4, #0]
    1ad2:	4b14      	ldr	r3, [pc, #80]	; (1b24 <tee_buffer_update+0x15c>)
    1ad4:	429a      	cmp	r2, r3
    1ad6:	6b62      	ldr	r2, [r4, #52]	; 0x34
    1ad8:	d122      	bne.n	1b20 <tee_buffer_update+0x158>
/mnt/disk/raspbian-tee/optee_os/lib/libutee/tee_api_operations.c:920
    1ada:	1e53      	subs	r3, r2, #1
    1adc:	1b9e      	subs	r6, r3, r6
/mnt/disk/raspbian-tee/optee_os/lib/libutee/tee_api_operations.c:922
    1ade:	4252      	negs	r2, r2
    1ae0:	443e      	add	r6, r7
    1ae2:	4016      	ands	r6, r2
/mnt/disk/raspbian-tee/optee_os/lib/libutee/tee_api_operations.c:924
    1ae4:	2300      	movs	r3, #0
    1ae6:	9104      	str	r1, [sp, #16]
/mnt/disk/raspbian-tee/optee_os/lib/libutee/tee_api_operations.c:925
    1ae8:	4632      	mov	r2, r6
/mnt/disk/raspbian-tee/optee_os/lib/libutee/tee_api_operations.c:924
    1aea:	9305      	str	r3, [sp, #20]
/mnt/disk/raspbian-tee/optee_os/lib/libutee/tee_api_operations.c:925
    1aec:	4651      	mov	r1, sl
    1aee:	ab04      	add	r3, sp, #16
    1af0:	6be0      	ldr	r0, [r4, #60]	; 0x3c
    1af2:	9300      	str	r3, [sp, #0]
    1af4:	4643      	mov	r3, r8
    1af6:	47d8      	blx	fp
/mnt/disk/raspbian-tee/optee_os/lib/libutee/tee_api_operations.c:926
    1af8:	b108      	cbz	r0, 1afe <tee_buffer_update+0x136>
/mnt/disk/raspbian-tee/optee_os/lib/libutee/tee_api_operations.c:927
    1afa:	f006 f923 	bl	7d44 <TEE_Panic>
/mnt/disk/raspbian-tee/optee_os/lib/libutee/tee_api_operations.c:932
    1afe:	9b04      	ldr	r3, [sp, #16]
/mnt/disk/raspbian-tee/optee_os/lib/libutee/tee_api_operations.c:928
    1b00:	44b2      	add	sl, r6
/mnt/disk/raspbian-tee/optee_os/lib/libutee/tee_api_operations.c:929
    1b02:	1bbf      	subs	r7, r7, r6
/mnt/disk/raspbian-tee/optee_os/lib/libutee/tee_api_operations.c:932
    1b04:	441d      	add	r5, r3
/mnt/disk/raspbian-tee/optee_os/lib/libutee/tee_api_operations.c:936
    1b06:	6ba3      	ldr	r3, [r4, #56]	; 0x38
    1b08:	463a      	mov	r2, r7
    1b0a:	6ae0      	ldr	r0, [r4, #44]	; 0x2c
    1b0c:	4651      	mov	r1, sl
    1b0e:	4418      	add	r0, r3
    1b10:	f006 f93f 	bl	7d92 <memcpy>
/mnt/disk/raspbian-tee/optee_os/lib/libutee/tee_api_operations.c:937
    1b14:	6ba3      	ldr	r3, [r4, #56]	; 0x38
    1b16:	441f      	add	r7, r3
    1b18:	63a7      	str	r7, [r4, #56]	; 0x38
    1b1a:	e766      	b.n	19ea <tee_buffer_update+0x22>
/mnt/disk/raspbian-tee/optee_os/lib/libutee/tee_api_operations.c:904
    1b1c:	461d      	mov	r5, r3
    1b1e:	e7d4      	b.n	1aca <tee_buffer_update+0x102>
/mnt/disk/raspbian-tee/optee_os/lib/libutee/tee_api_operations.c:922
    1b20:	1b96      	subs	r6, r2, r6
    1b22:	e7dc      	b.n	1ade <tee_buffer_update+0x116>
    1b24:	10000310 	.word	0x10000310

00001b28 <TEE_FreeOperation>:
TEE_FreeOperation():
/mnt/disk/raspbian-tee/optee_os/lib/libutee/tee_api_operations.c:351
    1b28:	b510      	push	{r4, lr}
/mnt/disk/raspbian-tee/optee_os/lib/libutee/tee_api_operations.c:354
    1b2a:	4604      	mov	r4, r0
    1b2c:	b908      	cbnz	r0, 1b32 <TEE_FreeOperation+0xa>
/mnt/disk/raspbian-tee/optee_os/lib/libutee/tee_api_operations.c:355
    1b2e:	f006 f909 	bl	7d44 <TEE_Panic>
/mnt/disk/raspbian-tee/optee_os/lib/libutee/tee_api_operations.c:362
    1b32:	6be0      	ldr	r0, [r4, #60]	; 0x3c
    1b34:	f001 ebf2 	blx	331c <utee_cryp_state_free>
/mnt/disk/raspbian-tee/optee_os/lib/libutee/tee_api_operations.c:363
    1b38:	b108      	cbz	r0, 1b3e <TEE_FreeOperation+0x16>
/mnt/disk/raspbian-tee/optee_os/lib/libutee/tee_api_operations.c:364
    1b3a:	f006 f903 	bl	7d44 <TEE_Panic>
/mnt/disk/raspbian-tee/optee_os/lib/libutee/tee_api_operations.c:366
    1b3e:	6ae0      	ldr	r0, [r4, #44]	; 0x2c
    1b40:	f7ff fb70 	bl	1224 <TEE_Free>
/mnt/disk/raspbian-tee/optee_os/lib/libutee/tee_api_operations.c:367
    1b44:	4620      	mov	r0, r4
/mnt/disk/raspbian-tee/optee_os/lib/libutee/tee_api_operations.c:368
    1b46:	e8bd 4010 	ldmia.w	sp!, {r4, lr}
/mnt/disk/raspbian-tee/optee_os/lib/libutee/tee_api_operations.c:367
    1b4a:	f7ff bb6b 	b.w	1224 <TEE_Free>

00001b4e <TEE_AllocateOperation>:
TEE_AllocateOperation():
/mnt/disk/raspbian-tee/optee_os/lib/libutee/tee_api_operations.c:37
    1b4e:	e92d 4ff0 	stmdb	sp!, {r4, r5, r6, r7, r8, r9, sl, fp, lr}
    1b52:	460c      	mov	r4, r1
    1b54:	4617      	mov	r7, r2
    1b56:	b087      	sub	sp, #28
    1b58:	4699      	mov	r9, r3
/mnt/disk/raspbian-tee/optee_os/lib/libutee/tee_api_operations.c:46
    1b5a:	9003      	str	r0, [sp, #12]
    1b5c:	b908      	cbnz	r0, 1b62 <TEE_AllocateOperation+0x14>
/mnt/disk/raspbian-tee/optee_os/lib/libutee/tee_api_operations.c:47
    1b5e:	f006 f8f1 	bl	7d44 <TEE_Panic>
/mnt/disk/raspbian-tee/optee_os/lib/libutee/tee_api_operations.c:49
    1b62:	4bba      	ldr	r3, [pc, #744]	; (1e4c <TEE_AllocateOperation+0x2fe>)
    1b64:	429c      	cmp	r4, r3
    1b66:	f000 81b6 	beq.w	1ed6 <TEE_AllocateOperation+0x388>
/mnt/disk/raspbian-tee/optee_os/lib/libutee/tee_api_operations.c:53
    1b6a:	4bb9      	ldr	r3, [pc, #740]	; (1e50 <TEE_AllocateOperation+0x302>)
    1b6c:	429c      	cmp	r4, r3
    1b6e:	d06e      	beq.n	1c4e <TEE_AllocateOperation+0x100>
    1b70:	d83f      	bhi.n	1bf2 <TEE_AllocateOperation+0xa4>
    1b72:	4ab8      	ldr	r2, [pc, #736]	; (1e54 <TEE_AllocateOperation+0x306>)
    1b74:	4294      	cmp	r4, r2
    1b76:	d055      	beq.n	1c24 <TEE_AllocateOperation+0xd6>
    1b78:	d82d      	bhi.n	1bd6 <TEE_AllocateOperation+0x88>
    1b7a:	f5a2 5287 	sub.w	r2, r2, #4320	; 0x10e0
    1b7e:	3a10      	subs	r2, #16
    1b80:	4294      	cmp	r4, r2
    1b82:	d040      	beq.n	1c06 <TEE_AllocateOperation+0xb8>
    1b84:	f502 5280 	add.w	r2, r2, #4096	; 0x1000
    1b88:	4294      	cmp	r4, r2
    1b8a:	d065      	beq.n	1c58 <TEE_AllocateOperation+0x10a>
/mnt/disk/raspbian-tee/optee_os/lib/libutee/tee_api_operations.c:108
    1b8c:	4ab2      	ldr	r2, [pc, #712]	; (1e58 <TEE_AllocateOperation+0x30a>)
    1b8e:	4294      	cmp	r4, r2
    1b90:	d050      	beq.n	1c34 <TEE_AllocateOperation+0xe6>
    1b92:	f200 80d8 	bhi.w	1d46 <TEE_AllocateOperation+0x1f8>
    1b96:	4bb1      	ldr	r3, [pc, #708]	; (1e5c <TEE_AllocateOperation+0x30e>)
    1b98:	429c      	cmp	r4, r3
    1b9a:	d07d      	beq.n	1c98 <TEE_AllocateOperation+0x14a>
    1b9c:	f200 808e 	bhi.w	1cbc <TEE_AllocateOperation+0x16e>
    1ba0:	4baf      	ldr	r3, [pc, #700]	; (1e60 <TEE_AllocateOperation+0x312>)
    1ba2:	429c      	cmp	r4, r3
    1ba4:	f000 81a9 	beq.w	1efa <TEE_AllocateOperation+0x3ac>
    1ba8:	d86b      	bhi.n	1c82 <TEE_AllocateOperation+0x134>
    1baa:	f46f 71ff 	mvn.w	r1, #510	; 0x1fe
    1bae:	440b      	add	r3, r1
    1bb0:	429c      	cmp	r4, r3
    1bb2:	d85b      	bhi.n	1c6c <TEE_AllocateOperation+0x11e>
    1bb4:	3b01      	subs	r3, #1
    1bb6:	429c      	cmp	r4, r3
    1bb8:	d209      	bcs.n	1bce <TEE_AllocateOperation+0x80>
    1bba:	f5a3 7380 	sub.w	r3, r3, #256	; 0x100
    1bbe:	429c      	cmp	r4, r3
    1bc0:	d324      	bcc.n	1c0c <TEE_AllocateOperation+0xbe>
    1bc2:	3301      	adds	r3, #1
    1bc4:	429c      	cmp	r4, r3
    1bc6:	d902      	bls.n	1bce <TEE_AllocateOperation+0x80>
    1bc8:	3302      	adds	r3, #2
    1bca:	429c      	cmp	r4, r3
    1bcc:	d11e      	bne.n	1c0c <TEE_AllocateOperation+0xbe>
    1bce:	f04f 0800 	mov.w	r8, #0
/mnt/disk/raspbian-tee/optee_os/lib/libutee/tee_api_operations.c:44
    1bd2:	4646      	mov	r6, r8
    1bd4:	e182      	b.n	1edc <TEE_AllocateOperation+0x38e>
/mnt/disk/raspbian-tee/optee_os/lib/libutee/tee_api_operations.c:53
    1bd6:	4aa3      	ldr	r2, [pc, #652]	; (1e64 <TEE_AllocateOperation+0x316>)
    1bd8:	4294      	cmp	r4, r2
    1bda:	d034      	beq.n	1c46 <TEE_AllocateOperation+0xf8>
    1bdc:	f502 6271 	add.w	r2, r2, #3856	; 0xf10
    1be0:	4294      	cmp	r4, r2
    1be2:	d03c      	beq.n	1c5e <TEE_AllocateOperation+0x110>
    1be4:	f5a2 5280 	sub.w	r2, r2, #4096	; 0x1000
    1be8:	4294      	cmp	r4, r2
    1bea:	d1cf      	bne.n	1b8c <TEE_AllocateOperation+0x3e>
/mnt/disk/raspbian-tee/optee_os/lib/libutee/tee_api_operations.c:87
    1bec:	f5b9 7f80 	cmp.w	r9, #256	; 0x100
    1bf0:	e00b      	b.n	1c0a <TEE_AllocateOperation+0xbc>
/mnt/disk/raspbian-tee/optee_os/lib/libutee/tee_api_operations.c:53
    1bf2:	4a9d      	ldr	r2, [pc, #628]	; (1e68 <TEE_AllocateOperation+0x31a>)
    1bf4:	4294      	cmp	r4, r2
    1bf6:	d02f      	beq.n	1c58 <TEE_AllocateOperation+0x10a>
    1bf8:	d80a      	bhi.n	1c10 <TEE_AllocateOperation+0xc2>
    1bfa:	4a9c      	ldr	r2, [pc, #624]	; (1e6c <TEE_AllocateOperation+0x31e>)
    1bfc:	4294      	cmp	r4, r2
    1bfe:	d031      	beq.n	1c64 <TEE_AllocateOperation+0x116>
    1c00:	4a9b      	ldr	r2, [pc, #620]	; (1e70 <TEE_AllocateOperation+0x322>)
    1c02:	4294      	cmp	r4, r2
    1c04:	d1c2      	bne.n	1b8c <TEE_AllocateOperation+0x3e>
/mnt/disk/raspbian-tee/optee_os/lib/libutee/tee_api_operations.c:75
    1c06:	f1b9 0fc0 	cmp.w	r9, #192	; 0xc0
/mnt/disk/raspbian-tee/optee_os/lib/libutee/tee_api_operations.c:99
    1c0a:	d0bf      	beq.n	1b8c <TEE_AllocateOperation+0x3e>
/mnt/disk/raspbian-tee/optee_os/lib/libutee/tee_api_operations.c:56
    1c0c:	4e99      	ldr	r6, [pc, #612]	; (1e74 <TEE_AllocateOperation+0x326>)
    1c0e:	e1ca      	b.n	1fa6 <TEE_AllocateOperation+0x458>
/mnt/disk/raspbian-tee/optee_os/lib/libutee/tee_api_operations.c:53
    1c10:	4a99      	ldr	r2, [pc, #612]	; (1e78 <TEE_AllocateOperation+0x32a>)
    1c12:	4294      	cmp	r4, r2
    1c14:	d023      	beq.n	1c5e <TEE_AllocateOperation+0x110>
    1c16:	f502 5280 	add.w	r2, r2, #4096	; 0x1000
    1c1a:	4294      	cmp	r4, r2
    1c1c:	d022      	beq.n	1c64 <TEE_AllocateOperation+0x116>
    1c1e:	f5a2 5200 	sub.w	r2, r2, #8192	; 0x2000
    1c22:	e7e1      	b.n	1be8 <TEE_AllocateOperation+0x9a>
/mnt/disk/raspbian-tee/optee_os/lib/libutee/tee_api_operations.c:55
    1c24:	f5a9 7300 	sub.w	r3, r9, #512	; 0x200
    1c28:	f5b3 7f00 	cmp.w	r3, #512	; 0x200
    1c2c:	d8ee      	bhi.n	1c0c <TEE_AllocateOperation+0xbe>
/mnt/disk/raspbian-tee/optee_os/lib/libutee/tee_api_operations.c:59
    1c2e:	f019 0f3f 	tst.w	r9, #63	; 0x3f
    1c32:	d1eb      	bne.n	1c0c <TEE_AllocateOperation+0xbe>
/mnt/disk/raspbian-tee/optee_os/lib/libutee/tee_api_operations.c:157
    1c34:	2f02      	cmp	r7, #2
    1c36:	f000 81bd 	beq.w	1fb4 <TEE_AllocateOperation+0x466>
/mnt/disk/raspbian-tee/optee_os/lib/libutee/tee_api_operations.c:160
    1c3a:	2f03      	cmp	r7, #3
    1c3c:	d1e6      	bne.n	1c0c <TEE_AllocateOperation+0xbe>
/mnt/disk/raspbian-tee/optee_os/lib/libutee/tee_api_operations.c:44
    1c3e:	2600      	movs	r6, #0
/mnt/disk/raspbian-tee/optee_os/lib/libutee/tee_api_operations.c:161
    1c40:	2220      	movs	r2, #32
/mnt/disk/raspbian-tee/optee_os/lib/libutee/tee_api_operations.c:43
    1c42:	46b2      	mov	sl, r6
    1c44:	e02d      	b.n	1ca2 <TEE_AllocateOperation+0x154>
/mnt/disk/raspbian-tee/optee_os/lib/libutee/tee_api_operations.c:64
    1c46:	f5b9 6f00 	cmp.w	r9, #2048	; 0x800
/mnt/disk/raspbian-tee/optee_os/lib/libutee/tee_api_operations.c:108
    1c4a:	d1df      	bne.n	1c0c <TEE_AllocateOperation+0xbe>
    1c4c:	e7f2      	b.n	1c34 <TEE_AllocateOperation+0xe6>
/mnt/disk/raspbian-tee/optee_os/lib/libutee/tee_api_operations.c:69
    1c4e:	f429 6380 	bic.w	r3, r9, #1024	; 0x400
    1c52:	f5b3 6f00 	cmp.w	r3, #2048	; 0x800
    1c56:	e7f8      	b.n	1c4a <TEE_AllocateOperation+0xfc>
/mnt/disk/raspbian-tee/optee_os/lib/libutee/tee_api_operations.c:81
    1c58:	f1b9 0fe0 	cmp.w	r9, #224	; 0xe0
    1c5c:	e7d5      	b.n	1c0a <TEE_AllocateOperation+0xbc>
/mnt/disk/raspbian-tee/optee_os/lib/libutee/tee_api_operations.c:93
    1c5e:	f5b9 7fc0 	cmp.w	r9, #384	; 0x180
    1c62:	e7d2      	b.n	1c0a <TEE_AllocateOperation+0xbc>
/mnt/disk/raspbian-tee/optee_os/lib/libutee/tee_api_operations.c:99
    1c64:	f240 2209 	movw	r2, #521	; 0x209
    1c68:	4591      	cmp	r9, r2
    1c6a:	e7ce      	b.n	1c0a <TEE_AllocateOperation+0xbc>
/mnt/disk/raspbian-tee/optee_os/lib/libutee/tee_api_operations.c:108
    1c6c:	4b83      	ldr	r3, [pc, #524]	; (1e7c <TEE_AllocateOperation+0x32e>)
    1c6e:	429c      	cmp	r4, r3
    1c70:	d0ad      	beq.n	1bce <TEE_AllocateOperation+0x80>
    1c72:	33fd      	adds	r3, #253	; 0xfd
    1c74:	429c      	cmp	r4, r3
    1c76:	d1c9      	bne.n	1c0c <TEE_AllocateOperation+0xbe>
    1c78:	f04f 0800 	mov.w	r8, #0
/mnt/disk/raspbian-tee/optee_os/lib/libutee/tee_api_operations.c:41
    1c7c:	2301      	movs	r3, #1
/mnt/disk/raspbian-tee/optee_os/lib/libutee/tee_api_operations.c:44
    1c7e:	4646      	mov	r6, r8
    1c80:	e132      	b.n	1ee8 <TEE_AllocateOperation+0x39a>
/mnt/disk/raspbian-tee/optee_os/lib/libutee/tee_api_operations.c:108
    1c82:	4b7f      	ldr	r3, [pc, #508]	; (1e80 <TEE_AllocateOperation+0x332>)
    1c84:	429c      	cmp	r4, r3
    1c86:	d80f      	bhi.n	1ca8 <TEE_AllocateOperation+0x15a>
    1c88:	3b01      	subs	r3, #1
    1c8a:	429c      	cmp	r4, r3
    1c8c:	d204      	bcs.n	1c98 <TEE_AllocateOperation+0x14a>
    1c8e:	f104 4350 	add.w	r3, r4, #3489660928	; 0xd0000000
    1c92:	3b01      	subs	r3, #1
    1c94:	2b05      	cmp	r3, #5
    1c96:	d8b9      	bhi.n	1c0c <TEE_AllocateOperation+0xbe>
/mnt/disk/raspbian-tee/optee_os/lib/libutee/tee_api_operations.c:244
    1c98:	2f04      	cmp	r7, #4
    1c9a:	d1b7      	bne.n	1c0c <TEE_AllocateOperation+0xbe>
/mnt/disk/raspbian-tee/optee_os/lib/libutee/tee_api_operations.c:44
    1c9c:	2600      	movs	r6, #0
/mnt/disk/raspbian-tee/optee_os/lib/libutee/tee_api_operations.c:246
    1c9e:	2208      	movs	r2, #8
/mnt/disk/raspbian-tee/optee_os/lib/libutee/tee_api_operations.c:43
    1ca0:	46b2      	mov	sl, r6
/mnt/disk/raspbian-tee/optee_os/lib/libutee/tee_api_operations.c:41
    1ca2:	2301      	movs	r3, #1
    1ca4:	46b0      	mov	r8, r6
    1ca6:	e13e      	b.n	1f26 <TEE_AllocateOperation+0x3d8>
/mnt/disk/raspbian-tee/optee_os/lib/libutee/tee_api_operations.c:108
    1ca8:	4b76      	ldr	r3, [pc, #472]	; (1e84 <TEE_AllocateOperation+0x336>)
    1caa:	429c      	cmp	r4, r3
    1cac:	d0f4      	beq.n	1c98 <TEE_AllocateOperation+0x14a>
    1cae:	d3ad      	bcc.n	1c0c <TEE_AllocateOperation+0xbe>
    1cb0:	f104 4350 	add.w	r3, r4, #3489660928	; 0xd0000000
    1cb4:	f5a3 63a2 	sub.w	r3, r3, #1296	; 0x510
    1cb8:	2b01      	cmp	r3, #1
    1cba:	e7ec      	b.n	1c96 <TEE_AllocateOperation+0x148>
    1cbc:	4b72      	ldr	r3, [pc, #456]	; (1e88 <TEE_AllocateOperation+0x33a>)
    1cbe:	429c      	cmp	r4, r3
    1cc0:	d01b      	beq.n	1cfa <TEE_AllocateOperation+0x1ac>
    1cc2:	d823      	bhi.n	1d0c <TEE_AllocateOperation+0x1be>
    1cc4:	4b71      	ldr	r3, [pc, #452]	; (1e8c <TEE_AllocateOperation+0x33e>)
    1cc6:	429c      	cmp	r4, r3
    1cc8:	d80f      	bhi.n	1cea <TEE_AllocateOperation+0x19c>
    1cca:	f1b4 4fa0 	cmp.w	r4, #1342177280	; 0x50000000
    1cce:	f200 8121 	bhi.w	1f14 <TEE_AllocateOperation+0x3c6>
    1cd2:	4b6f      	ldr	r3, [pc, #444]	; (1e90 <TEE_AllocateOperation+0x342>)
    1cd4:	429c      	cmp	r4, r3
    1cd6:	f43f af7a 	beq.w	1bce <TEE_AllocateOperation+0x80>
    1cda:	f503 7380 	add.w	r3, r3, #256	; 0x100
    1cde:	429c      	cmp	r4, r3
    1ce0:	d0ca      	beq.n	1c78 <TEE_AllocateOperation+0x12a>
    1ce2:	4b6c      	ldr	r3, [pc, #432]	; (1e94 <TEE_AllocateOperation+0x346>)
    1ce4:	429c      	cmp	r4, r3
    1ce6:	d191      	bne.n	1c0c <TEE_AllocateOperation+0xbe>
    1ce8:	e7d6      	b.n	1c98 <TEE_AllocateOperation+0x14a>
    1cea:	4b6b      	ldr	r3, [pc, #428]	; (1e98 <TEE_AllocateOperation+0x34a>)
    1cec:	429c      	cmp	r4, r3
    1cee:	f000 8107 	beq.w	1f00 <TEE_AllocateOperation+0x3b2>
    1cf2:	f503 7380 	add.w	r3, r3, #256	; 0x100
    1cf6:	429c      	cmp	r4, r3
    1cf8:	d188      	bne.n	1c0c <TEE_AllocateOperation+0xbe>
/mnt/disk/raspbian-tee/optee_os/lib/libutee/tee_api_operations.c:173
    1cfa:	2f00      	cmp	r7, #0
    1cfc:	f000 815f 	beq.w	1fbe <TEE_AllocateOperation+0x470>
/mnt/disk/raspbian-tee/optee_os/lib/libutee/tee_api_operations.c:175
    1d00:	2f01      	cmp	r7, #1
    1d02:	d183      	bne.n	1c0c <TEE_AllocateOperation+0xbe>
/mnt/disk/raspbian-tee/optee_os/lib/libutee/tee_api_operations.c:44
    1d04:	2600      	movs	r6, #0
/mnt/disk/raspbian-tee/optee_os/lib/libutee/tee_api_operations.c:176
    1d06:	46ba      	mov	sl, r7
/mnt/disk/raspbian-tee/optee_os/lib/libutee/tee_api_operations.c:177
    1d08:	2204      	movs	r2, #4
    1d0a:	e7ca      	b.n	1ca2 <TEE_AllocateOperation+0x154>
/mnt/disk/raspbian-tee/optee_os/lib/libutee/tee_api_operations.c:108
    1d0c:	4b63      	ldr	r3, [pc, #396]	; (1e9c <TEE_AllocateOperation+0x34e>)
    1d0e:	429c      	cmp	r4, r3
    1d10:	d0f3      	beq.n	1cfa <TEE_AllocateOperation+0x1ac>
    1d12:	d80a      	bhi.n	1d2a <TEE_AllocateOperation+0x1dc>
    1d14:	f5a3 1300 	sub.w	r3, r3, #2097152	; 0x200000
    1d18:	429c      	cmp	r4, r3
    1d1a:	d0ee      	beq.n	1cfa <TEE_AllocateOperation+0x1ac>
    1d1c:	f503 1380 	add.w	r3, r3, #1048576	; 0x100000
    1d20:	429c      	cmp	r4, r3
    1d22:	d0ea      	beq.n	1cfa <TEE_AllocateOperation+0x1ac>
    1d24:	f5a3 1300 	sub.w	r3, r3, #2097152	; 0x200000
    1d28:	e7e5      	b.n	1cf6 <TEE_AllocateOperation+0x1a8>
    1d2a:	4b5d      	ldr	r3, [pc, #372]	; (1ea0 <TEE_AllocateOperation+0x352>)
    1d2c:	429c      	cmp	r4, r3
    1d2e:	d081      	beq.n	1c34 <TEE_AllocateOperation+0xe6>
    1d30:	d802      	bhi.n	1d38 <TEE_AllocateOperation+0x1ea>
    1d32:	f2a3 73ef 	subw	r3, r3, #2031	; 0x7ef
    1d36:	e004      	b.n	1d42 <TEE_AllocateOperation+0x1f4>
    1d38:	4b5a      	ldr	r3, [pc, #360]	; (1ea4 <TEE_AllocateOperation+0x356>)
    1d3a:	429c      	cmp	r4, r3
    1d3c:	f43f af7a 	beq.w	1c34 <TEE_AllocateOperation+0xe6>
    1d40:	33f0      	adds	r3, #240	; 0xf0
    1d42:	429c      	cmp	r4, r3
    1d44:	e781      	b.n	1c4a <TEE_AllocateOperation+0xfc>
    1d46:	4a4a      	ldr	r2, [pc, #296]	; (1e70 <TEE_AllocateOperation+0x322>)
    1d48:	4294      	cmp	r4, r2
    1d4a:	d064      	beq.n	1e16 <TEE_AllocateOperation+0x2c8>
    1d4c:	d843      	bhi.n	1dd6 <TEE_AllocateOperation+0x288>
    1d4e:	4a56      	ldr	r2, [pc, #344]	; (1ea8 <TEE_AllocateOperation+0x35a>)
    1d50:	4294      	cmp	r4, r2
    1d52:	f43f af6f 	beq.w	1c34 <TEE_AllocateOperation+0xe6>
    1d56:	d818      	bhi.n	1d8a <TEE_AllocateOperation+0x23c>
    1d58:	f5a2 52bf 	sub.w	r2, r2, #6112	; 0x17e0
    1d5c:	3a0f      	subs	r2, #15
    1d5e:	4294      	cmp	r4, r2
    1d60:	f43f af68 	beq.w	1c34 <TEE_AllocateOperation+0xe6>
    1d64:	d808      	bhi.n	1d78 <TEE_AllocateOperation+0x22a>
    1d66:	4b3f      	ldr	r3, [pc, #252]	; (1e64 <TEE_AllocateOperation+0x316>)
    1d68:	429c      	cmp	r4, r3
    1d6a:	f43f af63 	beq.w	1c34 <TEE_AllocateOperation+0xe6>
    1d6e:	f203 63ff 	addw	r3, r3, #1791	; 0x6ff
    1d72:	429c      	cmp	r4, r3
    1d74:	d1dd      	bne.n	1d32 <TEE_AllocateOperation+0x1e4>
    1d76:	e75d      	b.n	1c34 <TEE_AllocateOperation+0xe6>
    1d78:	4a4c      	ldr	r2, [pc, #304]	; (1eac <TEE_AllocateOperation+0x35e>)
    1d7a:	4294      	cmp	r4, r2
    1d7c:	f43f af5a 	beq.w	1c34 <TEE_AllocateOperation+0xe6>
    1d80:	f602 0211 	addw	r2, r2, #2065	; 0x811
    1d84:	4294      	cmp	r4, r2
    1d86:	d1dc      	bne.n	1d42 <TEE_AllocateOperation+0x1f4>
    1d88:	e754      	b.n	1c34 <TEE_AllocateOperation+0xe6>
    1d8a:	4b49      	ldr	r3, [pc, #292]	; (1eb0 <TEE_AllocateOperation+0x362>)
    1d8c:	429c      	cmp	r4, r3
    1d8e:	f43f af51 	beq.w	1c34 <TEE_AllocateOperation+0xe6>
    1d92:	d812      	bhi.n	1dba <TEE_AllocateOperation+0x26c>
    1d94:	f5a3 1300 	sub.w	r3, r3, #2097152	; 0x200000
    1d98:	f5a3 5300 	sub.w	r3, r3, #8192	; 0x2000
    1d9c:	429c      	cmp	r4, r3
    1d9e:	f43f af49 	beq.w	1c34 <TEE_AllocateOperation+0xe6>
    1da2:	f503 1380 	add.w	r3, r3, #1048576	; 0x100000
    1da6:	f503 5380 	add.w	r3, r3, #4096	; 0x1000
    1daa:	429c      	cmp	r4, r3
    1dac:	f43f af42 	beq.w	1c34 <TEE_AllocateOperation+0xe6>
    1db0:	f5a3 1343 	sub.w	r3, r3, #3194880	; 0x30c000
    1db4:	f5a3 5388 	sub.w	r3, r3, #4352	; 0x1100
    1db8:	e7c3      	b.n	1d42 <TEE_AllocateOperation+0x1f4>
    1dba:	4b3e      	ldr	r3, [pc, #248]	; (1eb4 <TEE_AllocateOperation+0x366>)
    1dbc:	429c      	cmp	r4, r3
    1dbe:	f43f af39 	beq.w	1c34 <TEE_AllocateOperation+0xe6>
    1dc2:	4b3d      	ldr	r3, [pc, #244]	; (1eb8 <TEE_AllocateOperation+0x36a>)
    1dc4:	429c      	cmp	r4, r3
    1dc6:	d026      	beq.n	1e16 <TEE_AllocateOperation+0x2c8>
    1dc8:	f1a3 637a 	sub.w	r3, r3, #262144000	; 0xfa00000
    1dcc:	f5a3 236a 	sub.w	r3, r3, #958464	; 0xea000
    1dd0:	f2a3 7302 	subw	r3, r3, #1794	; 0x702
    1dd4:	e7b5      	b.n	1d42 <TEE_AllocateOperation+0x1f4>
    1dd6:	4b28      	ldr	r3, [pc, #160]	; (1e78 <TEE_AllocateOperation+0x32a>)
    1dd8:	429c      	cmp	r4, r3
    1dda:	d01c      	beq.n	1e16 <TEE_AllocateOperation+0x2c8>
    1ddc:	d824      	bhi.n	1e28 <TEE_AllocateOperation+0x2da>
    1dde:	f5a3 53fc 	sub.w	r3, r3, #8064	; 0x1f80
    1de2:	429c      	cmp	r4, r3
    1de4:	d80b      	bhi.n	1dfe <TEE_AllocateOperation+0x2b0>
    1de6:	3b02      	subs	r3, #2
    1de8:	429c      	cmp	r4, r3
    1dea:	d214      	bcs.n	1e16 <TEE_AllocateOperation+0x2c8>
    1dec:	f5a3 5380 	sub.w	r3, r3, #4096	; 0x1000
    1df0:	429c      	cmp	r4, r3
    1df2:	d010      	beq.n	1e16 <TEE_AllocateOperation+0x2c8>
    1df4:	f603 7382 	addw	r3, r3, #3970	; 0xf82
    1df8:	429c      	cmp	r4, r3
    1dfa:	d00c      	beq.n	1e16 <TEE_AllocateOperation+0x2c8>
    1dfc:	e706      	b.n	1c0c <TEE_AllocateOperation+0xbe>
    1dfe:	4b2f      	ldr	r3, [pc, #188]	; (1ebc <TEE_AllocateOperation+0x36e>)
    1e00:	429c      	cmp	r4, r3
    1e02:	d008      	beq.n	1e16 <TEE_AllocateOperation+0x2c8>
    1e04:	f4ff af02 	bcc.w	1c0c <TEE_AllocateOperation+0xbe>
    1e08:	f104 4300 	add.w	r3, r4, #2147483648	; 0x80000000
    1e0c:	f5a3 5343 	sub.w	r3, r3, #12480	; 0x30c0
    1e10:	2b01      	cmp	r3, #1
    1e12:	f63f aefb 	bhi.w	1c0c <TEE_AllocateOperation+0xbe>
/mnt/disk/raspbian-tee/optee_os/lib/libutee/tee_api_operations.c:212
    1e16:	2f06      	cmp	r7, #6
    1e18:	f47f aef8 	bne.w	1c0c <TEE_AllocateOperation+0xbe>
/mnt/disk/raspbian-tee/optee_os/lib/libutee/tee_api_operations.c:44
    1e1c:	2600      	movs	r6, #0
/mnt/disk/raspbian-tee/optee_os/lib/libutee/tee_api_operations.c:214
    1e1e:	f04f 0a01 	mov.w	sl, #1
/mnt/disk/raspbian-tee/optee_os/lib/libutee/tee_api_operations.c:215
    1e22:	2240      	movs	r2, #64	; 0x40
/mnt/disk/raspbian-tee/optee_os/lib/libutee/tee_api_operations.c:41
    1e24:	4653      	mov	r3, sl
    1e26:	e73d      	b.n	1ca4 <TEE_AllocateOperation+0x156>
/mnt/disk/raspbian-tee/optee_os/lib/libutee/tee_api_operations.c:108
    1e28:	4b25      	ldr	r3, [pc, #148]	; (1ec0 <TEE_AllocateOperation+0x372>)
    1e2a:	429c      	cmp	r4, r3
    1e2c:	d84a      	bhi.n	1ec4 <TEE_AllocateOperation+0x376>
    1e2e:	3b01      	subs	r3, #1
    1e30:	429c      	cmp	r4, r3
    1e32:	d2f0      	bcs.n	1e16 <TEE_AllocateOperation+0x2c8>
    1e34:	f5a3 5380 	sub.w	r3, r3, #4096	; 0x1000
    1e38:	429c      	cmp	r4, r3
    1e3a:	f4ff aee7 	bcc.w	1c0c <TEE_AllocateOperation+0xbe>
    1e3e:	3301      	adds	r3, #1
    1e40:	429c      	cmp	r4, r3
    1e42:	d9e8      	bls.n	1e16 <TEE_AllocateOperation+0x2c8>
    1e44:	f603 7381 	addw	r3, r3, #3969	; 0xf81
    1e48:	e7d6      	b.n	1df8 <TEE_AllocateOperation+0x2aa>
    1e4a:	bf00      	nop
    1e4c:	10000410 	.word	0x10000410
    1e50:	70004131 	.word	0x70004131
    1e54:	70002131 	.word	0x70002131
    1e58:	70002830 	.word	0x70002830
    1e5c:	30000513 	.word	0x30000513
    1e60:	10000310 	.word	0x10000310
    1e64:	70003131 	.word	0x70003131
    1e68:	80002042 	.word	0x80002042
    1e6c:	70005041 	.word	0x70005041
    1e70:	80001042 	.word	0x80001042
    1e74:	ffff000a 	.word	0xffff000a
    1e78:	80004042 	.word	0x80004042
    1e7c:	10000113 	.word	0x10000113
    1e80:	30000111 	.word	0x30000111
    1e84:	30000113 	.word	0x30000113
    1e88:	60210230 	.word	0x60210230
    1e8c:	50000006 	.word	0x50000006
    1e90:	40000710 	.word	0x40000710
    1e94:	30000610 	.word	0x30000610
    1e98:	60000030 	.word	0x60000030
    1e9c:	60610230 	.word	0x60610230
    1ea0:	70001830 	.word	0x70001830
    1ea4:	70002041 	.word	0x70002041
    1ea8:	70005830 	.word	0x70005830
    1eac:	70004830 	.word	0x70004830
    1eb0:	70414930 	.word	0x70414930
    1eb4:	70616930 	.word	0x70616930
    1eb8:	80000032 	.word	0x80000032
    1ebc:	80003042 	.word	0x80003042
    1ec0:	800050c1 	.word	0x800050c1
    1ec4:	4b6f      	ldr	r3, [pc, #444]	; (2084 <TEE_AllocateOperation+0x536>)
    1ec6:	429c      	cmp	r4, r3
    1ec8:	f4ff aea0 	bcc.w	1c0c <TEE_AllocateOperation+0xbe>
    1ecc:	3301      	adds	r3, #1
    1ece:	429c      	cmp	r4, r3
    1ed0:	d9a1      	bls.n	1e16 <TEE_AllocateOperation+0x2c8>
    1ed2:	4b6d      	ldr	r3, [pc, #436]	; (2088 <TEE_AllocateOperation+0x53a>)
    1ed4:	e735      	b.n	1d42 <TEE_AllocateOperation+0x1f4>
/mnt/disk/raspbian-tee/optee_os/lib/libutee/tee_api_operations.c:50
    1ed6:	f44f 2800 	mov.w	r8, #524288	; 0x80000
/mnt/disk/raspbian-tee/optee_os/lib/libutee/tee_api_operations.c:111
    1eda:	2601      	movs	r6, #1
/mnt/disk/raspbian-tee/optee_os/lib/libutee/tee_api_operations.c:120
    1edc:	b2e3      	uxtb	r3, r4
/mnt/disk/raspbian-tee/optee_os/lib/libutee/tee_api_operations.c:123
    1ede:	2b10      	cmp	r3, #16
    1ee0:	f04f 0310 	mov.w	r3, #16
    1ee4:	bf18      	it	ne
    1ee6:	2308      	movne	r3, #8
/mnt/disk/raspbian-tee/optee_os/lib/libutee/tee_api_operations.c:127
    1ee8:	2f00      	cmp	r7, #0
    1eea:	d060      	beq.n	1fae <TEE_AllocateOperation+0x460>
/mnt/disk/raspbian-tee/optee_os/lib/libutee/tee_api_operations.c:129
    1eec:	2f01      	cmp	r7, #1
    1eee:	f47f ae8d 	bne.w	1c0c <TEE_AllocateOperation+0xbe>
/mnt/disk/raspbian-tee/optee_os/lib/libutee/tee_api_operations.c:43
    1ef2:	f04f 0a00 	mov.w	sl, #0
/mnt/disk/raspbian-tee/optee_os/lib/libutee/tee_api_operations.c:130
    1ef6:	2204      	movs	r2, #4
    1ef8:	e015      	b.n	1f26 <TEE_AllocateOperation+0x3d8>
/mnt/disk/raspbian-tee/optee_os/lib/libutee/tee_api_operations.c:108
    1efa:	f04f 0800 	mov.w	r8, #0
    1efe:	e7ec      	b.n	1eda <TEE_AllocateOperation+0x38c>
/mnt/disk/raspbian-tee/optee_os/lib/libutee/tee_api_operations.c:184
    1f00:	2f00      	cmp	r7, #0
    1f02:	d062      	beq.n	1fca <TEE_AllocateOperation+0x47c>
/mnt/disk/raspbian-tee/optee_os/lib/libutee/tee_api_operations.c:186
    1f04:	2f01      	cmp	r7, #1
    1f06:	f47f ae81 	bne.w	1c0c <TEE_AllocateOperation+0xbe>
/mnt/disk/raspbian-tee/optee_os/lib/libutee/tee_api_operations.c:44
    1f0a:	2600      	movs	r6, #0
/mnt/disk/raspbian-tee/optee_os/lib/libutee/tee_api_operations.c:187
    1f0c:	f04f 0a01 	mov.w	sl, #1
/mnt/disk/raspbian-tee/optee_os/lib/libutee/tee_api_operations.c:188
    1f10:	2214      	movs	r2, #20
    1f12:	e787      	b.n	1e24 <TEE_AllocateOperation+0x2d6>
/mnt/disk/raspbian-tee/optee_os/lib/libutee/tee_api_operations.c:224
    1f14:	2f05      	cmp	r7, #5
    1f16:	f47f ae79 	bne.w	1c0c <TEE_AllocateOperation+0xbe>
/mnt/disk/raspbian-tee/optee_os/lib/libutee/tee_api_operations.c:44
    1f1a:	2600      	movs	r6, #0
/mnt/disk/raspbian-tee/optee_os/lib/libutee/tee_api_operations.c:41
    1f1c:	2301      	movs	r3, #1
/mnt/disk/raspbian-tee/optee_os/lib/libutee/tee_api_operations.c:43
    1f1e:	46b2      	mov	sl, r6
/mnt/disk/raspbian-tee/optee_os/lib/libutee/tee_api_operations.c:228
    1f20:	4632      	mov	r2, r6
/mnt/disk/raspbian-tee/optee_os/lib/libutee/tee_api_operations.c:227
    1f22:	f44f 2880 	mov.w	r8, #262144	; 0x40000
/mnt/disk/raspbian-tee/optee_os/lib/libutee/tee_api_operations.c:253
    1f26:	2100      	movs	r1, #0
    1f28:	2044      	movs	r0, #68	; 0x44
    1f2a:	9205      	str	r2, [sp, #20]
    1f2c:	9304      	str	r3, [sp, #16]
    1f2e:	f7ff f952 	bl	11d6 <TEE_Malloc>
/mnt/disk/raspbian-tee/optee_os/lib/libutee/tee_api_operations.c:254
    1f32:	4605      	mov	r5, r0
    1f34:	2800      	cmp	r0, #0
    1f36:	f000 80a0 	beq.w	207a <TEE_AllocateOperation+0x52c>
/mnt/disk/raspbian-tee/optee_os/lib/libutee/tee_api_operations.c:260
    1f3a:	4953      	ldr	r1, [pc, #332]	; (2088 <TEE_AllocateOperation+0x53a>)
/mnt/disk/raspbian-tee/optee_os/lib/libutee/tee_api_operations.c:258
    1f3c:	ea4f 7b14 	mov.w	fp, r4, lsr #28
/mnt/disk/raspbian-tee/optee_os/lib/libutee/tee_api_operations.c:257
    1f40:	6004      	str	r4, [r0, #0]
/mnt/disk/raspbian-tee/optee_os/lib/libutee/tee_api_operations.c:260
    1f42:	428c      	cmp	r4, r1
    1f44:	9b04      	ldr	r3, [sp, #16]
    1f46:	9a05      	ldr	r2, [sp, #20]
    1f48:	d044      	beq.n	1fd4 <TEE_AllocateOperation+0x486>
/mnt/disk/raspbian-tee/optee_os/lib/libutee/tee_api_operations.c:258
    1f4a:	f8c0 b004 	str.w	fp, [r0, #4]
/mnt/disk/raspbian-tee/optee_os/lib/libutee/tee_api_operations.c:263
    1f4e:	60af      	str	r7, [r5, #8]
/mnt/disk/raspbian-tee/optee_os/lib/libutee/tee_api_operations.c:268
    1f50:	2b01      	cmp	r3, #1
/mnt/disk/raspbian-tee/optee_os/lib/libutee/tee_api_operations.c:264
    1f52:	f8c5 9010 	str.w	r9, [r5, #16]
/mnt/disk/raspbian-tee/optee_os/lib/libutee/tee_api_operations.c:265
    1f56:	61aa      	str	r2, [r5, #24]
/mnt/disk/raspbian-tee/optee_os/lib/libutee/tee_api_operations.c:266
    1f58:	f8c5 801c 	str.w	r8, [r5, #28]
/mnt/disk/raspbian-tee/optee_os/lib/libutee/tee_api_operations.c:268
    1f5c:	d13d      	bne.n	1fda <TEE_AllocateOperation+0x48c>
/mnt/disk/raspbian-tee/optee_os/lib/libutee/tee_api_operations.c:281
    1f5e:	636b      	str	r3, [r5, #52]	; 0x34
/mnt/disk/raspbian-tee/optee_os/lib/libutee/tee_api_operations.c:284
    1f60:	f1bb 0f05 	cmp.w	fp, #5
/mnt/disk/raspbian-tee/optee_os/lib/libutee/tee_api_operations.c:282
    1f64:	f885 6030 	strb.w	r6, [r5, #48]	; 0x30
/mnt/disk/raspbian-tee/optee_os/lib/libutee/tee_api_operations.c:284
    1f68:	d146      	bne.n	1ff8 <TEE_AllocateOperation+0x4aa>
/mnt/disk/raspbian-tee/optee_os/lib/libutee/tee_api_operations.c:308
    1f6a:	f105 033c 	add.w	r3, r5, #60	; 0x3c
    1f6e:	9300      	str	r3, [sp, #0]
    1f70:	4639      	mov	r1, r7
    1f72:	4620      	mov	r0, r4
    1f74:	6a2a      	ldr	r2, [r5, #32]
    1f76:	6a6b      	ldr	r3, [r5, #36]	; 0x24
    1f78:	f001 e9ba 	blx	32f0 <utee_cryp_state_alloc>
/mnt/disk/raspbian-tee/optee_os/lib/libutee/tee_api_operations.c:310
    1f7c:	4602      	mov	r2, r0
    1f7e:	2800      	cmp	r0, #0
    1f80:	d17d      	bne.n	207e <TEE_AllocateOperation+0x530>
/mnt/disk/raspbian-tee/optee_os/lib/libutee/tee_api_operations.c:318
    1f82:	f1bb 0f05 	cmp.w	fp, #5
    1f86:	d10a      	bne.n	1f9e <TEE_AllocateOperation+0x450>
/mnt/disk/raspbian-tee/optee_os/lib/libutee/tee_api_operations.c:319
    1f88:	4601      	mov	r1, r0
    1f8a:	6be8      	ldr	r0, [r5, #60]	; 0x3c
    1f8c:	f001 e9d0 	blx	3330 <utee_hash_init>
/mnt/disk/raspbian-tee/optee_os/lib/libutee/tee_api_operations.c:320
    1f90:	4606      	mov	r6, r0
    1f92:	2800      	cmp	r0, #0
    1f94:	d155      	bne.n	2042 <TEE_AllocateOperation+0x4f4>
/mnt/disk/raspbian-tee/optee_os/lib/libutee/tee_api_operations.c:323
    1f96:	69eb      	ldr	r3, [r5, #28]
    1f98:	f443 3300 	orr.w	r3, r3, #131072	; 0x20000
    1f9c:	61eb      	str	r3, [r5, #28]
/mnt/disk/raspbian-tee/optee_os/lib/libutee/tee_api_operations.c:328
    1f9e:	9b03      	ldr	r3, [sp, #12]
/mnt/disk/raspbian-tee/optee_os/lib/libutee/tee_api_operations.c:326
    1fa0:	2600      	movs	r6, #0
    1fa2:	62ae      	str	r6, [r5, #40]	; 0x28
/mnt/disk/raspbian-tee/optee_os/lib/libutee/tee_api_operations.c:328
    1fa4:	601d      	str	r5, [r3, #0]
/mnt/disk/raspbian-tee/optee_os/lib/libutee/tee_api_operations.c:348
    1fa6:	4630      	mov	r0, r6
    1fa8:	b007      	add	sp, #28
    1faa:	e8bd 8ff0 	ldmia.w	sp!, {r4, r5, r6, r7, r8, r9, sl, fp, pc}
/mnt/disk/raspbian-tee/optee_os/lib/libutee/tee_api_operations.c:43
    1fae:	46ba      	mov	sl, r7
/mnt/disk/raspbian-tee/optee_os/lib/libutee/tee_api_operations.c:128
    1fb0:	2202      	movs	r2, #2
    1fb2:	e7b8      	b.n	1f26 <TEE_AllocateOperation+0x3d8>
/mnt/disk/raspbian-tee/optee_os/lib/libutee/tee_api_operations.c:44
    1fb4:	2600      	movs	r6, #0
/mnt/disk/raspbian-tee/optee_os/lib/libutee/tee_api_operations.c:158
    1fb6:	f04f 0a01 	mov.w	sl, #1
/mnt/disk/raspbian-tee/optee_os/lib/libutee/tee_api_operations.c:159
    1fba:	2210      	movs	r2, #16
    1fbc:	e732      	b.n	1e24 <TEE_AllocateOperation+0x2d6>
    1fbe:	46b8      	mov	r8, r7
/mnt/disk/raspbian-tee/optee_os/lib/libutee/tee_api_operations.c:44
    1fc0:	463e      	mov	r6, r7
/mnt/disk/raspbian-tee/optee_os/lib/libutee/tee_api_operations.c:43
    1fc2:	46ba      	mov	sl, r7
/mnt/disk/raspbian-tee/optee_os/lib/libutee/tee_api_operations.c:174
    1fc4:	2202      	movs	r2, #2
/mnt/disk/raspbian-tee/optee_os/lib/libutee/tee_api_operations.c:41
    1fc6:	2301      	movs	r3, #1
    1fc8:	e7ad      	b.n	1f26 <TEE_AllocateOperation+0x3d8>
    1fca:	46b8      	mov	r8, r7
/mnt/disk/raspbian-tee/optee_os/lib/libutee/tee_api_operations.c:44
    1fcc:	463e      	mov	r6, r7
/mnt/disk/raspbian-tee/optee_os/lib/libutee/tee_api_operations.c:43
    1fce:	46ba      	mov	sl, r7
/mnt/disk/raspbian-tee/optee_os/lib/libutee/tee_api_operations.c:185
    1fd0:	2222      	movs	r2, #34	; 0x22
    1fd2:	e7f8      	b.n	1fc6 <TEE_AllocateOperation+0x478>
/mnt/disk/raspbian-tee/optee_os/lib/libutee/tee_api_operations.c:261
    1fd4:	2107      	movs	r1, #7
    1fd6:	6041      	str	r1, [r0, #4]
    1fd8:	e7b9      	b.n	1f4e <TEE_AllocateOperation+0x400>
/mnt/disk/raspbian-tee/optee_os/lib/libutee/tee_api_operations.c:271
    1fda:	b15e      	cbz	r6, 1ff4 <TEE_AllocateOperation+0x4a6>
/mnt/disk/raspbian-tee/optee_os/lib/libutee/tee_api_operations.c:272
    1fdc:	0058      	lsls	r0, r3, #1
/mnt/disk/raspbian-tee/optee_os/lib/libutee/tee_api_operations.c:274
    1fde:	f04f 4100 	mov.w	r1, #2147483648	; 0x80000000
    1fe2:	9304      	str	r3, [sp, #16]
    1fe4:	f7ff f8f7 	bl	11d6 <TEE_Malloc>
/mnt/disk/raspbian-tee/optee_os/lib/libutee/tee_api_operations.c:276
    1fe8:	9b04      	ldr	r3, [sp, #16]
/mnt/disk/raspbian-tee/optee_os/lib/libutee/tee_api_operations.c:274
    1fea:	62e8      	str	r0, [r5, #44]	; 0x2c
/mnt/disk/raspbian-tee/optee_os/lib/libutee/tee_api_operations.c:276
    1fec:	2800      	cmp	r0, #0
    1fee:	d1b6      	bne.n	1f5e <TEE_AllocateOperation+0x410>
/mnt/disk/raspbian-tee/optee_os/lib/libutee/tee_api_operations.c:277
    1ff0:	4e26      	ldr	r6, [pc, #152]	; (208c <TEE_AllocateOperation+0x53e>)
    1ff2:	e02f      	b.n	2054 <TEE_AllocateOperation+0x506>
    1ff4:	4618      	mov	r0, r3
    1ff6:	e7f2      	b.n	1fde <TEE_AllocateOperation+0x490>
/mnt/disk/raspbian-tee/optee_os/lib/libutee/tee_api_operations.c:286
    1ff8:	f1ba 0f00 	cmp.w	sl, #0
    1ffc:	f04f 4220 	mov.w	r2, #2684354560	; 0xa0000000
    2000:	f04f 4321 	mov.w	r3, #2701131776	; 0xa1000000
    2004:	fa5f f884 	uxtb.w	r8, r4
    2008:	bf08      	it	eq
    200a:	4613      	moveq	r3, r2
    200c:	ea43 0808 	orr.w	r8, r3, r8
/mnt/disk/raspbian-tee/optee_os/lib/libutee/tee_api_operations.c:293
    2010:	69eb      	ldr	r3, [r5, #28]
    2012:	031a      	lsls	r2, r3, #12
    2014:	d501      	bpl.n	201a <TEE_AllocateOperation+0x4cc>
/mnt/disk/raspbian-tee/optee_os/lib/libutee/tee_api_operations.c:294
    2016:	ea4f 0959 	mov.w	r9, r9, lsr #1
/mnt/disk/raspbian-tee/optee_os/lib/libutee/tee_api_operations.c:296
    201a:	f105 0220 	add.w	r2, r5, #32
    201e:	4649      	mov	r1, r9
    2020:	4640      	mov	r0, r8
    2022:	f7ff f9f7 	bl	1414 <TEE_AllocateTransientObject>
/mnt/disk/raspbian-tee/optee_os/lib/libutee/tee_api_operations.c:297
    2026:	4606      	mov	r6, r0
    2028:	b958      	cbnz	r0, 2042 <TEE_AllocateOperation+0x4f4>
/mnt/disk/raspbian-tee/optee_os/lib/libutee/tee_api_operations.c:300
    202a:	69eb      	ldr	r3, [r5, #28]
    202c:	031b      	lsls	r3, r3, #12
    202e:	d59c      	bpl.n	1f6a <TEE_AllocateOperation+0x41c>
/mnt/disk/raspbian-tee/optee_os/lib/libutee/tee_api_operations.c:301
    2030:	f105 0224 	add.w	r2, r5, #36	; 0x24
    2034:	4649      	mov	r1, r9
    2036:	4640      	mov	r0, r8
    2038:	f7ff f9ec 	bl	1414 <TEE_AllocateTransientObject>
/mnt/disk/raspbian-tee/optee_os/lib/libutee/tee_api_operations.c:303
    203c:	4606      	mov	r6, r0
    203e:	2800      	cmp	r0, #0
