
22250a54-0bf1-48fe-8002-7b20f1c9c9b1.elf:     file format elf32-littlearm
22250a54-0bf1-48fe-8002-7b20f1c9c9b1.elf
architecture: armv8-a, flags 0x00000150:
HAS_SYMS, DYNAMIC, D_PAGED
start address 0x00000020

Program Header:
0x70000001 off    0x00017fc4 vaddr 0x00007fc4 paddr 0x00007fc4 align 2**2
         filesz 0x00000588 memsz 0x00000588 flags r--
    LOAD off    0x00010000 vaddr 0x00000000 paddr 0x00000000 align 2**16
         filesz 0x00006b38 memsz 0x00006b38 flags r-x
    LOAD off    0x00016b38 vaddr 0x00006b38 paddr 0x00006b38 align 2**16
         filesz 0x00001c70 memsz 0x00001c70 flags r--
    LOAD off    0x00019000 vaddr 0x00009000 paddr 0x00009000 align 2**16
         filesz 0x000000b4 memsz 0x00006128 flags rw-
 DYNAMIC off    0x000186d4 vaddr 0x000086d4 paddr 0x000086d4 align 2**2
         filesz 0x00000088 memsz 0x00000088 flags rw-

Dynamic Section:
  HASH                 0x00008790
  GNU_HASH             0x00007f7c
  STRTAB               0x0000878c
  SYMTAB               0x0000875c
  STRSZ                0x00000001
  SYMENT               0x00000010
  DEBUG                0x00000000
  REL                  0x00008584
  RELSZ                0x00000150
  RELENT               0x00000008
  FLAGS_1              0x08000000
  RELCOUNT             0x00000013
private flags = 0x5000400: [Version5 EABI] [hard-float ABI]

Sections:
Idx Name          Size      VMA       LMA       File off  Algn
  0 .ta_head      00000020  00000000  00000000  00010000  2**3
                  CONTENTS, ALLOC, LOAD, DATA
  1 .text         00006b18  00000020  00000020  00010020  2**3
                  CONTENTS, ALLOC, LOAD, READONLY, CODE
  2 .rodata       00001354  00006b38  00006b38  00016b38  2**2
                  CONTENTS, ALLOC, LOAD, READONLY, DATA
  3 .ARM.extab    000000f0  00007e8c  00007e8c  00017e8c  2**2
                  CONTENTS, ALLOC, LOAD, READONLY, DATA
  4 .gnu.hash     00000018  00007f7c  00007f7c  00017f7c  2**2
                  CONTENTS, ALLOC, LOAD, READONLY, DATA
  5 .ARM.extab.text.__aeabi_ldivmod 0000000c  00007f94  00007f94  00017f94  2**2
                  CONTENTS, ALLOC, LOAD, READONLY, DATA
  6 .ARM.extab.text.__aeabi_uldivmod 0000000c  00007fa0  00007fa0  00017fa0  2**2
                  CONTENTS, ALLOC, LOAD, READONLY, DATA
  7 .ARM.extab.text.utee_panic 0000000c  00007fac  00007fac  00017fac  2**2
                  CONTENTS, ALLOC, LOAD, READONLY, DATA
  8 .ARM.extab.text.unlikely 0000000c  00007fb8  00007fb8  00017fb8  2**2
                  CONTENTS, ALLOC, LOAD, READONLY, DATA
  9 .ARM.exidx    00000588  00007fc4  00007fc4  00017fc4  2**2
                  CONTENTS, ALLOC, LOAD, READONLY, DATA
 10 .got          00000038  0000854c  0000854c  0001854c  2**2
                  CONTENTS, ALLOC, LOAD, DATA
 11 .dynsym       00000030  0000875c  0000875c  0001875c  2**2
                  CONTENTS, ALLOC, LOAD, READONLY, DATA
 12 .rel.data     00000060  00008584  00008584  00018584  2**2
                  CONTENTS, ALLOC, LOAD, READONLY, DATA
 13 .rel.got      00000058  0000867c  0000867c  0001867c  2**2
                  CONTENTS, ALLOC, LOAD, READONLY, DATA
 14 .dynamic      00000088  000086d4  000086d4  000186d4  2**2
                  CONTENTS, ALLOC, LOAD, DATA
 15 .dynstr       00000001  0000878c  0000878c  0001878c  2**0
                  CONTENTS, ALLOC, LOAD, READONLY, DATA
 16 .hash         00000018  00008790  00008790  00018790  2**2
                  CONTENTS, ALLOC, LOAD, READONLY, DATA
 17 .data         000000b4  00009000  00009000  00019000  2**2
                  CONTENTS, ALLOC, LOAD, DATA
 18 .bss          00006074  000090b4  000090b4  000190b4  2**2
                  ALLOC
 19 .debug_info   0000ff65  00000000  00000000  000190b4  2**0
                  CONTENTS, READONLY, DEBUGGING, OCTETS
 20 .debug_abbrev 00002e00  00000000  00000000  00029019  2**0
                  CONTENTS, READONLY, DEBUGGING, OCTETS
 21 .debug_loclists 000007ff  00000000  00000000  0002be19  2**0
                  CONTENTS, READONLY, DEBUGGING, OCTETS
 22 .debug_aranges 000005f0  00000000  00000000  0002c618  2**3
                  CONTENTS, READONLY, DEBUGGING, OCTETS
 23 .debug_rnglists 0000005d  00000000  00000000  0002cc08  2**0
                  CONTENTS, READONLY, DEBUGGING, OCTETS
 24 .debug_macro  00014cb1  00000000  00000000  0002cc65  2**0
                  CONTENTS, READONLY, DEBUGGING, OCTETS
 25 .debug_line   00005789  00000000  00000000  00041916  2**0
                  CONTENTS, READONLY, DEBUGGING, OCTETS
 26 .debug_str    00012186  00000000  00000000  0004709f  2**0
                  CONTENTS, READONLY, DEBUGGING, OCTETS
 27 .comment      0000004f  00000000  00000000  00059225  2**0
                  CONTENTS, READONLY
 28 .ARM.attributes 00000031  00000000  00000000  00059274  2**0
                  CONTENTS, READONLY
 29 .debug_frame  00001c2c  00000000  00000000  000592a8  2**2
                  CONTENTS, READONLY, DEBUGGING, OCTETS
 30 .rel.dyn      00000098  000085e4  000085e4  000185e4  2**2
                  CONTENTS, ALLOC, LOAD, READONLY, DATA
 31 .debug_loc    0000e441  00000000  00000000  0005aed4  2**0
                  CONTENTS, READONLY, DEBUGGING, OCTETS
 32 .debug_ranges 00000758  00000000  00000000  00069318  2**3
                  CONTENTS, READONLY, DEBUGGING, OCTETS
SYMBOL TABLE:
00000000 l    d  .ta_head	00000000 .ta_head
00000020 l    d  .text	00000000 .text
00006b38 l    d  .rodata	00000000 .rodata
00007e8c l    d  .ARM.extab	00000000 .ARM.extab
00007f7c l    d  .gnu.hash	00000000 .gnu.hash
00007f94 l    d  .ARM.extab.text.__aeabi_ldivmod	00000000 .ARM.extab.text.__aeabi_ldivmod
00007fa0 l    d  .ARM.extab.text.__aeabi_uldivmod	00000000 .ARM.extab.text.__aeabi_uldivmod
00007fac l    d  .ARM.extab.text.utee_panic	00000000 .ARM.extab.text.utee_panic
00007fb8 l    d  .ARM.extab.text.unlikely	00000000 .ARM.extab.text.unlikely
00007fc4 l    d  .ARM.exidx	00000000 .ARM.exidx
0000854c l    d  .got	00000000 .got
00008584 l    d  .rel.data	00000000 .rel.data
0000867c l    d  .rel.got	00000000 .rel.got
000086d4 l    d  .dynamic	00000000 .dynamic
0000875c l    d  .dynsym	00000000 .dynsym
0000878c l    d  .dynstr	00000000 .dynstr
00008790 l    d  .hash	00000000 .hash
00009000 l    d  .data	00000000 .data
000090b4 l    d  .bss	00000000 .bss
00000000 l    d  .debug_info	00000000 .debug_info
00000000 l    d  .debug_abbrev	00000000 .debug_abbrev
00000000 l    d  .debug_loclists	00000000 .debug_loclists
00000000 l    d  .debug_aranges	00000000 .debug_aranges
00000000 l    d  .debug_rnglists	00000000 .debug_rnglists
00000000 l    d  .debug_macro	00000000 .debug_macro
00000000 l    d  .debug_line	00000000 .debug_line
00000000 l    d  .debug_str	00000000 .debug_str
00000000 l    d  .comment	00000000 .comment
00000000 l    d  .ARM.attributes	00000000 .ARM.attributes
00000000 l    d  .debug_frame	00000000 .debug_frame
000085e4 l    d  .rel.dyn	00000000 .rel.dyn
00000000 l    d  .debug_loc	00000000 .debug_loc
00000000 l    d  .debug_ranges	00000000 .debug_ranges
00000000 l    df *ABS*	00000000 user_ta_header.c
00006b3c l     O .rodata	00000004 __compound_literal.4
00006b40 l     O .rodata	00000004 __compound_literal.3
00006b44 l     O .rodata	00000001 __compound_literal.2
00006b45 l     O .rodata	00000001 __compound_literal.1
00006b46 l     O .rodata	00000001 __compound_literal.0
00000000 l    df *ABS*	00000000 entry.c
00000020 l     F .text	00000074 check_valid_value
00000094 l     F .text	00000044 get_named_object_name.constprop.0
000000d8 l     F .text	000000ec write_value
000001c4 l     F .text	000000d8 read_value
000070d0 l     O .rodata	0000000c __func__.4
000070dc l     O .rodata	0000000b __func__.6
000070e7 l     O .rodata	00000013 __func__.7
000070fa l     O .rodata	00000014 __func__.5
0000710e l     O .rodata	00000016 __func__.2
00007124 l     O .rodata	00000017 __func__.1
0000713b l     O .rodata	00000017 __func__.3
00007152 l     O .rodata	0000000d __func__.0
0000715f l     O .rodata	0000001b __func__.8
00000000 l    df *ABS*	00000000 trace.c
000005d0 l     F .text	0000004e append
00007228 l     O .rodata	00000005 lvl_strs.5561
0000722d l     O .rodata	0000000a __func__.5615
00000000 l    df *ABS*	00000000 snprintk.c
0000726e l     O .rodata	00000011 HEXDIGITS
0000727f l     O .rodata	00000011 hexdigits
00000000 l    df *ABS*	00000000 arm32_aeabi_ldivmod_a32.o
00000000 l    df *ABS*	00000000 trace_ext.c
00000000 l    df *ABS*	00000000 tee_api.c
000072c8 l     O .rodata	0000000b __func__.6728
000090b4 l     O .bss	00000004 tee_api_instance_data
00000000 l    df *ABS*	00000000 tee_api_objects.c
00000000 l    df *ABS*	00000000 user_ta_entry.c
00001b24 l     F .text	0000001c ta_header_get_session
00001b40 l     F .text	00000068 ta_header_remove_session
000090b8 l     O .bss	00000001 init_done
00009090 l     O .data	00000008 ta_sessions
00000000 l    df *ABS*	00000000 utee_syscalls_a32.o
00000000 l    df *ABS*	00000000 gprof_a32.o
00000000 l    df *ABS*	00000000 tee_api_arith_mpi.c
00003208 l     F .text	00000020 api_panic
000021f4 l     F .text	00000020 mpi_panic
00002214 l     F .text	00000044 get_const_mpi
00002258 l     F .text	00000010 mpi_is_odd
00002268 l     F .text	00000016 rng_read
0000227e l     F .text	0000001c put_mpi
0000229a l     F .text	0000045a mpi_egcd
000026f4 l     F .text	00000024 get_mpi
00002718 l     F .text	00000088 bigint_binary
000090e0 l     O .bss	00002000 data.6728
000029a6 l     F .text	000000ea bigint_binary_mod
000072e4 l     O .rodata	0000000e __func__.6757
000072f2 l     O .rodata	00000009 __func__.6996
000072fb l     O .rodata	0000000e __func__.6856
00007309 l     O .rodata	00000012 __func__.6729
0000731b l     O .rodata	0000000f __func__.6767
0000732a l     O .rodata	0000001f __func__.6785
00007349 l     O .rodata	00000019 __func__.6792
00007362 l     O .rodata	00000012 __func__.6867
00007374 l     O .rodata	00000015 __func__.6822
00007389 l     O .rodata	0000000e __func__.6894
00007397 l     O .rodata	0000000e __func__.6922
000073a5 l     O .rodata	0000000e __func__.6928
000073b3 l     O .rodata	00000011 __func__.6957
000073c4 l     O .rodata	00000018 __func__.6973
000073dc l     O .rodata	0000001d __func__.7053
000073f9 l     O .rodata	00000019 __func__.7103
00007412 l     O .rodata	00000015 __func__.7117
00000000 l    df *ABS*	00000000 bignum.c
00003228 l     F .text	00000038 mpi_get_digit
00003260 l     F .text	0000005e mpi_sub_hlp
000032be l     F .text	00000492 mpi_mul_hlp
00003750 l     F .text	00000048 mbedtls_mpi_mod_int.part.1
000047f2 l     F .text	0000006c mpi_write_hlp
00004998 l     F .text	00000050 mpi_check_small_factors
00005084 l     F .text	00000216 mpi_miller_rabin
00006b50 l     O .rodata	000002a0 small_prime
00006df0 l     O .rodata	00000024 gcd_pairs
00000000 l    df *ABS*	00000000 bget_malloc.c
00005a28 l     F .text	00000030 raw_malloc_return_hook.isra.3
00005a58 l     F .text	000000d8 create_free_block.constprop.11
00005c64 l     F .text	00000038 raw_malloc.constprop.15
0000793b l     O .rodata	00000012 __func__.5854
0000794d l     O .rodata	00000005 __func__.5710
00007952 l     O .rodata	00000006 __func__.5725
00007958 l     O .rodata	00000005 __func__.5742
0000795d l     O .rodata	00000006 __func__.5734
00007963 l     O .rodata	00000006 __func__.5751
00007969 l     O .rodata	00000007 __func__.5761
00007970 l     O .rodata	0000000d __func__.5890
0000797d l     O .rodata	0000000c __func__.5864
00007989 l     O .rodata	0000000b __func__.5875
00007994 l     O .rodata	00000010 __func__.5942
000079a4 l     O .rodata	0000000e __func__.5896
000079b2 l     O .rodata	00000013 __func__.5802
0000b0e4 l     O .bss	00000038 mstats
0000b11c l     O .bss	00000004 malloc_pool_len
0000b120 l     O .bss	00000004 malloc_pool
00009098 l     O .data	0000001c malloc_poolset
00000000 l    df *ABS*	00000000 mempool.c
00007dcd l     O .rodata	00000013 __func__.5618
00007de0 l     O .rodata	0000000e __func__.5627
00000000 l    df *ABS*	00000000 assert.c
00000000 l    df *ABS*	00000000 stack_check.c
00000000 l    df *ABS*	00000000 memset.c
00000000 l    df *ABS*	00000000 strcmp.c
00000000 l    df *ABS*	00000000 strncmp.c
00000000 l    df *ABS*	00000000 strtoul.c
00000000 l    df *ABS*	00000000 aeabi_unwind.c
00000000 l    df *ABS*	00000000 isalpha.c
00000000 l    df *ABS*	00000000 isspace.c
00000000 l    df *ABS*	00000000 isupper.c
00000000 l    df *ABS*	00000000 memchr.c
00000000 l    df *ABS*	00000000 strlen.c
00000000 l    df *ABS*	00000000 arm32_aeabi_ldivmod.c
00000000 l    df *ABS*	00000000 tee_api_panic.c
00000000 l    df *ABS*	00000000 snprintf.c
00000000 l    df *ABS*	00000000 memcmp.c
00000000 l    df *ABS*	00000000 memcpy.c
00000000 l    df *ABS*	00000000 memmove.c
00000000 l    df *ABS*	00000000 
000086d4 l     O *ABS*	00000000 _DYNAMIC
0000854c l     O *ABS*	00000000 _GLOBAL_OFFSET_TABLE_
00006af8 l     F .text	00000010 __utee_log_from_thumb
00006b08 l     F .text	00000010 __utee_panic_from_thumb
00006b18 l     F .text	00000010 __utee_check_access_rights_from_thumb
00006b28 l     F .text	00000010 __utee_cache_operation_from_thumb
00001090 g     F .text	00000022 putchar
00001600 g     F .text	00000070 TEE_PopulateTransientObject
0000311a g     F .text	00000004 TEE_BigIntConvertToFMM
00002e5c g     F .text	00000008 TEE_BigIntSquareMod
00002a90 g     F .text	000000f4 TEE_BigIntShiftRight
000020cc g     F .text	00000018 utee_storage_obj_create
00003830 g     F .text	000000a8 mbedtls_mpi_grow
00006974 g     F .text	000000ec __l_divmod
00001d4c g     F .text	00000014 utee_return
0000137c g     F .text	00000004 TEE_Realloc
00001032 g     F .text	0000003a printf
00001d60 g     F .text	00000014 utee_log
00001670 g     F .text	00000022 TEE_InitRefAttribute
0000119a g     F .text	00000066 TEE_InvokeTACommand
000037aa g     F .text	00000026 mbedtls_mpi_init_mempool
00003ca4 g     F .text	00000046 mbedtls_mpi_write_binary
00000fc0 g     F .text	0000000e vsnprintk
0000412e g     F .text	00000030 mbedtls_mpi_sub_int
00006ac4 g     F .text	00000034 memmove
00006a64 g     F .text	0000001e snprintf
00002980 g     F .text	00000026 TEE_BigIntCmpS32
00009088 g     O .data	00000004 __stack_chk_guard
00001692 g     F .text	00000022 TEE_InitValueAttribute
000038d8 g     F .text	000000cc mbedtls_mpi_shrink
0000689c g     F .text	00000002 __aeabi_unwind_cpp_pr0
00002bd0 g     F .text	0000001c TEE_BigIntAdd
00001da0 g     F .text	00000014 utee_get_property_name_to_index
00006b48 g     O .rodata	00000004 ta_heap_size
000015d0 g     F .text	00000030 TEE_ResetTransientObject
00001e84 g     F .text	00000018 utee_cryp_state_alloc
00002054 g     F .text	00000018 utee_authenc_enc_final
00004258 g     F .text	0000012c mbedtls_mpi_read_string
00002c08 g     F .text	00000058 TEE_BigIntNeg
00000020 g       .text	00000000 __text_start
00001970 g     F .text	0000002c TEE_StartPersistentObjectEnumerator
00003d82 g     F .text	00000078 mbedtls_mpi_shift_r
000065b8 g     F .text	0000004c malloc_buffer_overlaps_heap
00002e24 g     F .text	0000001c TEE_BigIntSubMod
000055c6 g     F .text	00000136 mbedtls_mpi_gen_prime
00003b52 g     F .text	00000020 mbedtls_mpi_get_bit
00003c3e g     F .text	00000066 mbedtls_mpi_read_binary
00000650 g     F .text	0000013c trace_printf
00004a10 g     F .text	000000c4 mbedtls_mpi_montmul
00006aae g     F .text	00000016 memcpy
00001eb0 g     F .text	00000014 utee_cryp_state_free
0000311e g     F .text	0000004a TEE_BigIntConvertFromFMM
00006a60 g     F .text	00000004 TEE_Panic
00001000 g     F .text	00000018 __aeabi_uldivmod
0000106c g     F .text	00000024 puts
00003168 g     F .text	000000a0 TEE_BigIntComputeFMM
00006080 g     F .text	00000020 malloc_get_stats
00001f30 g     F .text	00000018 utee_cipher_final
0000131c g     F .text	00000016 TEE_GetREETime
00001910 g     F .text	00000038 TEE_AllocatePersistentObjectEnumerator
00009034 g     O .data	00000054 ta_props
000060a0 g     F .text	00000002 malloc
00001f98 g     F .text	00000014 utee_cryp_obj_close
0000174c g     F .text	00000048 TEE_GenerateKey
00006a82 g     F .text	0000000e vsnprintf
00009030 g     O .data	00000004 trace_level
0000294c g     F .text	00000034 TEE_BigIntCmp
00006b38 g     O .rodata	00000004 ta_num_props
00006898 g     F .text	00000004 strtoul
00005ef0 g     F .text	0000007c bgetr
0000203c g     F .text	00000018 utee_authenc_update_payload
000066d8 g     F .text	0000002e mempool_free
00002864 g     F .text	00000058 TEE_BigIntConvertToOctetString
000021d4 g     F .text	00000014 utee_cache_operation
00003bf0 g     F .text	00000042 mbedtls_mpi_bitlen
00002010 g     F .text	00000018 utee_authenc_init
00002b84 g     F .text	0000002a TEE_BigIntGetBit
00006b4c g     O .rodata	00000003 trace_ext_prefix
00005c9c g     F .text	0000005c bgetz
0000126c g     F .text	0000000c TEE_GetInstanceData
0000129a g     F .text	0000001e TEE_Wait
000068bc g     F .text	0000000a isspace
00002184 g     F .text	00000014 utee_storage_obj_write
0000415e g     F .text	000000dc mbedtls_mpi_mul_mpi
000068a0 g     F .text	00000002 __aeabi_unwind_cpp_pr2
0000138a g     F .text	00000006 TEE_CacheFlush
000002a0 g     F .text	00000002 TA_DestroyEntryPoint
00003798 g     F .text	00000012 mbedtls_mpi_init
00003bc2 g     F .text	0000002e mbedtls_mpi_lsb
00006708 g     F .text	00000028 _assert_log
00003116 g     F .text	00000004 TEE_BigIntFMMContextSizeInU32
000018ca g     F .text	00000046 TEE_RenamePersistentObject
000027a0 g     F .text	00000044 _TEE_MathAPI_Init
0000406a g     F .text	00000048 mbedtls_mpi_add_mpi
0000215c g     F .text	00000014 utee_storage_next_enum
00006744 g     F .text	00000002 __stack_chk_fail
0000b124 g     O .bss	00004000 ta_heap
00002e64 g     F .text	000000a4 TEE_BigIntInvMod
000002a6 g     F .text	00000002 TA_CloseSessionEntryPoint
00001794 g     F .text	00000064 TEE_OpenPersistentObject
000040b2 g     F .text	0000004c mbedtls_mpi_sub_mpi
00001d74 g     F .text	00000014 __utee_panic
00001e9c g     F .text	00000014 utee_cryp_state_copy
000002a8 g     F .text	00000328 TA_InvokeCommandEntryPoint
00006648 g     F .text	0000006c mempool_alloc
00001f84 g     F .text	00000014 utee_cryp_obj_alloc
00001e70 g     F .text	00000014 utee_set_ta_time
00001f70 g     F .text	00000014 utee_cryp_obj_get_attr
000066b4 g     F .text	00000024 mempool_calloc
0000171c g     F .text	00000030 TEE_CopyObjectAttributes
000060b4 g     F .text	00000048 calloc
00001332 g     F .text	0000004a TEE_Malloc
00001e34 g     F .text	00000014 utee_mask_cancellation
00001fac g     F .text	00000014 utee_cryp_obj_reset
00001254 g     F .text	0000000a TEE_CheckMemoryAccessRights
0000f128 g       .bss	00000000 __gprof_buf_end
00006900 g     F .text	00000074 __ul_divmod
00003b1a g     F .text	00000038 mbedtls_mpi_lset
000019f0 g     F .text	00000040 TEE_ReadObjectData
00001468 g     F .text	00000070 TEE_GetObjectBufferAttribute
000002a2 g     F .text	00000004 TA_OpenSessionEntryPoint
00002148 g     F .text	00000014 utee_storage_start_enum
000020f8 g     F .text	00000014 utee_storage_obj_rename
000090bc g     O .bss	00000004 ta_param_types
00004726 g     F .text	0000002e mbedtls_mpi_div_int
00001398 g     F .text	0000003a __utee_from_attr
000030d8 g     F .text	00000030 TEE_BigIntIsProbablePrime
0000423a g     F .text	0000001e mbedtls_mpi_mul_int
00001890 g     F .text	00000024 TEE_CloseAndDeletePersistentObject1
00004af8 g     F .text	00000446 mbedtls_mpi_exp_mod
00003a28 g     F .text	0000006c mbedtls_mpi_safe_cond_assign
00001d88 g     F .text	00000018 utee_get_property
000027e4 g     F .text	00000040 TEE_BigIntInit
00001278 g     F .text	00000004 TEE_MemMove
00002824 g     F .text	00000040 TEE_BigIntConvertFromOctetString
0000908c g     O .data	00000004 _ref__utee_mcount
00003dfa g     F .text	0000006e mbedtls_mpi_cmp_abs
000068d4 g     F .text	0000001c memchr
0000121c g     F .text	0000001c TEE_UnmaskCancellation
000013d2 g     F .text	0000002a TEE_GetObjectInfo
000056fc g     F .text	0000032c mbedtls_mpi_self_test
000020e4 g     F .text	00000014 utee_storage_obj_del
000021ac g     F .text	00000014 utee_storage_obj_seek
000015a0 g     F .text	00000030 TEE_FreeTransientObject
00003efe g     F .text	00000030 mbedtls_mpi_cmp_int
00001ed8 g     F .text	00000014 utee_hash_update
000021e8  w    F .text	0000000c __utee_mcount
00002db8 g     F .text	00000050 TEE_BigIntMod
000047b8 g     F .text	0000003a mbedtls_mpi_mod_int
00001dcc g     F .text	00000014 utee_close_ta_session
00002d0a g     F .text	000000ae TEE_BigIntDiv
000068c6 g     F .text	0000000e isupper
00006770 g     F .text	00000024 strncmp
000039a4 g     F .text	00000056 mbedtls_mpi_copy
0000606c g     F .text	00000014 malloc_reset_stats
00001f18 g     F .text	00000018 utee_cipher_update
0000141c g     F .text	00000020 TEE_RestrictObjectUsage1
000060fc g     F .text	00000038 realloc
000039fa g     F .text	0000002e mbedtls_mpi_swap
00006604 g     F .text	00000044 mempool_alloc_pool
0000209c g     F .text	00000018 utee_asymm_verify
00002c60 g     F .text	000000a4 TEE_BigIntMul
00003cea g     F .text	00000098 mbedtls_mpi_shift_l
00003e68 g     F .text	00000096 mbedtls_mpi_cmp_mpi
00001280 g     F .text	00000004 TEE_MemFill
00006a90 g     F .text	0000001e memcmp
000063e4 g     F .text	000000f8 malloc_add_pool
0000063c g     F .text	00000014 trace_get_level
00003f2e g     F .text	000000bc mbedtls_mpi_add_abs
00001ffc g     F .text	00000014 utee_cryp_random_number_generate
0000143c g     F .text	0000002c TEE_RestrictObjectUsage
0000310e g     F .text	00000008 TEE_BigIntFMMSizeInU32
000068a2 g     F .text	0000001a isalpha
00003108 g     F .text	00000004 TEE_BigIntInitFMM
00002084 g     F .text	00000018 utee_asymm_operate
0000155c g     F .text	00000014 TEE_CloseObject
00001ba8 g     F .text	00000190 __utee_entry
00006b38 g       .text	00000000 __text_end
00002f08 g     F .text	0000007c TEE_BigIntRelativePrime
00004754 g     F .text	00000064 mbedtls_mpi_mod_mpi
00005f6c g     F .text	0000009c bpool
00001200 g     F .text	0000001c TEE_GetCancellationFlag
00004f3e g     F .text	00000114 mbedtls_mpi_gcd
000012f4 g     F .text	00000028 TEE_SetTAPersistentTime
00006746 g     F .text	00000010 memset
000012b8 g     F .text	0000003c TEE_GetTAPersistentTime
0000078c g     F .text	00000100 dhex_dump
000017f8 g     F .text	00000098 TEE_CreatePersistentObject
00001238 g     F .text	0000001c TEE_MaskCancellation
00002170 g     F .text	00000014 utee_storage_obj_read
00001a70 g     F .text	00000038 TEE_TruncateObjectData
00001fc0 g     F .text	00000014 utee_cryp_obj_populate
000013fc g     F .text	00000020 TEE_GetObjectInfo1
0000061e g     F .text	0000001e trace_set_level
00001f48 g     F .text	00000014 utee_cryp_obj_get_info
000014d8 g     F .text	00000084 TEE_GetObjectValueAttribute
0000210c g     F .text	00000014 utee_storage_alloc_enum
00002134 g     F .text	00000014 utee_storage_reset_enum
00002198 g     F .text	00000014 utee_storage_obj_trunc
00006756 g     F .text	0000001a strcmp
000028f4 g     F .text	00000058 TEE_BigIntConvertToS32
00002bec g     F .text	0000001c TEE_BigIntSub
00001df8 g     F .text	00000014 utee_get_cancellation_flag
00001ec4 g     F .text	00000014 utee_hash_init
00006740 g     F .text	00000004 tahead_get_trace_level
000010b4 g     F .text	00000050 __utee_from_param
00001aa8 g     F .text	0000007c TEE_SeekObjectData
00001104 g     F .text	0000003e __utee_to_param
00004ad4 g     F .text	00000024 mbedtls_mpi_montred
00006134 g     F .text	000002b0 memalign
000028bc g     F .text	00000038 TEE_BigIntConvertFromS32
000040fe g     F .text	00000030 mbedtls_mpi_add_int
00001f5c g     F .text	00000014 utee_cryp_obj_restrict_usage
000064dc g     F .text	000000dc malloc_buffer_is_within_alloced
00001fd4 g     F .text	00000014 utee_cryp_obj_copy
0000310c g     F .text	00000002 TEE_BigIntInitFMMContext
00001fe8 g     F .text	00000014 utee_cryp_derive_key
0000206c g     F .text	00000018 utee_authenc_dec_final
00001a30 g     F .text	00000040 TEE_WriteObjectData
0000195c g     F .text	00000014 TEE_ResetPersistentObjectEnumerator
00002d04 g     F .text	00000006 TEE_BigIntSquare
0000029c g     F .text	00000004 TA_CreateEntryPoint
000049e8 g     F .text	00000028 mbedtls_mpi_montg_init
00000fce g     F .text	0000001a snprintk
00002bae g     F .text	00000022 TEE_BigIntGetBitCount
00002e40 g     F .text	0000001c TEE_BigIntMulMod
0000529a g     F .text	000002d0 mbedtls_mpi_inv_mod
000090c0 g     O .bss	00000020 ta_params
00004384 g     F .text	000003a2 mbedtls_mpi_div_mpi
00003c32 g     F .text	0000000c mbedtls_mpi_size
00005b30 g     F .text	00000134 bget
00001570 g     F .text	00000030 TEE_AllocateTransientObject
00003b72 g     F .text	00000050 mbedtls_mpi_set_bit
000037d0 g     F .text	00000012 mbedtls_mpi_init_static
00001380 g     F .text	00000004 TEE_Free
0000556a g     F .text	0000005c mbedtls_mpi_is_prime
00001390 g     F .text	00000006 TEE_CacheInvalidate
00001f04 g     F .text	00000014 utee_cipher_init
00006730 g     F .text	00000010 _assert_break
00002e08 g     F .text	0000001c TEE_BigIntAddMod
00002120 g     F .text	00000014 utee_storage_free_enum
00002028 g     F .text	00000014 utee_authenc_update_aad
00006794 g     F .text	00000104 _strtoul
0000127c g     F .text	00000004 TEE_MemCompare
0000088c g     F .text	00000734 __vsnprintf
00001948 g     F .text	00000014 TEE_FreePersistentObjectEnumerator
00001d38 g     F .text	00000014 utee_panic
00001142 g     F .text	00000044 TEE_OpenTASession
00001018 g     F .text	00000014 trace_ext_puts
0000102c g     F .text	00000006 trace_ext_get_thread_id
000018b4 g     F .text	00000016 TEE_CloseAndDeletePersistentObject
000037e2 g     F .text	0000004e mbedtls_mpi_free
00001384 g     F .text	00000006 TEE_CacheClean
00001db4 g     F .text	00000018 utee_open_ta_session
00003a94 g     F .text	00000086 mbedtls_mpi_safe_cond_swap
000016b4 g     F .text	00000068 TEE_CopyObjectAttributes1
00001eec g     F .text	00000018 utee_hash_final
000068f0 g     F .text	00000010 strlen
00002f84 g     F .text	00000154 TEE_BigIntComputeExtendedGcd
0000689e g     F .text	00000002 __aeabi_unwind_cpp_pr1
000020b4 g     F .text	00000018 utee_storage_obj_open
00001de0 g     F .text	00000018 utee_invoke_ta_command
00001e48 g     F .text	00000014 utee_wait
00001284 g     F .text	00000016 TEE_GetSystemTime
00000000 g     O .ta_head	00000020 ta_head
00005cf8 g     F .text	000001f8 brel
00003fea g     F .text	00000080 mbedtls_mpi_sub_abs
00001e5c g     F .text	00000014 utee_get_time
00005052 g     F .text	00000032 mbedtls_mpi_fill_random
0000125e g     F .text	0000000e TEE_SetInstanceData
00001e20 g     F .text	00000014 utee_unmask_cancellation
00000fe8 g     F .text	00000018 __aeabi_ldivmod
00001e0c g     F .text	00000014 utee_check_access_rights
0000485e g     F .text	0000013a mbedtls_mpi_write_string
0000199c g     F .text	00000054 TEE_GetNextPersistentObject
000021c0 g     F .text	00000014 utee_cryp_obj_generate_key
00001186 g     F .text	00000014 TEE_CloseTASession
0000f128 g       .bss	00000000 __gprof_buf_start
000060a2 g     F .text	00000012 free
00006008 g     F .text	00000064 bstats
0000b0e0 g     O .bss	00000004 mbedtls_mpi_mempool



Disassembly of section .text:

00000020 <check_valid_value>:
check_valid_value():
/workspace/benchmark/optee-fiovb/ta/entry.c:47
      20:	4a18      	ldr	r2, [pc, #96]	; (84 <check_valid_value+0x64>)
      22:	4b19      	ldr	r3, [pc, #100]	; (88 <check_valid_value+0x68>)
      24:	b570      	push	{r4, r5, r6, lr}
      26:	447a      	add	r2, pc
/workspace/benchmark/optee-fiovb/ta/entry.c:48
      28:	4d18      	ldr	r5, [pc, #96]	; (8c <check_valid_value+0x6c>)
/workspace/benchmark/optee-fiovb/ta/entry.c:47
      2a:	b08e      	sub	sp, #56	; 0x38
      2c:	4606      	mov	r6, r0
/workspace/benchmark/optee-fiovb/ta/entry.c:48
      2e:	447d      	add	r5, pc
/workspace/benchmark/optee-fiovb/ta/entry.c:47
      30:	58d3      	ldr	r3, [r2, r3]
/workspace/benchmark/optee-fiovb/ta/entry.c:48
      32:	ac01      	add	r4, sp, #4
/workspace/benchmark/optee-fiovb/ta/entry.c:47
      34:	681b      	ldr	r3, [r3, #0]
      36:	930d      	str	r3, [sp, #52]	; 0x34
      38:	f04f 0300 	mov.w	r3, #0
/workspace/benchmark/optee-fiovb/ta/entry.c:48
      3c:	cd0f      	ldmia	r5!, {r0, r1, r2, r3}
      3e:	c40f      	stmia	r4!, {r0, r1, r2, r3}
      40:	cd0f      	ldmia	r5!, {r0, r1, r2, r3}
      42:	c40f      	stmia	r4!, {r0, r1, r2, r3}
      44:	e895 000f 	ldmia.w	r5, {r0, r1, r2, r3}
      48:	e884 000f 	stmia.w	r4, {r0, r1, r2, r3}
/workspace/benchmark/optee-fiovb/ta/entry.c:57
      4c:	ad01      	add	r5, sp, #4
      4e:	2400      	movs	r4, #0
/workspace/benchmark/optee-fiovb/ta/entry.c:58
      50:	f855 1b04 	ldr.w	r1, [r5], #4
      54:	4630      	mov	r0, r6
      56:	f006 fb7e 	bl	6756 <strcmp>
      5a:	b118      	cbz	r0, 64 <check_valid_value+0x44>
/workspace/benchmark/optee-fiovb/ta/entry.c:57 (discriminator 2)
      5c:	3401      	adds	r4, #1
      5e:	2c0c      	cmp	r4, #12
      60:	d1f6      	bne.n	50 <check_valid_value+0x30>
/workspace/benchmark/optee-fiovb/ta/entry.c:62
      62:	4807      	ldr	r0, [pc, #28]	; (80 <check_valid_value+0x60>)
/workspace/benchmark/optee-fiovb/ta/entry.c:47
      64:	4a0a      	ldr	r2, [pc, #40]	; (90 <check_valid_value+0x70>)
/workspace/benchmark/optee-fiovb/ta/entry.c:63
      66:	4b08      	ldr	r3, [pc, #32]	; (88 <check_valid_value+0x68>)
/workspace/benchmark/optee-fiovb/ta/entry.c:47
      68:	447a      	add	r2, pc
/workspace/benchmark/optee-fiovb/ta/entry.c:63
      6a:	58d3      	ldr	r3, [r2, r3]
      6c:	681a      	ldr	r2, [r3, #0]
      6e:	9b0d      	ldr	r3, [sp, #52]	; 0x34
      70:	405a      	eors	r2, r3
      72:	f04f 0300 	mov.w	r3, #0
      76:	d001      	beq.n	7c <check_valid_value+0x5c>
      78:	f006 fb64 	bl	6744 <__stack_chk_fail>
      7c:	b00e      	add	sp, #56	; 0x38
      7e:	bd70      	pop	{r4, r5, r6, pc}
      80:	ffff0008 	.word	0xffff0008
      84:	00008522 	.word	0x00008522
      88:	0000000c 	.word	0x0000000c
      8c:	00008fce 	.word	0x00008fce
      90:	000084e0 	.word	0x000084e0

00000094 <get_named_object_name.constprop.0>:
get_named_object_name():
/workspace/benchmark/optee-fiovb/ta/entry.c:25
      94:	e92d 41f0 	stmdb	sp!, {r4, r5, r6, r7, r8, lr}
/workspace/benchmark/optee-fiovb/ta/entry.c:31
      98:	f101 080c 	add.w	r8, r1, #12
/workspace/benchmark/optee-fiovb/ta/entry.c:25
      9c:	4607      	mov	r7, r0
      9e:	460d      	mov	r5, r1
      a0:	4614      	mov	r4, r2
      a2:	461e      	mov	r6, r3
/workspace/benchmark/optee-fiovb/ta/entry.c:31
      a4:	f1b8 0f40 	cmp.w	r8, #64	; 0x40
      a8:	d810      	bhi.n	cc <get_named_object_name.constprop.0+0x38>
/workspace/benchmark/optee-fiovb/ta/entry.c:36
      aa:	490a      	ldr	r1, [pc, #40]	; (d4 <get_named_object_name.constprop.0+0x40>)
      ac:	220c      	movs	r2, #12
      ae:	4620      	mov	r0, r4
      b0:	4479      	add	r1, pc
      b2:	f001 f8e1 	bl	1278 <TEE_MemMove>
/workspace/benchmark/optee-fiovb/ta/entry.c:39
      b6:	462a      	mov	r2, r5
      b8:	4639      	mov	r1, r7
      ba:	f104 000c 	add.w	r0, r4, #12
      be:	f001 f8db 	bl	1278 <TEE_MemMove>
/workspace/benchmark/optee-fiovb/ta/entry.c:43
      c2:	2000      	movs	r0, #0
/workspace/benchmark/optee-fiovb/ta/entry.c:41
      c4:	f8c6 8000 	str.w	r8, [r6]
/workspace/benchmark/optee-fiovb/ta/entry.c:44
      c8:	e8bd 81f0 	ldmia.w	sp!, {r4, r5, r6, r7, r8, pc}
/workspace/benchmark/optee-fiovb/ta/entry.c:33
      cc:	4800      	ldr	r0, [pc, #0]	; (d0 <get_named_object_name.constprop.0+0x3c>)
      ce:	e7fb      	b.n	c8 <get_named_object_name.constprop.0+0x34>
      d0:	ffff0006 	.word	0xffff0006
      d4:	00006d60 	.word	0x00006d60

000000d8 <write_value>:
write_value():
/workspace/benchmark/optee-fiovb/ta/entry.c:68
      d8:	e92d 47f0 	stmdb	sp!, {r4, r5, r6, r7, r8, r9, sl, lr}
      dc:	4617      	mov	r7, r2
      de:	4a32      	ldr	r2, [pc, #200]	; (1a8 <write_value+0xd0>)
      e0:	4698      	mov	r8, r3
      e2:	4b32      	ldr	r3, [pc, #200]	; (1ac <write_value+0xd4>)
      e4:	447a      	add	r2, pc
      e6:	b098      	sub	sp, #96	; 0x60
/workspace/benchmark/optee-fiovb/ta/entry.c:69
      e8:	2400      	movs	r4, #0
/workspace/benchmark/optee-fiovb/ta/entry.c:68
      ea:	4605      	mov	r5, r0
      ec:	4689      	mov	r9, r1
/workspace/benchmark/optee-fiovb/ta/entry.c:71
      ee:	a808      	add	r0, sp, #32
/workspace/benchmark/optee-fiovb/ta/entry.c:68
      f0:	58d3      	ldr	r3, [r2, r3]
/workspace/benchmark/optee-fiovb/ta/entry.c:71
      f2:	4621      	mov	r1, r4
      f4:	223c      	movs	r2, #60	; 0x3c
/workspace/benchmark/optee-fiovb/ta/entry.c:84
      f6:	f10d 0a1c 	add.w	sl, sp, #28
/workspace/benchmark/optee-fiovb/ta/entry.c:68
      fa:	681b      	ldr	r3, [r3, #0]
      fc:	9317      	str	r3, [sp, #92]	; 0x5c
      fe:	f04f 0300 	mov.w	r3, #0
/workspace/benchmark/optee-fiovb/ta/entry.c:69
     102:	9405      	str	r4, [sp, #20]
/workspace/benchmark/optee-fiovb/ta/entry.c:71
     104:	9407      	str	r4, [sp, #28]
     106:	f006 fb1e 	bl	6746 <memset>
/workspace/benchmark/optee-fiovb/ta/entry.c:81
     10a:	f89d 3080 	ldrb.w	r3, [sp, #128]	; 0x80
/workspace/benchmark/optee-fiovb/ta/entry.c:84
     10e:	4652      	mov	r2, sl
     110:	4649      	mov	r1, r9
     112:	4628      	mov	r0, r5
/workspace/benchmark/optee-fiovb/ta/entry.c:81
     114:	42a3      	cmp	r3, r4
/workspace/benchmark/optee-fiovb/ta/entry.c:84
     116:	ab06      	add	r3, sp, #24
/workspace/benchmark/optee-fiovb/ta/entry.c:72
     118:	9406      	str	r4, [sp, #24]
/workspace/benchmark/optee-fiovb/ta/entry.c:81
     11a:	f240 4603 	movw	r6, #1027	; 0x403
     11e:	bf08      	it	eq
     120:	2601      	moveq	r6, #1
/workspace/benchmark/optee-fiovb/ta/entry.c:84
     122:	f7ff ffb7 	bl	94 <get_named_object_name.constprop.0>
/workspace/benchmark/optee-fiovb/ta/entry.c:86
     126:	4604      	mov	r4, r0
     128:	b9e0      	cbnz	r0, 164 <write_value+0x8c>
/workspace/benchmark/optee-fiovb/ta/entry.c:89
     12a:	ab05      	add	r3, sp, #20
     12c:	e88d 0190 	stmia.w	sp, {r4, r7, r8}
     130:	9a06      	ldr	r2, [sp, #24]
     132:	9303      	str	r3, [sp, #12]
     134:	4651      	mov	r1, sl
     136:	4633      	mov	r3, r6
     138:	4819      	ldr	r0, [pc, #100]	; (1a0 <write_value+0xc8>)
     13a:	f001 fb5d 	bl	17f8 <TEE_CreatePersistentObject>
/workspace/benchmark/optee-fiovb/ta/entry.c:93
     13e:	4b19      	ldr	r3, [pc, #100]	; (1a4 <write_value+0xcc>)
/workspace/benchmark/optee-fiovb/ta/entry.c:89
     140:	4604      	mov	r4, r0
/workspace/benchmark/optee-fiovb/ta/entry.c:93
     142:	4298      	cmp	r0, r3
     144:	d11a      	bne.n	17c <write_value+0xa4>
/workspace/benchmark/optee-fiovb/ta/entry.c:94
     146:	4b1a      	ldr	r3, [pc, #104]	; (1b0 <write_value+0xd8>)
     148:	215e      	movs	r1, #94	; 0x5e
     14a:	9002      	str	r0, [sp, #8]
     14c:	4819      	ldr	r0, [pc, #100]	; (1b4 <write_value+0xdc>)
     14e:	447b      	add	r3, pc
     150:	9300      	str	r3, [sp, #0]
     152:	2301      	movs	r3, #1
     154:	461a      	mov	r2, r3
     156:	4478      	add	r0, pc
     158:	9501      	str	r5, [sp, #4]
/workspace/benchmark/optee-fiovb/ta/entry.c:97
     15a:	f000 fa79 	bl	650 <trace_printf>
/workspace/benchmark/optee-fiovb/ta/entry.c:100
     15e:	9805      	ldr	r0, [sp, #20]
     160:	f001 f9fc 	bl	155c <TEE_CloseObject>
/workspace/benchmark/optee-fiovb/ta/entry.c:68
     164:	4a14      	ldr	r2, [pc, #80]	; (1b8 <write_value+0xe0>)
/workspace/benchmark/optee-fiovb/ta/entry.c:103
     166:	4b11      	ldr	r3, [pc, #68]	; (1ac <write_value+0xd4>)
/workspace/benchmark/optee-fiovb/ta/entry.c:68
     168:	447a      	add	r2, pc
/workspace/benchmark/optee-fiovb/ta/entry.c:103
     16a:	58d3      	ldr	r3, [r2, r3]
     16c:	681a      	ldr	r2, [r3, #0]
     16e:	9b17      	ldr	r3, [sp, #92]	; 0x5c
     170:	405a      	eors	r2, r3
     172:	f04f 0300 	mov.w	r3, #0
     176:	d00e      	beq.n	196 <write_value+0xbe>
     178:	f006 fae4 	bl	6744 <__stack_chk_fail>
/workspace/benchmark/optee-fiovb/ta/entry.c:96
     17c:	2800      	cmp	r0, #0
     17e:	d0ee      	beq.n	15e <write_value+0x86>
/workspace/benchmark/optee-fiovb/ta/entry.c:97
     180:	4b0e      	ldr	r3, [pc, #56]	; (1bc <write_value+0xe4>)
     182:	2161      	movs	r1, #97	; 0x61
     184:	9002      	str	r0, [sp, #8]
     186:	480e      	ldr	r0, [pc, #56]	; (1c0 <write_value+0xe8>)
     188:	447b      	add	r3, pc
     18a:	9300      	str	r3, [sp, #0]
     18c:	2301      	movs	r3, #1
     18e:	461a      	mov	r2, r3
     190:	4478      	add	r0, pc
     192:	9501      	str	r5, [sp, #4]
     194:	e7e1      	b.n	15a <write_value+0x82>
/workspace/benchmark/optee-fiovb/ta/entry.c:103
     196:	4620      	mov	r0, r4
     198:	b018      	add	sp, #96	; 0x60
     19a:	e8bd 87f0 	ldmia.w	sp!, {r4, r5, r6, r7, r8, r9, sl, pc}
     19e:	bf00      	nop
     1a0:	80000100 	.word	0x80000100
     1a4:	ffff0003 	.word	0xffff0003
     1a8:	00008464 	.word	0x00008464
     1ac:	0000000c 	.word	0x0000000c
     1b0:	00006ccf 	.word	0x00006ccf
     1b4:	00006f76 	.word	0x00006f76
     1b8:	000083e0 	.word	0x000083e0
     1bc:	00006cc6 	.word	0x00006cc6
     1c0:	00006f3c 	.word	0x00006f3c

000001c4 <read_value>:
read_value():
/workspace/benchmark/optee-fiovb/ta/entry.c:108
     1c4:	e92d 43f0 	stmdb	sp!, {r4, r5, r6, r7, r8, r9, lr}
     1c8:	4616      	mov	r6, r2
     1ca:	4a2d      	ldr	r2, [pc, #180]	; (280 <read_value+0xbc>)
     1cc:	461f      	mov	r7, r3
     1ce:	4b2d      	ldr	r3, [pc, #180]	; (284 <read_value+0xc0>)
     1d0:	447a      	add	r2, pc
     1d2:	b099      	sub	sp, #100	; 0x64
/workspace/benchmark/optee-fiovb/ta/entry.c:116
     1d4:	f10d 081c 	add.w	r8, sp, #28
/workspace/benchmark/optee-fiovb/ta/entry.c:108
     1d8:	4605      	mov	r5, r0
     1da:	58d3      	ldr	r3, [r2, r3]
/workspace/benchmark/optee-fiovb/ta/entry.c:116
     1dc:	4642      	mov	r2, r8
/workspace/benchmark/optee-fiovb/ta/entry.c:108
     1de:	f8dd 9080 	ldr.w	r9, [sp, #128]	; 0x80
     1e2:	681b      	ldr	r3, [r3, #0]
     1e4:	9317      	str	r3, [sp, #92]	; 0x5c
     1e6:	f04f 0300 	mov.w	r3, #0
/workspace/benchmark/optee-fiovb/ta/entry.c:109
     1ea:	2300      	movs	r3, #0
     1ec:	9305      	str	r3, [sp, #20]
/workspace/benchmark/optee-fiovb/ta/entry.c:114
     1ee:	9306      	str	r3, [sp, #24]
/workspace/benchmark/optee-fiovb/ta/entry.c:116
     1f0:	ab06      	add	r3, sp, #24
     1f2:	f7ff ff4f 	bl	94 <get_named_object_name.constprop.0>
/workspace/benchmark/optee-fiovb/ta/entry.c:118
     1f6:	4604      	mov	r4, r0
     1f8:	b9b0      	cbnz	r0, 228 <read_value+0x64>
/workspace/benchmark/optee-fiovb/ta/entry.c:121
     1fa:	ab05      	add	r3, sp, #20
     1fc:	9a06      	ldr	r2, [sp, #24]
     1fe:	9300      	str	r3, [sp, #0]
     200:	4641      	mov	r1, r8
     202:	481e      	ldr	r0, [pc, #120]	; (27c <read_value+0xb8>)
     204:	2303      	movs	r3, #3
     206:	f001 fac5 	bl	1794 <TEE_OpenPersistentObject>
/workspace/benchmark/optee-fiovb/ta/entry.c:123
     20a:	4604      	mov	r4, r0
     20c:	b1c0      	cbz	r0, 240 <read_value+0x7c>
/workspace/benchmark/optee-fiovb/ta/entry.c:124
     20e:	9002      	str	r0, [sp, #8]
     210:	2203      	movs	r2, #3
     212:	481d      	ldr	r0, [pc, #116]	; (288 <read_value+0xc4>)
     214:	217c      	movs	r1, #124	; 0x7c
     216:	4b1d      	ldr	r3, [pc, #116]	; (28c <read_value+0xc8>)
     218:	4478      	add	r0, pc
     21a:	9501      	str	r5, [sp, #4]
     21c:	447b      	add	r3, pc
     21e:	300c      	adds	r0, #12
     220:	9300      	str	r3, [sp, #0]
     222:	2301      	movs	r3, #1
     224:	f000 fa14 	bl	650 <trace_printf>
/workspace/benchmark/optee-fiovb/ta/entry.c:108
     228:	4a19      	ldr	r2, [pc, #100]	; (290 <read_value+0xcc>)
/workspace/benchmark/optee-fiovb/ta/entry.c:136
     22a:	4b16      	ldr	r3, [pc, #88]	; (284 <read_value+0xc0>)
/workspace/benchmark/optee-fiovb/ta/entry.c:108
     22c:	447a      	add	r2, pc
/workspace/benchmark/optee-fiovb/ta/entry.c:136
     22e:	58d3      	ldr	r3, [r2, r3]
     230:	681a      	ldr	r2, [r3, #0]
     232:	9b17      	ldr	r3, [sp, #92]	; 0x5c
     234:	405a      	eors	r2, r3
     236:	f04f 0300 	mov.w	r3, #0
     23a:	d01a      	beq.n	272 <read_value+0xae>
     23c:	f006 fa82 	bl	6744 <__stack_chk_fail>
/workspace/benchmark/optee-fiovb/ta/entry.c:128
     240:	9805      	ldr	r0, [sp, #20]
     242:	464b      	mov	r3, r9
     244:	463a      	mov	r2, r7
     246:	4631      	mov	r1, r6
     248:	f001 fbd2 	bl	19f0 <TEE_ReadObjectData>
/workspace/benchmark/optee-fiovb/ta/entry.c:129
     24c:	4604      	mov	r4, r0
     24e:	b160      	cbz	r0, 26a <read_value+0xa6>
/workspace/benchmark/optee-fiovb/ta/entry.c:130
     250:	4b10      	ldr	r3, [pc, #64]	; (294 <read_value+0xd0>)
     252:	2182      	movs	r1, #130	; 0x82
     254:	9002      	str	r0, [sp, #8]
     256:	4810      	ldr	r0, [pc, #64]	; (298 <read_value+0xd4>)
     258:	447b      	add	r3, pc
     25a:	9300      	str	r3, [sp, #0]
     25c:	2301      	movs	r3, #1
     25e:	4478      	add	r0, pc
     260:	461a      	mov	r2, r3
     262:	300c      	adds	r0, #12
     264:	9501      	str	r5, [sp, #4]
     266:	f000 f9f3 	bl	650 <trace_printf>
/workspace/benchmark/optee-fiovb/ta/entry.c:133
     26a:	9805      	ldr	r0, [sp, #20]
     26c:	f001 f976 	bl	155c <TEE_CloseObject>
/workspace/benchmark/optee-fiovb/ta/entry.c:135
     270:	e7da      	b.n	228 <read_value+0x64>
/workspace/benchmark/optee-fiovb/ta/entry.c:136
     272:	4620      	mov	r0, r4
     274:	b019      	add	sp, #100	; 0x64
     276:	e8bd 83f0 	ldmia.w	sp!, {r4, r5, r6, r7, r8, r9, pc}
     27a:	bf00      	nop
     27c:	80000100 	.word	0x80000100
     280:	00008378 	.word	0x00008378
     284:	0000000c 	.word	0x0000000c
     288:	00006eb4 	.word	0x00006eb4
     28c:	00006c63 	.word	0x00006c63
     290:	0000831c 	.word	0x0000831c
     294:	00006c56 	.word	0x00006c56
     298:	00006e6e 	.word	0x00006e6e

0000029c <TA_CreateEntryPoint>:
TA_CreateEntryPoint():
/workspace/benchmark/optee-fiovb/ta/entry.c:367
     29c:	2000      	movs	r0, #0
     29e:	4770      	bx	lr

000002a0 <TA_DestroyEntryPoint>:
TA_DestroyEntryPoint():
/workspace/benchmark/optee-fiovb/ta/entry.c:371
     2a0:	4770      	bx	lr

000002a2 <TA_OpenSessionEntryPoint>:
TA_OpenSessionEntryPoint():
/workspace/benchmark/optee-fiovb/ta/entry.c:378
     2a2:	2000      	movs	r0, #0
     2a4:	4770      	bx	lr

000002a6 <TA_CloseSessionEntryPoint>:
TA_CloseSessionEntryPoint():
/workspace/benchmark/optee-fiovb/ta/entry.c:382
     2a6:	4770      	bx	lr

000002a8 <TA_InvokeCommandEntryPoint>:
TA_InvokeCommandEntryPoint():
/workspace/benchmark/optee-fiovb/ta/entry.c:387
     2a8:	e92d 4ff0 	stmdb	sp!, {r4, r5, r6, r7, r8, r9, sl, fp, lr}
     2ac:	4616      	mov	r6, r2
     2ae:	4ab1      	ldr	r2, [pc, #708]	; (574 <TA_InvokeCommandEntryPoint+0x2cc>)
     2b0:	461d      	mov	r5, r3
     2b2:	4bb1      	ldr	r3, [pc, #708]	; (578 <TA_InvokeCommandEntryPoint+0x2d0>)
     2b4:	447a      	add	r2, pc
     2b6:	b09b      	sub	sp, #108	; 0x6c
     2b8:	460c      	mov	r4, r1
/workspace/benchmark/optee-fiovb/ta/entry.c:388
     2ba:	2901      	cmp	r1, #1
/workspace/benchmark/optee-fiovb/ta/entry.c:387
     2bc:	58d3      	ldr	r3, [r2, r3]
     2be:	681b      	ldr	r3, [r3, #0]
     2c0:	9319      	str	r3, [sp, #100]	; 0x64
     2c2:	f04f 0300 	mov.w	r3, #0
/workspace/benchmark/optee-fiovb/ta/entry.c:388
     2c6:	d046      	beq.n	356 <TA_InvokeCommandEntryPoint+0xae>
     2c8:	2902      	cmp	r1, #2
     2ca:	f000 80e6 	beq.w	49a <TA_InvokeCommandEntryPoint+0x1f2>
     2ce:	2900      	cmp	r1, #0
     2d0:	f040 812d 	bne.w	52e <TA_InvokeCommandEntryPoint+0x286>
read_persist_value():
/workspace/benchmark/optee-fiovb/ta/entry.c:308
     2d4:	2e75      	cmp	r6, #117	; 0x75
/workspace/benchmark/optee-fiovb/ta/entry.c:306
     2d6:	9108      	str	r1, [sp, #32]
/workspace/benchmark/optee-fiovb/ta/entry.c:308
     2d8:	d113      	bne.n	302 <TA_InvokeCommandEntryPoint+0x5a>
/workspace/benchmark/optee-fiovb/ta/entry.c:312
     2da:	e9d5 4800 	ldrd	r4, r8, [r5]
/workspace/benchmark/optee-fiovb/ta/entry.c:314
     2de:	4620      	mov	r0, r4
     2e0:	f7ff fe9e 	bl	20 <check_valid_value>
     2e4:	4601      	mov	r1, r0
     2e6:	b170      	cbz	r0, 306 <TA_InvokeCommandEntryPoint+0x5e>
/workspace/benchmark/optee-fiovb/ta/entry.c:315
     2e8:	4ba4      	ldr	r3, [pc, #656]	; (57c <TA_InvokeCommandEntryPoint+0x2d4>)
     2ea:	f240 113b 	movw	r1, #315	; 0x13b
     2ee:	48a4      	ldr	r0, [pc, #656]	; (580 <TA_InvokeCommandEntryPoint+0x2d8>)
     2f0:	447b      	add	r3, pc
     2f2:	9300      	str	r3, [sp, #0]
     2f4:	4478      	add	r0, pc
     2f6:	2301      	movs	r3, #1
     2f8:	461a      	mov	r2, r3
     2fa:	3017      	adds	r0, #23
     2fc:	9401      	str	r4, [sp, #4]
write_persist_value():
/workspace/benchmark/optee-fiovb/ta/entry.c:247
     2fe:	f000 f9a7 	bl	650 <trace_printf>
/workspace/benchmark/optee-fiovb/ta/entry.c:241
     302:	4c96      	ldr	r4, [pc, #600]	; (55c <TA_InvokeCommandEntryPoint+0x2b4>)
     304:	e01a      	b.n	33c <TA_InvokeCommandEntryPoint+0x94>
read_persist_value():
/workspace/benchmark/optee-fiovb/ta/entry.c:319
     306:	68ef      	ldr	r7, [r5, #12]
/workspace/benchmark/optee-fiovb/ta/entry.c:320
     308:	4638      	mov	r0, r7
     30a:	f001 f812 	bl	1332 <TEE_Malloc>
/workspace/benchmark/optee-fiovb/ta/entry.c:321
     30e:	4606      	mov	r6, r0
     310:	2800      	cmp	r0, #0
     312:	f000 811b 	beq.w	54c <TA_InvokeCommandEntryPoint+0x2a4>
/workspace/benchmark/optee-fiovb/ta/entry.c:324
     316:	4602      	mov	r2, r0
     318:	ab08      	add	r3, sp, #32
     31a:	4641      	mov	r1, r8
     31c:	4620      	mov	r0, r4
     31e:	9300      	str	r3, [sp, #0]
     320:	463b      	mov	r3, r7
     322:	f7ff ff4f 	bl	1c4 <read_value>
/workspace/benchmark/optee-fiovb/ta/entry.c:326
     326:	463a      	mov	r2, r7
/workspace/benchmark/optee-fiovb/ta/entry.c:324
     328:	4604      	mov	r4, r0
/workspace/benchmark/optee-fiovb/ta/entry.c:326
     32a:	4631      	mov	r1, r6
     32c:	68a8      	ldr	r0, [r5, #8]
     32e:	f000 ffa3 	bl	1278 <TEE_MemMove>
/workspace/benchmark/optee-fiovb/ta/entry.c:329
     332:	9b08      	ldr	r3, [sp, #32]
     334:	60eb      	str	r3, [r5, #12]
write_persist_value():
/workspace/benchmark/optee-fiovb/ta/entry.c:289
     336:	4630      	mov	r0, r6
     338:	f001 f822 	bl	1380 <TEE_Free>
TA_InvokeCommandEntryPoint():
/workspace/benchmark/optee-fiovb/ta/entry.c:387
     33c:	4a91      	ldr	r2, [pc, #580]	; (584 <TA_InvokeCommandEntryPoint+0x2dc>)
/workspace/benchmark/optee-fiovb/ta/entry.c:399
     33e:	4b8e      	ldr	r3, [pc, #568]	; (578 <TA_InvokeCommandEntryPoint+0x2d0>)
/workspace/benchmark/optee-fiovb/ta/entry.c:387
     340:	447a      	add	r2, pc
/workspace/benchmark/optee-fiovb/ta/entry.c:399
     342:	58d3      	ldr	r3, [r2, r3]
     344:	681a      	ldr	r2, [r3, #0]
     346:	9b19      	ldr	r3, [sp, #100]	; 0x64
     348:	405a      	eors	r2, r3
     34a:	f04f 0300 	mov.w	r3, #0
     34e:	f000 8101 	beq.w	554 <TA_InvokeCommandEntryPoint+0x2ac>
     352:	f006 f9f7 	bl	6744 <__stack_chk_fail>
write_persist_value():
/workspace/benchmark/optee-fiovb/ta/entry.c:240
     356:	2e55      	cmp	r6, #85	; 0x55
     358:	d1d3      	bne.n	302 <TA_InvokeCommandEntryPoint+0x5a>
/workspace/benchmark/optee-fiovb/ta/entry.c:244
     35a:	e9d5 7b00 	ldrd	r7, fp, [r5]
/workspace/benchmark/optee-fiovb/ta/entry.c:246
     35e:	4638      	mov	r0, r7
     360:	f7ff fe5e 	bl	20 <check_valid_value>
     364:	4606      	mov	r6, r0
     366:	b150      	cbz	r0, 37e <TA_InvokeCommandEntryPoint+0xd6>
/workspace/benchmark/optee-fiovb/ta/entry.c:247
     368:	4887      	ldr	r0, [pc, #540]	; (588 <TA_InvokeCommandEntryPoint+0x2e0>)
     36a:	4622      	mov	r2, r4
     36c:	4b87      	ldr	r3, [pc, #540]	; (58c <TA_InvokeCommandEntryPoint+0x2e4>)
     36e:	21f7      	movs	r1, #247	; 0xf7
     370:	4478      	add	r0, pc
     372:	9701      	str	r7, [sp, #4]
     374:	447b      	add	r3, pc
     376:	302a      	adds	r0, #42	; 0x2a
     378:	9300      	str	r3, [sp, #0]
     37a:	4623      	mov	r3, r4
     37c:	e7bf      	b.n	2fe <TA_InvokeCommandEntryPoint+0x56>
/workspace/benchmark/optee-fiovb/ta/entry.c:260
     37e:	f8df a210 	ldr.w	sl, [pc, #528]	; 590 <TA_InvokeCommandEntryPoint+0x2e8>
     382:	2213      	movs	r2, #19
     384:	4638      	mov	r0, r7
     386:	44fa      	add	sl, pc
     388:	4651      	mov	r1, sl
     38a:	f006 f9f1 	bl	6770 <strncmp>
/workspace/benchmark/optee-fiovb/ta/entry.c:263
     38e:	f8d5 900c 	ldr.w	r9, [r5, #12]
/workspace/benchmark/optee-fiovb/ta/entry.c:264
     392:	4631      	mov	r1, r6
/workspace/benchmark/optee-fiovb/ta/entry.c:260
     394:	4680      	mov	r8, r0
/workspace/benchmark/optee-fiovb/ta/entry.c:264
     396:	4648      	mov	r0, r9
     398:	f000 ffcb 	bl	1332 <TEE_Malloc>
/workspace/benchmark/optee-fiovb/ta/entry.c:265
     39c:	4606      	mov	r6, r0
     39e:	2800      	cmp	r0, #0
     3a0:	f000 80d4 	beq.w	54c <TA_InvokeCommandEntryPoint+0x2a4>
/workspace/benchmark/optee-fiovb/ta/entry.c:268
     3a4:	68a9      	ldr	r1, [r5, #8]
     3a6:	464a      	mov	r2, r9
/workspace/benchmark/optee-fiovb/ta/entry.c:281
     3a8:	4d7a      	ldr	r5, [pc, #488]	; (594 <TA_InvokeCommandEntryPoint+0x2ec>)
/workspace/benchmark/optee-fiovb/ta/entry.c:268
     3aa:	f000 ff65 	bl	1278 <TEE_MemMove>
/workspace/benchmark/optee-fiovb/ta/entry.c:281
     3ae:	2214      	movs	r2, #20
     3b0:	4638      	mov	r0, r7
     3b2:	447d      	add	r5, pc
     3b4:	4629      	mov	r1, r5
     3b6:	f006 f9db 	bl	6770 <strncmp>
     3ba:	b160      	cbz	r0, 3d6 <TA_InvokeCommandEntryPoint+0x12e>
/workspace/benchmark/optee-fiovb/ta/entry.c:282
     3bc:	f1b8 0300 	subs.w	r3, r8, #0
     3c0:	4632      	mov	r2, r6
     3c2:	bf18      	it	ne
     3c4:	2301      	movne	r3, #1
     3c6:	4659      	mov	r1, fp
     3c8:	9300      	str	r3, [sp, #0]
     3ca:	4638      	mov	r0, r7
     3cc:	464b      	mov	r3, r9
increase_boot_firmware():
/workspace/benchmark/optee-fiovb/ta/entry.c:222
     3ce:	f7ff fe83 	bl	d8 <write_value>
     3d2:	4604      	mov	r4, r0
     3d4:	e7af      	b.n	336 <TA_InvokeCommandEntryPoint+0x8e>
is_rollback_protected():
/workspace/benchmark/optee-fiovb/ta/entry.c:173
     3d6:	f10d 0b24 	add.w	fp, sp, #36	; 0x24
     3da:	af08      	add	r7, sp, #32
     3dc:	2340      	movs	r3, #64	; 0x40
     3de:	465a      	mov	r2, fp
     3e0:	2114      	movs	r1, #20
     3e2:	4650      	mov	r0, sl
     3e4:	9700      	str	r7, [sp, #0]
     3e6:	f7ff feed 	bl	1c4 <read_value>
/workspace/benchmark/optee-fiovb/ta/entry.c:175
     3ea:	bb20      	cbnz	r0, 436 <TA_InvokeCommandEntryPoint+0x18e>
/workspace/benchmark/optee-fiovb/ta/entry.c:176
     3ec:	f8df 81a8 	ldr.w	r8, [pc, #424]	; 598 <TA_InvokeCommandEntryPoint+0x2f0>
     3f0:	2203      	movs	r2, #3
     3f2:	4b6a      	ldr	r3, [pc, #424]	; (59c <TA_InvokeCommandEntryPoint+0x2f4>)
     3f4:	21b0      	movs	r1, #176	; 0xb0
     3f6:	44f8      	add	r8, pc
     3f8:	f8cd a004 	str.w	sl, [sp, #4]
     3fc:	447b      	add	r3, pc
     3fe:	f108 003e 	add.w	r0, r8, #62	; 0x3e
     402:	9300      	str	r3, [sp, #0]
     404:	4623      	mov	r3, r4
     406:	f000 f923 	bl	650 <trace_printf>
is_version_incremental():
/workspace/benchmark/optee-fiovb/ta/entry.c:192
     40a:	2340      	movs	r3, #64	; 0x40
     40c:	9700      	str	r7, [sp, #0]
     40e:	465a      	mov	r2, fp
     410:	2115      	movs	r1, #21
     412:	4628      	mov	r0, r5
     414:	f7ff fed6 	bl	1c4 <read_value>
/workspace/benchmark/optee-fiovb/ta/entry.c:194
     418:	4b51      	ldr	r3, [pc, #324]	; (560 <TA_InvokeCommandEntryPoint+0x2b8>)
/workspace/benchmark/optee-fiovb/ta/entry.c:192
     41a:	4607      	mov	r7, r0
/workspace/benchmark/optee-fiovb/ta/entry.c:194
     41c:	4298      	cmp	r0, r3
     41e:	d112      	bne.n	446 <TA_InvokeCommandEntryPoint+0x19e>
/workspace/benchmark/optee-fiovb/ta/entry.c:195
     420:	4b5f      	ldr	r3, [pc, #380]	; (5a0 <TA_InvokeCommandEntryPoint+0x2f8>)
     422:	2203      	movs	r2, #3
     424:	21c3      	movs	r1, #195	; 0xc3
     426:	f108 0054 	add.w	r0, r8, #84	; 0x54
     42a:	447b      	add	r3, pc
     42c:	9501      	str	r5, [sp, #4]
     42e:	9300      	str	r3, [sp, #0]
     430:	4623      	mov	r3, r4
     432:	f000 f90d 	bl	650 <trace_printf>
increase_boot_firmware():
/workspace/benchmark/optee-fiovb/ta/entry.c:222
     436:	485b      	ldr	r0, [pc, #364]	; (5a4 <TA_InvokeCommandEntryPoint+0x2fc>)
     438:	2301      	movs	r3, #1
     43a:	4632      	mov	r2, r6
     43c:	9300      	str	r3, [sp, #0]
     43e:	2115      	movs	r1, #21
     440:	464b      	mov	r3, r9
     442:	4478      	add	r0, pc
     444:	e7c3      	b.n	3ce <TA_InvokeCommandEntryPoint+0x126>
is_version_incremental():
/workspace/benchmark/optee-fiovb/ta/entry.c:200
     446:	b9d8      	cbnz	r0, 480 <TA_InvokeCommandEntryPoint+0x1d8>
/workspace/benchmark/optee-fiovb/ta/entry.c:201
     448:	4601      	mov	r1, r0
     44a:	220a      	movs	r2, #10
     44c:	4658      	mov	r0, fp
     44e:	f006 fa23 	bl	6898 <strtoul>
/workspace/benchmark/optee-fiovb/ta/entry.c:202
     452:	220a      	movs	r2, #10
/workspace/benchmark/optee-fiovb/ta/entry.c:201
     454:	4605      	mov	r5, r0
/workspace/benchmark/optee-fiovb/ta/entry.c:202
     456:	4639      	mov	r1, r7
     458:	4630      	mov	r0, r6
     45a:	f006 fa1d 	bl	6898 <strtoul>
/workspace/benchmark/optee-fiovb/ta/entry.c:204
     45e:	4b52      	ldr	r3, [pc, #328]	; (5a8 <TA_InvokeCommandEntryPoint+0x300>)
/workspace/benchmark/optee-fiovb/ta/entry.c:202
     460:	4682      	mov	sl, r0
/workspace/benchmark/optee-fiovb/ta/entry.c:204
     462:	e9cd 0704 	strd	r0, r7, [sp, #16]
     466:	447b      	add	r3, pc
     468:	2203      	movs	r2, #3
     46a:	9300      	str	r3, [sp, #0]
     46c:	21cc      	movs	r1, #204	; 0xcc
     46e:	4623      	mov	r3, r4
     470:	f108 0054 	add.w	r0, r8, #84	; 0x54
     474:	e9cd 5702 	strd	r5, r7, [sp, #8]
     478:	f000 f8ea 	bl	650 <trace_printf>
/workspace/benchmark/optee-fiovb/ta/entry.c:206
     47c:	45aa      	cmp	sl, r5
     47e:	d2da      	bcs.n	436 <TA_InvokeCommandEntryPoint+0x18e>
increase_boot_firmware():
/workspace/benchmark/optee-fiovb/ta/entry.c:218
     480:	4b4a      	ldr	r3, [pc, #296]	; (5ac <TA_InvokeCommandEntryPoint+0x304>)
     482:	21da      	movs	r1, #218	; 0xda
     484:	484a      	ldr	r0, [pc, #296]	; (5b0 <TA_InvokeCommandEntryPoint+0x308>)
     486:	447b      	add	r3, pc
     488:	9300      	str	r3, [sp, #0]
     48a:	4478      	add	r0, pc
     48c:	2301      	movs	r3, #1
     48e:	461a      	mov	r2, r3
     490:	306b      	adds	r0, #107	; 0x6b
/workspace/benchmark/optee-fiovb/ta/entry.c:219
     492:	4c34      	ldr	r4, [pc, #208]	; (564 <TA_InvokeCommandEntryPoint+0x2bc>)
/workspace/benchmark/optee-fiovb/ta/entry.c:218
     494:	f000 f8dc 	bl	650 <trace_printf>
/workspace/benchmark/optee-fiovb/ta/entry.c:219
     498:	e74d      	b.n	336 <TA_InvokeCommandEntryPoint+0x8e>
delete_persist_value():
/workspace/benchmark/optee-fiovb/ta/entry.c:347
     49a:	2e05      	cmp	r6, #5
     49c:	f47f af31 	bne.w	302 <TA_InvokeCommandEntryPoint+0x5a>
/workspace/benchmark/optee-fiovb/ta/entry.c:350
     4a0:	682f      	ldr	r7, [r5, #0]
/workspace/benchmark/optee-fiovb/ta/entry.c:356
     4a2:	2213      	movs	r2, #19
     4a4:	4943      	ldr	r1, [pc, #268]	; (5b4 <TA_InvokeCommandEntryPoint+0x30c>)
     4a6:	4638      	mov	r0, r7
     4a8:	4479      	add	r1, pc
     4aa:	f006 f961 	bl	6770 <strncmp>
     4ae:	2800      	cmp	r0, #0
     4b0:	d04e      	beq.n	550 <TA_InvokeCommandEntryPoint+0x2a8>
delete_value():
/workspace/benchmark/optee-fiovb/ta/entry.c:140
     4b2:	2400      	movs	r4, #0
delete_persist_value():
/workspace/benchmark/optee-fiovb/ta/entry.c:351
     4b4:	f8d5 8004 	ldr.w	r8, [r5, #4]
delete_value():
/workspace/benchmark/optee-fiovb/ta/entry.c:144
     4b8:	4621      	mov	r1, r4
     4ba:	223c      	movs	r2, #60	; 0x3c
     4bc:	a80a      	add	r0, sp, #40	; 0x28
/workspace/benchmark/optee-fiovb/ta/entry.c:147
     4be:	ad09      	add	r5, sp, #36	; 0x24
/workspace/benchmark/optee-fiovb/ta/entry.c:140
     4c0:	9407      	str	r4, [sp, #28]
/workspace/benchmark/optee-fiovb/ta/entry.c:144
     4c2:	9409      	str	r4, [sp, #36]	; 0x24
     4c4:	f006 f93f 	bl	6746 <memset>
/workspace/benchmark/optee-fiovb/ta/entry.c:147
     4c8:	ab08      	add	r3, sp, #32
     4ca:	462a      	mov	r2, r5
     4cc:	4641      	mov	r1, r8
     4ce:	4638      	mov	r0, r7
/workspace/benchmark/optee-fiovb/ta/entry.c:145
     4d0:	9408      	str	r4, [sp, #32]
/workspace/benchmark/optee-fiovb/ta/entry.c:147
     4d2:	f7ff fddf 	bl	94 <get_named_object_name.constprop.0>
/workspace/benchmark/optee-fiovb/ta/entry.c:149
     4d6:	4604      	mov	r4, r0
     4d8:	2800      	cmp	r0, #0
     4da:	f47f af2f 	bne.w	33c <TA_InvokeCommandEntryPoint+0x94>
/workspace/benchmark/optee-fiovb/ta/entry.c:152
     4de:	ab07      	add	r3, sp, #28
     4e0:	9a08      	ldr	r2, [sp, #32]
     4e2:	9300      	str	r3, [sp, #0]
     4e4:	4629      	mov	r1, r5
     4e6:	4820      	ldr	r0, [pc, #128]	; (568 <TA_InvokeCommandEntryPoint+0x2c0>)
     4e8:	4633      	mov	r3, r6
     4ea:	f001 f953 	bl	1794 <TEE_OpenPersistentObject>
/workspace/benchmark/optee-fiovb/ta/entry.c:154
     4ee:	4604      	mov	r4, r0
     4f0:	b160      	cbz	r0, 50c <TA_InvokeCommandEntryPoint+0x264>
/workspace/benchmark/optee-fiovb/ta/entry.c:155
     4f2:	4b31      	ldr	r3, [pc, #196]	; (5b8 <TA_InvokeCommandEntryPoint+0x310>)
     4f4:	219b      	movs	r1, #155	; 0x9b
     4f6:	9001      	str	r0, [sp, #4]
     4f8:	4830      	ldr	r0, [pc, #192]	; (5bc <TA_InvokeCommandEntryPoint+0x314>)
     4fa:	447b      	add	r3, pc
     4fc:	9300      	str	r3, [sp, #0]
     4fe:	2301      	movs	r3, #1
     500:	461a      	mov	r2, r3
     502:	4478      	add	r0, pc
/workspace/benchmark/optee-fiovb/ta/entry.c:161
     504:	3082      	adds	r0, #130	; 0x82
     506:	f000 f8a3 	bl	650 <trace_printf>
delete_persist_value():
/workspace/benchmark/optee-fiovb/ta/entry.c:361
     50a:	e717      	b.n	33c <TA_InvokeCommandEntryPoint+0x94>
delete_value():
/workspace/benchmark/optee-fiovb/ta/entry.c:159
     50c:	9807      	ldr	r0, [sp, #28]
     50e:	f001 f9bf 	bl	1890 <TEE_CloseAndDeletePersistentObject1>
/workspace/benchmark/optee-fiovb/ta/entry.c:160
     512:	4604      	mov	r4, r0
     514:	2800      	cmp	r0, #0
     516:	f43f af11 	beq.w	33c <TA_InvokeCommandEntryPoint+0x94>
/workspace/benchmark/optee-fiovb/ta/entry.c:161
     51a:	4b29      	ldr	r3, [pc, #164]	; (5c0 <TA_InvokeCommandEntryPoint+0x318>)
     51c:	21a1      	movs	r1, #161	; 0xa1
     51e:	9001      	str	r0, [sp, #4]
     520:	4828      	ldr	r0, [pc, #160]	; (5c4 <TA_InvokeCommandEntryPoint+0x31c>)
     522:	447b      	add	r3, pc
     524:	9300      	str	r3, [sp, #0]
     526:	2301      	movs	r3, #1
     528:	461a      	mov	r2, r3
     52a:	4478      	add	r0, pc
     52c:	e7ea      	b.n	504 <TA_InvokeCommandEntryPoint+0x25c>
TA_InvokeCommandEntryPoint():
/workspace/benchmark/optee-fiovb/ta/entry.c:396
     52e:	4b26      	ldr	r3, [pc, #152]	; (5c8 <TA_InvokeCommandEntryPoint+0x320>)
     530:	4826      	ldr	r0, [pc, #152]	; (5cc <TA_InvokeCommandEntryPoint+0x324>)
     532:	447b      	add	r3, pc
     534:	9300      	str	r3, [sp, #0]
     536:	4478      	add	r0, pc
     538:	2301      	movs	r3, #1
     53a:	9101      	str	r1, [sp, #4]
     53c:	461a      	mov	r2, r3
     53e:	f44f 71c6 	mov.w	r1, #396	; 0x18c
     542:	308f      	adds	r0, #143	; 0x8f
/workspace/benchmark/optee-fiovb/ta/entry.c:397
     544:	4c09      	ldr	r4, [pc, #36]	; (56c <TA_InvokeCommandEntryPoint+0x2c4>)
/workspace/benchmark/optee-fiovb/ta/entry.c:396
     546:	f000 f883 	bl	650 <trace_printf>
/workspace/benchmark/optee-fiovb/ta/entry.c:397
     54a:	e6f7      	b.n	33c <TA_InvokeCommandEntryPoint+0x94>
write_persist_value():
/workspace/benchmark/optee-fiovb/ta/entry.c:266
     54c:	4c08      	ldr	r4, [pc, #32]	; (570 <TA_InvokeCommandEntryPoint+0x2c8>)
     54e:	e6f5      	b.n	33c <TA_InvokeCommandEntryPoint+0x94>
delete_persist_value():
/workspace/benchmark/optee-fiovb/ta/entry.c:357
     550:	4c04      	ldr	r4, [pc, #16]	; (564 <TA_InvokeCommandEntryPoint+0x2bc>)
     552:	e6f3      	b.n	33c <TA_InvokeCommandEntryPoint+0x94>
TA_InvokeCommandEntryPoint():
/workspace/benchmark/optee-fiovb/ta/entry.c:399
     554:	4620      	mov	r0, r4
     556:	b01b      	add	sp, #108	; 0x6c
     558:	e8bd 8ff0 	ldmia.w	sp!, {r4, r5, r6, r7, r8, r9, sl, fp, pc}
     55c:	ffff0006 	.word	0xffff0006
     560:	ffff0008 	.word	0xffff0008
     564:	ffff0001 	.word	0xffff0001
     568:	80000100 	.word	0x80000100
     56c:	ffff000a 	.word	0xffff000a
     570:	ffff000c 	.word	0xffff000c
     574:	00008294 	.word	0x00008294
     578:	0000000c 	.word	0x0000000c
     57c:	00006bed 	.word	0x00006bed
     580:	00006dd8 	.word	0x00006dd8
     584:	00008208 	.word	0x00008208
     588:	00006d5c 	.word	0x00006d5c
     58c:	00006b69 	.word	0x00006b69
     590:	00006b64 	.word	0x00006b64
     594:	00006b4c 	.word	0x00006b4c
     598:	00006cd6 	.word	0x00006cd6
     59c:	00006b17 	.word	0x00006b17
     5a0:	00006b12 	.word	0x00006b12
     5a4:	00006abc 	.word	0x00006abc
     5a8:	00006b08 	.word	0x00006b08
     5ac:	00006b26 	.word	0x00006b26
     5b0:	00006c42 	.word	0x00006c42
     5b4:	00006a42 	.word	0x00006a42
     5b8:	00006ae0 	.word	0x00006ae0
     5bc:	00006bca 	.word	0x00006bca
     5c0:	00006ae5 	.word	0x00006ae5
     5c4:	00006ba2 	.word	0x00006ba2
     5c8:	00006b04 	.word	0x00006b04
     5cc:	00006b96 	.word	0x00006b96

000005d0 <append>:
append():
/mnt/disk/raspbian-tee/optee_os/lib/libutils/ext/trace.c:198
     5d0:	b40e      	push	{r1, r2, r3}
/mnt/disk/raspbian-tee/optee_os/lib/libutils/ext/trace.c:203
     5d2:	f8d0 3100 	ldr.w	r3, [r0, #256]	; 0x100
/mnt/disk/raspbian-tee/optee_os/lib/libutils/ext/trace.c:198
     5d6:	b533      	push	{r0, r1, r4, r5, lr}
     5d8:	4604      	mov	r4, r0
/mnt/disk/raspbian-tee/optee_os/lib/libutils/ext/trace.c:203
     5da:	b90b      	cbnz	r3, 5e0 <append+0x10>
/mnt/disk/raspbian-tee/optee_os/lib/libutils/ext/trace.c:204
     5dc:	f8c4 0100 	str.w	r0, [r4, #256]	; 0x100
/mnt/disk/raspbian-tee/optee_os/lib/libutils/ext/trace.c:205
     5e0:	f8d4 0100 	ldr.w	r0, [r4, #256]	; 0x100
/mnt/disk/raspbian-tee/optee_os/lib/libutils/ext/trace.c:206
     5e4:	ab06      	add	r3, sp, #24
/mnt/disk/raspbian-tee/optee_os/lib/libutils/ext/trace.c:207
     5e6:	9a05      	ldr	r2, [sp, #20]
/mnt/disk/raspbian-tee/optee_os/lib/libutils/ext/trace.c:205
     5e8:	1b05      	subs	r5, r0, r4
/mnt/disk/raspbian-tee/optee_os/lib/libutils/ext/trace.c:206
     5ea:	9301      	str	r3, [sp, #4]
/mnt/disk/raspbian-tee/optee_os/lib/libutils/ext/trace.c:205
     5ec:	f5c5 7580 	rsb	r5, r5, #256	; 0x100
/mnt/disk/raspbian-tee/optee_os/lib/libutils/ext/trace.c:207
     5f0:	4629      	mov	r1, r5
     5f2:	f000 fce5 	bl	fc0 <vsnprintk>
/mnt/disk/raspbian-tee/optee_os/lib/libutils/ext/trace.c:209
     5f6:	2800      	cmp	r0, #0
     5f8:	db0f      	blt.n	61a <append+0x4a>
/mnt/disk/raspbian-tee/optee_os/lib/libutils/ext/trace.c:213
     5fa:	4285      	cmp	r5, r0
     5fc:	dd0d      	ble.n	61a <append+0x4a>
/mnt/disk/raspbian-tee/optee_os/lib/libutils/ext/trace.c:217
     5fe:	4285      	cmp	r5, r0
     600:	bfa8      	it	ge
     602:	4605      	movge	r5, r0
     604:	f8d4 0100 	ldr.w	r0, [r4, #256]	; 0x100
     608:	4405      	add	r5, r0
/mnt/disk/raspbian-tee/optee_os/lib/libutils/ext/trace.c:218
     60a:	2001      	movs	r0, #1
/mnt/disk/raspbian-tee/optee_os/lib/libutils/ext/trace.c:217
     60c:	f8c4 5100 	str.w	r5, [r4, #256]	; 0x100
/mnt/disk/raspbian-tee/optee_os/lib/libutils/ext/trace.c:219
     610:	b002      	add	sp, #8
     612:	e8bd 4030 	ldmia.w	sp!, {r4, r5, lr}
     616:	b003      	add	sp, #12
     618:	4770      	bx	lr
/mnt/disk/raspbian-tee/optee_os/lib/libutils/ext/trace.c:211
     61a:	2000      	movs	r0, #0
     61c:	e7f8      	b.n	610 <append+0x40>

0000061e <trace_set_level>:
trace_set_level():
/mnt/disk/raspbian-tee/optee_os/lib/libutils/ext/trace.c:25
     61e:	4b05      	ldr	r3, [pc, #20]	; (634 <trace_set_level+0x16>)
/mnt/disk/raspbian-tee/optee_os/lib/libutils/ext/trace.c:26
     620:	2804      	cmp	r0, #4
     622:	4a05      	ldr	r2, [pc, #20]	; (638 <trace_set_level+0x1a>)
/mnt/disk/raspbian-tee/optee_os/lib/libutils/ext/trace.c:25
     624:	447b      	add	r3, pc
     626:	589b      	ldr	r3, [r3, r2]
/mnt/disk/raspbian-tee/optee_os/lib/libutils/ext/trace.c:26
     628:	d801      	bhi.n	62e <trace_set_level+0x10>
/mnt/disk/raspbian-tee/optee_os/lib/libutils/ext/trace.c:27
     62a:	6018      	str	r0, [r3, #0]
     62c:	4770      	bx	lr
/mnt/disk/raspbian-tee/optee_os/lib/libutils/ext/trace.c:29
     62e:	2204      	movs	r2, #4
     630:	601a      	str	r2, [r3, #0]
     632:	4770      	bx	lr
     634:	00007f24 	.word	0x00007f24
     638:	00000014 	.word	0x00000014

0000063c <trace_get_level>:
trace_get_level():
/mnt/disk/raspbian-tee/optee_os/lib/libutils/ext/trace.c:33
     63c:	4b02      	ldr	r3, [pc, #8]	; (648 <trace_get_level+0xc>)
/mnt/disk/raspbian-tee/optee_os/lib/libutils/ext/trace.c:34
     63e:	4a03      	ldr	r2, [pc, #12]	; (64c <trace_get_level+0x10>)
/mnt/disk/raspbian-tee/optee_os/lib/libutils/ext/trace.c:33
     640:	447b      	add	r3, pc
/mnt/disk/raspbian-tee/optee_os/lib/libutils/ext/trace.c:34
     642:	589b      	ldr	r3, [r3, r2]
/mnt/disk/raspbian-tee/optee_os/lib/libutils/ext/trace.c:35
     644:	6818      	ldr	r0, [r3, #0]
     646:	4770      	bx	lr
     648:	00007f08 	.word	0x00007f08
     64c:	00000014 	.word	0x00000014

00000650 <trace_printf>:
trace_printf():
/mnt/disk/raspbian-tee/optee_os/lib/libutils/ext/trace.c:97
     650:	e92d 47f0 	stmdb	sp!, {r4, r5, r6, r7, r8, r9, sl, lr}
     654:	4607      	mov	r7, r0
     656:	f8df 910c 	ldr.w	r9, [pc, #268]	; 764 <trace_printf+0x114>
     65a:	b0c6      	sub	sp, #280	; 0x118
     65c:	4688      	mov	r8, r1
     65e:	44f9      	add	r9, pc
     660:	4614      	mov	r4, r2
/mnt/disk/raspbian-tee/optee_os/lib/libutils/ext/trace.c:103
     662:	469a      	mov	sl, r3
     664:	2b00      	cmp	r3, #0
     666:	d06a      	beq.n	73e <trace_printf+0xee>
/mnt/disk/raspbian-tee/optee_os/lib/libutils/ext/trace.c:103 (discriminator 1)
     668:	4b3f      	ldr	r3, [pc, #252]	; (768 <trace_printf+0x118>)
     66a:	f859 3003 	ldr.w	r3, [r9, r3]
     66e:	681b      	ldr	r3, [r3, #0]
     670:	4293      	cmp	r3, r2
     672:	db61      	blt.n	738 <trace_printf+0xe8>
trace_level_to_string():
/mnt/disk/raspbian-tee/optee_os/lib/libutils/ext/trace.c:52
     674:	4613      	mov	r3, r2
     676:	2a04      	cmp	r2, #4
/mnt/disk/raspbian-tee/optee_os/lib/libutils/ext/trace.c:55
     678:	4a3c      	ldr	r2, [pc, #240]	; (76c <trace_printf+0x11c>)
/mnt/disk/raspbian-tee/optee_os/lib/libutils/ext/trace.c:52
     67a:	bf88      	it	hi
     67c:	2300      	movhi	r3, #0
/mnt/disk/raspbian-tee/optee_os/lib/libutils/ext/trace.c:55
     67e:	447a      	add	r2, pc
     680:	5cd3      	ldrb	r3, [r2, r3]
trace_printf():
/mnt/disk/raspbian-tee/optee_os/lib/libutils/ext/trace.c:107
     682:	4a3b      	ldr	r2, [pc, #236]	; (770 <trace_printf+0x120>)
     684:	ad06      	add	r5, sp, #24
     686:	f44f 7180 	mov.w	r1, #256	; 0x100
     68a:	4628      	mov	r0, r5
     68c:	447a      	add	r2, pc
     68e:	f000 fc9e 	bl	fce <snprintk>
/mnt/disk/raspbian-tee/optee_os/lib/libutils/ext/trace.c:109
     692:	1e06      	subs	r6, r0, #0
     694:	db50      	blt.n	738 <trace_printf+0xe8>
/mnt/disk/raspbian-tee/optee_os/lib/libutils/ext/trace.c:114
     696:	4b37      	ldr	r3, [pc, #220]	; (774 <trace_printf+0x124>)
     698:	f5c6 7180 	rsb	r1, r6, #256	; 0x100
     69c:	4a36      	ldr	r2, [pc, #216]	; (778 <trace_printf+0x128>)
     69e:	19a8      	adds	r0, r5, r6
     6a0:	447a      	add	r2, pc
     6a2:	f859 3003 	ldr.w	r3, [r9, r3]
     6a6:	9303      	str	r3, [sp, #12]
     6a8:	f000 fc91 	bl	fce <snprintk>
/mnt/disk/raspbian-tee/optee_os/lib/libutils/ext/trace.c:116
     6ac:	2800      	cmp	r0, #0
     6ae:	db43      	blt.n	738 <trace_printf+0xe8>
/mnt/disk/raspbian-tee/optee_os/lib/libutils/ext/trace.c:118
     6b0:	4406      	add	r6, r0
/mnt/disk/raspbian-tee/optee_os/lib/libutils/ext/trace.c:120
     6b2:	f1ba 0f00 	cmp.w	sl, #0
     6b6:	d04b      	beq.n	750 <trace_printf+0x100>
/mnt/disk/raspbian-tee/optee_os/lib/libutils/ext/trace.c:120 (discriminator 1)
     6b8:	231a      	movs	r3, #26
     6ba:	fa23 f404 	lsr.w	r4, r3, r4
     6be:	07e3      	lsls	r3, r4, #31
     6c0:	d546      	bpl.n	750 <trace_printf+0x100>
print_thread_id():
/mnt/disk/raspbian-tee/optee_os/lib/libutils/ext/trace.c:65
     6c2:	f000 fcb3 	bl	102c <trace_ext_get_thread_id>
trace_printf():
/mnt/disk/raspbian-tee/optee_os/lib/libutils/ext/trace.c:122
     6c6:	19ac      	adds	r4, r5, r6
     6c8:	f5c6 7980 	rsb	r9, r6, #256	; 0x100
print_thread_id():
/mnt/disk/raspbian-tee/optee_os/lib/libutils/ext/trace.c:67
     6cc:	2800      	cmp	r0, #0
     6ce:	db38      	blt.n	742 <trace_printf+0xf2>
/mnt/disk/raspbian-tee/optee_os/lib/libutils/ext/trace.c:68
     6d0:	4a2a      	ldr	r2, [pc, #168]	; (77c <trace_printf+0x12c>)
     6d2:	2301      	movs	r3, #1
     6d4:	9000      	str	r0, [sp, #0]
     6d6:	447a      	add	r2, pc
/mnt/disk/raspbian-tee/optee_os/lib/libutils/ext/trace.c:70
     6d8:	4649      	mov	r1, r9
     6da:	4620      	mov	r0, r4
     6dc:	f000 fc77 	bl	fce <snprintk>
trace_printf():
/mnt/disk/raspbian-tee/optee_os/lib/libutils/ext/trace.c:129
     6e0:	2800      	cmp	r0, #0
     6e2:	db29      	blt.n	738 <trace_printf+0xe8>
/mnt/disk/raspbian-tee/optee_os/lib/libutils/ext/trace.c:131
     6e4:	1984      	adds	r4, r0, r6
/mnt/disk/raspbian-tee/optee_os/lib/libutils/ext/trace.c:133
     6e6:	b167      	cbz	r7, 702 <trace_printf+0xb2>
/mnt/disk/raspbian-tee/optee_os/lib/libutils/ext/trace.c:134
     6e8:	4a25      	ldr	r2, [pc, #148]	; (780 <trace_printf+0x130>)
     6ea:	463b      	mov	r3, r7
     6ec:	f8cd 8000 	str.w	r8, [sp]
     6f0:	f5c4 7180 	rsb	r1, r4, #256	; 0x100
     6f4:	447a      	add	r2, pc
     6f6:	1928      	adds	r0, r5, r4
     6f8:	f000 fc69 	bl	fce <snprintk>
/mnt/disk/raspbian-tee/optee_os/lib/libutils/ext/trace.c:136
     6fc:	2800      	cmp	r0, #0
     6fe:	db1b      	blt.n	738 <trace_printf+0xe8>
/mnt/disk/raspbian-tee/optee_os/lib/libutils/ext/trace.c:138
     700:	4404      	add	r4, r0
/mnt/disk/raspbian-tee/optee_os/lib/libutils/ext/trace.c:148
     702:	ab4f      	add	r3, sp, #316	; 0x13c
/mnt/disk/raspbian-tee/optee_os/lib/libutils/ext/trace.c:149
     704:	f5c4 7180 	rsb	r1, r4, #256	; 0x100
     708:	1928      	adds	r0, r5, r4
     70a:	9a4e      	ldr	r2, [sp, #312]	; 0x138
/mnt/disk/raspbian-tee/optee_os/lib/libutils/ext/trace.c:148
     70c:	9305      	str	r3, [sp, #20]
/mnt/disk/raspbian-tee/optee_os/lib/libutils/ext/trace.c:149
     70e:	f000 fc57 	bl	fc0 <vsnprintk>
/mnt/disk/raspbian-tee/optee_os/lib/libutils/ext/trace.c:151
     712:	2800      	cmp	r0, #0
/mnt/disk/raspbian-tee/optee_os/lib/libutils/ext/trace.c:157
     714:	f04f 030a 	mov.w	r3, #10
/mnt/disk/raspbian-tee/optee_os/lib/libutils/ext/trace.c:152
     718:	bfc8      	it	gt
     71a:	1824      	addgt	r4, r4, r0
     71c:	2cfe      	cmp	r4, #254	; 0xfe
     71e:	bf28      	it	cs
     720:	24fe      	movcs	r4, #254	; 0xfe
/mnt/disk/raspbian-tee/optee_os/lib/libutils/ext/trace.c:157
     722:	552b      	strb	r3, [r5, r4]
/mnt/disk/raspbian-tee/optee_os/lib/libutils/ext/trace.c:158
     724:	b114      	cbz	r4, 72c <trace_printf+0xdc>
/mnt/disk/raspbian-tee/optee_os/lib/libutils/ext/trace.c:158 (discriminator 1)
     726:	5d2b      	ldrb	r3, [r5, r4]
     728:	2b0a      	cmp	r3, #10
     72a:	d019      	beq.n	760 <trace_printf+0x110>
/mnt/disk/raspbian-tee/optee_os/lib/libutils/ext/trace.c:161
     72c:	442c      	add	r4, r5
/mnt/disk/raspbian-tee/optee_os/lib/libutils/ext/trace.c:163
     72e:	4628      	mov	r0, r5
/mnt/disk/raspbian-tee/optee_os/lib/libutils/ext/trace.c:161
     730:	2300      	movs	r3, #0
     732:	70a3      	strb	r3, [r4, #2]
/mnt/disk/raspbian-tee/optee_os/lib/libutils/ext/trace.c:163
     734:	f000 fc70 	bl	1018 <trace_ext_puts>
/mnt/disk/raspbian-tee/optee_os/lib/libutils/ext/trace.c:164
     738:	b046      	add	sp, #280	; 0x118
     73a:	e8bd 87f0 	ldmia.w	sp!, {r4, r5, r6, r7, r8, r9, sl, pc}
trace_level_to_string():
/mnt/disk/raspbian-tee/optee_os/lib/libutils/ext/trace.c:50
     73e:	234d      	movs	r3, #77	; 0x4d
     740:	e79f      	b.n	682 <trace_printf+0x32>
print_thread_id():
/mnt/disk/raspbian-tee/optee_os/lib/libutils/ext/trace.c:70
     742:	4b10      	ldr	r3, [pc, #64]	; (784 <trace_printf+0x134>)
     744:	4a10      	ldr	r2, [pc, #64]	; (788 <trace_printf+0x138>)
     746:	447b      	add	r3, pc
     748:	9300      	str	r3, [sp, #0]
     74a:	447a      	add	r2, pc
     74c:	2301      	movs	r3, #1
     74e:	e7c3      	b.n	6d8 <trace_printf+0x88>
trace_printf():
/mnt/disk/raspbian-tee/optee_os/lib/libutils/ext/trace.c:142
     750:	2efe      	cmp	r6, #254	; 0xfe
     752:	d8f1      	bhi.n	738 <trace_printf+0xe8>
/mnt/disk/raspbian-tee/optee_os/lib/libutils/ext/trace.c:144
     754:	1c74      	adds	r4, r6, #1
     756:	2320      	movs	r3, #32
     758:	55ab      	strb	r3, [r5, r6]
/mnt/disk/raspbian-tee/optee_os/lib/libutils/ext/trace.c:145
     75a:	2300      	movs	r3, #0
     75c:	552b      	strb	r3, [r5, r4]
     75e:	e7d0      	b.n	702 <trace_printf+0xb2>
/mnt/disk/raspbian-tee/optee_os/lib/libutils/ext/trace.c:159
     760:	3c01      	subs	r4, #1
     762:	e7df      	b.n	724 <trace_printf+0xd4>
     764:	00007eea 	.word	0x00007eea
     768:	00000014 	.word	0x00000014
     76c:	00006ba6 	.word	0x00006ba6
     770:	00006ba7 	.word	0x00006ba7
     774:	00000018 	.word	0x00000018
     778:	00006b97 	.word	0x00006b97
     77c:	00006b65 	.word	0x00006b65
     780:	00006b52 	.word	0x00006b52
     784:	000071f0 	.word	0x000071f0
     788:	00006af7 	.word	0x00006af7

0000078c <dhex_dump>:
dhex_dump():
/mnt/disk/raspbian-tee/optee_os/lib/libutils/ext/trace.c:225
     78c:	e92d 4ff0 	stmdb	sp!, {r4, r5, r6, r7, r8, r9, sl, fp, lr}
     790:	4690      	mov	r8, r2
     792:	4a35      	ldr	r2, [pc, #212]	; (868 <dhex_dump+0xdc>)
     794:	468a      	mov	sl, r1
/mnt/disk/raspbian-tee/optee_os/lib/libutils/ext/trace.c:231
     796:	4935      	ldr	r1, [pc, #212]	; (86c <dhex_dump+0xe0>)
/mnt/disk/raspbian-tee/optee_os/lib/libutils/ext/trace.c:225
     798:	447a      	add	r2, pc
     79a:	b0c7      	sub	sp, #284	; 0x11c
     79c:	4681      	mov	r9, r0
/mnt/disk/raspbian-tee/optee_os/lib/libutils/ext/trace.c:231
     79e:	5852      	ldr	r2, [r2, r1]
     7a0:	6812      	ldr	r2, [r2, #0]
     7a2:	4542      	cmp	r2, r8
     7a4:	db1d      	blt.n	7e2 <dhex_dump+0x56>
     7a6:	461e      	mov	r6, r3
/mnt/disk/raspbian-tee/optee_os/lib/libutils/ext/trace.c:240
     7a8:	4b31      	ldr	r3, [pc, #196]	; (870 <dhex_dump+0xe4>)
/mnt/disk/raspbian-tee/optee_os/lib/libutils/ext/trace.c:232
     7aa:	ad05      	add	r5, sp, #20
/mnt/disk/raspbian-tee/optee_os/lib/libutils/ext/trace.c:235
     7ac:	f8df b0c4 	ldr.w	fp, [pc, #196]	; 874 <dhex_dump+0xe8>
/mnt/disk/raspbian-tee/optee_os/lib/libutils/ext/trace.c:240
     7b0:	447b      	add	r3, pc
     7b2:	9302      	str	r3, [sp, #8]
/mnt/disk/raspbian-tee/optee_os/lib/libutils/ext/trace.c:248
     7b4:	4b30      	ldr	r3, [pc, #192]	; (878 <dhex_dump+0xec>)
/mnt/disk/raspbian-tee/optee_os/lib/libutils/ext/trace.c:235
     7b6:	44fb      	add	fp, pc
/mnt/disk/raspbian-tee/optee_os/lib/libutils/ext/trace.c:232
     7b8:	2400      	movs	r4, #0
     7ba:	f8c5 4100 	str.w	r4, [r5, #256]	; 0x100
/mnt/disk/raspbian-tee/optee_os/lib/libutils/ext/trace.c:248
     7be:	447b      	add	r3, pc
     7c0:	9303      	str	r3, [sp, #12]
/mnt/disk/raspbian-tee/optee_os/lib/libutils/ext/trace.c:233 (discriminator 1)
     7c2:	9b50      	ldr	r3, [sp, #320]	; 0x140
     7c4:	429c      	cmp	r4, r3
     7c6:	db0f      	blt.n	7e8 <dhex_dump+0x5c>
/mnt/disk/raspbian-tee/optee_os/lib/libutils/ext/trace.c:253
     7c8:	f8d5 3100 	ldr.w	r3, [r5, #256]	; 0x100
     7cc:	b14b      	cbz	r3, 7e2 <dhex_dump+0x56>
/mnt/disk/raspbian-tee/optee_os/lib/libutils/ext/trace.c:255
     7ce:	4b2b      	ldr	r3, [pc, #172]	; (87c <dhex_dump+0xf0>)
     7d0:	4642      	mov	r2, r8
     7d2:	9501      	str	r5, [sp, #4]
     7d4:	4651      	mov	r1, sl
     7d6:	447b      	add	r3, pc
     7d8:	4648      	mov	r0, r9
     7da:	9300      	str	r3, [sp, #0]
     7dc:	2301      	movs	r3, #1
     7de:	f7ff ff37 	bl	650 <trace_printf>
/mnt/disk/raspbian-tee/optee_os/lib/libutils/ext/trace.c:263
     7e2:	b047      	add	sp, #284	; 0x11c
     7e4:	e8bd 8ff0 	ldmia.w	sp!, {r4, r5, r6, r7, r8, r9, sl, fp, pc}
/mnt/disk/raspbian-tee/optee_os/lib/libutils/ext/trace.c:234
     7e8:	f014 070f 	ands.w	r7, r4, #15
     7ec:	d013      	beq.n	816 <dhex_dump+0x8a>
/mnt/disk/raspbian-tee/optee_os/lib/libutils/ext/trace.c:240
     7ee:	f816 2b01 	ldrb.w	r2, [r6], #1
     7f2:	4628      	mov	r0, r5
     7f4:	9902      	ldr	r1, [sp, #8]
     7f6:	f7ff feeb 	bl	5d0 <append>
/mnt/disk/raspbian-tee/optee_os/lib/libutils/ext/trace.c:241
     7fa:	b9a8      	cbnz	r0, 828 <dhex_dump+0x9c>
/mnt/disk/raspbian-tee/optee_os/lib/libutils/ext/trace.c:262
     7fc:	4820      	ldr	r0, [pc, #128]	; (880 <dhex_dump+0xf4>)
     7fe:	2203      	movs	r2, #3
     800:	4b20      	ldr	r3, [pc, #128]	; (884 <dhex_dump+0xf8>)
     802:	f44f 7183 	mov.w	r1, #262	; 0x106
     806:	4478      	add	r0, pc
     808:	447b      	add	r3, pc
     80a:	3005      	adds	r0, #5
     80c:	9300      	str	r3, [sp, #0]
     80e:	2301      	movs	r3, #1
     810:	f7ff ff1e 	bl	650 <trace_printf>
     814:	e7e5      	b.n	7e2 <dhex_dump+0x56>
/mnt/disk/raspbian-tee/optee_os/lib/libutils/ext/trace.c:235
     816:	4633      	mov	r3, r6
     818:	2208      	movs	r2, #8
     81a:	4659      	mov	r1, fp
     81c:	4628      	mov	r0, r5
     81e:	f7ff fed7 	bl	5d0 <append>
/mnt/disk/raspbian-tee/optee_os/lib/libutils/ext/trace.c:237
     822:	2800      	cmp	r0, #0
     824:	d1e3      	bne.n	7ee <dhex_dump+0x62>
     826:	e7e9      	b.n	7fc <dhex_dump+0x70>
/mnt/disk/raspbian-tee/optee_os/lib/libutils/ext/trace.c:243
     828:	4263      	negs	r3, r4
     82a:	f003 030f 	and.w	r3, r3, #15
     82e:	bf58      	it	pl
     830:	425f      	negpl	r7, r3
     832:	2f07      	cmp	r7, #7
     834:	d108      	bne.n	848 <dhex_dump+0xbc>
/mnt/disk/raspbian-tee/optee_os/lib/libutils/ext/trace.c:244
     836:	4914      	ldr	r1, [pc, #80]	; (888 <dhex_dump+0xfc>)
     838:	4628      	mov	r0, r5
     83a:	4479      	add	r1, pc
     83c:	f7ff fec8 	bl	5d0 <append>
/mnt/disk/raspbian-tee/optee_os/lib/libutils/ext/trace.c:245
     840:	2800      	cmp	r0, #0
     842:	d0db      	beq.n	7fc <dhex_dump+0x70>
/mnt/disk/raspbian-tee/optee_os/lib/libutils/ext/trace.c:233 (discriminator 2)
     844:	3401      	adds	r4, #1
     846:	e7bc      	b.n	7c2 <dhex_dump+0x36>
/mnt/disk/raspbian-tee/optee_os/lib/libutils/ext/trace.c:247
     848:	2f0f      	cmp	r7, #15
     84a:	d1fb      	bne.n	844 <dhex_dump+0xb8>
/mnt/disk/raspbian-tee/optee_os/lib/libutils/ext/trace.c:248
     84c:	9b03      	ldr	r3, [sp, #12]
     84e:	4642      	mov	r2, r8
     850:	9300      	str	r3, [sp, #0]
     852:	4651      	mov	r1, sl
     854:	2301      	movs	r3, #1
     856:	9501      	str	r5, [sp, #4]
     858:	4648      	mov	r0, r9
     85a:	f7ff fef9 	bl	650 <trace_printf>
/mnt/disk/raspbian-tee/optee_os/lib/libutils/ext/trace.c:250
     85e:	2300      	movs	r3, #0
     860:	f8c5 3100 	str.w	r3, [r5, #256]	; 0x100
     864:	e7ee      	b.n	844 <dhex_dump+0xb8>
     866:	bf00      	nop
     868:	00007db0 	.word	0x00007db0
     86c:	00000014 	.word	0x00000014
     870:	00006a9d 	.word	0x00006a9d
     874:	00006a9d 	.word	0x00006a9d
     878:	00006729 	.word	0x00006729
     87c:	00006711 	.word	0x00006711
     880:	00006a1e 	.word	0x00006a1e
     884:	00006a53 	.word	0x00006a53
     888:	00006a1f 	.word	0x00006a1f

0000088c <__vsnprintf>:
__vsnprintf():
/mnt/disk/raspbian-tee/optee_os/lib/libutils/ext/snprintk.c:137
     88c:	e92d 4ff0 	stmdb	sp!, {r4, r5, r6, r7, r8, r9, sl, fp, lr}
/mnt/disk/raspbian-tee/optee_os/lib/libutils/ext/snprintk.c:141
     890:	4680      	mov	r8, r0
     892:	461f      	mov	r7, r3
/mnt/disk/raspbian-tee/optee_os/lib/libutils/ext/snprintk.c:137
     894:	b09f      	sub	sp, #124	; 0x7c
kprintf():
/mnt/disk/raspbian-tee/optee_os/lib/libutils/ext/snprintk.c:269
     896:	2300      	movs	r3, #0
__vsnprintf():
/mnt/disk/raspbian-tee/optee_os/lib/libutils/ext/snprintk.c:137
     898:	920b      	str	r2, [sp, #44]	; 0x2c
     89a:	f89d 20a0 	ldrb.w	r2, [sp, #160]	; 0xa0
     89e:	9213      	str	r2, [sp, #76]	; 0x4c
/mnt/disk/raspbian-tee/optee_os/lib/libutils/ext/snprintk.c:141
     8a0:	4602      	mov	r2, r0
     8a2:	440a      	add	r2, r1
/mnt/disk/raspbian-tee/optee_os/lib/libutils/ext/snprintk.c:137
     8a4:	9010      	str	r0, [sp, #64]	; 0x40
     8a6:	9112      	str	r1, [sp, #72]	; 0x48
/mnt/disk/raspbian-tee/optee_os/lib/libutils/ext/snprintk.c:141
     8a8:	920e      	str	r2, [sp, #56]	; 0x38
kprintf():
/mnt/disk/raspbian-tee/optee_os/lib/libutils/ext/snprintk.c:269
     8aa:	930f      	str	r3, [sp, #60]	; 0x3c
/mnt/disk/raspbian-tee/optee_os/lib/libutils/ext/snprintk.c:267
     8ac:	930c      	str	r3, [sp, #48]	; 0x30
/mnt/disk/raspbian-tee/optee_os/lib/libutils/ext/snprintk.c:275
     8ae:	9b0b      	ldr	r3, [sp, #44]	; 0x2c
     8b0:	781b      	ldrb	r3, [r3, #0]
     8b2:	2b25      	cmp	r3, #37	; 0x25
     8b4:	d024      	beq.n	900 <__vsnprintf+0x74>
     8b6:	b993      	cbnz	r3, 8de <__vsnprintf+0x52>
__vsnprintf():
/mnt/disk/raspbian-tee/optee_os/lib/libutils/ext/snprintk.c:143
     8b8:	9b10      	ldr	r3, [sp, #64]	; 0x40
     8ba:	b163      	cbz	r3, 8d6 <__vsnprintf+0x4a>
/mnt/disk/raspbian-tee/optee_os/lib/libutils/ext/snprintk.c:143 (discriminator 1)
     8bc:	9b12      	ldr	r3, [sp, #72]	; 0x48
     8be:	b153      	cbz	r3, 8d6 <__vsnprintf+0x4a>
/mnt/disk/raspbian-tee/optee_os/lib/libutils/ext/snprintk.c:145
     8c0:	9a0c      	ldr	r2, [sp, #48]	; 0x30
     8c2:	4293      	cmp	r3, r2
     8c4:	f04f 0300 	mov.w	r3, #0
/mnt/disk/raspbian-tee/optee_os/lib/libutils/ext/snprintk.c:146
     8c8:	9a10      	ldr	r2, [sp, #64]	; 0x40
/mnt/disk/raspbian-tee/optee_os/lib/libutils/ext/snprintk.c:145
     8ca:	f200 835f 	bhi.w	f8c <__vsnprintf+0x700>
/mnt/disk/raspbian-tee/optee_os/lib/libutils/ext/snprintk.c:146
     8ce:	9912      	ldr	r1, [sp, #72]	; 0x48
     8d0:	440a      	add	r2, r1
     8d2:	f802 3c01 	strb.w	r3, [r2, #-1]
/mnt/disk/raspbian-tee/optee_os/lib/libutils/ext/snprintk.c:151
     8d6:	980c      	ldr	r0, [sp, #48]	; 0x30
     8d8:	b01f      	add	sp, #124	; 0x7c
     8da:	e8bd 8ff0 	ldmia.w	sp!, {r4, r5, r6, r7, r8, r9, sl, fp, pc}
kprintf():
/mnt/disk/raspbian-tee/optee_os/lib/libutils/ext/snprintk.c:276
     8de:	9a0c      	ldr	r2, [sp, #48]	; 0x30
     8e0:	3201      	adds	r2, #1
     8e2:	920c      	str	r2, [sp, #48]	; 0x30
/mnt/disk/raspbian-tee/optee_os/lib/libutils/ext/snprintk.c:277
     8e4:	f1b8 0f00 	cmp.w	r8, #0
     8e8:	d006      	beq.n	8f8 <__vsnprintf+0x6c>
     8ea:	9a0e      	ldr	r2, [sp, #56]	; 0x38
     8ec:	4542      	cmp	r2, r8
     8ee:	d903      	bls.n	8f8 <__vsnprintf+0x6c>
     8f0:	f888 3000 	strb.w	r3, [r8]
     8f4:	f108 0801 	add.w	r8, r8, #1
/mnt/disk/raspbian-tee/optee_os/lib/libutils/ext/snprintk.c:275
     8f8:	9b0b      	ldr	r3, [sp, #44]	; 0x2c
     8fa:	3301      	adds	r3, #1
     8fc:	930b      	str	r3, [sp, #44]	; 0x2c
     8fe:	e7d6      	b.n	8ae <__vsnprintf+0x22>
/mnt/disk/raspbian-tee/optee_os/lib/libutils/ext/snprintk.c:282
     900:	9b0b      	ldr	r3, [sp, #44]	; 0x2c
/mnt/disk/raspbian-tee/optee_os/lib/libutils/ext/snprintk.c:288
     902:	f04f 0a00 	mov.w	sl, #0
/mnt/disk/raspbian-tee/optee_os/lib/libutils/ext/snprintk.c:282
     906:	463a      	mov	r2, r7
/mnt/disk/raspbian-tee/optee_os/lib/libutils/ext/snprintk.c:287
     908:	f04f 3bff 	mov.w	fp, #4294967295	; 0xffffffff
/mnt/disk/raspbian-tee/optee_os/lib/libutils/ext/snprintk.c:282
     90c:	3301      	adds	r3, #1
/mnt/disk/raspbian-tee/optee_os/lib/libutils/ext/snprintk.c:284
     90e:	4656      	mov	r6, sl
/mnt/disk/raspbian-tee/optee_os/lib/libutils/ext/snprintk.c:286
     910:	f8cd a034 	str.w	sl, [sp, #52]	; 0x34
/mnt/disk/raspbian-tee/optee_os/lib/libutils/ext/snprintk.c:290
     914:	f893 9000 	ldrb.w	r9, [r3]
     918:	1c59      	adds	r1, r3, #1
     91a:	910b      	str	r1, [sp, #44]	; 0x2c
/mnt/disk/raspbian-tee/optee_os/lib/libutils/ext/snprintk.c:291
     91c:	f1b9 0f63 	cmp.w	r9, #99	; 0x63
     920:	f000 8163 	beq.w	bea <__vsnprintf+0x35e>
     924:	f300 8095 	bgt.w	a52 <__vsnprintf+0x1c6>
     928:	f1b9 0f30 	cmp.w	r9, #48	; 0x30
     92c:	f000 8147 	beq.w	bbe <__vsnprintf+0x332>
     930:	dc26      	bgt.n	980 <__vsnprintf+0xf4>
     932:	f1b9 0f2a 	cmp.w	r9, #42	; 0x2a
     936:	f000 8119 	beq.w	b6c <__vsnprintf+0x2e0>
     93a:	dc13      	bgt.n	964 <__vsnprintf+0xd8>
     93c:	f1b9 0f20 	cmp.w	r9, #32
     940:	f000 810a 	beq.w	b58 <__vsnprintf+0x2cc>
     944:	f1b9 0f23 	cmp.w	r9, #35	; 0x23
     948:	f000 810d 	beq.w	b66 <__vsnprintf+0x2da>
/mnt/disk/raspbian-tee/optee_os/lib/libutils/ext/snprintk.c:541
     94c:	f1b9 0f00 	cmp.w	r9, #0
     950:	d0b2      	beq.n	8b8 <__vsnprintf+0x2c>
/mnt/disk/raspbian-tee/optee_os/lib/libutils/ext/snprintk.c:545
     952:	ab1e      	add	r3, sp, #120	; 0x78
     954:	4617      	mov	r7, r2
/mnt/disk/raspbian-tee/optee_os/lib/libutils/ext/snprintk.c:546
     956:	f04f 0b01 	mov.w	fp, #1
/mnt/disk/raspbian-tee/optee_os/lib/libutils/ext/snprintk.c:545
     95a:	f803 9d28 	strb.w	r9, [r3, #-40]!
     95e:	e0c0      	b.n	ae2 <__vsnprintf+0x256>
/mnt/disk/raspbian-tee/optee_os/lib/libutils/ext/snprintk.c:311
     960:	461a      	mov	r2, r3
     962:	e00b      	b.n	97c <__vsnprintf+0xf0>
/mnt/disk/raspbian-tee/optee_os/lib/libutils/ext/snprintk.c:291
     964:	f1b9 0f2d 	cmp.w	r9, #45	; 0x2d
     968:	f000 8109 	beq.w	b7e <__vsnprintf+0x2f2>
     96c:	f1b9 0f2e 	cmp.w	r9, #46	; 0x2e
     970:	f000 8108 	beq.w	b84 <__vsnprintf+0x2f8>
     974:	f1b9 0f2b 	cmp.w	r9, #43	; 0x2b
     978:	d1e8      	bne.n	94c <__vsnprintf+0xc0>
/mnt/disk/raspbian-tee/optee_os/lib/libutils/ext/snprintk.c:319
     97a:	46ca      	mov	sl, r9
/mnt/disk/raspbian-tee/optee_os/lib/libutils/ext/snprintk.c:322
     97c:	9b0b      	ldr	r3, [sp, #44]	; 0x2c
     97e:	e7c9      	b.n	914 <__vsnprintf+0x88>
/mnt/disk/raspbian-tee/optee_os/lib/libutils/ext/snprintk.c:291
     980:	f1b9 0f44 	cmp.w	r9, #68	; 0x44
     984:	f000 818a 	beq.w	c9c <__vsnprintf+0x410>
     988:	dc14      	bgt.n	9b4 <__vsnprintf+0x128>
     98a:	f1b9 0f39 	cmp.w	r9, #57	; 0x39
     98e:	dcdd      	bgt.n	94c <__vsnprintf+0xc0>
     990:	2300      	movs	r3, #0
     992:	930d      	str	r3, [sp, #52]	; 0x34
/mnt/disk/raspbian-tee/optee_os/lib/libutils/ext/snprintk.c:346
     994:	9b0d      	ldr	r3, [sp, #52]	; 0x34
     996:	f1a9 0930 	sub.w	r9, r9, #48	; 0x30
     99a:	210a      	movs	r1, #10
     99c:	fb01 9303 	mla	r3, r1, r3, r9
     9a0:	930d      	str	r3, [sp, #52]	; 0x34
/mnt/disk/raspbian-tee/optee_os/lib/libutils/ext/snprintk.c:347
     9a2:	9b0b      	ldr	r3, [sp, #44]	; 0x2c
     9a4:	f813 9b01 	ldrb.w	r9, [r3], #1
     9a8:	930b      	str	r3, [sp, #44]	; 0x2c
/mnt/disk/raspbian-tee/optee_os/lib/libutils/ext/snprintk.c:348
     9aa:	f1a9 0330 	sub.w	r3, r9, #48	; 0x30
     9ae:	2b09      	cmp	r3, #9
     9b0:	d9f0      	bls.n	994 <__vsnprintf+0x108>
     9b2:	e7b3      	b.n	91c <__vsnprintf+0x90>
/mnt/disk/raspbian-tee/optee_os/lib/libutils/ext/snprintk.c:291
     9b4:	f1b9 0f55 	cmp.w	r9, #85	; 0x55
     9b8:	f000 823d 	beq.w	e36 <__vsnprintf+0x5aa>
     9bc:	f1b9 0f58 	cmp.w	r9, #88	; 0x58
     9c0:	f000 80ab 	beq.w	b1a <__vsnprintf+0x28e>
     9c4:	f1b9 0f4f 	cmp.w	r9, #79	; 0x4f
     9c8:	d1c0      	bne.n	94c <__vsnprintf+0xc0>
/mnt/disk/raspbian-tee/optee_os/lib/libutils/ext/snprintk.c:408
     9ca:	f046 0610 	orr.w	r6, r6, #16
/mnt/disk/raspbian-tee/optee_os/lib/libutils/ext/snprintk.c:411
     9ce:	0635      	lsls	r5, r6, #24
     9d0:	f140 81c0 	bpl.w	d54 <__vsnprintf+0x4c8>
     9d4:	3207      	adds	r2, #7
     9d6:	f022 0207 	bic.w	r2, r2, #7
     9da:	f102 0708 	add.w	r7, r2, #8
     9de:	e9d2 4500 	ldrd	r4, r5, [r2]
/mnt/disk/raspbian-tee/optee_os/lib/libutils/ext/snprintk.c:488
     9e2:	f04f 0a00 	mov.w	sl, #0
     9e6:	f1bb 3fff 	cmp.w	fp, #4294967295	; 0xffffffff
     9ea:	d011      	beq.n	a10 <__vsnprintf+0x184>
     9ec:	4653      	mov	r3, sl
/mnt/disk/raspbian-tee/optee_os/lib/libutils/ext/snprintk.c:489
     9ee:	f426 6680 	bic.w	r6, r6, #1024	; 0x400
/mnt/disk/raspbian-tee/optee_os/lib/libutils/ext/snprintk.c:497
     9f2:	ea54 0205 	orrs.w	r2, r4, r5
     9f6:	d105      	bne.n	a04 <__vsnprintf+0x178>
     9f8:	f1bb 0f00 	cmp.w	fp, #0
     9fc:	f000 8269 	beq.w	ed2 <__vsnprintf+0x646>
     a00:	2400      	movs	r4, #0
     a02:	2500      	movs	r5, #0
/mnt/disk/raspbian-tee/optee_os/lib/libutils/ext/snprintk.c:503
     a04:	2b01      	cmp	r3, #1
     a06:	f000 8161 	beq.w	ccc <__vsnprintf+0x440>
     a0a:	2b02      	cmp	r3, #2
     a0c:	f000 81f8 	beq.w	e00 <__vsnprintf+0x574>
/mnt/disk/raspbian-tee/optee_os/lib/libutils/ext/snprintk.c:488
     a10:	f10d 0275 	add.w	r2, sp, #117	; 0x75
/mnt/disk/raspbian-tee/optee_os/lib/libutils/ext/snprintk.c:507
     a14:	08e0      	lsrs	r0, r4, #3
     a16:	ea4f 0cd5 	mov.w	ip, r5, lsr #3
     a1a:	ea40 7045 	orr.w	r0, r0, r5, lsl #29
/mnt/disk/raspbian-tee/optee_os/lib/libutils/ext/snprintk.c:506
     a1e:	f004 0107 	and.w	r1, r4, #7
/mnt/disk/raspbian-tee/optee_os/lib/libutils/ext/snprintk.c:507
     a22:	4665      	mov	r5, ip
     a24:	4604      	mov	r4, r0
/mnt/disk/raspbian-tee/optee_os/lib/libutils/ext/snprintk.c:506
     a26:	3130      	adds	r1, #48	; 0x30
     a28:	1e53      	subs	r3, r2, #1
     a2a:	f802 1c01 	strb.w	r1, [r2, #-1]
/mnt/disk/raspbian-tee/optee_os/lib/libutils/ext/snprintk.c:508
     a2e:	ea54 0005 	orrs.w	r0, r4, r5
     a32:	f040 8239 	bne.w	ea8 <__vsnprintf+0x61c>
/mnt/disk/raspbian-tee/optee_os/lib/libutils/ext/snprintk.c:510
     a36:	07f5      	lsls	r5, r6, #31
     a38:	d505      	bpl.n	a46 <__vsnprintf+0x1ba>
     a3a:	2930      	cmp	r1, #48	; 0x30
     a3c:	d003      	beq.n	a46 <__vsnprintf+0x1ba>
/mnt/disk/raspbian-tee/optee_os/lib/libutils/ext/snprintk.c:511
     a3e:	2130      	movs	r1, #48	; 0x30
     a40:	f803 1c01 	strb.w	r1, [r3, #-1]
     a44:	1e93      	subs	r3, r2, #2
/mnt/disk/raspbian-tee/optee_os/lib/libutils/ext/snprintk.c:537
     a46:	f10d 0275 	add.w	r2, sp, #117	; 0x75
     a4a:	4658      	mov	r0, fp
     a4c:	eba2 0b03 	sub.w	fp, r2, r3
     a50:	e0d5      	b.n	bfe <__vsnprintf+0x372>
/mnt/disk/raspbian-tee/optee_os/lib/libutils/ext/snprintk.c:291
     a52:	f1b9 0f6f 	cmp.w	r9, #111	; 0x6f
     a56:	d0ba      	beq.n	9ce <__vsnprintf+0x142>
     a58:	dc1e      	bgt.n	a98 <__vsnprintf+0x20c>
     a5a:	f1b9 0f69 	cmp.w	r9, #105	; 0x69
     a5e:	f000 811f 	beq.w	ca0 <__vsnprintf+0x414>
     a62:	dc0a      	bgt.n	a7a <__vsnprintf+0x1ee>
     a64:	f1b9 0f64 	cmp.w	r9, #100	; 0x64
     a68:	f000 811a 	beq.w	ca0 <__vsnprintf+0x414>
     a6c:	f1b9 0f68 	cmp.w	r9, #104	; 0x68
     a70:	f47f af6c 	bne.w	94c <__vsnprintf+0xc0>
/mnt/disk/raspbian-tee/optee_os/lib/libutils/ext/snprintk.c:352
     a74:	f046 0640 	orr.w	r6, r6, #64	; 0x40
     a78:	e780      	b.n	97c <__vsnprintf+0xf0>
/mnt/disk/raspbian-tee/optee_os/lib/libutils/ext/snprintk.c:291
     a7a:	f1b9 0f6c 	cmp.w	r9, #108	; 0x6c
     a7e:	f000 80a1 	beq.w	bc4 <__vsnprintf+0x338>
     a82:	f1b9 0f6e 	cmp.w	r9, #110	; 0x6e
     a86:	f000 8146 	beq.w	d16 <__vsnprintf+0x48a>
     a8a:	f1b9 0f6a 	cmp.w	r9, #106	; 0x6a
     a8e:	f47f af5d 	bne.w	94c <__vsnprintf+0xc0>
/mnt/disk/raspbian-tee/optee_os/lib/libutils/ext/snprintk.c:355
     a92:	f046 0680 	orr.w	r6, r6, #128	; 0x80
     a96:	e771      	b.n	97c <__vsnprintf+0xf0>
/mnt/disk/raspbian-tee/optee_os/lib/libutils/ext/snprintk.c:291
     a98:	f1b9 0f74 	cmp.w	r9, #116	; 0x74
     a9c:	f000 809f 	beq.w	bde <__vsnprintf+0x352>
     aa0:	dc22      	bgt.n	ae8 <__vsnprintf+0x25c>
     aa2:	f1b9 0f71 	cmp.w	r9, #113	; 0x71
     aa6:	f000 8094 	beq.w	bd2 <__vsnprintf+0x346>
     aaa:	f2c0 8167 	blt.w	d7c <__vsnprintf+0x4f0>
     aae:	f1b9 0f73 	cmp.w	r9, #115	; 0x73
     ab2:	f47f af4b 	bne.w	94c <__vsnprintf+0xc0>
/mnt/disk/raspbian-tee/optee_os/lib/libutils/ext/snprintk.c:442
     ab6:	6813      	ldr	r3, [r2, #0]
     ab8:	1d17      	adds	r7, r2, #4
     aba:	b913      	cbnz	r3, ac2 <__vsnprintf+0x236>
/mnt/disk/raspbian-tee/optee_os/lib/libutils/ext/snprintk.c:444
     abc:	f8df 34ec 	ldr.w	r3, [pc, #1260]	; fac <__vsnprintf+0x720>
     ac0:	447b      	add	r3, pc
/mnt/disk/raspbian-tee/optee_os/lib/libutils/ext/snprintk.c:445
     ac2:	f1bb 3fff 	cmp.w	fp, #4294967295	; 0xffffffff
     ac6:	f000 81ad 	beq.w	e24 <__vsnprintf+0x598>
/mnt/disk/raspbian-tee/optee_os/lib/libutils/ext/snprintk.c:451
     aca:	4618      	mov	r0, r3
     acc:	465a      	mov	r2, fp
     ace:	2100      	movs	r1, #0
     ad0:	9311      	str	r3, [sp, #68]	; 0x44
     ad2:	f005 feff 	bl	68d4 <memchr>
/mnt/disk/raspbian-tee/optee_os/lib/libutils/ext/snprintk.c:453
     ad6:	9b11      	ldr	r3, [sp, #68]	; 0x44
     ad8:	b120      	cbz	r0, ae4 <__vsnprintf+0x258>
/mnt/disk/raspbian-tee/optee_os/lib/libutils/ext/snprintk.c:454
     ada:	1ac0      	subs	r0, r0, r3
     adc:	4583      	cmp	fp, r0
     ade:	bfa8      	it	ge
     ae0:	4683      	movge	fp, r0
/mnt/disk/raspbian-tee/optee_os/lib/libutils/ext/snprintk.c:285
     ae2:	2000      	movs	r0, #0
/mnt/disk/raspbian-tee/optee_os/lib/libutils/ext/snprintk.c:461
     ae4:	4682      	mov	sl, r0
     ae6:	e08a      	b.n	bfe <__vsnprintf+0x372>
/mnt/disk/raspbian-tee/optee_os/lib/libutils/ext/snprintk.c:291
     ae8:	f1b9 0f78 	cmp.w	r9, #120	; 0x78
     aec:	f000 81c2 	beq.w	e74 <__vsnprintf+0x5e8>
     af0:	f1b9 0f7a 	cmp.w	r9, #122	; 0x7a
     af4:	d076      	beq.n	be4 <__vsnprintf+0x358>
     af6:	f1b9 0f75 	cmp.w	r9, #117	; 0x75
     afa:	f47f af27 	bne.w	94c <__vsnprintf+0xc0>
/mnt/disk/raspbian-tee/optee_os/lib/libutils/ext/snprintk.c:467
     afe:	f016 0380 	ands.w	r3, r6, #128	; 0x80
     b02:	f000 819b 	beq.w	e3c <__vsnprintf+0x5b0>
     b06:	3207      	adds	r2, #7
     b08:	f022 0207 	bic.w	r2, r2, #7
     b0c:	f102 0708 	add.w	r7, r2, #8
     b10:	e9d2 4500 	ldrd	r4, r5, [r2]
/mnt/disk/raspbian-tee/optee_os/lib/libutils/ext/snprintk.c:482
     b14:	f04f 0a00 	mov.w	sl, #0
     b18:	e0d4      	b.n	cc4 <__vsnprintf+0x438>
/mnt/disk/raspbian-tee/optee_os/lib/libutils/ext/snprintk.c:471
     b1a:	f8df 3494 	ldr.w	r3, [pc, #1172]	; fb0 <__vsnprintf+0x724>
     b1e:	447b      	add	r3, pc
/mnt/disk/raspbian-tee/optee_os/lib/libutils/ext/snprintk.c:474
     b20:	930f      	str	r3, [sp, #60]	; 0x3c
/mnt/disk/raspbian-tee/optee_os/lib/libutils/ext/snprintk.c:475
     b22:	0637      	lsls	r7, r6, #24
     b24:	f140 81aa 	bpl.w	e7c <__vsnprintf+0x5f0>
     b28:	3207      	adds	r2, #7
     b2a:	f022 0207 	bic.w	r2, r2, #7
     b2e:	f102 0708 	add.w	r7, r2, #8
     b32:	e9d2 4500 	ldrd	r4, r5, [r2]
/mnt/disk/raspbian-tee/optee_os/lib/libutils/ext/snprintk.c:478
     b36:	07f3      	lsls	r3, r6, #31
     b38:	f140 815c 	bpl.w	df4 <__vsnprintf+0x568>
     b3c:	ea54 0305 	orrs.w	r3, r4, r5
     b40:	f000 822d 	beq.w	f9e <__vsnprintf+0x712>
/mnt/disk/raspbian-tee/optee_os/lib/libutils/ext/snprintk.c:479
     b44:	f046 0602 	orr.w	r6, r6, #2
/mnt/disk/raspbian-tee/optee_os/lib/libutils/ext/snprintk.c:488
     b48:	f1bb 3fff 	cmp.w	fp, #4294967295	; 0xffffffff
     b4c:	f000 822a 	beq.w	fa4 <__vsnprintf+0x718>
     b50:	f04f 0a00 	mov.w	sl, #0
     b54:	2302      	movs	r3, #2
     b56:	e74a      	b.n	9ee <__vsnprintf+0x162>
/mnt/disk/raspbian-tee/optee_os/lib/libutils/ext/snprintk.c:299
     b58:	f1ba 0f00 	cmp.w	sl, #0
     b5c:	f04f 0320 	mov.w	r3, #32
     b60:	bf08      	it	eq
     b62:	469a      	moveq	sl, r3
     b64:	e70a      	b.n	97c <__vsnprintf+0xf0>
/mnt/disk/raspbian-tee/optee_os/lib/libutils/ext/snprintk.c:302
     b66:	f046 0601 	orr.w	r6, r6, #1
     b6a:	e707      	b.n	97c <__vsnprintf+0xf0>
/mnt/disk/raspbian-tee/optee_os/lib/libutils/ext/snprintk.c:311
     b6c:	1d13      	adds	r3, r2, #4
     b6e:	6812      	ldr	r2, [r2, #0]
     b70:	920d      	str	r2, [sp, #52]	; 0x34
     b72:	2a00      	cmp	r2, #0
     b74:	f6bf aef4 	bge.w	960 <__vsnprintf+0xd4>
/mnt/disk/raspbian-tee/optee_os/lib/libutils/ext/snprintk.c:313
     b78:	4252      	negs	r2, r2
     b7a:	920d      	str	r2, [sp, #52]	; 0x34
/mnt/disk/raspbian-tee/optee_os/lib/libutils/ext/snprintk.c:311
     b7c:	461a      	mov	r2, r3
/mnt/disk/raspbian-tee/optee_os/lib/libutils/ext/snprintk.c:316
     b7e:	f046 0604 	orr.w	r6, r6, #4
     b82:	e6fb      	b.n	97c <__vsnprintf+0xf0>
/mnt/disk/raspbian-tee/optee_os/lib/libutils/ext/snprintk.c:322
     b84:	990b      	ldr	r1, [sp, #44]	; 0x2c
     b86:	9b0b      	ldr	r3, [sp, #44]	; 0x2c
     b88:	f891 9000 	ldrb.w	r9, [r1]
     b8c:	3301      	adds	r3, #1
     b8e:	f1b9 0f2a 	cmp.w	r9, #42	; 0x2a
     b92:	d00e      	beq.n	bb2 <__vsnprintf+0x326>
     b94:	f04f 0b00 	mov.w	fp, #0
/mnt/disk/raspbian-tee/optee_os/lib/libutils/ext/snprintk.c:330
     b98:	930b      	str	r3, [sp, #44]	; 0x2c
/mnt/disk/raspbian-tee/optee_os/lib/libutils/ext/snprintk.c:328
     b9a:	f1a9 0330 	sub.w	r3, r9, #48	; 0x30
     b9e:	2b09      	cmp	r3, #9
     ba0:	f63f aebc 	bhi.w	91c <__vsnprintf+0x90>
/mnt/disk/raspbian-tee/optee_os/lib/libutils/ext/snprintk.c:329
     ba4:	210a      	movs	r1, #10
     ba6:	fb01 3b0b 	mla	fp, r1, fp, r3
/mnt/disk/raspbian-tee/optee_os/lib/libutils/ext/snprintk.c:330
     baa:	9b0b      	ldr	r3, [sp, #44]	; 0x2c
     bac:	f813 9b01 	ldrb.w	r9, [r3], #1
     bb0:	e7f2      	b.n	b98 <__vsnprintf+0x30c>
/mnt/disk/raspbian-tee/optee_os/lib/libutils/ext/snprintk.c:324
     bb2:	6811      	ldr	r1, [r2, #0]
/mnt/disk/raspbian-tee/optee_os/lib/libutils/ext/snprintk.c:323
     bb4:	3204      	adds	r2, #4
/mnt/disk/raspbian-tee/optee_os/lib/libutils/ext/snprintk.c:322
     bb6:	930b      	str	r3, [sp, #44]	; 0x2c
/mnt/disk/raspbian-tee/optee_os/lib/libutils/ext/snprintk.c:324
     bb8:	ea41 7be1 	orr.w	fp, r1, r1, asr #31
     bbc:	e6de      	b.n	97c <__vsnprintf+0xf0>
/mnt/disk/raspbian-tee/optee_os/lib/libutils/ext/snprintk.c:340
     bbe:	f446 6680 	orr.w	r6, r6, #1024	; 0x400
     bc2:	e6db      	b.n	97c <__vsnprintf+0xf0>
/mnt/disk/raspbian-tee/optee_os/lib/libutils/ext/snprintk.c:358
     bc4:	9b0b      	ldr	r3, [sp, #44]	; 0x2c
     bc6:	781b      	ldrb	r3, [r3, #0]
     bc8:	2b6c      	cmp	r3, #108	; 0x6c
     bca:	d105      	bne.n	bd8 <__vsnprintf+0x34c>
/mnt/disk/raspbian-tee/optee_os/lib/libutils/ext/snprintk.c:359
     bcc:	9b0b      	ldr	r3, [sp, #44]	; 0x2c
     bce:	3301      	adds	r3, #1
     bd0:	930b      	str	r3, [sp, #44]	; 0x2c
/mnt/disk/raspbian-tee/optee_os/lib/libutils/ext/snprintk.c:366
     bd2:	f046 0620 	orr.w	r6, r6, #32
     bd6:	e6d1      	b.n	97c <__vsnprintf+0xf0>
/mnt/disk/raspbian-tee/optee_os/lib/libutils/ext/snprintk.c:362
     bd8:	f046 0610 	orr.w	r6, r6, #16
     bdc:	e6ce      	b.n	97c <__vsnprintf+0xf0>
/mnt/disk/raspbian-tee/optee_os/lib/libutils/ext/snprintk.c:369
     bde:	f446 7680 	orr.w	r6, r6, #256	; 0x100
     be2:	e6cb      	b.n	97c <__vsnprintf+0xf0>
/mnt/disk/raspbian-tee/optee_os/lib/libutils/ext/snprintk.c:372
     be4:	f446 7600 	orr.w	r6, r6, #512	; 0x200
     be8:	e6c8      	b.n	97c <__vsnprintf+0xf0>
/mnt/disk/raspbian-tee/optee_os/lib/libutils/ext/snprintk.c:375
     bea:	ab1e      	add	r3, sp, #120	; 0x78
/mnt/disk/raspbian-tee/optee_os/lib/libutils/ext/snprintk.c:285
     bec:	f04f 0a00 	mov.w	sl, #0
/mnt/disk/raspbian-tee/optee_os/lib/libutils/ext/snprintk.c:375
     bf0:	1d17      	adds	r7, r2, #4
/mnt/disk/raspbian-tee/optee_os/lib/libutils/ext/snprintk.c:376
     bf2:	f04f 0b01 	mov.w	fp, #1
/mnt/disk/raspbian-tee/optee_os/lib/libutils/ext/snprintk.c:375
     bf6:	6812      	ldr	r2, [r2, #0]
/mnt/disk/raspbian-tee/optee_os/lib/libutils/ext/snprintk.c:377
     bf8:	4650      	mov	r0, sl
/mnt/disk/raspbian-tee/optee_os/lib/libutils/ext/snprintk.c:375
     bfa:	f803 2d28 	strb.w	r2, [r3, #-40]!
/mnt/disk/raspbian-tee/optee_os/lib/libutils/ext/snprintk.c:565
     bfe:	4558      	cmp	r0, fp
     c00:	4602      	mov	r2, r0
     c02:	bfb8      	it	lt
     c04:	465a      	movlt	r2, fp
/mnt/disk/raspbian-tee/optee_os/lib/libutils/ext/snprintk.c:566
     c06:	f1ba 0f00 	cmp.w	sl, #0
     c0a:	f000 8165 	beq.w	ed8 <__vsnprintf+0x64c>
/mnt/disk/raspbian-tee/optee_os/lib/libutils/ext/snprintk.c:567
     c0e:	3201      	adds	r2, #1
/mnt/disk/raspbian-tee/optee_os/lib/libutils/ext/snprintk.c:572
     c10:	990d      	ldr	r1, [sp, #52]	; 0x34
     c12:	9c0c      	ldr	r4, [sp, #48]	; 0x30
     c14:	4291      	cmp	r1, r2
     c16:	bfb8      	it	lt
     c18:	4611      	movlt	r1, r2
     c1a:	440c      	add	r4, r1
/mnt/disk/raspbian-tee/optee_os/lib/libutils/ext/snprintk.c:575
     c1c:	f240 4104 	movw	r1, #1028	; 0x404
/mnt/disk/raspbian-tee/optee_os/lib/libutils/ext/snprintk.c:572
     c20:	940c      	str	r4, [sp, #48]	; 0x30
/mnt/disk/raspbian-tee/optee_os/lib/libutils/ext/snprintk.c:575
     c22:	ea16 0401 	ands.w	r4, r6, r1
     c26:	d106      	bne.n	c36 <__vsnprintf+0x3aa>
/mnt/disk/raspbian-tee/optee_os/lib/libutils/ext/snprintk.c:576
     c28:	990d      	ldr	r1, [sp, #52]	; 0x34
/mnt/disk/raspbian-tee/optee_os/lib/libutils/ext/snprintk.c:578
     c2a:	f04f 0c20 	mov.w	ip, #32
/mnt/disk/raspbian-tee/optee_os/lib/libutils/ext/snprintk.c:576
     c2e:	1a89      	subs	r1, r1, r2
/mnt/disk/raspbian-tee/optee_os/lib/libutils/ext/snprintk.c:577
     c30:	2900      	cmp	r1, #0
     c32:	f300 8155 	bgt.w	ee0 <__vsnprintf+0x654>
/mnt/disk/raspbian-tee/optee_os/lib/libutils/ext/snprintk.c:582
     c36:	f1ba 0f00 	cmp.w	sl, #0
     c3a:	f000 8166 	beq.w	f0a <__vsnprintf+0x67e>
/mnt/disk/raspbian-tee/optee_os/lib/libutils/ext/snprintk.c:583
     c3e:	f1b8 0f00 	cmp.w	r8, #0
     c42:	f040 8159 	bne.w	ef8 <__vsnprintf+0x66c>
/mnt/disk/raspbian-tee/optee_os/lib/libutils/ext/snprintk.c:586
     c46:	f04f 0800 	mov.w	r8, #0
/mnt/disk/raspbian-tee/optee_os/lib/libutils/ext/snprintk.c:590
     c4a:	f5b4 6f80 	cmp.w	r4, #1024	; 0x400
     c4e:	d105      	bne.n	c5c <__vsnprintf+0x3d0>
/mnt/disk/raspbian-tee/optee_os/lib/libutils/ext/snprintk.c:591
     c50:	990d      	ldr	r1, [sp, #52]	; 0x34
/mnt/disk/raspbian-tee/optee_os/lib/libutils/ext/snprintk.c:593
     c52:	2430      	movs	r4, #48	; 0x30
/mnt/disk/raspbian-tee/optee_os/lib/libutils/ext/snprintk.c:591
     c54:	1a89      	subs	r1, r1, r2
/mnt/disk/raspbian-tee/optee_os/lib/libutils/ext/snprintk.c:592
     c56:	2900      	cmp	r1, #0
     c58:	f300 8173 	bgt.w	f42 <__vsnprintf+0x6b6>
/mnt/disk/raspbian-tee/optee_os/lib/libutils/ext/snprintk.c:597
     c5c:	eba0 000b 	sub.w	r0, r0, fp
/mnt/disk/raspbian-tee/optee_os/lib/libutils/ext/snprintk.c:599
     c60:	2130      	movs	r1, #48	; 0x30
/mnt/disk/raspbian-tee/optee_os/lib/libutils/ext/snprintk.c:598
     c62:	2800      	cmp	r0, #0
     c64:	f300 8179 	bgt.w	f5a <__vsnprintf+0x6ce>
     c68:	eb03 010b 	add.w	r1, r3, fp
/mnt/disk/raspbian-tee/optee_os/lib/libutils/ext/snprintk.c:602
     c6c:	428b      	cmp	r3, r1
     c6e:	f040 8180 	bne.w	f72 <__vsnprintf+0x6e6>
/mnt/disk/raspbian-tee/optee_os/lib/libutils/ext/snprintk.c:605
     c72:	0773      	lsls	r3, r6, #29
     c74:	f57f ae1b 	bpl.w	8ae <__vsnprintf+0x22>
/mnt/disk/raspbian-tee/optee_os/lib/libutils/ext/snprintk.c:606
     c78:	9b0d      	ldr	r3, [sp, #52]	; 0x34
     c7a:	1a9b      	subs	r3, r3, r2
/mnt/disk/raspbian-tee/optee_os/lib/libutils/ext/snprintk.c:608
     c7c:	2220      	movs	r2, #32
/mnt/disk/raspbian-tee/optee_os/lib/libutils/ext/snprintk.c:607
     c7e:	2b00      	cmp	r3, #0
     c80:	f77f ae15 	ble.w	8ae <__vsnprintf+0x22>
/mnt/disk/raspbian-tee/optee_os/lib/libutils/ext/snprintk.c:608
     c84:	f1b8 0f00 	cmp.w	r8, #0
     c88:	d006      	beq.n	c98 <__vsnprintf+0x40c>
     c8a:	990e      	ldr	r1, [sp, #56]	; 0x38
     c8c:	4541      	cmp	r1, r8
     c8e:	d903      	bls.n	c98 <__vsnprintf+0x40c>
     c90:	f888 2000 	strb.w	r2, [r8]
     c94:	f108 0801 	add.w	r8, r8, #1
     c98:	3b01      	subs	r3, #1
     c9a:	e7f0      	b.n	c7e <__vsnprintf+0x3f2>
/mnt/disk/raspbian-tee/optee_os/lib/libutils/ext/snprintk.c:380
     c9c:	f046 0610 	orr.w	r6, r6, #16
/mnt/disk/raspbian-tee/optee_os/lib/libutils/ext/snprintk.c:384
     ca0:	0631      	lsls	r1, r6, #24
     ca2:	d523      	bpl.n	cec <__vsnprintf+0x460>
     ca4:	3207      	adds	r2, #7
     ca6:	f022 0207 	bic.w	r2, r2, #7
     caa:	f102 0708 	add.w	r7, r2, #8
     cae:	e9d2 4500 	ldrd	r4, r5, [r2]
/mnt/disk/raspbian-tee/optee_os/lib/libutils/ext/snprintk.c:385
     cb2:	2c00      	cmp	r4, #0
     cb4:	f175 0300 	sbcs.w	r3, r5, #0
     cb8:	da04      	bge.n	cc4 <__vsnprintf+0x438>
/mnt/disk/raspbian-tee/optee_os/lib/libutils/ext/snprintk.c:386
     cba:	4264      	negs	r4, r4
/mnt/disk/raspbian-tee/optee_os/lib/libutils/ext/snprintk.c:387
     cbc:	f04f 0a2d 	mov.w	sl, #45	; 0x2d
/mnt/disk/raspbian-tee/optee_os/lib/libutils/ext/snprintk.c:386
     cc0:	eb65 0545 	sbc.w	r5, r5, r5, lsl #1
/mnt/disk/raspbian-tee/optee_os/lib/libutils/ext/snprintk.c:488
     cc4:	f1bb 3fff 	cmp.w	fp, #4294967295	; 0xffffffff
     cc8:	f040 80ec 	bne.w	ea4 <__vsnprintf+0x618>
/mnt/disk/raspbian-tee/optee_os/lib/libutils/ext/snprintk.c:508
     ccc:	f10d 0375 	add.w	r3, sp, #117	; 0x75
     cd0:	9311      	str	r3, [sp, #68]	; 0x44
     cd2:	9b11      	ldr	r3, [sp, #68]	; 0x44
/mnt/disk/raspbian-tee/optee_os/lib/libutils/ext/snprintk.c:516
     cd4:	2d00      	cmp	r5, #0
     cd6:	bf08      	it	eq
     cd8:	2c0a      	cmpeq	r4, #10
     cda:	f103 33ff 	add.w	r3, r3, #4294967295	; 0xffffffff
     cde:	f080 80e5 	bcs.w	eac <__vsnprintf+0x620>
/mnt/disk/raspbian-tee/optee_os/lib/libutils/ext/snprintk.c:520
     ce2:	9a11      	ldr	r2, [sp, #68]	; 0x44
     ce4:	3430      	adds	r4, #48	; 0x30
     ce6:	f802 4c01 	strb.w	r4, [r2, #-1]
     cea:	e6ac      	b.n	a46 <__vsnprintf+0x1ba>
/mnt/disk/raspbian-tee/optee_os/lib/libutils/ext/snprintk.c:384
     cec:	05f3      	lsls	r3, r6, #23
     cee:	d503      	bpl.n	cf8 <__vsnprintf+0x46c>
     cf0:	1d17      	adds	r7, r2, #4
     cf2:	6814      	ldr	r4, [r2, #0]
     cf4:	17e5      	asrs	r5, r4, #31
     cf6:	e7dc      	b.n	cb2 <__vsnprintf+0x426>
     cf8:	05b7      	lsls	r7, r6, #22
     cfa:	d4f9      	bmi.n	cf0 <__vsnprintf+0x464>
     cfc:	06b5      	lsls	r5, r6, #26
     cfe:	d4d1      	bmi.n	ca4 <__vsnprintf+0x418>
     d00:	f016 0f10 	tst.w	r6, #16
     d04:	f102 0704 	add.w	r7, r2, #4
     d08:	d1f3      	bne.n	cf2 <__vsnprintf+0x466>
     d0a:	f016 0f40 	tst.w	r6, #64	; 0x40
     d0e:	6814      	ldr	r4, [r2, #0]
     d10:	d0f0      	beq.n	cf4 <__vsnprintf+0x468>
     d12:	b224      	sxth	r4, r4
     d14:	e7ee      	b.n	cf4 <__vsnprintf+0x468>
/mnt/disk/raspbian-tee/optee_os/lib/libutils/ext/snprintk.c:392
     d16:	f016 0f80 	tst.w	r6, #128	; 0x80
     d1a:	f102 0704 	add.w	r7, r2, #4
     d1e:	d006      	beq.n	d2e <__vsnprintf+0x4a2>
/mnt/disk/raspbian-tee/optee_os/lib/libutils/ext/snprintk.c:399
     d20:	6813      	ldr	r3, [r2, #0]
     d22:	9a0c      	ldr	r2, [sp, #48]	; 0x30
     d24:	4610      	mov	r0, r2
     d26:	17d1      	asrs	r1, r2, #31
     d28:	e9c3 0100 	strd	r0, r1, [r3]
     d2c:	e5bf      	b.n	8ae <__vsnprintf+0x22>
/mnt/disk/raspbian-tee/optee_os/lib/libutils/ext/snprintk.c:394
     d2e:	05f4      	lsls	r4, r6, #23
     d30:	d503      	bpl.n	d3a <__vsnprintf+0x4ae>
/mnt/disk/raspbian-tee/optee_os/lib/libutils/ext/snprintk.c:405
     d32:	6813      	ldr	r3, [r2, #0]
     d34:	9a0c      	ldr	r2, [sp, #48]	; 0x30
     d36:	601a      	str	r2, [r3, #0]
     d38:	e5b9      	b.n	8ae <__vsnprintf+0x22>
/mnt/disk/raspbian-tee/optee_os/lib/libutils/ext/snprintk.c:396
     d3a:	05b0      	lsls	r0, r6, #22
     d3c:	d4f9      	bmi.n	d32 <__vsnprintf+0x4a6>
/mnt/disk/raspbian-tee/optee_os/lib/libutils/ext/snprintk.c:398
     d3e:	06b1      	lsls	r1, r6, #26
     d40:	d4ee      	bmi.n	d20 <__vsnprintf+0x494>
/mnt/disk/raspbian-tee/optee_os/lib/libutils/ext/snprintk.c:400
     d42:	06f3      	lsls	r3, r6, #27
     d44:	d4f5      	bmi.n	d32 <__vsnprintf+0x4a6>
/mnt/disk/raspbian-tee/optee_os/lib/libutils/ext/snprintk.c:402
     d46:	0676      	lsls	r6, r6, #25
     d48:	d5f3      	bpl.n	d32 <__vsnprintf+0x4a6>
/mnt/disk/raspbian-tee/optee_os/lib/libutils/ext/snprintk.c:403
     d4a:	6813      	ldr	r3, [r2, #0]
     d4c:	f8bd 2030 	ldrh.w	r2, [sp, #48]	; 0x30
     d50:	801a      	strh	r2, [r3, #0]
     d52:	e5ac      	b.n	8ae <__vsnprintf+0x22>
/mnt/disk/raspbian-tee/optee_os/lib/libutils/ext/snprintk.c:411
     d54:	05f4      	lsls	r4, r6, #23
     d56:	d502      	bpl.n	d5e <__vsnprintf+0x4d2>
     d58:	1d17      	adds	r7, r2, #4
     d5a:	6814      	ldr	r4, [r2, #0]
     d5c:	e00c      	b.n	d78 <__vsnprintf+0x4ec>
     d5e:	05b0      	lsls	r0, r6, #22
     d60:	d4fa      	bmi.n	d58 <__vsnprintf+0x4cc>
     d62:	06b1      	lsls	r1, r6, #26
     d64:	f53f ae36 	bmi.w	9d4 <__vsnprintf+0x148>
     d68:	f016 0f10 	tst.w	r6, #16
     d6c:	f102 0704 	add.w	r7, r2, #4
     d70:	d1f3      	bne.n	d5a <__vsnprintf+0x4ce>
     d72:	0673      	lsls	r3, r6, #25
     d74:	d5f1      	bpl.n	d5a <__vsnprintf+0x4ce>
     d76:	8814      	ldrh	r4, [r2, #0]
     d78:	2500      	movs	r5, #0
     d7a:	e632      	b.n	9e2 <__vsnprintf+0x156>
/mnt/disk/raspbian-tee/optee_os/lib/libutils/ext/snprintk.c:415
     d7c:	9b13      	ldr	r3, [sp, #76]	; 0x4c
     d7e:	2b00      	cmp	r3, #0
     d80:	d02d      	beq.n	dde <__vsnprintf+0x552>
     d82:	9b0b      	ldr	r3, [sp, #44]	; 0x2c
     d84:	781b      	ldrb	r3, [r3, #0]
     d86:	2b55      	cmp	r3, #85	; 0x55
     d88:	d129      	bne.n	dde <__vsnprintf+0x552>
     d8a:	9b0b      	ldr	r3, [sp, #44]	; 0x2c
     d8c:	785b      	ldrb	r3, [r3, #1]
     d8e:	2b6c      	cmp	r3, #108	; 0x6c
     d90:	d125      	bne.n	dde <__vsnprintf+0x552>
/mnt/disk/raspbian-tee/optee_os/lib/libutils/ext/snprintk.c:420
     d92:	9b0b      	ldr	r3, [sp, #44]	; 0x2c
/mnt/disk/raspbian-tee/optee_os/lib/libutils/ext/snprintk.c:421
     d94:	1d17      	adds	r7, r2, #4
uuid2str():
/mnt/disk/raspbian-tee/optee_os/lib/libutils/ext/snprintk.c:223
     d96:	ac14      	add	r4, sp, #80	; 0x50
     d98:	2125      	movs	r1, #37	; 0x25
kprintf():
/mnt/disk/raspbian-tee/optee_os/lib/libutils/ext/snprintk.c:420
     d9a:	3302      	adds	r3, #2
     d9c:	930b      	str	r3, [sp, #44]	; 0x2c
/mnt/disk/raspbian-tee/optee_os/lib/libutils/ext/snprintk.c:421
     d9e:	6813      	ldr	r3, [r2, #0]
uuid2str():
/mnt/disk/raspbian-tee/optee_os/lib/libutils/ext/snprintk.c:223
     da0:	4620      	mov	r0, r4
     da2:	7bda      	ldrb	r2, [r3, #15]
     da4:	9209      	str	r2, [sp, #36]	; 0x24
     da6:	7b9a      	ldrb	r2, [r3, #14]
     da8:	9208      	str	r2, [sp, #32]
     daa:	7b5a      	ldrb	r2, [r3, #13]
     dac:	9207      	str	r2, [sp, #28]
     dae:	7b1a      	ldrb	r2, [r3, #12]
     db0:	9206      	str	r2, [sp, #24]
     db2:	7ada      	ldrb	r2, [r3, #11]
     db4:	9205      	str	r2, [sp, #20]
     db6:	7a9a      	ldrb	r2, [r3, #10]
     db8:	9204      	str	r2, [sp, #16]
     dba:	7a5a      	ldrb	r2, [r3, #9]
     dbc:	9203      	str	r2, [sp, #12]
     dbe:	7a1a      	ldrb	r2, [r3, #8]
     dc0:	9202      	str	r2, [sp, #8]
     dc2:	88da      	ldrh	r2, [r3, #6]
     dc4:	9201      	str	r2, [sp, #4]
     dc6:	889a      	ldrh	r2, [r3, #4]
     dc8:	9200      	str	r2, [sp, #0]
     dca:	4a7a      	ldr	r2, [pc, #488]	; (fb4 <__vsnprintf+0x728>)
     dcc:	681b      	ldr	r3, [r3, #0]
     dce:	447a      	add	r2, pc
     dd0:	f000 f8fd 	bl	fce <snprintk>
     dd4:	4683      	mov	fp, r0
kprintf():
/mnt/disk/raspbian-tee/optee_os/lib/libutils/ext/snprintk.c:285
     dd6:	2000      	movs	r0, #0
/mnt/disk/raspbian-tee/optee_os/lib/libutils/ext/snprintk.c:423
     dd8:	4623      	mov	r3, r4
/mnt/disk/raspbian-tee/optee_os/lib/libutils/ext/snprintk.c:424
     dda:	4682      	mov	sl, r0
     ddc:	e70f      	b.n	bfe <__vsnprintf+0x372>
/mnt/disk/raspbian-tee/optee_os/lib/libutils/ext/snprintk.c:437
     dde:	4b76      	ldr	r3, [pc, #472]	; (fb8 <__vsnprintf+0x72c>)
/mnt/disk/raspbian-tee/optee_os/lib/libutils/ext/snprintk.c:435
     de0:	1d17      	adds	r7, r2, #4
     de2:	6814      	ldr	r4, [r2, #0]
     de4:	2500      	movs	r5, #0
/mnt/disk/raspbian-tee/optee_os/lib/libutils/ext/snprintk.c:437
     de6:	447b      	add	r3, pc
/mnt/disk/raspbian-tee/optee_os/lib/libutils/ext/snprintk.c:438
     de8:	f046 0602 	orr.w	r6, r6, #2
/mnt/disk/raspbian-tee/optee_os/lib/libutils/ext/snprintk.c:439
     dec:	f04f 0978 	mov.w	r9, #120	; 0x78
/mnt/disk/raspbian-tee/optee_os/lib/libutils/ext/snprintk.c:437
     df0:	3311      	adds	r3, #17
     df2:	930f      	str	r3, [sp, #60]	; 0x3c
/mnt/disk/raspbian-tee/optee_os/lib/libutils/ext/snprintk.c:488
     df4:	f1bb 3fff 	cmp.w	fp, #4294967295	; 0xffffffff
     df8:	f47f aeaa 	bne.w	b50 <__vsnprintf+0x2c4>
     dfc:	f04f 0a00 	mov.w	sl, #0
     e00:	f10d 0375 	add.w	r3, sp, #117	; 0x75
/mnt/disk/raspbian-tee/optee_os/lib/libutils/ext/snprintk.c:525
     e04:	f004 020f 	and.w	r2, r4, #15
     e08:	990f      	ldr	r1, [sp, #60]	; 0x3c
     e0a:	5c8a      	ldrb	r2, [r1, r2]
/mnt/disk/raspbian-tee/optee_os/lib/libutils/ext/snprintk.c:526
     e0c:	0929      	lsrs	r1, r5, #4
/mnt/disk/raspbian-tee/optee_os/lib/libutils/ext/snprintk.c:525
     e0e:	f803 2d01 	strb.w	r2, [r3, #-1]!
/mnt/disk/raspbian-tee/optee_os/lib/libutils/ext/snprintk.c:526
     e12:	0922      	lsrs	r2, r4, #4
     e14:	ea42 7205 	orr.w	r2, r2, r5, lsl #28
     e18:	460d      	mov	r5, r1
     e1a:	4614      	mov	r4, r2
/mnt/disk/raspbian-tee/optee_os/lib/libutils/ext/snprintk.c:527
     e1c:	ea54 0205 	orrs.w	r2, r4, r5
     e20:	d1f0      	bne.n	e04 <__vsnprintf+0x578>
     e22:	e610      	b.n	a46 <__vsnprintf+0x1ba>
/mnt/disk/raspbian-tee/optee_os/lib/libutils/ext/snprintk.c:460
     e24:	4618      	mov	r0, r3
     e26:	9311      	str	r3, [sp, #68]	; 0x44
     e28:	f005 fd62 	bl	68f0 <strlen>
     e2c:	4683      	mov	fp, r0
/mnt/disk/raspbian-tee/optee_os/lib/libutils/ext/snprintk.c:285
     e2e:	2000      	movs	r0, #0
     e30:	9b11      	ldr	r3, [sp, #68]	; 0x44
/mnt/disk/raspbian-tee/optee_os/lib/libutils/ext/snprintk.c:461
     e32:	4682      	mov	sl, r0
     e34:	e6e3      	b.n	bfe <__vsnprintf+0x372>
/mnt/disk/raspbian-tee/optee_os/lib/libutils/ext/snprintk.c:464
     e36:	f046 0610 	orr.w	r6, r6, #16
     e3a:	e660      	b.n	afe <__vsnprintf+0x272>
/mnt/disk/raspbian-tee/optee_os/lib/libutils/ext/snprintk.c:467
     e3c:	f416 7a80 	ands.w	sl, r6, #256	; 0x100
     e40:	d003      	beq.n	e4a <__vsnprintf+0x5be>
     e42:	6814      	ldr	r4, [r2, #0]
     e44:	1d17      	adds	r7, r2, #4
     e46:	2500      	movs	r5, #0
     e48:	e664      	b.n	b14 <__vsnprintf+0x288>
     e4a:	f416 7300 	ands.w	r3, r6, #512	; 0x200
     e4e:	d003      	beq.n	e58 <__vsnprintf+0x5cc>
     e50:	1d17      	adds	r7, r2, #4
     e52:	6814      	ldr	r4, [r2, #0]
     e54:	2500      	movs	r5, #0
     e56:	e735      	b.n	cc4 <__vsnprintf+0x438>
     e58:	f016 0a20 	ands.w	sl, r6, #32
     e5c:	f47f ae53 	bne.w	b06 <__vsnprintf+0x27a>
     e60:	f016 0310 	ands.w	r3, r6, #16
     e64:	f102 0704 	add.w	r7, r2, #4
     e68:	d1f3      	bne.n	e52 <__vsnprintf+0x5c6>
     e6a:	f016 0a40 	ands.w	sl, r6, #64	; 0x40
     e6e:	d0f0      	beq.n	e52 <__vsnprintf+0x5c6>
     e70:	8814      	ldrh	r4, [r2, #0]
     e72:	e7e8      	b.n	e46 <__vsnprintf+0x5ba>
/mnt/disk/raspbian-tee/optee_os/lib/libutils/ext/snprintk.c:474
     e74:	4b51      	ldr	r3, [pc, #324]	; (fbc <__vsnprintf+0x730>)
     e76:	447b      	add	r3, pc
     e78:	3311      	adds	r3, #17
     e7a:	e651      	b.n	b20 <__vsnprintf+0x294>
/mnt/disk/raspbian-tee/optee_os/lib/libutils/ext/snprintk.c:475
     e7c:	05f5      	lsls	r5, r6, #23
     e7e:	d502      	bpl.n	e86 <__vsnprintf+0x5fa>
     e80:	1d17      	adds	r7, r2, #4
     e82:	6814      	ldr	r4, [r2, #0]
     e84:	e00c      	b.n	ea0 <__vsnprintf+0x614>
     e86:	05b4      	lsls	r4, r6, #22
     e88:	d4fa      	bmi.n	e80 <__vsnprintf+0x5f4>
     e8a:	06b0      	lsls	r0, r6, #26
     e8c:	f53f ae4c 	bmi.w	b28 <__vsnprintf+0x29c>
     e90:	f016 0f10 	tst.w	r6, #16
     e94:	f102 0704 	add.w	r7, r2, #4
     e98:	d1f3      	bne.n	e82 <__vsnprintf+0x5f6>
     e9a:	0671      	lsls	r1, r6, #25
     e9c:	d5f1      	bpl.n	e82 <__vsnprintf+0x5f6>
     e9e:	8814      	ldrh	r4, [r2, #0]
     ea0:	2500      	movs	r5, #0
     ea2:	e648      	b.n	b36 <__vsnprintf+0x2aa>
/mnt/disk/raspbian-tee/optee_os/lib/libutils/ext/snprintk.c:488
     ea4:	2301      	movs	r3, #1
     ea6:	e5a2      	b.n	9ee <__vsnprintf+0x162>
/mnt/disk/raspbian-tee/optee_os/lib/libutils/ext/snprintk.c:508
     ea8:	461a      	mov	r2, r3
     eaa:	e5b3      	b.n	a14 <__vsnprintf+0x188>
/mnt/disk/raspbian-tee/optee_os/lib/libutils/ext/snprintk.c:517
     eac:	9311      	str	r3, [sp, #68]	; 0x44
     eae:	4620      	mov	r0, r4
     eb0:	4629      	mov	r1, r5
     eb2:	220a      	movs	r2, #10
     eb4:	2300      	movs	r3, #0
     eb6:	f000 e8a4 	blx	1000 <__aeabi_uldivmod>
     eba:	9b11      	ldr	r3, [sp, #68]	; 0x44
     ebc:	3230      	adds	r2, #48	; 0x30
/mnt/disk/raspbian-tee/optee_os/lib/libutils/ext/snprintk.c:518
     ebe:	4620      	mov	r0, r4
     ec0:	4629      	mov	r1, r5
/mnt/disk/raspbian-tee/optee_os/lib/libutils/ext/snprintk.c:517
     ec2:	701a      	strb	r2, [r3, #0]
/mnt/disk/raspbian-tee/optee_os/lib/libutils/ext/snprintk.c:518
     ec4:	220a      	movs	r2, #10
     ec6:	2300      	movs	r3, #0
     ec8:	f000 e89a 	blx	1000 <__aeabi_uldivmod>
     ecc:	4604      	mov	r4, r0
     ece:	460d      	mov	r5, r1
     ed0:	e6ff      	b.n	cd2 <__vsnprintf+0x446>
/mnt/disk/raspbian-tee/optee_os/lib/libutils/ext/snprintk.c:496
     ed2:	f10d 0375 	add.w	r3, sp, #117	; 0x75
     ed6:	e5b6      	b.n	a46 <__vsnprintf+0x1ba>
/mnt/disk/raspbian-tee/optee_os/lib/libutils/ext/snprintk.c:568
     ed8:	07b4      	lsls	r4, r6, #30
/mnt/disk/raspbian-tee/optee_os/lib/libutils/ext/snprintk.c:569
     eda:	bf48      	it	mi
     edc:	3202      	addmi	r2, #2
     ede:	e697      	b.n	c10 <__vsnprintf+0x384>
/mnt/disk/raspbian-tee/optee_os/lib/libutils/ext/snprintk.c:578
     ee0:	f1b8 0f00 	cmp.w	r8, #0
     ee4:	d006      	beq.n	ef4 <__vsnprintf+0x668>
     ee6:	9d0e      	ldr	r5, [sp, #56]	; 0x38
     ee8:	4545      	cmp	r5, r8
     eea:	d903      	bls.n	ef4 <__vsnprintf+0x668>
     eec:	f888 c000 	strb.w	ip, [r8]
     ef0:	f108 0801 	add.w	r8, r8, #1
     ef4:	3901      	subs	r1, #1
     ef6:	e69b      	b.n	c30 <__vsnprintf+0x3a4>
/mnt/disk/raspbian-tee/optee_os/lib/libutils/ext/snprintk.c:583
     ef8:	990e      	ldr	r1, [sp, #56]	; 0x38
     efa:	4541      	cmp	r1, r8
     efc:	f67f aea5 	bls.w	c4a <__vsnprintf+0x3be>
     f00:	f888 a000 	strb.w	sl, [r8]
     f04:	f108 0801 	add.w	r8, r8, #1
     f08:	e69f      	b.n	c4a <__vsnprintf+0x3be>
/mnt/disk/raspbian-tee/optee_os/lib/libutils/ext/snprintk.c:584
     f0a:	07b1      	lsls	r1, r6, #30
     f0c:	f57f ae9d 	bpl.w	c4a <__vsnprintf+0x3be>
/mnt/disk/raspbian-tee/optee_os/lib/libutils/ext/snprintk.c:585
     f10:	f1b8 0f00 	cmp.w	r8, #0
     f14:	f43f ae97 	beq.w	c46 <__vsnprintf+0x3ba>
     f18:	990e      	ldr	r1, [sp, #56]	; 0x38
     f1a:	4541      	cmp	r1, r8
     f1c:	f67f ae95 	bls.w	c4a <__vsnprintf+0x3be>
     f20:	2130      	movs	r1, #48	; 0x30
     f22:	f888 1000 	strb.w	r1, [r8]
/mnt/disk/raspbian-tee/optee_os/lib/libutils/ext/snprintk.c:586
     f26:	f118 0101 	adds.w	r1, r8, #1
     f2a:	f43f ae8c 	beq.w	c46 <__vsnprintf+0x3ba>
     f2e:	9d0e      	ldr	r5, [sp, #56]	; 0x38
     f30:	428d      	cmp	r5, r1
     f32:	d904      	bls.n	f3e <__vsnprintf+0x6b2>
     f34:	f888 9001 	strb.w	r9, [r8, #1]
     f38:	f108 0802 	add.w	r8, r8, #2
     f3c:	e685      	b.n	c4a <__vsnprintf+0x3be>
     f3e:	4688      	mov	r8, r1
     f40:	e683      	b.n	c4a <__vsnprintf+0x3be>
/mnt/disk/raspbian-tee/optee_os/lib/libutils/ext/snprintk.c:593
     f42:	f1b8 0f00 	cmp.w	r8, #0
     f46:	d006      	beq.n	f56 <__vsnprintf+0x6ca>
     f48:	9d0e      	ldr	r5, [sp, #56]	; 0x38
     f4a:	4545      	cmp	r5, r8
     f4c:	d903      	bls.n	f56 <__vsnprintf+0x6ca>
     f4e:	f888 4000 	strb.w	r4, [r8]
     f52:	f108 0801 	add.w	r8, r8, #1
     f56:	3901      	subs	r1, #1
     f58:	e67d      	b.n	c56 <__vsnprintf+0x3ca>
/mnt/disk/raspbian-tee/optee_os/lib/libutils/ext/snprintk.c:599
     f5a:	f1b8 0f00 	cmp.w	r8, #0
     f5e:	d006      	beq.n	f6e <__vsnprintf+0x6e2>
     f60:	9c0e      	ldr	r4, [sp, #56]	; 0x38
     f62:	4544      	cmp	r4, r8
     f64:	d903      	bls.n	f6e <__vsnprintf+0x6e2>
     f66:	f888 1000 	strb.w	r1, [r8]
     f6a:	f108 0801 	add.w	r8, r8, #1
     f6e:	3801      	subs	r0, #1
     f70:	e677      	b.n	c62 <__vsnprintf+0x3d6>
/mnt/disk/raspbian-tee/optee_os/lib/libutils/ext/snprintk.c:603
     f72:	f1b8 0f00 	cmp.w	r8, #0
     f76:	d007      	beq.n	f88 <__vsnprintf+0x6fc>
     f78:	980e      	ldr	r0, [sp, #56]	; 0x38
     f7a:	4540      	cmp	r0, r8
     f7c:	d904      	bls.n	f88 <__vsnprintf+0x6fc>
     f7e:	7818      	ldrb	r0, [r3, #0]
     f80:	f108 0801 	add.w	r8, r8, #1
     f84:	f808 0c01 	strb.w	r0, [r8, #-1]
/mnt/disk/raspbian-tee/optee_os/lib/libutils/ext/snprintk.c:602
     f88:	3301      	adds	r3, #1
     f8a:	e66f      	b.n	c6c <__vsnprintf+0x3e0>
__vsnprintf():
/mnt/disk/raspbian-tee/optee_os/lib/libutils/ext/snprintk.c:148
     f8c:	990c      	ldr	r1, [sp, #48]	; 0x30
     f8e:	5453      	strb	r3, [r2, r1]
/mnt/disk/raspbian-tee/optee_os/lib/libutils/ext/snprintk.c:150
     f90:	e4a1      	b.n	8d6 <__vsnprintf+0x4a>
kprintf():
/mnt/disk/raspbian-tee/optee_os/lib/libutils/ext/snprintk.c:489
     f92:	f426 6680 	bic.w	r6, r6, #1024	; 0x400
/mnt/disk/raspbian-tee/optee_os/lib/libutils/ext/snprintk.c:482
     f96:	f04f 0a00 	mov.w	sl, #0
/mnt/disk/raspbian-tee/optee_os/lib/libutils/ext/snprintk.c:476
     f9a:	2302      	movs	r3, #2
     f9c:	e52c      	b.n	9f8 <__vsnprintf+0x16c>
/mnt/disk/raspbian-tee/optee_os/lib/libutils/ext/snprintk.c:488
     f9e:	f1bb 3fff 	cmp.w	fp, #4294967295	; 0xffffffff
     fa2:	d1f6      	bne.n	f92 <__vsnprintf+0x706>
     fa4:	f04f 3bff 	mov.w	fp, #4294967295	; 0xffffffff
     fa8:	e728      	b.n	dfc <__vsnprintf+0x570>
     faa:	bf00      	nop
     fac:	000067cc 	.word	0x000067cc
     fb0:	0000674c 	.word	0x0000674c
     fb4:	000064c5 	.word	0x000064c5
     fb8:	00006484 	.word	0x00006484
     fbc:	000063f4 	.word	0x000063f4

00000fc0 <vsnprintk>:
vsnprintk():
/mnt/disk/raspbian-tee/optee_os/lib/libutils/ext/snprintk.c:129
     fc0:	b513      	push	{r0, r1, r4, lr}
/mnt/disk/raspbian-tee/optee_os/lib/libutils/ext/snprintk.c:130
     fc2:	2401      	movs	r4, #1
     fc4:	9400      	str	r4, [sp, #0]
     fc6:	f7ff fc61 	bl	88c <__vsnprintf>
/mnt/disk/raspbian-tee/optee_os/lib/libutils/ext/snprintk.c:131
     fca:	b002      	add	sp, #8
     fcc:	bd10      	pop	{r4, pc}

00000fce <snprintk>:
snprintk():
/mnt/disk/raspbian-tee/optee_os/lib/libutils/ext/snprintk.c:112
     fce:	b40c      	push	{r2, r3}
     fd0:	b507      	push	{r0, r1, r2, lr}
     fd2:	ab04      	add	r3, sp, #16
     fd4:	f853 2b04 	ldr.w	r2, [r3], #4
/mnt/disk/raspbian-tee/optee_os/lib/libutils/ext/snprintk.c:116
     fd8:	9301      	str	r3, [sp, #4]
/mnt/disk/raspbian-tee/optee_os/lib/libutils/ext/snprintk.c:117
     fda:	f7ff fff1 	bl	fc0 <vsnprintk>
/mnt/disk/raspbian-tee/optee_os/lib/libutils/ext/snprintk.c:121
     fde:	b003      	add	sp, #12
     fe0:	f85d eb04 	ldr.w	lr, [sp], #4
     fe4:	b002      	add	sp, #8
     fe6:	4770      	bx	lr

00000fe8 <__aeabi_ldivmod>:
__aeabi_ldivmod():
/mnt/disk/raspbian-tee/optee_os/lib/libutils/isoc/arch/arm/arm32_aeabi_ldivmod_a32.S:24
     fe8:	e92d5000 	push	{ip, lr}
/mnt/disk/raspbian-tee/optee_os/lib/libutils/isoc/arch/arm/arm32_aeabi_ldivmod_a32.S:26
     fec:	e92d000f 	push	{r0, r1, r2, r3}
/mnt/disk/raspbian-tee/optee_os/lib/libutils/isoc/arch/arm/arm32_aeabi_ldivmod_a32.S:28
     ff0:	e1a0000d 	mov	r0, sp
/mnt/disk/raspbian-tee/optee_os/lib/libutils/isoc/arch/arm/arm32_aeabi_ldivmod_a32.S:29
     ff4:	fa00165e 	blx	6974 <__l_divmod>
/mnt/disk/raspbian-tee/optee_os/lib/libutils/isoc/arch/arm/arm32_aeabi_ldivmod_a32.S:30
     ff8:	e8bd000f 	pop	{r0, r1, r2, r3}
/mnt/disk/raspbian-tee/optee_os/lib/libutils/isoc/arch/arm/arm32_aeabi_ldivmod_a32.S:31
     ffc:	e8bd9000 	pop	{ip, pc}

00001000 <__aeabi_uldivmod>:
__aeabi_uldivmod():
/mnt/disk/raspbian-tee/optee_os/lib/libutils/isoc/arch/arm/arm32_aeabi_ldivmod_a32.S:42
    1000:	e92d5000 	push	{ip, lr}
/mnt/disk/raspbian-tee/optee_os/lib/libutils/isoc/arch/arm/arm32_aeabi_ldivmod_a32.S:44
    1004:	e92d000f 	push	{r0, r1, r2, r3}
/mnt/disk/raspbian-tee/optee_os/lib/libutils/isoc/arch/arm/arm32_aeabi_ldivmod_a32.S:46
    1008:	e1a0000d 	mov	r0, sp
/mnt/disk/raspbian-tee/optee_os/lib/libutils/isoc/arch/arm/arm32_aeabi_ldivmod_a32.S:47
    100c:	fa00163b 	blx	6900 <__ul_divmod>
/mnt/disk/raspbian-tee/optee_os/lib/libutils/isoc/arch/arm/arm32_aeabi_ldivmod_a32.S:48
    1010:	e8bd000f 	pop	{r0, r1, r2, r3}
/mnt/disk/raspbian-tee/optee_os/lib/libutils/isoc/arch/arm/arm32_aeabi_ldivmod_a32.S:49
    1014:	e8bd9000 	pop	{ip, pc}

00001018 <trace_ext_puts>:
trace_ext_puts():
/mnt/disk/raspbian-tee/optee_os/lib/libutee/trace_ext.c:17
    1018:	b510      	push	{r4, lr}
    101a:	4604      	mov	r4, r0
/mnt/disk/raspbian-tee/optee_os/lib/libutee/trace_ext.c:18
    101c:	f005 fc68 	bl	68f0 <strlen>
    1020:	4601      	mov	r1, r0
    1022:	4620      	mov	r0, r4
/mnt/disk/raspbian-tee/optee_os/lib/libutee/trace_ext.c:19
    1024:	e8bd 4010 	ldmia.w	sp!, {r4, lr}
/mnt/disk/raspbian-tee/optee_os/lib/libutee/trace_ext.c:18
    1028:	f005 bd66 	b.w	6af8 <__utee_log_from_thumb>

0000102c <trace_ext_get_thread_id>:
trace_ext_get_thread_id():
/mnt/disk/raspbian-tee/optee_os/lib/libutee/trace_ext.c:24
    102c:	f04f 30ff 	mov.w	r0, #4294967295	; 0xffffffff
    1030:	4770      	bx	lr

00001032 <printf>:
printf():
/mnt/disk/raspbian-tee/optee_os/lib/libutee/trace_ext.c:32
    1032:	b40f      	push	{r0, r1, r2, r3}
    1034:	b530      	push	{r4, r5, lr}
    1036:	b0c3      	sub	sp, #268	; 0x10c
/mnt/disk/raspbian-tee/optee_os/lib/libutee/trace_ext.c:37
    1038:	f7ff fb00 	bl	63c <trace_get_level>
    103c:	2800      	cmp	r0, #0
    103e:	dd13      	ble.n	1068 <printf+0x36>
/mnt/disk/raspbian-tee/optee_os/lib/libutee/trace_ext.c:41
    1040:	ad02      	add	r5, sp, #8
/mnt/disk/raspbian-tee/optee_os/lib/libutee/trace_ext.c:40
    1042:	ab47      	add	r3, sp, #284	; 0x11c
/mnt/disk/raspbian-tee/optee_os/lib/libutee/trace_ext.c:41
    1044:	9a46      	ldr	r2, [sp, #280]	; 0x118
    1046:	f44f 7180 	mov.w	r1, #256	; 0x100
    104a:	4628      	mov	r0, r5
/mnt/disk/raspbian-tee/optee_os/lib/libutee/trace_ext.c:40
    104c:	9301      	str	r3, [sp, #4]
/mnt/disk/raspbian-tee/optee_os/lib/libutee/trace_ext.c:41
    104e:	f005 fd18 	bl	6a82 <vsnprintf>
/mnt/disk/raspbian-tee/optee_os/lib/libutee/trace_ext.c:44
    1052:	1e04      	subs	r4, r0, #0
    1054:	db02      	blt.n	105c <printf+0x2a>
/mnt/disk/raspbian-tee/optee_os/lib/libutee/trace_ext.c:47
    1056:	4628      	mov	r0, r5
    1058:	f7ff ffde 	bl	1018 <trace_ext_puts>
/mnt/disk/raspbian-tee/optee_os/lib/libutee/trace_ext.c:50
    105c:	4620      	mov	r0, r4
    105e:	b043      	add	sp, #268	; 0x10c
    1060:	e8bd 4030 	ldmia.w	sp!, {r4, r5, lr}
    1064:	b004      	add	sp, #16
    1066:	4770      	bx	lr
/mnt/disk/raspbian-tee/optee_os/lib/libutee/trace_ext.c:38
    1068:	2400      	movs	r4, #0
    106a:	e7f7      	b.n	105c <printf+0x2a>

0000106c <puts>:
puts():
/mnt/disk/raspbian-tee/optee_os/lib/libutee/trace_ext.c:53
    106c:	b510      	push	{r4, lr}
    106e:	4604      	mov	r4, r0
/mnt/disk/raspbian-tee/optee_os/lib/libutee/trace_ext.c:54
    1070:	f7ff fae4 	bl	63c <trace_get_level>
    1074:	2800      	cmp	r0, #0
    1076:	dd06      	ble.n	1086 <puts+0x1a>
/mnt/disk/raspbian-tee/optee_os/lib/libutee/trace_ext.c:55
    1078:	4620      	mov	r0, r4
    107a:	f7ff ffcd 	bl	1018 <trace_ext_puts>
/mnt/disk/raspbian-tee/optee_os/lib/libutee/trace_ext.c:56
    107e:	4803      	ldr	r0, [pc, #12]	; (108c <puts+0x20>)
    1080:	4478      	add	r0, pc
    1082:	f7ff ffc9 	bl	1018 <trace_ext_puts>
/mnt/disk/raspbian-tee/optee_os/lib/libutee/trace_ext.c:59
    1086:	2001      	movs	r0, #1
    1088:	bd10      	pop	{r4, pc}
    108a:	bf00      	nop
    108c:	000068b5 	.word	0x000068b5

00001090 <putchar>:
putchar():
/mnt/disk/raspbian-tee/optee_os/lib/libutee/trace_ext.c:62
    1090:	b513      	push	{r0, r1, r4, lr}
/mnt/disk/raspbian-tee/optee_os/lib/libutee/trace_ext.c:63
    1092:	2300      	movs	r3, #0
/mnt/disk/raspbian-tee/optee_os/lib/libutee/trace_ext.c:62
    1094:	4604      	mov	r4, r0
/mnt/disk/raspbian-tee/optee_os/lib/libutee/trace_ext.c:63
    1096:	f88d 0004 	strb.w	r0, [sp, #4]
    109a:	f88d 3005 	strb.w	r3, [sp, #5]
/mnt/disk/raspbian-tee/optee_os/lib/libutee/trace_ext.c:65
    109e:	f7ff facd 	bl	63c <trace_get_level>
    10a2:	2800      	cmp	r0, #0
    10a4:	dd02      	ble.n	10ac <putchar+0x1c>
/mnt/disk/raspbian-tee/optee_os/lib/libutee/trace_ext.c:66
    10a6:	a801      	add	r0, sp, #4
    10a8:	f7ff ffb6 	bl	1018 <trace_ext_puts>
/mnt/disk/raspbian-tee/optee_os/lib/libutee/trace_ext.c:73
    10ac:	b2e0      	uxtb	r0, r4
    10ae:	b002      	add	sp, #8
    10b0:	bd10      	pop	{r4, pc}
    10b2:	bf00      	nop

000010b4 <__utee_from_param>:
__utee_from_param():
/mnt/disk/raspbian-tee/optee_os/lib/libutee/tee_api.c:23
    10b4:	2300      	movs	r3, #0
/mnt/disk/raspbian-tee/optee_os/lib/libutee/tee_api.c:20
    10b6:	b5f0      	push	{r4, r5, r6, r7, lr}
    10b8:	4694      	mov	ip, r2
    10ba:	4615      	mov	r5, r2
/mnt/disk/raspbian-tee/optee_os/lib/libutee/tee_api.c:39
    10bc:	2600      	movs	r6, #0
    10be:	2700      	movs	r7, #0
/mnt/disk/raspbian-tee/optee_os/lib/libutee/tee_api.c:35
    10c0:	461a      	mov	r2, r3
/mnt/disk/raspbian-tee/optee_os/lib/libutee/tee_api.c:23
    10c2:	e880 000a 	stmia.w	r0, {r1, r3}
/mnt/disk/raspbian-tee/optee_os/lib/libutee/tee_api.c:25
    10c6:	fa21 f403 	lsr.w	r4, r1, r3
    10ca:	f004 040f 	and.w	r4, r4, #15
    10ce:	3c01      	subs	r4, #1
    10d0:	2c06      	cmp	r4, #6
    10d2:	d812      	bhi.n	10fa <__utee_from_param+0x46>
    10d4:	e8df f004 	tbb	[pc, r4]
    10d8:	11040404 	.word	0x11040404
    10dc:	0404      	.short	0x0404
    10de:	04          	.byte	0x04
    10df:	00          	.byte	0x00
/mnt/disk/raspbian-tee/optee_os/lib/libutee/tee_api.c:35
    10e0:	f85c 4013 	ldr.w	r4, [ip, r3, lsl #1]
    10e4:	6084      	str	r4, [r0, #8]
    10e6:	60c2      	str	r2, [r0, #12]
/mnt/disk/raspbian-tee/optee_os/lib/libutee/tee_api.c:36
    10e8:	686c      	ldr	r4, [r5, #4]
    10ea:	6104      	str	r4, [r0, #16]
    10ec:	6142      	str	r2, [r0, #20]
    10ee:	3304      	adds	r3, #4
    10f0:	3508      	adds	r5, #8
    10f2:	3010      	adds	r0, #16
/mnt/disk/raspbian-tee/optee_os/lib/libutee/tee_api.c:24 (discriminator 2)
    10f4:	2b10      	cmp	r3, #16
    10f6:	d1e6      	bne.n	10c6 <__utee_from_param+0x12>
/mnt/disk/raspbian-tee/optee_os/lib/libutee/tee_api.c:44
    10f8:	bdf0      	pop	{r4, r5, r6, r7, pc}
/mnt/disk/raspbian-tee/optee_os/lib/libutee/tee_api.c:39
    10fa:	e9c0 6702 	strd	r6, r7, [r0, #8]
/mnt/disk/raspbian-tee/optee_os/lib/libutee/tee_api.c:40
    10fe:	e9c0 6704 	strd	r6, r7, [r0, #16]
/mnt/disk/raspbian-tee/optee_os/lib/libutee/tee_api.c:41
    1102:	e7f4      	b.n	10ee <__utee_from_param+0x3a>

00001104 <__utee_to_param>:
__utee_to_param():
/mnt/disk/raspbian-tee/optee_os/lib/libutee/tee_api.c:48
    1104:	b5f0      	push	{r4, r5, r6, r7, lr}
/mnt/disk/raspbian-tee/optee_os/lib/libutee/tee_api.c:50
    1106:	2300      	movs	r3, #0
    1108:	6816      	ldr	r6, [r2, #0]
    110a:	4605      	mov	r5, r0
/mnt/disk/raspbian-tee/optee_os/lib/libutee/tee_api.c:56
    110c:	fa26 f403 	lsr.w	r4, r6, r3
/mnt/disk/raspbian-tee/optee_os/lib/libutee/tee_api.c:53
    1110:	f8d2 c008 	ldr.w	ip, [r2, #8]
/mnt/disk/raspbian-tee/optee_os/lib/libutee/tee_api.c:56
    1114:	f004 040f 	and.w	r4, r4, #15
/mnt/disk/raspbian-tee/optee_os/lib/libutee/tee_api.c:54
    1118:	6917      	ldr	r7, [r2, #16]
/mnt/disk/raspbian-tee/optee_os/lib/libutee/tee_api.c:56
    111a:	3c01      	subs	r4, #1
    111c:	2c06      	cmp	r4, #6
    111e:	d808      	bhi.n	1132 <__utee_to_param+0x2e>
    1120:	e8df f004 	tbb	[pc, r4]
    1124:	07040404 	.word	0x07040404
    1128:	0404      	.short	0x0404
    112a:	04          	.byte	0x04
    112b:	00          	.byte	0x00
/mnt/disk/raspbian-tee/optee_os/lib/libutee/tee_api.c:66
    112c:	f840 c013 	str.w	ip, [r0, r3, lsl #1]
/mnt/disk/raspbian-tee/optee_os/lib/libutee/tee_api.c:67
    1130:	606f      	str	r7, [r5, #4]
    1132:	3304      	adds	r3, #4
    1134:	3210      	adds	r2, #16
    1136:	3508      	adds	r5, #8
/mnt/disk/raspbian-tee/optee_os/lib/libutee/tee_api.c:52 (discriminator 2)
    1138:	2b10      	cmp	r3, #16
    113a:	d1e7      	bne.n	110c <__utee_to_param+0x8>
/mnt/disk/raspbian-tee/optee_os/lib/libutee/tee_api.c:74
    113c:	b101      	cbz	r1, 1140 <__utee_to_param+0x3c>
/mnt/disk/raspbian-tee/optee_os/lib/libutee/tee_api.c:75
    113e:	600e      	str	r6, [r1, #0]
    1140:	bdf0      	pop	{r4, r5, r6, r7, pc}

00001142 <TEE_OpenTASession>:
TEE_OpenTASession():
/mnt/disk/raspbian-tee/optee_os/lib/libutee/tee_api.c:84
    1142:	b5f0      	push	{r4, r5, r6, r7, lr}
    1144:	4605      	mov	r5, r0
    1146:	460f      	mov	r7, r1
    1148:	b097      	sub	sp, #92	; 0x5c
    114a:	4611      	mov	r1, r2
/mnt/disk/raspbian-tee/optee_os/lib/libutee/tee_api.c:89
    114c:	ac04      	add	r4, sp, #16
    114e:	461a      	mov	r2, r3
    1150:	4620      	mov	r0, r4
/mnt/disk/raspbian-tee/optee_os/lib/libutee/tee_api.c:84
    1152:	461e      	mov	r6, r3
/mnt/disk/raspbian-tee/optee_os/lib/libutee/tee_api.c:89
    1154:	f7ff ffae 	bl	10b4 <__utee_from_param>
/mnt/disk/raspbian-tee/optee_os/lib/libutee/tee_api.c:90
    1158:	9b1d      	ldr	r3, [sp, #116]	; 0x74
    115a:	9300      	str	r3, [sp, #0]
    115c:	4622      	mov	r2, r4
    115e:	4639      	mov	r1, r7
    1160:	4628      	mov	r0, r5
    1162:	ab03      	add	r3, sp, #12
    1164:	f000 ee26 	blx	1db4 <utee_open_ta_session>
/mnt/disk/raspbian-tee/optee_os/lib/libutee/tee_api.c:92
    1168:	4622      	mov	r2, r4
/mnt/disk/raspbian-tee/optee_os/lib/libutee/tee_api.c:90
    116a:	4605      	mov	r5, r0
/mnt/disk/raspbian-tee/optee_os/lib/libutee/tee_api.c:92
    116c:	2100      	movs	r1, #0
    116e:	4630      	mov	r0, r6
    1170:	f7ff ffc8 	bl	1104 <__utee_to_param>
/mnt/disk/raspbian-tee/optee_os/lib/libutee/tee_api.c:98
    1174:	b10d      	cbz	r5, 117a <TEE_OpenTASession+0x38>
/mnt/disk/raspbian-tee/optee_os/lib/libutee/tee_api.c:99
    1176:	2300      	movs	r3, #0
    1178:	9303      	str	r3, [sp, #12]
/mnt/disk/raspbian-tee/optee_os/lib/libutee/tee_api.c:101
    117a:	9b1c      	ldr	r3, [sp, #112]	; 0x70
/mnt/disk/raspbian-tee/optee_os/lib/libutee/tee_api.c:103
    117c:	4628      	mov	r0, r5
/mnt/disk/raspbian-tee/optee_os/lib/libutee/tee_api.c:101
    117e:	9a03      	ldr	r2, [sp, #12]
    1180:	601a      	str	r2, [r3, #0]
/mnt/disk/raspbian-tee/optee_os/lib/libutee/tee_api.c:103
    1182:	b017      	add	sp, #92	; 0x5c
    1184:	bdf0      	pop	{r4, r5, r6, r7, pc}

00001186 <TEE_CloseTASession>:
TEE_CloseTASession():
/mnt/disk/raspbian-tee/optee_os/lib/libutee/tee_api.c:106
    1186:	b508      	push	{r3, lr}
/mnt/disk/raspbian-tee/optee_os/lib/libutee/tee_api.c:107
    1188:	b130      	cbz	r0, 1198 <TEE_CloseTASession+0x12>
/mnt/disk/raspbian-tee/optee_os/lib/libutee/tee_api.c:108
    118a:	f000 ee20 	blx	1dcc <utee_close_ta_session>
/mnt/disk/raspbian-tee/optee_os/lib/libutee/tee_api.c:110
    118e:	b118      	cbz	r0, 1198 <TEE_CloseTASession+0x12>
/mnt/disk/raspbian-tee/optee_os/lib/libutee/tee_api.c:113
    1190:	e8bd 4008 	ldmia.w	sp!, {r3, lr}
/mnt/disk/raspbian-tee/optee_os/lib/libutee/tee_api.c:111
    1194:	f005 bc64 	b.w	6a60 <TEE_Panic>
    1198:	bd08      	pop	{r3, pc}

0000119a <TEE_InvokeTACommand>:
TEE_InvokeTACommand():
/mnt/disk/raspbian-tee/optee_os/lib/libutee/tee_api.c:120
    119a:	e92d 41f0 	stmdb	sp!, {r4, r5, r6, r7, r8, lr}
    119e:	4604      	mov	r4, r0
    11a0:	460f      	mov	r7, r1
    11a2:	b096      	sub	sp, #88	; 0x58
/mnt/disk/raspbian-tee/optee_os/lib/libutee/tee_api.c:125
    11a4:	4619      	mov	r1, r3
    11a6:	ad04      	add	r5, sp, #16
/mnt/disk/raspbian-tee/optee_os/lib/libutee/tee_api.c:120
    11a8:	4690      	mov	r8, r2
/mnt/disk/raspbian-tee/optee_os/lib/libutee/tee_api.c:125
    11aa:	4628      	mov	r0, r5
/mnt/disk/raspbian-tee/optee_os/lib/libutee/tee_api.c:120
    11ac:	9e1d      	ldr	r6, [sp, #116]	; 0x74
/mnt/disk/raspbian-tee/optee_os/lib/libutee/tee_api.c:125
    11ae:	9a1c      	ldr	r2, [sp, #112]	; 0x70
    11b0:	f7ff ff80 	bl	10b4 <__utee_from_param>
/mnt/disk/raspbian-tee/optee_os/lib/libutee/tee_api.c:126
    11b4:	ab03      	add	r3, sp, #12
    11b6:	4642      	mov	r2, r8
    11b8:	9300      	str	r3, [sp, #0]
    11ba:	4639      	mov	r1, r7
    11bc:	462b      	mov	r3, r5
    11be:	4620      	mov	r0, r4
    11c0:	f000 ee0e 	blx	1de0 <utee_invoke_ta_command>
/mnt/disk/raspbian-tee/optee_os/lib/libutee/tee_api.c:129
    11c4:	462a      	mov	r2, r5
/mnt/disk/raspbian-tee/optee_os/lib/libutee/tee_api.c:126
    11c6:	4604      	mov	r4, r0
/mnt/disk/raspbian-tee/optee_os/lib/libutee/tee_api.c:129
    11c8:	2100      	movs	r1, #0
    11ca:	981c      	ldr	r0, [sp, #112]	; 0x70
    11cc:	f7ff ff9a 	bl	1104 <__utee_to_param>
    11d0:	9b03      	ldr	r3, [sp, #12]
/mnt/disk/raspbian-tee/optee_os/lib/libutee/tee_api.c:131
    11d2:	b106      	cbz	r6, 11d6 <TEE_InvokeTACommand+0x3c>
/mnt/disk/raspbian-tee/optee_os/lib/libutee/tee_api.c:132
    11d4:	6033      	str	r3, [r6, #0]
/mnt/disk/raspbian-tee/optee_os/lib/libutee/tee_api.c:134
    11d6:	2b04      	cmp	r3, #4
    11d8:	d009      	beq.n	11ee <TEE_InvokeTACommand+0x54>
/mnt/disk/raspbian-tee/optee_os/lib/libutee/tee_api.c:137
    11da:	b144      	cbz	r4, 11ee <TEE_InvokeTACommand+0x54>
/mnt/disk/raspbian-tee/optee_os/lib/libutee/tee_api.c:137 (discriminator 1)
    11dc:	4b06      	ldr	r3, [pc, #24]	; (11f8 <TEE_InvokeTACommand+0x5e>)
    11de:	429c      	cmp	r4, r3
    11e0:	d005      	beq.n	11ee <TEE_InvokeTACommand+0x54>
/mnt/disk/raspbian-tee/optee_os/lib/libutee/tee_api.c:138
    11e2:	4b06      	ldr	r3, [pc, #24]	; (11fc <TEE_InvokeTACommand+0x62>)
    11e4:	429c      	cmp	r4, r3
    11e6:	d002      	beq.n	11ee <TEE_InvokeTACommand+0x54>
/mnt/disk/raspbian-tee/optee_os/lib/libutee/tee_api.c:140
    11e8:	4620      	mov	r0, r4
    11ea:	f005 fc39 	bl	6a60 <TEE_Panic>
/mnt/disk/raspbian-tee/optee_os/lib/libutee/tee_api.c:143
    11ee:	4620      	mov	r0, r4
    11f0:	b016      	add	sp, #88	; 0x58
    11f2:	e8bd 81f0 	ldmia.w	sp!, {r4, r5, r6, r7, r8, pc}
    11f6:	bf00      	nop
    11f8:	ffff000c 	.word	0xffff000c
    11fc:	ffff3024 	.word	0xffff3024

00001200 <TEE_GetCancellationFlag>:
TEE_GetCancellationFlag():
/mnt/disk/raspbian-tee/optee_os/lib/libutee/tee_api.c:148
    1200:	b507      	push	{r0, r1, r2, lr}
/mnt/disk/raspbian-tee/optee_os/lib/libutee/tee_api.c:150
    1202:	a801      	add	r0, sp, #4
    1204:	f000 edf8 	blx	1df8 <utee_get_cancellation_flag>
/mnt/disk/raspbian-tee/optee_os/lib/libutee/tee_api.c:152
    1208:	b108      	cbz	r0, 120e <TEE_GetCancellationFlag+0xe>
/mnt/disk/raspbian-tee/optee_os/lib/libutee/tee_api.c:153
    120a:	2300      	movs	r3, #0
    120c:	9301      	str	r3, [sp, #4]
/mnt/disk/raspbian-tee/optee_os/lib/libutee/tee_api.c:155
    120e:	9801      	ldr	r0, [sp, #4]
    1210:	3000      	adds	r0, #0
    1212:	bf18      	it	ne
    1214:	2001      	movne	r0, #1
    1216:	b003      	add	sp, #12
    1218:	f85d fb04 	ldr.w	pc, [sp], #4

0000121c <TEE_UnmaskCancellation>:
TEE_UnmaskCancellation():
/mnt/disk/raspbian-tee/optee_os/lib/libutee/tee_api.c:158
    121c:	b507      	push	{r0, r1, r2, lr}
/mnt/disk/raspbian-tee/optee_os/lib/libutee/tee_api.c:160
    121e:	a801      	add	r0, sp, #4
    1220:	f000 edfe 	blx	1e20 <utee_unmask_cancellation>
/mnt/disk/raspbian-tee/optee_os/lib/libutee/tee_api.c:162
    1224:	b108      	cbz	r0, 122a <TEE_UnmaskCancellation+0xe>
/mnt/disk/raspbian-tee/optee_os/lib/libutee/tee_api.c:163
    1226:	f005 fc1b 	bl	6a60 <TEE_Panic>
/mnt/disk/raspbian-tee/optee_os/lib/libutee/tee_api.c:165
    122a:	9801      	ldr	r0, [sp, #4]
    122c:	3000      	adds	r0, #0
    122e:	bf18      	it	ne
    1230:	2001      	movne	r0, #1
    1232:	b003      	add	sp, #12
    1234:	f85d fb04 	ldr.w	pc, [sp], #4

00001238 <TEE_MaskCancellation>:
TEE_MaskCancellation():
/mnt/disk/raspbian-tee/optee_os/lib/libutee/tee_api.c:168
    1238:	b507      	push	{r0, r1, r2, lr}
/mnt/disk/raspbian-tee/optee_os/lib/libutee/tee_api.c:170
    123a:	a801      	add	r0, sp, #4
    123c:	f000 edfa 	blx	1e34 <utee_mask_cancellation>
/mnt/disk/raspbian-tee/optee_os/lib/libutee/tee_api.c:172
    1240:	b108      	cbz	r0, 1246 <TEE_MaskCancellation+0xe>
/mnt/disk/raspbian-tee/optee_os/lib/libutee/tee_api.c:173
    1242:	f005 fc0d 	bl	6a60 <TEE_Panic>
/mnt/disk/raspbian-tee/optee_os/lib/libutee/tee_api.c:175
    1246:	9801      	ldr	r0, [sp, #4]
    1248:	3000      	adds	r0, #0
    124a:	bf18      	it	ne
    124c:	2001      	movne	r0, #1
    124e:	b003      	add	sp, #12
    1250:	f85d fb04 	ldr.w	pc, [sp], #4

00001254 <TEE_CheckMemoryAccessRights>:
TEE_CheckMemoryAccessRights():
/mnt/disk/raspbian-tee/optee_os/lib/libutee/tee_api.c:184
    1254:	b10a      	cbz	r2, 125a <TEE_CheckMemoryAccessRights+0x6>
/mnt/disk/raspbian-tee/optee_os/lib/libutee/tee_api.c:188
    1256:	f005 bc5f 	b.w	6b18 <__utee_check_access_rights_from_thumb>
/mnt/disk/raspbian-tee/optee_os/lib/libutee/tee_api.c:200
    125a:	4610      	mov	r0, r2
    125c:	4770      	bx	lr

0000125e <TEE_SetInstanceData>:
TEE_SetInstanceData():
/mnt/disk/raspbian-tee/optee_os/lib/libutee/tee_api.c:204
    125e:	4b02      	ldr	r3, [pc, #8]	; (1268 <TEE_SetInstanceData+0xa>)
    1260:	447b      	add	r3, pc
    1262:	6018      	str	r0, [r3, #0]
    1264:	4770      	bx	lr
    1266:	bf00      	nop
    1268:	00007e50 	.word	0x00007e50

0000126c <TEE_GetInstanceData>:
TEE_GetInstanceData():
/mnt/disk/raspbian-tee/optee_os/lib/libutee/tee_api.c:210
    126c:	4b01      	ldr	r3, [pc, #4]	; (1274 <TEE_GetInstanceData+0x8>)
    126e:	447b      	add	r3, pc
    1270:	6818      	ldr	r0, [r3, #0]
    1272:	4770      	bx	lr
    1274:	00007e42 	.word	0x00007e42

00001278 <TEE_MemMove>:
TEE_MemMove():
/mnt/disk/raspbian-tee/optee_os/lib/libutee/tee_api.c:214
    1278:	f005 bc24 	b.w	6ac4 <memmove>

0000127c <TEE_MemCompare>:
TEE_MemCompare():
/mnt/disk/raspbian-tee/optee_os/lib/libutee/tee_api.c:219
    127c:	f005 bc08 	b.w	6a90 <memcmp>

00001280 <TEE_MemFill>:
TEE_MemFill():
/mnt/disk/raspbian-tee/optee_os/lib/libutee/tee_api.c:224
    1280:	f005 ba61 	b.w	6746 <memset>

00001284 <TEE_GetSystemTime>:
TEE_GetSystemTime():
/mnt/disk/raspbian-tee/optee_os/lib/libutee/tee_api.c:230
    1284:	b508      	push	{r3, lr}
/mnt/disk/raspbian-tee/optee_os/lib/libutee/tee_api.c:231
    1286:	4601      	mov	r1, r0
    1288:	2000      	movs	r0, #0
    128a:	f000 ede8 	blx	1e5c <utee_get_time>
/mnt/disk/raspbian-tee/optee_os/lib/libutee/tee_api.c:233
    128e:	b118      	cbz	r0, 1298 <TEE_GetSystemTime+0x14>
/mnt/disk/raspbian-tee/optee_os/lib/libutee/tee_api.c:235
    1290:	e8bd 4008 	ldmia.w	sp!, {r3, lr}
/mnt/disk/raspbian-tee/optee_os/lib/libutee/tee_api.c:234
    1294:	f005 bbe4 	b.w	6a60 <TEE_Panic>
    1298:	bd08      	pop	{r3, pc}

0000129a <TEE_Wait>:
TEE_Wait():
/mnt/disk/raspbian-tee/optee_os/lib/libutee/tee_api.c:238
    129a:	b510      	push	{r4, lr}
/mnt/disk/raspbian-tee/optee_os/lib/libutee/tee_api.c:239
    129c:	f000 edd4 	blx	1e48 <utee_wait>
/mnt/disk/raspbian-tee/optee_os/lib/libutee/tee_api.c:241
    12a0:	4604      	mov	r4, r0
    12a2:	b120      	cbz	r0, 12ae <TEE_Wait+0x14>
/mnt/disk/raspbian-tee/optee_os/lib/libutee/tee_api.c:241 (discriminator 1)
    12a4:	4b03      	ldr	r3, [pc, #12]	; (12b4 <TEE_Wait+0x1a>)
    12a6:	4298      	cmp	r0, r3
    12a8:	d001      	beq.n	12ae <TEE_Wait+0x14>
/mnt/disk/raspbian-tee/optee_os/lib/libutee/tee_api.c:242
    12aa:	f005 fbd9 	bl	6a60 <TEE_Panic>
/mnt/disk/raspbian-tee/optee_os/lib/libutee/tee_api.c:245
    12ae:	4620      	mov	r0, r4
    12b0:	bd10      	pop	{r4, pc}
    12b2:	bf00      	nop
    12b4:	ffff0002 	.word	0xffff0002

000012b8 <TEE_GetTAPersistentTime>:
TEE_GetTAPersistentTime():
/mnt/disk/raspbian-tee/optee_os/lib/libutee/tee_api.c:248
    12b8:	b538      	push	{r3, r4, r5, lr}
/mnt/disk/raspbian-tee/optee_os/lib/libutee/tee_api.c:251
    12ba:	4601      	mov	r1, r0
/mnt/disk/raspbian-tee/optee_os/lib/libutee/tee_api.c:248
    12bc:	4605      	mov	r5, r0
/mnt/disk/raspbian-tee/optee_os/lib/libutee/tee_api.c:251
    12be:	2001      	movs	r0, #1
    12c0:	f000 edcc 	blx	1e5c <utee_get_time>
/mnt/disk/raspbian-tee/optee_os/lib/libutee/tee_api.c:253
    12c4:	4604      	mov	r4, r0
    12c6:	b170      	cbz	r0, 12e6 <TEE_GetTAPersistentTime+0x2e>
/mnt/disk/raspbian-tee/optee_os/lib/libutee/tee_api.c:253 (discriminator 1)
    12c8:	4b08      	ldr	r3, [pc, #32]	; (12ec <TEE_GetTAPersistentTime+0x34>)
    12ca:	4298      	cmp	r0, r3
    12cc:	d00b      	beq.n	12e6 <TEE_GetTAPersistentTime+0x2e>
/mnt/disk/raspbian-tee/optee_os/lib/libutee/tee_api.c:254
    12ce:	2300      	movs	r3, #0
    12d0:	602b      	str	r3, [r5, #0]
/mnt/disk/raspbian-tee/optee_os/lib/libutee/tee_api.c:255
    12d2:	606b      	str	r3, [r5, #4]
/mnt/disk/raspbian-tee/optee_os/lib/libutee/tee_api.c:258
    12d4:	f500 4330 	add.w	r3, r0, #45056	; 0xb000
    12d8:	2b01      	cmp	r3, #1
    12da:	d904      	bls.n	12e6 <TEE_GetTAPersistentTime+0x2e>
/mnt/disk/raspbian-tee/optee_os/lib/libutee/tee_api.c:261
    12dc:	4b04      	ldr	r3, [pc, #16]	; (12f0 <TEE_GetTAPersistentTime+0x38>)
    12de:	4298      	cmp	r0, r3
    12e0:	d001      	beq.n	12e6 <TEE_GetTAPersistentTime+0x2e>
/mnt/disk/raspbian-tee/optee_os/lib/libutee/tee_api.c:263
    12e2:	f005 fbbd 	bl	6a60 <TEE_Panic>
/mnt/disk/raspbian-tee/optee_os/lib/libutee/tee_api.c:266
    12e6:	4620      	mov	r0, r4
    12e8:	bd38      	pop	{r3, r4, r5, pc}
    12ea:	bf00      	nop
    12ec:	ffff300f 	.word	0xffff300f
    12f0:	ffff000c 	.word	0xffff000c

000012f4 <TEE_SetTAPersistentTime>:
TEE_SetTAPersistentTime():
/mnt/disk/raspbian-tee/optee_os/lib/libutee/tee_api.c:269
    12f4:	b510      	push	{r4, lr}
/mnt/disk/raspbian-tee/optee_os/lib/libutee/tee_api.c:272
    12f6:	f000 edbc 	blx	1e70 <utee_set_ta_time>
/mnt/disk/raspbian-tee/optee_os/lib/libutee/tee_api.c:274
    12fa:	4604      	mov	r4, r0
    12fc:	b138      	cbz	r0, 130e <TEE_SetTAPersistentTime+0x1a>
/mnt/disk/raspbian-tee/optee_os/lib/libutee/tee_api.c:274 (discriminator 1)
    12fe:	4b05      	ldr	r3, [pc, #20]	; (1314 <TEE_SetTAPersistentTime+0x20>)
    1300:	4298      	cmp	r0, r3
    1302:	d004      	beq.n	130e <TEE_SetTAPersistentTime+0x1a>
/mnt/disk/raspbian-tee/optee_os/lib/libutee/tee_api.c:275
    1304:	4b04      	ldr	r3, [pc, #16]	; (1318 <TEE_SetTAPersistentTime+0x24>)
    1306:	4298      	cmp	r0, r3
    1308:	d001      	beq.n	130e <TEE_SetTAPersistentTime+0x1a>
/mnt/disk/raspbian-tee/optee_os/lib/libutee/tee_api.c:277
    130a:	f005 fba9 	bl	6a60 <TEE_Panic>
/mnt/disk/raspbian-tee/optee_os/lib/libutee/tee_api.c:280
    130e:	4620      	mov	r0, r4
    1310:	bd10      	pop	{r4, pc}
    1312:	bf00      	nop
    1314:	ffff000c 	.word	0xffff000c
    1318:	ffff3041 	.word	0xffff3041

0000131c <TEE_GetREETime>:
TEE_GetREETime():
/mnt/disk/raspbian-tee/optee_os/lib/libutee/tee_api.c:283
    131c:	b508      	push	{r3, lr}
/mnt/disk/raspbian-tee/optee_os/lib/libutee/tee_api.c:284
    131e:	4601      	mov	r1, r0
    1320:	2002      	movs	r0, #2
    1322:	f000 ed9c 	blx	1e5c <utee_get_time>
/mnt/disk/raspbian-tee/optee_os/lib/libutee/tee_api.c:286
    1326:	b118      	cbz	r0, 1330 <TEE_GetREETime+0x14>
/mnt/disk/raspbian-tee/optee_os/lib/libutee/tee_api.c:288
    1328:	e8bd 4008 	ldmia.w	sp!, {r3, lr}
/mnt/disk/raspbian-tee/optee_os/lib/libutee/tee_api.c:287
    132c:	f005 bb98 	b.w	6a60 <TEE_Panic>
    1330:	bd08      	pop	{r3, pc}

00001332 <TEE_Malloc>:
TEE_Malloc():
/mnt/disk/raspbian-tee/optee_os/lib/libutee/tee_api.c:291
    1332:	b507      	push	{r0, r1, r2, lr}
/mnt/disk/raspbian-tee/optee_os/lib/libutee/tee_api.c:292
    1334:	b931      	cbnz	r1, 1344 <TEE_Malloc+0x12>
/mnt/disk/raspbian-tee/optee_os/lib/libutee/tee_api.c:293
    1336:	4601      	mov	r1, r0
    1338:	2001      	movs	r0, #1
/mnt/disk/raspbian-tee/optee_os/lib/libutee/tee_api.c:300
    133a:	b003      	add	sp, #12
    133c:	f85d eb04 	ldr.w	lr, [sp], #4
/mnt/disk/raspbian-tee/optee_os/lib/libutee/tee_api.c:293
    1340:	f004 beb8 	b.w	60b4 <calloc>
/mnt/disk/raspbian-tee/optee_os/lib/libutee/tee_api.c:294
    1344:	f1b1 4f00 	cmp.w	r1, #2147483648	; 0x80000000
    1348:	d104      	bne.n	1354 <TEE_Malloc+0x22>
/mnt/disk/raspbian-tee/optee_os/lib/libutee/tee_api.c:300
    134a:	b003      	add	sp, #12
    134c:	f85d eb04 	ldr.w	lr, [sp], #4
/mnt/disk/raspbian-tee/optee_os/lib/libutee/tee_api.c:295
    1350:	f004 bea6 	b.w	60a0 <malloc>
/mnt/disk/raspbian-tee/optee_os/lib/libutee/tee_api.c:297
    1354:	4b07      	ldr	r3, [pc, #28]	; (1374 <TEE_Malloc+0x42>)
    1356:	4808      	ldr	r0, [pc, #32]	; (1378 <TEE_Malloc+0x46>)
    1358:	447b      	add	r3, pc
    135a:	9300      	str	r3, [sp, #0]
    135c:	2301      	movs	r3, #1
    135e:	9101      	str	r1, [sp, #4]
    1360:	461a      	mov	r2, r3
    1362:	f240 1129 	movw	r1, #297	; 0x129
    1366:	4478      	add	r0, pc
    1368:	f7ff f972 	bl	650 <trace_printf>
/mnt/disk/raspbian-tee/optee_os/lib/libutee/tee_api.c:300
    136c:	2000      	movs	r0, #0
    136e:	b003      	add	sp, #12
    1370:	f85d fb04 	ldr.w	pc, [sp], #4
    1374:	00005f77 	.word	0x00005f77
    1378:	00005f5e 	.word	0x00005f5e

0000137c <TEE_Realloc>:
TEE_Realloc():
/mnt/disk/raspbian-tee/optee_os/lib/libutee/tee_api.c:304
    137c:	f004 bebe 	b.w	60fc <realloc>

00001380 <TEE_Free>:
TEE_Free():
/mnt/disk/raspbian-tee/optee_os/lib/libutee/tee_api.c:309
    1380:	f004 be8f 	b.w	60a2 <free>

00001384 <TEE_CacheClean>:
TEE_CacheClean():
/mnt/disk/raspbian-tee/optee_os/lib/libutee/tee_api.c:315
    1384:	2200      	movs	r2, #0
    1386:	f005 bbcf 	b.w	6b28 <__utee_cache_operation_from_thumb>

0000138a <TEE_CacheFlush>:
TEE_CacheFlush():
/mnt/disk/raspbian-tee/optee_os/lib/libutee/tee_api.c:319
    138a:	2201      	movs	r2, #1
    138c:	f005 bbcc 	b.w	6b28 <__utee_cache_operation_from_thumb>

00001390 <TEE_CacheInvalidate>:
TEE_CacheInvalidate():
/mnt/disk/raspbian-tee/optee_os/lib/libutee/tee_api.c:324
    1390:	2202      	movs	r2, #2
    1392:	f005 bbc9 	b.w	6b28 <__utee_cache_operation_from_thumb>
    1396:	bf00      	nop

00001398 <__utee_from_attr>:
__utee_from_attr():
/mnt/disk/raspbian-tee/optee_os/lib/libutee/tee_api_objects.c:19
    1398:	2318      	movs	r3, #24
    139a:	b530      	push	{r4, r5, lr}
/mnt/disk/raspbian-tee/optee_os/lib/libutee/tee_api_objects.c:25
    139c:	2400      	movs	r4, #0
    139e:	fb03 0202 	mla	r2, r3, r2, r0
/mnt/disk/raspbian-tee/optee_os/lib/libutee/tee_api_objects.c:22 (discriminator 1)
    13a2:	4290      	cmp	r0, r2
    13a4:	d100      	bne.n	13a8 <__utee_from_attr+0x10>
/mnt/disk/raspbian-tee/optee_os/lib/libutee/tee_api_objects.c:32
    13a6:	bd30      	pop	{r4, r5, pc}
/mnt/disk/raspbian-tee/optee_os/lib/libutee/tee_api_objects.c:23
    13a8:	680b      	ldr	r3, [r1, #0]
    13aa:	6103      	str	r3, [r0, #16]
/mnt/disk/raspbian-tee/optee_os/lib/libutee/tee_api_objects.c:24
    13ac:	f013 5300 	ands.w	r3, r3, #536870912	; 0x20000000
    13b0:	d008      	beq.n	13c4 <__utee_from_attr+0x2c>
/mnt/disk/raspbian-tee/optee_os/lib/libutee/tee_api_objects.c:25
    13b2:	684b      	ldr	r3, [r1, #4]
    13b4:	e880 0018 	stmia.w	r0, {r3, r4}
/mnt/disk/raspbian-tee/optee_os/lib/libutee/tee_api_objects.c:26
    13b8:	688b      	ldr	r3, [r1, #8]
    13ba:	6083      	str	r3, [r0, #8]
    13bc:	60c4      	str	r4, [r0, #12]
    13be:	310c      	adds	r1, #12
    13c0:	3018      	adds	r0, #24
    13c2:	e7ee      	b.n	13a2 <__utee_from_attr+0xa>
/mnt/disk/raspbian-tee/optee_os/lib/libutee/tee_api_objects.c:28
    13c4:	684d      	ldr	r5, [r1, #4]
    13c6:	6005      	str	r5, [r0, #0]
    13c8:	6043      	str	r3, [r0, #4]
/mnt/disk/raspbian-tee/optee_os/lib/libutee/tee_api_objects.c:29
    13ca:	688d      	ldr	r5, [r1, #8]
    13cc:	6085      	str	r5, [r0, #8]
    13ce:	60c3      	str	r3, [r0, #12]
    13d0:	e7f5      	b.n	13be <__utee_from_attr+0x26>

000013d2 <TEE_GetObjectInfo>:
TEE_GetObjectInfo():
/mnt/disk/raspbian-tee/optee_os/lib/libutee/tee_api_objects.c:42
    13d2:	b510      	push	{r4, lr}
    13d4:	460c      	mov	r4, r1
/mnt/disk/raspbian-tee/optee_os/lib/libutee/tee_api_objects.c:45
    13d6:	f000 edb8 	blx	1f48 <utee_cryp_obj_get_info>
/mnt/disk/raspbian-tee/optee_os/lib/libutee/tee_api_objects.c:47
    13da:	b108      	cbz	r0, 13e0 <TEE_GetObjectInfo+0xe>
/mnt/disk/raspbian-tee/optee_os/lib/libutee/tee_api_objects.c:48
    13dc:	f005 fb40 	bl	6a60 <TEE_Panic>
/mnt/disk/raspbian-tee/optee_os/lib/libutee/tee_api_objects.c:50
    13e0:	6822      	ldr	r2, [r4, #0]
    13e2:	4b05      	ldr	r3, [pc, #20]	; (13f8 <TEE_GetObjectInfo+0x26>)
    13e4:	429a      	cmp	r2, r3
    13e6:	d106      	bne.n	13f6 <TEE_GetObjectInfo+0x24>
/mnt/disk/raspbian-tee/optee_os/lib/libutee/tee_api_objects.c:51
    13e8:	2300      	movs	r3, #0
    13ea:	6063      	str	r3, [r4, #4]
/mnt/disk/raspbian-tee/optee_os/lib/libutee/tee_api_objects.c:52
    13ec:	60a3      	str	r3, [r4, #8]
/mnt/disk/raspbian-tee/optee_os/lib/libutee/tee_api_objects.c:53
    13ee:	60e3      	str	r3, [r4, #12]
/mnt/disk/raspbian-tee/optee_os/lib/libutee/tee_api_objects.c:54
    13f0:	6123      	str	r3, [r4, #16]
/mnt/disk/raspbian-tee/optee_os/lib/libutee/tee_api_objects.c:55
    13f2:	6163      	str	r3, [r4, #20]
/mnt/disk/raspbian-tee/optee_os/lib/libutee/tee_api_objects.c:56
    13f4:	61a3      	str	r3, [r4, #24]
    13f6:	bd10      	pop	{r4, pc}
    13f8:	a00000be 	.word	0xa00000be

000013fc <TEE_GetObjectInfo1>:
TEE_GetObjectInfo1():
/mnt/disk/raspbian-tee/optee_os/lib/libutee/tee_api_objects.c:61
    13fc:	b510      	push	{r4, lr}
/mnt/disk/raspbian-tee/optee_os/lib/libutee/tee_api_objects.c:64
    13fe:	f000 eda4 	blx	1f48 <utee_cryp_obj_get_info>
/mnt/disk/raspbian-tee/optee_os/lib/libutee/tee_api_objects.c:66
    1402:	4604      	mov	r4, r0
    1404:	b130      	cbz	r0, 1414 <TEE_GetObjectInfo1+0x18>
/mnt/disk/raspbian-tee/optee_os/lib/libutee/tee_api_objects.c:66 (discriminator 1)
    1406:	4b04      	ldr	r3, [pc, #16]	; (1418 <TEE_GetObjectInfo1+0x1c>)
    1408:	f020 0202 	bic.w	r2, r0, #2
    140c:	429a      	cmp	r2, r3
    140e:	d001      	beq.n	1414 <TEE_GetObjectInfo1+0x18>
/mnt/disk/raspbian-tee/optee_os/lib/libutee/tee_api_objects.c:69
    1410:	f005 fb26 	bl	6a60 <TEE_Panic>
/mnt/disk/raspbian-tee/optee_os/lib/libutee/tee_api_objects.c:72
    1414:	4620      	mov	r0, r4
    1416:	bd10      	pop	{r4, pc}
    1418:	f0100001 	.word	0xf0100001

0000141c <TEE_RestrictObjectUsage1>:
TEE_RestrictObjectUsage1():
/mnt/disk/raspbian-tee/optee_os/lib/libutee/tee_api_objects.c:96
    141c:	b510      	push	{r4, lr}
/mnt/disk/raspbian-tee/optee_os/lib/libutee/tee_api_objects.c:99
    141e:	f000 ed9e 	blx	1f5c <utee_cryp_obj_restrict_usage>
/mnt/disk/raspbian-tee/optee_os/lib/libutee/tee_api_objects.c:101
    1422:	4604      	mov	r4, r0
    1424:	b130      	cbz	r0, 1434 <TEE_RestrictObjectUsage1+0x18>
/mnt/disk/raspbian-tee/optee_os/lib/libutee/tee_api_objects.c:101 (discriminator 1)
    1426:	4b04      	ldr	r3, [pc, #16]	; (1438 <TEE_RestrictObjectUsage1+0x1c>)
    1428:	f020 0202 	bic.w	r2, r0, #2
    142c:	429a      	cmp	r2, r3
    142e:	d001      	beq.n	1434 <TEE_RestrictObjectUsage1+0x18>
/mnt/disk/raspbian-tee/optee_os/lib/libutee/tee_api_objects.c:104
    1430:	f005 fb16 	bl	6a60 <TEE_Panic>
/mnt/disk/raspbian-tee/optee_os/lib/libutee/tee_api_objects.c:107
    1434:	4620      	mov	r0, r4
    1436:	bd10      	pop	{r4, pc}
    1438:	f0100001 	.word	0xf0100001

0000143c <TEE_RestrictObjectUsage>:
TEE_RestrictObjectUsage():
/mnt/disk/raspbian-tee/optee_os/lib/libutee/tee_api_objects.c:81
    143c:	b530      	push	{r4, r5, lr}
    143e:	460d      	mov	r5, r1
    1440:	4604      	mov	r4, r0
    1442:	b089      	sub	sp, #36	; 0x24
/mnt/disk/raspbian-tee/optee_os/lib/libutee/tee_api_objects.c:85
    1444:	a901      	add	r1, sp, #4
    1446:	f000 ed80 	blx	1f48 <utee_cryp_obj_get_info>
/mnt/disk/raspbian-tee/optee_os/lib/libutee/tee_api_objects.c:86
    144a:	4b06      	ldr	r3, [pc, #24]	; (1464 <TEE_RestrictObjectUsage+0x28>)
    144c:	9a01      	ldr	r2, [sp, #4]
    144e:	429a      	cmp	r2, r3
    1450:	d006      	beq.n	1460 <TEE_RestrictObjectUsage+0x24>
/mnt/disk/raspbian-tee/optee_os/lib/libutee/tee_api_objects.c:89
    1452:	4629      	mov	r1, r5
    1454:	4620      	mov	r0, r4
    1456:	f7ff ffe1 	bl	141c <TEE_RestrictObjectUsage1>
/mnt/disk/raspbian-tee/optee_os/lib/libutee/tee_api_objects.c:91
    145a:	b108      	cbz	r0, 1460 <TEE_RestrictObjectUsage+0x24>
/mnt/disk/raspbian-tee/optee_os/lib/libutee/tee_api_objects.c:92
    145c:	f005 fb00 	bl	6a60 <TEE_Panic>
/mnt/disk/raspbian-tee/optee_os/lib/libutee/tee_api_objects.c:93
    1460:	b009      	add	sp, #36	; 0x24
    1462:	bd30      	pop	{r4, r5, pc}
    1464:	a00000be 	.word	0xa00000be

00001468 <TEE_GetObjectBufferAttribute>:
TEE_GetObjectBufferAttribute():
/mnt/disk/raspbian-tee/optee_os/lib/libutee/tee_api_objects.c:112
    1468:	e92d 41f0 	stmdb	sp!, {r4, r5, r6, r7, r8, lr}
    146c:	460e      	mov	r6, r1
    146e:	4607      	mov	r7, r0
    1470:	b08a      	sub	sp, #40	; 0x28
    1472:	4690      	mov	r8, r2
/mnt/disk/raspbian-tee/optee_os/lib/libutee/tee_api_objects.c:117
    1474:	a903      	add	r1, sp, #12
/mnt/disk/raspbian-tee/optee_os/lib/libutee/tee_api_objects.c:112
    1476:	461d      	mov	r5, r3
/mnt/disk/raspbian-tee/optee_os/lib/libutee/tee_api_objects.c:117
    1478:	f000 ed66 	blx	1f48 <utee_cryp_obj_get_info>
/mnt/disk/raspbian-tee/optee_os/lib/libutee/tee_api_objects.c:118
    147c:	4604      	mov	r4, r0
    147e:	b970      	cbnz	r0, 149e <TEE_GetObjectBufferAttribute+0x36>
/mnt/disk/raspbian-tee/optee_os/lib/libutee/tee_api_objects.c:122
    1480:	00b3      	lsls	r3, r6, #2
    1482:	d422      	bmi.n	14ca <TEE_GetObjectBufferAttribute+0x62>
/mnt/disk/raspbian-tee/optee_os/lib/libutee/tee_api_objects.c:127
    1484:	682b      	ldr	r3, [r5, #0]
/mnt/disk/raspbian-tee/optee_os/lib/libutee/tee_api_objects.c:128
    1486:	4642      	mov	r2, r8
/mnt/disk/raspbian-tee/optee_os/lib/libutee/tee_api_objects.c:127
    1488:	e88d 0018 	stmia.w	sp, {r3, r4}
/mnt/disk/raspbian-tee/optee_os/lib/libutee/tee_api_objects.c:128
    148c:	4631      	mov	r1, r6
    148e:	466b      	mov	r3, sp
    1490:	4638      	mov	r0, r7
    1492:	f000 ed6e 	blx	1f70 <utee_cryp_obj_get_attr>
/mnt/disk/raspbian-tee/optee_os/lib/libutee/tee_api_objects.c:130
    1496:	9b00      	ldr	r3, [sp, #0]
    1498:	602b      	str	r3, [r5, #0]
/mnt/disk/raspbian-tee/optee_os/lib/libutee/tee_api_objects.c:133
    149a:	4604      	mov	r4, r0
    149c:	b188      	cbz	r0, 14c2 <TEE_GetObjectBufferAttribute+0x5a>
/mnt/disk/raspbian-tee/optee_os/lib/libutee/tee_api_objects.c:133 (discriminator 1)
    149e:	4b0c      	ldr	r3, [pc, #48]	; (14d0 <TEE_GetObjectBufferAttribute+0x68>)
    14a0:	429c      	cmp	r4, r3
    14a2:	d00e      	beq.n	14c2 <TEE_GetObjectBufferAttribute+0x5a>
/mnt/disk/raspbian-tee/optee_os/lib/libutee/tee_api_objects.c:134
    14a4:	3308      	adds	r3, #8
    14a6:	429c      	cmp	r4, r3
    14a8:	d00b      	beq.n	14c2 <TEE_GetObjectBufferAttribute+0x5a>
/mnt/disk/raspbian-tee/optee_os/lib/libutee/tee_api_objects.c:135
    14aa:	f1a3 637e 	sub.w	r3, r3, #266338304	; 0xfe00000
    14ae:	f1a3 130f 	sub.w	r3, r3, #983055	; 0xf000f
    14b2:	429c      	cmp	r4, r3
    14b4:	d005      	beq.n	14c2 <TEE_GetObjectBufferAttribute+0x5a>
/mnt/disk/raspbian-tee/optee_os/lib/libutee/tee_api_objects.c:136
    14b6:	3302      	adds	r3, #2
    14b8:	429c      	cmp	r4, r3
    14ba:	d002      	beq.n	14c2 <TEE_GetObjectBufferAttribute+0x5a>
/mnt/disk/raspbian-tee/optee_os/lib/libutee/tee_api_objects.c:138
    14bc:	4620      	mov	r0, r4
    14be:	f005 facf 	bl	6a60 <TEE_Panic>
/mnt/disk/raspbian-tee/optee_os/lib/libutee/tee_api_objects.c:141
    14c2:	4620      	mov	r0, r4
    14c4:	b00a      	add	sp, #40	; 0x28
    14c6:	e8bd 81f0 	ldmia.w	sp!, {r4, r5, r6, r7, r8, pc}
/mnt/disk/raspbian-tee/optee_os/lib/libutee/tee_api_objects.c:123
    14ca:	4c02      	ldr	r4, [pc, #8]	; (14d4 <TEE_GetObjectBufferAttribute+0x6c>)
    14cc:	e7f6      	b.n	14bc <TEE_GetObjectBufferAttribute+0x54>
    14ce:	bf00      	nop
    14d0:	ffff0008 	.word	0xffff0008
    14d4:	ffff0006 	.word	0xffff0006

000014d8 <TEE_GetObjectValueAttribute>:
TEE_GetObjectValueAttribute():
/mnt/disk/raspbian-tee/optee_os/lib/libutee/tee_api_objects.c:146
    14d8:	e92d 41f0 	stmdb	sp!, {r4, r5, r6, r7, r8, lr}
    14dc:	460f      	mov	r7, r1
    14de:	4680      	mov	r8, r0
    14e0:	b08c      	sub	sp, #48	; 0x30
    14e2:	4616      	mov	r6, r2
/mnt/disk/raspbian-tee/optee_os/lib/libutee/tee_api_objects.c:152
    14e4:	a905      	add	r1, sp, #20
/mnt/disk/raspbian-tee/optee_os/lib/libutee/tee_api_objects.c:150
    14e6:	2208      	movs	r2, #8
/mnt/disk/raspbian-tee/optee_os/lib/libutee/tee_api_objects.c:146
    14e8:	461d      	mov	r5, r3
/mnt/disk/raspbian-tee/optee_os/lib/libutee/tee_api_objects.c:150
    14ea:	2300      	movs	r3, #0
    14ec:	e9cd 2300 	strd	r2, r3, [sp]
/mnt/disk/raspbian-tee/optee_os/lib/libutee/tee_api_objects.c:152
    14f0:	f000 ed2a 	blx	1f48 <utee_cryp_obj_get_info>
/mnt/disk/raspbian-tee/optee_os/lib/libutee/tee_api_objects.c:153
    14f4:	4604      	mov	r4, r0
    14f6:	b948      	cbnz	r0, 150c <TEE_GetObjectValueAttribute+0x34>
/mnt/disk/raspbian-tee/optee_os/lib/libutee/tee_api_objects.c:157
    14f8:	00bb      	lsls	r3, r7, #2
    14fa:	d527      	bpl.n	154c <TEE_GetObjectValueAttribute+0x74>
/mnt/disk/raspbian-tee/optee_os/lib/libutee/tee_api_objects.c:162
    14fc:	466b      	mov	r3, sp
    14fe:	aa03      	add	r2, sp, #12
    1500:	4639      	mov	r1, r7
    1502:	4640      	mov	r0, r8
    1504:	f000 ed34 	blx	1f70 <utee_cryp_obj_get_attr>
/mnt/disk/raspbian-tee/optee_os/lib/libutee/tee_api_objects.c:166
    1508:	4604      	mov	r4, r0
    150a:	b158      	cbz	r0, 1524 <TEE_GetObjectValueAttribute+0x4c>
/mnt/disk/raspbian-tee/optee_os/lib/libutee/tee_api_objects.c:166 (discriminator 1)
    150c:	4b10      	ldr	r3, [pc, #64]	; (1550 <TEE_GetObjectValueAttribute+0x78>)
    150e:	429c      	cmp	r4, r3
    1510:	d008      	beq.n	1524 <TEE_GetObjectValueAttribute+0x4c>
/mnt/disk/raspbian-tee/optee_os/lib/libutee/tee_api_objects.c:167
    1512:	4b10      	ldr	r3, [pc, #64]	; (1554 <TEE_GetObjectValueAttribute+0x7c>)
    1514:	429c      	cmp	r4, r3
    1516:	d005      	beq.n	1524 <TEE_GetObjectValueAttribute+0x4c>
/mnt/disk/raspbian-tee/optee_os/lib/libutee/tee_api_objects.c:168
    1518:	3302      	adds	r3, #2
    151a:	429c      	cmp	r4, r3
    151c:	d002      	beq.n	1524 <TEE_GetObjectValueAttribute+0x4c>
/mnt/disk/raspbian-tee/optee_os/lib/libutee/tee_api_objects.c:170
    151e:	4620      	mov	r0, r4
    1520:	f005 fa9e 	bl	6a60 <TEE_Panic>
/mnt/disk/raspbian-tee/optee_os/lib/libutee/tee_api_objects.c:172
    1524:	e9dd 2300 	ldrd	r2, r3, [sp]
    1528:	2b00      	cmp	r3, #0
    152a:	bf08      	it	eq
    152c:	2a08      	cmpeq	r2, #8
    152e:	d002      	beq.n	1536 <TEE_GetObjectValueAttribute+0x5e>
/mnt/disk/raspbian-tee/optee_os/lib/libutee/tee_api_objects.c:173
    1530:	2000      	movs	r0, #0
    1532:	f005 fa95 	bl	6a60 <TEE_Panic>
/mnt/disk/raspbian-tee/optee_os/lib/libutee/tee_api_objects.c:175
    1536:	b92c      	cbnz	r4, 1544 <TEE_GetObjectValueAttribute+0x6c>
/mnt/disk/raspbian-tee/optee_os/lib/libutee/tee_api_objects.c:176
    1538:	b10e      	cbz	r6, 153e <TEE_GetObjectValueAttribute+0x66>
/mnt/disk/raspbian-tee/optee_os/lib/libutee/tee_api_objects.c:177
    153a:	9b03      	ldr	r3, [sp, #12]
    153c:	6033      	str	r3, [r6, #0]
/mnt/disk/raspbian-tee/optee_os/lib/libutee/tee_api_objects.c:178
    153e:	b10d      	cbz	r5, 1544 <TEE_GetObjectValueAttribute+0x6c>
/mnt/disk/raspbian-tee/optee_os/lib/libutee/tee_api_objects.c:179
    1540:	9b04      	ldr	r3, [sp, #16]
    1542:	602b      	str	r3, [r5, #0]
/mnt/disk/raspbian-tee/optee_os/lib/libutee/tee_api_objects.c:183
    1544:	4620      	mov	r0, r4
    1546:	b00c      	add	sp, #48	; 0x30
    1548:	e8bd 81f0 	ldmia.w	sp!, {r4, r5, r6, r7, r8, pc}
/mnt/disk/raspbian-tee/optee_os/lib/libutee/tee_api_objects.c:158
    154c:	4c02      	ldr	r4, [pc, #8]	; (1558 <TEE_GetObjectValueAttribute+0x80>)
    154e:	e7e6      	b.n	151e <TEE_GetObjectValueAttribute+0x46>
    1550:	ffff0008 	.word	0xffff0008
    1554:	f0100001 	.word	0xf0100001
    1558:	ffff0006 	.word	0xffff0006

0000155c <TEE_CloseObject>:
TEE_CloseObject():
/mnt/disk/raspbian-tee/optee_os/lib/libutee/tee_api_objects.c:186
    155c:	b508      	push	{r3, lr}
/mnt/disk/raspbian-tee/optee_os/lib/libutee/tee_api_objects.c:189
    155e:	b130      	cbz	r0, 156e <TEE_CloseObject+0x12>
/mnt/disk/raspbian-tee/optee_os/lib/libutee/tee_api_objects.c:192
    1560:	f000 ed1a 	blx	1f98 <utee_cryp_obj_close>
/mnt/disk/raspbian-tee/optee_os/lib/libutee/tee_api_objects.c:193
    1564:	b118      	cbz	r0, 156e <TEE_CloseObject+0x12>
/mnt/disk/raspbian-tee/optee_os/lib/libutee/tee_api_objects.c:195
    1566:	e8bd 4008 	ldmia.w	sp!, {r3, lr}
/mnt/disk/raspbian-tee/optee_os/lib/libutee/tee_api_objects.c:194
    156a:	f005 ba79 	b.w	6a60 <TEE_Panic>
    156e:	bd08      	pop	{r3, pc}

00001570 <TEE_AllocateTransientObject>:
TEE_AllocateTransientObject():
/mnt/disk/raspbian-tee/optee_os/lib/libutee/tee_api_objects.c:202
    1570:	b537      	push	{r0, r1, r2, r4, r5, lr}
    1572:	4615      	mov	r5, r2
/mnt/disk/raspbian-tee/optee_os/lib/libutee/tee_api_objects.c:206
    1574:	aa01      	add	r2, sp, #4
    1576:	f000 ed06 	blx	1f84 <utee_cryp_obj_alloc>
/mnt/disk/raspbian-tee/optee_os/lib/libutee/tee_api_objects.c:208
    157a:	4604      	mov	r4, r0
    157c:	b150      	cbz	r0, 1594 <TEE_AllocateTransientObject+0x24>
/mnt/disk/raspbian-tee/optee_os/lib/libutee/tee_api_objects.c:208 (discriminator 1)
    157e:	4b07      	ldr	r3, [pc, #28]	; (159c <TEE_AllocateTransientObject+0x2c>)
    1580:	4298      	cmp	r0, r3
    1582:	d004      	beq.n	158e <TEE_AllocateTransientObject+0x1e>
/mnt/disk/raspbian-tee/optee_os/lib/libutee/tee_api_objects.c:209
    1584:	3b02      	subs	r3, #2
    1586:	4298      	cmp	r0, r3
    1588:	d001      	beq.n	158e <TEE_AllocateTransientObject+0x1e>
/mnt/disk/raspbian-tee/optee_os/lib/libutee/tee_api_objects.c:211
    158a:	f005 fa69 	bl	6a60 <TEE_Panic>
/mnt/disk/raspbian-tee/optee_os/lib/libutee/tee_api_objects.c:217
    158e:	4620      	mov	r0, r4
    1590:	b003      	add	sp, #12
    1592:	bd30      	pop	{r4, r5, pc}
/mnt/disk/raspbian-tee/optee_os/lib/libutee/tee_api_objects.c:214
    1594:	9b01      	ldr	r3, [sp, #4]
    1596:	602b      	str	r3, [r5, #0]
    1598:	e7f9      	b.n	158e <TEE_AllocateTransientObject+0x1e>
    159a:	bf00      	nop
    159c:	ffff000c 	.word	0xffff000c

000015a0 <TEE_FreeTransientObject>:
TEE_FreeTransientObject():
/mnt/disk/raspbian-tee/optee_os/lib/libutee/tee_api_objects.c:220
    15a0:	b510      	push	{r4, lr}
/mnt/disk/raspbian-tee/optee_os/lib/libutee/tee_api_objects.c:224
    15a2:	4604      	mov	r4, r0
/mnt/disk/raspbian-tee/optee_os/lib/libutee/tee_api_objects.c:220
    15a4:	b088      	sub	sp, #32
/mnt/disk/raspbian-tee/optee_os/lib/libutee/tee_api_objects.c:224
    15a6:	b188      	cbz	r0, 15cc <TEE_FreeTransientObject+0x2c>
/mnt/disk/raspbian-tee/optee_os/lib/libutee/tee_api_objects.c:227
    15a8:	a901      	add	r1, sp, #4
    15aa:	f000 ecce 	blx	1f48 <utee_cryp_obj_get_info>
/mnt/disk/raspbian-tee/optee_os/lib/libutee/tee_api_objects.c:228
    15ae:	b108      	cbz	r0, 15b4 <TEE_FreeTransientObject+0x14>
/mnt/disk/raspbian-tee/optee_os/lib/libutee/tee_api_objects.c:229
    15b0:	f005 fa56 	bl	6a60 <TEE_Panic>
/mnt/disk/raspbian-tee/optee_os/lib/libutee/tee_api_objects.c:231
    15b4:	9b07      	ldr	r3, [sp, #28]
    15b6:	03db      	lsls	r3, r3, #15
    15b8:	d502      	bpl.n	15c0 <TEE_FreeTransientObject+0x20>
/mnt/disk/raspbian-tee/optee_os/lib/libutee/tee_api_objects.c:232
    15ba:	2000      	movs	r0, #0
    15bc:	f005 fa50 	bl	6a60 <TEE_Panic>
/mnt/disk/raspbian-tee/optee_os/lib/libutee/tee_api_objects.c:234
    15c0:	4620      	mov	r0, r4
    15c2:	f000 ecea 	blx	1f98 <utee_cryp_obj_close>
/mnt/disk/raspbian-tee/optee_os/lib/libutee/tee_api_objects.c:235
    15c6:	b108      	cbz	r0, 15cc <TEE_FreeTransientObject+0x2c>
/mnt/disk/raspbian-tee/optee_os/lib/libutee/tee_api_objects.c:236
    15c8:	f005 fa4a 	bl	6a60 <TEE_Panic>
/mnt/disk/raspbian-tee/optee_os/lib/libutee/tee_api_objects.c:237
    15cc:	b008      	add	sp, #32
    15ce:	bd10      	pop	{r4, pc}

000015d0 <TEE_ResetTransientObject>:
TEE_ResetTransientObject():
/mnt/disk/raspbian-tee/optee_os/lib/libutee/tee_api_objects.c:240
    15d0:	b510      	push	{r4, lr}
/mnt/disk/raspbian-tee/optee_os/lib/libutee/tee_api_objects.c:244
    15d2:	4604      	mov	r4, r0
/mnt/disk/raspbian-tee/optee_os/lib/libutee/tee_api_objects.c:240
    15d4:	b088      	sub	sp, #32
/mnt/disk/raspbian-tee/optee_os/lib/libutee/tee_api_objects.c:244
    15d6:	b188      	cbz	r0, 15fc <TEE_ResetTransientObject+0x2c>
/mnt/disk/raspbian-tee/optee_os/lib/libutee/tee_api_objects.c:247
    15d8:	a901      	add	r1, sp, #4
    15da:	f000 ecb6 	blx	1f48 <utee_cryp_obj_get_info>
/mnt/disk/raspbian-tee/optee_os/lib/libutee/tee_api_objects.c:248
    15de:	b108      	cbz	r0, 15e4 <TEE_ResetTransientObject+0x14>
/mnt/disk/raspbian-tee/optee_os/lib/libutee/tee_api_objects.c:249
    15e0:	f005 fa3e 	bl	6a60 <TEE_Panic>
/mnt/disk/raspbian-tee/optee_os/lib/libutee/tee_api_objects.c:251
    15e4:	9b07      	ldr	r3, [sp, #28]
    15e6:	03db      	lsls	r3, r3, #15
    15e8:	d502      	bpl.n	15f0 <TEE_ResetTransientObject+0x20>
/mnt/disk/raspbian-tee/optee_os/lib/libutee/tee_api_objects.c:252
    15ea:	2000      	movs	r0, #0
    15ec:	f005 fa38 	bl	6a60 <TEE_Panic>
/mnt/disk/raspbian-tee/optee_os/lib/libutee/tee_api_objects.c:254
    15f0:	4620      	mov	r0, r4
    15f2:	f000 ecdc 	blx	1fac <utee_cryp_obj_reset>
/mnt/disk/raspbian-tee/optee_os/lib/libutee/tee_api_objects.c:255
    15f6:	b108      	cbz	r0, 15fc <TEE_ResetTransientObject+0x2c>
/mnt/disk/raspbian-tee/optee_os/lib/libutee/tee_api_objects.c:256
    15f8:	f005 fa32 	bl	6a60 <TEE_Panic>
/mnt/disk/raspbian-tee/optee_os/lib/libutee/tee_api_objects.c:257
    15fc:	b008      	add	sp, #32
    15fe:	bd10      	pop	{r4, pc}

00001600 <TEE_PopulateTransientObject>:
TEE_PopulateTransientObject():
/mnt/disk/raspbian-tee/optee_os/lib/libutee/tee_api_objects.c:265
    1600:	2318      	movs	r3, #24
/mnt/disk/raspbian-tee/optee_os/lib/libutee/tee_api_objects.c:262
    1602:	e92d 41f0 	stmdb	sp!, {r4, r5, r6, r7, r8, lr}
    1606:	4688      	mov	r8, r1
    1608:	b088      	sub	sp, #32
/mnt/disk/raspbian-tee/optee_os/lib/libutee/tee_api_objects.c:265
    160a:	4353      	muls	r3, r2
/mnt/disk/raspbian-tee/optee_os/lib/libutee/tee_api_objects.c:262
    160c:	af00      	add	r7, sp, #0
/mnt/disk/raspbian-tee/optee_os/lib/libutee/tee_api_objects.c:267
    160e:	1d39      	adds	r1, r7, #4
/mnt/disk/raspbian-tee/optee_os/lib/libutee/tee_api_objects.c:262
    1610:	4606      	mov	r6, r0
/mnt/disk/raspbian-tee/optee_os/lib/libutee/tee_api_objects.c:265
    1612:	3308      	adds	r3, #8
/mnt/disk/raspbian-tee/optee_os/lib/libutee/tee_api_objects.c:262
    1614:	4614      	mov	r4, r2
/mnt/disk/raspbian-tee/optee_os/lib/libutee/tee_api_objects.c:265
    1616:	ebad 0d03 	sub.w	sp, sp, r3
    161a:	466d      	mov	r5, sp
/mnt/disk/raspbian-tee/optee_os/lib/libutee/tee_api_objects.c:267
    161c:	f000 ec94 	blx	1f48 <utee_cryp_obj_get_info>
/mnt/disk/raspbian-tee/optee_os/lib/libutee/tee_api_objects.c:268
    1620:	b108      	cbz	r0, 1626 <TEE_PopulateTransientObject+0x26>
/mnt/disk/raspbian-tee/optee_os/lib/libutee/tee_api_objects.c:269
    1622:	f005 fa1d 	bl	6a60 <TEE_Panic>
/mnt/disk/raspbian-tee/optee_os/lib/libutee/tee_api_objects.c:272
    1626:	69fb      	ldr	r3, [r7, #28]
    1628:	03da      	lsls	r2, r3, #15
    162a:	d502      	bpl.n	1632 <TEE_PopulateTransientObject+0x32>
/mnt/disk/raspbian-tee/optee_os/lib/libutee/tee_api_objects.c:273
    162c:	2000      	movs	r0, #0
    162e:	f005 fa17 	bl	6a60 <TEE_Panic>
/mnt/disk/raspbian-tee/optee_os/lib/libutee/tee_api_objects.c:276
    1632:	69fb      	ldr	r3, [r7, #28]
    1634:	039b      	lsls	r3, r3, #14
    1636:	d502      	bpl.n	163e <TEE_PopulateTransientObject+0x3e>
/mnt/disk/raspbian-tee/optee_os/lib/libutee/tee_api_objects.c:277
    1638:	2000      	movs	r0, #0
    163a:	f005 fa11 	bl	6a60 <TEE_Panic>
/mnt/disk/raspbian-tee/optee_os/lib/libutee/tee_api_objects.c:279
    163e:	4622      	mov	r2, r4
    1640:	4641      	mov	r1, r8
    1642:	4628      	mov	r0, r5
    1644:	f7ff fea8 	bl	1398 <__utee_from_attr>
/mnt/disk/raspbian-tee/optee_os/lib/libutee/tee_api_objects.c:280
    1648:	4622      	mov	r2, r4
    164a:	4629      	mov	r1, r5
    164c:	4630      	mov	r0, r6
    164e:	f000 ecb8 	blx	1fc0 <utee_cryp_obj_populate>
/mnt/disk/raspbian-tee/optee_os/lib/libutee/tee_api_objects.c:281
    1652:	4604      	mov	r4, r0
    1654:	b120      	cbz	r0, 1660 <TEE_PopulateTransientObject+0x60>
/mnt/disk/raspbian-tee/optee_os/lib/libutee/tee_api_objects.c:281 (discriminator 1)
    1656:	4b05      	ldr	r3, [pc, #20]	; (166c <TEE_PopulateTransientObject+0x6c>)
    1658:	4298      	cmp	r0, r3
    165a:	d001      	beq.n	1660 <TEE_PopulateTransientObject+0x60>
/mnt/disk/raspbian-tee/optee_os/lib/libutee/tee_api_objects.c:282
    165c:	f005 fa00 	bl	6a60 <TEE_Panic>
/mnt/disk/raspbian-tee/optee_os/lib/libutee/tee_api_objects.c:284
    1660:	4620      	mov	r0, r4
    1662:	3720      	adds	r7, #32
    1664:	46bd      	mov	sp, r7
    1666:	e8bd 81f0 	ldmia.w	sp!, {r4, r5, r6, r7, r8, pc}
    166a:	bf00      	nop
    166c:	ffff0006 	.word	0xffff0006

00001670 <TEE_InitRefAttribute>:
TEE_InitRefAttribute():
/mnt/disk/raspbian-tee/optee_os/lib/libutee/tee_api_objects.c:288
    1670:	b5f8      	push	{r3, r4, r5, r6, r7, lr}
    1672:	460d      	mov	r5, r1
    1674:	4617      	mov	r7, r2
    1676:	461e      	mov	r6, r3
/mnt/disk/raspbian-tee/optee_os/lib/libutee/tee_api_objects.c:289
    1678:	4604      	mov	r4, r0
    167a:	b908      	cbnz	r0, 1680 <TEE_InitRefAttribute+0x10>
/mnt/disk/raspbian-tee/optee_os/lib/libutee/tee_api_objects.c:290
    167c:	f005 f9f0 	bl	6a60 <TEE_Panic>
/mnt/disk/raspbian-tee/optee_os/lib/libutee/tee_api_objects.c:291
    1680:	00ab      	lsls	r3, r5, #2
    1682:	d502      	bpl.n	168a <TEE_InitRefAttribute+0x1a>
/mnt/disk/raspbian-tee/optee_os/lib/libutee/tee_api_objects.c:292
    1684:	2000      	movs	r0, #0
    1686:	f005 f9eb 	bl	6a60 <TEE_Panic>
/mnt/disk/raspbian-tee/optee_os/lib/libutee/tee_api_objects.c:294
    168a:	e884 00a0 	stmia.w	r4, {r5, r7}
/mnt/disk/raspbian-tee/optee_os/lib/libutee/tee_api_objects.c:295
    168e:	60a6      	str	r6, [r4, #8]
    1690:	bdf8      	pop	{r3, r4, r5, r6, r7, pc}

00001692 <TEE_InitValueAttribute>:
TEE_InitValueAttribute():
/mnt/disk/raspbian-tee/optee_os/lib/libutee/tee_api_objects.c:300
    1692:	b5f8      	push	{r3, r4, r5, r6, r7, lr}
    1694:	460d      	mov	r5, r1
    1696:	4617      	mov	r7, r2
    1698:	461e      	mov	r6, r3
/mnt/disk/raspbian-tee/optee_os/lib/libutee/tee_api_objects.c:301
    169a:	4604      	mov	r4, r0
    169c:	b908      	cbnz	r0, 16a2 <TEE_InitValueAttribute+0x10>
/mnt/disk/raspbian-tee/optee_os/lib/libutee/tee_api_objects.c:302
    169e:	f005 f9df 	bl	6a60 <TEE_Panic>
/mnt/disk/raspbian-tee/optee_os/lib/libutee/tee_api_objects.c:303
    16a2:	f015 5000 	ands.w	r0, r5, #536870912	; 0x20000000
    16a6:	d101      	bne.n	16ac <TEE_InitValueAttribute+0x1a>
/mnt/disk/raspbian-tee/optee_os/lib/libutee/tee_api_objects.c:304
    16a8:	f005 f9da 	bl	6a60 <TEE_Panic>
/mnt/disk/raspbian-tee/optee_os/lib/libutee/tee_api_objects.c:306
    16ac:	e884 00a0 	stmia.w	r4, {r5, r7}
/mnt/disk/raspbian-tee/optee_os/lib/libutee/tee_api_objects.c:307
    16b0:	60a6      	str	r6, [r4, #8]
    16b2:	bdf8      	pop	{r3, r4, r5, r6, r7, pc}

000016b4 <TEE_CopyObjectAttributes1>:
TEE_CopyObjectAttributes1():
/mnt/disk/raspbian-tee/optee_os/lib/libutee/tee_api_objects.c:333
    16b4:	b570      	push	{r4, r5, r6, lr}
    16b6:	460d      	mov	r5, r1
    16b8:	4606      	mov	r6, r0
    16ba:	b08e      	sub	sp, #56	; 0x38
/mnt/disk/raspbian-tee/optee_os/lib/libutee/tee_api_objects.c:338
    16bc:	4669      	mov	r1, sp
    16be:	f000 ec44 	blx	1f48 <utee_cryp_obj_get_info>
/mnt/disk/raspbian-tee/optee_os/lib/libutee/tee_api_objects.c:339
    16c2:	4604      	mov	r4, r0
    16c4:	b9e0      	cbnz	r0, 1700 <TEE_CopyObjectAttributes1+0x4c>
/mnt/disk/raspbian-tee/optee_os/lib/libutee/tee_api_objects.c:342
    16c6:	a907      	add	r1, sp, #28
    16c8:	4628      	mov	r0, r5
    16ca:	f000 ec3e 	blx	1f48 <utee_cryp_obj_get_info>
/mnt/disk/raspbian-tee/optee_os/lib/libutee/tee_api_objects.c:343
    16ce:	4604      	mov	r4, r0
    16d0:	b9b0      	cbnz	r0, 1700 <TEE_CopyObjectAttributes1+0x4c>
/mnt/disk/raspbian-tee/optee_os/lib/libutee/tee_api_objects.c:346
    16d2:	9b0d      	ldr	r3, [sp, #52]	; 0x34
    16d4:	0399      	lsls	r1, r3, #14
    16d6:	d401      	bmi.n	16dc <TEE_CopyObjectAttributes1+0x28>
/mnt/disk/raspbian-tee/optee_os/lib/libutee/tee_api_objects.c:347
    16d8:	f005 f9c2 	bl	6a60 <TEE_Panic>
/mnt/disk/raspbian-tee/optee_os/lib/libutee/tee_api_objects.c:349
    16dc:	9b06      	ldr	r3, [sp, #24]
    16de:	03da      	lsls	r2, r3, #15
    16e0:	d502      	bpl.n	16e8 <TEE_CopyObjectAttributes1+0x34>
/mnt/disk/raspbian-tee/optee_os/lib/libutee/tee_api_objects.c:350
    16e2:	2000      	movs	r0, #0
    16e4:	f005 f9bc 	bl	6a60 <TEE_Panic>
/mnt/disk/raspbian-tee/optee_os/lib/libutee/tee_api_objects.c:352
    16e8:	9b06      	ldr	r3, [sp, #24]
    16ea:	039b      	lsls	r3, r3, #14
    16ec:	d502      	bpl.n	16f4 <TEE_CopyObjectAttributes1+0x40>
/mnt/disk/raspbian-tee/optee_os/lib/libutee/tee_api_objects.c:353
    16ee:	2000      	movs	r0, #0
    16f0:	f005 f9b6 	bl	6a60 <TEE_Panic>
/mnt/disk/raspbian-tee/optee_os/lib/libutee/tee_api_objects.c:355
    16f4:	4629      	mov	r1, r5
    16f6:	4630      	mov	r0, r6
    16f8:	f000 ec6c 	blx	1fd4 <utee_cryp_obj_copy>
/mnt/disk/raspbian-tee/optee_os/lib/libutee/tee_api_objects.c:359
    16fc:	4604      	mov	r4, r0
    16fe:	b140      	cbz	r0, 1712 <TEE_CopyObjectAttributes1+0x5e>
/mnt/disk/raspbian-tee/optee_os/lib/libutee/tee_api_objects.c:359 (discriminator 1)
    1700:	4b05      	ldr	r3, [pc, #20]	; (1718 <TEE_CopyObjectAttributes1+0x64>)
    1702:	429c      	cmp	r4, r3
    1704:	d005      	beq.n	1712 <TEE_CopyObjectAttributes1+0x5e>
/mnt/disk/raspbian-tee/optee_os/lib/libutee/tee_api_objects.c:360
    1706:	3302      	adds	r3, #2
    1708:	429c      	cmp	r4, r3
    170a:	d002      	beq.n	1712 <TEE_CopyObjectAttributes1+0x5e>
/mnt/disk/raspbian-tee/optee_os/lib/libutee/tee_api_objects.c:362
    170c:	4620      	mov	r0, r4
    170e:	f005 f9a7 	bl	6a60 <TEE_Panic>
/mnt/disk/raspbian-tee/optee_os/lib/libutee/tee_api_objects.c:365
    1712:	4620      	mov	r0, r4
    1714:	b00e      	add	sp, #56	; 0x38
    1716:	bd70      	pop	{r4, r5, r6, pc}
    1718:	f0100001 	.word	0xf0100001

0000171c <TEE_CopyObjectAttributes>:
TEE_CopyObjectAttributes():
/mnt/disk/raspbian-tee/optee_os/lib/libutee/tee_api_objects.c:318
    171c:	b530      	push	{r4, r5, lr}
    171e:	460c      	mov	r4, r1
    1720:	4605      	mov	r5, r0
    1722:	b089      	sub	sp, #36	; 0x24
/mnt/disk/raspbian-tee/optee_os/lib/libutee/tee_api_objects.c:322
    1724:	4620      	mov	r0, r4
    1726:	a901      	add	r1, sp, #4
    1728:	f000 ec0e 	blx	1f48 <utee_cryp_obj_get_info>
/mnt/disk/raspbian-tee/optee_os/lib/libutee/tee_api_objects.c:323
    172c:	4b06      	ldr	r3, [pc, #24]	; (1748 <TEE_CopyObjectAttributes+0x2c>)
    172e:	9a01      	ldr	r2, [sp, #4]
    1730:	429a      	cmp	r2, r3
    1732:	d006      	beq.n	1742 <TEE_CopyObjectAttributes+0x26>
/mnt/disk/raspbian-tee/optee_os/lib/libutee/tee_api_objects.c:326
    1734:	4621      	mov	r1, r4
    1736:	4628      	mov	r0, r5
    1738:	f7ff ffbc 	bl	16b4 <TEE_CopyObjectAttributes1>
/mnt/disk/raspbian-tee/optee_os/lib/libutee/tee_api_objects.c:327
    173c:	b108      	cbz	r0, 1742 <TEE_CopyObjectAttributes+0x26>
/mnt/disk/raspbian-tee/optee_os/lib/libutee/tee_api_objects.c:328
    173e:	f005 f98f 	bl	6a60 <TEE_Panic>
/mnt/disk/raspbian-tee/optee_os/lib/libutee/tee_api_objects.c:329
    1742:	b009      	add	sp, #36	; 0x24
    1744:	bd30      	pop	{r4, r5, pc}
    1746:	bf00      	nop
    1748:	a00000be 	.word	0xa00000be

0000174c <TEE_GenerateKey>:
TEE_GenerateKey():
/mnt/disk/raspbian-tee/optee_os/lib/libutee/tee_api_objects.c:369
    174c:	e92d 41f0 	stmdb	sp!, {r4, r5, r6, r7, r8, lr}
    1750:	4688      	mov	r8, r1
    1752:	4611      	mov	r1, r2
/mnt/disk/raspbian-tee/optee_os/lib/libutee/tee_api_objects.c:371
    1754:	2218      	movs	r2, #24
/mnt/disk/raspbian-tee/optee_os/lib/libutee/tee_api_objects.c:369
    1756:	af00      	add	r7, sp, #0
    1758:	461c      	mov	r4, r3
    175a:	4606      	mov	r6, r0
/mnt/disk/raspbian-tee/optee_os/lib/libutee/tee_api_objects.c:371
    175c:	435a      	muls	r2, r3
    175e:	3208      	adds	r2, #8
    1760:	ebad 0d02 	sub.w	sp, sp, r2
/mnt/disk/raspbian-tee/optee_os/lib/libutee/tee_api_objects.c:373
    1764:	461a      	mov	r2, r3
    1766:	4668      	mov	r0, sp
    1768:	f7ff fe16 	bl	1398 <__utee_from_attr>
/mnt/disk/raspbian-tee/optee_os/lib/libutee/tee_api_objects.c:374
    176c:	4623      	mov	r3, r4
    176e:	466a      	mov	r2, sp
    1770:	4641      	mov	r1, r8
    1772:	4630      	mov	r0, r6
    1774:	f000 ed24 	blx	21c0 <utee_cryp_obj_generate_key>
/mnt/disk/raspbian-tee/optee_os/lib/libutee/tee_api_objects.c:377
    1778:	4604      	mov	r4, r0
    177a:	b120      	cbz	r0, 1786 <TEE_GenerateKey+0x3a>
/mnt/disk/raspbian-tee/optee_os/lib/libutee/tee_api_objects.c:377 (discriminator 1)
    177c:	4b04      	ldr	r3, [pc, #16]	; (1790 <TEE_GenerateKey+0x44>)
    177e:	4298      	cmp	r0, r3
    1780:	d001      	beq.n	1786 <TEE_GenerateKey+0x3a>
/mnt/disk/raspbian-tee/optee_os/lib/libutee/tee_api_objects.c:378
    1782:	f005 f96d 	bl	6a60 <TEE_Panic>
/mnt/disk/raspbian-tee/optee_os/lib/libutee/tee_api_objects.c:381
    1786:	4620      	mov	r0, r4
    1788:	46bd      	mov	sp, r7
    178a:	e8bd 81f0 	ldmia.w	sp!, {r4, r5, r6, r7, r8, pc}
    178e:	bf00      	nop
    1790:	ffff0006 	.word	0xffff0006

00001794 <TEE_OpenPersistentObject>:
TEE_OpenPersistentObject():
/mnt/disk/raspbian-tee/optee_os/lib/libutee/tee_api_objects.c:388
    1794:	b530      	push	{r4, r5, lr}
    1796:	b085      	sub	sp, #20
    1798:	9d08      	ldr	r5, [sp, #32]
/mnt/disk/raspbian-tee/optee_os/lib/libutee/tee_api_objects.c:392
    179a:	b919      	cbnz	r1, 17a4 <TEE_OpenPersistentObject+0x10>
    179c:	4c12      	ldr	r4, [pc, #72]	; (17e8 <TEE_OpenPersistentObject+0x54>)
/mnt/disk/raspbian-tee/optee_os/lib/libutee/tee_api_objects.c:422
    179e:	4620      	mov	r0, r4
    17a0:	b005      	add	sp, #20
    17a2:	bd30      	pop	{r4, r5, pc}
/mnt/disk/raspbian-tee/optee_os/lib/libutee/tee_api_objects.c:397
    17a4:	2a40      	cmp	r2, #64	; 0x40
    17a6:	d809      	bhi.n	17bc <TEE_OpenPersistentObject+0x28>
/mnt/disk/raspbian-tee/optee_os/lib/libutee/tee_api_objects.c:402
    17a8:	b145      	cbz	r5, 17bc <TEE_OpenPersistentObject+0x28>
/mnt/disk/raspbian-tee/optee_os/lib/libutee/tee_api_objects.c:407
    17aa:	ac03      	add	r4, sp, #12
    17ac:	9400      	str	r4, [sp, #0]
    17ae:	f000 ec82 	blx	20b4 <utee_storage_obj_open>
/mnt/disk/raspbian-tee/optee_os/lib/libutee/tee_api_objects.c:409
    17b2:	4604      	mov	r4, r0
    17b4:	b920      	cbnz	r0, 17c0 <TEE_OpenPersistentObject+0x2c>
/mnt/disk/raspbian-tee/optee_os/lib/libutee/tee_api_objects.c:410
    17b6:	9b03      	ldr	r3, [sp, #12]
    17b8:	602b      	str	r3, [r5, #0]
    17ba:	e7f0      	b.n	179e <TEE_OpenPersistentObject+0xa>
    17bc:	4c0b      	ldr	r4, [pc, #44]	; (17ec <TEE_OpenPersistentObject+0x58>)
    17be:	e00e      	b.n	17de <TEE_OpenPersistentObject+0x4a>
/mnt/disk/raspbian-tee/optee_os/lib/libutee/tee_api_objects.c:413
    17c0:	4b09      	ldr	r3, [pc, #36]	; (17e8 <TEE_OpenPersistentObject+0x54>)
    17c2:	4298      	cmp	r0, r3
    17c4:	d0ea      	beq.n	179c <TEE_OpenPersistentObject+0x8>
/mnt/disk/raspbian-tee/optee_os/lib/libutee/tee_api_objects.c:414
    17c6:	4b0a      	ldr	r3, [pc, #40]	; (17f0 <TEE_OpenPersistentObject+0x5c>)
    17c8:	429c      	cmp	r4, r3
    17ca:	d0e8      	beq.n	179e <TEE_OpenPersistentObject+0xa>
/mnt/disk/raspbian-tee/optee_os/lib/libutee/tee_api_objects.c:415
    17cc:	3309      	adds	r3, #9
    17ce:	429c      	cmp	r4, r3
    17d0:	d0e5      	beq.n	179e <TEE_OpenPersistentObject+0xa>
/mnt/disk/raspbian-tee/optee_os/lib/libutee/tee_api_objects.c:416
    17d2:	4b08      	ldr	r3, [pc, #32]	; (17f4 <TEE_OpenPersistentObject+0x60>)
    17d4:	429c      	cmp	r4, r3
    17d6:	d0e2      	beq.n	179e <TEE_OpenPersistentObject+0xa>
/mnt/disk/raspbian-tee/optee_os/lib/libutee/tee_api_objects.c:417
    17d8:	3302      	adds	r3, #2
    17da:	429c      	cmp	r4, r3
    17dc:	d0df      	beq.n	179e <TEE_OpenPersistentObject+0xa>
/mnt/disk/raspbian-tee/optee_os/lib/libutee/tee_api_objects.c:419
    17de:	4620      	mov	r0, r4
    17e0:	f005 f93e 	bl	6a60 <TEE_Panic>
/mnt/disk/raspbian-tee/optee_os/lib/libutee/tee_api_objects.c:421
    17e4:	e7db      	b.n	179e <TEE_OpenPersistentObject+0xa>
    17e6:	bf00      	nop
    17e8:	ffff0008 	.word	0xffff0008
    17ec:	ffff0006 	.word	0xffff0006
    17f0:	ffff0003 	.word	0xffff0003
    17f4:	f0100001 	.word	0xf0100001

000017f8 <TEE_CreatePersistentObject>:
TEE_CreatePersistentObject():
/mnt/disk/raspbian-tee/optee_os/lib/libutee/tee_api_objects.c:430
    17f8:	b530      	push	{r4, r5, lr}
    17fa:	b087      	sub	sp, #28
    17fc:	9c0d      	ldr	r4, [sp, #52]	; 0x34
/mnt/disk/raspbian-tee/optee_os/lib/libutee/tee_api_objects.c:434
    17fe:	2900      	cmp	r1, #0
    1800:	d033      	beq.n	186a <TEE_CreatePersistentObject+0x72>
/mnt/disk/raspbian-tee/optee_os/lib/libutee/tee_api_objects.c:439
    1802:	2a40      	cmp	r2, #64	; 0x40
    1804:	d835      	bhi.n	1872 <TEE_CreatePersistentObject+0x7a>
/mnt/disk/raspbian-tee/optee_os/lib/libutee/tee_api_objects.c:444
    1806:	ad05      	add	r5, sp, #20
    1808:	9503      	str	r5, [sp, #12]
    180a:	9d0c      	ldr	r5, [sp, #48]	; 0x30
    180c:	9502      	str	r5, [sp, #8]
    180e:	9d0b      	ldr	r5, [sp, #44]	; 0x2c
    1810:	9501      	str	r5, [sp, #4]
    1812:	9d0a      	ldr	r5, [sp, #40]	; 0x28
    1814:	9500      	str	r5, [sp, #0]
    1816:	f000 ec5a 	blx	20cc <utee_storage_obj_create>
/mnt/disk/raspbian-tee/optee_os/lib/libutee/tee_api_objects.c:447
    181a:	b970      	cbnz	r0, 183a <TEE_CreatePersistentObject+0x42>
/mnt/disk/raspbian-tee/optee_os/lib/libutee/tee_api_objects.c:448
    181c:	b11c      	cbz	r4, 1826 <TEE_CreatePersistentObject+0x2e>
/mnt/disk/raspbian-tee/optee_os/lib/libutee/tee_api_objects.c:449
    181e:	9b05      	ldr	r3, [sp, #20]
    1820:	6023      	str	r3, [r4, #0]
/mnt/disk/raspbian-tee/optee_os/lib/libutee/tee_api_objects.c:468
    1822:	b007      	add	sp, #28
    1824:	bd30      	pop	{r4, r5, pc}
/mnt/disk/raspbian-tee/optee_os/lib/libutee/tee_api_objects.c:451
    1826:	9805      	ldr	r0, [sp, #20]
    1828:	f000 ebb6 	blx	1f98 <utee_cryp_obj_close>
/mnt/disk/raspbian-tee/optee_os/lib/libutee/tee_api_objects.c:452
    182c:	2800      	cmp	r0, #0
    182e:	d0f8      	beq.n	1822 <TEE_CreatePersistentObject+0x2a>
/mnt/disk/raspbian-tee/optee_os/lib/libutee/tee_api_objects.c:458
    1830:	4b12      	ldr	r3, [pc, #72]	; (187c <TEE_CreatePersistentObject+0x84>)
    1832:	4298      	cmp	r0, r3
    1834:	d106      	bne.n	1844 <TEE_CreatePersistentObject+0x4c>
/mnt/disk/raspbian-tee/optee_os/lib/libutee/tee_api_objects.c:467
    1836:	4811      	ldr	r0, [pc, #68]	; (187c <TEE_CreatePersistentObject+0x84>)
    1838:	e7f3      	b.n	1822 <TEE_CreatePersistentObject+0x2a>
/mnt/disk/raspbian-tee/optee_os/lib/libutee/tee_api_objects.c:456
    183a:	2c00      	cmp	r4, #0
    183c:	d0f8      	beq.n	1830 <TEE_CreatePersistentObject+0x38>
/mnt/disk/raspbian-tee/optee_os/lib/libutee/tee_api_objects.c:457
    183e:	2300      	movs	r3, #0
    1840:	6023      	str	r3, [r4, #0]
    1842:	e7f5      	b.n	1830 <TEE_CreatePersistentObject+0x38>
/mnt/disk/raspbian-tee/optee_os/lib/libutee/tee_api_objects.c:458 (discriminator 1)
    1844:	4b0e      	ldr	r3, [pc, #56]	; (1880 <TEE_CreatePersistentObject+0x88>)
    1846:	4298      	cmp	r0, r3
    1848:	d0eb      	beq.n	1822 <TEE_CreatePersistentObject+0x2a>
/mnt/disk/raspbian-tee/optee_os/lib/libutee/tee_api_objects.c:459
    184a:	3309      	adds	r3, #9
    184c:	4298      	cmp	r0, r3
    184e:	d0e8      	beq.n	1822 <TEE_CreatePersistentObject+0x2a>
/mnt/disk/raspbian-tee/optee_os/lib/libutee/tee_api_objects.c:460
    1850:	4b0c      	ldr	r3, [pc, #48]	; (1884 <TEE_CreatePersistentObject+0x8c>)
    1852:	4298      	cmp	r0, r3
    1854:	d0e5      	beq.n	1822 <TEE_CreatePersistentObject+0x2a>
/mnt/disk/raspbian-tee/optee_os/lib/libutee/tee_api_objects.c:461
    1856:	4b0c      	ldr	r3, [pc, #48]	; (1888 <TEE_CreatePersistentObject+0x90>)
    1858:	4298      	cmp	r0, r3
    185a:	d0e2      	beq.n	1822 <TEE_CreatePersistentObject+0x2a>
/mnt/disk/raspbian-tee/optee_os/lib/libutee/tee_api_objects.c:462
    185c:	3302      	adds	r3, #2
    185e:	4298      	cmp	r0, r3
    1860:	d0df      	beq.n	1822 <TEE_CreatePersistentObject+0x2a>
/mnt/disk/raspbian-tee/optee_os/lib/libutee/tee_api_objects.c:465
    1862:	f005 f8fd 	bl	6a60 <TEE_Panic>
/mnt/disk/raspbian-tee/optee_os/lib/libutee/tee_api_objects.c:467
    1866:	2000      	movs	r0, #0
    1868:	e7db      	b.n	1822 <TEE_CreatePersistentObject+0x2a>
/mnt/disk/raspbian-tee/optee_os/lib/libutee/tee_api_objects.c:456
    186a:	2c00      	cmp	r4, #0
    186c:	d0e3      	beq.n	1836 <TEE_CreatePersistentObject+0x3e>
/mnt/disk/raspbian-tee/optee_os/lib/libutee/tee_api_objects.c:435
    186e:	4803      	ldr	r0, [pc, #12]	; (187c <TEE_CreatePersistentObject+0x84>)
    1870:	e7e5      	b.n	183e <TEE_CreatePersistentObject+0x46>
/mnt/disk/raspbian-tee/optee_os/lib/libutee/tee_api_objects.c:440
    1872:	4806      	ldr	r0, [pc, #24]	; (188c <TEE_CreatePersistentObject+0x94>)
/mnt/disk/raspbian-tee/optee_os/lib/libutee/tee_api_objects.c:456
    1874:	2c00      	cmp	r4, #0
    1876:	d1e2      	bne.n	183e <TEE_CreatePersistentObject+0x46>
    1878:	e7f3      	b.n	1862 <TEE_CreatePersistentObject+0x6a>
    187a:	bf00      	nop
    187c:	ffff0008 	.word	0xffff0008
    1880:	ffff0003 	.word	0xffff0003
    1884:	ffff3041 	.word	0xffff3041
    1888:	f0100001 	.word	0xf0100001
    188c:	ffff0006 	.word	0xffff0006

00001890 <TEE_CloseAndDeletePersistentObject1>:
TEE_CloseAndDeletePersistentObject1():
/mnt/disk/raspbian-tee/optee_os/lib/libutee/tee_api_objects.c:490
    1890:	b510      	push	{r4, lr}
/mnt/disk/raspbian-tee/optee_os/lib/libutee/tee_api_objects.c:493
    1892:	b150      	cbz	r0, 18aa <TEE_CloseAndDeletePersistentObject1+0x1a>
/mnt/disk/raspbian-tee/optee_os/lib/libutee/tee_api_objects.c:496
    1894:	f000 ec26 	blx	20e4 <utee_storage_obj_del>
/mnt/disk/raspbian-tee/optee_os/lib/libutee/tee_api_objects.c:498
    1898:	4604      	mov	r4, r0
    189a:	b120      	cbz	r0, 18a6 <TEE_CloseAndDeletePersistentObject1+0x16>
    189c:	4b04      	ldr	r3, [pc, #16]	; (18b0 <TEE_CloseAndDeletePersistentObject1+0x20>)
    189e:	4298      	cmp	r0, r3
    18a0:	d001      	beq.n	18a6 <TEE_CloseAndDeletePersistentObject1+0x16>
/mnt/disk/raspbian-tee/optee_os/lib/libutee/tee_api_objects.c:499
    18a2:	f005 f8dd 	bl	6a60 <TEE_Panic>
/mnt/disk/raspbian-tee/optee_os/lib/libutee/tee_api_objects.c:502
    18a6:	4620      	mov	r0, r4
    18a8:	bd10      	pop	{r4, pc}
/mnt/disk/raspbian-tee/optee_os/lib/libutee/tee_api_objects.c:494
    18aa:	4c01      	ldr	r4, [pc, #4]	; (18b0 <TEE_CloseAndDeletePersistentObject1+0x20>)
    18ac:	e7fb      	b.n	18a6 <TEE_CloseAndDeletePersistentObject1+0x16>
    18ae:	bf00      	nop
    18b0:	f0100003 	.word	0xf0100003

000018b4 <TEE_CloseAndDeletePersistentObject>:
TEE_CloseAndDeletePersistentObject():
/mnt/disk/raspbian-tee/optee_os/lib/libutee/tee_api_objects.c:477
    18b4:	b508      	push	{r3, lr}
/mnt/disk/raspbian-tee/optee_os/lib/libutee/tee_api_objects.c:480
    18b6:	b138      	cbz	r0, 18c8 <TEE_CloseAndDeletePersistentObject+0x14>
/mnt/disk/raspbian-tee/optee_os/lib/libutee/tee_api_objects.c:483
    18b8:	f7ff ffea 	bl	1890 <TEE_CloseAndDeletePersistentObject1>
/mnt/disk/raspbian-tee/optee_os/lib/libutee/tee_api_objects.c:485
    18bc:	b120      	cbz	r0, 18c8 <TEE_CloseAndDeletePersistentObject+0x14>
/mnt/disk/raspbian-tee/optee_os/lib/libutee/tee_api_objects.c:486
    18be:	2000      	movs	r0, #0
/mnt/disk/raspbian-tee/optee_os/lib/libutee/tee_api_objects.c:487
    18c0:	e8bd 4008 	ldmia.w	sp!, {r3, lr}
/mnt/disk/raspbian-tee/optee_os/lib/libutee/tee_api_objects.c:486
    18c4:	f005 b8cc 	b.w	6a60 <TEE_Panic>
    18c8:	bd08      	pop	{r3, pc}

000018ca <TEE_RenamePersistentObject>:
TEE_RenamePersistentObject():
/mnt/disk/raspbian-tee/optee_os/lib/libutee/tee_api_objects.c:508
    18ca:	b510      	push	{r4, lr}
/mnt/disk/raspbian-tee/optee_os/lib/libutee/tee_api_objects.c:511
    18cc:	b1a0      	cbz	r0, 18f8 <TEE_RenamePersistentObject+0x2e>
/mnt/disk/raspbian-tee/optee_os/lib/libutee/tee_api_objects.c:516
    18ce:	b1a9      	cbz	r1, 18fc <TEE_RenamePersistentObject+0x32>
/mnt/disk/raspbian-tee/optee_os/lib/libutee/tee_api_objects.c:521
    18d0:	2a40      	cmp	r2, #64	; 0x40
    18d2:	d813      	bhi.n	18fc <TEE_RenamePersistentObject+0x32>
/mnt/disk/raspbian-tee/optee_os/lib/libutee/tee_api_objects.c:526
    18d4:	f000 ec10 	blx	20f8 <utee_storage_obj_rename>
/mnt/disk/raspbian-tee/optee_os/lib/libutee/tee_api_objects.c:530
    18d8:	4604      	mov	r4, r0
    18da:	b158      	cbz	r0, 18f4 <TEE_RenamePersistentObject+0x2a>
/mnt/disk/raspbian-tee/optee_os/lib/libutee/tee_api_objects.c:530 (discriminator 1)
    18dc:	4b08      	ldr	r3, [pc, #32]	; (1900 <TEE_RenamePersistentObject+0x36>)
    18de:	4298      	cmp	r0, r3
    18e0:	d008      	beq.n	18f4 <TEE_RenamePersistentObject+0x2a>
/mnt/disk/raspbian-tee/optee_os/lib/libutee/tee_api_objects.c:531
    18e2:	4b08      	ldr	r3, [pc, #32]	; (1904 <TEE_RenamePersistentObject+0x3a>)
    18e4:	4298      	cmp	r0, r3
    18e6:	d005      	beq.n	18f4 <TEE_RenamePersistentObject+0x2a>
/mnt/disk/raspbian-tee/optee_os/lib/libutee/tee_api_objects.c:532
    18e8:	3302      	adds	r3, #2
    18ea:	4298      	cmp	r0, r3
    18ec:	d002      	beq.n	18f4 <TEE_RenamePersistentObject+0x2a>
/mnt/disk/raspbian-tee/optee_os/lib/libutee/tee_api_objects.c:534
    18ee:	4620      	mov	r0, r4
    18f0:	f005 f8b6 	bl	6a60 <TEE_Panic>
/mnt/disk/raspbian-tee/optee_os/lib/libutee/tee_api_objects.c:537
    18f4:	4620      	mov	r0, r4
    18f6:	bd10      	pop	{r4, pc}
/mnt/disk/raspbian-tee/optee_os/lib/libutee/tee_api_objects.c:512
    18f8:	4c03      	ldr	r4, [pc, #12]	; (1908 <TEE_RenamePersistentObject+0x3e>)
    18fa:	e7f8      	b.n	18ee <TEE_RenamePersistentObject+0x24>
/mnt/disk/raspbian-tee/optee_os/lib/libutee/tee_api_objects.c:517
    18fc:	4c03      	ldr	r4, [pc, #12]	; (190c <TEE_RenamePersistentObject+0x42>)
    18fe:	e7f6      	b.n	18ee <TEE_RenamePersistentObject+0x24>
    1900:	ffff0003 	.word	0xffff0003
    1904:	f0100001 	.word	0xf0100001
    1908:	ffff0008 	.word	0xffff0008
    190c:	ffff0006 	.word	0xffff0006

00001910 <TEE_AllocatePersistentObjectEnumerator>:
TEE_AllocatePersistentObjectEnumerator():
/mnt/disk/raspbian-tee/optee_os/lib/libutee/tee_api_objects.c:541
    1910:	b537      	push	{r0, r1, r2, r4, r5, lr}
/mnt/disk/raspbian-tee/optee_os/lib/libutee/tee_api_objects.c:545
    1912:	4605      	mov	r5, r0
    1914:	b190      	cbz	r0, 193c <TEE_AllocatePersistentObjectEnumerator+0x2c>
/mnt/disk/raspbian-tee/optee_os/lib/libutee/tee_api_objects.c:548
    1916:	a801      	add	r0, sp, #4
    1918:	f000 ebf8 	blx	210c <utee_storage_alloc_enum>
/mnt/disk/raspbian-tee/optee_os/lib/libutee/tee_api_objects.c:550
    191c:	4604      	mov	r4, r0
    191e:	b108      	cbz	r0, 1924 <TEE_AllocatePersistentObjectEnumerator+0x14>
/mnt/disk/raspbian-tee/optee_os/lib/libutee/tee_api_objects.c:551
    1920:	2300      	movs	r3, #0
    1922:	9301      	str	r3, [sp, #4]
/mnt/disk/raspbian-tee/optee_os/lib/libutee/tee_api_objects.c:553
    1924:	9b01      	ldr	r3, [sp, #4]
    1926:	602b      	str	r3, [r5, #0]
/mnt/disk/raspbian-tee/optee_os/lib/libutee/tee_api_objects.c:555
    1928:	b12c      	cbz	r4, 1936 <TEE_AllocatePersistentObjectEnumerator+0x26>
/mnt/disk/raspbian-tee/optee_os/lib/libutee/tee_api_objects.c:555 (discriminator 1)
    192a:	4b05      	ldr	r3, [pc, #20]	; (1940 <TEE_AllocatePersistentObjectEnumerator+0x30>)
    192c:	429c      	cmp	r4, r3
    192e:	d002      	beq.n	1936 <TEE_AllocatePersistentObjectEnumerator+0x26>
/mnt/disk/raspbian-tee/optee_os/lib/libutee/tee_api_objects.c:557
    1930:	4620      	mov	r0, r4
    1932:	f005 f895 	bl	6a60 <TEE_Panic>
/mnt/disk/raspbian-tee/optee_os/lib/libutee/tee_api_objects.c:560
    1936:	4620      	mov	r0, r4
    1938:	b003      	add	sp, #12
    193a:	bd30      	pop	{r4, r5, pc}
/mnt/disk/raspbian-tee/optee_os/lib/libutee/tee_api_objects.c:546
    193c:	4c01      	ldr	r4, [pc, #4]	; (1944 <TEE_AllocatePersistentObjectEnumerator+0x34>)
    193e:	e7fa      	b.n	1936 <TEE_AllocatePersistentObjectEnumerator+0x26>
    1940:	ffff0003 	.word	0xffff0003
    1944:	ffff0006 	.word	0xffff0006

00001948 <TEE_FreePersistentObjectEnumerator>:
TEE_FreePersistentObjectEnumerator():
/mnt/disk/raspbian-tee/optee_os/lib/libutee/tee_api_objects.c:563
    1948:	b508      	push	{r3, lr}
/mnt/disk/raspbian-tee/optee_os/lib/libutee/tee_api_objects.c:566
    194a:	b130      	cbz	r0, 195a <TEE_FreePersistentObjectEnumerator+0x12>
/mnt/disk/raspbian-tee/optee_os/lib/libutee/tee_api_objects.c:569
    194c:	f000 ebe8 	blx	2120 <utee_storage_free_enum>
/mnt/disk/raspbian-tee/optee_os/lib/libutee/tee_api_objects.c:571
    1950:	b118      	cbz	r0, 195a <TEE_FreePersistentObjectEnumerator+0x12>
/mnt/disk/raspbian-tee/optee_os/lib/libutee/tee_api_objects.c:573
    1952:	e8bd 4008 	ldmia.w	sp!, {r3, lr}
/mnt/disk/raspbian-tee/optee_os/lib/libutee/tee_api_objects.c:572
    1956:	f005 b883 	b.w	6a60 <TEE_Panic>
    195a:	bd08      	pop	{r3, pc}

0000195c <TEE_ResetPersistentObjectEnumerator>:
TEE_ResetPersistentObjectEnumerator():
/mnt/disk/raspbian-tee/optee_os/lib/libutee/tee_api_objects.c:576
    195c:	b508      	push	{r3, lr}
/mnt/disk/raspbian-tee/optee_os/lib/libutee/tee_api_objects.c:579
    195e:	b130      	cbz	r0, 196e <TEE_ResetPersistentObjectEnumerator+0x12>
/mnt/disk/raspbian-tee/optee_os/lib/libutee/tee_api_objects.c:582
    1960:	f000 ebe8 	blx	2134 <utee_storage_reset_enum>
/mnt/disk/raspbian-tee/optee_os/lib/libutee/tee_api_objects.c:584
    1964:	b118      	cbz	r0, 196e <TEE_ResetPersistentObjectEnumerator+0x12>
/mnt/disk/raspbian-tee/optee_os/lib/libutee/tee_api_objects.c:586
    1966:	e8bd 4008 	ldmia.w	sp!, {r3, lr}
/mnt/disk/raspbian-tee/optee_os/lib/libutee/tee_api_objects.c:585
    196a:	f005 b879 	b.w	6a60 <TEE_Panic>
    196e:	bd08      	pop	{r3, pc}

00001970 <TEE_StartPersistentObjectEnumerator>:
TEE_StartPersistentObjectEnumerator():
/mnt/disk/raspbian-tee/optee_os/lib/libutee/tee_api_objects.c:591
    1970:	b510      	push	{r4, lr}
/mnt/disk/raspbian-tee/optee_os/lib/libutee/tee_api_objects.c:594
    1972:	f000 ebea 	blx	2148 <utee_storage_start_enum>
/mnt/disk/raspbian-tee/optee_os/lib/libutee/tee_api_objects.c:597
    1976:	4604      	mov	r4, r0
    1978:	b148      	cbz	r0, 198e <TEE_StartPersistentObjectEnumerator+0x1e>
/mnt/disk/raspbian-tee/optee_os/lib/libutee/tee_api_objects.c:597 (discriminator 1)
    197a:	4b06      	ldr	r3, [pc, #24]	; (1994 <TEE_StartPersistentObjectEnumerator+0x24>)
    197c:	4298      	cmp	r0, r3
    197e:	d006      	beq.n	198e <TEE_StartPersistentObjectEnumerator+0x1e>
/mnt/disk/raspbian-tee/optee_os/lib/libutee/tee_api_objects.c:598
    1980:	4b05      	ldr	r3, [pc, #20]	; (1998 <TEE_StartPersistentObjectEnumerator+0x28>)
    1982:	f020 0202 	bic.w	r2, r0, #2
    1986:	429a      	cmp	r2, r3
    1988:	d001      	beq.n	198e <TEE_StartPersistentObjectEnumerator+0x1e>
/mnt/disk/raspbian-tee/optee_os/lib/libutee/tee_api_objects.c:601
    198a:	f005 f869 	bl	6a60 <TEE_Panic>
/mnt/disk/raspbian-tee/optee_os/lib/libutee/tee_api_objects.c:604
    198e:	4620      	mov	r0, r4
    1990:	bd10      	pop	{r4, pc}
    1992:	bf00      	nop
    1994:	ffff0008 	.word	0xffff0008
    1998:	f0100001 	.word	0xf0100001

0000199c <TEE_GetNextPersistentObject>:
TEE_GetNextPersistentObject():
/mnt/disk/raspbian-tee/optee_os/lib/libutee/tee_api_objects.c:609
    199c:	b510      	push	{r4, lr}
    199e:	461c      	mov	r4, r3
    19a0:	b08a      	sub	sp, #40	; 0x28
/mnt/disk/raspbian-tee/optee_os/lib/libutee/tee_api_objects.c:615
    19a2:	b1e2      	cbz	r2, 19de <TEE_GetNextPersistentObject+0x42>
/mnt/disk/raspbian-tee/optee_os/lib/libutee/tee_api_objects.c:620
    19a4:	b1db      	cbz	r3, 19de <TEE_GetNextPersistentObject+0x42>
/mnt/disk/raspbian-tee/optee_os/lib/libutee/tee_api_objects.c:625
    19a6:	b901      	cbnz	r1, 19aa <TEE_GetNextPersistentObject+0xe>
/mnt/disk/raspbian-tee/optee_os/lib/libutee/tee_api_objects.c:628
    19a8:	a903      	add	r1, sp, #12
/mnt/disk/raspbian-tee/optee_os/lib/libutee/tee_api_objects.c:629
    19aa:	6823      	ldr	r3, [r4, #0]
    19ac:	9300      	str	r3, [sp, #0]
    19ae:	2300      	movs	r3, #0
    19b0:	9301      	str	r3, [sp, #4]
/mnt/disk/raspbian-tee/optee_os/lib/libutee/tee_api_objects.c:630
    19b2:	466b      	mov	r3, sp
    19b4:	f000 ebd2 	blx	215c <utee_storage_next_enum>
/mnt/disk/raspbian-tee/optee_os/lib/libutee/tee_api_objects.c:632
    19b8:	9b00      	ldr	r3, [sp, #0]
    19ba:	6023      	str	r3, [r4, #0]
/mnt/disk/raspbian-tee/optee_os/lib/libutee/tee_api_objects.c:635
    19bc:	4604      	mov	r4, r0
    19be:	b158      	cbz	r0, 19d8 <TEE_GetNextPersistentObject+0x3c>
/mnt/disk/raspbian-tee/optee_os/lib/libutee/tee_api_objects.c:635 (discriminator 1)
    19c0:	4b08      	ldr	r3, [pc, #32]	; (19e4 <TEE_GetNextPersistentObject+0x48>)
    19c2:	4298      	cmp	r0, r3
    19c4:	d008      	beq.n	19d8 <TEE_GetNextPersistentObject+0x3c>
/mnt/disk/raspbian-tee/optee_os/lib/libutee/tee_api_objects.c:636
    19c6:	4b08      	ldr	r3, [pc, #32]	; (19e8 <TEE_GetNextPersistentObject+0x4c>)
    19c8:	4298      	cmp	r0, r3
    19ca:	d005      	beq.n	19d8 <TEE_GetNextPersistentObject+0x3c>
/mnt/disk/raspbian-tee/optee_os/lib/libutee/tee_api_objects.c:637
    19cc:	3302      	adds	r3, #2
    19ce:	4298      	cmp	r0, r3
    19d0:	d002      	beq.n	19d8 <TEE_GetNextPersistentObject+0x3c>
/mnt/disk/raspbian-tee/optee_os/lib/libutee/tee_api_objects.c:639
    19d2:	4620      	mov	r0, r4
    19d4:	f005 f844 	bl	6a60 <TEE_Panic>
/mnt/disk/raspbian-tee/optee_os/lib/libutee/tee_api_objects.c:642
    19d8:	4620      	mov	r0, r4
    19da:	b00a      	add	sp, #40	; 0x28
    19dc:	bd10      	pop	{r4, pc}
    19de:	4c03      	ldr	r4, [pc, #12]	; (19ec <TEE_GetNextPersistentObject+0x50>)
    19e0:	e7f7      	b.n	19d2 <TEE_GetNextPersistentObject+0x36>
    19e2:	bf00      	nop
    19e4:	ffff0008 	.word	0xffff0008
    19e8:	f0100001 	.word	0xf0100001
    19ec:	ffff0006 	.word	0xffff0006

000019f0 <TEE_ReadObjectData>:
TEE_ReadObjectData():
/mnt/disk/raspbian-tee/optee_os/lib/libutee/tee_api_objects.c:648
    19f0:	b513      	push	{r0, r1, r4, lr}
    19f2:	461c      	mov	r4, r3
/mnt/disk/raspbian-tee/optee_os/lib/libutee/tee_api_objects.c:652
    19f4:	b1b0      	cbz	r0, 1a24 <TEE_ReadObjectData+0x34>
/mnt/disk/raspbian-tee/optee_os/lib/libutee/tee_api_objects.c:657
    19f6:	681b      	ldr	r3, [r3, #0]
    19f8:	9300      	str	r3, [sp, #0]
    19fa:	2300      	movs	r3, #0
    19fc:	9301      	str	r3, [sp, #4]
/mnt/disk/raspbian-tee/optee_os/lib/libutee/tee_api_objects.c:658
    19fe:	466b      	mov	r3, sp
    1a00:	f000 ebb6 	blx	2170 <utee_storage_obj_read>
/mnt/disk/raspbian-tee/optee_os/lib/libutee/tee_api_objects.c:660
    1a04:	9b00      	ldr	r3, [sp, #0]
    1a06:	6023      	str	r3, [r4, #0]
/mnt/disk/raspbian-tee/optee_os/lib/libutee/tee_api_objects.c:663
    1a08:	4604      	mov	r4, r0
    1a0a:	b140      	cbz	r0, 1a1e <TEE_ReadObjectData+0x2e>
/mnt/disk/raspbian-tee/optee_os/lib/libutee/tee_api_objects.c:663 (discriminator 1)
    1a0c:	4b06      	ldr	r3, [pc, #24]	; (1a28 <TEE_ReadObjectData+0x38>)
    1a0e:	4298      	cmp	r0, r3
    1a10:	d005      	beq.n	1a1e <TEE_ReadObjectData+0x2e>
/mnt/disk/raspbian-tee/optee_os/lib/libutee/tee_api_objects.c:664
    1a12:	3302      	adds	r3, #2
    1a14:	4298      	cmp	r0, r3
    1a16:	d002      	beq.n	1a1e <TEE_ReadObjectData+0x2e>
/mnt/disk/raspbian-tee/optee_os/lib/libutee/tee_api_objects.c:666
    1a18:	4620      	mov	r0, r4
    1a1a:	f005 f821 	bl	6a60 <TEE_Panic>
/mnt/disk/raspbian-tee/optee_os/lib/libutee/tee_api_objects.c:669
    1a1e:	4620      	mov	r0, r4
    1a20:	b002      	add	sp, #8
    1a22:	bd10      	pop	{r4, pc}
/mnt/disk/raspbian-tee/optee_os/lib/libutee/tee_api_objects.c:653
    1a24:	4c01      	ldr	r4, [pc, #4]	; (1a2c <TEE_ReadObjectData+0x3c>)
    1a26:	e7f7      	b.n	1a18 <TEE_ReadObjectData+0x28>
    1a28:	f0100001 	.word	0xf0100001
    1a2c:	ffff0006 	.word	0xffff0006

00001a30 <TEE_WriteObjectData>:
TEE_WriteObjectData():
/mnt/disk/raspbian-tee/optee_os/lib/libutee/tee_api_objects.c:673
    1a30:	b510      	push	{r4, lr}
/mnt/disk/raspbian-tee/optee_os/lib/libutee/tee_api_objects.c:676
    1a32:	b1a0      	cbz	r0, 1a5e <TEE_WriteObjectData+0x2e>
/mnt/disk/raspbian-tee/optee_os/lib/libutee/tee_api_objects.c:686
    1a34:	f000 eba6 	blx	2184 <utee_storage_obj_write>
/mnt/disk/raspbian-tee/optee_os/lib/libutee/tee_api_objects.c:689
    1a38:	4604      	mov	r4, r0
    1a3a:	b170      	cbz	r0, 1a5a <TEE_WriteObjectData+0x2a>
/mnt/disk/raspbian-tee/optee_os/lib/libutee/tee_api_objects.c:689 (discriminator 1)
    1a3c:	4b09      	ldr	r3, [pc, #36]	; (1a64 <TEE_WriteObjectData+0x34>)
    1a3e:	4298      	cmp	r0, r3
    1a40:	d00b      	beq.n	1a5a <TEE_WriteObjectData+0x2a>
/mnt/disk/raspbian-tee/optee_os/lib/libutee/tee_api_objects.c:690
    1a42:	3b32      	subs	r3, #50	; 0x32
    1a44:	4298      	cmp	r0, r3
    1a46:	d008      	beq.n	1a5a <TEE_WriteObjectData+0x2a>
/mnt/disk/raspbian-tee/optee_os/lib/libutee/tee_api_objects.c:691
    1a48:	4b07      	ldr	r3, [pc, #28]	; (1a68 <TEE_WriteObjectData+0x38>)
    1a4a:	4298      	cmp	r0, r3
    1a4c:	d005      	beq.n	1a5a <TEE_WriteObjectData+0x2a>
/mnt/disk/raspbian-tee/optee_os/lib/libutee/tee_api_objects.c:692
    1a4e:	3302      	adds	r3, #2
    1a50:	4298      	cmp	r0, r3
    1a52:	d002      	beq.n	1a5a <TEE_WriteObjectData+0x2a>
/mnt/disk/raspbian-tee/optee_os/lib/libutee/tee_api_objects.c:694
    1a54:	4620      	mov	r0, r4
    1a56:	f005 f803 	bl	6a60 <TEE_Panic>
/mnt/disk/raspbian-tee/optee_os/lib/libutee/tee_api_objects.c:697
    1a5a:	4620      	mov	r0, r4
    1a5c:	bd10      	pop	{r4, pc}
/mnt/disk/raspbian-tee/optee_os/lib/libutee/tee_api_objects.c:677
    1a5e:	4c03      	ldr	r4, [pc, #12]	; (1a6c <TEE_WriteObjectData+0x3c>)
    1a60:	e7f8      	b.n	1a54 <TEE_WriteObjectData+0x24>
    1a62:	bf00      	nop
    1a64:	ffff3041 	.word	0xffff3041
    1a68:	f0100001 	.word	0xf0100001
    1a6c:	ffff0006 	.word	0xffff0006

00001a70 <TEE_TruncateObjectData>:
TEE_TruncateObjectData():
/mnt/disk/raspbian-tee/optee_os/lib/libutee/tee_api_objects.c:700
    1a70:	b510      	push	{r4, lr}
/mnt/disk/raspbian-tee/optee_os/lib/libutee/tee_api_objects.c:703
    1a72:	b188      	cbz	r0, 1a98 <TEE_TruncateObjectData+0x28>
/mnt/disk/raspbian-tee/optee_os/lib/libutee/tee_api_objects.c:708
    1a74:	f000 eb90 	blx	2198 <utee_storage_obj_trunc>
/mnt/disk/raspbian-tee/optee_os/lib/libutee/tee_api_objects.c:711
    1a78:	4604      	mov	r4, r0
    1a7a:	b158      	cbz	r0, 1a94 <TEE_TruncateObjectData+0x24>
/mnt/disk/raspbian-tee/optee_os/lib/libutee/tee_api_objects.c:711 (discriminator 1)
    1a7c:	4b07      	ldr	r3, [pc, #28]	; (1a9c <TEE_TruncateObjectData+0x2c>)
    1a7e:	4298      	cmp	r0, r3
    1a80:	d008      	beq.n	1a94 <TEE_TruncateObjectData+0x24>
/mnt/disk/raspbian-tee/optee_os/lib/libutee/tee_api_objects.c:712
    1a82:	4b07      	ldr	r3, [pc, #28]	; (1aa0 <TEE_TruncateObjectData+0x30>)
    1a84:	4298      	cmp	r0, r3
    1a86:	d005      	beq.n	1a94 <TEE_TruncateObjectData+0x24>
/mnt/disk/raspbian-tee/optee_os/lib/libutee/tee_api_objects.c:713
    1a88:	3302      	adds	r3, #2
    1a8a:	4298      	cmp	r0, r3
    1a8c:	d002      	beq.n	1a94 <TEE_TruncateObjectData+0x24>
/mnt/disk/raspbian-tee/optee_os/lib/libutee/tee_api_objects.c:715
    1a8e:	4620      	mov	r0, r4
    1a90:	f004 ffe6 	bl	6a60 <TEE_Panic>
/mnt/disk/raspbian-tee/optee_os/lib/libutee/tee_api_objects.c:718
    1a94:	4620      	mov	r0, r4
    1a96:	bd10      	pop	{r4, pc}
/mnt/disk/raspbian-tee/optee_os/lib/libutee/tee_api_objects.c:704
    1a98:	4c02      	ldr	r4, [pc, #8]	; (1aa4 <TEE_TruncateObjectData+0x34>)
    1a9a:	e7f8      	b.n	1a8e <TEE_TruncateObjectData+0x1e>
    1a9c:	ffff3041 	.word	0xffff3041
    1aa0:	f0100001 	.word	0xf0100001
    1aa4:	ffff0006 	.word	0xffff0006

00001aa8 <TEE_SeekObjectData>:
TEE_SeekObjectData():
/mnt/disk/raspbian-tee/optee_os/lib/libutee/tee_api_objects.c:722
    1aa8:	b5f0      	push	{r4, r5, r6, r7, lr}
    1aaa:	460d      	mov	r5, r1
    1aac:	4616      	mov	r6, r2
    1aae:	b089      	sub	sp, #36	; 0x24
/mnt/disk/raspbian-tee/optee_os/lib/libutee/tee_api_objects.c:726
    1ab0:	4607      	mov	r7, r0
    1ab2:	b368      	cbz	r0, 1b10 <TEE_SeekObjectData+0x68>
/mnt/disk/raspbian-tee/optee_os/lib/libutee/tee_api_objects.c:731
    1ab4:	a901      	add	r1, sp, #4
    1ab6:	f000 ea48 	blx	1f48 <utee_cryp_obj_get_info>
/mnt/disk/raspbian-tee/optee_os/lib/libutee/tee_api_objects.c:732
    1aba:	4604      	mov	r4, r0
    1abc:	b9d8      	cbnz	r0, 1af6 <TEE_SeekObjectData+0x4e>
/mnt/disk/raspbian-tee/optee_os/lib/libutee/tee_api_objects.c:735
    1abe:	2e01      	cmp	r6, #1
    1ac0:	d004      	beq.n	1acc <TEE_SeekObjectData+0x24>
    1ac2:	d310      	bcc.n	1ae6 <TEE_SeekObjectData+0x3e>
    1ac4:	2e02      	cmp	r6, #2
    1ac6:	d00a      	beq.n	1ade <TEE_SeekObjectData+0x36>
/mnt/disk/raspbian-tee/optee_os/lib/libutee/tee_api_objects.c:761
    1ac8:	4c12      	ldr	r4, [pc, #72]	; (1b14 <TEE_SeekObjectData+0x6c>)
    1aca:	e017      	b.n	1afc <TEE_SeekObjectData+0x54>
/mnt/disk/raspbian-tee/optee_os/lib/libutee/tee_api_objects.c:743
    1acc:	2d00      	cmp	r5, #0
    1ace:	dd0a      	ble.n	1ae6 <TEE_SeekObjectData+0x3e>
/mnt/disk/raspbian-tee/optee_os/lib/libutee/tee_api_objects.c:743 (discriminator 1)
    1ad0:	9b06      	ldr	r3, [sp, #24]
    1ad2:	42dd      	cmn	r5, r3
    1ad4:	d307      	bcc.n	1ae6 <TEE_SeekObjectData+0x3e>
/mnt/disk/raspbian-tee/optee_os/lib/libutee/tee_api_objects.c:727
    1ad6:	4c10      	ldr	r4, [pc, #64]	; (1b18 <TEE_SeekObjectData+0x70>)
/mnt/disk/raspbian-tee/optee_os/lib/libutee/tee_api_objects.c:775
    1ad8:	4620      	mov	r0, r4
    1ada:	b009      	add	sp, #36	; 0x24
    1adc:	bdf0      	pop	{r4, r5, r6, r7, pc}
/mnt/disk/raspbian-tee/optee_os/lib/libutee/tee_api_objects.c:753
    1ade:	2d00      	cmp	r5, #0
    1ae0:	dd01      	ble.n	1ae6 <TEE_SeekObjectData+0x3e>
/mnt/disk/raspbian-tee/optee_os/lib/libutee/tee_api_objects.c:753 (discriminator 1)
    1ae2:	9b05      	ldr	r3, [sp, #20]
    1ae4:	e7f5      	b.n	1ad2 <TEE_SeekObjectData+0x2a>
/mnt/disk/raspbian-tee/optee_os/lib/libutee/tee_api_objects.c:765
    1ae6:	4632      	mov	r2, r6
    1ae8:	4629      	mov	r1, r5
    1aea:	4638      	mov	r0, r7
    1aec:	f000 eb5e 	blx	21ac <utee_storage_obj_seek>
/mnt/disk/raspbian-tee/optee_os/lib/libutee/tee_api_objects.c:768
    1af0:	4604      	mov	r4, r0
    1af2:	2800      	cmp	r0, #0
    1af4:	d0f0      	beq.n	1ad8 <TEE_SeekObjectData+0x30>
/mnt/disk/raspbian-tee/optee_os/lib/libutee/tee_api_objects.c:768 (discriminator 1)
    1af6:	4b08      	ldr	r3, [pc, #32]	; (1b18 <TEE_SeekObjectData+0x70>)
    1af8:	429c      	cmp	r4, r3
    1afa:	d0ec      	beq.n	1ad6 <TEE_SeekObjectData+0x2e>
/mnt/disk/raspbian-tee/optee_os/lib/libutee/tee_api_objects.c:769
    1afc:	4b07      	ldr	r3, [pc, #28]	; (1b1c <TEE_SeekObjectData+0x74>)
    1afe:	429c      	cmp	r4, r3
    1b00:	d0ea      	beq.n	1ad8 <TEE_SeekObjectData+0x30>
/mnt/disk/raspbian-tee/optee_os/lib/libutee/tee_api_objects.c:770
    1b02:	3302      	adds	r3, #2
    1b04:	429c      	cmp	r4, r3
    1b06:	d0e7      	beq.n	1ad8 <TEE_SeekObjectData+0x30>
/mnt/disk/raspbian-tee/optee_os/lib/libutee/tee_api_objects.c:772
    1b08:	4620      	mov	r0, r4
    1b0a:	f004 ffa9 	bl	6a60 <TEE_Panic>
/mnt/disk/raspbian-tee/optee_os/lib/libutee/tee_api_objects.c:774
    1b0e:	e7e3      	b.n	1ad8 <TEE_SeekObjectData+0x30>
/mnt/disk/raspbian-tee/optee_os/lib/libutee/tee_api_objects.c:727
    1b10:	4c03      	ldr	r4, [pc, #12]	; (1b20 <TEE_SeekObjectData+0x78>)
    1b12:	e7f9      	b.n	1b08 <TEE_SeekObjectData+0x60>
    1b14:	ffff0008 	.word	0xffff0008
    1b18:	ffff300f 	.word	0xffff300f
    1b1c:	f0100001 	.word	0xf0100001
    1b20:	ffff0006 	.word	0xffff0006

00001b24 <ta_header_get_session>:
ta_header_get_session():
/mnt/disk/raspbian-tee/optee_os/lib/libutee/arch/arm/user_ta_entry.c:81
    1b24:	4b05      	ldr	r3, [pc, #20]	; (1b3c <ta_header_get_session+0x18>)
    1b26:	447b      	add	r3, pc
    1b28:	681b      	ldr	r3, [r3, #0]
/mnt/disk/raspbian-tee/optee_os/lib/libutee/arch/arm/user_ta_entry.c:81 (discriminator 1)
    1b2a:	b90b      	cbnz	r3, 1b30 <ta_header_get_session+0xc>
/mnt/disk/raspbian-tee/optee_os/lib/libutee/arch/arm/user_ta_entry.c:86
    1b2c:	4618      	mov	r0, r3
    1b2e:	4770      	bx	lr
/mnt/disk/raspbian-tee/optee_os/lib/libutee/arch/arm/user_ta_entry.c:82
    1b30:	681a      	ldr	r2, [r3, #0]
    1b32:	4282      	cmp	r2, r0
    1b34:	d0fa      	beq.n	1b2c <ta_header_get_session+0x8>
/mnt/disk/raspbian-tee/optee_os/lib/libutee/arch/arm/user_ta_entry.c:81 (discriminator 2)
    1b36:	689b      	ldr	r3, [r3, #8]
    1b38:	e7f7      	b.n	1b2a <ta_header_get_session+0x6>
    1b3a:	bf00      	nop
    1b3c:	00007566 	.word	0x00007566

00001b40 <ta_header_remove_session>:
ta_header_remove_session():
/mnt/disk/raspbian-tee/optee_os/lib/libutee/arch/arm/user_ta_entry.c:119
    1b40:	4b14      	ldr	r3, [pc, #80]	; (1b94 <ta_header_remove_session+0x54>)
/mnt/disk/raspbian-tee/optee_os/lib/libutee/arch/arm/user_ta_entry.c:115
    1b42:	b510      	push	{r4, lr}
/mnt/disk/raspbian-tee/optee_os/lib/libutee/arch/arm/user_ta_entry.c:119
    1b44:	447b      	add	r3, pc
/mnt/disk/raspbian-tee/optee_os/lib/libutee/arch/arm/user_ta_entry.c:115
    1b46:	4c14      	ldr	r4, [pc, #80]	; (1b98 <ta_header_remove_session+0x58>)
/mnt/disk/raspbian-tee/optee_os/lib/libutee/arch/arm/user_ta_entry.c:119
    1b48:	681b      	ldr	r3, [r3, #0]
/mnt/disk/raspbian-tee/optee_os/lib/libutee/arch/arm/user_ta_entry.c:115
    1b4a:	447c      	add	r4, pc
/mnt/disk/raspbian-tee/optee_os/lib/libutee/arch/arm/user_ta_entry.c:119 (discriminator 1)
    1b4c:	b903      	cbnz	r3, 1b50 <ta_header_remove_session+0x10>
    1b4e:	bd10      	pop	{r4, pc}
/mnt/disk/raspbian-tee/optee_os/lib/libutee/arch/arm/user_ta_entry.c:120
    1b50:	681a      	ldr	r2, [r3, #0]
    1b52:	4282      	cmp	r2, r0
    1b54:	689a      	ldr	r2, [r3, #8]
    1b56:	d11b      	bne.n	1b90 <ta_header_remove_session+0x50>
    1b58:	68d9      	ldr	r1, [r3, #12]
/mnt/disk/raspbian-tee/optee_os/lib/libutee/arch/arm/user_ta_entry.c:121
    1b5a:	b1aa      	cbz	r2, 1b88 <ta_header_remove_session+0x48>
/mnt/disk/raspbian-tee/optee_os/lib/libutee/arch/arm/user_ta_entry.c:121 (discriminator 1)
    1b5c:	60d1      	str	r1, [r2, #12]
/mnt/disk/raspbian-tee/optee_os/lib/libutee/arch/arm/user_ta_entry.c:121 (discriminator 4)
    1b5e:	68d9      	ldr	r1, [r3, #12]
/mnt/disk/raspbian-tee/optee_os/lib/libutee/arch/arm/user_ta_entry.c:122 (discriminator 4)
    1b60:	4618      	mov	r0, r3
/mnt/disk/raspbian-tee/optee_os/lib/libutee/arch/arm/user_ta_entry.c:121 (discriminator 4)
    1b62:	600a      	str	r2, [r1, #0]
/mnt/disk/raspbian-tee/optee_os/lib/libutee/arch/arm/user_ta_entry.c:122 (discriminator 4)
    1b64:	f7ff fc0c 	bl	1380 <TEE_Free>
/mnt/disk/raspbian-tee/optee_os/lib/libutee/arch/arm/user_ta_entry.c:127 (discriminator 4)
    1b68:	4b0c      	ldr	r3, [pc, #48]	; (1b9c <ta_header_remove_session+0x5c>)
    1b6a:	447b      	add	r3, pc
    1b6c:	681b      	ldr	r3, [r3, #0]
    1b6e:	2b00      	cmp	r3, #0
    1b70:	d1ed      	bne.n	1b4e <ta_header_remove_session+0xe>
/mnt/disk/raspbian-tee/optee_os/lib/libutee/arch/arm/user_ta_entry.c:125 (discriminator 1)
    1b72:	4b0b      	ldr	r3, [pc, #44]	; (1ba0 <ta_header_remove_session+0x60>)
    1b74:	58e3      	ldr	r3, [r4, r3]
    1b76:	695b      	ldr	r3, [r3, #20]
    1b78:	f003 0314 	and.w	r3, r3, #20
/mnt/disk/raspbian-tee/optee_os/lib/libutee/arch/arm/user_ta_entry.c:127 (discriminator 1)
    1b7c:	2b14      	cmp	r3, #20
    1b7e:	d0e6      	beq.n	1b4e <ta_header_remove_session+0xe>
/mnt/disk/raspbian-tee/optee_os/lib/libutee/arch/arm/user_ta_entry.c:133
    1b80:	e8bd 4010 	ldmia.w	sp!, {r4, lr}
uninit_instance():
/mnt/disk/raspbian-tee/optee_os/lib/libutee/arch/arm/user_ta_entry.c:63
    1b84:	f7fe bb8c 	b.w	2a0 <TA_DestroyEntryPoint>
ta_header_remove_session():
/mnt/disk/raspbian-tee/optee_os/lib/libutee/arch/arm/user_ta_entry.c:121 (discriminator 2)
    1b88:	4806      	ldr	r0, [pc, #24]	; (1ba4 <ta_header_remove_session+0x64>)
    1b8a:	4478      	add	r0, pc
    1b8c:	6041      	str	r1, [r0, #4]
    1b8e:	e7e6      	b.n	1b5e <ta_header_remove_session+0x1e>
/mnt/disk/raspbian-tee/optee_os/lib/libutee/arch/arm/user_ta_entry.c:119 (discriminator 2)
    1b90:	4613      	mov	r3, r2
    1b92:	e7db      	b.n	1b4c <ta_header_remove_session+0xc>
    1b94:	00007548 	.word	0x00007548
    1b98:	000069fe 	.word	0x000069fe
    1b9c:	00007522 	.word	0x00007522
    1ba0:	00000030 	.word	0x00000030
    1ba4:	00007502 	.word	0x00007502

00001ba8 <__utee_entry>:
__utee_entry():
/mnt/disk/raspbian-tee/optee_os/lib/libutee/arch/arm/user_ta_entry.c:200
    1ba8:	b580      	push	{r7, lr}
    1baa:	4616      	mov	r6, r2
    1bac:	4c5a      	ldr	r4, [pc, #360]	; (1d18 <__utee_entry+0x170>)
    1bae:	b08c      	sub	sp, #48	; 0x30
    1bb0:	460f      	mov	r7, r1
    1bb2:	447c      	add	r4, pc
    1bb4:	4698      	mov	r8, r3
/mnt/disk/raspbian-tee/optee_os/lib/libutee/arch/arm/user_ta_entry.c:211
    1bb6:	2801      	cmp	r0, #1
    1bb8:	d074      	beq.n	1ca4 <__utee_entry+0xfc>
    1bba:	d307      	bcc.n	1bcc <__utee_entry+0x24>
    1bbc:	2802      	cmp	r0, #2
    1bbe:	d07e      	beq.n	1cbe <__utee_entry+0x116>
/mnt/disk/raspbian-tee/optee_os/lib/libutee/arch/arm/user_ta_entry.c:223
    1bc0:	2000      	movs	r0, #0
/mnt/disk/raspbian-tee/optee_os/lib/libutee/arch/arm/user_ta_entry.c:222
    1bc2:	f04f 34ff 	mov.w	r4, #4294967295	; 0xffffffff
/mnt/disk/raspbian-tee/optee_os/lib/libutee/arch/arm/user_ta_entry.c:223
    1bc6:	f004 ff4b 	bl	6a60 <TEE_Panic>
/mnt/disk/raspbian-tee/optee_os/lib/libutee/arch/arm/user_ta_entry.c:224
    1bca:	e026      	b.n	1c1a <__utee_entry+0x72>
ta_header_add_session():
/mnt/disk/raspbian-tee/optee_os/lib/libutee/arch/arm/user_ta_entry.c:90
    1bcc:	4608      	mov	r0, r1
    1bce:	f7ff ffa9 	bl	1b24 <ta_header_get_session>
/mnt/disk/raspbian-tee/optee_os/lib/libutee/arch/arm/user_ta_entry.c:93
    1bd2:	2800      	cmp	r0, #0
    1bd4:	d138      	bne.n	1c48 <__utee_entry+0xa0>
/mnt/disk/raspbian-tee/optee_os/lib/libutee/arch/arm/user_ta_entry.c:96
    1bd6:	4b51      	ldr	r3, [pc, #324]	; (1d1c <__utee_entry+0x174>)
    1bd8:	447b      	add	r3, pc
    1bda:	781a      	ldrb	r2, [r3, #0]
    1bdc:	b13a      	cbz	r2, 1bee <__utee_entry+0x46>
/mnt/disk/raspbian-tee/optee_os/lib/libutee/arch/arm/user_ta_entry.c:103
    1bde:	f04f 4100 	mov.w	r1, #2147483648	; 0x80000000
    1be2:	2010      	movs	r0, #16
    1be4:	f7ff fba5 	bl	1332 <TEE_Malloc>
/mnt/disk/raspbian-tee/optee_os/lib/libutee/arch/arm/user_ta_entry.c:105
    1be8:	bb18      	cbnz	r0, 1c32 <__utee_entry+0x8a>
/mnt/disk/raspbian-tee/optee_os/lib/libutee/arch/arm/user_ta_entry.c:106
    1bea:	4c49      	ldr	r4, [pc, #292]	; (1d10 <__utee_entry+0x168>)
    1bec:	e015      	b.n	1c1a <__utee_entry+0x72>
/mnt/disk/raspbian-tee/optee_os/lib/libutee/arch/arm/user_ta_entry.c:97
    1bee:	2201      	movs	r2, #1
    1bf0:	701a      	strb	r2, [r3, #0]
init_instance():
/mnt/disk/raspbian-tee/optee_os/lib/libutee/arch/arm/user_ta_entry.c:53
    1bf2:	f004 fda5 	bl	6740 <tahead_get_trace_level>
    1bf6:	f7fe fd12 	bl	61e <trace_set_level>
/mnt/disk/raspbian-tee/optee_os/lib/libutee/arch/arm/user_ta_entry.c:55
    1bfa:	4b49      	ldr	r3, [pc, #292]	; (1d20 <__utee_entry+0x178>)
    1bfc:	4a49      	ldr	r2, [pc, #292]	; (1d24 <__utee_entry+0x17c>)
    1bfe:	58e3      	ldr	r3, [r4, r3]
    1c00:	58a2      	ldr	r2, [r4, r2]
    1c02:	9201      	str	r2, [sp, #4]
    1c04:	6819      	ldr	r1, [r3, #0]
    1c06:	4610      	mov	r0, r2
    1c08:	f004 fbec 	bl	63e4 <malloc_add_pool>
/mnt/disk/raspbian-tee/optee_os/lib/libutee/arch/arm/user_ta_entry.c:56
    1c0c:	f000 fdc8 	bl	27a0 <_TEE_MathAPI_Init>
/mnt/disk/raspbian-tee/optee_os/lib/libutee/arch/arm/user_ta_entry.c:57
    1c10:	f7fe fb44 	bl	29c <TA_CreateEntryPoint>
ta_header_add_session():
/mnt/disk/raspbian-tee/optee_os/lib/libutee/arch/arm/user_ta_entry.c:99
    1c14:	4604      	mov	r4, r0
    1c16:	2800      	cmp	r0, #0
    1c18:	d0e1      	beq.n	1bde <__utee_entry+0x36>
ta_header_save_params():
/mnt/disk/raspbian-tee/optee_os/lib/libutee/arch/arm/user_ta_entry.c:69
    1c1a:	4843      	ldr	r0, [pc, #268]	; (1d28 <__utee_entry+0x180>)
    1c1c:	2100      	movs	r1, #0
/mnt/disk/raspbian-tee/optee_os/lib/libutee/arch/arm/user_ta_entry.c:74
    1c1e:	2220      	movs	r2, #32
/mnt/disk/raspbian-tee/optee_os/lib/libutee/arch/arm/user_ta_entry.c:69
    1c20:	4478      	add	r0, pc
/mnt/disk/raspbian-tee/optee_os/lib/libutee/arch/arm/user_ta_entry.c:74
    1c22:	3008      	adds	r0, #8
/mnt/disk/raspbian-tee/optee_os/lib/libutee/arch/arm/user_ta_entry.c:69
    1c24:	f840 1c04 	str.w	r1, [r0, #-4]
/mnt/disk/raspbian-tee/optee_os/lib/libutee/arch/arm/user_ta_entry.c:74
    1c28:	f004 fd8d 	bl	6746 <memset>
__utee_entry():
/mnt/disk/raspbian-tee/optee_os/lib/libutee/arch/arm/user_ta_entry.c:227
    1c2c:	4620      	mov	r0, r4
    1c2e:	f000 e88e 	blx	1d4c <utee_return>
ta_header_add_session():
/mnt/disk/raspbian-tee/optee_os/lib/libutee/arch/arm/user_ta_entry.c:108
    1c32:	2300      	movs	r3, #0
    1c34:	6043      	str	r3, [r0, #4]
/mnt/disk/raspbian-tee/optee_os/lib/libutee/arch/arm/user_ta_entry.c:109
    1c36:	6083      	str	r3, [r0, #8]
    1c38:	4b3c      	ldr	r3, [pc, #240]	; (1d2c <__utee_entry+0x184>)
/mnt/disk/raspbian-tee/optee_os/lib/libutee/arch/arm/user_ta_entry.c:107
    1c3a:	6007      	str	r7, [r0, #0]
/mnt/disk/raspbian-tee/optee_os/lib/libutee/arch/arm/user_ta_entry.c:109
    1c3c:	447b      	add	r3, pc
    1c3e:	685a      	ldr	r2, [r3, #4]
    1c40:	60c2      	str	r2, [r0, #12]
    1c42:	6010      	str	r0, [r2, #0]
    1c44:	3008      	adds	r0, #8
    1c46:	6058      	str	r0, [r3, #4]
entry_open_session():
/mnt/disk/raspbian-tee/optee_os/lib/libutee/arch/arm/user_ta_entry.c:147
    1c48:	4638      	mov	r0, r7
    1c4a:	f7ff ff6b 	bl	1b24 <ta_header_get_session>
/mnt/disk/raspbian-tee/optee_os/lib/libutee/arch/arm/user_ta_entry.c:148
    1c4e:	4681      	mov	r9, r0
    1c50:	b908      	cbnz	r0, 1c56 <__utee_entry+0xae>
entry_close_session():
/mnt/disk/raspbian-tee/optee_os/lib/libutee/arch/arm/user_ta_entry.c:169
    1c52:	4c30      	ldr	r4, [pc, #192]	; (1d14 <__utee_entry+0x16c>)
    1c54:	e7e1      	b.n	1c1a <__utee_entry+0x72>
entry_open_session():
/mnt/disk/raspbian-tee/optee_os/lib/libutee/arch/arm/user_ta_entry.c:151
    1c56:	f10d 0810 	add.w	r8, sp, #16
ta_header_save_params():
/mnt/disk/raspbian-tee/optee_os/lib/libutee/arch/arm/user_ta_entry.c:69
    1c5a:	4c35      	ldr	r4, [pc, #212]	; (1d30 <__utee_entry+0x188>)
/mnt/disk/raspbian-tee/optee_os/lib/libutee/arch/arm/user_ta_entry.c:72
    1c5c:	4645      	mov	r5, r8
entry_open_session():
/mnt/disk/raspbian-tee/optee_os/lib/libutee/arch/arm/user_ta_entry.c:151
    1c5e:	4632      	mov	r2, r6
    1c60:	a903      	add	r1, sp, #12
    1c62:	4640      	mov	r0, r8
ta_header_save_params():
/mnt/disk/raspbian-tee/optee_os/lib/libutee/arch/arm/user_ta_entry.c:69
    1c64:	447c      	add	r4, pc
entry_open_session():
/mnt/disk/raspbian-tee/optee_os/lib/libutee/arch/arm/user_ta_entry.c:151
    1c66:	f7ff fa4d 	bl	1104 <__utee_to_param>
ta_header_save_params():
/mnt/disk/raspbian-tee/optee_os/lib/libutee/arch/arm/user_ta_entry.c:72
    1c6a:	cd0f      	ldmia	r5!, {r0, r1, r2, r3}
    1c6c:	3408      	adds	r4, #8
entry_open_session():
/mnt/disk/raspbian-tee/optee_os/lib/libutee/arch/arm/user_ta_entry.c:152
    1c6e:	f8dd c00c 	ldr.w	ip, [sp, #12]
ta_header_save_params():
/mnt/disk/raspbian-tee/optee_os/lib/libutee/arch/arm/user_ta_entry.c:69
    1c72:	f844 cc04 	str.w	ip, [r4, #-4]
/mnt/disk/raspbian-tee/optee_os/lib/libutee/arch/arm/user_ta_entry.c:72
    1c76:	c40f      	stmia	r4!, {r0, r1, r2, r3}
    1c78:	e895 000f 	ldmia.w	r5, {r0, r1, r2, r3}
    1c7c:	e884 000f 	stmia.w	r4, {r0, r1, r2, r3}
entry_open_session():
/mnt/disk/raspbian-tee/optee_os/lib/libutee/arch/arm/user_ta_entry.c:154
    1c80:	f109 0204 	add.w	r2, r9, #4
    1c84:	4641      	mov	r1, r8
    1c86:	4660      	mov	r0, ip
    1c88:	f7fe fb0b 	bl	2a2 <TA_OpenSessionEntryPoint>
/mnt/disk/raspbian-tee/optee_os/lib/libutee/arch/arm/user_ta_entry.c:157
    1c8c:	4642      	mov	r2, r8
/mnt/disk/raspbian-tee/optee_os/lib/libutee/arch/arm/user_ta_entry.c:154
    1c8e:	4604      	mov	r4, r0
/mnt/disk/raspbian-tee/optee_os/lib/libutee/arch/arm/user_ta_entry.c:157
    1c90:	9903      	ldr	r1, [sp, #12]
    1c92:	4630      	mov	r0, r6
    1c94:	f7ff fa0e 	bl	10b4 <__utee_from_param>
/mnt/disk/raspbian-tee/optee_os/lib/libutee/arch/arm/user_ta_entry.c:159
    1c98:	2c00      	cmp	r4, #0
    1c9a:	d0be      	beq.n	1c1a <__utee_entry+0x72>
/mnt/disk/raspbian-tee/optee_os/lib/libutee/arch/arm/user_ta_entry.c:160
    1c9c:	4638      	mov	r0, r7
    1c9e:	f7ff ff4f 	bl	1b40 <ta_header_remove_session>
    1ca2:	e7ba      	b.n	1c1a <__utee_entry+0x72>
entry_close_session():
/mnt/disk/raspbian-tee/optee_os/lib/libutee/arch/arm/user_ta_entry.c:166
    1ca4:	4608      	mov	r0, r1
    1ca6:	f7ff ff3d 	bl	1b24 <ta_header_get_session>
/mnt/disk/raspbian-tee/optee_os/lib/libutee/arch/arm/user_ta_entry.c:168
    1caa:	2800      	cmp	r0, #0
    1cac:	d0d1      	beq.n	1c52 <__utee_entry+0xaa>
/mnt/disk/raspbian-tee/optee_os/lib/libutee/arch/arm/user_ta_entry.c:171
    1cae:	6840      	ldr	r0, [r0, #4]
/mnt/disk/raspbian-tee/optee_os/lib/libutee/arch/arm/user_ta_entry.c:174
    1cb0:	2400      	movs	r4, #0
/mnt/disk/raspbian-tee/optee_os/lib/libutee/arch/arm/user_ta_entry.c:171
    1cb2:	f7fe faf8 	bl	2a6 <TA_CloseSessionEntryPoint>
/mnt/disk/raspbian-tee/optee_os/lib/libutee/arch/arm/user_ta_entry.c:173
    1cb6:	4638      	mov	r0, r7
    1cb8:	f7ff ff42 	bl	1b40 <ta_header_remove_session>
    1cbc:	e7ad      	b.n	1c1a <__utee_entry+0x72>
entry_invoke_command():
/mnt/disk/raspbian-tee/optee_os/lib/libutee/arch/arm/user_ta_entry.c:183
    1cbe:	4608      	mov	r0, r1
    1cc0:	f7ff ff30 	bl	1b24 <ta_header_get_session>
/mnt/disk/raspbian-tee/optee_os/lib/libutee/arch/arm/user_ta_entry.c:185
    1cc4:	4681      	mov	r9, r0
    1cc6:	2800      	cmp	r0, #0
    1cc8:	d0c3      	beq.n	1c52 <__utee_entry+0xaa>
/mnt/disk/raspbian-tee/optee_os/lib/libutee/arch/arm/user_ta_entry.c:188
    1cca:	af04      	add	r7, sp, #16
ta_header_save_params():
/mnt/disk/raspbian-tee/optee_os/lib/libutee/arch/arm/user_ta_entry.c:69
    1ccc:	4c19      	ldr	r4, [pc, #100]	; (1d34 <__utee_entry+0x18c>)
/mnt/disk/raspbian-tee/optee_os/lib/libutee/arch/arm/user_ta_entry.c:72
    1cce:	463d      	mov	r5, r7
entry_invoke_command():
/mnt/disk/raspbian-tee/optee_os/lib/libutee/arch/arm/user_ta_entry.c:188
    1cd0:	4632      	mov	r2, r6
    1cd2:	a903      	add	r1, sp, #12
    1cd4:	4638      	mov	r0, r7
ta_header_save_params():
/mnt/disk/raspbian-tee/optee_os/lib/libutee/arch/arm/user_ta_entry.c:69
    1cd6:	447c      	add	r4, pc
entry_invoke_command():
/mnt/disk/raspbian-tee/optee_os/lib/libutee/arch/arm/user_ta_entry.c:188
    1cd8:	f7ff fa14 	bl	1104 <__utee_to_param>
ta_header_save_params():
/mnt/disk/raspbian-tee/optee_os/lib/libutee/arch/arm/user_ta_entry.c:72
    1cdc:	cd0f      	ldmia	r5!, {r0, r1, r2, r3}
    1cde:	3408      	adds	r4, #8
entry_invoke_command():
/mnt/disk/raspbian-tee/optee_os/lib/libutee/arch/arm/user_ta_entry.c:189
    1ce0:	f8dd c00c 	ldr.w	ip, [sp, #12]
ta_header_save_params():
/mnt/disk/raspbian-tee/optee_os/lib/libutee/arch/arm/user_ta_entry.c:69
    1ce4:	f844 cc04 	str.w	ip, [r4, #-4]
/mnt/disk/raspbian-tee/optee_os/lib/libutee/arch/arm/user_ta_entry.c:72
    1ce8:	c40f      	stmia	r4!, {r0, r1, r2, r3}
    1cea:	e895 000f 	ldmia.w	r5, {r0, r1, r2, r3}
    1cee:	e884 000f 	stmia.w	r4, {r0, r1, r2, r3}
entry_invoke_command():
/mnt/disk/raspbian-tee/optee_os/lib/libutee/arch/arm/user_ta_entry.c:191
    1cf2:	4662      	mov	r2, ip
    1cf4:	4641      	mov	r1, r8
    1cf6:	463b      	mov	r3, r7
    1cf8:	f8d9 0004 	ldr.w	r0, [r9, #4]
    1cfc:	f7fe fad4 	bl	2a8 <TA_InvokeCommandEntryPoint>
/mnt/disk/raspbian-tee/optee_os/lib/libutee/arch/arm/user_ta_entry.c:194
    1d00:	463a      	mov	r2, r7
/mnt/disk/raspbian-tee/optee_os/lib/libutee/arch/arm/user_ta_entry.c:191
    1d02:	4604      	mov	r4, r0
/mnt/disk/raspbian-tee/optee_os/lib/libutee/arch/arm/user_ta_entry.c:194
    1d04:	9903      	ldr	r1, [sp, #12]
    1d06:	4630      	mov	r0, r6
    1d08:	f7ff f9d4 	bl	10b4 <__utee_from_param>
    1d0c:	e785      	b.n	1c1a <__utee_entry+0x72>
    1d0e:	bf00      	nop
    1d10:	ffff000c 	.word	0xffff000c
    1d14:	ffff0007 	.word	0xffff0007
    1d18:	00006996 	.word	0x00006996
    1d1c:	000074dc 	.word	0x000074dc
    1d20:	00000010 	.word	0x00000010
    1d24:	00000024 	.word	0x00000024
    1d28:	00007494 	.word	0x00007494
    1d2c:	00007450 	.word	0x00007450
    1d30:	00007450 	.word	0x00007450
    1d34:	000073de 	.word	0x000073de

00001d38 <utee_panic>:
utee_panic():
/mnt/disk/raspbian-tee/optee_os/lib/libutee/arch/arm/utee_syscalls_a32.S:47
    1d38:	e92d4fff 	push	{r0, r1, r2, r3, r4, r5, r6, r7, r8, r9, sl, fp, lr}
/mnt/disk/raspbian-tee/optee_os/lib/libutee/arch/arm/utee_syscalls_a32.S:49
    1d3c:	e1a0e00f 	mov	lr, pc
/mnt/disk/raspbian-tee/optee_os/lib/libutee/arch/arm/utee_syscalls_a32.S:50
    1d40:	e52de004 	push	{lr}		; (str lr, [sp, #-4]!)
/mnt/disk/raspbian-tee/optee_os/lib/libutee/arch/arm/utee_syscalls_a32.S:52
    1d44:	e1a0100d 	mov	r1, sp
/mnt/disk/raspbian-tee/optee_os/lib/libutee/arch/arm/utee_syscalls_a32.S:53
    1d48:	eb000009 	bl	1d74 <__utee_panic>

00001d4c <utee_return>:
utee_return():
/mnt/disk/raspbian-tee/optee_os/lib/libutee/arch/arm/utee_syscalls_asm.S:8
    1d4c:	e92d40e0 	push	{r5, r6, r7, lr}
    1d50:	e3a07000 	mov	r7, #0
    1d54:	e3a06000 	mov	r6, #0
    1d58:	ef000000 	svc	0x00000000
    1d5c:	e8bd80e0 	pop	{r5, r6, r7, pc}

00001d60 <utee_log>:
utee_log():
/mnt/disk/raspbian-tee/optee_os/lib/libutee/arch/arm/utee_syscalls_asm.S:10
    1d60:	e92d40e0 	push	{r5, r6, r7, lr}
    1d64:	e3a07001 	mov	r7, #1
    1d68:	e3a06000 	mov	r6, #0
    1d6c:	ef000000 	svc	0x00000000
    1d70:	e8bd80e0 	pop	{r5, r6, r7, pc}

00001d74 <__utee_panic>:
__utee_panic():
/mnt/disk/raspbian-tee/optee_os/lib/libutee/arch/arm/utee_syscalls_asm.S:12
    1d74:	e92d40e0 	push	{r5, r6, r7, lr}
    1d78:	e3a07002 	mov	r7, #2
    1d7c:	e3a06000 	mov	r6, #0
    1d80:	ef000000 	svc	0x00000000
    1d84:	e8bd80e0 	pop	{r5, r6, r7, pc}

00001d88 <utee_get_property>:
utee_get_property():
/mnt/disk/raspbian-tee/optee_os/lib/libutee/arch/arm/utee_syscalls_asm.S:14
    1d88:	e92d40e0 	push	{r5, r6, r7, lr}
    1d8c:	e3a07003 	mov	r7, #3
    1d90:	e3a06003 	mov	r6, #3
    1d94:	e28d5010 	add	r5, sp, #16
    1d98:	ef000000 	svc	0x00000000
    1d9c:	e8bd80e0 	pop	{r5, r6, r7, pc}

00001da0 <utee_get_property_name_to_index>:
utee_get_property_name_to_index():
/mnt/disk/raspbian-tee/optee_os/lib/libutee/arch/arm/utee_syscalls_asm.S:16
    1da0:	e92d40e0 	push	{r5, r6, r7, lr}
    1da4:	e3a07004 	mov	r7, #4
    1da8:	e3a06000 	mov	r6, #0
    1dac:	ef000000 	svc	0x00000000
    1db0:	e8bd80e0 	pop	{r5, r6, r7, pc}

00001db4 <utee_open_ta_session>:
utee_open_ta_session():
/mnt/disk/raspbian-tee/optee_os/lib/libutee/arch/arm/utee_syscalls_asm.S:19
    1db4:	e92d40e0 	push	{r5, r6, r7, lr}
    1db8:	e3a07005 	mov	r7, #5
    1dbc:	e3a06001 	mov	r6, #1
    1dc0:	e28d5010 	add	r5, sp, #16
    1dc4:	ef000000 	svc	0x00000000
    1dc8:	e8bd80e0 	pop	{r5, r6, r7, pc}

00001dcc <utee_close_ta_session>:
utee_close_ta_session():
/mnt/disk/raspbian-tee/optee_os/lib/libutee/arch/arm/utee_syscalls_asm.S:21
    1dcc:	e92d40e0 	push	{r5, r6, r7, lr}
    1dd0:	e3a07006 	mov	r7, #6
    1dd4:	e3a06000 	mov	r6, #0
    1dd8:	ef000000 	svc	0x00000000
    1ddc:	e8bd80e0 	pop	{r5, r6, r7, pc}

00001de0 <utee_invoke_ta_command>:
utee_invoke_ta_command():
/mnt/disk/raspbian-tee/optee_os/lib/libutee/arch/arm/utee_syscalls_asm.S:23
    1de0:	e92d40e0 	push	{r5, r6, r7, lr}
    1de4:	e3a07007 	mov	r7, #7
    1de8:	e3a06001 	mov	r6, #1
    1dec:	e28d5010 	add	r5, sp, #16
    1df0:	ef000000 	svc	0x00000000
    1df4:	e8bd80e0 	pop	{r5, r6, r7, pc}

00001df8 <utee_get_cancellation_flag>:
utee_get_cancellation_flag():
/mnt/disk/raspbian-tee/optee_os/lib/libutee/arch/arm/utee_syscalls_asm.S:25
    1df8:	e92d40e0 	push	{r5, r6, r7, lr}
    1dfc:	e3a07009 	mov	r7, #9
    1e00:	e3a06000 	mov	r6, #0
    1e04:	ef000000 	svc	0x00000000
    1e08:	e8bd80e0 	pop	{r5, r6, r7, pc}

00001e0c <utee_check_access_rights>:
utee_check_access_rights():
/mnt/disk/raspbian-tee/optee_os/lib/libutee/arch/arm/utee_syscalls_asm.S:28
    1e0c:	e92d40e0 	push	{r5, r6, r7, lr}
    1e10:	e3a07008 	mov	r7, #8
    1e14:	e3a06000 	mov	r6, #0
    1e18:	ef000000 	svc	0x00000000
    1e1c:	e8bd80e0 	pop	{r5, r6, r7, pc}

00001e20 <utee_unmask_cancellation>:
utee_unmask_cancellation():
/mnt/disk/raspbian-tee/optee_os/lib/libutee/arch/arm/utee_syscalls_asm.S:30
    1e20:	e92d40e0 	push	{r5, r6, r7, lr}
    1e24:	e3a0700a 	mov	r7, #10
    1e28:	e3a06000 	mov	r6, #0
    1e2c:	ef000000 	svc	0x00000000
    1e30:	e8bd80e0 	pop	{r5, r6, r7, pc}

00001e34 <utee_mask_cancellation>:
utee_mask_cancellation():
/mnt/disk/raspbian-tee/optee_os/lib/libutee/arch/arm/utee_syscalls_asm.S:32
    1e34:	e92d40e0 	push	{r5, r6, r7, lr}
    1e38:	e3a0700b 	mov	r7, #11
    1e3c:	e3a06000 	mov	r6, #0
    1e40:	ef000000 	svc	0x00000000
    1e44:	e8bd80e0 	pop	{r5, r6, r7, pc}

00001e48 <utee_wait>:
utee_wait():
/mnt/disk/raspbian-tee/optee_os/lib/libutee/arch/arm/utee_syscalls_asm.S:34
    1e48:	e92d40e0 	push	{r5, r6, r7, lr}
    1e4c:	e3a0700c 	mov	r7, #12
    1e50:	e3a06000 	mov	r6, #0
    1e54:	ef000000 	svc	0x00000000
    1e58:	e8bd80e0 	pop	{r5, r6, r7, pc}

00001e5c <utee_get_time>:
utee_get_time():
/mnt/disk/raspbian-tee/optee_os/lib/libutee/arch/arm/utee_syscalls_asm.S:36
    1e5c:	e92d40e0 	push	{r5, r6, r7, lr}
    1e60:	e3a0700d 	mov	r7, #13
    1e64:	e3a06000 	mov	r6, #0
    1e68:	ef000000 	svc	0x00000000
    1e6c:	e8bd80e0 	pop	{r5, r6, r7, pc}

00001e70 <utee_set_ta_time>:
utee_set_ta_time():
/mnt/disk/raspbian-tee/optee_os/lib/libutee/arch/arm/utee_syscalls_asm.S:38
    1e70:	e92d40e0 	push	{r5, r6, r7, lr}
    1e74:	e3a0700e 	mov	r7, #14
    1e78:	e3a06000 	mov	r6, #0
    1e7c:	ef000000 	svc	0x00000000
    1e80:	e8bd80e0 	pop	{r5, r6, r7, pc}

00001e84 <utee_cryp_state_alloc>:
utee_cryp_state_alloc():
/mnt/disk/raspbian-tee/optee_os/lib/libutee/arch/arm/utee_syscalls_asm.S:40
    1e84:	e92d40e0 	push	{r5, r6, r7, lr}
    1e88:	e3a0700f 	mov	r7, #15
    1e8c:	e3a06001 	mov	r6, #1
    1e90:	e28d5010 	add	r5, sp, #16
    1e94:	ef000000 	svc	0x00000000
    1e98:	e8bd80e0 	pop	{r5, r6, r7, pc}

00001e9c <utee_cryp_state_copy>:
utee_cryp_state_copy():
/mnt/disk/raspbian-tee/optee_os/lib/libutee/arch/arm/utee_syscalls_asm.S:42
    1e9c:	e92d40e0 	push	{r5, r6, r7, lr}
    1ea0:	e3a07010 	mov	r7, #16
    1ea4:	e3a06000 	mov	r6, #0
    1ea8:	ef000000 	svc	0x00000000
    1eac:	e8bd80e0 	pop	{r5, r6, r7, pc}

00001eb0 <utee_cryp_state_free>:
utee_cryp_state_free():
/mnt/disk/raspbian-tee/optee_os/lib/libutee/arch/arm/utee_syscalls_asm.S:44
    1eb0:	e92d40e0 	push	{r5, r6, r7, lr}
    1eb4:	e3a07011 	mov	r7, #17
    1eb8:	e3a06000 	mov	r6, #0
    1ebc:	ef000000 	svc	0x00000000
    1ec0:	e8bd80e0 	pop	{r5, r6, r7, pc}

00001ec4 <utee_hash_init>:
utee_hash_init():
/mnt/disk/raspbian-tee/optee_os/lib/libutee/arch/arm/utee_syscalls_asm.S:46
    1ec4:	e92d40e0 	push	{r5, r6, r7, lr}
    1ec8:	e3a07012 	mov	r7, #18
    1ecc:	e3a06000 	mov	r6, #0
    1ed0:	ef000000 	svc	0x00000000
    1ed4:	e8bd80e0 	pop	{r5, r6, r7, pc}

00001ed8 <utee_hash_update>:
utee_hash_update():
/mnt/disk/raspbian-tee/optee_os/lib/libutee/arch/arm/utee_syscalls_asm.S:48
    1ed8:	e92d40e0 	push	{r5, r6, r7, lr}
    1edc:	e3a07013 	mov	r7, #19
    1ee0:	e3a06000 	mov	r6, #0
    1ee4:	ef000000 	svc	0x00000000
    1ee8:	e8bd80e0 	pop	{r5, r6, r7, pc}

00001eec <utee_hash_final>:
utee_hash_final():
/mnt/disk/raspbian-tee/optee_os/lib/libutee/arch/arm/utee_syscalls_asm.S:50
    1eec:	e92d40e0 	push	{r5, r6, r7, lr}
    1ef0:	e3a07014 	mov	r7, #20
    1ef4:	e3a06001 	mov	r6, #1
    1ef8:	e28d5010 	add	r5, sp, #16
    1efc:	ef000000 	svc	0x00000000
    1f00:	e8bd80e0 	pop	{r5, r6, r7, pc}

00001f04 <utee_cipher_init>:
utee_cipher_init():
/mnt/disk/raspbian-tee/optee_os/lib/libutee/arch/arm/utee_syscalls_asm.S:52
    1f04:	e92d40e0 	push	{r5, r6, r7, lr}
    1f08:	e3a07015 	mov	r7, #21
    1f0c:	e3a06000 	mov	r6, #0
    1f10:	ef000000 	svc	0x00000000
    1f14:	e8bd80e0 	pop	{r5, r6, r7, pc}

00001f18 <utee_cipher_update>:
utee_cipher_update():
/mnt/disk/raspbian-tee/optee_os/lib/libutee/arch/arm/utee_syscalls_asm.S:54
    1f18:	e92d40e0 	push	{r5, r6, r7, lr}
    1f1c:	e3a07016 	mov	r7, #22
    1f20:	e3a06001 	mov	r6, #1
    1f24:	e28d5010 	add	r5, sp, #16
    1f28:	ef000000 	svc	0x00000000
    1f2c:	e8bd80e0 	pop	{r5, r6, r7, pc}

00001f30 <utee_cipher_final>:
utee_cipher_final():
/mnt/disk/raspbian-tee/optee_os/lib/libutee/arch/arm/utee_syscalls_asm.S:56
    1f30:	e92d40e0 	push	{r5, r6, r7, lr}
    1f34:	e3a07017 	mov	r7, #23
    1f38:	e3a06001 	mov	r6, #1
    1f3c:	e28d5010 	add	r5, sp, #16
    1f40:	ef000000 	svc	0x00000000
    1f44:	e8bd80e0 	pop	{r5, r6, r7, pc}

00001f48 <utee_cryp_obj_get_info>:
utee_cryp_obj_get_info():
/mnt/disk/raspbian-tee/optee_os/lib/libutee/arch/arm/utee_syscalls_asm.S:58
    1f48:	e92d40e0 	push	{r5, r6, r7, lr}
    1f4c:	e3a07018 	mov	r7, #24
    1f50:	e3a06000 	mov	r6, #0
    1f54:	ef000000 	svc	0x00000000
    1f58:	e8bd80e0 	pop	{r5, r6, r7, pc}

00001f5c <utee_cryp_obj_restrict_usage>:
utee_cryp_obj_restrict_usage():
/mnt/disk/raspbian-tee/optee_os/lib/libutee/arch/arm/utee_syscalls_asm.S:60
    1f5c:	e92d40e0 	push	{r5, r6, r7, lr}
    1f60:	e3a07019 	mov	r7, #25
    1f64:	e3a06000 	mov	r6, #0
    1f68:	ef000000 	svc	0x00000000
    1f6c:	e8bd80e0 	pop	{r5, r6, r7, pc}

00001f70 <utee_cryp_obj_get_attr>:
utee_cryp_obj_get_attr():
/mnt/disk/raspbian-tee/optee_os/lib/libutee/arch/arm/utee_syscalls_asm.S:63
    1f70:	e92d40e0 	push	{r5, r6, r7, lr}
    1f74:	e3a0701a 	mov	r7, #26
    1f78:	e3a06000 	mov	r6, #0
    1f7c:	ef000000 	svc	0x00000000
    1f80:	e8bd80e0 	pop	{r5, r6, r7, pc}

00001f84 <utee_cryp_obj_alloc>:
utee_cryp_obj_alloc():
/mnt/disk/raspbian-tee/optee_os/lib/libutee/arch/arm/utee_syscalls_asm.S:65
    1f84:	e92d40e0 	push	{r5, r6, r7, lr}
    1f88:	e3a0701b 	mov	r7, #27
    1f8c:	e3a06000 	mov	r6, #0
    1f90:	ef000000 	svc	0x00000000
    1f94:	e8bd80e0 	pop	{r5, r6, r7, pc}

00001f98 <utee_cryp_obj_close>:
utee_cryp_obj_close():
/mnt/disk/raspbian-tee/optee_os/lib/libutee/arch/arm/utee_syscalls_asm.S:67
    1f98:	e92d40e0 	push	{r5, r6, r7, lr}
    1f9c:	e3a0701c 	mov	r7, #28
    1fa0:	e3a06000 	mov	r6, #0
    1fa4:	ef000000 	svc	0x00000000
    1fa8:	e8bd80e0 	pop	{r5, r6, r7, pc}

00001fac <utee_cryp_obj_reset>:
utee_cryp_obj_reset():
/mnt/disk/raspbian-tee/optee_os/lib/libutee/arch/arm/utee_syscalls_asm.S:69
    1fac:	e92d40e0 	push	{r5, r6, r7, lr}
    1fb0:	e3a0701d 	mov	r7, #29
    1fb4:	e3a06000 	mov	r6, #0
    1fb8:	ef000000 	svc	0x00000000
    1fbc:	e8bd80e0 	pop	{r5, r6, r7, pc}

00001fc0 <utee_cryp_obj_populate>:
utee_cryp_obj_populate():
/mnt/disk/raspbian-tee/optee_os/lib/libutee/arch/arm/utee_syscalls_asm.S:71
    1fc0:	e92d40e0 	push	{r5, r6, r7, lr}
    1fc4:	e3a0701e 	mov	r7, #30
    1fc8:	e3a06000 	mov	r6, #0
    1fcc:	ef000000 	svc	0x00000000
    1fd0:	e8bd80e0 	pop	{r5, r6, r7, pc}

00001fd4 <utee_cryp_obj_copy>:
utee_cryp_obj_copy():
/mnt/disk/raspbian-tee/optee_os/lib/libutee/arch/arm/utee_syscalls_asm.S:73
    1fd4:	e92d40e0 	push	{r5, r6, r7, lr}
    1fd8:	e3a0701f 	mov	r7, #31
    1fdc:	e3a06000 	mov	r6, #0
    1fe0:	ef000000 	svc	0x00000000
    1fe4:	e8bd80e0 	pop	{r5, r6, r7, pc}

00001fe8 <utee_cryp_derive_key>:
utee_cryp_derive_key():
/mnt/disk/raspbian-tee/optee_os/lib/libutee/arch/arm/utee_syscalls_asm.S:75
    1fe8:	e92d40e0 	push	{r5, r6, r7, lr}
    1fec:	e3a07020 	mov	r7, #32
    1ff0:	e3a06000 	mov	r6, #0
    1ff4:	ef000000 	svc	0x00000000
    1ff8:	e8bd80e0 	pop	{r5, r6, r7, pc}

00001ffc <utee_cryp_random_number_generate>:
utee_cryp_random_number_generate():
/mnt/disk/raspbian-tee/optee_os/lib/libutee/arch/arm/utee_syscalls_asm.S:77
    1ffc:	e92d40e0 	push	{r5, r6, r7, lr}
    2000:	e3a07021 	mov	r7, #33	; 0x21
    2004:	e3a06000 	mov	r6, #0
    2008:	ef000000 	svc	0x00000000
    200c:	e8bd80e0 	pop	{r5, r6, r7, pc}

00002010 <utee_authenc_init>:
utee_authenc_init():
/mnt/disk/raspbian-tee/optee_os/lib/libutee/arch/arm/utee_syscalls_asm.S:80
    2010:	e92d40e0 	push	{r5, r6, r7, lr}
    2014:	e3a07022 	mov	r7, #34	; 0x22
    2018:	e3a06002 	mov	r6, #2
    201c:	e28d5010 	add	r5, sp, #16
    2020:	ef000000 	svc	0x00000000
    2024:	e8bd80e0 	pop	{r5, r6, r7, pc}

00002028 <utee_authenc_update_aad>:
utee_authenc_update_aad():
/mnt/disk/raspbian-tee/optee_os/lib/libutee/arch/arm/utee_syscalls_asm.S:82
    2028:	e92d40e0 	push	{r5, r6, r7, lr}
    202c:	e3a07023 	mov	r7, #35	; 0x23
    2030:	e3a06000 	mov	r6, #0
    2034:	ef000000 	svc	0x00000000
    2038:	e8bd80e0 	pop	{r5, r6, r7, pc}

0000203c <utee_authenc_update_payload>:
utee_authenc_update_payload():
/mnt/disk/raspbian-tee/optee_os/lib/libutee/arch/arm/utee_syscalls_asm.S:84
    203c:	e92d40e0 	push	{r5, r6, r7, lr}
    2040:	e3a07024 	mov	r7, #36	; 0x24
    2044:	e3a06001 	mov	r6, #1
    2048:	e28d5010 	add	r5, sp, #16
    204c:	ef000000 	svc	0x00000000
    2050:	e8bd80e0 	pop	{r5, r6, r7, pc}

00002054 <utee_authenc_enc_final>:
utee_authenc_enc_final():
/mnt/disk/raspbian-tee/optee_os/lib/libutee/arch/arm/utee_syscalls_asm.S:87
    2054:	e92d40e0 	push	{r5, r6, r7, lr}
    2058:	e3a07025 	mov	r7, #37	; 0x25
    205c:	e3a06003 	mov	r6, #3
    2060:	e28d5010 	add	r5, sp, #16
    2064:	ef000000 	svc	0x00000000
    2068:	e8bd80e0 	pop	{r5, r6, r7, pc}

0000206c <utee_authenc_dec_final>:
utee_authenc_dec_final():
/mnt/disk/raspbian-tee/optee_os/lib/libutee/arch/arm/utee_syscalls_asm.S:89
    206c:	e92d40e0 	push	{r5, r6, r7, lr}
    2070:	e3a07026 	mov	r7, #38	; 0x26
    2074:	e3a06003 	mov	r6, #3
    2078:	e28d5010 	add	r5, sp, #16
    207c:	ef000000 	svc	0x00000000
    2080:	e8bd80e0 	pop	{r5, r6, r7, pc}

00002084 <utee_asymm_operate>:
utee_asymm_operate():
/mnt/disk/raspbian-tee/optee_os/lib/libutee/arch/arm/utee_syscalls_asm.S:91
    2084:	e92d40e0 	push	{r5, r6, r7, lr}
    2088:	e3a07027 	mov	r7, #39	; 0x27
    208c:	e3a06003 	mov	r6, #3
    2090:	e28d5010 	add	r5, sp, #16
    2094:	ef000000 	svc	0x00000000
    2098:	e8bd80e0 	pop	{r5, r6, r7, pc}

0000209c <utee_asymm_verify>:
utee_asymm_verify():
/mnt/disk/raspbian-tee/optee_os/lib/libutee/arch/arm/utee_syscalls_asm.S:93
    209c:	e92d40e0 	push	{r5, r6, r7, lr}
    20a0:	e3a07028 	mov	r7, #40	; 0x28
    20a4:	e3a06003 	mov	r6, #3
    20a8:	e28d5010 	add	r5, sp, #16
    20ac:	ef000000 	svc	0x00000000
    20b0:	e8bd80e0 	pop	{r5, r6, r7, pc}

000020b4 <utee_storage_obj_open>:
utee_storage_obj_open():
/mnt/disk/raspbian-tee/optee_os/lib/libutee/arch/arm/utee_syscalls_asm.S:95
    20b4:	e92d40e0 	push	{r5, r6, r7, lr}
    20b8:	e3a07029 	mov	r7, #41	; 0x29
    20bc:	e3a06001 	mov	r6, #1
    20c0:	e28d5010 	add	r5, sp, #16
    20c4:	ef000000 	svc	0x00000000
    20c8:	e8bd80e0 	pop	{r5, r6, r7, pc}

000020cc <utee_storage_obj_create>:
utee_storage_obj_create():
/mnt/disk/raspbian-tee/optee_os/lib/libutee/arch/arm/utee_syscalls_asm.S:97
    20cc:	e92d40e0 	push	{r5, r6, r7, lr}
    20d0:	e3a0702a 	mov	r7, #42	; 0x2a
    20d4:	e3a06004 	mov	r6, #4
    20d8:	e28d5010 	add	r5, sp, #16
    20dc:	ef000000 	svc	0x00000000
    20e0:	e8bd80e0 	pop	{r5, r6, r7, pc}

000020e4 <utee_storage_obj_del>:
utee_storage_obj_del():
/mnt/disk/raspbian-tee/optee_os/lib/libutee/arch/arm/utee_syscalls_asm.S:99
    20e4:	e92d40e0 	push	{r5, r6, r7, lr}
    20e8:	e3a0702b 	mov	r7, #43	; 0x2b
    20ec:	e3a06000 	mov	r6, #0
    20f0:	ef000000 	svc	0x00000000
    20f4:	e8bd80e0 	pop	{r5, r6, r7, pc}

000020f8 <utee_storage_obj_rename>:
utee_storage_obj_rename():
/mnt/disk/raspbian-tee/optee_os/lib/libutee/arch/arm/utee_syscalls_asm.S:101
    20f8:	e92d40e0 	push	{r5, r6, r7, lr}
    20fc:	e3a0702c 	mov	r7, #44	; 0x2c
    2100:	e3a06000 	mov	r6, #0
    2104:	ef000000 	svc	0x00000000
    2108:	e8bd80e0 	pop	{r5, r6, r7, pc}

0000210c <utee_storage_alloc_enum>:
utee_storage_alloc_enum():
/mnt/disk/raspbian-tee/optee_os/lib/libutee/arch/arm/utee_syscalls_asm.S:103
    210c:	e92d40e0 	push	{r5, r6, r7, lr}
    2110:	e3a0702d 	mov	r7, #45	; 0x2d
    2114:	e3a06000 	mov	r6, #0
    2118:	ef000000 	svc	0x00000000
    211c:	e8bd80e0 	pop	{r5, r6, r7, pc}

00002120 <utee_storage_free_enum>:
utee_storage_free_enum():
/mnt/disk/raspbian-tee/optee_os/lib/libutee/arch/arm/utee_syscalls_asm.S:105
    2120:	e92d40e0 	push	{r5, r6, r7, lr}
    2124:	e3a0702e 	mov	r7, #46	; 0x2e
    2128:	e3a06000 	mov	r6, #0
    212c:	ef000000 	svc	0x00000000
    2130:	e8bd80e0 	pop	{r5, r6, r7, pc}

00002134 <utee_storage_reset_enum>:
utee_storage_reset_enum():
/mnt/disk/raspbian-tee/optee_os/lib/libutee/arch/arm/utee_syscalls_asm.S:107
    2134:	e92d40e0 	push	{r5, r6, r7, lr}
    2138:	e3a0702f 	mov	r7, #47	; 0x2f
    213c:	e3a06000 	mov	r6, #0
    2140:	ef000000 	svc	0x00000000
    2144:	e8bd80e0 	pop	{r5, r6, r7, pc}

00002148 <utee_storage_start_enum>:
utee_storage_start_enum():
/mnt/disk/raspbian-tee/optee_os/lib/libutee/arch/arm/utee_syscalls_asm.S:109
    2148:	e92d40e0 	push	{r5, r6, r7, lr}
    214c:	e3a07030 	mov	r7, #48	; 0x30
    2150:	e3a06000 	mov	r6, #0
    2154:	ef000000 	svc	0x00000000
    2158:	e8bd80e0 	pop	{r5, r6, r7, pc}

0000215c <utee_storage_next_enum>:
utee_storage_next_enum():
/mnt/disk/raspbian-tee/optee_os/lib/libutee/arch/arm/utee_syscalls_asm.S:111
    215c:	e92d40e0 	push	{r5, r6, r7, lr}
    2160:	e3a07031 	mov	r7, #49	; 0x31
    2164:	e3a06000 	mov	r6, #0
    2168:	ef000000 	svc	0x00000000
    216c:	e8bd80e0 	pop	{r5, r6, r7, pc}

00002170 <utee_storage_obj_read>:
utee_storage_obj_read():
/mnt/disk/raspbian-tee/optee_os/lib/libutee/arch/arm/utee_syscalls_asm.S:113
    2170:	e92d40e0 	push	{r5, r6, r7, lr}
    2174:	e3a07032 	mov	r7, #50	; 0x32
    2178:	e3a06000 	mov	r6, #0
    217c:	ef000000 	svc	0x00000000
    2180:	e8bd80e0 	pop	{r5, r6, r7, pc}

00002184 <utee_storage_obj_write>:
utee_storage_obj_write():
/mnt/disk/raspbian-tee/optee_os/lib/libutee/arch/arm/utee_syscalls_asm.S:115
    2184:	e92d40e0 	push	{r5, r6, r7, lr}
    2188:	e3a07033 	mov	r7, #51	; 0x33
    218c:	e3a06000 	mov	r6, #0
    2190:	ef000000 	svc	0x00000000
    2194:	e8bd80e0 	pop	{r5, r6, r7, pc}

00002198 <utee_storage_obj_trunc>:
utee_storage_obj_trunc():
/mnt/disk/raspbian-tee/optee_os/lib/libutee/arch/arm/utee_syscalls_asm.S:117
    2198:	e92d40e0 	push	{r5, r6, r7, lr}
    219c:	e3a07034 	mov	r7, #52	; 0x34
    21a0:	e3a06000 	mov	r6, #0
    21a4:	ef000000 	svc	0x00000000
    21a8:	e8bd80e0 	pop	{r5, r6, r7, pc}

000021ac <utee_storage_obj_seek>:
utee_storage_obj_seek():
/mnt/disk/raspbian-tee/optee_os/lib/libutee/arch/arm/utee_syscalls_asm.S:119
    21ac:	e92d40e0 	push	{r5, r6, r7, lr}
    21b0:	e3a07035 	mov	r7, #53	; 0x35
    21b4:	e3a06000 	mov	r6, #0
    21b8:	ef000000 	svc	0x00000000
    21bc:	e8bd80e0 	pop	{r5, r6, r7, pc}

000021c0 <utee_cryp_obj_generate_key>:
utee_cryp_obj_generate_key():
/mnt/disk/raspbian-tee/optee_os/lib/libutee/arch/arm/utee_syscalls_asm.S:121
    21c0:	e92d40e0 	push	{r5, r6, r7, lr}
    21c4:	e3a07036 	mov	r7, #54	; 0x36
    21c8:	e3a06000 	mov	r6, #0
    21cc:	ef000000 	svc	0x00000000
    21d0:	e8bd80e0 	pop	{r5, r6, r7, pc}

000021d4 <utee_cache_operation>:
utee_cache_operation():
/mnt/disk/raspbian-tee/optee_os/lib/libutee/arch/arm/utee_syscalls_asm.S:124
    21d4:	e92d40e0 	push	{r5, r6, r7, lr}
    21d8:	e3a07046 	mov	r7, #70	; 0x46
    21dc:	e3a06000 	mov	r6, #0
    21e0:	ef000000 	svc	0x00000000
    21e4:	e8bd80e0 	pop	{r5, r6, r7, pc}

000021e8 <__utee_mcount>:
__utee_mcount():
/mnt/disk/raspbian-tee/optee_os/lib/libutee/arch/arm/gprof/gprof_a32.S:49
    21e8:	e52de004 	push	{lr}		; (str lr, [sp, #-4]!)
/mnt/disk/raspbian-tee/optee_os/lib/libutee/arch/arm/gprof/gprof_a32.S:50
    21ec:	e8bd5000 	pop	{ip, lr}
/mnt/disk/raspbian-tee/optee_os/lib/libutee/arch/arm/gprof/gprof_a32.S:51
    21f0:	e12fff1c 	bx	ip

000021f4 <mpi_panic>:
mpi_panic():
/mnt/disk/raspbian-tee/optee_os/lib/libutee/tee_api_arith_mpi.c:29
    21f4:	b508      	push	{r3, lr}
/mnt/disk/raspbian-tee/optee_os/lib/libutee/tee_api_arith_mpi.c:30
    21f6:	4613      	mov	r3, r2
    21f8:	460a      	mov	r2, r1
    21fa:	4601      	mov	r1, r0
