
b6c53aba-9669-4668-a7f2-205629d00f86.elf:     file format elf32-littlearm
b6c53aba-9669-4668-a7f2-205629d00f86.elf
architecture: armv8-a, flags 0x00000150:
HAS_SYMS, DYNAMIC, D_PAGED
start address 0x00000020

Program Header:
0x70000001 off    0x00018c4c vaddr 0x00008c4c paddr 0x00008c4c align 2**2
         filesz 0x00000638 memsz 0x00000638 flags r--
    LOAD off    0x00010000 vaddr 0x00000000 paddr 0x00000000 align 2**16
         filesz 0x00007ab8 memsz 0x00007ab8 flags r-x
    LOAD off    0x00017ab8 vaddr 0x00007ab8 paddr 0x00007ab8 align 2**16
         filesz 0x000019d4 memsz 0x000019d4 flags r--
    LOAD off    0x0001a000 vaddr 0x0000a000 paddr 0x0000a000 align 2**16
         filesz 0x00000080 memsz 0x0000a0f0 flags rw-
 DYNAMIC off    0x000193b8 vaddr 0x000093b8 paddr 0x000093b8 align 2**2
         filesz 0x00000088 memsz 0x00000088 flags rw-

Dynamic Section:
  HASH                 0x00009474
  GNU_HASH             0x00008c04
  STRTAB               0x00009470
  SYMTAB               0x00009440
  STRSZ                0x00000001
  SYMENT               0x00000010
  DEBUG                0x00000000
  REL                  0x000092c0
  RELSZ                0x000000f8
  RELENT               0x00000008
  FLAGS_1              0x08000000
  RELCOUNT             0x00000013
private flags = 0x5000400: [Version5 EABI] [hard-float ABI]

Sections:
Idx Name          Size      VMA       LMA       File off  Algn
  0 .ta_head      00000020  00000000  00000000  00010000  2**3
                  CONTENTS, ALLOC, LOAD, DATA
  1 .text         00007a98  00000020  00000020  00010020  2**3
                  CONTENTS, ALLOC, LOAD, READONLY, CODE
  2 .rodata       0000104f  00007ab8  00007ab8  00017ab8  2**2
                  CONTENTS, ALLOC, LOAD, READONLY, DATA
  3 .ARM.extab    000000fc  00008b08  00008b08  00018b08  2**2
                  CONTENTS, ALLOC, LOAD, READONLY, DATA
  4 .gnu.hash     00000018  00008c04  00008c04  00018c04  2**2
                  CONTENTS, ALLOC, LOAD, READONLY, DATA
  5 .ARM.extab.text.__aeabi_ldivmod 0000000c  00008c1c  00008c1c  00018c1c  2**2
                  CONTENTS, ALLOC, LOAD, READONLY, DATA
  6 .ARM.extab.text.__aeabi_uldivmod 0000000c  00008c28  00008c28  00018c28  2**2
                  CONTENTS, ALLOC, LOAD, READONLY, DATA
  7 .ARM.extab.text.utee_panic 0000000c  00008c34  00008c34  00018c34  2**2
                  CONTENTS, ALLOC, LOAD, READONLY, DATA
  8 .ARM.extab.text.unlikely 0000000c  00008c40  00008c40  00018c40  2**2
                  CONTENTS, ALLOC, LOAD, READONLY, DATA
  9 .ARM.exidx    00000638  00008c4c  00008c4c  00018c4c  2**2
                  CONTENTS, ALLOC, LOAD, READONLY, DATA
 10 .got          0000003c  00009284  00009284  00019284  2**2
                  CONTENTS, ALLOC, LOAD, DATA
 11 .dynsym       00000030  00009440  00009440  00019440  2**2
                  CONTENTS, ALLOC, LOAD, READONLY, DATA
 12 .rel.got      00000060  00009358  00009358  00019358  2**2
                  CONTENTS, ALLOC, LOAD, READONLY, DATA
 13 .dynamic      00000088  000093b8  000093b8  000193b8  2**2
                  CONTENTS, ALLOC, LOAD, DATA
 14 .dynstr       00000001  00009470  00009470  00019470  2**0
                  CONTENTS, ALLOC, LOAD, READONLY, DATA
 15 .hash         00000018  00009474  00009474  00019474  2**2
                  CONTENTS, ALLOC, LOAD, READONLY, DATA
 16 .data         00000080  0000a000  0000a000  0001a000  2**2
                  CONTENTS, ALLOC, LOAD, DATA
 17 .bss          0000a070  0000a080  0000a080  0001a080  2**2
                  ALLOC
 18 .debug_info   0001138d  00000000  00000000  0001a080  2**0
                  CONTENTS, READONLY, DEBUGGING, OCTETS
 19 .debug_abbrev 00002d83  00000000  00000000  0002b40d  2**0
                  CONTENTS, READONLY, DEBUGGING, OCTETS
 20 .debug_loclists 00000151  00000000  00000000  0002e190  2**0
                  CONTENTS, READONLY, DEBUGGING, OCTETS
 21 .debug_aranges 00000550  00000000  00000000  0002e2e8  2**3
                  CONTENTS, READONLY, DEBUGGING, OCTETS
 22 .debug_macro  00011d79  00000000  00000000  0002e838  2**0
                  CONTENTS, READONLY, DEBUGGING, OCTETS
 23 .debug_line   000056b8  00000000  00000000  000405b1  2**0
                  CONTENTS, READONLY, DEBUGGING, OCTETS
 24 .debug_str    0001222d  00000000  00000000  00045c69  2**0
                  CONTENTS, READONLY, DEBUGGING, OCTETS
 25 .comment      0000004f  00000000  00000000  00057e96  2**0
                  CONTENTS, READONLY
 26 .ARM.attributes 00000031  00000000  00000000  00057ee5  2**0
                  CONTENTS, READONLY
 27 .debug_frame  00001f74  00000000  00000000  00057f18  2**2
                  CONTENTS, READONLY, DEBUGGING, OCTETS
 28 .rel.dyn      00000098  000092c0  000092c0  000192c0  2**2
                  CONTENTS, ALLOC, LOAD, READONLY, DATA
 29 .debug_loc    00010a49  00000000  00000000  00059e8c  2**0
                  CONTENTS, READONLY, DEBUGGING, OCTETS
 30 .debug_ranges 000007c0  00000000  00000000  0006a8d8  2**3
                  CONTENTS, READONLY, DEBUGGING, OCTETS
SYMBOL TABLE:
00000000 l    d  .ta_head	00000000 .ta_head
00000020 l    d  .text	00000000 .text
00007ab8 l    d  .rodata	00000000 .rodata
00008b08 l    d  .ARM.extab	00000000 .ARM.extab
00008c04 l    d  .gnu.hash	00000000 .gnu.hash
00008c1c l    d  .ARM.extab.text.__aeabi_ldivmod	00000000 .ARM.extab.text.__aeabi_ldivmod
00008c28 l    d  .ARM.extab.text.__aeabi_uldivmod	00000000 .ARM.extab.text.__aeabi_uldivmod
00008c34 l    d  .ARM.extab.text.utee_panic	00000000 .ARM.extab.text.utee_panic
00008c40 l    d  .ARM.extab.text.unlikely	00000000 .ARM.extab.text.unlikely
00008c4c l    d  .ARM.exidx	00000000 .ARM.exidx
00009284 l    d  .got	00000000 .got
00009358 l    d  .rel.got	00000000 .rel.got
000093b8 l    d  .dynamic	00000000 .dynamic
00009440 l    d  .dynsym	00000000 .dynsym
00009470 l    d  .dynstr	00000000 .dynstr
00009474 l    d  .hash	00000000 .hash
0000a000 l    d  .data	00000000 .data
0000a080 l    d  .bss	00000000 .bss
00000000 l    d  .debug_info	00000000 .debug_info
00000000 l    d  .debug_abbrev	00000000 .debug_abbrev
00000000 l    d  .debug_loclists	00000000 .debug_loclists
00000000 l    d  .debug_aranges	00000000 .debug_aranges
00000000 l    d  .debug_macro	00000000 .debug_macro
00000000 l    d  .debug_line	00000000 .debug_line
00000000 l    d  .debug_str	00000000 .debug_str
00000000 l    d  .comment	00000000 .comment
00000000 l    d  .ARM.attributes	00000000 .ARM.attributes
00000000 l    d  .debug_frame	00000000 .debug_frame
000092c0 l    d  .rel.dyn	00000000 .rel.dyn
00000000 l    d  .debug_loc	00000000 .debug_loc
00000000 l    d  .debug_ranges	00000000 .debug_ranges
00000000 l    df *ABS*	00000000 user_ta_header.c
00007abc l     O .rodata	00000004 __compound_literal.4
00007ac0 l     O .rodata	00000004 __compound_literal.3
00007ac4 l     O .rodata	00000001 __compound_literal.2
00007ac5 l     O .rodata	00000001 __compound_literal.1
00007ac6 l     O .rodata	00000001 __compound_literal.0
00000000 l    df *ABS*	00000000 random_example_ta.c
00007dca l     O .rodata	00000017 __func__.0
00000000 l    df *ABS*	00000000 trace.c
000000d0 l     F .text	0000004e append
00007ea0 l     O .rodata	00000005 lvl_strs.5561
00007ea5 l     O .rodata	0000000a __func__.5615
00000000 l    df *ABS*	00000000 snprintk.c
00007ee9 l     O .rodata	00000011 HEXDIGITS
00007efa l     O .rodata	00000011 hexdigits
00000000 l    df *ABS*	00000000 arm32_aeabi_ldivmod_a32.o
00000000 l    df *ABS*	00000000 trace_ext.c
00000000 l    df *ABS*	00000000 tee_api.c
00007f43 l     O .rodata	0000000b __func__.6728
0000a080 l     O .bss	00000004 tee_api_instance_data
00000000 l    df *ABS*	00000000 tee_api_operations.c
00000e98 l     F .text	00000160 tee_buffer_update
00000000 l    df *ABS*	00000000 user_ta_entry.c
00002460 l     F .text	0000001c ta_header_get_session
0000247c l     F .text	00000068 ta_header_remove_session
0000a084 l     O .bss	00000001 init_done
0000a05c l     O .data	00000008 ta_sessions
00000000 l    df *ABS*	00000000 utee_syscalls_a32.o
00000000 l    df *ABS*	00000000 gprof_a32.o
00000000 l    df *ABS*	00000000 tee_api_objects.c
00000000 l    df *ABS*	00000000 tee_api_arith_mpi.c
000042d0 l     F .text	00000020 api_panic
000032bc l     F .text	00000020 mpi_panic
000032dc l     F .text	00000044 get_const_mpi
00003320 l     F .text	00000010 mpi_is_odd
00003330 l     F .text	00000016 rng_read
00003346 l     F .text	0000001c put_mpi
00003362 l     F .text	0000045a mpi_egcd
000037bc l     F .text	00000024 get_mpi
000037e0 l     F .text	00000088 bigint_binary
0000a0ac l     O .bss	00002000 data.6728
00003a6e l     F .text	000000ea bigint_binary_mod
00007f5f l     O .rodata	0000000e __func__.6757
00007f6d l     O .rodata	00000009 __func__.6996
00007f76 l     O .rodata	0000000e __func__.6856
00007f84 l     O .rodata	00000012 __func__.6729
00007f96 l     O .rodata	0000000f __func__.6767
00007fa5 l     O .rodata	0000001f __func__.6785
00007fc4 l     O .rodata	00000019 __func__.6792
00007fdd l     O .rodata	00000012 __func__.6867
00007fef l     O .rodata	00000015 __func__.6822
00008004 l     O .rodata	0000000e __func__.6894
00008012 l     O .rodata	0000000e __func__.6922
00008020 l     O .rodata	0000000e __func__.6928
0000802e l     O .rodata	00000011 __func__.6957
0000803f l     O .rodata	00000018 __func__.6973
00008057 l     O .rodata	0000001d __func__.7053
00008074 l     O .rodata	00000019 __func__.7103
0000808d l     O .rodata	00000015 __func__.7117
00000000 l    df *ABS*	00000000 bignum.c
000042f0 l     F .text	00000038 mpi_get_digit
00004328 l     F .text	0000005e mpi_sub_hlp
00004386 l     F .text	00000492 mpi_mul_hlp
00004818 l     F .text	00000048 mbedtls_mpi_mod_int.part.1
000058ba l     F .text	0000006c mpi_write_hlp
00005a60 l     F .text	00000050 mpi_check_small_factors
0000614c l     F .text	00000216 mpi_miller_rabin
00007ad0 l     O .rodata	000002a0 small_prime
00007d70 l     O .rodata	00000024 gcd_pairs
00000000 l    df *ABS*	00000000 bget_malloc.c
00006af0 l     F .text	00000030 raw_malloc_return_hook.isra.3
00006b20 l     F .text	000000d8 create_free_block.constprop.11
00006d2c l     F .text	00000038 raw_malloc.constprop.15
000085b6 l     O .rodata	00000012 __func__.5854
000085c8 l     O .rodata	00000005 __func__.5710
000085cd l     O .rodata	00000006 __func__.5725
000085d3 l     O .rodata	00000005 __func__.5742
000085d8 l     O .rodata	00000006 __func__.5734
000085de l     O .rodata	00000006 __func__.5751
000085e4 l     O .rodata	00000007 __func__.5761
000085eb l     O .rodata	0000000d __func__.5890
000085f8 l     O .rodata	0000000c __func__.5864
00008604 l     O .rodata	0000000b __func__.5875
0000860f l     O .rodata	00000010 __func__.5942
0000861f l     O .rodata	0000000e __func__.5896
0000862d l     O .rodata	00000013 __func__.5802
0000c0b0 l     O .bss	00000038 mstats
0000c0e8 l     O .bss	00000004 malloc_pool_len
0000c0ec l     O .bss	00000004 malloc_pool
0000a064 l     O .data	0000001c malloc_poolset
00000000 l    df *ABS*	00000000 mempool.c
00008a48 l     O .rodata	00000013 __func__.5618
00008a5b l     O .rodata	0000000e __func__.5627
00000000 l    df *ABS*	00000000 assert.c
00000000 l    df *ABS*	00000000 strlen.c
00000000 l    df *ABS*	00000000 aeabi_unwind.c
00000000 l    df *ABS*	00000000 memchr.c
00000000 l    df *ABS*	00000000 arm32_aeabi_ldivmod.c
00000000 l    df *ABS*	00000000 tee_api_panic.c
00000000 l    df *ABS*	00000000 snprintf.c
00000000 l    df *ABS*	00000000 memcmp.c
00000000 l    df *ABS*	00000000 memcpy.c
00000000 l    df *ABS*	00000000 memmove.c
00000000 l    df *ABS*	00000000 memset.c
00000000 l    df *ABS*	00000000 buf_compare_ct.c
00000000 l    df *ABS*	00000000 
000093b8 l     O *ABS*	00000000 _DYNAMIC
00009284 l     O *ABS*	00000000 _GLOBAL_OFFSET_TABLE_
00007a78 l     F .text	00000010 __utee_panic_from_thumb
00007a88 l     F .text	00000010 __utee_cache_operation_from_thumb
00007a98 l     F .text	00000010 __utee_log_from_thumb
00007aa8 l     F .text	00000010 __utee_check_access_rights_from_thumb
00000b90 g     F .text	00000022 putchar
00002d98 g     F .text	00000070 TEE_PopulateTransientObject
000041e2 g     F .text	00000004 TEE_BigIntConvertToFMM
00003f24 g     F .text	00000008 TEE_BigIntSquareMod
00003b58 g     F .text	000000f4 TEE_BigIntShiftRight
00002a08 g     F .text	00000018 utee_storage_obj_create
000048f8 g     F .text	000000a8 mbedtls_mpi_grow
000078b2 g     F .text	000000ec __l_divmod
00002688 g     F .text	00000014 utee_return
000018a0 g     F .text	00000030 TEE_DigestUpdate
00000e7c g     F .text	00000004 TEE_Realloc
00001708 g     F .text	000000f4 TEE_SetOperationKey2
00000b32 g     F .text	0000003a printf
0000269c g     F .text	00000014 utee_log
00002e08 g     F .text	00000022 TEE_InitRefAttribute
00000c9a g     F .text	00000066 TEE_InvokeTACommand
00004872 g     F .text	00000026 mbedtls_mpi_init_mempool
00004d6c g     F .text	00000046 mbedtls_mpi_write_binary
00001e80 g     F .text	00000118 TEE_AEEncryptFinal
00000ac0 g     F .text	0000000e vsnprintk
000051f6 g     F .text	00000030 mbedtls_mpi_sub_int
00007a02 g     F .text	00000034 memmove
000079a2 g     F .text	0000001e snprintf
00003a48 g     F .text	00000026 TEE_BigIntCmpS32
00002e2a g     F .text	00000022 TEE_InitValueAttribute
000049a0 g     F .text	000000cc mbedtls_mpi_shrink
0000781c g     F .text	00000002 __aeabi_unwind_cpp_pr0
00003c98 g     F .text	0000001c TEE_BigIntAdd
000026dc g     F .text	00000014 utee_get_property_name_to_index
00007ac8 g     O .rodata	00000004 ta_heap_size
00002d68 g     F .text	00000030 TEE_ResetTransientObject
000027c0 g     F .text	00000018 utee_cryp_state_alloc
00002990 g     F .text	00000018 utee_authenc_enc_final
00005320 g     F .text	0000012c mbedtls_mpi_read_string
00001940 g     F .text	00000056 TEE_CipherInit
00003cd0 g     F .text	00000058 TEE_BigIntNeg
00000020 g       .text	00000000 __text_start
00003108 g     F .text	0000002c TEE_StartPersistentObjectEnumerator
00004e4a g     F .text	00000078 mbedtls_mpi_shift_r
00007680 g     F .text	0000004c malloc_buffer_overlaps_heap
00003eec g     F .text	0000001c TEE_BigIntSubMod
0000668e g     F .text	00000136 mbedtls_mpi_gen_prime
00004c1a g     F .text	00000020 mbedtls_mpi_get_bit
00004d06 g     F .text	00000066 mbedtls_mpi_read_binary
00001cfc g     F .text	00000070 TEE_AEInit
00000150 g     F .text	0000013c trace_printf
00005ad8 g     F .text	000000c4 mbedtls_mpi_montmul
000079ec g     F .text	00000016 memcpy
000027ec g     F .text	00000014 utee_cryp_state_free
000041e6 g     F .text	0000004a TEE_BigIntConvertFromFMM
0000799e g     F .text	00000004 TEE_Panic
00000b00 g     F .text	00000018 __aeabi_uldivmod
000017fc g     F .text	000000a4 TEE_CopyOperation
00000b6c g     F .text	00000024 puts
00004230 g     F .text	000000a0 TEE_BigIntComputeFMM
00007148 g     F .text	00000020 malloc_get_stats
0000286c g     F .text	00000018 utee_cipher_final
00000e1c g     F .text	00000016 TEE_GetREETime
000030a8 g     F .text	00000038 TEE_AllocatePersistentObjectEnumerator
0000a004 g     O .data	00000054 ta_props
000020a0 g     F .text	000000bc TEE_AsymmetricEncrypt
00007168 g     F .text	00000002 malloc
000028d4 g     F .text	00000014 utee_cryp_obj_close
00002ee4 g     F .text	00000048 TEE_GenerateKey
000079c0 g     F .text	0000000e vsnprintf
0000a000 g     O .data	00000004 trace_level
00003a14 g     F .text	00000034 TEE_BigIntCmp
00007ab8 g     O .rodata	00000004 ta_num_props
00006fb8 g     F .text	0000007c bgetr
00002978 g     F .text	00000018 utee_authenc_update_payload
000077a0 g     F .text	0000002e mempool_free
00001996 g     F .text	000000e6 TEE_CipherUpdate
0000392c g     F .text	00000058 TEE_BigIntConvertToOctetString
00001586 g     F .text	000000b6 TEE_GetOperationInfoMultiple
00002b10 g     F .text	00000014 utee_cache_operation
00004cb8 g     F .text	00000042 mbedtls_mpi_bitlen
0000294c g     F .text	00000018 utee_authenc_init
00003c4c g     F .text	0000002a TEE_BigIntGetBit
00007acc g     O .rodata	00000003 trace_ext_prefix
00006d64 g     F .text	0000005c bgetz
00000d6c g     F .text	0000000c TEE_GetInstanceData
00000d9a g     F .text	0000001e TEE_Wait
00002ac0 g     F .text	00000014 utee_storage_obj_write
00005226 g     F .text	000000dc mbedtls_mpi_mul_mpi
00007820 g     F .text	00000002 __aeabi_unwind_cpp_pr2
00000e8a g     F .text	00000006 TEE_CacheFlush
00000024 g     F .text	00000002 TA_DestroyEntryPoint
00004860 g     F .text	00000012 mbedtls_mpi_init
00004c8a g     F .text	0000002e mbedtls_mpi_lsb
000077d0 g     F .text	00000028 _assert_log
000041de g     F .text	00000004 TEE_BigIntFMMContextSizeInU32
00001c98 g     F .text	00000064 TEE_MACCompareFinal
00003062 g     F .text	00000046 TEE_RenamePersistentObject
000018d0 g     F .text	00000070 TEE_DigestDoFinal
00003868 g     F .text	00000044 _TEE_MathAPI_Init
00005132 g     F .text	00000048 mbedtls_mpi_add_mpi
00002a98 g     F .text	00000014 utee_storage_next_enum
0000c0f0 g     O .bss	00008000 ta_heap
00003f2c g     F .text	000000a4 TEE_BigIntInvMod
00000034 g     F .text	00000002 TA_CloseSessionEntryPoint
0000215c g     F .text	000000c0 TEE_AsymmetricDecrypt
00002f2c g     F .text	00000064 TEE_OpenPersistentObject
0000517a g     F .text	0000004c mbedtls_mpi_sub_mpi
000026b0 g     F .text	00000014 __utee_panic
000027d8 g     F .text	00000014 utee_cryp_state_copy
00000050 g     F .text	00000080 TA_InvokeCommandEntryPoint
00007710 g     F .text	0000006c mempool_alloc
000028c0 g     F .text	00000014 utee_cryp_obj_alloc
000027ac g     F .text	00000014 utee_set_ta_time
000028ac g     F .text	00000014 utee_cryp_obj_get_attr
0000777c g     F .text	00000024 mempool_calloc
00002eb4 g     F .text	00000030 TEE_CopyObjectAttributes
0000717c g     F .text	00000048 calloc
00000e32 g     F .text	0000004a TEE_Malloc
00002770 g     F .text	00000014 utee_mask_cancellation
000028e8 g     F .text	00000014 utee_cryp_obj_reset
00000d54 g     F .text	0000000a TEE_CheckMemoryAccessRights
000140f0 g       .bss	00000000 __gprof_buf_end
0000783e g     F .text	00000074 __ul_divmod
00004be2 g     F .text	00000038 mbedtls_mpi_lset
00003188 g     F .text	00000040 TEE_ReadObjectData
00002c00 g     F .text	00000070 TEE_GetObjectBufferAttribute
00000026 g     F .text	0000000e TA_OpenSessionEntryPoint
00002a84 g     F .text	00000014 utee_storage_start_enum
00000ff8 g     F .text	00000026 TEE_FreeOperation
00002a34 g     F .text	00000014 utee_storage_obj_rename
0000a088 g     O .bss	00000004 ta_param_types
000057ee g     F .text	0000002e mbedtls_mpi_div_int
00002b30 g     F .text	0000003a __utee_from_attr
000041a0 g     F .text	00000030 TEE_BigIntIsProbablePrime
00005302 g     F .text	0000001e mbedtls_mpi_mul_int
00003028 g     F .text	00000024 TEE_CloseAndDeletePersistentObject1
00005bc0 g     F .text	00000446 mbedtls_mpi_exp_mod
00004af0 g     F .text	0000006c mbedtls_mpi_safe_cond_assign
000026c4 g     F .text	00000018 utee_get_property
00001f98 g     F .text	00000108 TEE_AEDecryptFinal
000038ac g     F .text	00000040 TEE_BigIntInit
00000d78 g     F .text	00000004 TEE_MemMove
000038ec g     F .text	00000040 TEE_BigIntConvertFromOctetString
0000a058 g     O .data	00000004 _ref__utee_mcount
00004ec2 g     F .text	0000006e mbedtls_mpi_cmp_abs
00001b8c g     F .text	00000056 TEE_MACInit
0000221c g     F .text	000000b4 TEE_AsymmetricSignDigest
00007822 g     F .text	0000001c memchr
00000d1c g     F .text	0000001c TEE_UnmaskCancellation
00002b6a g     F .text	0000002a TEE_GetObjectInfo
000067c4 g     F .text	0000032c mbedtls_mpi_self_test
00002a20 g     F .text	00000014 utee_storage_obj_del
00001db2 g     F .text	000000ce TEE_AEUpdate
00002ae8 g     F .text	00000014 utee_storage_obj_seek
00002d38 g     F .text	00000030 TEE_FreeTransientObject
00000036 g     F .text	0000001a test
00004fc6 g     F .text	00000030 mbedtls_mpi_cmp_int
00002814 g     F .text	00000014 utee_hash_update
00002448 g     F .text	00000018 rand
00002b24  w    F .text	0000000c __utee_mcount
00001564 g     F .text	00000022 TEE_GetOperationInfo
00003e80 g     F .text	00000050 TEE_BigIntMod
00005880 g     F .text	0000003a mbedtls_mpi_mod_int
00002708 g     F .text	00000014 utee_close_ta_session
00003dd2 g     F .text	000000ae TEE_BigIntDiv
00004a6c g     F .text	00000056 mbedtls_mpi_copy
00007134 g     F .text	00000014 malloc_reset_stats
00002854 g     F .text	00000018 utee_cipher_update
00002bb4 g     F .text	00000020 TEE_RestrictObjectUsage1
000071c4 g     F .text	00000038 realloc
00004ac2 g     F .text	0000002e mbedtls_mpi_swap
000076cc g     F .text	00000044 mempool_alloc_pool
000029d8 g     F .text	00000018 utee_asymm_verify
00003d28 g     F .text	000000a4 TEE_BigIntMul
0000163c g     F .text	00000040 TEE_ResetOperation
00004db2 g     F .text	00000098 mbedtls_mpi_shift_l
00004f30 g     F .text	00000096 mbedtls_mpi_cmp_mpi
00000d80 g     F .text	00000004 TEE_MemFill
000079ce g     F .text	0000001e memcmp
000074ac g     F .text	000000f8 malloc_add_pool
00001be2 g     F .text	0000004e TEE_MACUpdate
0000013c g     F .text	00000014 trace_get_level
00004ff6 g     F .text	000000bc mbedtls_mpi_add_abs
00002938 g     F .text	00000014 utee_cryp_random_number_generate
00002bd4 g     F .text	0000002c TEE_RestrictObjectUsage
000041d6 g     F .text	00000008 TEE_BigIntFMMSizeInU32
000041d0 g     F .text	00000004 TEE_BigIntInitFMM
000029c0 g     F .text	00000018 utee_asymm_operate
00002cf4 g     F .text	00000014 TEE_CloseObject
000024e4 g     F .text	00000190 __utee_entry
00007ab8 g       .text	00000000 __text_end
00003fd0 g     F .text	0000007c TEE_BigIntRelativePrime
0000581c g     F .text	00000064 mbedtls_mpi_mod_mpi
00007034 g     F .text	0000009c bpool
00000d00 g     F .text	0000001c TEE_GetCancellationFlag
00006006 g     F .text	00000114 mbedtls_mpi_gcd
00000df4 g     F .text	00000028 TEE_SetTAPersistentTime
00007a36 g     F .text	00000010 memset
00000db8 g     F .text	0000003c TEE_GetTAPersistentTime
0000028c g     F .text	00000100 dhex_dump
00002f90 g     F .text	00000098 TEE_CreatePersistentObject
00000d38 g     F .text	0000001c TEE_MaskCancellation
00002aac g     F .text	00000014 utee_storage_obj_read
00001d6c g     F .text	00000046 TEE_AEUpdateAAD
00003208 g     F .text	00000038 TEE_TruncateObjectData
000028fc g     F .text	00000014 utee_cryp_obj_populate
00002b94 g     F .text	00000020 TEE_GetObjectInfo1
0000011e g     F .text	0000001e trace_set_level
00002884 g     F .text	00000014 utee_cryp_obj_get_info
00002c70 g     F .text	00000084 TEE_GetObjectValueAttribute
0000167c g     F .text	0000008c TEE_SetOperationKey
00002a48 g     F .text	00000014 utee_storage_alloc_enum
00002a70 g     F .text	00000014 utee_storage_reset_enum
00002ad4 g     F .text	00000014 utee_storage_obj_trunc
000039bc g     F .text	00000058 TEE_BigIntConvertToS32
00003cb4 g     F .text	0000001c TEE_BigIntSub
00002734 g     F .text	00000014 utee_get_cancellation_flag
00002800 g     F .text	00000014 utee_hash_init
00007808 g     F .text	00000004 tahead_get_trace_level
00000bb4 g     F .text	00000050 __utee_from_param
00003240 g     F .text	0000007c TEE_SeekObjectData
00000c04 g     F .text	0000003e __utee_to_param
00005b9c g     F .text	00000024 mbedtls_mpi_montred
000071fc g     F .text	000002b0 memalign
00001a7c g     F .text	00000110 TEE_CipherDoFinal
00003984 g     F .text	00000038 TEE_BigIntConvertFromS32
000051c6 g     F .text	00000030 mbedtls_mpi_add_int
00002898 g     F .text	00000014 utee_cryp_obj_restrict_usage
000075a4 g     F .text	000000dc malloc_buffer_is_within_alloced
00002910 g     F .text	00000014 utee_cryp_obj_copy
000041d4 g     F .text	00000002 TEE_BigIntInitFMMContext
00002924 g     F .text	00000014 utee_cryp_derive_key
000029a8 g     F .text	00000018 utee_authenc_dec_final
000031c8 g     F .text	00000040 TEE_WriteObjectData
000030f4 g     F .text	00000014 TEE_ResetPersistentObjectEnumerator
00003dcc g     F .text	00000006 TEE_BigIntSquare
00000020 g     F .text	00000004 TA_CreateEntryPoint
00005ab0 g     F .text	00000028 mbedtls_mpi_montg_init
00000ace g     F .text	0000001a snprintk
00003c76 g     F .text	00000022 TEE_BigIntGetBitCount
00003f08 g     F .text	0000001c TEE_BigIntMulMod
00006362 g     F .text	000002d0 mbedtls_mpi_inv_mod
0000237c g     F .text	000000ba TEE_DeriveKey
0000a08c g     O .bss	00000020 ta_params
0000544c g     F .text	000003a2 mbedtls_mpi_div_mpi
00004cfa g     F .text	0000000c mbedtls_mpi_size
00006bf8 g     F .text	00000134 bget
00002d08 g     F .text	00000030 TEE_AllocateTransientObject
00004c3a g     F .text	00000050 mbedtls_mpi_set_bit
00004898 g     F .text	00000012 mbedtls_mpi_init_static
00000e80 g     F .text	00000004 TEE_Free
00006632 g     F .text	0000005c mbedtls_mpi_is_prime
00000e90 g     F .text	00000006 TEE_CacheInvalidate
00002840 g     F .text	00000014 utee_cipher_init
000077f8 g     F .text	00000010 _assert_break
00003ed0 g     F .text	0000001c TEE_BigIntAddMod
00002a5c g     F .text	00000014 utee_storage_free_enum
00002964 g     F .text	00000014 utee_authenc_update_aad
0000101e g     F .text	00000546 TEE_AllocateOperation
00002436 g     F .text	00000012 TEE_GenerateRandom
00000d7c g     F .text	00000004 TEE_MemCompare
0000038c g     F .text	00000734 __vsnprintf
000030e0 g     F .text	00000014 TEE_FreePersistentObjectEnumerator
00002674 g     F .text	00000014 utee_panic
00000c42 g     F .text	00000044 TEE_OpenTASession
00000b18 g     F .text	00000014 trace_ext_puts
00000b2c g     F .text	00000006 trace_ext_get_thread_id
0000304c g     F .text	00000016 TEE_CloseAndDeletePersistentObject
000048aa g     F .text	0000004e mbedtls_mpi_free
00000e84 g     F .text	00000006 TEE_CacheClean
000026f0 g     F .text	00000018 utee_open_ta_session
00007a46 g     F .text	0000002c buf_compare_ct
00004b5c g     F .text	00000086 mbedtls_mpi_safe_cond_swap
00002e4c g     F .text	00000068 TEE_CopyObjectAttributes1
00002828 g     F .text	00000018 utee_hash_final
0000780c g     F .text	00000010 strlen
0000404c g     F .text	00000154 TEE_BigIntComputeExtendedGcd
0000781e g     F .text	00000002 __aeabi_unwind_cpp_pr1
000029f0 g     F .text	00000018 utee_storage_obj_open
0000271c g     F .text	00000018 utee_invoke_ta_command
00002784 g     F .text	00000014 utee_wait
00000d84 g     F .text	00000016 TEE_GetSystemTime
00000000 g     O .ta_head	00000020 ta_head
00006dc0 g     F .text	000001f8 brel
000050b2 g     F .text	00000080 mbedtls_mpi_sub_abs
00002798 g     F .text	00000014 utee_get_time
0000611a g     F .text	00000032 mbedtls_mpi_fill_random
00000d5e g     F .text	0000000e TEE_SetInstanceData
0000275c g     F .text	00000014 utee_unmask_cancellation
00000ae8 g     F .text	00000018 __aeabi_ldivmod
00002748 g     F .text	00000014 utee_check_access_rights
00005926 g     F .text	0000013a mbedtls_mpi_write_string
00003134 g     F .text	00000054 TEE_GetNextPersistentObject
00002afc g     F .text	00000014 utee_cryp_obj_generate_key
00000c86 g     F .text	00000014 TEE_CloseTASession
000022d0 g     F .text	000000ac TEE_AsymmetricVerifyDigest
000140f0 g       .bss	00000000 __gprof_buf_start
0000716a g     F .text	00000012 free
000070d0 g     F .text	00000064 bstats
00001c30 g     F .text	00000068 TEE_MACComputeFinal
0000c0ac g     O .bss	00000004 mbedtls_mpi_mempool



Disassembly of section .text:

00000020 <TA_CreateEntryPoint>:
TA_CreateEntryPoint():
/workspace/benchmark/random/ta/random_example_ta.c:37
      20:	2000      	movs	r0, #0
      22:	4770      	bx	lr

00000024 <TA_DestroyEntryPoint>:
TA_DestroyEntryPoint():
/workspace/benchmark/random/ta/random_example_ta.c:41
      24:	4770      	bx	lr

00000026 <TA_OpenSessionEntryPoint>:
TA_OpenSessionEntryPoint():
/workspace/benchmark/random/ta/random_example_ta.c:58
      26:	4b02      	ldr	r3, [pc, #8]	; (30 <TA_OpenSessionEntryPoint+0xa>)
/workspace/benchmark/random/ta/random_example_ta.c:52
      28:	2800      	cmp	r0, #0
/workspace/benchmark/random/ta/random_example_ta.c:58
      2a:	bf18      	it	ne
      2c:	4618      	movne	r0, r3
      2e:	4770      	bx	lr
      30:	ffff0006 	.word	0xffff0006

00000034 <TA_CloseSessionEntryPoint>:
TA_CloseSessionEntryPoint():
/workspace/benchmark/random/ta/random_example_ta.c:63
      34:	4770      	bx	lr

00000036 <test>:
test():
/workspace/benchmark/random/ta/random_example_ta.c:64
      36:	b538      	push	{r3, r4, r5, lr}
      38:	4605      	mov	r5, r0
      3a:	460c      	mov	r4, r1
/workspace/benchmark/random/ta/random_example_ta.c:65
      3c:	4608      	mov	r0, r1
      3e:	f007 fbe5 	bl	780c <strlen>
      42:	4621      	mov	r1, r4
      44:	4602      	mov	r2, r0
      46:	4628      	mov	r0, r5
/workspace/benchmark/random/ta/random_example_ta.c:66
      48:	e8bd 4038 	ldmia.w	sp!, {r3, r4, r5, lr}
/workspace/benchmark/random/ta/random_example_ta.c:65
      4c:	f000 be94 	b.w	d78 <TEE_MemMove>

00000050 <TA_InvokeCommandEntryPoint>:
TA_InvokeCommandEntryPoint():
/workspace/benchmark/random/ta/random_example_ta.c:109
      50:	b5f7      	push	{r0, r1, r2, r4, r5, r6, r7, lr}
      52:	4616      	mov	r6, r2
      54:	461d      	mov	r5, r3
/workspace/benchmark/random/ta/random_example_ta.c:112
      56:	460c      	mov	r4, r1
      58:	b119      	cbz	r1, 62 <TA_InvokeCommandEntryPoint+0x12>
/workspace/benchmark/random/ta/random_example_ta.c:116
      5a:	4c18      	ldr	r4, [pc, #96]	; (bc <TA_InvokeCommandEntryPoint+0x6c>)
/workspace/benchmark/random/ta/random_example_ta.c:118
      5c:	4620      	mov	r0, r4
      5e:	b003      	add	sp, #12
      60:	bdf0      	pop	{r4, r5, r6, r7, pc}
random_number_generate():
/workspace/benchmark/random/ta/random_example_ta.c:78
      62:	4f18      	ldr	r7, [pc, #96]	; (c4 <TA_InvokeCommandEntryPoint+0x74>)
      64:	2203      	movs	r2, #3
      66:	4b18      	ldr	r3, [pc, #96]	; (c8 <TA_InvokeCommandEntryPoint+0x78>)
      68:	214e      	movs	r1, #78	; 0x4e
      6a:	447f      	add	r7, pc
      6c:	447b      	add	r3, pc
      6e:	4638      	mov	r0, r7
      70:	9300      	str	r3, [sp, #0]
      72:	2301      	movs	r3, #1
      74:	f000 f86c 	bl	150 <trace_printf>
/workspace/benchmark/random/ta/random_example_ta.c:79
      78:	2e06      	cmp	r6, #6
      7a:	d1ee      	bne.n	5a <TA_InvokeCommandEntryPoint+0xa>
/workspace/benchmark/random/ta/random_example_ta.c:82
      7c:	6868      	ldr	r0, [r5, #4]
      7e:	4621      	mov	r1, r4
      80:	f000 fed7 	bl	e32 <TEE_Malloc>
/workspace/benchmark/random/ta/random_example_ta.c:83
      84:	4606      	mov	r6, r0
      86:	b1b8      	cbz	r0, b8 <TA_InvokeCommandEntryPoint+0x68>
/workspace/benchmark/random/ta/random_example_ta.c:85
      88:	686b      	ldr	r3, [r5, #4]
      8a:	2202      	movs	r2, #2
      8c:	9301      	str	r3, [sp, #4]
      8e:	4638      	mov	r0, r7
      90:	4b0e      	ldr	r3, [pc, #56]	; (cc <TA_InvokeCommandEntryPoint+0x7c>)
      92:	2155      	movs	r1, #85	; 0x55
      94:	447b      	add	r3, pc
      96:	9300      	str	r3, [sp, #0]
      98:	2301      	movs	r3, #1
      9a:	f000 f859 	bl	150 <trace_printf>
/workspace/benchmark/random/ta/random_example_ta.c:94
      9e:	6869      	ldr	r1, [r5, #4]
      a0:	4630      	mov	r0, r6
      a2:	f002 f9c8 	bl	2436 <TEE_GenerateRandom>
/workspace/benchmark/random/ta/random_example_ta.c:95
      a6:	686a      	ldr	r2, [r5, #4]
      a8:	6828      	ldr	r0, [r5, #0]
      aa:	4631      	mov	r1, r6
      ac:	f000 fe64 	bl	d78 <TEE_MemMove>
/workspace/benchmark/random/ta/random_example_ta.c:96
      b0:	4630      	mov	r0, r6
      b2:	f000 fee5 	bl	e80 <TEE_Free>
/workspace/benchmark/random/ta/random_example_ta.c:103
      b6:	e7d1      	b.n	5c <TA_InvokeCommandEntryPoint+0xc>
/workspace/benchmark/random/ta/random_example_ta.c:84
      b8:	4c01      	ldr	r4, [pc, #4]	; (c0 <TA_InvokeCommandEntryPoint+0x70>)
      ba:	e7cf      	b.n	5c <TA_InvokeCommandEntryPoint+0xc>
      bc:	ffff0006 	.word	0xffff0006
      c0:	ffff000c 	.word	0xffff000c
      c4:	00007d5c 	.word	0x00007d5c
      c8:	00007d24 	.word	0x00007d24
      cc:	00007d0c 	.word	0x00007d0c

000000d0 <append>:
append():
/mnt/disk/raspbian-tee/optee_os/lib/libutils/ext/trace.c:198
      d0:	b40e      	push	{r1, r2, r3}
/mnt/disk/raspbian-tee/optee_os/lib/libutils/ext/trace.c:203
      d2:	f8d0 3100 	ldr.w	r3, [r0, #256]	; 0x100
/mnt/disk/raspbian-tee/optee_os/lib/libutils/ext/trace.c:198
      d6:	b533      	push	{r0, r1, r4, r5, lr}
      d8:	4604      	mov	r4, r0
/mnt/disk/raspbian-tee/optee_os/lib/libutils/ext/trace.c:203
      da:	b90b      	cbnz	r3, e0 <append+0x10>
/mnt/disk/raspbian-tee/optee_os/lib/libutils/ext/trace.c:204
      dc:	f8c4 0100 	str.w	r0, [r4, #256]	; 0x100
/mnt/disk/raspbian-tee/optee_os/lib/libutils/ext/trace.c:205
      e0:	f8d4 0100 	ldr.w	r0, [r4, #256]	; 0x100
/mnt/disk/raspbian-tee/optee_os/lib/libutils/ext/trace.c:206
      e4:	ab06      	add	r3, sp, #24
/mnt/disk/raspbian-tee/optee_os/lib/libutils/ext/trace.c:207
      e6:	9a05      	ldr	r2, [sp, #20]
/mnt/disk/raspbian-tee/optee_os/lib/libutils/ext/trace.c:205
      e8:	1b05      	subs	r5, r0, r4
/mnt/disk/raspbian-tee/optee_os/lib/libutils/ext/trace.c:206
      ea:	9301      	str	r3, [sp, #4]
/mnt/disk/raspbian-tee/optee_os/lib/libutils/ext/trace.c:205
      ec:	f5c5 7580 	rsb	r5, r5, #256	; 0x100
/mnt/disk/raspbian-tee/optee_os/lib/libutils/ext/trace.c:207
      f0:	4629      	mov	r1, r5
      f2:	f000 fce5 	bl	ac0 <vsnprintk>
/mnt/disk/raspbian-tee/optee_os/lib/libutils/ext/trace.c:209
      f6:	2800      	cmp	r0, #0
      f8:	db0f      	blt.n	11a <append+0x4a>
/mnt/disk/raspbian-tee/optee_os/lib/libutils/ext/trace.c:213
      fa:	4285      	cmp	r5, r0
      fc:	dd0d      	ble.n	11a <append+0x4a>
/mnt/disk/raspbian-tee/optee_os/lib/libutils/ext/trace.c:217
      fe:	4285      	cmp	r5, r0
     100:	bfa8      	it	ge
     102:	4605      	movge	r5, r0
     104:	f8d4 0100 	ldr.w	r0, [r4, #256]	; 0x100
     108:	4405      	add	r5, r0
/mnt/disk/raspbian-tee/optee_os/lib/libutils/ext/trace.c:218
     10a:	2001      	movs	r0, #1
/mnt/disk/raspbian-tee/optee_os/lib/libutils/ext/trace.c:217
     10c:	f8c4 5100 	str.w	r5, [r4, #256]	; 0x100
/mnt/disk/raspbian-tee/optee_os/lib/libutils/ext/trace.c:219
     110:	b002      	add	sp, #8
     112:	e8bd 4030 	ldmia.w	sp!, {r4, r5, lr}
     116:	b003      	add	sp, #12
     118:	4770      	bx	lr
/mnt/disk/raspbian-tee/optee_os/lib/libutils/ext/trace.c:211
     11a:	2000      	movs	r0, #0
     11c:	e7f8      	b.n	110 <append+0x40>

0000011e <trace_set_level>:
trace_set_level():
/mnt/disk/raspbian-tee/optee_os/lib/libutils/ext/trace.c:25
     11e:	4b05      	ldr	r3, [pc, #20]	; (134 <trace_set_level+0x16>)
/mnt/disk/raspbian-tee/optee_os/lib/libutils/ext/trace.c:26
     120:	2804      	cmp	r0, #4
     122:	4a05      	ldr	r2, [pc, #20]	; (138 <trace_set_level+0x1a>)
/mnt/disk/raspbian-tee/optee_os/lib/libutils/ext/trace.c:25
     124:	447b      	add	r3, pc
     126:	589b      	ldr	r3, [r3, r2]
/mnt/disk/raspbian-tee/optee_os/lib/libutils/ext/trace.c:26
     128:	d801      	bhi.n	12e <trace_set_level+0x10>
/mnt/disk/raspbian-tee/optee_os/lib/libutils/ext/trace.c:27
     12a:	6018      	str	r0, [r3, #0]
     12c:	4770      	bx	lr
/mnt/disk/raspbian-tee/optee_os/lib/libutils/ext/trace.c:29
     12e:	2204      	movs	r2, #4
     130:	601a      	str	r2, [r3, #0]
     132:	4770      	bx	lr
     134:	0000915c 	.word	0x0000915c
     138:	00000010 	.word	0x00000010

0000013c <trace_get_level>:
trace_get_level():
/mnt/disk/raspbian-tee/optee_os/lib/libutils/ext/trace.c:33
     13c:	4b02      	ldr	r3, [pc, #8]	; (148 <trace_get_level+0xc>)
/mnt/disk/raspbian-tee/optee_os/lib/libutils/ext/trace.c:34
     13e:	4a03      	ldr	r2, [pc, #12]	; (14c <trace_get_level+0x10>)
/mnt/disk/raspbian-tee/optee_os/lib/libutils/ext/trace.c:33
     140:	447b      	add	r3, pc
/mnt/disk/raspbian-tee/optee_os/lib/libutils/ext/trace.c:34
     142:	589b      	ldr	r3, [r3, r2]
/mnt/disk/raspbian-tee/optee_os/lib/libutils/ext/trace.c:35
     144:	6818      	ldr	r0, [r3, #0]
     146:	4770      	bx	lr
     148:	00009140 	.word	0x00009140
     14c:	00000010 	.word	0x00000010

00000150 <trace_printf>:
trace_printf():
/mnt/disk/raspbian-tee/optee_os/lib/libutils/ext/trace.c:97
     150:	e92d 47f0 	stmdb	sp!, {r4, r5, r6, r7, r8, r9, sl, lr}
     154:	4607      	mov	r7, r0
     156:	f8df 910c 	ldr.w	r9, [pc, #268]	; 264 <trace_printf+0x114>
     15a:	b0c6      	sub	sp, #280	; 0x118
     15c:	4688      	mov	r8, r1
     15e:	44f9      	add	r9, pc
     160:	4614      	mov	r4, r2
/mnt/disk/raspbian-tee/optee_os/lib/libutils/ext/trace.c:103
     162:	469a      	mov	sl, r3
     164:	2b00      	cmp	r3, #0
     166:	d06a      	beq.n	23e <trace_printf+0xee>
/mnt/disk/raspbian-tee/optee_os/lib/libutils/ext/trace.c:103 (discriminator 1)
     168:	4b3f      	ldr	r3, [pc, #252]	; (268 <trace_printf+0x118>)
     16a:	f859 3003 	ldr.w	r3, [r9, r3]
     16e:	681b      	ldr	r3, [r3, #0]
     170:	4293      	cmp	r3, r2
     172:	db61      	blt.n	238 <trace_printf+0xe8>
trace_level_to_string():
/mnt/disk/raspbian-tee/optee_os/lib/libutils/ext/trace.c:52
     174:	4613      	mov	r3, r2
     176:	2a04      	cmp	r2, #4
/mnt/disk/raspbian-tee/optee_os/lib/libutils/ext/trace.c:55
     178:	4a3c      	ldr	r2, [pc, #240]	; (26c <trace_printf+0x11c>)
/mnt/disk/raspbian-tee/optee_os/lib/libutils/ext/trace.c:52
     17a:	bf88      	it	hi
     17c:	2300      	movhi	r3, #0
/mnt/disk/raspbian-tee/optee_os/lib/libutils/ext/trace.c:55
     17e:	447a      	add	r2, pc
     180:	5cd3      	ldrb	r3, [r2, r3]
trace_printf():
/mnt/disk/raspbian-tee/optee_os/lib/libutils/ext/trace.c:107
     182:	4a3b      	ldr	r2, [pc, #236]	; (270 <trace_printf+0x120>)
     184:	ad06      	add	r5, sp, #24
     186:	f44f 7180 	mov.w	r1, #256	; 0x100
     18a:	4628      	mov	r0, r5
     18c:	447a      	add	r2, pc
     18e:	f000 fc9e 	bl	ace <snprintk>
/mnt/disk/raspbian-tee/optee_os/lib/libutils/ext/trace.c:109
     192:	1e06      	subs	r6, r0, #0
     194:	db50      	blt.n	238 <trace_printf+0xe8>
/mnt/disk/raspbian-tee/optee_os/lib/libutils/ext/trace.c:114
     196:	4b37      	ldr	r3, [pc, #220]	; (274 <trace_printf+0x124>)
     198:	f5c6 7180 	rsb	r1, r6, #256	; 0x100
     19c:	4a36      	ldr	r2, [pc, #216]	; (278 <trace_printf+0x128>)
     19e:	19a8      	adds	r0, r5, r6
     1a0:	447a      	add	r2, pc
     1a2:	f859 3003 	ldr.w	r3, [r9, r3]
     1a6:	9303      	str	r3, [sp, #12]
     1a8:	f000 fc91 	bl	ace <snprintk>
/mnt/disk/raspbian-tee/optee_os/lib/libutils/ext/trace.c:116
     1ac:	2800      	cmp	r0, #0
     1ae:	db43      	blt.n	238 <trace_printf+0xe8>
/mnt/disk/raspbian-tee/optee_os/lib/libutils/ext/trace.c:118
     1b0:	4406      	add	r6, r0
/mnt/disk/raspbian-tee/optee_os/lib/libutils/ext/trace.c:120
     1b2:	f1ba 0f00 	cmp.w	sl, #0
     1b6:	d04b      	beq.n	250 <trace_printf+0x100>
/mnt/disk/raspbian-tee/optee_os/lib/libutils/ext/trace.c:120 (discriminator 1)
     1b8:	231a      	movs	r3, #26
     1ba:	fa23 f404 	lsr.w	r4, r3, r4
     1be:	07e3      	lsls	r3, r4, #31
     1c0:	d546      	bpl.n	250 <trace_printf+0x100>
print_thread_id():
/mnt/disk/raspbian-tee/optee_os/lib/libutils/ext/trace.c:65
     1c2:	f000 fcb3 	bl	b2c <trace_ext_get_thread_id>
trace_printf():
/mnt/disk/raspbian-tee/optee_os/lib/libutils/ext/trace.c:122
     1c6:	19ac      	adds	r4, r5, r6
     1c8:	f5c6 7980 	rsb	r9, r6, #256	; 0x100
print_thread_id():
/mnt/disk/raspbian-tee/optee_os/lib/libutils/ext/trace.c:67
     1cc:	2800      	cmp	r0, #0
     1ce:	db38      	blt.n	242 <trace_printf+0xf2>
/mnt/disk/raspbian-tee/optee_os/lib/libutils/ext/trace.c:68
     1d0:	4a2a      	ldr	r2, [pc, #168]	; (27c <trace_printf+0x12c>)
     1d2:	2301      	movs	r3, #1
     1d4:	9000      	str	r0, [sp, #0]
     1d6:	447a      	add	r2, pc
/mnt/disk/raspbian-tee/optee_os/lib/libutils/ext/trace.c:70
     1d8:	4649      	mov	r1, r9
     1da:	4620      	mov	r0, r4
     1dc:	f000 fc77 	bl	ace <snprintk>
trace_printf():
/mnt/disk/raspbian-tee/optee_os/lib/libutils/ext/trace.c:129
     1e0:	2800      	cmp	r0, #0
     1e2:	db29      	blt.n	238 <trace_printf+0xe8>
/mnt/disk/raspbian-tee/optee_os/lib/libutils/ext/trace.c:131
     1e4:	1984      	adds	r4, r0, r6
/mnt/disk/raspbian-tee/optee_os/lib/libutils/ext/trace.c:133
     1e6:	b167      	cbz	r7, 202 <trace_printf+0xb2>
/mnt/disk/raspbian-tee/optee_os/lib/libutils/ext/trace.c:134
     1e8:	4a25      	ldr	r2, [pc, #148]	; (280 <trace_printf+0x130>)
     1ea:	463b      	mov	r3, r7
     1ec:	f8cd 8000 	str.w	r8, [sp]
     1f0:	f5c4 7180 	rsb	r1, r4, #256	; 0x100
     1f4:	447a      	add	r2, pc
     1f6:	1928      	adds	r0, r5, r4
     1f8:	f000 fc69 	bl	ace <snprintk>
/mnt/disk/raspbian-tee/optee_os/lib/libutils/ext/trace.c:136
     1fc:	2800      	cmp	r0, #0
     1fe:	db1b      	blt.n	238 <trace_printf+0xe8>
/mnt/disk/raspbian-tee/optee_os/lib/libutils/ext/trace.c:138
     200:	4404      	add	r4, r0
/mnt/disk/raspbian-tee/optee_os/lib/libutils/ext/trace.c:148
     202:	ab4f      	add	r3, sp, #316	; 0x13c
/mnt/disk/raspbian-tee/optee_os/lib/libutils/ext/trace.c:149
     204:	f5c4 7180 	rsb	r1, r4, #256	; 0x100
     208:	1928      	adds	r0, r5, r4
     20a:	9a4e      	ldr	r2, [sp, #312]	; 0x138
/mnt/disk/raspbian-tee/optee_os/lib/libutils/ext/trace.c:148
     20c:	9305      	str	r3, [sp, #20]
/mnt/disk/raspbian-tee/optee_os/lib/libutils/ext/trace.c:149
     20e:	f000 fc57 	bl	ac0 <vsnprintk>
/mnt/disk/raspbian-tee/optee_os/lib/libutils/ext/trace.c:151
     212:	2800      	cmp	r0, #0
/mnt/disk/raspbian-tee/optee_os/lib/libutils/ext/trace.c:157
     214:	f04f 030a 	mov.w	r3, #10
/mnt/disk/raspbian-tee/optee_os/lib/libutils/ext/trace.c:152
     218:	bfc8      	it	gt
     21a:	1824      	addgt	r4, r4, r0
     21c:	2cfe      	cmp	r4, #254	; 0xfe
     21e:	bf28      	it	cs
     220:	24fe      	movcs	r4, #254	; 0xfe
/mnt/disk/raspbian-tee/optee_os/lib/libutils/ext/trace.c:157
     222:	552b      	strb	r3, [r5, r4]
/mnt/disk/raspbian-tee/optee_os/lib/libutils/ext/trace.c:158
     224:	b114      	cbz	r4, 22c <trace_printf+0xdc>
/mnt/disk/raspbian-tee/optee_os/lib/libutils/ext/trace.c:158 (discriminator 1)
     226:	5d2b      	ldrb	r3, [r5, r4]
     228:	2b0a      	cmp	r3, #10
     22a:	d019      	beq.n	260 <trace_printf+0x110>
/mnt/disk/raspbian-tee/optee_os/lib/libutils/ext/trace.c:161
     22c:	442c      	add	r4, r5
/mnt/disk/raspbian-tee/optee_os/lib/libutils/ext/trace.c:163
     22e:	4628      	mov	r0, r5
/mnt/disk/raspbian-tee/optee_os/lib/libutils/ext/trace.c:161
     230:	2300      	movs	r3, #0
     232:	70a3      	strb	r3, [r4, #2]
/mnt/disk/raspbian-tee/optee_os/lib/libutils/ext/trace.c:163
     234:	f000 fc70 	bl	b18 <trace_ext_puts>
/mnt/disk/raspbian-tee/optee_os/lib/libutils/ext/trace.c:164
     238:	b046      	add	sp, #280	; 0x118
     23a:	e8bd 87f0 	ldmia.w	sp!, {r4, r5, r6, r7, r8, r9, sl, pc}
trace_level_to_string():
/mnt/disk/raspbian-tee/optee_os/lib/libutils/ext/trace.c:50
     23e:	234d      	movs	r3, #77	; 0x4d
     240:	e79f      	b.n	182 <trace_printf+0x32>
print_thread_id():
/mnt/disk/raspbian-tee/optee_os/lib/libutils/ext/trace.c:70
     242:	4b10      	ldr	r3, [pc, #64]	; (284 <trace_printf+0x134>)
     244:	4a10      	ldr	r2, [pc, #64]	; (288 <trace_printf+0x138>)
     246:	447b      	add	r3, pc
     248:	9300      	str	r3, [sp, #0]
     24a:	447a      	add	r2, pc
     24c:	2301      	movs	r3, #1
     24e:	e7c3      	b.n	1d8 <trace_printf+0x88>
trace_printf():
/mnt/disk/raspbian-tee/optee_os/lib/libutils/ext/trace.c:142
     250:	2efe      	cmp	r6, #254	; 0xfe
     252:	d8f1      	bhi.n	238 <trace_printf+0xe8>
/mnt/disk/raspbian-tee/optee_os/lib/libutils/ext/trace.c:144
     254:	1c74      	adds	r4, r6, #1
     256:	2320      	movs	r3, #32
     258:	55ab      	strb	r3, [r5, r6]
/mnt/disk/raspbian-tee/optee_os/lib/libutils/ext/trace.c:145
     25a:	2300      	movs	r3, #0
     25c:	552b      	strb	r3, [r5, r4]
     25e:	e7d0      	b.n	202 <trace_printf+0xb2>
/mnt/disk/raspbian-tee/optee_os/lib/libutils/ext/trace.c:159
     260:	3c01      	subs	r4, #1
     262:	e7df      	b.n	224 <trace_printf+0xd4>
     264:	00009122 	.word	0x00009122
     268:	00000010 	.word	0x00000010
     26c:	00007d1e 	.word	0x00007d1e
     270:	00007d1f 	.word	0x00007d1f
     274:	00000018 	.word	0x00000018
     278:	00007d0f 	.word	0x00007d0f
     27c:	00007cdd 	.word	0x00007cdd
     280:	00007cca 	.word	0x00007cca
     284:	0000836b 	.word	0x0000836b
     288:	00007c6f 	.word	0x00007c6f

0000028c <dhex_dump>:
dhex_dump():
/mnt/disk/raspbian-tee/optee_os/lib/libutils/ext/trace.c:225
     28c:	e92d 4ff0 	stmdb	sp!, {r4, r5, r6, r7, r8, r9, sl, fp, lr}
     290:	4690      	mov	r8, r2
     292:	4a35      	ldr	r2, [pc, #212]	; (368 <dhex_dump+0xdc>)
     294:	468a      	mov	sl, r1
/mnt/disk/raspbian-tee/optee_os/lib/libutils/ext/trace.c:231
     296:	4935      	ldr	r1, [pc, #212]	; (36c <dhex_dump+0xe0>)
/mnt/disk/raspbian-tee/optee_os/lib/libutils/ext/trace.c:225
     298:	447a      	add	r2, pc
     29a:	b0c7      	sub	sp, #284	; 0x11c
     29c:	4681      	mov	r9, r0
/mnt/disk/raspbian-tee/optee_os/lib/libutils/ext/trace.c:231
     29e:	5852      	ldr	r2, [r2, r1]
     2a0:	6812      	ldr	r2, [r2, #0]
     2a2:	4542      	cmp	r2, r8
     2a4:	db1d      	blt.n	2e2 <dhex_dump+0x56>
     2a6:	461e      	mov	r6, r3
/mnt/disk/raspbian-tee/optee_os/lib/libutils/ext/trace.c:240
     2a8:	4b31      	ldr	r3, [pc, #196]	; (370 <dhex_dump+0xe4>)
/mnt/disk/raspbian-tee/optee_os/lib/libutils/ext/trace.c:232
     2aa:	ad05      	add	r5, sp, #20
/mnt/disk/raspbian-tee/optee_os/lib/libutils/ext/trace.c:235
     2ac:	f8df b0c4 	ldr.w	fp, [pc, #196]	; 374 <dhex_dump+0xe8>
/mnt/disk/raspbian-tee/optee_os/lib/libutils/ext/trace.c:240
     2b0:	447b      	add	r3, pc
     2b2:	9302      	str	r3, [sp, #8]
/mnt/disk/raspbian-tee/optee_os/lib/libutils/ext/trace.c:248
     2b4:	4b30      	ldr	r3, [pc, #192]	; (378 <dhex_dump+0xec>)
/mnt/disk/raspbian-tee/optee_os/lib/libutils/ext/trace.c:235
     2b6:	44fb      	add	fp, pc
/mnt/disk/raspbian-tee/optee_os/lib/libutils/ext/trace.c:232
     2b8:	2400      	movs	r4, #0
     2ba:	f8c5 4100 	str.w	r4, [r5, #256]	; 0x100
/mnt/disk/raspbian-tee/optee_os/lib/libutils/ext/trace.c:248
     2be:	447b      	add	r3, pc
     2c0:	9303      	str	r3, [sp, #12]
/mnt/disk/raspbian-tee/optee_os/lib/libutils/ext/trace.c:233 (discriminator 1)
     2c2:	9b50      	ldr	r3, [sp, #320]	; 0x140
     2c4:	429c      	cmp	r4, r3
     2c6:	db0f      	blt.n	2e8 <dhex_dump+0x5c>
/mnt/disk/raspbian-tee/optee_os/lib/libutils/ext/trace.c:253
     2c8:	f8d5 3100 	ldr.w	r3, [r5, #256]	; 0x100
     2cc:	b14b      	cbz	r3, 2e2 <dhex_dump+0x56>
/mnt/disk/raspbian-tee/optee_os/lib/libutils/ext/trace.c:255
     2ce:	4b2b      	ldr	r3, [pc, #172]	; (37c <dhex_dump+0xf0>)
     2d0:	4642      	mov	r2, r8
     2d2:	9501      	str	r5, [sp, #4]
     2d4:	4651      	mov	r1, sl
     2d6:	447b      	add	r3, pc
     2d8:	4648      	mov	r0, r9
     2da:	9300      	str	r3, [sp, #0]
     2dc:	2301      	movs	r3, #1
     2de:	f7ff ff37 	bl	150 <trace_printf>
/mnt/disk/raspbian-tee/optee_os/lib/libutils/ext/trace.c:263
     2e2:	b047      	add	sp, #284	; 0x11c
     2e4:	e8bd 8ff0 	ldmia.w	sp!, {r4, r5, r6, r7, r8, r9, sl, fp, pc}
/mnt/disk/raspbian-tee/optee_os/lib/libutils/ext/trace.c:234
     2e8:	f014 070f 	ands.w	r7, r4, #15
     2ec:	d013      	beq.n	316 <dhex_dump+0x8a>
/mnt/disk/raspbian-tee/optee_os/lib/libutils/ext/trace.c:240
     2ee:	f816 2b01 	ldrb.w	r2, [r6], #1
     2f2:	4628      	mov	r0, r5
     2f4:	9902      	ldr	r1, [sp, #8]
     2f6:	f7ff feeb 	bl	d0 <append>
/mnt/disk/raspbian-tee/optee_os/lib/libutils/ext/trace.c:241
     2fa:	b9a8      	cbnz	r0, 328 <dhex_dump+0x9c>
/mnt/disk/raspbian-tee/optee_os/lib/libutils/ext/trace.c:262
     2fc:	4820      	ldr	r0, [pc, #128]	; (380 <dhex_dump+0xf4>)
     2fe:	2203      	movs	r2, #3
     300:	4b20      	ldr	r3, [pc, #128]	; (384 <dhex_dump+0xf8>)
     302:	f44f 7183 	mov.w	r1, #262	; 0x106
     306:	4478      	add	r0, pc
     308:	447b      	add	r3, pc
     30a:	3005      	adds	r0, #5
     30c:	9300      	str	r3, [sp, #0]
     30e:	2301      	movs	r3, #1
     310:	f7ff ff1e 	bl	150 <trace_printf>
     314:	e7e5      	b.n	2e2 <dhex_dump+0x56>
/mnt/disk/raspbian-tee/optee_os/lib/libutils/ext/trace.c:235
     316:	4633      	mov	r3, r6
     318:	2208      	movs	r2, #8
     31a:	4659      	mov	r1, fp
     31c:	4628      	mov	r0, r5
     31e:	f7ff fed7 	bl	d0 <append>
/mnt/disk/raspbian-tee/optee_os/lib/libutils/ext/trace.c:237
     322:	2800      	cmp	r0, #0
     324:	d1e3      	bne.n	2ee <dhex_dump+0x62>
     326:	e7e9      	b.n	2fc <dhex_dump+0x70>
/mnt/disk/raspbian-tee/optee_os/lib/libutils/ext/trace.c:243
     328:	4263      	negs	r3, r4
     32a:	f003 030f 	and.w	r3, r3, #15
     32e:	bf58      	it	pl
     330:	425f      	negpl	r7, r3
     332:	2f07      	cmp	r7, #7
     334:	d108      	bne.n	348 <dhex_dump+0xbc>
/mnt/disk/raspbian-tee/optee_os/lib/libutils/ext/trace.c:244
     336:	4914      	ldr	r1, [pc, #80]	; (388 <dhex_dump+0xfc>)
     338:	4628      	mov	r0, r5
     33a:	4479      	add	r1, pc
     33c:	f7ff fec8 	bl	d0 <append>
/mnt/disk/raspbian-tee/optee_os/lib/libutils/ext/trace.c:245
     340:	2800      	cmp	r0, #0
     342:	d0db      	beq.n	2fc <dhex_dump+0x70>
/mnt/disk/raspbian-tee/optee_os/lib/libutils/ext/trace.c:233 (discriminator 2)
     344:	3401      	adds	r4, #1
     346:	e7bc      	b.n	2c2 <dhex_dump+0x36>
/mnt/disk/raspbian-tee/optee_os/lib/libutils/ext/trace.c:247
     348:	2f0f      	cmp	r7, #15
     34a:	d1fb      	bne.n	344 <dhex_dump+0xb8>
/mnt/disk/raspbian-tee/optee_os/lib/libutils/ext/trace.c:248
     34c:	9b03      	ldr	r3, [sp, #12]
     34e:	4642      	mov	r2, r8
     350:	9300      	str	r3, [sp, #0]
     352:	4651      	mov	r1, sl
     354:	2301      	movs	r3, #1
     356:	9501      	str	r5, [sp, #4]
     358:	4648      	mov	r0, r9
     35a:	f7ff fef9 	bl	150 <trace_printf>
/mnt/disk/raspbian-tee/optee_os/lib/libutils/ext/trace.c:250
     35e:	2300      	movs	r3, #0
     360:	f8c5 3100 	str.w	r3, [r5, #256]	; 0x100
     364:	e7ee      	b.n	344 <dhex_dump+0xb8>
     366:	bf00      	nop
     368:	00008fe8 	.word	0x00008fe8
     36c:	00000010 	.word	0x00000010
     370:	00007c15 	.word	0x00007c15
     374:	00007c15 	.word	0x00007c15
     378:	00007c15 	.word	0x00007c15
     37c:	00007bfd 	.word	0x00007bfd
     380:	00007b96 	.word	0x00007b96
     384:	00007bce 	.word	0x00007bce
     388:	00007b97 	.word	0x00007b97

0000038c <__vsnprintf>:
__vsnprintf():
/mnt/disk/raspbian-tee/optee_os/lib/libutils/ext/snprintk.c:137
     38c:	e92d 4ff0 	stmdb	sp!, {r4, r5, r6, r7, r8, r9, sl, fp, lr}
/mnt/disk/raspbian-tee/optee_os/lib/libutils/ext/snprintk.c:141
     390:	4680      	mov	r8, r0
     392:	461f      	mov	r7, r3
/mnt/disk/raspbian-tee/optee_os/lib/libutils/ext/snprintk.c:137
     394:	b09f      	sub	sp, #124	; 0x7c
kprintf():
/mnt/disk/raspbian-tee/optee_os/lib/libutils/ext/snprintk.c:269
     396:	2300      	movs	r3, #0
__vsnprintf():
/mnt/disk/raspbian-tee/optee_os/lib/libutils/ext/snprintk.c:137
     398:	920b      	str	r2, [sp, #44]	; 0x2c
     39a:	f89d 20a0 	ldrb.w	r2, [sp, #160]	; 0xa0
     39e:	9213      	str	r2, [sp, #76]	; 0x4c
/mnt/disk/raspbian-tee/optee_os/lib/libutils/ext/snprintk.c:141
     3a0:	4602      	mov	r2, r0
     3a2:	440a      	add	r2, r1
/mnt/disk/raspbian-tee/optee_os/lib/libutils/ext/snprintk.c:137
     3a4:	9010      	str	r0, [sp, #64]	; 0x40
     3a6:	9112      	str	r1, [sp, #72]	; 0x48
/mnt/disk/raspbian-tee/optee_os/lib/libutils/ext/snprintk.c:141
     3a8:	920e      	str	r2, [sp, #56]	; 0x38
kprintf():
/mnt/disk/raspbian-tee/optee_os/lib/libutils/ext/snprintk.c:269
     3aa:	930f      	str	r3, [sp, #60]	; 0x3c
/mnt/disk/raspbian-tee/optee_os/lib/libutils/ext/snprintk.c:267
     3ac:	930c      	str	r3, [sp, #48]	; 0x30
/mnt/disk/raspbian-tee/optee_os/lib/libutils/ext/snprintk.c:275
     3ae:	9b0b      	ldr	r3, [sp, #44]	; 0x2c
     3b0:	781b      	ldrb	r3, [r3, #0]
     3b2:	2b25      	cmp	r3, #37	; 0x25
     3b4:	d024      	beq.n	400 <__vsnprintf+0x74>
     3b6:	b993      	cbnz	r3, 3de <__vsnprintf+0x52>
__vsnprintf():
/mnt/disk/raspbian-tee/optee_os/lib/libutils/ext/snprintk.c:143
     3b8:	9b10      	ldr	r3, [sp, #64]	; 0x40
     3ba:	b163      	cbz	r3, 3d6 <__vsnprintf+0x4a>
/mnt/disk/raspbian-tee/optee_os/lib/libutils/ext/snprintk.c:143 (discriminator 1)
     3bc:	9b12      	ldr	r3, [sp, #72]	; 0x48
     3be:	b153      	cbz	r3, 3d6 <__vsnprintf+0x4a>
/mnt/disk/raspbian-tee/optee_os/lib/libutils/ext/snprintk.c:145
     3c0:	9a0c      	ldr	r2, [sp, #48]	; 0x30
     3c2:	4293      	cmp	r3, r2
     3c4:	f04f 0300 	mov.w	r3, #0
/mnt/disk/raspbian-tee/optee_os/lib/libutils/ext/snprintk.c:146
     3c8:	9a10      	ldr	r2, [sp, #64]	; 0x40
/mnt/disk/raspbian-tee/optee_os/lib/libutils/ext/snprintk.c:145
     3ca:	f200 835f 	bhi.w	a8c <__vsnprintf+0x700>
/mnt/disk/raspbian-tee/optee_os/lib/libutils/ext/snprintk.c:146
     3ce:	9912      	ldr	r1, [sp, #72]	; 0x48
     3d0:	440a      	add	r2, r1
     3d2:	f802 3c01 	strb.w	r3, [r2, #-1]
/mnt/disk/raspbian-tee/optee_os/lib/libutils/ext/snprintk.c:151
     3d6:	980c      	ldr	r0, [sp, #48]	; 0x30
     3d8:	b01f      	add	sp, #124	; 0x7c
     3da:	e8bd 8ff0 	ldmia.w	sp!, {r4, r5, r6, r7, r8, r9, sl, fp, pc}
kprintf():
/mnt/disk/raspbian-tee/optee_os/lib/libutils/ext/snprintk.c:276
     3de:	9a0c      	ldr	r2, [sp, #48]	; 0x30
     3e0:	3201      	adds	r2, #1
     3e2:	920c      	str	r2, [sp, #48]	; 0x30
/mnt/disk/raspbian-tee/optee_os/lib/libutils/ext/snprintk.c:277
     3e4:	f1b8 0f00 	cmp.w	r8, #0
     3e8:	d006      	beq.n	3f8 <__vsnprintf+0x6c>
     3ea:	9a0e      	ldr	r2, [sp, #56]	; 0x38
     3ec:	4542      	cmp	r2, r8
     3ee:	d903      	bls.n	3f8 <__vsnprintf+0x6c>
     3f0:	f888 3000 	strb.w	r3, [r8]
     3f4:	f108 0801 	add.w	r8, r8, #1
/mnt/disk/raspbian-tee/optee_os/lib/libutils/ext/snprintk.c:275
     3f8:	9b0b      	ldr	r3, [sp, #44]	; 0x2c
     3fa:	3301      	adds	r3, #1
     3fc:	930b      	str	r3, [sp, #44]	; 0x2c
     3fe:	e7d6      	b.n	3ae <__vsnprintf+0x22>
/mnt/disk/raspbian-tee/optee_os/lib/libutils/ext/snprintk.c:282
     400:	9b0b      	ldr	r3, [sp, #44]	; 0x2c
/mnt/disk/raspbian-tee/optee_os/lib/libutils/ext/snprintk.c:288
     402:	f04f 0a00 	mov.w	sl, #0
/mnt/disk/raspbian-tee/optee_os/lib/libutils/ext/snprintk.c:282
     406:	463a      	mov	r2, r7
/mnt/disk/raspbian-tee/optee_os/lib/libutils/ext/snprintk.c:287
     408:	f04f 3bff 	mov.w	fp, #4294967295	; 0xffffffff
/mnt/disk/raspbian-tee/optee_os/lib/libutils/ext/snprintk.c:282
     40c:	3301      	adds	r3, #1
/mnt/disk/raspbian-tee/optee_os/lib/libutils/ext/snprintk.c:284
     40e:	4656      	mov	r6, sl
/mnt/disk/raspbian-tee/optee_os/lib/libutils/ext/snprintk.c:286
     410:	f8cd a034 	str.w	sl, [sp, #52]	; 0x34
/mnt/disk/raspbian-tee/optee_os/lib/libutils/ext/snprintk.c:290
     414:	f893 9000 	ldrb.w	r9, [r3]
     418:	1c59      	adds	r1, r3, #1
     41a:	910b      	str	r1, [sp, #44]	; 0x2c
/mnt/disk/raspbian-tee/optee_os/lib/libutils/ext/snprintk.c:291
     41c:	f1b9 0f63 	cmp.w	r9, #99	; 0x63
     420:	f000 8163 	beq.w	6ea <__vsnprintf+0x35e>
     424:	f300 8095 	bgt.w	552 <__vsnprintf+0x1c6>
     428:	f1b9 0f30 	cmp.w	r9, #48	; 0x30
     42c:	f000 8147 	beq.w	6be <__vsnprintf+0x332>
     430:	dc26      	bgt.n	480 <__vsnprintf+0xf4>
     432:	f1b9 0f2a 	cmp.w	r9, #42	; 0x2a
     436:	f000 8119 	beq.w	66c <__vsnprintf+0x2e0>
     43a:	dc13      	bgt.n	464 <__vsnprintf+0xd8>
     43c:	f1b9 0f20 	cmp.w	r9, #32
     440:	f000 810a 	beq.w	658 <__vsnprintf+0x2cc>
     444:	f1b9 0f23 	cmp.w	r9, #35	; 0x23
     448:	f000 810d 	beq.w	666 <__vsnprintf+0x2da>
/mnt/disk/raspbian-tee/optee_os/lib/libutils/ext/snprintk.c:541
     44c:	f1b9 0f00 	cmp.w	r9, #0
     450:	d0b2      	beq.n	3b8 <__vsnprintf+0x2c>
/mnt/disk/raspbian-tee/optee_os/lib/libutils/ext/snprintk.c:545
     452:	ab1e      	add	r3, sp, #120	; 0x78
     454:	4617      	mov	r7, r2
/mnt/disk/raspbian-tee/optee_os/lib/libutils/ext/snprintk.c:546
     456:	f04f 0b01 	mov.w	fp, #1
/mnt/disk/raspbian-tee/optee_os/lib/libutils/ext/snprintk.c:545
     45a:	f803 9d28 	strb.w	r9, [r3, #-40]!
     45e:	e0c0      	b.n	5e2 <__vsnprintf+0x256>
/mnt/disk/raspbian-tee/optee_os/lib/libutils/ext/snprintk.c:311
     460:	461a      	mov	r2, r3
     462:	e00b      	b.n	47c <__vsnprintf+0xf0>
/mnt/disk/raspbian-tee/optee_os/lib/libutils/ext/snprintk.c:291
     464:	f1b9 0f2d 	cmp.w	r9, #45	; 0x2d
     468:	f000 8109 	beq.w	67e <__vsnprintf+0x2f2>
     46c:	f1b9 0f2e 	cmp.w	r9, #46	; 0x2e
     470:	f000 8108 	beq.w	684 <__vsnprintf+0x2f8>
     474:	f1b9 0f2b 	cmp.w	r9, #43	; 0x2b
     478:	d1e8      	bne.n	44c <__vsnprintf+0xc0>
/mnt/disk/raspbian-tee/optee_os/lib/libutils/ext/snprintk.c:319
     47a:	46ca      	mov	sl, r9
/mnt/disk/raspbian-tee/optee_os/lib/libutils/ext/snprintk.c:322
     47c:	9b0b      	ldr	r3, [sp, #44]	; 0x2c
     47e:	e7c9      	b.n	414 <__vsnprintf+0x88>
/mnt/disk/raspbian-tee/optee_os/lib/libutils/ext/snprintk.c:291
     480:	f1b9 0f44 	cmp.w	r9, #68	; 0x44
     484:	f000 818a 	beq.w	79c <__vsnprintf+0x410>
     488:	dc14      	bgt.n	4b4 <__vsnprintf+0x128>
     48a:	f1b9 0f39 	cmp.w	r9, #57	; 0x39
     48e:	dcdd      	bgt.n	44c <__vsnprintf+0xc0>
     490:	2300      	movs	r3, #0
     492:	930d      	str	r3, [sp, #52]	; 0x34
/mnt/disk/raspbian-tee/optee_os/lib/libutils/ext/snprintk.c:346
     494:	9b0d      	ldr	r3, [sp, #52]	; 0x34
     496:	f1a9 0930 	sub.w	r9, r9, #48	; 0x30
     49a:	210a      	movs	r1, #10
     49c:	fb01 9303 	mla	r3, r1, r3, r9
     4a0:	930d      	str	r3, [sp, #52]	; 0x34
/mnt/disk/raspbian-tee/optee_os/lib/libutils/ext/snprintk.c:347
     4a2:	9b0b      	ldr	r3, [sp, #44]	; 0x2c
     4a4:	f813 9b01 	ldrb.w	r9, [r3], #1
     4a8:	930b      	str	r3, [sp, #44]	; 0x2c
/mnt/disk/raspbian-tee/optee_os/lib/libutils/ext/snprintk.c:348
     4aa:	f1a9 0330 	sub.w	r3, r9, #48	; 0x30
     4ae:	2b09      	cmp	r3, #9
     4b0:	d9f0      	bls.n	494 <__vsnprintf+0x108>
     4b2:	e7b3      	b.n	41c <__vsnprintf+0x90>
/mnt/disk/raspbian-tee/optee_os/lib/libutils/ext/snprintk.c:291
     4b4:	f1b9 0f55 	cmp.w	r9, #85	; 0x55
     4b8:	f000 823d 	beq.w	936 <__vsnprintf+0x5aa>
     4bc:	f1b9 0f58 	cmp.w	r9, #88	; 0x58
     4c0:	f000 80ab 	beq.w	61a <__vsnprintf+0x28e>
     4c4:	f1b9 0f4f 	cmp.w	r9, #79	; 0x4f
     4c8:	d1c0      	bne.n	44c <__vsnprintf+0xc0>
/mnt/disk/raspbian-tee/optee_os/lib/libutils/ext/snprintk.c:408
     4ca:	f046 0610 	orr.w	r6, r6, #16
/mnt/disk/raspbian-tee/optee_os/lib/libutils/ext/snprintk.c:411
     4ce:	0635      	lsls	r5, r6, #24
     4d0:	f140 81c0 	bpl.w	854 <__vsnprintf+0x4c8>
     4d4:	3207      	adds	r2, #7
     4d6:	f022 0207 	bic.w	r2, r2, #7
     4da:	f102 0708 	add.w	r7, r2, #8
     4de:	e9d2 4500 	ldrd	r4, r5, [r2]
/mnt/disk/raspbian-tee/optee_os/lib/libutils/ext/snprintk.c:488
     4e2:	f04f 0a00 	mov.w	sl, #0
     4e6:	f1bb 3fff 	cmp.w	fp, #4294967295	; 0xffffffff
     4ea:	d011      	beq.n	510 <__vsnprintf+0x184>
     4ec:	4653      	mov	r3, sl
/mnt/disk/raspbian-tee/optee_os/lib/libutils/ext/snprintk.c:489
     4ee:	f426 6680 	bic.w	r6, r6, #1024	; 0x400
/mnt/disk/raspbian-tee/optee_os/lib/libutils/ext/snprintk.c:497
     4f2:	ea54 0205 	orrs.w	r2, r4, r5
     4f6:	d105      	bne.n	504 <__vsnprintf+0x178>
     4f8:	f1bb 0f00 	cmp.w	fp, #0
     4fc:	f000 8269 	beq.w	9d2 <__vsnprintf+0x646>
     500:	2400      	movs	r4, #0
     502:	2500      	movs	r5, #0
/mnt/disk/raspbian-tee/optee_os/lib/libutils/ext/snprintk.c:503
     504:	2b01      	cmp	r3, #1
     506:	f000 8161 	beq.w	7cc <__vsnprintf+0x440>
     50a:	2b02      	cmp	r3, #2
     50c:	f000 81f8 	beq.w	900 <__vsnprintf+0x574>
/mnt/disk/raspbian-tee/optee_os/lib/libutils/ext/snprintk.c:488
     510:	f10d 0275 	add.w	r2, sp, #117	; 0x75
/mnt/disk/raspbian-tee/optee_os/lib/libutils/ext/snprintk.c:507
     514:	08e0      	lsrs	r0, r4, #3
     516:	ea4f 0cd5 	mov.w	ip, r5, lsr #3
     51a:	ea40 7045 	orr.w	r0, r0, r5, lsl #29
/mnt/disk/raspbian-tee/optee_os/lib/libutils/ext/snprintk.c:506
     51e:	f004 0107 	and.w	r1, r4, #7
/mnt/disk/raspbian-tee/optee_os/lib/libutils/ext/snprintk.c:507
     522:	4665      	mov	r5, ip
     524:	4604      	mov	r4, r0
/mnt/disk/raspbian-tee/optee_os/lib/libutils/ext/snprintk.c:506
     526:	3130      	adds	r1, #48	; 0x30
     528:	1e53      	subs	r3, r2, #1
     52a:	f802 1c01 	strb.w	r1, [r2, #-1]
/mnt/disk/raspbian-tee/optee_os/lib/libutils/ext/snprintk.c:508
     52e:	ea54 0005 	orrs.w	r0, r4, r5
     532:	f040 8239 	bne.w	9a8 <__vsnprintf+0x61c>
/mnt/disk/raspbian-tee/optee_os/lib/libutils/ext/snprintk.c:510
     536:	07f5      	lsls	r5, r6, #31
     538:	d505      	bpl.n	546 <__vsnprintf+0x1ba>
     53a:	2930      	cmp	r1, #48	; 0x30
     53c:	d003      	beq.n	546 <__vsnprintf+0x1ba>
/mnt/disk/raspbian-tee/optee_os/lib/libutils/ext/snprintk.c:511
     53e:	2130      	movs	r1, #48	; 0x30
     540:	f803 1c01 	strb.w	r1, [r3, #-1]
     544:	1e93      	subs	r3, r2, #2
/mnt/disk/raspbian-tee/optee_os/lib/libutils/ext/snprintk.c:537
     546:	f10d 0275 	add.w	r2, sp, #117	; 0x75
     54a:	4658      	mov	r0, fp
     54c:	eba2 0b03 	sub.w	fp, r2, r3
     550:	e0d5      	b.n	6fe <__vsnprintf+0x372>
/mnt/disk/raspbian-tee/optee_os/lib/libutils/ext/snprintk.c:291
     552:	f1b9 0f6f 	cmp.w	r9, #111	; 0x6f
     556:	d0ba      	beq.n	4ce <__vsnprintf+0x142>
     558:	dc1e      	bgt.n	598 <__vsnprintf+0x20c>
     55a:	f1b9 0f69 	cmp.w	r9, #105	; 0x69
     55e:	f000 811f 	beq.w	7a0 <__vsnprintf+0x414>
     562:	dc0a      	bgt.n	57a <__vsnprintf+0x1ee>
     564:	f1b9 0f64 	cmp.w	r9, #100	; 0x64
     568:	f000 811a 	beq.w	7a0 <__vsnprintf+0x414>
     56c:	f1b9 0f68 	cmp.w	r9, #104	; 0x68
     570:	f47f af6c 	bne.w	44c <__vsnprintf+0xc0>
/mnt/disk/raspbian-tee/optee_os/lib/libutils/ext/snprintk.c:352
     574:	f046 0640 	orr.w	r6, r6, #64	; 0x40
     578:	e780      	b.n	47c <__vsnprintf+0xf0>
/mnt/disk/raspbian-tee/optee_os/lib/libutils/ext/snprintk.c:291
     57a:	f1b9 0f6c 	cmp.w	r9, #108	; 0x6c
     57e:	f000 80a1 	beq.w	6c4 <__vsnprintf+0x338>
     582:	f1b9 0f6e 	cmp.w	r9, #110	; 0x6e
     586:	f000 8146 	beq.w	816 <__vsnprintf+0x48a>
     58a:	f1b9 0f6a 	cmp.w	r9, #106	; 0x6a
     58e:	f47f af5d 	bne.w	44c <__vsnprintf+0xc0>
/mnt/disk/raspbian-tee/optee_os/lib/libutils/ext/snprintk.c:355
     592:	f046 0680 	orr.w	r6, r6, #128	; 0x80
     596:	e771      	b.n	47c <__vsnprintf+0xf0>
/mnt/disk/raspbian-tee/optee_os/lib/libutils/ext/snprintk.c:291
     598:	f1b9 0f74 	cmp.w	r9, #116	; 0x74
     59c:	f000 809f 	beq.w	6de <__vsnprintf+0x352>
     5a0:	dc22      	bgt.n	5e8 <__vsnprintf+0x25c>
     5a2:	f1b9 0f71 	cmp.w	r9, #113	; 0x71
     5a6:	f000 8094 	beq.w	6d2 <__vsnprintf+0x346>
     5aa:	f2c0 8167 	blt.w	87c <__vsnprintf+0x4f0>
     5ae:	f1b9 0f73 	cmp.w	r9, #115	; 0x73
     5b2:	f47f af4b 	bne.w	44c <__vsnprintf+0xc0>
/mnt/disk/raspbian-tee/optee_os/lib/libutils/ext/snprintk.c:442
     5b6:	6813      	ldr	r3, [r2, #0]
     5b8:	1d17      	adds	r7, r2, #4
     5ba:	b913      	cbnz	r3, 5c2 <__vsnprintf+0x236>
/mnt/disk/raspbian-tee/optee_os/lib/libutils/ext/snprintk.c:444
     5bc:	f8df 34ec 	ldr.w	r3, [pc, #1260]	; aac <__vsnprintf+0x720>
     5c0:	447b      	add	r3, pc
/mnt/disk/raspbian-tee/optee_os/lib/libutils/ext/snprintk.c:445
     5c2:	f1bb 3fff 	cmp.w	fp, #4294967295	; 0xffffffff
     5c6:	f000 81ad 	beq.w	924 <__vsnprintf+0x598>
/mnt/disk/raspbian-tee/optee_os/lib/libutils/ext/snprintk.c:451
     5ca:	4618      	mov	r0, r3
     5cc:	465a      	mov	r2, fp
     5ce:	2100      	movs	r1, #0
     5d0:	9311      	str	r3, [sp, #68]	; 0x44
     5d2:	f007 f926 	bl	7822 <memchr>
/mnt/disk/raspbian-tee/optee_os/lib/libutils/ext/snprintk.c:453
     5d6:	9b11      	ldr	r3, [sp, #68]	; 0x44
     5d8:	b120      	cbz	r0, 5e4 <__vsnprintf+0x258>
/mnt/disk/raspbian-tee/optee_os/lib/libutils/ext/snprintk.c:454
     5da:	1ac0      	subs	r0, r0, r3
     5dc:	4583      	cmp	fp, r0
     5de:	bfa8      	it	ge
     5e0:	4683      	movge	fp, r0
/mnt/disk/raspbian-tee/optee_os/lib/libutils/ext/snprintk.c:285
     5e2:	2000      	movs	r0, #0
/mnt/disk/raspbian-tee/optee_os/lib/libutils/ext/snprintk.c:461
     5e4:	4682      	mov	sl, r0
     5e6:	e08a      	b.n	6fe <__vsnprintf+0x372>
/mnt/disk/raspbian-tee/optee_os/lib/libutils/ext/snprintk.c:291
     5e8:	f1b9 0f78 	cmp.w	r9, #120	; 0x78
     5ec:	f000 81c2 	beq.w	974 <__vsnprintf+0x5e8>
     5f0:	f1b9 0f7a 	cmp.w	r9, #122	; 0x7a
     5f4:	d076      	beq.n	6e4 <__vsnprintf+0x358>
     5f6:	f1b9 0f75 	cmp.w	r9, #117	; 0x75
     5fa:	f47f af27 	bne.w	44c <__vsnprintf+0xc0>
/mnt/disk/raspbian-tee/optee_os/lib/libutils/ext/snprintk.c:467
     5fe:	f016 0380 	ands.w	r3, r6, #128	; 0x80
     602:	f000 819b 	beq.w	93c <__vsnprintf+0x5b0>
     606:	3207      	adds	r2, #7
     608:	f022 0207 	bic.w	r2, r2, #7
     60c:	f102 0708 	add.w	r7, r2, #8
     610:	e9d2 4500 	ldrd	r4, r5, [r2]
/mnt/disk/raspbian-tee/optee_os/lib/libutils/ext/snprintk.c:482
     614:	f04f 0a00 	mov.w	sl, #0
     618:	e0d4      	b.n	7c4 <__vsnprintf+0x438>
/mnt/disk/raspbian-tee/optee_os/lib/libutils/ext/snprintk.c:471
     61a:	f8df 3494 	ldr.w	r3, [pc, #1172]	; ab0 <__vsnprintf+0x724>
     61e:	447b      	add	r3, pc
/mnt/disk/raspbian-tee/optee_os/lib/libutils/ext/snprintk.c:474
     620:	930f      	str	r3, [sp, #60]	; 0x3c
/mnt/disk/raspbian-tee/optee_os/lib/libutils/ext/snprintk.c:475
     622:	0637      	lsls	r7, r6, #24
     624:	f140 81aa 	bpl.w	97c <__vsnprintf+0x5f0>
     628:	3207      	adds	r2, #7
     62a:	f022 0207 	bic.w	r2, r2, #7
     62e:	f102 0708 	add.w	r7, r2, #8
     632:	e9d2 4500 	ldrd	r4, r5, [r2]
/mnt/disk/raspbian-tee/optee_os/lib/libutils/ext/snprintk.c:478
     636:	07f3      	lsls	r3, r6, #31
     638:	f140 815c 	bpl.w	8f4 <__vsnprintf+0x568>
     63c:	ea54 0305 	orrs.w	r3, r4, r5
     640:	f000 822d 	beq.w	a9e <__vsnprintf+0x712>
/mnt/disk/raspbian-tee/optee_os/lib/libutils/ext/snprintk.c:479
     644:	f046 0602 	orr.w	r6, r6, #2
/mnt/disk/raspbian-tee/optee_os/lib/libutils/ext/snprintk.c:488
     648:	f1bb 3fff 	cmp.w	fp, #4294967295	; 0xffffffff
     64c:	f000 822a 	beq.w	aa4 <__vsnprintf+0x718>
     650:	f04f 0a00 	mov.w	sl, #0
     654:	2302      	movs	r3, #2
     656:	e74a      	b.n	4ee <__vsnprintf+0x162>
/mnt/disk/raspbian-tee/optee_os/lib/libutils/ext/snprintk.c:299
     658:	f1ba 0f00 	cmp.w	sl, #0
     65c:	f04f 0320 	mov.w	r3, #32
     660:	bf08      	it	eq
     662:	469a      	moveq	sl, r3
     664:	e70a      	b.n	47c <__vsnprintf+0xf0>
/mnt/disk/raspbian-tee/optee_os/lib/libutils/ext/snprintk.c:302
     666:	f046 0601 	orr.w	r6, r6, #1
     66a:	e707      	b.n	47c <__vsnprintf+0xf0>
/mnt/disk/raspbian-tee/optee_os/lib/libutils/ext/snprintk.c:311
     66c:	1d13      	adds	r3, r2, #4
     66e:	6812      	ldr	r2, [r2, #0]
     670:	920d      	str	r2, [sp, #52]	; 0x34
     672:	2a00      	cmp	r2, #0
     674:	f6bf aef4 	bge.w	460 <__vsnprintf+0xd4>
/mnt/disk/raspbian-tee/optee_os/lib/libutils/ext/snprintk.c:313
     678:	4252      	negs	r2, r2
     67a:	920d      	str	r2, [sp, #52]	; 0x34
/mnt/disk/raspbian-tee/optee_os/lib/libutils/ext/snprintk.c:311
     67c:	461a      	mov	r2, r3
/mnt/disk/raspbian-tee/optee_os/lib/libutils/ext/snprintk.c:316
     67e:	f046 0604 	orr.w	r6, r6, #4
     682:	e6fb      	b.n	47c <__vsnprintf+0xf0>
/mnt/disk/raspbian-tee/optee_os/lib/libutils/ext/snprintk.c:322
     684:	990b      	ldr	r1, [sp, #44]	; 0x2c
     686:	9b0b      	ldr	r3, [sp, #44]	; 0x2c
     688:	f891 9000 	ldrb.w	r9, [r1]
     68c:	3301      	adds	r3, #1
     68e:	f1b9 0f2a 	cmp.w	r9, #42	; 0x2a
     692:	d00e      	beq.n	6b2 <__vsnprintf+0x326>
     694:	f04f 0b00 	mov.w	fp, #0
/mnt/disk/raspbian-tee/optee_os/lib/libutils/ext/snprintk.c:330
     698:	930b      	str	r3, [sp, #44]	; 0x2c
/mnt/disk/raspbian-tee/optee_os/lib/libutils/ext/snprintk.c:328
     69a:	f1a9 0330 	sub.w	r3, r9, #48	; 0x30
     69e:	2b09      	cmp	r3, #9
     6a0:	f63f aebc 	bhi.w	41c <__vsnprintf+0x90>
/mnt/disk/raspbian-tee/optee_os/lib/libutils/ext/snprintk.c:329
     6a4:	210a      	movs	r1, #10
     6a6:	fb01 3b0b 	mla	fp, r1, fp, r3
/mnt/disk/raspbian-tee/optee_os/lib/libutils/ext/snprintk.c:330
     6aa:	9b0b      	ldr	r3, [sp, #44]	; 0x2c
     6ac:	f813 9b01 	ldrb.w	r9, [r3], #1
     6b0:	e7f2      	b.n	698 <__vsnprintf+0x30c>
/mnt/disk/raspbian-tee/optee_os/lib/libutils/ext/snprintk.c:324
     6b2:	6811      	ldr	r1, [r2, #0]
/mnt/disk/raspbian-tee/optee_os/lib/libutils/ext/snprintk.c:323
     6b4:	3204      	adds	r2, #4
/mnt/disk/raspbian-tee/optee_os/lib/libutils/ext/snprintk.c:322
     6b6:	930b      	str	r3, [sp, #44]	; 0x2c
/mnt/disk/raspbian-tee/optee_os/lib/libutils/ext/snprintk.c:324
     6b8:	ea41 7be1 	orr.w	fp, r1, r1, asr #31
     6bc:	e6de      	b.n	47c <__vsnprintf+0xf0>
/mnt/disk/raspbian-tee/optee_os/lib/libutils/ext/snprintk.c:340
     6be:	f446 6680 	orr.w	r6, r6, #1024	; 0x400
     6c2:	e6db      	b.n	47c <__vsnprintf+0xf0>
/mnt/disk/raspbian-tee/optee_os/lib/libutils/ext/snprintk.c:358
     6c4:	9b0b      	ldr	r3, [sp, #44]	; 0x2c
     6c6:	781b      	ldrb	r3, [r3, #0]
     6c8:	2b6c      	cmp	r3, #108	; 0x6c
     6ca:	d105      	bne.n	6d8 <__vsnprintf+0x34c>
/mnt/disk/raspbian-tee/optee_os/lib/libutils/ext/snprintk.c:359
     6cc:	9b0b      	ldr	r3, [sp, #44]	; 0x2c
     6ce:	3301      	adds	r3, #1
     6d0:	930b      	str	r3, [sp, #44]	; 0x2c
/mnt/disk/raspbian-tee/optee_os/lib/libutils/ext/snprintk.c:366
     6d2:	f046 0620 	orr.w	r6, r6, #32
     6d6:	e6d1      	b.n	47c <__vsnprintf+0xf0>
/mnt/disk/raspbian-tee/optee_os/lib/libutils/ext/snprintk.c:362
     6d8:	f046 0610 	orr.w	r6, r6, #16
     6dc:	e6ce      	b.n	47c <__vsnprintf+0xf0>
/mnt/disk/raspbian-tee/optee_os/lib/libutils/ext/snprintk.c:369
     6de:	f446 7680 	orr.w	r6, r6, #256	; 0x100
     6e2:	e6cb      	b.n	47c <__vsnprintf+0xf0>
/mnt/disk/raspbian-tee/optee_os/lib/libutils/ext/snprintk.c:372
     6e4:	f446 7600 	orr.w	r6, r6, #512	; 0x200
     6e8:	e6c8      	b.n	47c <__vsnprintf+0xf0>
/mnt/disk/raspbian-tee/optee_os/lib/libutils/ext/snprintk.c:375
     6ea:	ab1e      	add	r3, sp, #120	; 0x78
/mnt/disk/raspbian-tee/optee_os/lib/libutils/ext/snprintk.c:285
     6ec:	f04f 0a00 	mov.w	sl, #0
/mnt/disk/raspbian-tee/optee_os/lib/libutils/ext/snprintk.c:375
     6f0:	1d17      	adds	r7, r2, #4
/mnt/disk/raspbian-tee/optee_os/lib/libutils/ext/snprintk.c:376
     6f2:	f04f 0b01 	mov.w	fp, #1
/mnt/disk/raspbian-tee/optee_os/lib/libutils/ext/snprintk.c:375
     6f6:	6812      	ldr	r2, [r2, #0]
/mnt/disk/raspbian-tee/optee_os/lib/libutils/ext/snprintk.c:377
     6f8:	4650      	mov	r0, sl
/mnt/disk/raspbian-tee/optee_os/lib/libutils/ext/snprintk.c:375
     6fa:	f803 2d28 	strb.w	r2, [r3, #-40]!
/mnt/disk/raspbian-tee/optee_os/lib/libutils/ext/snprintk.c:565
     6fe:	4558      	cmp	r0, fp
     700:	4602      	mov	r2, r0
     702:	bfb8      	it	lt
     704:	465a      	movlt	r2, fp
/mnt/disk/raspbian-tee/optee_os/lib/libutils/ext/snprintk.c:566
     706:	f1ba 0f00 	cmp.w	sl, #0
     70a:	f000 8165 	beq.w	9d8 <__vsnprintf+0x64c>
/mnt/disk/raspbian-tee/optee_os/lib/libutils/ext/snprintk.c:567
     70e:	3201      	adds	r2, #1
/mnt/disk/raspbian-tee/optee_os/lib/libutils/ext/snprintk.c:572
     710:	990d      	ldr	r1, [sp, #52]	; 0x34
     712:	9c0c      	ldr	r4, [sp, #48]	; 0x30
     714:	4291      	cmp	r1, r2
     716:	bfb8      	it	lt
     718:	4611      	movlt	r1, r2
     71a:	440c      	add	r4, r1
/mnt/disk/raspbian-tee/optee_os/lib/libutils/ext/snprintk.c:575
     71c:	f240 4104 	movw	r1, #1028	; 0x404
/mnt/disk/raspbian-tee/optee_os/lib/libutils/ext/snprintk.c:572
     720:	940c      	str	r4, [sp, #48]	; 0x30
/mnt/disk/raspbian-tee/optee_os/lib/libutils/ext/snprintk.c:575
     722:	ea16 0401 	ands.w	r4, r6, r1
     726:	d106      	bne.n	736 <__vsnprintf+0x3aa>
/mnt/disk/raspbian-tee/optee_os/lib/libutils/ext/snprintk.c:576
     728:	990d      	ldr	r1, [sp, #52]	; 0x34
/mnt/disk/raspbian-tee/optee_os/lib/libutils/ext/snprintk.c:578
     72a:	f04f 0c20 	mov.w	ip, #32
/mnt/disk/raspbian-tee/optee_os/lib/libutils/ext/snprintk.c:576
     72e:	1a89      	subs	r1, r1, r2
/mnt/disk/raspbian-tee/optee_os/lib/libutils/ext/snprintk.c:577
     730:	2900      	cmp	r1, #0
     732:	f300 8155 	bgt.w	9e0 <__vsnprintf+0x654>
/mnt/disk/raspbian-tee/optee_os/lib/libutils/ext/snprintk.c:582
     736:	f1ba 0f00 	cmp.w	sl, #0
     73a:	f000 8166 	beq.w	a0a <__vsnprintf+0x67e>
/mnt/disk/raspbian-tee/optee_os/lib/libutils/ext/snprintk.c:583
     73e:	f1b8 0f00 	cmp.w	r8, #0
     742:	f040 8159 	bne.w	9f8 <__vsnprintf+0x66c>
/mnt/disk/raspbian-tee/optee_os/lib/libutils/ext/snprintk.c:586
     746:	f04f 0800 	mov.w	r8, #0
/mnt/disk/raspbian-tee/optee_os/lib/libutils/ext/snprintk.c:590
     74a:	f5b4 6f80 	cmp.w	r4, #1024	; 0x400
     74e:	d105      	bne.n	75c <__vsnprintf+0x3d0>
/mnt/disk/raspbian-tee/optee_os/lib/libutils/ext/snprintk.c:591
     750:	990d      	ldr	r1, [sp, #52]	; 0x34
/mnt/disk/raspbian-tee/optee_os/lib/libutils/ext/snprintk.c:593
     752:	2430      	movs	r4, #48	; 0x30
/mnt/disk/raspbian-tee/optee_os/lib/libutils/ext/snprintk.c:591
     754:	1a89      	subs	r1, r1, r2
/mnt/disk/raspbian-tee/optee_os/lib/libutils/ext/snprintk.c:592
     756:	2900      	cmp	r1, #0
     758:	f300 8173 	bgt.w	a42 <__vsnprintf+0x6b6>
/mnt/disk/raspbian-tee/optee_os/lib/libutils/ext/snprintk.c:597
     75c:	eba0 000b 	sub.w	r0, r0, fp
/mnt/disk/raspbian-tee/optee_os/lib/libutils/ext/snprintk.c:599
     760:	2130      	movs	r1, #48	; 0x30
/mnt/disk/raspbian-tee/optee_os/lib/libutils/ext/snprintk.c:598
     762:	2800      	cmp	r0, #0
     764:	f300 8179 	bgt.w	a5a <__vsnprintf+0x6ce>
     768:	eb03 010b 	add.w	r1, r3, fp
/mnt/disk/raspbian-tee/optee_os/lib/libutils/ext/snprintk.c:602
     76c:	428b      	cmp	r3, r1
     76e:	f040 8180 	bne.w	a72 <__vsnprintf+0x6e6>
/mnt/disk/raspbian-tee/optee_os/lib/libutils/ext/snprintk.c:605
     772:	0773      	lsls	r3, r6, #29
     774:	f57f ae1b 	bpl.w	3ae <__vsnprintf+0x22>
/mnt/disk/raspbian-tee/optee_os/lib/libutils/ext/snprintk.c:606
     778:	9b0d      	ldr	r3, [sp, #52]	; 0x34
     77a:	1a9b      	subs	r3, r3, r2
/mnt/disk/raspbian-tee/optee_os/lib/libutils/ext/snprintk.c:608
     77c:	2220      	movs	r2, #32
/mnt/disk/raspbian-tee/optee_os/lib/libutils/ext/snprintk.c:607
     77e:	2b00      	cmp	r3, #0
     780:	f77f ae15 	ble.w	3ae <__vsnprintf+0x22>
/mnt/disk/raspbian-tee/optee_os/lib/libutils/ext/snprintk.c:608
     784:	f1b8 0f00 	cmp.w	r8, #0
     788:	d006      	beq.n	798 <__vsnprintf+0x40c>
     78a:	990e      	ldr	r1, [sp, #56]	; 0x38
     78c:	4541      	cmp	r1, r8
     78e:	d903      	bls.n	798 <__vsnprintf+0x40c>
     790:	f888 2000 	strb.w	r2, [r8]
     794:	f108 0801 	add.w	r8, r8, #1
     798:	3b01      	subs	r3, #1
     79a:	e7f0      	b.n	77e <__vsnprintf+0x3f2>
/mnt/disk/raspbian-tee/optee_os/lib/libutils/ext/snprintk.c:380
     79c:	f046 0610 	orr.w	r6, r6, #16
/mnt/disk/raspbian-tee/optee_os/lib/libutils/ext/snprintk.c:384
     7a0:	0631      	lsls	r1, r6, #24
     7a2:	d523      	bpl.n	7ec <__vsnprintf+0x460>
     7a4:	3207      	adds	r2, #7
     7a6:	f022 0207 	bic.w	r2, r2, #7
     7aa:	f102 0708 	add.w	r7, r2, #8
     7ae:	e9d2 4500 	ldrd	r4, r5, [r2]
/mnt/disk/raspbian-tee/optee_os/lib/libutils/ext/snprintk.c:385
     7b2:	2c00      	cmp	r4, #0
     7b4:	f175 0300 	sbcs.w	r3, r5, #0
     7b8:	da04      	bge.n	7c4 <__vsnprintf+0x438>
/mnt/disk/raspbian-tee/optee_os/lib/libutils/ext/snprintk.c:386
     7ba:	4264      	negs	r4, r4
/mnt/disk/raspbian-tee/optee_os/lib/libutils/ext/snprintk.c:387
     7bc:	f04f 0a2d 	mov.w	sl, #45	; 0x2d
/mnt/disk/raspbian-tee/optee_os/lib/libutils/ext/snprintk.c:386
     7c0:	eb65 0545 	sbc.w	r5, r5, r5, lsl #1
/mnt/disk/raspbian-tee/optee_os/lib/libutils/ext/snprintk.c:488
     7c4:	f1bb 3fff 	cmp.w	fp, #4294967295	; 0xffffffff
     7c8:	f040 80ec 	bne.w	9a4 <__vsnprintf+0x618>
/mnt/disk/raspbian-tee/optee_os/lib/libutils/ext/snprintk.c:508
     7cc:	f10d 0375 	add.w	r3, sp, #117	; 0x75
     7d0:	9311      	str	r3, [sp, #68]	; 0x44
     7d2:	9b11      	ldr	r3, [sp, #68]	; 0x44
/mnt/disk/raspbian-tee/optee_os/lib/libutils/ext/snprintk.c:516
     7d4:	2d00      	cmp	r5, #0
     7d6:	bf08      	it	eq
     7d8:	2c0a      	cmpeq	r4, #10
     7da:	f103 33ff 	add.w	r3, r3, #4294967295	; 0xffffffff
     7de:	f080 80e5 	bcs.w	9ac <__vsnprintf+0x620>
/mnt/disk/raspbian-tee/optee_os/lib/libutils/ext/snprintk.c:520
     7e2:	9a11      	ldr	r2, [sp, #68]	; 0x44
     7e4:	3430      	adds	r4, #48	; 0x30
     7e6:	f802 4c01 	strb.w	r4, [r2, #-1]
     7ea:	e6ac      	b.n	546 <__vsnprintf+0x1ba>
/mnt/disk/raspbian-tee/optee_os/lib/libutils/ext/snprintk.c:384
     7ec:	05f3      	lsls	r3, r6, #23
     7ee:	d503      	bpl.n	7f8 <__vsnprintf+0x46c>
     7f0:	1d17      	adds	r7, r2, #4
     7f2:	6814      	ldr	r4, [r2, #0]
     7f4:	17e5      	asrs	r5, r4, #31
     7f6:	e7dc      	b.n	7b2 <__vsnprintf+0x426>
     7f8:	05b7      	lsls	r7, r6, #22
     7fa:	d4f9      	bmi.n	7f0 <__vsnprintf+0x464>
     7fc:	06b5      	lsls	r5, r6, #26
     7fe:	d4d1      	bmi.n	7a4 <__vsnprintf+0x418>
     800:	f016 0f10 	tst.w	r6, #16
     804:	f102 0704 	add.w	r7, r2, #4
     808:	d1f3      	bne.n	7f2 <__vsnprintf+0x466>
     80a:	f016 0f40 	tst.w	r6, #64	; 0x40
     80e:	6814      	ldr	r4, [r2, #0]
     810:	d0f0      	beq.n	7f4 <__vsnprintf+0x468>
     812:	b224      	sxth	r4, r4
     814:	e7ee      	b.n	7f4 <__vsnprintf+0x468>
/mnt/disk/raspbian-tee/optee_os/lib/libutils/ext/snprintk.c:392
     816:	f016 0f80 	tst.w	r6, #128	; 0x80
     81a:	f102 0704 	add.w	r7, r2, #4
     81e:	d006      	beq.n	82e <__vsnprintf+0x4a2>
/mnt/disk/raspbian-tee/optee_os/lib/libutils/ext/snprintk.c:399
     820:	6813      	ldr	r3, [r2, #0]
     822:	9a0c      	ldr	r2, [sp, #48]	; 0x30
     824:	4610      	mov	r0, r2
     826:	17d1      	asrs	r1, r2, #31
     828:	e9c3 0100 	strd	r0, r1, [r3]
     82c:	e5bf      	b.n	3ae <__vsnprintf+0x22>
/mnt/disk/raspbian-tee/optee_os/lib/libutils/ext/snprintk.c:394
     82e:	05f4      	lsls	r4, r6, #23
     830:	d503      	bpl.n	83a <__vsnprintf+0x4ae>
/mnt/disk/raspbian-tee/optee_os/lib/libutils/ext/snprintk.c:405
     832:	6813      	ldr	r3, [r2, #0]
     834:	9a0c      	ldr	r2, [sp, #48]	; 0x30
     836:	601a      	str	r2, [r3, #0]
     838:	e5b9      	b.n	3ae <__vsnprintf+0x22>
/mnt/disk/raspbian-tee/optee_os/lib/libutils/ext/snprintk.c:396
     83a:	05b0      	lsls	r0, r6, #22
     83c:	d4f9      	bmi.n	832 <__vsnprintf+0x4a6>
/mnt/disk/raspbian-tee/optee_os/lib/libutils/ext/snprintk.c:398
     83e:	06b1      	lsls	r1, r6, #26
     840:	d4ee      	bmi.n	820 <__vsnprintf+0x494>
/mnt/disk/raspbian-tee/optee_os/lib/libutils/ext/snprintk.c:400
     842:	06f3      	lsls	r3, r6, #27
     844:	d4f5      	bmi.n	832 <__vsnprintf+0x4a6>
/mnt/disk/raspbian-tee/optee_os/lib/libutils/ext/snprintk.c:402
     846:	0676      	lsls	r6, r6, #25
     848:	d5f3      	bpl.n	832 <__vsnprintf+0x4a6>
/mnt/disk/raspbian-tee/optee_os/lib/libutils/ext/snprintk.c:403
     84a:	6813      	ldr	r3, [r2, #0]
     84c:	f8bd 2030 	ldrh.w	r2, [sp, #48]	; 0x30
     850:	801a      	strh	r2, [r3, #0]
     852:	e5ac      	b.n	3ae <__vsnprintf+0x22>
/mnt/disk/raspbian-tee/optee_os/lib/libutils/ext/snprintk.c:411
     854:	05f4      	lsls	r4, r6, #23
     856:	d502      	bpl.n	85e <__vsnprintf+0x4d2>
     858:	1d17      	adds	r7, r2, #4
     85a:	6814      	ldr	r4, [r2, #0]
     85c:	e00c      	b.n	878 <__vsnprintf+0x4ec>
     85e:	05b0      	lsls	r0, r6, #22
     860:	d4fa      	bmi.n	858 <__vsnprintf+0x4cc>
     862:	06b1      	lsls	r1, r6, #26
     864:	f53f ae36 	bmi.w	4d4 <__vsnprintf+0x148>
     868:	f016 0f10 	tst.w	r6, #16
     86c:	f102 0704 	add.w	r7, r2, #4
     870:	d1f3      	bne.n	85a <__vsnprintf+0x4ce>
     872:	0673      	lsls	r3, r6, #25
     874:	d5f1      	bpl.n	85a <__vsnprintf+0x4ce>
     876:	8814      	ldrh	r4, [r2, #0]
     878:	2500      	movs	r5, #0
     87a:	e632      	b.n	4e2 <__vsnprintf+0x156>
/mnt/disk/raspbian-tee/optee_os/lib/libutils/ext/snprintk.c:415
     87c:	9b13      	ldr	r3, [sp, #76]	; 0x4c
     87e:	2b00      	cmp	r3, #0
     880:	d02d      	beq.n	8de <__vsnprintf+0x552>
     882:	9b0b      	ldr	r3, [sp, #44]	; 0x2c
     884:	781b      	ldrb	r3, [r3, #0]
     886:	2b55      	cmp	r3, #85	; 0x55
     888:	d129      	bne.n	8de <__vsnprintf+0x552>
     88a:	9b0b      	ldr	r3, [sp, #44]	; 0x2c
     88c:	785b      	ldrb	r3, [r3, #1]
     88e:	2b6c      	cmp	r3, #108	; 0x6c
     890:	d125      	bne.n	8de <__vsnprintf+0x552>
/mnt/disk/raspbian-tee/optee_os/lib/libutils/ext/snprintk.c:420
     892:	9b0b      	ldr	r3, [sp, #44]	; 0x2c
/mnt/disk/raspbian-tee/optee_os/lib/libutils/ext/snprintk.c:421
     894:	1d17      	adds	r7, r2, #4
uuid2str():
/mnt/disk/raspbian-tee/optee_os/lib/libutils/ext/snprintk.c:223
     896:	ac14      	add	r4, sp, #80	; 0x50
     898:	2125      	movs	r1, #37	; 0x25
kprintf():
/mnt/disk/raspbian-tee/optee_os/lib/libutils/ext/snprintk.c:420
     89a:	3302      	adds	r3, #2
     89c:	930b      	str	r3, [sp, #44]	; 0x2c
/mnt/disk/raspbian-tee/optee_os/lib/libutils/ext/snprintk.c:421
     89e:	6813      	ldr	r3, [r2, #0]
uuid2str():
/mnt/disk/raspbian-tee/optee_os/lib/libutils/ext/snprintk.c:223
     8a0:	4620      	mov	r0, r4
     8a2:	7bda      	ldrb	r2, [r3, #15]
     8a4:	9209      	str	r2, [sp, #36]	; 0x24
     8a6:	7b9a      	ldrb	r2, [r3, #14]
     8a8:	9208      	str	r2, [sp, #32]
     8aa:	7b5a      	ldrb	r2, [r3, #13]
     8ac:	9207      	str	r2, [sp, #28]
     8ae:	7b1a      	ldrb	r2, [r3, #12]
     8b0:	9206      	str	r2, [sp, #24]
     8b2:	7ada      	ldrb	r2, [r3, #11]
     8b4:	9205      	str	r2, [sp, #20]
     8b6:	7a9a      	ldrb	r2, [r3, #10]
     8b8:	9204      	str	r2, [sp, #16]
     8ba:	7a5a      	ldrb	r2, [r3, #9]
     8bc:	9203      	str	r2, [sp, #12]
     8be:	7a1a      	ldrb	r2, [r3, #8]
     8c0:	9202      	str	r2, [sp, #8]
     8c2:	88da      	ldrh	r2, [r3, #6]
     8c4:	9201      	str	r2, [sp, #4]
     8c6:	889a      	ldrh	r2, [r3, #4]
     8c8:	9200      	str	r2, [sp, #0]
     8ca:	4a7a      	ldr	r2, [pc, #488]	; (ab4 <__vsnprintf+0x728>)
     8cc:	681b      	ldr	r3, [r3, #0]
     8ce:	447a      	add	r2, pc
     8d0:	f000 f8fd 	bl	ace <snprintk>
     8d4:	4683      	mov	fp, r0
kprintf():
/mnt/disk/raspbian-tee/optee_os/lib/libutils/ext/snprintk.c:285
     8d6:	2000      	movs	r0, #0
/mnt/disk/raspbian-tee/optee_os/lib/libutils/ext/snprintk.c:423
     8d8:	4623      	mov	r3, r4
/mnt/disk/raspbian-tee/optee_os/lib/libutils/ext/snprintk.c:424
     8da:	4682      	mov	sl, r0
     8dc:	e70f      	b.n	6fe <__vsnprintf+0x372>
/mnt/disk/raspbian-tee/optee_os/lib/libutils/ext/snprintk.c:437
     8de:	4b76      	ldr	r3, [pc, #472]	; (ab8 <__vsnprintf+0x72c>)
/mnt/disk/raspbian-tee/optee_os/lib/libutils/ext/snprintk.c:435
     8e0:	1d17      	adds	r7, r2, #4
     8e2:	6814      	ldr	r4, [r2, #0]
     8e4:	2500      	movs	r5, #0
/mnt/disk/raspbian-tee/optee_os/lib/libutils/ext/snprintk.c:437
     8e6:	447b      	add	r3, pc
/mnt/disk/raspbian-tee/optee_os/lib/libutils/ext/snprintk.c:438
     8e8:	f046 0602 	orr.w	r6, r6, #2
/mnt/disk/raspbian-tee/optee_os/lib/libutils/ext/snprintk.c:439
     8ec:	f04f 0978 	mov.w	r9, #120	; 0x78
/mnt/disk/raspbian-tee/optee_os/lib/libutils/ext/snprintk.c:437
     8f0:	3311      	adds	r3, #17
     8f2:	930f      	str	r3, [sp, #60]	; 0x3c
/mnt/disk/raspbian-tee/optee_os/lib/libutils/ext/snprintk.c:488
     8f4:	f1bb 3fff 	cmp.w	fp, #4294967295	; 0xffffffff
     8f8:	f47f aeaa 	bne.w	650 <__vsnprintf+0x2c4>
     8fc:	f04f 0a00 	mov.w	sl, #0
     900:	f10d 0375 	add.w	r3, sp, #117	; 0x75
/mnt/disk/raspbian-tee/optee_os/lib/libutils/ext/snprintk.c:525
     904:	f004 020f 	and.w	r2, r4, #15
     908:	990f      	ldr	r1, [sp, #60]	; 0x3c
     90a:	5c8a      	ldrb	r2, [r1, r2]
/mnt/disk/raspbian-tee/optee_os/lib/libutils/ext/snprintk.c:526
     90c:	0929      	lsrs	r1, r5, #4
/mnt/disk/raspbian-tee/optee_os/lib/libutils/ext/snprintk.c:525
     90e:	f803 2d01 	strb.w	r2, [r3, #-1]!
/mnt/disk/raspbian-tee/optee_os/lib/libutils/ext/snprintk.c:526
     912:	0922      	lsrs	r2, r4, #4
     914:	ea42 7205 	orr.w	r2, r2, r5, lsl #28
     918:	460d      	mov	r5, r1
     91a:	4614      	mov	r4, r2
/mnt/disk/raspbian-tee/optee_os/lib/libutils/ext/snprintk.c:527
     91c:	ea54 0205 	orrs.w	r2, r4, r5
     920:	d1f0      	bne.n	904 <__vsnprintf+0x578>
     922:	e610      	b.n	546 <__vsnprintf+0x1ba>
/mnt/disk/raspbian-tee/optee_os/lib/libutils/ext/snprintk.c:460
     924:	4618      	mov	r0, r3
     926:	9311      	str	r3, [sp, #68]	; 0x44
     928:	f006 ff70 	bl	780c <strlen>
     92c:	4683      	mov	fp, r0
/mnt/disk/raspbian-tee/optee_os/lib/libutils/ext/snprintk.c:285
     92e:	2000      	movs	r0, #0
     930:	9b11      	ldr	r3, [sp, #68]	; 0x44
/mnt/disk/raspbian-tee/optee_os/lib/libutils/ext/snprintk.c:461
     932:	4682      	mov	sl, r0
     934:	e6e3      	b.n	6fe <__vsnprintf+0x372>
/mnt/disk/raspbian-tee/optee_os/lib/libutils/ext/snprintk.c:464
     936:	f046 0610 	orr.w	r6, r6, #16
     93a:	e660      	b.n	5fe <__vsnprintf+0x272>
/mnt/disk/raspbian-tee/optee_os/lib/libutils/ext/snprintk.c:467
     93c:	f416 7a80 	ands.w	sl, r6, #256	; 0x100
     940:	d003      	beq.n	94a <__vsnprintf+0x5be>
     942:	6814      	ldr	r4, [r2, #0]
     944:	1d17      	adds	r7, r2, #4
     946:	2500      	movs	r5, #0
     948:	e664      	b.n	614 <__vsnprintf+0x288>
     94a:	f416 7300 	ands.w	r3, r6, #512	; 0x200
     94e:	d003      	beq.n	958 <__vsnprintf+0x5cc>
     950:	1d17      	adds	r7, r2, #4
     952:	6814      	ldr	r4, [r2, #0]
     954:	2500      	movs	r5, #0
     956:	e735      	b.n	7c4 <__vsnprintf+0x438>
     958:	f016 0a20 	ands.w	sl, r6, #32
     95c:	f47f ae53 	bne.w	606 <__vsnprintf+0x27a>
     960:	f016 0310 	ands.w	r3, r6, #16
     964:	f102 0704 	add.w	r7, r2, #4
     968:	d1f3      	bne.n	952 <__vsnprintf+0x5c6>
     96a:	f016 0a40 	ands.w	sl, r6, #64	; 0x40
     96e:	d0f0      	beq.n	952 <__vsnprintf+0x5c6>
     970:	8814      	ldrh	r4, [r2, #0]
     972:	e7e8      	b.n	946 <__vsnprintf+0x5ba>
/mnt/disk/raspbian-tee/optee_os/lib/libutils/ext/snprintk.c:474
     974:	4b51      	ldr	r3, [pc, #324]	; (abc <__vsnprintf+0x730>)
     976:	447b      	add	r3, pc
     978:	3311      	adds	r3, #17
     97a:	e651      	b.n	620 <__vsnprintf+0x294>
/mnt/disk/raspbian-tee/optee_os/lib/libutils/ext/snprintk.c:475
     97c:	05f5      	lsls	r5, r6, #23
     97e:	d502      	bpl.n	986 <__vsnprintf+0x5fa>
     980:	1d17      	adds	r7, r2, #4
     982:	6814      	ldr	r4, [r2, #0]
     984:	e00c      	b.n	9a0 <__vsnprintf+0x614>
     986:	05b4      	lsls	r4, r6, #22
     988:	d4fa      	bmi.n	980 <__vsnprintf+0x5f4>
     98a:	06b0      	lsls	r0, r6, #26
     98c:	f53f ae4c 	bmi.w	628 <__vsnprintf+0x29c>
     990:	f016 0f10 	tst.w	r6, #16
     994:	f102 0704 	add.w	r7, r2, #4
     998:	d1f3      	bne.n	982 <__vsnprintf+0x5f6>
     99a:	0671      	lsls	r1, r6, #25
     99c:	d5f1      	bpl.n	982 <__vsnprintf+0x5f6>
     99e:	8814      	ldrh	r4, [r2, #0]
     9a0:	2500      	movs	r5, #0
     9a2:	e648      	b.n	636 <__vsnprintf+0x2aa>
/mnt/disk/raspbian-tee/optee_os/lib/libutils/ext/snprintk.c:488
     9a4:	2301      	movs	r3, #1
     9a6:	e5a2      	b.n	4ee <__vsnprintf+0x162>
/mnt/disk/raspbian-tee/optee_os/lib/libutils/ext/snprintk.c:508
     9a8:	461a      	mov	r2, r3
     9aa:	e5b3      	b.n	514 <__vsnprintf+0x188>
/mnt/disk/raspbian-tee/optee_os/lib/libutils/ext/snprintk.c:517
     9ac:	9311      	str	r3, [sp, #68]	; 0x44
     9ae:	4620      	mov	r0, r4
     9b0:	4629      	mov	r1, r5
     9b2:	220a      	movs	r2, #10
     9b4:	2300      	movs	r3, #0
     9b6:	f000 e8a4 	blx	b00 <__aeabi_uldivmod>
     9ba:	9b11      	ldr	r3, [sp, #68]	; 0x44
     9bc:	3230      	adds	r2, #48	; 0x30
/mnt/disk/raspbian-tee/optee_os/lib/libutils/ext/snprintk.c:518
     9be:	4620      	mov	r0, r4
     9c0:	4629      	mov	r1, r5
/mnt/disk/raspbian-tee/optee_os/lib/libutils/ext/snprintk.c:517
     9c2:	701a      	strb	r2, [r3, #0]
/mnt/disk/raspbian-tee/optee_os/lib/libutils/ext/snprintk.c:518
     9c4:	220a      	movs	r2, #10
     9c6:	2300      	movs	r3, #0
     9c8:	f000 e89a 	blx	b00 <__aeabi_uldivmod>
     9cc:	4604      	mov	r4, r0
     9ce:	460d      	mov	r5, r1
     9d0:	e6ff      	b.n	7d2 <__vsnprintf+0x446>
/mnt/disk/raspbian-tee/optee_os/lib/libutils/ext/snprintk.c:496
     9d2:	f10d 0375 	add.w	r3, sp, #117	; 0x75
     9d6:	e5b6      	b.n	546 <__vsnprintf+0x1ba>
/mnt/disk/raspbian-tee/optee_os/lib/libutils/ext/snprintk.c:568
     9d8:	07b4      	lsls	r4, r6, #30
/mnt/disk/raspbian-tee/optee_os/lib/libutils/ext/snprintk.c:569
     9da:	bf48      	it	mi
     9dc:	3202      	addmi	r2, #2
     9de:	e697      	b.n	710 <__vsnprintf+0x384>
/mnt/disk/raspbian-tee/optee_os/lib/libutils/ext/snprintk.c:578
     9e0:	f1b8 0f00 	cmp.w	r8, #0
     9e4:	d006      	beq.n	9f4 <__vsnprintf+0x668>
     9e6:	9d0e      	ldr	r5, [sp, #56]	; 0x38
     9e8:	4545      	cmp	r5, r8
     9ea:	d903      	bls.n	9f4 <__vsnprintf+0x668>
     9ec:	f888 c000 	strb.w	ip, [r8]
     9f0:	f108 0801 	add.w	r8, r8, #1
     9f4:	3901      	subs	r1, #1
     9f6:	e69b      	b.n	730 <__vsnprintf+0x3a4>
/mnt/disk/raspbian-tee/optee_os/lib/libutils/ext/snprintk.c:583
     9f8:	990e      	ldr	r1, [sp, #56]	; 0x38
     9fa:	4541      	cmp	r1, r8
     9fc:	f67f aea5 	bls.w	74a <__vsnprintf+0x3be>
     a00:	f888 a000 	strb.w	sl, [r8]
     a04:	f108 0801 	add.w	r8, r8, #1
     a08:	e69f      	b.n	74a <__vsnprintf+0x3be>
/mnt/disk/raspbian-tee/optee_os/lib/libutils/ext/snprintk.c:584
     a0a:	07b1      	lsls	r1, r6, #30
     a0c:	f57f ae9d 	bpl.w	74a <__vsnprintf+0x3be>
/mnt/disk/raspbian-tee/optee_os/lib/libutils/ext/snprintk.c:585
     a10:	f1b8 0f00 	cmp.w	r8, #0
     a14:	f43f ae97 	beq.w	746 <__vsnprintf+0x3ba>
     a18:	990e      	ldr	r1, [sp, #56]	; 0x38
     a1a:	4541      	cmp	r1, r8
     a1c:	f67f ae95 	bls.w	74a <__vsnprintf+0x3be>
     a20:	2130      	movs	r1, #48	; 0x30
     a22:	f888 1000 	strb.w	r1, [r8]
/mnt/disk/raspbian-tee/optee_os/lib/libutils/ext/snprintk.c:586
     a26:	f118 0101 	adds.w	r1, r8, #1
     a2a:	f43f ae8c 	beq.w	746 <__vsnprintf+0x3ba>
     a2e:	9d0e      	ldr	r5, [sp, #56]	; 0x38
     a30:	428d      	cmp	r5, r1
     a32:	d904      	bls.n	a3e <__vsnprintf+0x6b2>
     a34:	f888 9001 	strb.w	r9, [r8, #1]
     a38:	f108 0802 	add.w	r8, r8, #2
     a3c:	e685      	b.n	74a <__vsnprintf+0x3be>
     a3e:	4688      	mov	r8, r1
     a40:	e683      	b.n	74a <__vsnprintf+0x3be>
/mnt/disk/raspbian-tee/optee_os/lib/libutils/ext/snprintk.c:593
     a42:	f1b8 0f00 	cmp.w	r8, #0
     a46:	d006      	beq.n	a56 <__vsnprintf+0x6ca>
     a48:	9d0e      	ldr	r5, [sp, #56]	; 0x38
     a4a:	4545      	cmp	r5, r8
     a4c:	d903      	bls.n	a56 <__vsnprintf+0x6ca>
     a4e:	f888 4000 	strb.w	r4, [r8]
     a52:	f108 0801 	add.w	r8, r8, #1
     a56:	3901      	subs	r1, #1
     a58:	e67d      	b.n	756 <__vsnprintf+0x3ca>
/mnt/disk/raspbian-tee/optee_os/lib/libutils/ext/snprintk.c:599
     a5a:	f1b8 0f00 	cmp.w	r8, #0
     a5e:	d006      	beq.n	a6e <__vsnprintf+0x6e2>
     a60:	9c0e      	ldr	r4, [sp, #56]	; 0x38
     a62:	4544      	cmp	r4, r8
     a64:	d903      	bls.n	a6e <__vsnprintf+0x6e2>
     a66:	f888 1000 	strb.w	r1, [r8]
     a6a:	f108 0801 	add.w	r8, r8, #1
     a6e:	3801      	subs	r0, #1
     a70:	e677      	b.n	762 <__vsnprintf+0x3d6>
/mnt/disk/raspbian-tee/optee_os/lib/libutils/ext/snprintk.c:603
     a72:	f1b8 0f00 	cmp.w	r8, #0
     a76:	d007      	beq.n	a88 <__vsnprintf+0x6fc>
     a78:	980e      	ldr	r0, [sp, #56]	; 0x38
     a7a:	4540      	cmp	r0, r8
     a7c:	d904      	bls.n	a88 <__vsnprintf+0x6fc>
     a7e:	7818      	ldrb	r0, [r3, #0]
     a80:	f108 0801 	add.w	r8, r8, #1
     a84:	f808 0c01 	strb.w	r0, [r8, #-1]
/mnt/disk/raspbian-tee/optee_os/lib/libutils/ext/snprintk.c:602
     a88:	3301      	adds	r3, #1
     a8a:	e66f      	b.n	76c <__vsnprintf+0x3e0>
__vsnprintf():
/mnt/disk/raspbian-tee/optee_os/lib/libutils/ext/snprintk.c:148
     a8c:	990c      	ldr	r1, [sp, #48]	; 0x30
     a8e:	5453      	strb	r3, [r2, r1]
/mnt/disk/raspbian-tee/optee_os/lib/libutils/ext/snprintk.c:150
     a90:	e4a1      	b.n	3d6 <__vsnprintf+0x4a>
kprintf():
/mnt/disk/raspbian-tee/optee_os/lib/libutils/ext/snprintk.c:489
     a92:	f426 6680 	bic.w	r6, r6, #1024	; 0x400
/mnt/disk/raspbian-tee/optee_os/lib/libutils/ext/snprintk.c:482
     a96:	f04f 0a00 	mov.w	sl, #0
/mnt/disk/raspbian-tee/optee_os/lib/libutils/ext/snprintk.c:476
     a9a:	2302      	movs	r3, #2
     a9c:	e52c      	b.n	4f8 <__vsnprintf+0x16c>
/mnt/disk/raspbian-tee/optee_os/lib/libutils/ext/snprintk.c:488
     a9e:	f1bb 3fff 	cmp.w	fp, #4294967295	; 0xffffffff
     aa2:	d1f6      	bne.n	a92 <__vsnprintf+0x706>
     aa4:	f04f 3bff 	mov.w	fp, #4294967295	; 0xffffffff
     aa8:	e728      	b.n	8fc <__vsnprintf+0x570>
     aaa:	bf00      	nop
     aac:	00007947 	.word	0x00007947
     ab0:	000078c7 	.word	0x000078c7
     ab4:	00007640 	.word	0x00007640
     ab8:	000075ff 	.word	0x000075ff
     abc:	0000756f 	.word	0x0000756f

00000ac0 <vsnprintk>:
vsnprintk():
/mnt/disk/raspbian-tee/optee_os/lib/libutils/ext/snprintk.c:129
     ac0:	b513      	push	{r0, r1, r4, lr}
/mnt/disk/raspbian-tee/optee_os/lib/libutils/ext/snprintk.c:130
     ac2:	2401      	movs	r4, #1
     ac4:	9400      	str	r4, [sp, #0]
     ac6:	f7ff fc61 	bl	38c <__vsnprintf>
/mnt/disk/raspbian-tee/optee_os/lib/libutils/ext/snprintk.c:131
     aca:	b002      	add	sp, #8
     acc:	bd10      	pop	{r4, pc}

00000ace <snprintk>:
snprintk():
/mnt/disk/raspbian-tee/optee_os/lib/libutils/ext/snprintk.c:112
     ace:	b40c      	push	{r2, r3}
     ad0:	b507      	push	{r0, r1, r2, lr}
     ad2:	ab04      	add	r3, sp, #16
     ad4:	f853 2b04 	ldr.w	r2, [r3], #4
/mnt/disk/raspbian-tee/optee_os/lib/libutils/ext/snprintk.c:116
     ad8:	9301      	str	r3, [sp, #4]
/mnt/disk/raspbian-tee/optee_os/lib/libutils/ext/snprintk.c:117
     ada:	f7ff fff1 	bl	ac0 <vsnprintk>
/mnt/disk/raspbian-tee/optee_os/lib/libutils/ext/snprintk.c:121
     ade:	b003      	add	sp, #12
     ae0:	f85d eb04 	ldr.w	lr, [sp], #4
     ae4:	b002      	add	sp, #8
     ae6:	4770      	bx	lr

00000ae8 <__aeabi_ldivmod>:
__aeabi_ldivmod():
/mnt/disk/raspbian-tee/optee_os/lib/libutils/isoc/arch/arm/arm32_aeabi_ldivmod_a32.S:24
     ae8:	e92d5000 	push	{ip, lr}
/mnt/disk/raspbian-tee/optee_os/lib/libutils/isoc/arch/arm/arm32_aeabi_ldivmod_a32.S:26
     aec:	e92d000f 	push	{r0, r1, r2, r3}
/mnt/disk/raspbian-tee/optee_os/lib/libutils/isoc/arch/arm/arm32_aeabi_ldivmod_a32.S:28
     af0:	e1a0000d 	mov	r0, sp
/mnt/disk/raspbian-tee/optee_os/lib/libutils/isoc/arch/arm/arm32_aeabi_ldivmod_a32.S:29
     af4:	fb001b6d 	blx	78b2 <__l_divmod>
/mnt/disk/raspbian-tee/optee_os/lib/libutils/isoc/arch/arm/arm32_aeabi_ldivmod_a32.S:30
     af8:	e8bd000f 	pop	{r0, r1, r2, r3}
/mnt/disk/raspbian-tee/optee_os/lib/libutils/isoc/arch/arm/arm32_aeabi_ldivmod_a32.S:31
     afc:	e8bd9000 	pop	{ip, pc}

00000b00 <__aeabi_uldivmod>:
__aeabi_uldivmod():
/mnt/disk/raspbian-tee/optee_os/lib/libutils/isoc/arch/arm/arm32_aeabi_ldivmod_a32.S:42
     b00:	e92d5000 	push	{ip, lr}
/mnt/disk/raspbian-tee/optee_os/lib/libutils/isoc/arch/arm/arm32_aeabi_ldivmod_a32.S:44
     b04:	e92d000f 	push	{r0, r1, r2, r3}
/mnt/disk/raspbian-tee/optee_os/lib/libutils/isoc/arch/arm/arm32_aeabi_ldivmod_a32.S:46
     b08:	e1a0000d 	mov	r0, sp
/mnt/disk/raspbian-tee/optee_os/lib/libutils/isoc/arch/arm/arm32_aeabi_ldivmod_a32.S:47
     b0c:	fb001b4a 	blx	783e <__ul_divmod>
/mnt/disk/raspbian-tee/optee_os/lib/libutils/isoc/arch/arm/arm32_aeabi_ldivmod_a32.S:48
     b10:	e8bd000f 	pop	{r0, r1, r2, r3}
/mnt/disk/raspbian-tee/optee_os/lib/libutils/isoc/arch/arm/arm32_aeabi_ldivmod_a32.S:49
     b14:	e8bd9000 	pop	{ip, pc}

00000b18 <trace_ext_puts>:
trace_ext_puts():
/mnt/disk/raspbian-tee/optee_os/lib/libutee/trace_ext.c:17
     b18:	b510      	push	{r4, lr}
     b1a:	4604      	mov	r4, r0
/mnt/disk/raspbian-tee/optee_os/lib/libutee/trace_ext.c:18
     b1c:	f006 fe76 	bl	780c <strlen>
     b20:	4601      	mov	r1, r0
     b22:	4620      	mov	r0, r4
/mnt/disk/raspbian-tee/optee_os/lib/libutee/trace_ext.c:19
     b24:	e8bd 4010 	ldmia.w	sp!, {r4, lr}
/mnt/disk/raspbian-tee/optee_os/lib/libutee/trace_ext.c:18
     b28:	f006 bfb6 	b.w	7a98 <__utee_log_from_thumb>

00000b2c <trace_ext_get_thread_id>:
trace_ext_get_thread_id():
/mnt/disk/raspbian-tee/optee_os/lib/libutee/trace_ext.c:24
     b2c:	f04f 30ff 	mov.w	r0, #4294967295	; 0xffffffff
     b30:	4770      	bx	lr

00000b32 <printf>:
printf():
/mnt/disk/raspbian-tee/optee_os/lib/libutee/trace_ext.c:32
     b32:	b40f      	push	{r0, r1, r2, r3}
     b34:	b530      	push	{r4, r5, lr}
     b36:	b0c3      	sub	sp, #268	; 0x10c
/mnt/disk/raspbian-tee/optee_os/lib/libutee/trace_ext.c:37
     b38:	f7ff fb00 	bl	13c <trace_get_level>
     b3c:	2800      	cmp	r0, #0
     b3e:	dd13      	ble.n	b68 <printf+0x36>
/mnt/disk/raspbian-tee/optee_os/lib/libutee/trace_ext.c:41
     b40:	ad02      	add	r5, sp, #8
/mnt/disk/raspbian-tee/optee_os/lib/libutee/trace_ext.c:40
     b42:	ab47      	add	r3, sp, #284	; 0x11c
/mnt/disk/raspbian-tee/optee_os/lib/libutee/trace_ext.c:41
     b44:	9a46      	ldr	r2, [sp, #280]	; 0x118
     b46:	f44f 7180 	mov.w	r1, #256	; 0x100
     b4a:	4628      	mov	r0, r5
/mnt/disk/raspbian-tee/optee_os/lib/libutee/trace_ext.c:40
     b4c:	9301      	str	r3, [sp, #4]
/mnt/disk/raspbian-tee/optee_os/lib/libutee/trace_ext.c:41
     b4e:	f006 ff37 	bl	79c0 <vsnprintf>
/mnt/disk/raspbian-tee/optee_os/lib/libutee/trace_ext.c:44
     b52:	1e04      	subs	r4, r0, #0
     b54:	db02      	blt.n	b5c <printf+0x2a>
/mnt/disk/raspbian-tee/optee_os/lib/libutee/trace_ext.c:47
     b56:	4628      	mov	r0, r5
     b58:	f7ff ffde 	bl	b18 <trace_ext_puts>
/mnt/disk/raspbian-tee/optee_os/lib/libutee/trace_ext.c:50
     b5c:	4620      	mov	r0, r4
     b5e:	b043      	add	sp, #268	; 0x10c
     b60:	e8bd 4030 	ldmia.w	sp!, {r4, r5, lr}
     b64:	b004      	add	sp, #16
     b66:	4770      	bx	lr
/mnt/disk/raspbian-tee/optee_os/lib/libutee/trace_ext.c:38
     b68:	2400      	movs	r4, #0
     b6a:	e7f7      	b.n	b5c <printf+0x2a>

00000b6c <puts>:
puts():
/mnt/disk/raspbian-tee/optee_os/lib/libutee/trace_ext.c:53
     b6c:	b510      	push	{r4, lr}
     b6e:	4604      	mov	r4, r0
/mnt/disk/raspbian-tee/optee_os/lib/libutee/trace_ext.c:54
     b70:	f7ff fae4 	bl	13c <trace_get_level>
     b74:	2800      	cmp	r0, #0
     b76:	dd06      	ble.n	b86 <puts+0x1a>
/mnt/disk/raspbian-tee/optee_os/lib/libutee/trace_ext.c:55
     b78:	4620      	mov	r0, r4
     b7a:	f7ff ffcd 	bl	b18 <trace_ext_puts>
/mnt/disk/raspbian-tee/optee_os/lib/libutee/trace_ext.c:56
     b7e:	4803      	ldr	r0, [pc, #12]	; (b8c <puts+0x20>)
     b80:	4478      	add	r0, pc
     b82:	f7ff ffc9 	bl	b18 <trace_ext_puts>
/mnt/disk/raspbian-tee/optee_os/lib/libutee/trace_ext.c:59
     b86:	2001      	movs	r0, #1
     b88:	bd10      	pop	{r4, pc}
     b8a:	bf00      	nop
     b8c:	00007a30 	.word	0x00007a30

00000b90 <putchar>:
putchar():
/mnt/disk/raspbian-tee/optee_os/lib/libutee/trace_ext.c:62
     b90:	b513      	push	{r0, r1, r4, lr}
/mnt/disk/raspbian-tee/optee_os/lib/libutee/trace_ext.c:63
     b92:	2300      	movs	r3, #0
/mnt/disk/raspbian-tee/optee_os/lib/libutee/trace_ext.c:62
     b94:	4604      	mov	r4, r0
/mnt/disk/raspbian-tee/optee_os/lib/libutee/trace_ext.c:63
     b96:	f88d 0004 	strb.w	r0, [sp, #4]
     b9a:	f88d 3005 	strb.w	r3, [sp, #5]
/mnt/disk/raspbian-tee/optee_os/lib/libutee/trace_ext.c:65
     b9e:	f7ff facd 	bl	13c <trace_get_level>
     ba2:	2800      	cmp	r0, #0
     ba4:	dd02      	ble.n	bac <putchar+0x1c>
/mnt/disk/raspbian-tee/optee_os/lib/libutee/trace_ext.c:66
     ba6:	a801      	add	r0, sp, #4
     ba8:	f7ff ffb6 	bl	b18 <trace_ext_puts>
/mnt/disk/raspbian-tee/optee_os/lib/libutee/trace_ext.c:73
     bac:	b2e0      	uxtb	r0, r4
     bae:	b002      	add	sp, #8
     bb0:	bd10      	pop	{r4, pc}
     bb2:	bf00      	nop

00000bb4 <__utee_from_param>:
__utee_from_param():
/mnt/disk/raspbian-tee/optee_os/lib/libutee/tee_api.c:23
     bb4:	2300      	movs	r3, #0
/mnt/disk/raspbian-tee/optee_os/lib/libutee/tee_api.c:20
     bb6:	b5f0      	push	{r4, r5, r6, r7, lr}
     bb8:	4694      	mov	ip, r2
     bba:	4615      	mov	r5, r2
/mnt/disk/raspbian-tee/optee_os/lib/libutee/tee_api.c:39
     bbc:	2600      	movs	r6, #0
     bbe:	2700      	movs	r7, #0
/mnt/disk/raspbian-tee/optee_os/lib/libutee/tee_api.c:35
     bc0:	461a      	mov	r2, r3
/mnt/disk/raspbian-tee/optee_os/lib/libutee/tee_api.c:23
     bc2:	e880 000a 	stmia.w	r0, {r1, r3}
/mnt/disk/raspbian-tee/optee_os/lib/libutee/tee_api.c:25
     bc6:	fa21 f403 	lsr.w	r4, r1, r3
     bca:	f004 040f 	and.w	r4, r4, #15
     bce:	3c01      	subs	r4, #1
     bd0:	2c06      	cmp	r4, #6
     bd2:	d812      	bhi.n	bfa <__utee_from_param+0x46>
     bd4:	e8df f004 	tbb	[pc, r4]
     bd8:	11040404 	.word	0x11040404
     bdc:	0404      	.short	0x0404
     bde:	04          	.byte	0x04
     bdf:	00          	.byte	0x00
/mnt/disk/raspbian-tee/optee_os/lib/libutee/tee_api.c:35
     be0:	f85c 4013 	ldr.w	r4, [ip, r3, lsl #1]
     be4:	6084      	str	r4, [r0, #8]
     be6:	60c2      	str	r2, [r0, #12]
/mnt/disk/raspbian-tee/optee_os/lib/libutee/tee_api.c:36
     be8:	686c      	ldr	r4, [r5, #4]
     bea:	6104      	str	r4, [r0, #16]
     bec:	6142      	str	r2, [r0, #20]
     bee:	3304      	adds	r3, #4
     bf0:	3508      	adds	r5, #8
     bf2:	3010      	adds	r0, #16
/mnt/disk/raspbian-tee/optee_os/lib/libutee/tee_api.c:24 (discriminator 2)
     bf4:	2b10      	cmp	r3, #16
     bf6:	d1e6      	bne.n	bc6 <__utee_from_param+0x12>
/mnt/disk/raspbian-tee/optee_os/lib/libutee/tee_api.c:44
     bf8:	bdf0      	pop	{r4, r5, r6, r7, pc}
/mnt/disk/raspbian-tee/optee_os/lib/libutee/tee_api.c:39
     bfa:	e9c0 6702 	strd	r6, r7, [r0, #8]
/mnt/disk/raspbian-tee/optee_os/lib/libutee/tee_api.c:40
     bfe:	e9c0 6704 	strd	r6, r7, [r0, #16]
/mnt/disk/raspbian-tee/optee_os/lib/libutee/tee_api.c:41
     c02:	e7f4      	b.n	bee <__utee_from_param+0x3a>

00000c04 <__utee_to_param>:
__utee_to_param():
/mnt/disk/raspbian-tee/optee_os/lib/libutee/tee_api.c:48
     c04:	b5f0      	push	{r4, r5, r6, r7, lr}
/mnt/disk/raspbian-tee/optee_os/lib/libutee/tee_api.c:50
     c06:	2300      	movs	r3, #0
     c08:	6816      	ldr	r6, [r2, #0]
     c0a:	4605      	mov	r5, r0
/mnt/disk/raspbian-tee/optee_os/lib/libutee/tee_api.c:56
     c0c:	fa26 f403 	lsr.w	r4, r6, r3
/mnt/disk/raspbian-tee/optee_os/lib/libutee/tee_api.c:53
     c10:	f8d2 c008 	ldr.w	ip, [r2, #8]
/mnt/disk/raspbian-tee/optee_os/lib/libutee/tee_api.c:56
     c14:	f004 040f 	and.w	r4, r4, #15
/mnt/disk/raspbian-tee/optee_os/lib/libutee/tee_api.c:54
     c18:	6917      	ldr	r7, [r2, #16]
/mnt/disk/raspbian-tee/optee_os/lib/libutee/tee_api.c:56
     c1a:	3c01      	subs	r4, #1
     c1c:	2c06      	cmp	r4, #6
     c1e:	d808      	bhi.n	c32 <__utee_to_param+0x2e>
     c20:	e8df f004 	tbb	[pc, r4]
     c24:	07040404 	.word	0x07040404
     c28:	0404      	.short	0x0404
     c2a:	04          	.byte	0x04
     c2b:	00          	.byte	0x00
/mnt/disk/raspbian-tee/optee_os/lib/libutee/tee_api.c:66
     c2c:	f840 c013 	str.w	ip, [r0, r3, lsl #1]
/mnt/disk/raspbian-tee/optee_os/lib/libutee/tee_api.c:67
     c30:	606f      	str	r7, [r5, #4]
     c32:	3304      	adds	r3, #4
     c34:	3210      	adds	r2, #16
     c36:	3508      	adds	r5, #8
/mnt/disk/raspbian-tee/optee_os/lib/libutee/tee_api.c:52 (discriminator 2)
     c38:	2b10      	cmp	r3, #16
     c3a:	d1e7      	bne.n	c0c <__utee_to_param+0x8>
/mnt/disk/raspbian-tee/optee_os/lib/libutee/tee_api.c:74
     c3c:	b101      	cbz	r1, c40 <__utee_to_param+0x3c>
/mnt/disk/raspbian-tee/optee_os/lib/libutee/tee_api.c:75
     c3e:	600e      	str	r6, [r1, #0]
     c40:	bdf0      	pop	{r4, r5, r6, r7, pc}

00000c42 <TEE_OpenTASession>:
TEE_OpenTASession():
/mnt/disk/raspbian-tee/optee_os/lib/libutee/tee_api.c:84
     c42:	b5f0      	push	{r4, r5, r6, r7, lr}
     c44:	4605      	mov	r5, r0
     c46:	460f      	mov	r7, r1
     c48:	b097      	sub	sp, #92	; 0x5c
     c4a:	4611      	mov	r1, r2
/mnt/disk/raspbian-tee/optee_os/lib/libutee/tee_api.c:89
     c4c:	ac04      	add	r4, sp, #16
     c4e:	461a      	mov	r2, r3
     c50:	4620      	mov	r0, r4
/mnt/disk/raspbian-tee/optee_os/lib/libutee/tee_api.c:84
     c52:	461e      	mov	r6, r3
/mnt/disk/raspbian-tee/optee_os/lib/libutee/tee_api.c:89
     c54:	f7ff ffae 	bl	bb4 <__utee_from_param>
/mnt/disk/raspbian-tee/optee_os/lib/libutee/tee_api.c:90
     c58:	9b1d      	ldr	r3, [sp, #116]	; 0x74
     c5a:	9300      	str	r3, [sp, #0]
     c5c:	4622      	mov	r2, r4
     c5e:	4639      	mov	r1, r7
     c60:	4628      	mov	r0, r5
     c62:	ab03      	add	r3, sp, #12
     c64:	f001 ed44 	blx	26f0 <utee_open_ta_session>
/mnt/disk/raspbian-tee/optee_os/lib/libutee/tee_api.c:92
     c68:	4622      	mov	r2, r4
/mnt/disk/raspbian-tee/optee_os/lib/libutee/tee_api.c:90
     c6a:	4605      	mov	r5, r0
/mnt/disk/raspbian-tee/optee_os/lib/libutee/tee_api.c:92
     c6c:	2100      	movs	r1, #0
     c6e:	4630      	mov	r0, r6
     c70:	f7ff ffc8 	bl	c04 <__utee_to_param>
/mnt/disk/raspbian-tee/optee_os/lib/libutee/tee_api.c:98
     c74:	b10d      	cbz	r5, c7a <TEE_OpenTASession+0x38>
/mnt/disk/raspbian-tee/optee_os/lib/libutee/tee_api.c:99
     c76:	2300      	movs	r3, #0
     c78:	9303      	str	r3, [sp, #12]
/mnt/disk/raspbian-tee/optee_os/lib/libutee/tee_api.c:101
     c7a:	9b1c      	ldr	r3, [sp, #112]	; 0x70
/mnt/disk/raspbian-tee/optee_os/lib/libutee/tee_api.c:103
     c7c:	4628      	mov	r0, r5
/mnt/disk/raspbian-tee/optee_os/lib/libutee/tee_api.c:101
     c7e:	9a03      	ldr	r2, [sp, #12]
     c80:	601a      	str	r2, [r3, #0]
/mnt/disk/raspbian-tee/optee_os/lib/libutee/tee_api.c:103
     c82:	b017      	add	sp, #92	; 0x5c
     c84:	bdf0      	pop	{r4, r5, r6, r7, pc}

00000c86 <TEE_CloseTASession>:
TEE_CloseTASession():
/mnt/disk/raspbian-tee/optee_os/lib/libutee/tee_api.c:106
     c86:	b508      	push	{r3, lr}
/mnt/disk/raspbian-tee/optee_os/lib/libutee/tee_api.c:107
     c88:	b130      	cbz	r0, c98 <TEE_CloseTASession+0x12>
/mnt/disk/raspbian-tee/optee_os/lib/libutee/tee_api.c:108
     c8a:	f001 ed3e 	blx	2708 <utee_close_ta_session>
/mnt/disk/raspbian-tee/optee_os/lib/libutee/tee_api.c:110
     c8e:	b118      	cbz	r0, c98 <TEE_CloseTASession+0x12>
/mnt/disk/raspbian-tee/optee_os/lib/libutee/tee_api.c:113
     c90:	e8bd 4008 	ldmia.w	sp!, {r3, lr}
/mnt/disk/raspbian-tee/optee_os/lib/libutee/tee_api.c:111
     c94:	f006 be83 	b.w	799e <TEE_Panic>
     c98:	bd08      	pop	{r3, pc}

00000c9a <TEE_InvokeTACommand>:
TEE_InvokeTACommand():
/mnt/disk/raspbian-tee/optee_os/lib/libutee/tee_api.c:120
     c9a:	e92d 41f0 	stmdb	sp!, {r4, r5, r6, r7, r8, lr}
     c9e:	4604      	mov	r4, r0
     ca0:	460f      	mov	r7, r1
     ca2:	b096      	sub	sp, #88	; 0x58
/mnt/disk/raspbian-tee/optee_os/lib/libutee/tee_api.c:125
     ca4:	4619      	mov	r1, r3
     ca6:	ad04      	add	r5, sp, #16
/mnt/disk/raspbian-tee/optee_os/lib/libutee/tee_api.c:120
     ca8:	4690      	mov	r8, r2
/mnt/disk/raspbian-tee/optee_os/lib/libutee/tee_api.c:125
     caa:	4628      	mov	r0, r5
/mnt/disk/raspbian-tee/optee_os/lib/libutee/tee_api.c:120
     cac:	9e1d      	ldr	r6, [sp, #116]	; 0x74
/mnt/disk/raspbian-tee/optee_os/lib/libutee/tee_api.c:125
     cae:	9a1c      	ldr	r2, [sp, #112]	; 0x70
     cb0:	f7ff ff80 	bl	bb4 <__utee_from_param>
/mnt/disk/raspbian-tee/optee_os/lib/libutee/tee_api.c:126
     cb4:	ab03      	add	r3, sp, #12
     cb6:	4642      	mov	r2, r8
     cb8:	9300      	str	r3, [sp, #0]
     cba:	4639      	mov	r1, r7
     cbc:	462b      	mov	r3, r5
     cbe:	4620      	mov	r0, r4
     cc0:	f001 ed2c 	blx	271c <utee_invoke_ta_command>
/mnt/disk/raspbian-tee/optee_os/lib/libutee/tee_api.c:129
     cc4:	462a      	mov	r2, r5
/mnt/disk/raspbian-tee/optee_os/lib/libutee/tee_api.c:126
     cc6:	4604      	mov	r4, r0
/mnt/disk/raspbian-tee/optee_os/lib/libutee/tee_api.c:129
     cc8:	2100      	movs	r1, #0
     cca:	981c      	ldr	r0, [sp, #112]	; 0x70
     ccc:	f7ff ff9a 	bl	c04 <__utee_to_param>
     cd0:	9b03      	ldr	r3, [sp, #12]
/mnt/disk/raspbian-tee/optee_os/lib/libutee/tee_api.c:131
     cd2:	b106      	cbz	r6, cd6 <TEE_InvokeTACommand+0x3c>
/mnt/disk/raspbian-tee/optee_os/lib/libutee/tee_api.c:132
     cd4:	6033      	str	r3, [r6, #0]
/mnt/disk/raspbian-tee/optee_os/lib/libutee/tee_api.c:134
     cd6:	2b04      	cmp	r3, #4
     cd8:	d009      	beq.n	cee <TEE_InvokeTACommand+0x54>
/mnt/disk/raspbian-tee/optee_os/lib/libutee/tee_api.c:137
     cda:	b144      	cbz	r4, cee <TEE_InvokeTACommand+0x54>
/mnt/disk/raspbian-tee/optee_os/lib/libutee/tee_api.c:137 (discriminator 1)
     cdc:	4b06      	ldr	r3, [pc, #24]	; (cf8 <TEE_InvokeTACommand+0x5e>)
     cde:	429c      	cmp	r4, r3
     ce0:	d005      	beq.n	cee <TEE_InvokeTACommand+0x54>
/mnt/disk/raspbian-tee/optee_os/lib/libutee/tee_api.c:138
     ce2:	4b06      	ldr	r3, [pc, #24]	; (cfc <TEE_InvokeTACommand+0x62>)
     ce4:	429c      	cmp	r4, r3
     ce6:	d002      	beq.n	cee <TEE_InvokeTACommand+0x54>
/mnt/disk/raspbian-tee/optee_os/lib/libutee/tee_api.c:140
     ce8:	4620      	mov	r0, r4
     cea:	f006 fe58 	bl	799e <TEE_Panic>
/mnt/disk/raspbian-tee/optee_os/lib/libutee/tee_api.c:143
     cee:	4620      	mov	r0, r4
     cf0:	b016      	add	sp, #88	; 0x58
     cf2:	e8bd 81f0 	ldmia.w	sp!, {r4, r5, r6, r7, r8, pc}
     cf6:	bf00      	nop
     cf8:	ffff000c 	.word	0xffff000c
     cfc:	ffff3024 	.word	0xffff3024

00000d00 <TEE_GetCancellationFlag>:
TEE_GetCancellationFlag():
/mnt/disk/raspbian-tee/optee_os/lib/libutee/tee_api.c:148
     d00:	b507      	push	{r0, r1, r2, lr}
/mnt/disk/raspbian-tee/optee_os/lib/libutee/tee_api.c:150
     d02:	a801      	add	r0, sp, #4
     d04:	f001 ed16 	blx	2734 <utee_get_cancellation_flag>
/mnt/disk/raspbian-tee/optee_os/lib/libutee/tee_api.c:152
     d08:	b108      	cbz	r0, d0e <TEE_GetCancellationFlag+0xe>
/mnt/disk/raspbian-tee/optee_os/lib/libutee/tee_api.c:153
     d0a:	2300      	movs	r3, #0
     d0c:	9301      	str	r3, [sp, #4]
/mnt/disk/raspbian-tee/optee_os/lib/libutee/tee_api.c:155
     d0e:	9801      	ldr	r0, [sp, #4]
     d10:	3000      	adds	r0, #0
     d12:	bf18      	it	ne
     d14:	2001      	movne	r0, #1
     d16:	b003      	add	sp, #12
     d18:	f85d fb04 	ldr.w	pc, [sp], #4

00000d1c <TEE_UnmaskCancellation>:
TEE_UnmaskCancellation():
/mnt/disk/raspbian-tee/optee_os/lib/libutee/tee_api.c:158
     d1c:	b507      	push	{r0, r1, r2, lr}
/mnt/disk/raspbian-tee/optee_os/lib/libutee/tee_api.c:160
     d1e:	a801      	add	r0, sp, #4
     d20:	f001 ed1c 	blx	275c <utee_unmask_cancellation>
/mnt/disk/raspbian-tee/optee_os/lib/libutee/tee_api.c:162
     d24:	b108      	cbz	r0, d2a <TEE_UnmaskCancellation+0xe>
/mnt/disk/raspbian-tee/optee_os/lib/libutee/tee_api.c:163
     d26:	f006 fe3a 	bl	799e <TEE_Panic>
/mnt/disk/raspbian-tee/optee_os/lib/libutee/tee_api.c:165
     d2a:	9801      	ldr	r0, [sp, #4]
     d2c:	3000      	adds	r0, #0
     d2e:	bf18      	it	ne
     d30:	2001      	movne	r0, #1
     d32:	b003      	add	sp, #12
     d34:	f85d fb04 	ldr.w	pc, [sp], #4

00000d38 <TEE_MaskCancellation>:
TEE_MaskCancellation():
/mnt/disk/raspbian-tee/optee_os/lib/libutee/tee_api.c:168
     d38:	b507      	push	{r0, r1, r2, lr}
/mnt/disk/raspbian-tee/optee_os/lib/libutee/tee_api.c:170
     d3a:	a801      	add	r0, sp, #4
     d3c:	f001 ed18 	blx	2770 <utee_mask_cancellation>
/mnt/disk/raspbian-tee/optee_os/lib/libutee/tee_api.c:172
     d40:	b108      	cbz	r0, d46 <TEE_MaskCancellation+0xe>
/mnt/disk/raspbian-tee/optee_os/lib/libutee/tee_api.c:173
     d42:	f006 fe2c 	bl	799e <TEE_Panic>
/mnt/disk/raspbian-tee/optee_os/lib/libutee/tee_api.c:175
     d46:	9801      	ldr	r0, [sp, #4]
     d48:	3000      	adds	r0, #0
     d4a:	bf18      	it	ne
     d4c:	2001      	movne	r0, #1
     d4e:	b003      	add	sp, #12
     d50:	f85d fb04 	ldr.w	pc, [sp], #4

00000d54 <TEE_CheckMemoryAccessRights>:
TEE_CheckMemoryAccessRights():
/mnt/disk/raspbian-tee/optee_os/lib/libutee/tee_api.c:184
     d54:	b10a      	cbz	r2, d5a <TEE_CheckMemoryAccessRights+0x6>
/mnt/disk/raspbian-tee/optee_os/lib/libutee/tee_api.c:188
     d56:	f006 bea7 	b.w	7aa8 <__utee_check_access_rights_from_thumb>
/mnt/disk/raspbian-tee/optee_os/lib/libutee/tee_api.c:200
     d5a:	4610      	mov	r0, r2
     d5c:	4770      	bx	lr

00000d5e <TEE_SetInstanceData>:
TEE_SetInstanceData():
/mnt/disk/raspbian-tee/optee_os/lib/libutee/tee_api.c:204
     d5e:	4b02      	ldr	r3, [pc, #8]	; (d68 <TEE_SetInstanceData+0xa>)
     d60:	447b      	add	r3, pc
     d62:	6018      	str	r0, [r3, #0]
     d64:	4770      	bx	lr
     d66:	bf00      	nop
     d68:	0000931c 	.word	0x0000931c

00000d6c <TEE_GetInstanceData>:
TEE_GetInstanceData():
/mnt/disk/raspbian-tee/optee_os/lib/libutee/tee_api.c:210
     d6c:	4b01      	ldr	r3, [pc, #4]	; (d74 <TEE_GetInstanceData+0x8>)
     d6e:	447b      	add	r3, pc
     d70:	6818      	ldr	r0, [r3, #0]
     d72:	4770      	bx	lr
     d74:	0000930e 	.word	0x0000930e

00000d78 <TEE_MemMove>:
TEE_MemMove():
/mnt/disk/raspbian-tee/optee_os/lib/libutee/tee_api.c:214
     d78:	f006 be43 	b.w	7a02 <memmove>

00000d7c <TEE_MemCompare>:
TEE_MemCompare():
/mnt/disk/raspbian-tee/optee_os/lib/libutee/tee_api.c:219
     d7c:	f006 be27 	b.w	79ce <memcmp>

00000d80 <TEE_MemFill>:
TEE_MemFill():
/mnt/disk/raspbian-tee/optee_os/lib/libutee/tee_api.c:224
     d80:	f006 be59 	b.w	7a36 <memset>

00000d84 <TEE_GetSystemTime>:
TEE_GetSystemTime():
/mnt/disk/raspbian-tee/optee_os/lib/libutee/tee_api.c:230
     d84:	b508      	push	{r3, lr}
/mnt/disk/raspbian-tee/optee_os/lib/libutee/tee_api.c:231
     d86:	4601      	mov	r1, r0
     d88:	2000      	movs	r0, #0
     d8a:	f001 ed06 	blx	2798 <utee_get_time>
/mnt/disk/raspbian-tee/optee_os/lib/libutee/tee_api.c:233
     d8e:	b118      	cbz	r0, d98 <TEE_GetSystemTime+0x14>
/mnt/disk/raspbian-tee/optee_os/lib/libutee/tee_api.c:235
     d90:	e8bd 4008 	ldmia.w	sp!, {r3, lr}
/mnt/disk/raspbian-tee/optee_os/lib/libutee/tee_api.c:234
     d94:	f006 be03 	b.w	799e <TEE_Panic>
     d98:	bd08      	pop	{r3, pc}

00000d9a <TEE_Wait>:
TEE_Wait():
/mnt/disk/raspbian-tee/optee_os/lib/libutee/tee_api.c:238
     d9a:	b510      	push	{r4, lr}
/mnt/disk/raspbian-tee/optee_os/lib/libutee/tee_api.c:239
     d9c:	f001 ecf2 	blx	2784 <utee_wait>
/mnt/disk/raspbian-tee/optee_os/lib/libutee/tee_api.c:241
     da0:	4604      	mov	r4, r0
     da2:	b120      	cbz	r0, dae <TEE_Wait+0x14>
/mnt/disk/raspbian-tee/optee_os/lib/libutee/tee_api.c:241 (discriminator 1)
     da4:	4b03      	ldr	r3, [pc, #12]	; (db4 <TEE_Wait+0x1a>)
     da6:	4298      	cmp	r0, r3
     da8:	d001      	beq.n	dae <TEE_Wait+0x14>
/mnt/disk/raspbian-tee/optee_os/lib/libutee/tee_api.c:242
     daa:	f006 fdf8 	bl	799e <TEE_Panic>
/mnt/disk/raspbian-tee/optee_os/lib/libutee/tee_api.c:245
     dae:	4620      	mov	r0, r4
     db0:	bd10      	pop	{r4, pc}
     db2:	bf00      	nop
     db4:	ffff0002 	.word	0xffff0002

00000db8 <TEE_GetTAPersistentTime>:
TEE_GetTAPersistentTime():
/mnt/disk/raspbian-tee/optee_os/lib/libutee/tee_api.c:248
     db8:	b538      	push	{r3, r4, r5, lr}
/mnt/disk/raspbian-tee/optee_os/lib/libutee/tee_api.c:251
     dba:	4601      	mov	r1, r0
/mnt/disk/raspbian-tee/optee_os/lib/libutee/tee_api.c:248
     dbc:	4605      	mov	r5, r0
/mnt/disk/raspbian-tee/optee_os/lib/libutee/tee_api.c:251
     dbe:	2001      	movs	r0, #1
     dc0:	f001 ecea 	blx	2798 <utee_get_time>
/mnt/disk/raspbian-tee/optee_os/lib/libutee/tee_api.c:253
     dc4:	4604      	mov	r4, r0
     dc6:	b170      	cbz	r0, de6 <TEE_GetTAPersistentTime+0x2e>
/mnt/disk/raspbian-tee/optee_os/lib/libutee/tee_api.c:253 (discriminator 1)
     dc8:	4b08      	ldr	r3, [pc, #32]	; (dec <TEE_GetTAPersistentTime+0x34>)
     dca:	4298      	cmp	r0, r3
     dcc:	d00b      	beq.n	de6 <TEE_GetTAPersistentTime+0x2e>
/mnt/disk/raspbian-tee/optee_os/lib/libutee/tee_api.c:254
     dce:	2300      	movs	r3, #0
     dd0:	602b      	str	r3, [r5, #0]
/mnt/disk/raspbian-tee/optee_os/lib/libutee/tee_api.c:255
     dd2:	606b      	str	r3, [r5, #4]
/mnt/disk/raspbian-tee/optee_os/lib/libutee/tee_api.c:258
     dd4:	f500 4330 	add.w	r3, r0, #45056	; 0xb000
     dd8:	2b01      	cmp	r3, #1
     dda:	d904      	bls.n	de6 <TEE_GetTAPersistentTime+0x2e>
/mnt/disk/raspbian-tee/optee_os/lib/libutee/tee_api.c:261
     ddc:	4b04      	ldr	r3, [pc, #16]	; (df0 <TEE_GetTAPersistentTime+0x38>)
     dde:	4298      	cmp	r0, r3
     de0:	d001      	beq.n	de6 <TEE_GetTAPersistentTime+0x2e>
/mnt/disk/raspbian-tee/optee_os/lib/libutee/tee_api.c:263
     de2:	f006 fddc 	bl	799e <TEE_Panic>
/mnt/disk/raspbian-tee/optee_os/lib/libutee/tee_api.c:266
     de6:	4620      	mov	r0, r4
     de8:	bd38      	pop	{r3, r4, r5, pc}
     dea:	bf00      	nop
     dec:	ffff300f 	.word	0xffff300f
     df0:	ffff000c 	.word	0xffff000c

00000df4 <TEE_SetTAPersistentTime>:
TEE_SetTAPersistentTime():
/mnt/disk/raspbian-tee/optee_os/lib/libutee/tee_api.c:269
     df4:	b510      	push	{r4, lr}
/mnt/disk/raspbian-tee/optee_os/lib/libutee/tee_api.c:272
     df6:	f001 ecda 	blx	27ac <utee_set_ta_time>
/mnt/disk/raspbian-tee/optee_os/lib/libutee/tee_api.c:274
     dfa:	4604      	mov	r4, r0
     dfc:	b138      	cbz	r0, e0e <TEE_SetTAPersistentTime+0x1a>
/mnt/disk/raspbian-tee/optee_os/lib/libutee/tee_api.c:274 (discriminator 1)
     dfe:	4b05      	ldr	r3, [pc, #20]	; (e14 <TEE_SetTAPersistentTime+0x20>)
     e00:	4298      	cmp	r0, r3
     e02:	d004      	beq.n	e0e <TEE_SetTAPersistentTime+0x1a>
/mnt/disk/raspbian-tee/optee_os/lib/libutee/tee_api.c:275
     e04:	4b04      	ldr	r3, [pc, #16]	; (e18 <TEE_SetTAPersistentTime+0x24>)
     e06:	4298      	cmp	r0, r3
     e08:	d001      	beq.n	e0e <TEE_SetTAPersistentTime+0x1a>
/mnt/disk/raspbian-tee/optee_os/lib/libutee/tee_api.c:277
     e0a:	f006 fdc8 	bl	799e <TEE_Panic>
/mnt/disk/raspbian-tee/optee_os/lib/libutee/tee_api.c:280
     e0e:	4620      	mov	r0, r4
     e10:	bd10      	pop	{r4, pc}
     e12:	bf00      	nop
     e14:	ffff000c 	.word	0xffff000c
     e18:	ffff3041 	.word	0xffff3041

00000e1c <TEE_GetREETime>:
TEE_GetREETime():
/mnt/disk/raspbian-tee/optee_os/lib/libutee/tee_api.c:283
     e1c:	b508      	push	{r3, lr}
/mnt/disk/raspbian-tee/optee_os/lib/libutee/tee_api.c:284
     e1e:	4601      	mov	r1, r0
     e20:	2002      	movs	r0, #2
     e22:	f001 ecba 	blx	2798 <utee_get_time>
/mnt/disk/raspbian-tee/optee_os/lib/libutee/tee_api.c:286
     e26:	b118      	cbz	r0, e30 <TEE_GetREETime+0x14>
/mnt/disk/raspbian-tee/optee_os/lib/libutee/tee_api.c:288
     e28:	e8bd 4008 	ldmia.w	sp!, {r3, lr}
/mnt/disk/raspbian-tee/optee_os/lib/libutee/tee_api.c:287
     e2c:	f006 bdb7 	b.w	799e <TEE_Panic>
     e30:	bd08      	pop	{r3, pc}

00000e32 <TEE_Malloc>:
TEE_Malloc():
/mnt/disk/raspbian-tee/optee_os/lib/libutee/tee_api.c:291
     e32:	b507      	push	{r0, r1, r2, lr}
/mnt/disk/raspbian-tee/optee_os/lib/libutee/tee_api.c:292
     e34:	b931      	cbnz	r1, e44 <TEE_Malloc+0x12>
/mnt/disk/raspbian-tee/optee_os/lib/libutee/tee_api.c:293
     e36:	4601      	mov	r1, r0
     e38:	2001      	movs	r0, #1
/mnt/disk/raspbian-tee/optee_os/lib/libutee/tee_api.c:300
     e3a:	b003      	add	sp, #12
     e3c:	f85d eb04 	ldr.w	lr, [sp], #4
/mnt/disk/raspbian-tee/optee_os/lib/libutee/tee_api.c:293
     e40:	f006 b99c 	b.w	717c <calloc>
/mnt/disk/raspbian-tee/optee_os/lib/libutee/tee_api.c:294
     e44:	f1b1 4f00 	cmp.w	r1, #2147483648	; 0x80000000
     e48:	d104      	bne.n	e54 <TEE_Malloc+0x22>
/mnt/disk/raspbian-tee/optee_os/lib/libutee/tee_api.c:300
     e4a:	b003      	add	sp, #12
     e4c:	f85d eb04 	ldr.w	lr, [sp], #4
/mnt/disk/raspbian-tee/optee_os/lib/libutee/tee_api.c:295
     e50:	f006 b98a 	b.w	7168 <malloc>
/mnt/disk/raspbian-tee/optee_os/lib/libutee/tee_api.c:297
     e54:	4b07      	ldr	r3, [pc, #28]	; (e74 <TEE_Malloc+0x42>)
     e56:	4808      	ldr	r0, [pc, #32]	; (e78 <TEE_Malloc+0x46>)
     e58:	447b      	add	r3, pc
     e5a:	9300      	str	r3, [sp, #0]
     e5c:	2301      	movs	r3, #1
     e5e:	9101      	str	r1, [sp, #4]
     e60:	461a      	mov	r2, r3
     e62:	f240 1129 	movw	r1, #297	; 0x129
     e66:	4478      	add	r0, pc
     e68:	f7ff f972 	bl	150 <trace_printf>
/mnt/disk/raspbian-tee/optee_os/lib/libutee/tee_api.c:300
     e6c:	2000      	movs	r0, #0
     e6e:	b003      	add	sp, #12
     e70:	f85d fb04 	ldr.w	pc, [sp], #4
     e74:	000070f2 	.word	0x000070f2
     e78:	000070d9 	.word	0x000070d9

00000e7c <TEE_Realloc>:
TEE_Realloc():
/mnt/disk/raspbian-tee/optee_os/lib/libutee/tee_api.c:304
     e7c:	f006 b9a2 	b.w	71c4 <realloc>

00000e80 <TEE_Free>:
TEE_Free():
/mnt/disk/raspbian-tee/optee_os/lib/libutee/tee_api.c:309
     e80:	f006 b973 	b.w	716a <free>

00000e84 <TEE_CacheClean>:
TEE_CacheClean():
/mnt/disk/raspbian-tee/optee_os/lib/libutee/tee_api.c:315
     e84:	2200      	movs	r2, #0
     e86:	f006 bdff 	b.w	7a88 <__utee_cache_operation_from_thumb>

00000e8a <TEE_CacheFlush>:
TEE_CacheFlush():
/mnt/disk/raspbian-tee/optee_os/lib/libutee/tee_api.c:319
     e8a:	2201      	movs	r2, #1
     e8c:	f006 bdfc 	b.w	7a88 <__utee_cache_operation_from_thumb>

00000e90 <TEE_CacheInvalidate>:
TEE_CacheInvalidate():
/mnt/disk/raspbian-tee/optee_os/lib/libutee/tee_api.c:324
     e90:	2202      	movs	r2, #2
     e92:	f006 bdf9 	b.w	7a88 <__utee_cache_operation_from_thumb>
     e96:	bf00      	nop

00000e98 <tee_buffer_update>:
tee_buffer_update():
/mnt/disk/raspbian-tee/optee_os/lib/libutee/tee_api_operations.c:852
     e98:	e92d 4ff0 	stmdb	sp!, {r4, r5, r6, r7, r8, r9, sl, fp, lr}
     e9c:	461f      	mov	r7, r3
     e9e:	4604      	mov	r4, r0
     ea0:	b087      	sub	sp, #28
     ea2:	468b      	mov	fp, r1
/mnt/disk/raspbian-tee/optee_os/lib/libutee/tee_api_operations.c:864
     ea4:	4692      	mov	sl, r2
/mnt/disk/raspbian-tee/optee_os/lib/libutee/tee_api_operations.c:857
     ea6:	9b11      	ldr	r3, [sp, #68]	; 0x44
/mnt/disk/raspbian-tee/optee_os/lib/libutee/tee_api_operations.c:852
     ea8:	f8dd 8040 	ldr.w	r8, [sp, #64]	; 0x40
/mnt/disk/raspbian-tee/optee_os/lib/libutee/tee_api_operations.c:857
     eac:	e9d3 0100 	ldrd	r0, r1, [r3]
     eb0:	e9cd 0102 	strd	r0, r1, [sp, #8]
/mnt/disk/raspbian-tee/optee_os/lib/libutee/tee_api_operations.c:864
     eb4:	b962      	cbnz	r2, ed0 <tee_buffer_update+0x38>
/mnt/disk/raspbian-tee/optee_os/lib/libutee/tee_api_operations.c:865
     eb6:	b93f      	cbnz	r7, ec8 <tee_buffer_update+0x30>
/mnt/disk/raspbian-tee/optee_os/lib/libutee/tee_api_operations.c:858
     eb8:	2500      	movs	r5, #0
/mnt/disk/raspbian-tee/optee_os/lib/libutee/tee_api_operations.c:940
     eba:	9b11      	ldr	r3, [sp, #68]	; 0x44
     ebc:	2000      	movs	r0, #0
     ebe:	601d      	str	r5, [r3, #0]
     ec0:	6058      	str	r0, [r3, #4]
/mnt/disk/raspbian-tee/optee_os/lib/libutee/tee_api_operations.c:942
     ec2:	b007      	add	sp, #28
     ec4:	e8bd 8ff0 	ldmia.w	sp!, {r4, r5, r6, r7, r8, r9, sl, fp, pc}
/mnt/disk/raspbian-tee/optee_os/lib/libutee/tee_api_operations.c:866
     ec8:	4610      	mov	r0, r2
     eca:	f006 fd68 	bl	799e <TEE_Panic>
     ece:	e7f3      	b.n	eb8 <tee_buffer_update+0x20>
/mnt/disk/raspbian-tee/optee_os/lib/libutee/tee_api_operations.c:870
     ed0:	f894 3030 	ldrb.w	r3, [r4, #48]	; 0x30
     ed4:	6b65      	ldr	r5, [r4, #52]	; 0x34
     ed6:	2b00      	cmp	r3, #0
     ed8:	d05b      	beq.n	f92 <tee_buffer_update+0xfa>
/mnt/disk/raspbian-tee/optee_os/lib/libutee/tee_api_operations.c:871
     eda:	006e      	lsls	r6, r5, #1
/mnt/disk/raspbian-tee/optee_os/lib/libutee/tee_api_operations.c:872
     edc:	f04f 0901 	mov.w	r9, #1
/mnt/disk/raspbian-tee/optee_os/lib/libutee/tee_api_operations.c:878
     ee0:	6ba0      	ldr	r0, [r4, #56]	; 0x38
     ee2:	b1c8      	cbz	r0, f18 <tee_buffer_update+0x80>
/mnt/disk/raspbian-tee/optee_os/lib/libutee/tee_api_operations.c:880
     ee4:	42a8      	cmp	r0, r5
/mnt/disk/raspbian-tee/optee_os/lib/libutee/tee_api_operations.c:884
     ee6:	6ae3      	ldr	r3, [r4, #44]	; 0x2c
/mnt/disk/raspbian-tee/optee_os/lib/libutee/tee_api_operations.c:883
     ee8:	bf28      	it	cs
     eea:	1a35      	subcs	r5, r6, r0
/mnt/disk/raspbian-tee/optee_os/lib/libutee/tee_api_operations.c:881
     eec:	bf38      	it	cc
     eee:	1a2d      	subcc	r5, r5, r0
/mnt/disk/raspbian-tee/optee_os/lib/libutee/tee_api_operations.c:883
     ef0:	42bd      	cmp	r5, r7
/mnt/disk/raspbian-tee/optee_os/lib/libutee/tee_api_operations.c:884
     ef2:	4651      	mov	r1, sl
/mnt/disk/raspbian-tee/optee_os/lib/libutee/tee_api_operations.c:883
     ef4:	bf28      	it	cs
     ef6:	463d      	movcs	r5, r7
/mnt/disk/raspbian-tee/optee_os/lib/libutee/tee_api_operations.c:884
     ef8:	4418      	add	r0, r3
     efa:	462a      	mov	r2, r5
     efc:	f006 fd76 	bl	79ec <memcpy>
/mnt/disk/raspbian-tee/optee_os/lib/libutee/tee_api_operations.c:885
     f00:	6ba3      	ldr	r3, [r4, #56]	; 0x38
/mnt/disk/raspbian-tee/optee_os/lib/libutee/tee_api_operations.c:888
     f02:	6b61      	ldr	r1, [r4, #52]	; 0x34
/mnt/disk/raspbian-tee/optee_os/lib/libutee/tee_api_operations.c:885
     f04:	442b      	add	r3, r5
     f06:	63a3      	str	r3, [r4, #56]	; 0x38
/mnt/disk/raspbian-tee/optee_os/lib/libutee/tee_api_operations.c:888
     f08:	fbb3 f2f1 	udiv	r2, r3, r1
     f0c:	fb01 3312 	mls	r3, r1, r2, r3
     f10:	2b00      	cmp	r3, #0
     f12:	d1d1      	bne.n	eb8 <tee_buffer_update+0x20>
/mnt/disk/raspbian-tee/optee_os/lib/libutee/tee_api_operations.c:886
     f14:	44aa      	add	sl, r5
/mnt/disk/raspbian-tee/optee_os/lib/libutee/tee_api_operations.c:887
     f16:	1b7f      	subs	r7, r7, r5
/mnt/disk/raspbian-tee/optee_os/lib/libutee/tee_api_operations.c:893
     f18:	6ba5      	ldr	r5, [r4, #56]	; 0x38
/mnt/disk/raspbian-tee/optee_os/lib/libutee/tee_api_operations.c:857
     f1a:	9902      	ldr	r1, [sp, #8]
/mnt/disk/raspbian-tee/optee_os/lib/libutee/tee_api_operations.c:893
     f1c:	2d00      	cmp	r5, #0
     f1e:	d03c      	beq.n	f9a <tee_buffer_update+0x102>
/mnt/disk/raspbian-tee/optee_os/lib/libutee/tee_api_operations.c:894 (discriminator 1)
     f20:	1978      	adds	r0, r7, r5
     f22:	eb06 0309 	add.w	r3, r6, r9
/mnt/disk/raspbian-tee/optee_os/lib/libutee/tee_api_operations.c:893 (discriminator 1)
     f26:	4298      	cmp	r0, r3
     f28:	d336      	bcc.n	f98 <tee_buffer_update+0x100>
/mnt/disk/raspbian-tee/optee_os/lib/libutee/tee_api_operations.c:895
     f2a:	6b62      	ldr	r2, [r4, #52]	; 0x34
     f2c:	1e53      	subs	r3, r2, #1
     f2e:	4252      	negs	r2, r2
     f30:	1b9b      	subs	r3, r3, r6
     f32:	4403      	add	r3, r0
     f34:	4013      	ands	r3, r2
/mnt/disk/raspbian-tee/optee_os/lib/libutee/tee_api_operations.c:897
     f36:	429d      	cmp	r5, r3
     f38:	bf28      	it	cs
     f3a:	461d      	movcs	r5, r3
/mnt/disk/raspbian-tee/optee_os/lib/libutee/tee_api_operations.c:898
     f3c:	ab06      	add	r3, sp, #24
     f3e:	e9dd 0102 	ldrd	r0, r1, [sp, #8]
     f42:	2100      	movs	r1, #0
     f44:	e963 0102 	strd	r0, r1, [r3, #-8]!
/mnt/disk/raspbian-tee/optee_os/lib/libutee/tee_api_operations.c:899
     f48:	462a      	mov	r2, r5
     f4a:	6ae1      	ldr	r1, [r4, #44]	; 0x2c
     f4c:	9300      	str	r3, [sp, #0]
     f4e:	4643      	mov	r3, r8
     f50:	6be0      	ldr	r0, [r4, #60]	; 0x3c
     f52:	47d8      	blx	fp
/mnt/disk/raspbian-tee/optee_os/lib/libutee/tee_api_operations.c:900
     f54:	b108      	cbz	r0, f5a <tee_buffer_update+0xc2>
/mnt/disk/raspbian-tee/optee_os/lib/libutee/tee_api_operations.c:901
     f56:	f006 fd22 	bl	799e <TEE_Panic>
/mnt/disk/raspbian-tee/optee_os/lib/libutee/tee_api_operations.c:902
     f5a:	9b04      	ldr	r3, [sp, #16]
/mnt/disk/raspbian-tee/optee_os/lib/libutee/tee_api_operations.c:903
     f5c:	9a02      	ldr	r2, [sp, #8]
/mnt/disk/raspbian-tee/optee_os/lib/libutee/tee_api_operations.c:902
     f5e:	4498      	add	r8, r3
/mnt/disk/raspbian-tee/optee_os/lib/libutee/tee_api_operations.c:903
     f60:	1ad1      	subs	r1, r2, r3
/mnt/disk/raspbian-tee/optee_os/lib/libutee/tee_api_operations.c:905
     f62:	6ba2      	ldr	r2, [r4, #56]	; 0x38
     f64:	1b52      	subs	r2, r2, r5
     f66:	63a2      	str	r2, [r4, #56]	; 0x38
/mnt/disk/raspbian-tee/optee_os/lib/libutee/tee_api_operations.c:906
     f68:	2a00      	cmp	r2, #0
     f6a:	d03f      	beq.n	fec <tee_buffer_update+0x154>
/mnt/disk/raspbian-tee/optee_os/lib/libutee/tee_api_operations.c:910
     f6c:	6ae0      	ldr	r0, [r4, #44]	; 0x2c
     f6e:	1b72      	subs	r2, r6, r5
     f70:	9302      	str	r3, [sp, #8]
     f72:	1941      	adds	r1, r0, r5
     f74:	f006 fd3a 	bl	79ec <memcpy>
/mnt/disk/raspbian-tee/optee_os/lib/libutee/tee_api_operations.c:911
     f78:	6ae5      	ldr	r5, [r4, #44]	; 0x2c
     f7a:	6ba0      	ldr	r0, [r4, #56]	; 0x38
     f7c:	463a      	mov	r2, r7
     f7e:	4651      	mov	r1, sl
     f80:	4428      	add	r0, r5
     f82:	f006 fd33 	bl	79ec <memcpy>
/mnt/disk/raspbian-tee/optee_os/lib/libutee/tee_api_operations.c:912
     f86:	6ba2      	ldr	r2, [r4, #56]	; 0x38
/mnt/disk/raspbian-tee/optee_os/lib/libutee/tee_api_operations.c:904
     f88:	9b02      	ldr	r3, [sp, #8]
/mnt/disk/raspbian-tee/optee_os/lib/libutee/tee_api_operations.c:912
     f8a:	4417      	add	r7, r2
     f8c:	63a7      	str	r7, [r4, #56]	; 0x38
/mnt/disk/raspbian-tee/optee_os/lib/libutee/tee_api_operations.c:904
     f8e:	461d      	mov	r5, r3
/mnt/disk/raspbian-tee/optee_os/lib/libutee/tee_api_operations.c:913
     f90:	e793      	b.n	eba <tee_buffer_update+0x22>
/mnt/disk/raspbian-tee/optee_os/lib/libutee/tee_api_operations.c:874
     f92:	462e      	mov	r6, r5
/mnt/disk/raspbian-tee/optee_os/lib/libutee/tee_api_operations.c:875
     f94:	4699      	mov	r9, r3
     f96:	e7a3      	b.n	ee0 <tee_buffer_update+0x48>
/mnt/disk/raspbian-tee/optee_os/lib/libutee/tee_api_operations.c:858
     f98:	2500      	movs	r5, #0
/mnt/disk/raspbian-tee/optee_os/lib/libutee/tee_api_operations.c:917
     f9a:	44b1      	add	r9, r6
     f9c:	454f      	cmp	r7, r9
     f9e:	d31a      	bcc.n	fd6 <tee_buffer_update+0x13e>
/mnt/disk/raspbian-tee/optee_os/lib/libutee/tee_api_operations.c:919
     fa0:	6822      	ldr	r2, [r4, #0]
     fa2:	4b14      	ldr	r3, [pc, #80]	; (ff4 <tee_buffer_update+0x15c>)
     fa4:	429a      	cmp	r2, r3
     fa6:	6b62      	ldr	r2, [r4, #52]	; 0x34
     fa8:	d122      	bne.n	ff0 <tee_buffer_update+0x158>
/mnt/disk/raspbian-tee/optee_os/lib/libutee/tee_api_operations.c:920
     faa:	1e53      	subs	r3, r2, #1
     fac:	1b9e      	subs	r6, r3, r6
/mnt/disk/raspbian-tee/optee_os/lib/libutee/tee_api_operations.c:922
     fae:	4252      	negs	r2, r2
     fb0:	443e      	add	r6, r7
     fb2:	4016      	ands	r6, r2
/mnt/disk/raspbian-tee/optee_os/lib/libutee/tee_api_operations.c:924
     fb4:	2300      	movs	r3, #0
     fb6:	9104      	str	r1, [sp, #16]
/mnt/disk/raspbian-tee/optee_os/lib/libutee/tee_api_operations.c:925
     fb8:	4632      	mov	r2, r6
/mnt/disk/raspbian-tee/optee_os/lib/libutee/tee_api_operations.c:924
     fba:	9305      	str	r3, [sp, #20]
/mnt/disk/raspbian-tee/optee_os/lib/libutee/tee_api_operations.c:925
     fbc:	4651      	mov	r1, sl
     fbe:	ab04      	add	r3, sp, #16
     fc0:	6be0      	ldr	r0, [r4, #60]	; 0x3c
     fc2:	9300      	str	r3, [sp, #0]
     fc4:	4643      	mov	r3, r8
     fc6:	47d8      	blx	fp
/mnt/disk/raspbian-tee/optee_os/lib/libutee/tee_api_operations.c:926
     fc8:	b108      	cbz	r0, fce <tee_buffer_update+0x136>
/mnt/disk/raspbian-tee/optee_os/lib/libutee/tee_api_operations.c:927
     fca:	f006 fce8 	bl	799e <TEE_Panic>
/mnt/disk/raspbian-tee/optee_os/lib/libutee/tee_api_operations.c:932
     fce:	9b04      	ldr	r3, [sp, #16]
/mnt/disk/raspbian-tee/optee_os/lib/libutee/tee_api_operations.c:928
     fd0:	44b2      	add	sl, r6
/mnt/disk/raspbian-tee/optee_os/lib/libutee/tee_api_operations.c:929
     fd2:	1bbf      	subs	r7, r7, r6
/mnt/disk/raspbian-tee/optee_os/lib/libutee/tee_api_operations.c:932
     fd4:	441d      	add	r5, r3
/mnt/disk/raspbian-tee/optee_os/lib/libutee/tee_api_operations.c:936
     fd6:	6ba3      	ldr	r3, [r4, #56]	; 0x38
     fd8:	463a      	mov	r2, r7
     fda:	6ae0      	ldr	r0, [r4, #44]	; 0x2c
     fdc:	4651      	mov	r1, sl
     fde:	4418      	add	r0, r3
     fe0:	f006 fd04 	bl	79ec <memcpy>
/mnt/disk/raspbian-tee/optee_os/lib/libutee/tee_api_operations.c:937
     fe4:	6ba3      	ldr	r3, [r4, #56]	; 0x38
     fe6:	441f      	add	r7, r3
     fe8:	63a7      	str	r7, [r4, #56]	; 0x38
     fea:	e766      	b.n	eba <tee_buffer_update+0x22>
/mnt/disk/raspbian-tee/optee_os/lib/libutee/tee_api_operations.c:904
     fec:	461d      	mov	r5, r3
     fee:	e7d4      	b.n	f9a <tee_buffer_update+0x102>
/mnt/disk/raspbian-tee/optee_os/lib/libutee/tee_api_operations.c:922
     ff0:	1b96      	subs	r6, r2, r6
     ff2:	e7dc      	b.n	fae <tee_buffer_update+0x116>
     ff4:	10000310 	.word	0x10000310

00000ff8 <TEE_FreeOperation>:
TEE_FreeOperation():
/mnt/disk/raspbian-tee/optee_os/lib/libutee/tee_api_operations.c:351
     ff8:	b510      	push	{r4, lr}
/mnt/disk/raspbian-tee/optee_os/lib/libutee/tee_api_operations.c:354
     ffa:	4604      	mov	r4, r0
     ffc:	b908      	cbnz	r0, 1002 <TEE_FreeOperation+0xa>
/mnt/disk/raspbian-tee/optee_os/lib/libutee/tee_api_operations.c:355
     ffe:	f006 fcce 	bl	799e <TEE_Panic>
/mnt/disk/raspbian-tee/optee_os/lib/libutee/tee_api_operations.c:362
    1002:	6be0      	ldr	r0, [r4, #60]	; 0x3c
    1004:	f001 ebf2 	blx	27ec <utee_cryp_state_free>
/mnt/disk/raspbian-tee/optee_os/lib/libutee/tee_api_operations.c:363
    1008:	b108      	cbz	r0, 100e <TEE_FreeOperation+0x16>
/mnt/disk/raspbian-tee/optee_os/lib/libutee/tee_api_operations.c:364
    100a:	f006 fcc8 	bl	799e <TEE_Panic>
/mnt/disk/raspbian-tee/optee_os/lib/libutee/tee_api_operations.c:366
    100e:	6ae0      	ldr	r0, [r4, #44]	; 0x2c
    1010:	f7ff ff36 	bl	e80 <TEE_Free>
/mnt/disk/raspbian-tee/optee_os/lib/libutee/tee_api_operations.c:367
    1014:	4620      	mov	r0, r4
/mnt/disk/raspbian-tee/optee_os/lib/libutee/tee_api_operations.c:368
    1016:	e8bd 4010 	ldmia.w	sp!, {r4, lr}
/mnt/disk/raspbian-tee/optee_os/lib/libutee/tee_api_operations.c:367
    101a:	f7ff bf31 	b.w	e80 <TEE_Free>

0000101e <TEE_AllocateOperation>:
TEE_AllocateOperation():
/mnt/disk/raspbian-tee/optee_os/lib/libutee/tee_api_operations.c:37
    101e:	e92d 4ff0 	stmdb	sp!, {r4, r5, r6, r7, r8, r9, sl, fp, lr}
    1022:	460c      	mov	r4, r1
    1024:	4617      	mov	r7, r2
    1026:	b087      	sub	sp, #28
    1028:	4699      	mov	r9, r3
/mnt/disk/raspbian-tee/optee_os/lib/libutee/tee_api_operations.c:46
    102a:	9003      	str	r0, [sp, #12]
    102c:	b908      	cbnz	r0, 1032 <TEE_AllocateOperation+0x14>
/mnt/disk/raspbian-tee/optee_os/lib/libutee/tee_api_operations.c:47
    102e:	f006 fcb6 	bl	799e <TEE_Panic>
/mnt/disk/raspbian-tee/optee_os/lib/libutee/tee_api_operations.c:49
    1032:	4bba      	ldr	r3, [pc, #744]	; (131c <TEE_AllocateOperation+0x2fe>)
    1034:	429c      	cmp	r4, r3
    1036:	f000 81b6 	beq.w	13a6 <TEE_AllocateOperation+0x388>
/mnt/disk/raspbian-tee/optee_os/lib/libutee/tee_api_operations.c:53
    103a:	4bb9      	ldr	r3, [pc, #740]	; (1320 <TEE_AllocateOperation+0x302>)
    103c:	429c      	cmp	r4, r3
    103e:	d06e      	beq.n	111e <TEE_AllocateOperation+0x100>
    1040:	d83f      	bhi.n	10c2 <TEE_AllocateOperation+0xa4>
    1042:	4ab8      	ldr	r2, [pc, #736]	; (1324 <TEE_AllocateOperation+0x306>)
    1044:	4294      	cmp	r4, r2
    1046:	d055      	beq.n	10f4 <TEE_AllocateOperation+0xd6>
    1048:	d82d      	bhi.n	10a6 <TEE_AllocateOperation+0x88>
    104a:	f5a2 5287 	sub.w	r2, r2, #4320	; 0x10e0
    104e:	3a10      	subs	r2, #16
    1050:	4294      	cmp	r4, r2
    1052:	d040      	beq.n	10d6 <TEE_AllocateOperation+0xb8>
    1054:	f502 5280 	add.w	r2, r2, #4096	; 0x1000
    1058:	4294      	cmp	r4, r2
    105a:	d065      	beq.n	1128 <TEE_AllocateOperation+0x10a>
/mnt/disk/raspbian-tee/optee_os/lib/libutee/tee_api_operations.c:108
    105c:	4ab2      	ldr	r2, [pc, #712]	; (1328 <TEE_AllocateOperation+0x30a>)
    105e:	4294      	cmp	r4, r2
    1060:	d050      	beq.n	1104 <TEE_AllocateOperation+0xe6>
    1062:	f200 80d8 	bhi.w	1216 <TEE_AllocateOperation+0x1f8>
    1066:	4bb1      	ldr	r3, [pc, #708]	; (132c <TEE_AllocateOperation+0x30e>)
    1068:	429c      	cmp	r4, r3
    106a:	d07d      	beq.n	1168 <TEE_AllocateOperation+0x14a>
    106c:	f200 808e 	bhi.w	118c <TEE_AllocateOperation+0x16e>
    1070:	4baf      	ldr	r3, [pc, #700]	; (1330 <TEE_AllocateOperation+0x312>)
    1072:	429c      	cmp	r4, r3
    1074:	f000 81a9 	beq.w	13ca <TEE_AllocateOperation+0x3ac>
    1078:	d86b      	bhi.n	1152 <TEE_AllocateOperation+0x134>
    107a:	f46f 71ff 	mvn.w	r1, #510	; 0x1fe
    107e:	440b      	add	r3, r1
    1080:	429c      	cmp	r4, r3
    1082:	d85b      	bhi.n	113c <TEE_AllocateOperation+0x11e>
    1084:	3b01      	subs	r3, #1
    1086:	429c      	cmp	r4, r3
    1088:	d209      	bcs.n	109e <TEE_AllocateOperation+0x80>
    108a:	f5a3 7380 	sub.w	r3, r3, #256	; 0x100
    108e:	429c      	cmp	r4, r3
    1090:	d324      	bcc.n	10dc <TEE_AllocateOperation+0xbe>
    1092:	3301      	adds	r3, #1
    1094:	429c      	cmp	r4, r3
    1096:	d902      	bls.n	109e <TEE_AllocateOperation+0x80>
    1098:	3302      	adds	r3, #2
    109a:	429c      	cmp	r4, r3
    109c:	d11e      	bne.n	10dc <TEE_AllocateOperation+0xbe>
    109e:	f04f 0800 	mov.w	r8, #0
/mnt/disk/raspbian-tee/optee_os/lib/libutee/tee_api_operations.c:44
    10a2:	4646      	mov	r6, r8
    10a4:	e182      	b.n	13ac <TEE_AllocateOperation+0x38e>
/mnt/disk/raspbian-tee/optee_os/lib/libutee/tee_api_operations.c:53
    10a6:	4aa3      	ldr	r2, [pc, #652]	; (1334 <TEE_AllocateOperation+0x316>)
    10a8:	4294      	cmp	r4, r2
    10aa:	d034      	beq.n	1116 <TEE_AllocateOperation+0xf8>
    10ac:	f502 6271 	add.w	r2, r2, #3856	; 0xf10
    10b0:	4294      	cmp	r4, r2
    10b2:	d03c      	beq.n	112e <TEE_AllocateOperation+0x110>
    10b4:	f5a2 5280 	sub.w	r2, r2, #4096	; 0x1000
    10b8:	4294      	cmp	r4, r2
    10ba:	d1cf      	bne.n	105c <TEE_AllocateOperation+0x3e>
/mnt/disk/raspbian-tee/optee_os/lib/libutee/tee_api_operations.c:87
    10bc:	f5b9 7f80 	cmp.w	r9, #256	; 0x100
    10c0:	e00b      	b.n	10da <TEE_AllocateOperation+0xbc>
/mnt/disk/raspbian-tee/optee_os/lib/libutee/tee_api_operations.c:53
    10c2:	4a9d      	ldr	r2, [pc, #628]	; (1338 <TEE_AllocateOperation+0x31a>)
    10c4:	4294      	cmp	r4, r2
    10c6:	d02f      	beq.n	1128 <TEE_AllocateOperation+0x10a>
    10c8:	d80a      	bhi.n	10e0 <TEE_AllocateOperation+0xc2>
    10ca:	4a9c      	ldr	r2, [pc, #624]	; (133c <TEE_AllocateOperation+0x31e>)
    10cc:	4294      	cmp	r4, r2
    10ce:	d031      	beq.n	1134 <TEE_AllocateOperation+0x116>
    10d0:	4a9b      	ldr	r2, [pc, #620]	; (1340 <TEE_AllocateOperation+0x322>)
    10d2:	4294      	cmp	r4, r2
    10d4:	d1c2      	bne.n	105c <TEE_AllocateOperation+0x3e>
/mnt/disk/raspbian-tee/optee_os/lib/libutee/tee_api_operations.c:75
    10d6:	f1b9 0fc0 	cmp.w	r9, #192	; 0xc0
/mnt/disk/raspbian-tee/optee_os/lib/libutee/tee_api_operations.c:99
    10da:	d0bf      	beq.n	105c <TEE_AllocateOperation+0x3e>
/mnt/disk/raspbian-tee/optee_os/lib/libutee/tee_api_operations.c:56
    10dc:	4e99      	ldr	r6, [pc, #612]	; (1344 <TEE_AllocateOperation+0x326>)
    10de:	e1ca      	b.n	1476 <TEE_AllocateOperation+0x458>
/mnt/disk/raspbian-tee/optee_os/lib/libutee/tee_api_operations.c:53
    10e0:	4a99      	ldr	r2, [pc, #612]	; (1348 <TEE_AllocateOperation+0x32a>)
    10e2:	4294      	cmp	r4, r2
    10e4:	d023      	beq.n	112e <TEE_AllocateOperation+0x110>
    10e6:	f502 5280 	add.w	r2, r2, #4096	; 0x1000
    10ea:	4294      	cmp	r4, r2
    10ec:	d022      	beq.n	1134 <TEE_AllocateOperation+0x116>
    10ee:	f5a2 5200 	sub.w	r2, r2, #8192	; 0x2000
    10f2:	e7e1      	b.n	10b8 <TEE_AllocateOperation+0x9a>
/mnt/disk/raspbian-tee/optee_os/lib/libutee/tee_api_operations.c:55
    10f4:	f5a9 7300 	sub.w	r3, r9, #512	; 0x200
    10f8:	f5b3 7f00 	cmp.w	r3, #512	; 0x200
    10fc:	d8ee      	bhi.n	10dc <TEE_AllocateOperation+0xbe>
/mnt/disk/raspbian-tee/optee_os/lib/libutee/tee_api_operations.c:59
    10fe:	f019 0f3f 	tst.w	r9, #63	; 0x3f
    1102:	d1eb      	bne.n	10dc <TEE_AllocateOperation+0xbe>
/mnt/disk/raspbian-tee/optee_os/lib/libutee/tee_api_operations.c:157
    1104:	2f02      	cmp	r7, #2
    1106:	f000 81bd 	beq.w	1484 <TEE_AllocateOperation+0x466>
/mnt/disk/raspbian-tee/optee_os/lib/libutee/tee_api_operations.c:160
    110a:	2f03      	cmp	r7, #3
    110c:	d1e6      	bne.n	10dc <TEE_AllocateOperation+0xbe>
/mnt/disk/raspbian-tee/optee_os/lib/libutee/tee_api_operations.c:44
    110e:	2600      	movs	r6, #0
/mnt/disk/raspbian-tee/optee_os/lib/libutee/tee_api_operations.c:161
    1110:	2220      	movs	r2, #32
/mnt/disk/raspbian-tee/optee_os/lib/libutee/tee_api_operations.c:43
    1112:	46b2      	mov	sl, r6
    1114:	e02d      	b.n	1172 <TEE_AllocateOperation+0x154>
/mnt/disk/raspbian-tee/optee_os/lib/libutee/tee_api_operations.c:64
    1116:	f5b9 6f00 	cmp.w	r9, #2048	; 0x800
/mnt/disk/raspbian-tee/optee_os/lib/libutee/tee_api_operations.c:108
    111a:	d1df      	bne.n	10dc <TEE_AllocateOperation+0xbe>
    111c:	e7f2      	b.n	1104 <TEE_AllocateOperation+0xe6>
/mnt/disk/raspbian-tee/optee_os/lib/libutee/tee_api_operations.c:69
    111e:	f429 6380 	bic.w	r3, r9, #1024	; 0x400
    1122:	f5b3 6f00 	cmp.w	r3, #2048	; 0x800
    1126:	e7f8      	b.n	111a <TEE_AllocateOperation+0xfc>
/mnt/disk/raspbian-tee/optee_os/lib/libutee/tee_api_operations.c:81
    1128:	f1b9 0fe0 	cmp.w	r9, #224	; 0xe0
    112c:	e7d5      	b.n	10da <TEE_AllocateOperation+0xbc>
/mnt/disk/raspbian-tee/optee_os/lib/libutee/tee_api_operations.c:93
    112e:	f5b9 7fc0 	cmp.w	r9, #384	; 0x180
    1132:	e7d2      	b.n	10da <TEE_AllocateOperation+0xbc>
/mnt/disk/raspbian-tee/optee_os/lib/libutee/tee_api_operations.c:99
    1134:	f240 2209 	movw	r2, #521	; 0x209
    1138:	4591      	cmp	r9, r2
    113a:	e7ce      	b.n	10da <TEE_AllocateOperation+0xbc>
/mnt/disk/raspbian-tee/optee_os/lib/libutee/tee_api_operations.c:108
    113c:	4b83      	ldr	r3, [pc, #524]	; (134c <TEE_AllocateOperation+0x32e>)
    113e:	429c      	cmp	r4, r3
    1140:	d0ad      	beq.n	109e <TEE_AllocateOperation+0x80>
    1142:	33fd      	adds	r3, #253	; 0xfd
    1144:	429c      	cmp	r4, r3
    1146:	d1c9      	bne.n	10dc <TEE_AllocateOperation+0xbe>
    1148:	f04f 0800 	mov.w	r8, #0
/mnt/disk/raspbian-tee/optee_os/lib/libutee/tee_api_operations.c:41
    114c:	2301      	movs	r3, #1
/mnt/disk/raspbian-tee/optee_os/lib/libutee/tee_api_operations.c:44
    114e:	4646      	mov	r6, r8
    1150:	e132      	b.n	13b8 <TEE_AllocateOperation+0x39a>
/mnt/disk/raspbian-tee/optee_os/lib/libutee/tee_api_operations.c:108
    1152:	4b7f      	ldr	r3, [pc, #508]	; (1350 <TEE_AllocateOperation+0x332>)
    1154:	429c      	cmp	r4, r3
    1156:	d80f      	bhi.n	1178 <TEE_AllocateOperation+0x15a>
    1158:	3b01      	subs	r3, #1
    115a:	429c      	cmp	r4, r3
    115c:	d204      	bcs.n	1168 <TEE_AllocateOperation+0x14a>
    115e:	f104 4350 	add.w	r3, r4, #3489660928	; 0xd0000000
    1162:	3b01      	subs	r3, #1
    1164:	2b05      	cmp	r3, #5
    1166:	d8b9      	bhi.n	10dc <TEE_AllocateOperation+0xbe>
/mnt/disk/raspbian-tee/optee_os/lib/libutee/tee_api_operations.c:244
    1168:	2f04      	cmp	r7, #4
    116a:	d1b7      	bne.n	10dc <TEE_AllocateOperation+0xbe>
/mnt/disk/raspbian-tee/optee_os/lib/libutee/tee_api_operations.c:44
    116c:	2600      	movs	r6, #0
/mnt/disk/raspbian-tee/optee_os/lib/libutee/tee_api_operations.c:246
    116e:	2208      	movs	r2, #8
/mnt/disk/raspbian-tee/optee_os/lib/libutee/tee_api_operations.c:43
    1170:	46b2      	mov	sl, r6
/mnt/disk/raspbian-tee/optee_os/lib/libutee/tee_api_operations.c:41
    1172:	2301      	movs	r3, #1
    1174:	46b0      	mov	r8, r6
    1176:	e13e      	b.n	13f6 <TEE_AllocateOperation+0x3d8>
/mnt/disk/raspbian-tee/optee_os/lib/libutee/tee_api_operations.c:108
    1178:	4b76      	ldr	r3, [pc, #472]	; (1354 <TEE_AllocateOperation+0x336>)
    117a:	429c      	cmp	r4, r3
    117c:	d0f4      	beq.n	1168 <TEE_AllocateOperation+0x14a>
    117e:	d3ad      	bcc.n	10dc <TEE_AllocateOperation+0xbe>
    1180:	f104 4350 	add.w	r3, r4, #3489660928	; 0xd0000000
    1184:	f5a3 63a2 	sub.w	r3, r3, #1296	; 0x510
    1188:	2b01      	cmp	r3, #1
    118a:	e7ec      	b.n	1166 <TEE_AllocateOperation+0x148>
    118c:	4b72      	ldr	r3, [pc, #456]	; (1358 <TEE_AllocateOperation+0x33a>)
    118e:	429c      	cmp	r4, r3
    1190:	d01b      	beq.n	11ca <TEE_AllocateOperation+0x1ac>
    1192:	d823      	bhi.n	11dc <TEE_AllocateOperation+0x1be>
    1194:	4b71      	ldr	r3, [pc, #452]	; (135c <TEE_AllocateOperation+0x33e>)
    1196:	429c      	cmp	r4, r3
    1198:	d80f      	bhi.n	11ba <TEE_AllocateOperation+0x19c>
    119a:	f1b4 4fa0 	cmp.w	r4, #1342177280	; 0x50000000
    119e:	f200 8121 	bhi.w	13e4 <TEE_AllocateOperation+0x3c6>
    11a2:	4b6f      	ldr	r3, [pc, #444]	; (1360 <TEE_AllocateOperation+0x342>)
    11a4:	429c      	cmp	r4, r3
    11a6:	f43f af7a 	beq.w	109e <TEE_AllocateOperation+0x80>
    11aa:	f503 7380 	add.w	r3, r3, #256	; 0x100
    11ae:	429c      	cmp	r4, r3
    11b0:	d0ca      	beq.n	1148 <TEE_AllocateOperation+0x12a>
    11b2:	4b6c      	ldr	r3, [pc, #432]	; (1364 <TEE_AllocateOperation+0x346>)
    11b4:	429c      	cmp	r4, r3
    11b6:	d191      	bne.n	10dc <TEE_AllocateOperation+0xbe>
    11b8:	e7d6      	b.n	1168 <TEE_AllocateOperation+0x14a>
    11ba:	4b6b      	ldr	r3, [pc, #428]	; (1368 <TEE_AllocateOperation+0x34a>)
    11bc:	429c      	cmp	r4, r3
    11be:	f000 8107 	beq.w	13d0 <TEE_AllocateOperation+0x3b2>
    11c2:	f503 7380 	add.w	r3, r3, #256	; 0x100
    11c6:	429c      	cmp	r4, r3
    11c8:	d188      	bne.n	10dc <TEE_AllocateOperation+0xbe>
/mnt/disk/raspbian-tee/optee_os/lib/libutee/tee_api_operations.c:173
    11ca:	2f00      	cmp	r7, #0
    11cc:	f000 815f 	beq.w	148e <TEE_AllocateOperation+0x470>
/mnt/disk/raspbian-tee/optee_os/lib/libutee/tee_api_operations.c:175
    11d0:	2f01      	cmp	r7, #1
    11d2:	d183      	bne.n	10dc <TEE_AllocateOperation+0xbe>
/mnt/disk/raspbian-tee/optee_os/lib/libutee/tee_api_operations.c:44
    11d4:	2600      	movs	r6, #0
/mnt/disk/raspbian-tee/optee_os/lib/libutee/tee_api_operations.c:176
    11d6:	46ba      	mov	sl, r7
/mnt/disk/raspbian-tee/optee_os/lib/libutee/tee_api_operations.c:177
    11d8:	2204      	movs	r2, #4
    11da:	e7ca      	b.n	1172 <TEE_AllocateOperation+0x154>
/mnt/disk/raspbian-tee/optee_os/lib/libutee/tee_api_operations.c:108
    11dc:	4b63      	ldr	r3, [pc, #396]	; (136c <TEE_AllocateOperation+0x34e>)
    11de:	429c      	cmp	r4, r3
    11e0:	d0f3      	beq.n	11ca <TEE_AllocateOperation+0x1ac>
    11e2:	d80a      	bhi.n	11fa <TEE_AllocateOperation+0x1dc>
    11e4:	f5a3 1300 	sub.w	r3, r3, #2097152	; 0x200000
    11e8:	429c      	cmp	r4, r3
    11ea:	d0ee      	beq.n	11ca <TEE_AllocateOperation+0x1ac>
    11ec:	f503 1380 	add.w	r3, r3, #1048576	; 0x100000
    11f0:	429c      	cmp	r4, r3
    11f2:	d0ea      	beq.n	11ca <TEE_AllocateOperation+0x1ac>
    11f4:	f5a3 1300 	sub.w	r3, r3, #2097152	; 0x200000
    11f8:	e7e5      	b.n	11c6 <TEE_AllocateOperation+0x1a8>
    11fa:	4b5d      	ldr	r3, [pc, #372]	; (1370 <TEE_AllocateOperation+0x352>)
    11fc:	429c      	cmp	r4, r3
    11fe:	d081      	beq.n	1104 <TEE_AllocateOperation+0xe6>
    1200:	d802      	bhi.n	1208 <TEE_AllocateOperation+0x1ea>
    1202:	f2a3 73ef 	subw	r3, r3, #2031	; 0x7ef
    1206:	e004      	b.n	1212 <TEE_AllocateOperation+0x1f4>
    1208:	4b5a      	ldr	r3, [pc, #360]	; (1374 <TEE_AllocateOperation+0x356>)
    120a:	429c      	cmp	r4, r3
    120c:	f43f af7a 	beq.w	1104 <TEE_AllocateOperation+0xe6>
    1210:	33f0      	adds	r3, #240	; 0xf0
    1212:	429c      	cmp	r4, r3
    1214:	e781      	b.n	111a <TEE_AllocateOperation+0xfc>
    1216:	4a4a      	ldr	r2, [pc, #296]	; (1340 <TEE_AllocateOperation+0x322>)
    1218:	4294      	cmp	r4, r2
    121a:	d064      	beq.n	12e6 <TEE_AllocateOperation+0x2c8>
    121c:	d843      	bhi.n	12a6 <TEE_AllocateOperation+0x288>
    121e:	4a56      	ldr	r2, [pc, #344]	; (1378 <TEE_AllocateOperation+0x35a>)
    1220:	4294      	cmp	r4, r2
    1222:	f43f af6f 	beq.w	1104 <TEE_AllocateOperation+0xe6>
    1226:	d818      	bhi.n	125a <TEE_AllocateOperation+0x23c>
    1228:	f5a2 52bf 	sub.w	r2, r2, #6112	; 0x17e0
    122c:	3a0f      	subs	r2, #15
    122e:	4294      	cmp	r4, r2
    1230:	f43f af68 	beq.w	1104 <TEE_AllocateOperation+0xe6>
    1234:	d808      	bhi.n	1248 <TEE_AllocateOperation+0x22a>
    1236:	4b3f      	ldr	r3, [pc, #252]	; (1334 <TEE_AllocateOperation+0x316>)
    1238:	429c      	cmp	r4, r3
    123a:	f43f af63 	beq.w	1104 <TEE_AllocateOperation+0xe6>
    123e:	f203 63ff 	addw	r3, r3, #1791	; 0x6ff
    1242:	429c      	cmp	r4, r3
    1244:	d1dd      	bne.n	1202 <TEE_AllocateOperation+0x1e4>
    1246:	e75d      	b.n	1104 <TEE_AllocateOperation+0xe6>
    1248:	4a4c      	ldr	r2, [pc, #304]	; (137c <TEE_AllocateOperation+0x35e>)
    124a:	4294      	cmp	r4, r2
    124c:	f43f af5a 	beq.w	1104 <TEE_AllocateOperation+0xe6>
    1250:	f602 0211 	addw	r2, r2, #2065	; 0x811
    1254:	4294      	cmp	r4, r2
    1256:	d1dc      	bne.n	1212 <TEE_AllocateOperation+0x1f4>
    1258:	e754      	b.n	1104 <TEE_AllocateOperation+0xe6>
    125a:	4b49      	ldr	r3, [pc, #292]	; (1380 <TEE_AllocateOperation+0x362>)
    125c:	429c      	cmp	r4, r3
    125e:	f43f af51 	beq.w	1104 <TEE_AllocateOperation+0xe6>
    1262:	d812      	bhi.n	128a <TEE_AllocateOperation+0x26c>
    1264:	f5a3 1300 	sub.w	r3, r3, #2097152	; 0x200000
    1268:	f5a3 5300 	sub.w	r3, r3, #8192	; 0x2000
    126c:	429c      	cmp	r4, r3
    126e:	f43f af49 	beq.w	1104 <TEE_AllocateOperation+0xe6>
    1272:	f503 1380 	add.w	r3, r3, #1048576	; 0x100000
    1276:	f503 5380 	add.w	r3, r3, #4096	; 0x1000
    127a:	429c      	cmp	r4, r3
    127c:	f43f af42 	beq.w	1104 <TEE_AllocateOperation+0xe6>
    1280:	f5a3 1343 	sub.w	r3, r3, #3194880	; 0x30c000
    1284:	f5a3 5388 	sub.w	r3, r3, #4352	; 0x1100
    1288:	e7c3      	b.n	1212 <TEE_AllocateOperation+0x1f4>
    128a:	4b3e      	ldr	r3, [pc, #248]	; (1384 <TEE_AllocateOperation+0x366>)
    128c:	429c      	cmp	r4, r3
    128e:	f43f af39 	beq.w	1104 <TEE_AllocateOperation+0xe6>
    1292:	4b3d      	ldr	r3, [pc, #244]	; (1388 <TEE_AllocateOperation+0x36a>)
    1294:	429c      	cmp	r4, r3
    1296:	d026      	beq.n	12e6 <TEE_AllocateOperation+0x2c8>
    1298:	f1a3 637a 	sub.w	r3, r3, #262144000	; 0xfa00000
    129c:	f5a3 236a 	sub.w	r3, r3, #958464	; 0xea000
    12a0:	f2a3 7302 	subw	r3, r3, #1794	; 0x702
    12a4:	e7b5      	b.n	1212 <TEE_AllocateOperation+0x1f4>
    12a6:	4b28      	ldr	r3, [pc, #160]	; (1348 <TEE_AllocateOperation+0x32a>)
    12a8:	429c      	cmp	r4, r3
    12aa:	d01c      	beq.n	12e6 <TEE_AllocateOperation+0x2c8>
    12ac:	d824      	bhi.n	12f8 <TEE_AllocateOperation+0x2da>
    12ae:	f5a3 53fc 	sub.w	r3, r3, #8064	; 0x1f80
    12b2:	429c      	cmp	r4, r3
    12b4:	d80b      	bhi.n	12ce <TEE_AllocateOperation+0x2b0>
    12b6:	3b02      	subs	r3, #2
    12b8:	429c      	cmp	r4, r3
    12ba:	d214      	bcs.n	12e6 <TEE_AllocateOperation+0x2c8>
    12bc:	f5a3 5380 	sub.w	r3, r3, #4096	; 0x1000
    12c0:	429c      	cmp	r4, r3
    12c2:	d010      	beq.n	12e6 <TEE_AllocateOperation+0x2c8>
    12c4:	f603 7382 	addw	r3, r3, #3970	; 0xf82
    12c8:	429c      	cmp	r4, r3
    12ca:	d00c      	beq.n	12e6 <TEE_AllocateOperation+0x2c8>
    12cc:	e706      	b.n	10dc <TEE_AllocateOperation+0xbe>
    12ce:	4b2f      	ldr	r3, [pc, #188]	; (138c <TEE_AllocateOperation+0x36e>)
    12d0:	429c      	cmp	r4, r3
    12d2:	d008      	beq.n	12e6 <TEE_AllocateOperation+0x2c8>
    12d4:	f4ff af02 	bcc.w	10dc <TEE_AllocateOperation+0xbe>
    12d8:	f104 4300 	add.w	r3, r4, #2147483648	; 0x80000000
    12dc:	f5a3 5343 	sub.w	r3, r3, #12480	; 0x30c0
    12e0:	2b01      	cmp	r3, #1
    12e2:	f63f aefb 	bhi.w	10dc <TEE_AllocateOperation+0xbe>
/mnt/disk/raspbian-tee/optee_os/lib/libutee/tee_api_operations.c:212
    12e6:	2f06      	cmp	r7, #6
    12e8:	f47f aef8 	bne.w	10dc <TEE_AllocateOperation+0xbe>
/mnt/disk/raspbian-tee/optee_os/lib/libutee/tee_api_operations.c:44
    12ec:	2600      	movs	r6, #0
/mnt/disk/raspbian-tee/optee_os/lib/libutee/tee_api_operations.c:214
    12ee:	f04f 0a01 	mov.w	sl, #1
/mnt/disk/raspbian-tee/optee_os/lib/libutee/tee_api_operations.c:215
    12f2:	2240      	movs	r2, #64	; 0x40
/mnt/disk/raspbian-tee/optee_os/lib/libutee/tee_api_operations.c:41
    12f4:	4653      	mov	r3, sl
    12f6:	e73d      	b.n	1174 <TEE_AllocateOperation+0x156>
/mnt/disk/raspbian-tee/optee_os/lib/libutee/tee_api_operations.c:108
    12f8:	4b25      	ldr	r3, [pc, #148]	; (1390 <TEE_AllocateOperation+0x372>)
    12fa:	429c      	cmp	r4, r3
    12fc:	d84a      	bhi.n	1394 <TEE_AllocateOperation+0x376>
    12fe:	3b01      	subs	r3, #1
    1300:	429c      	cmp	r4, r3
    1302:	d2f0      	bcs.n	12e6 <TEE_AllocateOperation+0x2c8>
    1304:	f5a3 5380 	sub.w	r3, r3, #4096	; 0x1000
    1308:	429c      	cmp	r4, r3
    130a:	f4ff aee7 	bcc.w	10dc <TEE_AllocateOperation+0xbe>
    130e:	3301      	adds	r3, #1
    1310:	429c      	cmp	r4, r3
    1312:	d9e8      	bls.n	12e6 <TEE_AllocateOperation+0x2c8>
    1314:	f603 7381 	addw	r3, r3, #3969	; 0xf81
    1318:	e7d6      	b.n	12c8 <TEE_AllocateOperation+0x2aa>
    131a:	bf00      	nop
    131c:	10000410 	.word	0x10000410
    1320:	70004131 	.word	0x70004131
    1324:	70002131 	.word	0x70002131
    1328:	70002830 	.word	0x70002830
    132c:	30000513 	.word	0x30000513
    1330:	10000310 	.word	0x10000310
    1334:	70003131 	.word	0x70003131
    1338:	80002042 	.word	0x80002042
    133c:	70005041 	.word	0x70005041
    1340:	80001042 	.word	0x80001042
    1344:	ffff000a 	.word	0xffff000a
    1348:	80004042 	.word	0x80004042
    134c:	10000113 	.word	0x10000113
    1350:	30000111 	.word	0x30000111
    1354:	30000113 	.word	0x30000113
    1358:	60210230 	.word	0x60210230
    135c:	50000006 	.word	0x50000006
    1360:	40000710 	.word	0x40000710
    1364:	30000610 	.word	0x30000610
    1368:	60000030 	.word	0x60000030
    136c:	60610230 	.word	0x60610230
    1370:	70001830 	.word	0x70001830
    1374:	70002041 	.word	0x70002041
    1378:	70005830 	.word	0x70005830
    137c:	70004830 	.word	0x70004830
    1380:	70414930 	.word	0x70414930
    1384:	70616930 	.word	0x70616930
    1388:	80000032 	.word	0x80000032
    138c:	80003042 	.word	0x80003042
    1390:	800050c1 	.word	0x800050c1
    1394:	4b6f      	ldr	r3, [pc, #444]	; (1554 <TEE_AllocateOperation+0x536>)
    1396:	429c      	cmp	r4, r3
    1398:	f4ff aea0 	bcc.w	10dc <TEE_AllocateOperation+0xbe>
    139c:	3301      	adds	r3, #1
    139e:	429c      	cmp	r4, r3
    13a0:	d9a1      	bls.n	12e6 <TEE_AllocateOperation+0x2c8>
    13a2:	4b6d      	ldr	r3, [pc, #436]	; (1558 <TEE_AllocateOperation+0x53a>)
    13a4:	e735      	b.n	1212 <TEE_AllocateOperation+0x1f4>
/mnt/disk/raspbian-tee/optee_os/lib/libutee/tee_api_operations.c:50
    13a6:	f44f 2800 	mov.w	r8, #524288	; 0x80000
/mnt/disk/raspbian-tee/optee_os/lib/libutee/tee_api_operations.c:111
    13aa:	2601      	movs	r6, #1
/mnt/disk/raspbian-tee/optee_os/lib/libutee/tee_api_operations.c:120
    13ac:	b2e3      	uxtb	r3, r4
/mnt/disk/raspbian-tee/optee_os/lib/libutee/tee_api_operations.c:123
    13ae:	2b10      	cmp	r3, #16
    13b0:	f04f 0310 	mov.w	r3, #16
    13b4:	bf18      	it	ne
    13b6:	2308      	movne	r3, #8
/mnt/disk/raspbian-tee/optee_os/lib/libutee/tee_api_operations.c:127
    13b8:	2f00      	cmp	r7, #0
    13ba:	d060      	beq.n	147e <TEE_AllocateOperation+0x460>
/mnt/disk/raspbian-tee/optee_os/lib/libutee/tee_api_operations.c:129
    13bc:	2f01      	cmp	r7, #1
    13be:	f47f ae8d 	bne.w	10dc <TEE_AllocateOperation+0xbe>
/mnt/disk/raspbian-tee/optee_os/lib/libutee/tee_api_operations.c:43
    13c2:	f04f 0a00 	mov.w	sl, #0
/mnt/disk/raspbian-tee/optee_os/lib/libutee/tee_api_operations.c:130
    13c6:	2204      	movs	r2, #4
    13c8:	e015      	b.n	13f6 <TEE_AllocateOperation+0x3d8>
/mnt/disk/raspbian-tee/optee_os/lib/libutee/tee_api_operations.c:108
    13ca:	f04f 0800 	mov.w	r8, #0
    13ce:	e7ec      	b.n	13aa <TEE_AllocateOperation+0x38c>
/mnt/disk/raspbian-tee/optee_os/lib/libutee/tee_api_operations.c:184
    13d0:	2f00      	cmp	r7, #0
    13d2:	d062      	beq.n	149a <TEE_AllocateOperation+0x47c>
/mnt/disk/raspbian-tee/optee_os/lib/libutee/tee_api_operations.c:186
    13d4:	2f01      	cmp	r7, #1
    13d6:	f47f ae81 	bne.w	10dc <TEE_AllocateOperation+0xbe>
/mnt/disk/raspbian-tee/optee_os/lib/libutee/tee_api_operations.c:44
    13da:	2600      	movs	r6, #0
/mnt/disk/raspbian-tee/optee_os/lib/libutee/tee_api_operations.c:187
    13dc:	f04f 0a01 	mov.w	sl, #1
/mnt/disk/raspbian-tee/optee_os/lib/libutee/tee_api_operations.c:188
    13e0:	2214      	movs	r2, #20
    13e2:	e787      	b.n	12f4 <TEE_AllocateOperation+0x2d6>
/mnt/disk/raspbian-tee/optee_os/lib/libutee/tee_api_operations.c:224
    13e4:	2f05      	cmp	r7, #5
    13e6:	f47f ae79 	bne.w	10dc <TEE_AllocateOperation+0xbe>
/mnt/disk/raspbian-tee/optee_os/lib/libutee/tee_api_operations.c:44
    13ea:	2600      	movs	r6, #0
/mnt/disk/raspbian-tee/optee_os/lib/libutee/tee_api_operations.c:41
    13ec:	2301      	movs	r3, #1
/mnt/disk/raspbian-tee/optee_os/lib/libutee/tee_api_operations.c:43
    13ee:	46b2      	mov	sl, r6
/mnt/disk/raspbian-tee/optee_os/lib/libutee/tee_api_operations.c:228
    13f0:	4632      	mov	r2, r6
/mnt/disk/raspbian-tee/optee_os/lib/libutee/tee_api_operations.c:227
    13f2:	f44f 2880 	mov.w	r8, #262144	; 0x40000
/mnt/disk/raspbian-tee/optee_os/lib/libutee/tee_api_operations.c:253
    13f6:	2100      	movs	r1, #0
    13f8:	2044      	movs	r0, #68	; 0x44
    13fa:	9205      	str	r2, [sp, #20]
    13fc:	9304      	str	r3, [sp, #16]
    13fe:	f7ff fd18 	bl	e32 <TEE_Malloc>
/mnt/disk/raspbian-tee/optee_os/lib/libutee/tee_api_operations.c:254
    1402:	4605      	mov	r5, r0
    1404:	2800      	cmp	r0, #0
    1406:	f000 80a0 	beq.w	154a <TEE_AllocateOperation+0x52c>
/mnt/disk/raspbian-tee/optee_os/lib/libutee/tee_api_operations.c:260
    140a:	4953      	ldr	r1, [pc, #332]	; (1558 <TEE_AllocateOperation+0x53a>)
/mnt/disk/raspbian-tee/optee_os/lib/libutee/tee_api_operations.c:258
    140c:	ea4f 7b14 	mov.w	fp, r4, lsr #28
/mnt/disk/raspbian-tee/optee_os/lib/libutee/tee_api_operations.c:257
    1410:	6004      	str	r4, [r0, #0]
/mnt/disk/raspbian-tee/optee_os/lib/libutee/tee_api_operations.c:260
    1412:	428c      	cmp	r4, r1
    1414:	9b04      	ldr	r3, [sp, #16]
    1416:	9a05      	ldr	r2, [sp, #20]
    1418:	d044      	beq.n	14a4 <TEE_AllocateOperation+0x486>
/mnt/disk/raspbian-tee/optee_os/lib/libutee/tee_api_operations.c:258
    141a:	f8c0 b004 	str.w	fp, [r0, #4]
/mnt/disk/raspbian-tee/optee_os/lib/libutee/tee_api_operations.c:263
    141e:	60af      	str	r7, [r5, #8]
/mnt/disk/raspbian-tee/optee_os/lib/libutee/tee_api_operations.c:268
    1420:	2b01      	cmp	r3, #1
/mnt/disk/raspbian-tee/optee_os/lib/libutee/tee_api_operations.c:264
    1422:	f8c5 9010 	str.w	r9, [r5, #16]
/mnt/disk/raspbian-tee/optee_os/lib/libutee/tee_api_operations.c:265
    1426:	61aa      	str	r2, [r5, #24]
/mnt/disk/raspbian-tee/optee_os/lib/libutee/tee_api_operations.c:266
    1428:	f8c5 801c 	str.w	r8, [r5, #28]
/mnt/disk/raspbian-tee/optee_os/lib/libutee/tee_api_operations.c:268
    142c:	d13d      	bne.n	14aa <TEE_AllocateOperation+0x48c>
/mnt/disk/raspbian-tee/optee_os/lib/libutee/tee_api_operations.c:281
    142e:	636b      	str	r3, [r5, #52]	; 0x34
/mnt/disk/raspbian-tee/optee_os/lib/libutee/tee_api_operations.c:284
    1430:	f1bb 0f05 	cmp.w	fp, #5
/mnt/disk/raspbian-tee/optee_os/lib/libutee/tee_api_operations.c:282
    1434:	f885 6030 	strb.w	r6, [r5, #48]	; 0x30
/mnt/disk/raspbian-tee/optee_os/lib/libutee/tee_api_operations.c:284
    1438:	d146      	bne.n	14c8 <TEE_AllocateOperation+0x4aa>
/mnt/disk/raspbian-tee/optee_os/lib/libutee/tee_api_operations.c:308
    143a:	f105 033c 	add.w	r3, r5, #60	; 0x3c
    143e:	9300      	str	r3, [sp, #0]
    1440:	4639      	mov	r1, r7
    1442:	4620      	mov	r0, r4
    1444:	6a2a      	ldr	r2, [r5, #32]
    1446:	6a6b      	ldr	r3, [r5, #36]	; 0x24
    1448:	f001 e9ba 	blx	27c0 <utee_cryp_state_alloc>
/mnt/disk/raspbian-tee/optee_os/lib/libutee/tee_api_operations.c:310
    144c:	4602      	mov	r2, r0
    144e:	2800      	cmp	r0, #0
    1450:	d17d      	bne.n	154e <TEE_AllocateOperation+0x530>
/mnt/disk/raspbian-tee/optee_os/lib/libutee/tee_api_operations.c:318
    1452:	f1bb 0f05 	cmp.w	fp, #5
    1456:	d10a      	bne.n	146e <TEE_AllocateOperation+0x450>
/mnt/disk/raspbian-tee/optee_os/lib/libutee/tee_api_operations.c:319
    1458:	4601      	mov	r1, r0
    145a:	6be8      	ldr	r0, [r5, #60]	; 0x3c
    145c:	f001 e9d0 	blx	2800 <utee_hash_init>
/mnt/disk/raspbian-tee/optee_os/lib/libutee/tee_api_operations.c:320
    1460:	4606      	mov	r6, r0
    1462:	2800      	cmp	r0, #0
    1464:	d155      	bne.n	1512 <TEE_AllocateOperation+0x4f4>
/mnt/disk/raspbian-tee/optee_os/lib/libutee/tee_api_operations.c:323
    1466:	69eb      	ldr	r3, [r5, #28]
    1468:	f443 3300 	orr.w	r3, r3, #131072	; 0x20000
    146c:	61eb      	str	r3, [r5, #28]
/mnt/disk/raspbian-tee/optee_os/lib/libutee/tee_api_operations.c:328
    146e:	9b03      	ldr	r3, [sp, #12]
/mnt/disk/raspbian-tee/optee_os/lib/libutee/tee_api_operations.c:326
    1470:	2600      	movs	r6, #0
    1472:	62ae      	str	r6, [r5, #40]	; 0x28
/mnt/disk/raspbian-tee/optee_os/lib/libutee/tee_api_operations.c:328
    1474:	601d      	str	r5, [r3, #0]
/mnt/disk/raspbian-tee/optee_os/lib/libutee/tee_api_operations.c:348
    1476:	4630      	mov	r0, r6
    1478:	b007      	add	sp, #28
    147a:	e8bd 8ff0 	ldmia.w	sp!, {r4, r5, r6, r7, r8, r9, sl, fp, pc}
/mnt/disk/raspbian-tee/optee_os/lib/libutee/tee_api_operations.c:43
    147e:	46ba      	mov	sl, r7
/mnt/disk/raspbian-tee/optee_os/lib/libutee/tee_api_operations.c:128
    1480:	2202      	movs	r2, #2
    1482:	e7b8      	b.n	13f6 <TEE_AllocateOperation+0x3d8>
/mnt/disk/raspbian-tee/optee_os/lib/libutee/tee_api_operations.c:44
    1484:	2600      	movs	r6, #0
/mnt/disk/raspbian-tee/optee_os/lib/libutee/tee_api_operations.c:158
    1486:	f04f 0a01 	mov.w	sl, #1
/mnt/disk/raspbian-tee/optee_os/lib/libutee/tee_api_operations.c:159
    148a:	2210      	movs	r2, #16
    148c:	e732      	b.n	12f4 <TEE_AllocateOperation+0x2d6>
    148e:	46b8      	mov	r8, r7
/mnt/disk/raspbian-tee/optee_os/lib/libutee/tee_api_operations.c:44
    1490:	463e      	mov	r6, r7
/mnt/disk/raspbian-tee/optee_os/lib/libutee/tee_api_operations.c:43
    1492:	46ba      	mov	sl, r7
/mnt/disk/raspbian-tee/optee_os/lib/libutee/tee_api_operations.c:174
    1494:	2202      	movs	r2, #2
/mnt/disk/raspbian-tee/optee_os/lib/libutee/tee_api_operations.c:41
    1496:	2301      	movs	r3, #1
    1498:	e7ad      	b.n	13f6 <TEE_AllocateOperation+0x3d8>
    149a:	46b8      	mov	r8, r7
/mnt/disk/raspbian-tee/optee_os/lib/libutee/tee_api_operations.c:44
    149c:	463e      	mov	r6, r7
/mnt/disk/raspbian-tee/optee_os/lib/libutee/tee_api_operations.c:43
    149e:	46ba      	mov	sl, r7
/mnt/disk/raspbian-tee/optee_os/lib/libutee/tee_api_operations.c:185
    14a0:	2222      	movs	r2, #34	; 0x22
    14a2:	e7f8      	b.n	1496 <TEE_AllocateOperation+0x478>
/mnt/disk/raspbian-tee/optee_os/lib/libutee/tee_api_operations.c:261
    14a4:	2107      	movs	r1, #7
    14a6:	6041      	str	r1, [r0, #4]
    14a8:	e7b9      	b.n	141e <TEE_AllocateOperation+0x400>
/mnt/disk/raspbian-tee/optee_os/lib/libutee/tee_api_operations.c:271
    14aa:	b15e      	cbz	r6, 14c4 <TEE_AllocateOperation+0x4a6>
/mnt/disk/raspbian-tee/optee_os/lib/libutee/tee_api_operations.c:272
    14ac:	0058      	lsls	r0, r3, #1
/mnt/disk/raspbian-tee/optee_os/lib/libutee/tee_api_operations.c:274
    14ae:	f04f 4100 	mov.w	r1, #2147483648	; 0x80000000
    14b2:	9304      	str	r3, [sp, #16]
    14b4:	f7ff fcbd 	bl	e32 <TEE_Malloc>
/mnt/disk/raspbian-tee/optee_os/lib/libutee/tee_api_operations.c:276
    14b8:	9b04      	ldr	r3, [sp, #16]
/mnt/disk/raspbian-tee/optee_os/lib/libutee/tee_api_operations.c:274
    14ba:	62e8      	str	r0, [r5, #44]	; 0x2c
/mnt/disk/raspbian-tee/optee_os/lib/libutee/tee_api_operations.c:276
    14bc:	2800      	cmp	r0, #0
    14be:	d1b6      	bne.n	142e <TEE_AllocateOperation+0x410>
/mnt/disk/raspbian-tee/optee_os/lib/libutee/tee_api_operations.c:277
    14c0:	4e26      	ldr	r6, [pc, #152]	; (155c <TEE_AllocateOperation+0x53e>)
    14c2:	e02f      	b.n	1524 <TEE_AllocateOperation+0x506>
    14c4:	4618      	mov	r0, r3
    14c6:	e7f2      	b.n	14ae <TEE_AllocateOperation+0x490>
/mnt/disk/raspbian-tee/optee_os/lib/libutee/tee_api_operations.c:286
    14c8:	f1ba 0f00 	cmp.w	sl, #0
    14cc:	f04f 4220 	mov.w	r2, #2684354560	; 0xa0000000
    14d0:	f04f 4321 	mov.w	r3, #2701131776	; 0xa1000000
    14d4:	fa5f f884 	uxtb.w	r8, r4
    14d8:	bf08      	it	eq
    14da:	4613      	moveq	r3, r2
    14dc:	ea43 0808 	orr.w	r8, r3, r8
/mnt/disk/raspbian-tee/optee_os/lib/libutee/tee_api_operations.c:293
    14e0:	69eb      	ldr	r3, [r5, #28]
    14e2:	031a      	lsls	r2, r3, #12
    14e4:	d501      	bpl.n	14ea <TEE_AllocateOperation+0x4cc>
/mnt/disk/raspbian-tee/optee_os/lib/libutee/tee_api_operations.c:294
    14e6:	ea4f 0959 	mov.w	r9, r9, lsr #1
/mnt/disk/raspbian-tee/optee_os/lib/libutee/tee_api_operations.c:296
    14ea:	f105 0220 	add.w	r2, r5, #32
    14ee:	4649      	mov	r1, r9
    14f0:	4640      	mov	r0, r8
    14f2:	f001 fc09 	bl	2d08 <TEE_AllocateTransientObject>
/mnt/disk/raspbian-tee/optee_os/lib/libutee/tee_api_operations.c:297
    14f6:	4606      	mov	r6, r0
    14f8:	b958      	cbnz	r0, 1512 <TEE_AllocateOperation+0x4f4>
/mnt/disk/raspbian-tee/optee_os/lib/libutee/tee_api_operations.c:300
    14fa:	69eb      	ldr	r3, [r5, #28]
    14fc:	031b      	lsls	r3, r3, #12
    14fe:	d59c      	bpl.n	143a <TEE_AllocateOperation+0x41c>
/mnt/disk/raspbian-tee/optee_os/lib/libutee/tee_api_operations.c:301
    1500:	f105 0224 	add.w	r2, r5, #36	; 0x24
    1504:	4649      	mov	r1, r9
    1506:	4640      	mov	r0, r8
    1508:	f001 fbfe 	bl	2d08 <TEE_AllocateTransientObject>
/mnt/disk/raspbian-tee/optee_os/lib/libutee/tee_api_operations.c:303
    150c:	4606      	mov	r6, r0
    150e:	2800      	cmp	r0, #0
    1510:	d093      	beq.n	143a <TEE_AllocateOperation+0x41c>
/mnt/disk/raspbian-tee/optee_os/lib/libutee/tee_api_operations.c:332
    1512:	4b12      	ldr	r3, [pc, #72]	; (155c <TEE_AllocateOperation+0x53e>)
    1514:	429e      	cmp	r6, r3
    1516:	d005      	beq.n	1524 <TEE_AllocateOperation+0x506>
/mnt/disk/raspbian-tee/optee_os/lib/libutee/tee_api_operations.c:332 (discriminator 1)
    1518:	4b11      	ldr	r3, [pc, #68]	; (1560 <TEE_AllocateOperation+0x542>)
    151a:	429e      	cmp	r6, r3
    151c:	d002      	beq.n	1524 <TEE_AllocateOperation+0x506>
/mnt/disk/raspbian-tee/optee_os/lib/libutee/tee_api_operations.c:334
    151e:	4630      	mov	r0, r6
    1520:	f006 fa3d 	bl	799e <TEE_Panic>
/mnt/disk/raspbian-tee/optee_os/lib/libutee/tee_api_operations.c:336
    1524:	6beb      	ldr	r3, [r5, #60]	; 0x3c
    1526:	b11b      	cbz	r3, 1530 <TEE_AllocateOperation+0x512>
/mnt/disk/raspbian-tee/optee_os/lib/libutee/tee_api_operations.c:337
    1528:	4628      	mov	r0, r5
    152a:	f7ff fd65 	bl	ff8 <TEE_FreeOperation>
    152e:	e7a2      	b.n	1476 <TEE_AllocateOperation+0x458>
/mnt/disk/raspbian-tee/optee_os/lib/libutee/tee_api_operations.c:339
    1530:	6ae8      	ldr	r0, [r5, #44]	; 0x2c
    1532:	f7ff fca5 	bl	e80 <TEE_Free>
/mnt/disk/raspbian-tee/optee_os/lib/libutee/tee_api_operations.c:340
    1536:	6a28      	ldr	r0, [r5, #32]
    1538:	f001 fbfe 	bl	2d38 <TEE_FreeTransientObject>
/mnt/disk/raspbian-tee/optee_os/lib/libutee/tee_api_operations.c:341
    153c:	6a68      	ldr	r0, [r5, #36]	; 0x24
    153e:	f001 fbfb 	bl	2d38 <TEE_FreeTransientObject>
/mnt/disk/raspbian-tee/optee_os/lib/libutee/tee_api_operations.c:342
    1542:	4628      	mov	r0, r5
    1544:	f7ff fc9c 	bl	e80 <TEE_Free>
    1548:	e795      	b.n	1476 <TEE_AllocateOperation+0x458>
/mnt/disk/raspbian-tee/optee_os/lib/libutee/tee_api_operations.c:255
    154a:	4e04      	ldr	r6, [pc, #16]	; (155c <TEE_AllocateOperation+0x53e>)
    154c:	e793      	b.n	1476 <TEE_AllocateOperation+0x458>
    154e:	4606      	mov	r6, r0
    1550:	e7df      	b.n	1512 <TEE_AllocateOperation+0x4f4>
    1552:	bf00      	nop
    1554:	800060c0 	.word	0x800060c0
    1558:	f0000830 	.word	0xf0000830
    155c:	ffff000c 	.word	0xffff000c
    1560:	ffff000a 	.word	0xffff000a

00001564 <TEE_GetOperationInfo>:
TEE_GetOperationInfo():
/mnt/disk/raspbian-tee/optee_os/lib/libutee/tee_api_operations.c:372
    1564:	b538      	push	{r3, r4, r5, lr}
    1566:	460c      	mov	r4, r1
/mnt/disk/raspbian-tee/optee_os/lib/libutee/tee_api_operations.c:373
    1568:	4605      	mov	r5, r0
    156a:	b908      	cbnz	r0, 1570 <TEE_GetOperationInfo+0xc>
/mnt/disk/raspbian-tee/optee_os/lib/libutee/tee_api_operations.c:374
    156c:	f006 fa17 	bl	799e <TEE_Panic>
/mnt/disk/raspbian-tee/optee_os/lib/libutee/tee_api_operations.c:376
    1570:	b914      	cbnz	r4, 1578 <TEE_GetOperationInfo+0x14>
/mnt/disk/raspbian-tee/optee_os/lib/libutee/tee_api_operations.c:377
    1572:	4620      	mov	r0, r4
    1574:	f006 fa13 	bl	799e <TEE_Panic>
/mnt/disk/raspbian-tee/optee_os/lib/libutee/tee_api_operations.c:379
    1578:	cd0f      	ldmia	r5!, {r0, r1, r2, r3}
    157a:	c40f      	stmia	r4!, {r0, r1, r2, r3}
    157c:	e895 000f 	ldmia.w	r5, {r0, r1, r2, r3}
    1580:	e884 000f 	stmia.w	r4, {r0, r1, r2, r3}
    1584:	bd38      	pop	{r3, r4, r5, pc}

00001586 <TEE_GetOperationInfoMultiple>:
TEE_GetOperationInfoMultiple():
/mnt/disk/raspbian-tee/optee_os/lib/libutee/tee_api_operations.c:385
    1586:	b5f0      	push	{r4, r5, r6, r7, lr}
    1588:	460c      	mov	r4, r1
/mnt/disk/raspbian-tee/optee_os/lib/libutee/tee_api_operations.c:392
    158a:	4605      	mov	r5, r0
/mnt/disk/raspbian-tee/optee_os/lib/libutee/tee_api_operations.c:385
    158c:	b08f      	sub	sp, #60	; 0x3c
/mnt/disk/raspbian-tee/optee_os/lib/libutee/tee_api_operations.c:392
    158e:	2800      	cmp	r0, #0
    1590:	d04a      	beq.n	1628 <TEE_GetOperationInfoMultiple+0xa2>
/mnt/disk/raspbian-tee/optee_os/lib/libutee/tee_api_operations.c:397
    1592:	2900      	cmp	r1, #0
    1594:	d048      	beq.n	1628 <TEE_GetOperationInfoMultiple+0xa2>
/mnt/disk/raspbian-tee/optee_os/lib/libutee/tee_api_operations.c:402
    1596:	2a00      	cmp	r2, #0
    1598:	d046      	beq.n	1628 <TEE_GetOperationInfoMultiple+0xa2>
/mnt/disk/raspbian-tee/optee_os/lib/libutee/tee_api_operations.c:407
    159a:	6817      	ldr	r7, [r2, #0]
    159c:	3f20      	subs	r7, #32
    159e:	08ff      	lsrs	r7, r7, #3
/mnt/disk/raspbian-tee/optee_os/lib/libutee/tee_api_operations.c:410
    15a0:	2f02      	cmp	r7, #2
    15a2:	d841      	bhi.n	1628 <TEE_GetOperationInfoMultiple+0xa2>
/mnt/disk/raspbian-tee/optee_os/lib/libutee/tee_api_operations.c:416
    15a4:	69c3      	ldr	r3, [r0, #28]
    15a6:	031b      	lsls	r3, r3, #12
    15a8:	d420      	bmi.n	15ec <TEE_GetOperationInfoMultiple+0x66>
/mnt/disk/raspbian-tee/optee_os/lib/libutee/tee_api_operations.c:424 (discriminator 1)
    15aa:	b33f      	cbz	r7, 15fc <TEE_GetOperationInfoMultiple+0x76>
/mnt/disk/raspbian-tee/optee_os/lib/libutee/tee_api_operations.c:425
    15ac:	2300      	movs	r3, #0
/mnt/disk/raspbian-tee/optee_os/lib/libutee/tee_api_operations.c:424
    15ae:	2f02      	cmp	r7, #2
/mnt/disk/raspbian-tee/optee_os/lib/libutee/tee_api_operations.c:425
    15b0:	6223      	str	r3, [r4, #32]
/mnt/disk/raspbian-tee/optee_os/lib/libutee/tee_api_operations.c:426
    15b2:	6263      	str	r3, [r4, #36]	; 0x24
/mnt/disk/raspbian-tee/optee_os/lib/libutee/tee_api_operations.c:424
    15b4:	d120      	bne.n	15f8 <TEE_GetOperationInfoMultiple+0x72>
/mnt/disk/raspbian-tee/optee_os/lib/libutee/tee_api_operations.c:425
    15b6:	62a3      	str	r3, [r4, #40]	; 0x28
/mnt/disk/raspbian-tee/optee_os/lib/libutee/tee_api_operations.c:430
    15b8:	a907      	add	r1, sp, #28
/mnt/disk/raspbian-tee/optee_os/lib/libutee/tee_api_operations.c:426
    15ba:	62e3      	str	r3, [r4, #44]	; 0x2c
/mnt/disk/raspbian-tee/optee_os/lib/libutee/tee_api_operations.c:430
    15bc:	6a68      	ldr	r0, [r5, #36]	; 0x24
    15be:	f001 fae9 	bl	2b94 <TEE_GetObjectInfo1>
/mnt/disk/raspbian-tee/optee_os/lib/libutee/tee_api_operations.c:432
    15c2:	4606      	mov	r6, r0
    15c4:	b970      	cbnz	r0, 15e4 <TEE_GetOperationInfoMultiple+0x5e>
/mnt/disk/raspbian-tee/optee_os/lib/libutee/tee_api_operations.c:435
    15c6:	9b08      	ldr	r3, [sp, #32]
    15c8:	62a3      	str	r3, [r4, #40]	; 0x28
/mnt/disk/raspbian-tee/optee_os/lib/libutee/tee_api_operations.c:437
    15ca:	69ab      	ldr	r3, [r5, #24]
    15cc:	62e3      	str	r3, [r4, #44]	; 0x2c
/mnt/disk/raspbian-tee/optee_os/lib/libutee/tee_api_operations.c:442
    15ce:	4669      	mov	r1, sp
    15d0:	6a28      	ldr	r0, [r5, #32]
    15d2:	f001 fadf 	bl	2b94 <TEE_GetObjectInfo1>
/mnt/disk/raspbian-tee/optee_os/lib/libutee/tee_api_operations.c:444
    15d6:	4606      	mov	r6, r0
    15d8:	b308      	cbz	r0, 161e <TEE_GetOperationInfoMultiple+0x98>
/mnt/disk/raspbian-tee/optee_os/lib/libutee/tee_api_operations.c:445
    15da:	2f02      	cmp	r7, #2
    15dc:	d102      	bne.n	15e4 <TEE_GetOperationInfoMultiple+0x5e>
/mnt/disk/raspbian-tee/optee_os/lib/libutee/tee_api_operations.c:447
    15de:	2300      	movs	r3, #0
    15e0:	62a3      	str	r3, [r4, #40]	; 0x28
/mnt/disk/raspbian-tee/optee_os/lib/libutee/tee_api_operations.c:449
    15e2:	62e3      	str	r3, [r4, #44]	; 0x2c
/mnt/disk/raspbian-tee/optee_os/lib/libutee/tee_api_operations.c:471
    15e4:	4b13      	ldr	r3, [pc, #76]	; (1634 <TEE_GetOperationInfoMultiple+0xae>)
    15e6:	429e      	cmp	r6, r3
    15e8:	d002      	beq.n	15f0 <TEE_GetOperationInfoMultiple+0x6a>
    15ea:	e01e      	b.n	162a <TEE_GetOperationInfoMultiple+0xa4>
/mnt/disk/raspbian-tee/optee_os/lib/libutee/tee_api_operations.c:417
    15ec:	2f02      	cmp	r7, #2
    15ee:	d0dd      	beq.n	15ac <TEE_GetOperationInfoMultiple+0x26>
/mnt/disk/raspbian-tee/optee_os/lib/libutee/tee_api_operations.c:468
    15f0:	4e10      	ldr	r6, [pc, #64]	; (1634 <TEE_GetOperationInfoMultiple+0xae>)
/mnt/disk/raspbian-tee/optee_os/lib/libutee/tee_api_operations.c:476
    15f2:	4630      	mov	r0, r6
    15f4:	b00f      	add	sp, #60	; 0x3c
    15f6:	bdf0      	pop	{r4, r5, r6, r7, pc}
/mnt/disk/raspbian-tee/optee_os/lib/libutee/tee_api_operations.c:441
    15f8:	2f00      	cmp	r7, #0
    15fa:	d1e8      	bne.n	15ce <TEE_GetOperationInfoMultiple+0x48>
/mnt/disk/raspbian-tee/optee_os/lib/libutee/tee_api_operations.c:461
    15fc:	682b      	ldr	r3, [r5, #0]
/mnt/disk/raspbian-tee/optee_os/lib/libutee/tee_api_operations.c:468
    15fe:	2600      	movs	r6, #0
/mnt/disk/raspbian-tee/optee_os/lib/libutee/tee_api_operations.c:461
    1600:	6023      	str	r3, [r4, #0]
/mnt/disk/raspbian-tee/optee_os/lib/libutee/tee_api_operations.c:462
    1602:	686b      	ldr	r3, [r5, #4]
    1604:	6063      	str	r3, [r4, #4]
/mnt/disk/raspbian-tee/optee_os/lib/libutee/tee_api_operations.c:463
    1606:	68ab      	ldr	r3, [r5, #8]
    1608:	60a3      	str	r3, [r4, #8]
/mnt/disk/raspbian-tee/optee_os/lib/libutee/tee_api_operations.c:464
    160a:	68eb      	ldr	r3, [r5, #12]
    160c:	60e3      	str	r3, [r4, #12]
/mnt/disk/raspbian-tee/optee_os/lib/libutee/tee_api_operations.c:465
    160e:	692b      	ldr	r3, [r5, #16]
    1610:	6123      	str	r3, [r4, #16]
/mnt/disk/raspbian-tee/optee_os/lib/libutee/tee_api_operations.c:466
    1612:	69eb      	ldr	r3, [r5, #28]
    1614:	6163      	str	r3, [r4, #20]
/mnt/disk/raspbian-tee/optee_os/lib/libutee/tee_api_operations.c:467
    1616:	6aab      	ldr	r3, [r5, #40]	; 0x28
    1618:	61a3      	str	r3, [r4, #24]
/mnt/disk/raspbian-tee/optee_os/lib/libutee/tee_api_operations.c:468
    161a:	61e7      	str	r7, [r4, #28]
    161c:	e7e9      	b.n	15f2 <TEE_GetOperationInfoMultiple+0x6c>
/mnt/disk/raspbian-tee/optee_os/lib/libutee/tee_api_operations.c:454
    161e:	9b01      	ldr	r3, [sp, #4]
    1620:	6223      	str	r3, [r4, #32]
/mnt/disk/raspbian-tee/optee_os/lib/libutee/tee_api_operations.c:456
    1622:	69ab      	ldr	r3, [r5, #24]
    1624:	6263      	str	r3, [r4, #36]	; 0x24
    1626:	e7e9      	b.n	15fc <TEE_GetOperationInfoMultiple+0x76>
    1628:	4e03      	ldr	r6, [pc, #12]	; (1638 <TEE_GetOperationInfoMultiple+0xb2>)
/mnt/disk/raspbian-tee/optee_os/lib/libutee/tee_api_operations.c:473
    162a:	4630      	mov	r0, r6
    162c:	f006 f9b7 	bl	799e <TEE_Panic>
/mnt/disk/raspbian-tee/optee_os/lib/libutee/tee_api_operations.c:475
    1630:	e7df      	b.n	15f2 <TEE_GetOperationInfoMultiple+0x6c>
    1632:	bf00      	nop
    1634:	ffff0010 	.word	0xffff0010
    1638:	ffff0006 	.word	0xffff0006

0000163c <TEE_ResetOperation>:
TEE_ResetOperation():
/mnt/disk/raspbian-tee/optee_os/lib/libutee/tee_api_operations.c:479
    163c:	b510      	push	{r4, lr}
/mnt/disk/raspbian-tee/optee_os/lib/libutee/tee_api_operations.c:482
    163e:	4604      	mov	r4, r0
    1640:	b908      	cbnz	r0, 1646 <TEE_ResetOperation+0xa>
/mnt/disk/raspbian-tee/optee_os/lib/libutee/tee_api_operations.c:483
    1642:	f006 f9ac 	bl	799e <TEE_Panic>
/mnt/disk/raspbian-tee/optee_os/lib/libutee/tee_api_operations.c:485
    1646:	69e0      	ldr	r0, [r4, #28]
    1648:	f410 2080 	ands.w	r0, r0, #262144	; 0x40000
    164c:	d101      	bne.n	1652 <TEE_ResetOperation+0x16>
/mnt/disk/raspbian-tee/optee_os/lib/libutee/tee_api_operations.c:486
    164e:	f006 f9a6 	bl	799e <TEE_Panic>
/mnt/disk/raspbian-tee/optee_os/lib/libutee/tee_api_operations.c:490
    1652:	6863      	ldr	r3, [r4, #4]
/mnt/disk/raspbian-tee/optee_os/lib/libutee/tee_api_operations.c:488
    1654:	2200      	movs	r2, #0
    1656:	62a2      	str	r2, [r4, #40]	; 0x28
/mnt/disk/raspbian-tee/optee_os/lib/libutee/tee_api_operations.c:490
    1658:	2b05      	cmp	r3, #5
    165a:	d10b      	bne.n	1674 <TEE_ResetOperation+0x38>
/mnt/disk/raspbian-tee/optee_os/lib/libutee/tee_api_operations.c:491
    165c:	4611      	mov	r1, r2
    165e:	6be0      	ldr	r0, [r4, #60]	; 0x3c
    1660:	f001 e8ce 	blx	2800 <utee_hash_init>
/mnt/disk/raspbian-tee/optee_os/lib/libutee/tee_api_operations.c:492
    1664:	b108      	cbz	r0, 166a <TEE_ResetOperation+0x2e>
/mnt/disk/raspbian-tee/optee_os/lib/libutee/tee_api_operations.c:493
    1666:	f006 f99a 	bl	799e <TEE_Panic>
/mnt/disk/raspbian-tee/optee_os/lib/libutee/tee_api_operations.c:494
    166a:	69e3      	ldr	r3, [r4, #28]
    166c:	f443 3300 	orr.w	r3, r3, #131072	; 0x20000
/mnt/disk/raspbian-tee/optee_os/lib/libutee/tee_api_operations.c:496
    1670:	61e3      	str	r3, [r4, #28]
    1672:	bd10      	pop	{r4, pc}
    1674:	69e3      	ldr	r3, [r4, #28]
    1676:	f423 3300 	bic.w	r3, r3, #131072	; 0x20000
    167a:	e7f9      	b.n	1670 <TEE_ResetOperation+0x34>

0000167c <TEE_SetOperationKey>:
TEE_SetOperationKey():
/mnt/disk/raspbian-tee/optee_os/lib/libutee/tee_api_operations.c:502
    167c:	b5f0      	push	{r4, r5, r6, r7, lr}
    167e:	460e      	mov	r6, r1
/mnt/disk/raspbian-tee/optee_os/lib/libutee/tee_api_operations.c:507
    1680:	4604      	mov	r4, r0
/mnt/disk/raspbian-tee/optee_os/lib/libutee/tee_api_operations.c:502
    1682:	b089      	sub	sp, #36	; 0x24
/mnt/disk/raspbian-tee/optee_os/lib/libutee/tee_api_operations.c:507
    1684:	b128      	cbz	r0, 1692 <TEE_SetOperationKey+0x16>
/mnt/disk/raspbian-tee/optee_os/lib/libutee/tee_api_operations.c:512
    1686:	6a83      	ldr	r3, [r0, #40]	; 0x28
    1688:	b91b      	cbnz	r3, 1692 <TEE_SetOperationKey+0x16>
/mnt/disk/raspbian-tee/optee_os/lib/libutee/tee_api_operations.c:517
    168a:	b921      	cbnz	r1, 1696 <TEE_SetOperationKey+0x1a>
/mnt/disk/raspbian-tee/optee_os/lib/libutee/tee_api_operations.c:519
    168c:	6a00      	ldr	r0, [r0, #32]
    168e:	f001 fb6b 	bl	2d68 <TEE_ResetTransientObject>
/mnt/disk/raspbian-tee/optee_os/lib/libutee/tee_api_operations.c:502
    1692:	4d1a      	ldr	r5, [pc, #104]	; (16fc <TEE_SetOperationKey+0x80>)
    1694:	e02e      	b.n	16f4 <TEE_SetOperationKey+0x78>
/mnt/disk/raspbian-tee/optee_os/lib/libutee/tee_api_operations.c:525
    1696:	6843      	ldr	r3, [r0, #4]
    1698:	2b05      	cmp	r3, #5
    169a:	d0fa      	beq.n	1692 <TEE_SetOperationKey+0x16>
/mnt/disk/raspbian-tee/optee_os/lib/libutee/tee_api_operations.c:531
    169c:	69c3      	ldr	r3, [r0, #28]
    169e:	031b      	lsls	r3, r3, #12
    16a0:	d4f7      	bmi.n	1692 <TEE_SetOperationKey+0x16>
/mnt/disk/raspbian-tee/optee_os/lib/libutee/tee_api_operations.c:537
    16a2:	a901      	add	r1, sp, #4
    16a4:	4630      	mov	r0, r6
    16a6:	f001 fa75 	bl	2b94 <TEE_GetObjectInfo1>
/mnt/disk/raspbian-tee/optee_os/lib/libutee/tee_api_operations.c:539
    16aa:	4605      	mov	r5, r0
    16ac:	b9e0      	cbnz	r0, 16e8 <TEE_SetOperationKey+0x6c>
/mnt/disk/raspbian-tee/optee_os/lib/libutee/tee_api_operations.c:543
    16ae:	69a3      	ldr	r3, [r4, #24]
    16b0:	9a04      	ldr	r2, [sp, #16]
    16b2:	4393      	bics	r3, r2
    16b4:	d1ed      	bne.n	1692 <TEE_SetOperationKey+0x16>
/mnt/disk/raspbian-tee/optee_os/lib/libutee/tee_api_operations.c:549
    16b6:	9f02      	ldr	r7, [sp, #8]
    16b8:	6923      	ldr	r3, [r4, #16]
    16ba:	42bb      	cmp	r3, r7
    16bc:	d3e9      	bcc.n	1692 <TEE_SetOperationKey+0x16>
/mnt/disk/raspbian-tee/optee_os/lib/libutee/tee_api_operations.c:556
    16be:	6a20      	ldr	r0, [r4, #32]
    16c0:	f001 fb52 	bl	2d68 <TEE_ResetTransientObject>
/mnt/disk/raspbian-tee/optee_os/lib/libutee/tee_api_operations.c:557
    16c4:	69e3      	ldr	r3, [r4, #28]
/mnt/disk/raspbian-tee/optee_os/lib/libutee/tee_api_operations.c:559
    16c6:	4631      	mov	r1, r6
    16c8:	6a20      	ldr	r0, [r4, #32]
/mnt/disk/raspbian-tee/optee_os/lib/libutee/tee_api_operations.c:557
    16ca:	f423 2380 	bic.w	r3, r3, #262144	; 0x40000
    16ce:	61e3      	str	r3, [r4, #28]
/mnt/disk/raspbian-tee/optee_os/lib/libutee/tee_api_operations.c:559
    16d0:	f001 fbbc 	bl	2e4c <TEE_CopyObjectAttributes1>
/mnt/disk/raspbian-tee/optee_os/lib/libutee/tee_api_operations.c:560
    16d4:	4605      	mov	r5, r0
    16d6:	b938      	cbnz	r0, 16e8 <TEE_SetOperationKey+0x6c>
/mnt/disk/raspbian-tee/optee_os/lib/libutee/tee_api_operations.c:563
    16d8:	69e3      	ldr	r3, [r4, #28]
/mnt/disk/raspbian-tee/optee_os/lib/libutee/tee_api_operations.c:565
    16da:	6167      	str	r7, [r4, #20]
/mnt/disk/raspbian-tee/optee_os/lib/libutee/tee_api_operations.c:563
    16dc:	f443 2380 	orr.w	r3, r3, #262144	; 0x40000
    16e0:	61e3      	str	r3, [r4, #28]
/mnt/disk/raspbian-tee/optee_os/lib/libutee/tee_api_operations.c:574
    16e2:	4628      	mov	r0, r5
    16e4:	b009      	add	sp, #36	; 0x24
    16e6:	bdf0      	pop	{r4, r5, r6, r7, pc}
/mnt/disk/raspbian-tee/optee_os/lib/libutee/tee_api_operations.c:568
    16e8:	4b05      	ldr	r3, [pc, #20]	; (1700 <TEE_SetOperationKey+0x84>)
    16ea:	429d      	cmp	r5, r3
    16ec:	d0f9      	beq.n	16e2 <TEE_SetOperationKey+0x66>
/mnt/disk/raspbian-tee/optee_os/lib/libutee/tee_api_operations.c:569
    16ee:	4b05      	ldr	r3, [pc, #20]	; (1704 <TEE_SetOperationKey+0x88>)
    16f0:	429d      	cmp	r5, r3
    16f2:	d0f6      	beq.n	16e2 <TEE_SetOperationKey+0x66>
/mnt/disk/raspbian-tee/optee_os/lib/libutee/tee_api_operations.c:571
    16f4:	4628      	mov	r0, r5
    16f6:	f006 f952 	bl	799e <TEE_Panic>
/mnt/disk/raspbian-tee/optee_os/lib/libutee/tee_api_operations.c:573
    16fa:	e7f2      	b.n	16e2 <TEE_SetOperationKey+0x66>
    16fc:	ffff0006 	.word	0xffff0006
    1700:	f0100001 	.word	0xf0100001
    1704:	f0100003 	.word	0xf0100003

00001708 <TEE_SetOperationKey2>:
TEE_SetOperationKey2():
/mnt/disk/raspbian-tee/optee_os/lib/libutee/tee_api_operations.c:578
    1708:	e92d 41f0 	stmdb	sp!, {r4, r5, r6, r7, r8, lr}
    170c:	4688      	mov	r8, r1
    170e:	4616      	mov	r6, r2
    1710:	b08e      	sub	sp, #56	; 0x38
/mnt/disk/raspbian-tee/optee_os/lib/libutee/tee_api_operations.c:584
    1712:	4604      	mov	r4, r0
    1714:	b130      	cbz	r0, 1724 <TEE_SetOperationKey2+0x1c>
/mnt/disk/raspbian-tee/optee_os/lib/libutee/tee_api_operations.c:589
    1716:	6a83      	ldr	r3, [r0, #40]	; 0x28
    1718:	b923      	cbnz	r3, 1724 <TEE_SetOperationKey2+0x1c>
/mnt/disk/raspbian-tee/optee_os/lib/libutee/tee_api_operations.c:598
    171a:	b129      	cbz	r1, 1728 <TEE_SetOperationKey2+0x20>
/mnt/disk/raspbian-tee/optee_os/lib/libutee/tee_api_operations.c:598 (discriminator 1)
    171c:	b952      	cbnz	r2, 1734 <TEE_SetOperationKey2+0x2c>
/mnt/disk/raspbian-tee/optee_os/lib/libutee/tee_api_operations.c:604
    171e:	6a60      	ldr	r0, [r4, #36]	; 0x24
    1720:	f001 fb22 	bl	2d68 <TEE_ResetTransientObject>
/mnt/disk/raspbian-tee/optee_os/lib/libutee/tee_api_operations.c:578
    1724:	4d31      	ldr	r5, [pc, #196]	; (17ec <TEE_SetOperationKey2+0xe4>)
    1726:	e05c      	b.n	17e2 <TEE_SetOperationKey2+0xda>
/mnt/disk/raspbian-tee/optee_os/lib/libutee/tee_api_operations.c:601
    1728:	6a00      	ldr	r0, [r0, #32]
    172a:	f001 fb1d 	bl	2d68 <TEE_ResetTransientObject>
/mnt/disk/raspbian-tee/optee_os/lib/libutee/tee_api_operations.c:603
    172e:	2e00      	cmp	r6, #0
    1730:	d1f8      	bne.n	1724 <TEE_SetOperationKey2+0x1c>
    1732:	e7f4      	b.n	171e <TEE_SetOperationKey2+0x16>
/mnt/disk/raspbian-tee/optee_os/lib/libutee/tee_api_operations.c:610
    1734:	6843      	ldr	r3, [r0, #4]
    1736:	2b05      	cmp	r3, #5
    1738:	d0f4      	beq.n	1724 <TEE_SetOperationKey2+0x1c>
/mnt/disk/raspbian-tee/optee_os/lib/libutee/tee_api_operations.c:616
    173a:	69c3      	ldr	r3, [r0, #28]
    173c:	031b      	lsls	r3, r3, #12
    173e:	d5f1      	bpl.n	1724 <TEE_SetOperationKey2+0x1c>
/mnt/disk/raspbian-tee/optee_os/lib/libutee/tee_api_operations.c:622
    1740:	4669      	mov	r1, sp
    1742:	4640      	mov	r0, r8
    1744:	f001 fa26 	bl	2b94 <TEE_GetObjectInfo1>
/mnt/disk/raspbian-tee/optee_os/lib/libutee/tee_api_operations.c:624
    1748:	4605      	mov	r5, r0
    174a:	2800      	cmp	r0, #0
    174c:	d13d      	bne.n	17ca <TEE_SetOperationKey2+0xc2>
/mnt/disk/raspbian-tee/optee_os/lib/libutee/tee_api_operations.c:628
    174e:	69a3      	ldr	r3, [r4, #24]
    1750:	9a03      	ldr	r2, [sp, #12]
    1752:	4393      	bics	r3, r2
    1754:	d1e6      	bne.n	1724 <TEE_SetOperationKey2+0x1c>
/mnt/disk/raspbian-tee/optee_os/lib/libutee/tee_api_operations.c:634
    1756:	a907      	add	r1, sp, #28
    1758:	4630      	mov	r0, r6
    175a:	f001 fa1b 	bl	2b94 <TEE_GetObjectInfo1>
/mnt/disk/raspbian-tee/optee_os/lib/libutee/tee_api_operations.c:636
    175e:	4605      	mov	r5, r0
    1760:	b120      	cbz	r0, 176c <TEE_SetOperationKey2+0x64>
/mnt/disk/raspbian-tee/optee_os/lib/libutee/tee_api_operations.c:681
    1762:	4b23      	ldr	r3, [pc, #140]	; (17f0 <TEE_SetOperationKey2+0xe8>)
    1764:	429d      	cmp	r5, r3
    1766:	d133      	bne.n	17d0 <TEE_SetOperationKey2+0xc8>
/mnt/disk/raspbian-tee/optee_os/lib/libutee/tee_api_operations.c:578
    1768:	4d22      	ldr	r5, [pc, #136]	; (17f4 <TEE_SetOperationKey2+0xec>)
    176a:	e02a      	b.n	17c2 <TEE_SetOperationKey2+0xba>
/mnt/disk/raspbian-tee/optee_os/lib/libutee/tee_api_operations.c:643
    176c:	69a3      	ldr	r3, [r4, #24]
    176e:	9a0a      	ldr	r2, [sp, #40]	; 0x28
    1770:	4393      	bics	r3, r2
    1772:	d1d7      	bne.n	1724 <TEE_SetOperationKey2+0x1c>
/mnt/disk/raspbian-tee/optee_os/lib/libutee/tee_api_operations.c:653
    1774:	6822      	ldr	r2, [r4, #0]
    1776:	4b20      	ldr	r3, [pc, #128]	; (17f8 <TEE_SetOperationKey2+0xf0>)
    1778:	9f01      	ldr	r7, [sp, #4]
    177a:	429a      	cmp	r2, r3
    177c:	d102      	bne.n	1784 <TEE_SetOperationKey2+0x7c>
/mnt/disk/raspbian-tee/optee_os/lib/libutee/tee_api_operations.c:653 (discriminator 1)
    177e:	9b08      	ldr	r3, [sp, #32]
    1780:	429f      	cmp	r7, r3
    1782:	d1cf      	bne.n	1724 <TEE_SetOperationKey2+0x1c>
/mnt/disk/raspbian-tee/optee_os/lib/libutee/tee_api_operations.c:660
    1784:	6923      	ldr	r3, [r4, #16]
    1786:	42bb      	cmp	r3, r7
    1788:	d3cc      	bcc.n	1724 <TEE_SetOperationKey2+0x1c>
/mnt/disk/raspbian-tee/optee_os/lib/libutee/tee_api_operations.c:671
    178a:	6a20      	ldr	r0, [r4, #32]
    178c:	f001 faec 	bl	2d68 <TEE_ResetTransientObject>
/mnt/disk/raspbian-tee/optee_os/lib/libutee/tee_api_operations.c:672
    1790:	6a60      	ldr	r0, [r4, #36]	; 0x24
    1792:	f001 fae9 	bl	2d68 <TEE_ResetTransientObject>
/mnt/disk/raspbian-tee/optee_os/lib/libutee/tee_api_operations.c:673
    1796:	69e3      	ldr	r3, [r4, #28]
/mnt/disk/raspbian-tee/optee_os/lib/libutee/tee_api_operations.c:675
    1798:	4641      	mov	r1, r8
    179a:	6a20      	ldr	r0, [r4, #32]
/mnt/disk/raspbian-tee/optee_os/lib/libutee/tee_api_operations.c:673
    179c:	f423 2380 	bic.w	r3, r3, #262144	; 0x40000
    17a0:	61e3      	str	r3, [r4, #28]
/mnt/disk/raspbian-tee/optee_os/lib/libutee/tee_api_operations.c:675
    17a2:	f001 fb53 	bl	2e4c <TEE_CopyObjectAttributes1>
/mnt/disk/raspbian-tee/optee_os/lib/libutee/tee_api_operations.c:676
    17a6:	4605      	mov	r5, r0
    17a8:	b978      	cbnz	r0, 17ca <TEE_SetOperationKey2+0xc2>
/mnt/disk/raspbian-tee/optee_os/lib/libutee/tee_api_operations.c:679
    17aa:	4631      	mov	r1, r6
    17ac:	6a60      	ldr	r0, [r4, #36]	; 0x24
    17ae:	f001 fb4d 	bl	2e4c <TEE_CopyObjectAttributes1>
/mnt/disk/raspbian-tee/optee_os/lib/libutee/tee_api_operations.c:680
    17b2:	4605      	mov	r5, r0
    17b4:	2800      	cmp	r0, #0
    17b6:	d1d4      	bne.n	1762 <TEE_SetOperationKey2+0x5a>
/mnt/disk/raspbian-tee/optee_os/lib/libutee/tee_api_operations.c:686
    17b8:	69e3      	ldr	r3, [r4, #28]
/mnt/disk/raspbian-tee/optee_os/lib/libutee/tee_api_operations.c:688
    17ba:	6167      	str	r7, [r4, #20]
/mnt/disk/raspbian-tee/optee_os/lib/libutee/tee_api_operations.c:686
    17bc:	f443 2380 	orr.w	r3, r3, #262144	; 0x40000
    17c0:	61e3      	str	r3, [r4, #28]
/mnt/disk/raspbian-tee/optee_os/lib/libutee/tee_api_operations.c:699
    17c2:	4628      	mov	r0, r5
    17c4:	b00e      	add	sp, #56	; 0x38
    17c6:	e8bd 81f0 	ldmia.w	sp!, {r4, r5, r6, r7, r8, pc}
/mnt/disk/raspbian-tee/optee_os/lib/libutee/tee_api_operations.c:691
    17ca:	4b09      	ldr	r3, [pc, #36]	; (17f0 <TEE_SetOperationKey2+0xe8>)
    17cc:	429d      	cmp	r5, r3
    17ce:	d0f8      	beq.n	17c2 <TEE_SetOperationKey2+0xba>
/mnt/disk/raspbian-tee/optee_os/lib/libutee/tee_api_operations.c:692
    17d0:	4b08      	ldr	r3, [pc, #32]	; (17f4 <TEE_SetOperationKey2+0xec>)
    17d2:	429d      	cmp	r5, r3
    17d4:	d0c8      	beq.n	1768 <TEE_SetOperationKey2+0x60>
/mnt/disk/raspbian-tee/optee_os/lib/libutee/tee_api_operations.c:693
    17d6:	3301      	adds	r3, #1
    17d8:	429d      	cmp	r5, r3
    17da:	d0f2      	beq.n	17c2 <TEE_SetOperationKey2+0xba>
/mnt/disk/raspbian-tee/optee_os/lib/libutee/tee_api_operations.c:694
    17dc:	3301      	adds	r3, #1
    17de:	429d      	cmp	r5, r3
    17e0:	d0ef      	beq.n	17c2 <TEE_SetOperationKey2+0xba>
/mnt/disk/raspbian-tee/optee_os/lib/libutee/tee_api_operations.c:696
    17e2:	4628      	mov	r0, r5
    17e4:	f006 f8db 	bl	799e <TEE_Panic>
/mnt/disk/raspbian-tee/optee_os/lib/libutee/tee_api_operations.c:698
    17e8:	e7eb      	b.n	17c2 <TEE_SetOperationKey2+0xba>
    17ea:	bf00      	nop
    17ec:	ffff0006 	.word	0xffff0006
    17f0:	f0100001 	.word	0xf0100001
    17f4:	f0100002 	.word	0xf0100002
    17f8:	10000410 	.word	0x10000410

000017fc <TEE_CopyOperation>:
TEE_CopyOperation():
/mnt/disk/raspbian-tee/optee_os/lib/libutee/tee_api_operations.c:702
    17fc:	b538      	push	{r3, r4, r5, lr}
    17fe:	460c      	mov	r4, r1
/mnt/disk/raspbian-tee/optee_os/lib/libutee/tee_api_operations.c:705
    1800:	4605      	mov	r5, r0
    1802:	b100      	cbz	r0, 1806 <TEE_CopyOperation+0xa>
/mnt/disk/raspbian-tee/optee_os/lib/libutee/tee_api_operations.c:705 (discriminator 1)
    1804:	b911      	cbnz	r1, 180c <TEE_CopyOperation+0x10>
/mnt/disk/raspbian-tee/optee_os/lib/libutee/tee_api_operations.c:706
    1806:	2000      	movs	r0, #0
    1808:	f006 f8c9 	bl	799e <TEE_Panic>
/mnt/disk/raspbian-tee/optee_os/lib/libutee/tee_api_operations.c:707
    180c:	682a      	ldr	r2, [r5, #0]
    180e:	6823      	ldr	r3, [r4, #0]
    1810:	429a      	cmp	r2, r3
    1812:	d002      	beq.n	181a <TEE_CopyOperation+0x1e>
/mnt/disk/raspbian-tee/optee_os/lib/libutee/tee_api_operations.c:708
    1814:	2000      	movs	r0, #0
    1816:	f006 f8c2 	bl	799e <TEE_Panic>
/mnt/disk/raspbian-tee/optee_os/lib/libutee/tee_api_operations.c:709
    181a:	6863      	ldr	r3, [r4, #4]
    181c:	2b05      	cmp	r3, #5
    181e:	d00a      	beq.n	1836 <TEE_CopyOperation+0x3a>
/mnt/disk/raspbian-tee/optee_os/lib/libutee/tee_api_operations.c:713
    1820:	69e3      	ldr	r3, [r4, #28]
    1822:	f413 2280 	ands.w	r2, r3, #262144	; 0x40000
    1826:	d030      	beq.n	188a <TEE_CopyOperation+0x8e>
/mnt/disk/raspbian-tee/optee_os/lib/libutee/tee_api_operations.c:714
    1828:	6a21      	ldr	r1, [r4, #32]
/mnt/disk/raspbian-tee/optee_os/lib/libutee/tee_api_operations.c:715
    182a:	6a62      	ldr	r2, [r4, #36]	; 0x24
/mnt/disk/raspbian-tee/optee_os/lib/libutee/tee_api_operations.c:720
    182c:	4628      	mov	r0, r5
/mnt/disk/raspbian-tee/optee_os/lib/libutee/tee_api_operations.c:718
    182e:	031b      	lsls	r3, r3, #12
    1830:	d42d      	bmi.n	188e <TEE_CopyOperation+0x92>
/mnt/disk/raspbian-tee/optee_os/lib/libutee/tee_api_operations.c:720
    1832:	f7ff ff23 	bl	167c <TEE_SetOperationKey>
/mnt/disk/raspbian-tee/optee_os/lib/libutee/tee_api_operations.c:725
    1836:	69e3      	ldr	r3, [r4, #28]
    1838:	61eb      	str	r3, [r5, #28]
/mnt/disk/raspbian-tee/optee_os/lib/libutee/tee_api_operations.c:726
    183a:	6963      	ldr	r3, [r4, #20]
    183c:	616b      	str	r3, [r5, #20]
/mnt/disk/raspbian-tee/optee_os/lib/libutee/tee_api_operations.c:727
    183e:	6aa3      	ldr	r3, [r4, #40]	; 0x28
    1840:	62ab      	str	r3, [r5, #40]	; 0x28
/mnt/disk/raspbian-tee/optee_os/lib/libutee/tee_api_operations.c:729
    1842:	f895 2030 	ldrb.w	r2, [r5, #48]	; 0x30
    1846:	f894 3030 	ldrb.w	r3, [r4, #48]	; 0x30
    184a:	429a      	cmp	r2, r3
    184c:	d103      	bne.n	1856 <TEE_CopyOperation+0x5a>
/mnt/disk/raspbian-tee/optee_os/lib/libutee/tee_api_operations.c:729 (discriminator 1)
    184e:	6b6a      	ldr	r2, [r5, #52]	; 0x34
    1850:	6b63      	ldr	r3, [r4, #52]	; 0x34
    1852:	429a      	cmp	r2, r3
    1854:	d002      	beq.n	185c <TEE_CopyOperation+0x60>
/mnt/disk/raspbian-tee/optee_os/lib/libutee/tee_api_operations.c:731
    1856:	2000      	movs	r0, #0
    1858:	f006 f8a1 	bl	799e <TEE_Panic>
/mnt/disk/raspbian-tee/optee_os/lib/libutee/tee_api_operations.c:733
    185c:	6ae8      	ldr	r0, [r5, #44]	; 0x2c
    185e:	6ae3      	ldr	r3, [r4, #44]	; 0x2c
    1860:	b1c0      	cbz	r0, 1894 <TEE_CopyOperation+0x98>
/mnt/disk/raspbian-tee/optee_os/lib/libutee/tee_api_operations.c:734
    1862:	b913      	cbnz	r3, 186a <TEE_CopyOperation+0x6e>
/mnt/disk/raspbian-tee/optee_os/lib/libutee/tee_api_operations.c:735
    1864:	4618      	mov	r0, r3
    1866:	f006 f89a 	bl	799e <TEE_Panic>
/mnt/disk/raspbian-tee/optee_os/lib/libutee/tee_api_operations.c:737
    186a:	6ba2      	ldr	r2, [r4, #56]	; 0x38
    186c:	6ae1      	ldr	r1, [r4, #44]	; 0x2c
    186e:	6ae8      	ldr	r0, [r5, #44]	; 0x2c
    1870:	f006 f8bc 	bl	79ec <memcpy>
/mnt/disk/raspbian-tee/optee_os/lib/libutee/tee_api_operations.c:738
    1874:	6ba3      	ldr	r3, [r4, #56]	; 0x38
    1876:	63ab      	str	r3, [r5, #56]	; 0x38
/mnt/disk/raspbian-tee/optee_os/lib/libutee/tee_api_operations.c:743
    1878:	6be1      	ldr	r1, [r4, #60]	; 0x3c
    187a:	6be8      	ldr	r0, [r5, #60]	; 0x3c
    187c:	f000 efac 	blx	27d8 <utee_cryp_state_copy>
/mnt/disk/raspbian-tee/optee_os/lib/libutee/tee_api_operations.c:744
    1880:	b168      	cbz	r0, 189e <TEE_CopyOperation+0xa2>
/mnt/disk/raspbian-tee/optee_os/lib/libutee/tee_api_operations.c:746
    1882:	e8bd 4038 	ldmia.w	sp!, {r3, r4, r5, lr}
/mnt/disk/raspbian-tee/optee_os/lib/libutee/tee_api_operations.c:745
    1886:	f006 b88a 	b.w	799e <TEE_Panic>
/mnt/disk/raspbian-tee/optee_os/lib/libutee/tee_api_operations.c:710
    188a:	4611      	mov	r1, r2
    188c:	e7ce      	b.n	182c <TEE_CopyOperation+0x30>
/mnt/disk/raspbian-tee/optee_os/lib/libutee/tee_api_operations.c:722
    188e:	f7ff ff3b 	bl	1708 <TEE_SetOperationKey2>
    1892:	e7d0      	b.n	1836 <TEE_CopyOperation+0x3a>
/mnt/disk/raspbian-tee/optee_os/lib/libutee/tee_api_operations.c:739
    1894:	2b00      	cmp	r3, #0
    1896:	d0ef      	beq.n	1878 <TEE_CopyOperation+0x7c>
/mnt/disk/raspbian-tee/optee_os/lib/libutee/tee_api_operations.c:740
    1898:	f006 f881 	bl	799e <TEE_Panic>
    189c:	e7ec      	b.n	1878 <TEE_CopyOperation+0x7c>
    189e:	bd38      	pop	{r3, r4, r5, pc}

000018a0 <TEE_DigestUpdate>:
TEE_DigestUpdate():
/mnt/disk/raspbian-tee/optee_os/lib/libutee/tee_api_operations.c:768
    18a0:	b570      	push	{r4, r5, r6, lr}
    18a2:	460d      	mov	r5, r1
    18a4:	4616      	mov	r6, r2
/mnt/disk/raspbian-tee/optee_os/lib/libutee/tee_api_operations.c:771
    18a6:	4604      	mov	r4, r0
    18a8:	b110      	cbz	r0, 18b0 <TEE_DigestUpdate+0x10>
/mnt/disk/raspbian-tee/optee_os/lib/libutee/tee_api_operations.c:771 (discriminator 1)
    18aa:	6843      	ldr	r3, [r0, #4]
    18ac:	2b05      	cmp	r3, #5
    18ae:	d002      	beq.n	18b6 <TEE_DigestUpdate+0x16>
/mnt/disk/raspbian-tee/optee_os/lib/libutee/tee_api_operations.c:773
    18b0:	2000      	movs	r0, #0
    18b2:	f006 f874 	bl	799e <TEE_Panic>
/mnt/disk/raspbian-tee/optee_os/lib/libutee/tee_api_operations.c:775
    18b6:	2301      	movs	r3, #1
/mnt/disk/raspbian-tee/optee_os/lib/libutee/tee_api_operations.c:777
    18b8:	4632      	mov	r2, r6
/mnt/disk/raspbian-tee/optee_os/lib/libutee/tee_api_operations.c:775
    18ba:	62a3      	str	r3, [r4, #40]	; 0x28
/mnt/disk/raspbian-tee/optee_os/lib/libutee/tee_api_operations.c:777
    18bc:	4629      	mov	r1, r5
    18be:	6be0      	ldr	r0, [r4, #60]	; 0x3c
    18c0:	f000 efa8 	blx	2814 <utee_hash_update>
/mnt/disk/raspbian-tee/optee_os/lib/libutee/tee_api_operations.c:778
    18c4:	b118      	cbz	r0, 18ce <TEE_DigestUpdate+0x2e>
/mnt/disk/raspbian-tee/optee_os/lib/libutee/tee_api_operations.c:780
    18c6:	e8bd 4070 	ldmia.w	sp!, {r4, r5, r6, lr}
/mnt/disk/raspbian-tee/optee_os/lib/libutee/tee_api_operations.c:779
    18ca:	f006 b868 	b.w	799e <TEE_Panic>
    18ce:	bd70      	pop	{r4, r5, r6, pc}

000018d0 <TEE_DigestDoFinal>:
TEE_DigestDoFinal():
/mnt/disk/raspbian-tee/optee_os/lib/libutee/tee_api_operations.c:784
    18d0:	b530      	push	{r4, r5, lr}
/mnt/disk/raspbian-tee/optee_os/lib/libutee/tee_api_operations.c:788
    18d2:	4605      	mov	r5, r0
/mnt/disk/raspbian-tee/optee_os/lib/libutee/tee_api_operations.c:784
    18d4:	b085      	sub	sp, #20
    18d6:	9c08      	ldr	r4, [sp, #32]
/mnt/disk/raspbian-tee/optee_os/lib/libutee/tee_api_operations.c:788
    18d8:	b328      	cbz	r0, 1926 <TEE_DigestDoFinal+0x56>
/mnt/disk/raspbian-tee/optee_os/lib/libutee/tee_api_operations.c:788 (discriminator 1)
    18da:	b901      	cbnz	r1, 18de <TEE_DigestDoFinal+0xe>
/mnt/disk/raspbian-tee/optee_os/lib/libutee/tee_api_operations.c:789
    18dc:	bb1a      	cbnz	r2, 1926 <TEE_DigestDoFinal+0x56>
/mnt/disk/raspbian-tee/optee_os/lib/libutee/tee_api_operations.c:789 (discriminator 1)
    18de:	b313      	cbz	r3, 1926 <TEE_DigestDoFinal+0x56>
/mnt/disk/raspbian-tee/optee_os/lib/libutee/tee_api_operations.c:790
    18e0:	b30c      	cbz	r4, 1926 <TEE_DigestDoFinal+0x56>
/mnt/disk/raspbian-tee/optee_os/lib/libutee/tee_api_operations.c:791
    18e2:	6868      	ldr	r0, [r5, #4]
    18e4:	2805      	cmp	r0, #5
    18e6:	d11e      	bne.n	1926 <TEE_DigestDoFinal+0x56>
/mnt/disk/raspbian-tee/optee_os/lib/libutee/tee_api_operations.c:797
    18e8:	6820      	ldr	r0, [r4, #0]
    18ea:	9002      	str	r0, [sp, #8]
    18ec:	2000      	movs	r0, #0
    18ee:	9003      	str	r0, [sp, #12]
/mnt/disk/raspbian-tee/optee_os/lib/libutee/tee_api_operations.c:798
    18f0:	a802      	add	r0, sp, #8
    18f2:	9000      	str	r0, [sp, #0]
    18f4:	6be8      	ldr	r0, [r5, #60]	; 0x3c
    18f6:	f000 ef98 	blx	2828 <utee_hash_final>
/mnt/disk/raspbian-tee/optee_os/lib/libutee/tee_api_operations.c:799
    18fa:	9b02      	ldr	r3, [sp, #8]
    18fc:	6023      	str	r3, [r4, #0]
/mnt/disk/raspbian-tee/optee_os/lib/libutee/tee_api_operations.c:800
    18fe:	4604      	mov	r4, r0
    1900:	b9b0      	cbnz	r0, 1930 <TEE_DigestDoFinal+0x60>
init_hash_operation():
/mnt/disk/raspbian-tee/optee_os/lib/libutee/tee_api_operations.c:759
    1902:	4602      	mov	r2, r0
    1904:	4601      	mov	r1, r0
    1906:	6be8      	ldr	r0, [r5, #60]	; 0x3c
    1908:	f000 ef7a 	blx	2800 <utee_hash_init>
/mnt/disk/raspbian-tee/optee_os/lib/libutee/tee_api_operations.c:760
    190c:	b108      	cbz	r0, 1912 <TEE_DigestDoFinal+0x42>
/mnt/disk/raspbian-tee/optee_os/lib/libutee/tee_api_operations.c:761
    190e:	f006 f846 	bl	799e <TEE_Panic>
/mnt/disk/raspbian-tee/optee_os/lib/libutee/tee_api_operations.c:763
    1912:	69eb      	ldr	r3, [r5, #28]
/mnt/disk/raspbian-tee/optee_os/lib/libutee/tee_api_operations.c:762
    1914:	2200      	movs	r2, #0
    1916:	63aa      	str	r2, [r5, #56]	; 0x38
/mnt/disk/raspbian-tee/optee_os/lib/libutee/tee_api_operations.c:763
    1918:	f443 3300 	orr.w	r3, r3, #131072	; 0x20000
TEE_DigestDoFinal():
/mnt/disk/raspbian-tee/optee_os/lib/libutee/tee_api_operations.c:806
    191c:	62aa      	str	r2, [r5, #40]	; 0x28
init_hash_operation():
/mnt/disk/raspbian-tee/optee_os/lib/libutee/tee_api_operations.c:763
    191e:	61eb      	str	r3, [r5, #28]
TEE_DigestDoFinal():
/mnt/disk/raspbian-tee/optee_os/lib/libutee/tee_api_operations.c:814
    1920:	4620      	mov	r0, r4
    1922:	b005      	add	sp, #20
    1924:	bd30      	pop	{r4, r5, pc}
    1926:	4c04      	ldr	r4, [pc, #16]	; (1938 <TEE_DigestDoFinal+0x68>)
/mnt/disk/raspbian-tee/optee_os/lib/libutee/tee_api_operations.c:811
    1928:	4620      	mov	r0, r4
    192a:	f006 f838 	bl	799e <TEE_Panic>
/mnt/disk/raspbian-tee/optee_os/lib/libutee/tee_api_operations.c:813
    192e:	e7f7      	b.n	1920 <TEE_DigestDoFinal+0x50>
/mnt/disk/raspbian-tee/optee_os/lib/libutee/tee_api_operations.c:809
    1930:	4b02      	ldr	r3, [pc, #8]	; (193c <TEE_DigestDoFinal+0x6c>)
    1932:	4298      	cmp	r0, r3
    1934:	d0f4      	beq.n	1920 <TEE_DigestDoFinal+0x50>
    1936:	e7f7      	b.n	1928 <TEE_DigestDoFinal+0x58>
    1938:	ffff0006 	.word	0xffff0006
    193c:	ffff0010 	.word	0xffff0010

00001940 <TEE_CipherInit>:
TEE_CipherInit():
/mnt/disk/raspbian-tee/optee_os/lib/libutee/tee_api_operations.c:820
    1940:	b570      	push	{r4, r5, r6, lr}
    1942:	460d      	mov	r5, r1
    1944:	4616      	mov	r6, r2
/mnt/disk/raspbian-tee/optee_os/lib/libutee/tee_api_operations.c:823
    1946:	4604      	mov	r4, r0
    1948:	b908      	cbnz	r0, 194e <TEE_CipherInit+0xe>
/mnt/disk/raspbian-tee/optee_os/lib/libutee/tee_api_operations.c:824
    194a:	f006 f828 	bl	799e <TEE_Panic>
/mnt/disk/raspbian-tee/optee_os/lib/libutee/tee_api_operations.c:826
    194e:	6863      	ldr	r3, [r4, #4]
    1950:	2b01      	cmp	r3, #1
    1952:	d002      	beq.n	195a <TEE_CipherInit+0x1a>
/mnt/disk/raspbian-tee/optee_os/lib/libutee/tee_api_operations.c:827
    1954:	2000      	movs	r0, #0
    1956:	f006 f822 	bl	799e <TEE_Panic>
/mnt/disk/raspbian-tee/optee_os/lib/libutee/tee_api_operations.c:829
    195a:	69e3      	ldr	r3, [r4, #28]
    195c:	035b      	lsls	r3, r3, #13
    195e:	d501      	bpl.n	1964 <TEE_CipherInit+0x24>
/mnt/disk/raspbian-tee/optee_os/lib/libutee/tee_api_operations.c:829 (discriminator 1)
    1960:	6a23      	ldr	r3, [r4, #32]
    1962:	b913      	cbnz	r3, 196a <TEE_CipherInit+0x2a>
/mnt/disk/raspbian-tee/optee_os/lib/libutee/tee_api_operations.c:831
    1964:	2000      	movs	r0, #0
    1966:	f006 f81a 	bl	799e <TEE_Panic>
/mnt/disk/raspbian-tee/optee_os/lib/libutee/tee_api_operations.c:833
    196a:	6aa3      	ldr	r3, [r4, #40]	; 0x28
    196c:	b113      	cbz	r3, 1974 <TEE_CipherInit+0x34>
/mnt/disk/raspbian-tee/optee_os/lib/libutee/tee_api_operations.c:834
    196e:	4620      	mov	r0, r4
    1970:	f7ff fe64 	bl	163c <TEE_ResetOperation>
/mnt/disk/raspbian-tee/optee_os/lib/libutee/tee_api_operations.c:836
    1974:	2301      	movs	r3, #1
/mnt/disk/raspbian-tee/optee_os/lib/libutee/tee_api_operations.c:838
    1976:	4632      	mov	r2, r6
/mnt/disk/raspbian-tee/optee_os/lib/libutee/tee_api_operations.c:836
    1978:	62a3      	str	r3, [r4, #40]	; 0x28
/mnt/disk/raspbian-tee/optee_os/lib/libutee/tee_api_operations.c:838
    197a:	4629      	mov	r1, r5
    197c:	6be0      	ldr	r0, [r4, #60]	; 0x3c
    197e:	f000 ef60 	blx	2840 <utee_cipher_init>
/mnt/disk/raspbian-tee/optee_os/lib/libutee/tee_api_operations.c:839
    1982:	b108      	cbz	r0, 1988 <TEE_CipherInit+0x48>
/mnt/disk/raspbian-tee/optee_os/lib/libutee/tee_api_operations.c:840
    1984:	f006 f80b 	bl	799e <TEE_Panic>
/mnt/disk/raspbian-tee/optee_os/lib/libutee/tee_api_operations.c:842
    1988:	2300      	movs	r3, #0
    198a:	63a3      	str	r3, [r4, #56]	; 0x38
/mnt/disk/raspbian-tee/optee_os/lib/libutee/tee_api_operations.c:843
    198c:	69e3      	ldr	r3, [r4, #28]
    198e:	f443 3300 	orr.w	r3, r3, #131072	; 0x20000
    1992:	61e3      	str	r3, [r4, #28]
    1994:	bd70      	pop	{r4, r5, r6, pc}

00001996 <TEE_CipherUpdate>:
TEE_CipherUpdate():
/mnt/disk/raspbian-tee/optee_os/lib/libutee/tee_api_operations.c:946
    1996:	b5f0      	push	{r4, r5, r6, r7, lr}
    1998:	4f36      	ldr	r7, [pc, #216]	; (1a74 <TEE_CipherUpdate+0xde>)
    199a:	b087      	sub	sp, #28
    199c:	447f      	add	r7, pc
    199e:	9d0c      	ldr	r5, [sp, #48]	; 0x30
/mnt/disk/raspbian-tee/optee_os/lib/libutee/tee_api_operations.c:951
    19a0:	2800      	cmp	r0, #0
    19a2:	d060      	beq.n	1a66 <TEE_CipherUpdate+0xd0>
/mnt/disk/raspbian-tee/optee_os/lib/libutee/tee_api_operations.c:951 (discriminator 1)
    19a4:	b909      	cbnz	r1, 19aa <TEE_CipherUpdate+0x14>
/mnt/disk/raspbian-tee/optee_os/lib/libutee/tee_api_operations.c:952
    19a6:	2a00      	cmp	r2, #0
    19a8:	d15d      	bne.n	1a66 <TEE_CipherUpdate+0xd0>
/mnt/disk/raspbian-tee/optee_os/lib/libutee/tee_api_operations.c:952 (discriminator 1)
    19aa:	2d00      	cmp	r5, #0
    19ac:	d05b      	beq.n	1a66 <TEE_CipherUpdate+0xd0>
/mnt/disk/raspbian-tee/optee_os/lib/libutee/tee_api_operations.c:953
    19ae:	b913      	cbnz	r3, 19b6 <TEE_CipherUpdate+0x20>
/mnt/disk/raspbian-tee/optee_os/lib/libutee/tee_api_operations.c:954
    19b0:	682c      	ldr	r4, [r5, #0]
    19b2:	2c00      	cmp	r4, #0
    19b4:	d157      	bne.n	1a66 <TEE_CipherUpdate+0xd0>
/mnt/disk/raspbian-tee/optee_os/lib/libutee/tee_api_operations.c:959
    19b6:	6844      	ldr	r4, [r0, #4]
    19b8:	2c01      	cmp	r4, #1
    19ba:	d154      	bne.n	1a66 <TEE_CipherUpdate+0xd0>
/mnt/disk/raspbian-tee/optee_os/lib/libutee/tee_api_operations.c:964
    19bc:	69c4      	ldr	r4, [r0, #28]
    19be:	03a4      	lsls	r4, r4, #14
    19c0:	d551      	bpl.n	1a66 <TEE_CipherUpdate+0xd0>
/mnt/disk/raspbian-tee/optee_os/lib/libutee/tee_api_operations.c:969
    19c2:	6a84      	ldr	r4, [r0, #40]	; 0x28
    19c4:	2c01      	cmp	r4, #1
    19c6:	d14e      	bne.n	1a66 <TEE_CipherUpdate+0xd0>
/mnt/disk/raspbian-tee/optee_os/lib/libutee/tee_api_operations.c:974
    19c8:	b929      	cbnz	r1, 19d6 <TEE_CipherUpdate+0x40>
/mnt/disk/raspbian-tee/optee_os/lib/libutee/tee_api_operations.c:974 (discriminator 1)
    19ca:	b922      	cbnz	r2, 19d6 <TEE_CipherUpdate+0x40>
/mnt/disk/raspbian-tee/optee_os/lib/libutee/tee_api_operations.c:976
    19cc:	4614      	mov	r4, r2
/mnt/disk/raspbian-tee/optee_os/lib/libutee/tee_api_operations.c:975
    19ce:	602a      	str	r2, [r5, #0]
/mnt/disk/raspbian-tee/optee_os/lib/libutee/tee_api_operations.c:1025
    19d0:	4620      	mov	r0, r4
    19d2:	b007      	add	sp, #28
    19d4:	bdf0      	pop	{r4, r5, r6, r7, pc}
/mnt/disk/raspbian-tee/optee_os/lib/libutee/tee_api_operations.c:981
    19d6:	6b46      	ldr	r6, [r0, #52]	; 0x34
    19d8:	2e01      	cmp	r6, #1
    19da:	d916      	bls.n	1a0a <TEE_CipherUpdate+0x74>
/mnt/disk/raspbian-tee/optee_os/lib/libutee/tee_api_operations.c:982
    19dc:	6b84      	ldr	r4, [r0, #56]	; 0x38
    19de:	4414      	add	r4, r2
    19e0:	fbb4 f4f6 	udiv	r4, r4, r6
    19e4:	4374      	muls	r4, r6
/mnt/disk/raspbian-tee/optee_os/lib/libutee/tee_api_operations.c:987
    19e6:	f890 c030 	ldrb.w	ip, [r0, #48]	; 0x30
    19ea:	f1bc 0f00 	cmp.w	ip, #0
    19ee:	d005      	beq.n	19fc <TEE_CipherUpdate+0x66>
/mnt/disk/raspbian-tee/optee_os/lib/libutee/tee_api_operations.c:988
    19f0:	ea4f 0c46 	mov.w	ip, r6, lsl #1
    19f4:	4564      	cmp	r4, ip
    19f6:	d90a      	bls.n	1a0e <TEE_CipherUpdate+0x78>
/mnt/disk/raspbian-tee/optee_os/lib/libutee/tee_api_operations.c:989
    19f8:	eba4 040c 	sub.w	r4, r4, ip
/mnt/disk/raspbian-tee/optee_os/lib/libutee/tee_api_operations.c:998
    19fc:	f8d5 c000 	ldr.w	ip, [r5]
    1a00:	4564      	cmp	r4, ip
    1a02:	d906      	bls.n	1a12 <TEE_CipherUpdate+0x7c>
/mnt/disk/raspbian-tee/optee_os/lib/libutee/tee_api_operations.c:999
    1a04:	602c      	str	r4, [r5, #0]
    1a06:	4c19      	ldr	r4, [pc, #100]	; (1a6c <TEE_CipherUpdate+0xd6>)
    1a08:	e7e2      	b.n	19d0 <TEE_CipherUpdate+0x3a>
    1a0a:	4614      	mov	r4, r2
    1a0c:	e7eb      	b.n	19e6 <TEE_CipherUpdate+0x50>
/mnt/disk/raspbian-tee/optee_os/lib/libutee/tee_api_operations.c:991
    1a0e:	2400      	movs	r4, #0
    1a10:	e7f4      	b.n	19fc <TEE_CipherUpdate+0x66>
/mnt/disk/raspbian-tee/optee_os/lib/libutee/tee_api_operations.c:1004
    1a12:	2400      	movs	r4, #0
    1a14:	f8cd c010 	str.w	ip, [sp, #16]
    1a18:	9405      	str	r4, [sp, #20]
/mnt/disk/raspbian-tee/optee_os/lib/libutee/tee_api_operations.c:1005
    1a1a:	2e01      	cmp	r6, #1
    1a1c:	d916      	bls.n	1a4c <TEE_CipherUpdate+0xb6>
/mnt/disk/raspbian-tee/optee_os/lib/libutee/tee_api_operations.c:1006
    1a1e:	4c16      	ldr	r4, [pc, #88]	; (1a78 <TEE_CipherUpdate+0xe2>)
    1a20:	593c      	ldr	r4, [r7, r4]
    1a22:	9403      	str	r4, [sp, #12]
    1a24:	ac04      	add	r4, sp, #16
    1a26:	e88d 0018 	stmia.w	sp, {r3, r4}
    1a2a:	4613      	mov	r3, r2
    1a2c:	460a      	mov	r2, r1
    1a2e:	9903      	ldr	r1, [sp, #12]
    1a30:	f7ff fa32 	bl	e98 <tee_buffer_update>
/mnt/disk/raspbian-tee/optee_os/lib/libutee/tee_api_operations.c:1010
    1a34:	4604      	mov	r4, r0
/mnt/disk/raspbian-tee/optee_os/lib/libutee/tee_api_operations.c:1017
    1a36:	9b04      	ldr	r3, [sp, #16]
    1a38:	602b      	str	r3, [r5, #0]
/mnt/disk/raspbian-tee/optee_os/lib/libutee/tee_api_operations.c:1020
    1a3a:	2c00      	cmp	r4, #0
    1a3c:	d0c8      	beq.n	19d0 <TEE_CipherUpdate+0x3a>
/mnt/disk/raspbian-tee/optee_os/lib/libutee/tee_api_operations.c:1020 (discriminator 1)
    1a3e:	4b0b      	ldr	r3, [pc, #44]	; (1a6c <TEE_CipherUpdate+0xd6>)
    1a40:	429c      	cmp	r4, r3
    1a42:	d0c5      	beq.n	19d0 <TEE_CipherUpdate+0x3a>
/mnt/disk/raspbian-tee/optee_os/lib/libutee/tee_api_operations.c:1022
    1a44:	4620      	mov	r0, r4
    1a46:	f005 ffaa 	bl	799e <TEE_Panic>
/mnt/disk/raspbian-tee/optee_os/lib/libutee/tee_api_operations.c:1024
    1a4a:	e7c1      	b.n	19d0 <TEE_CipherUpdate+0x3a>
/mnt/disk/raspbian-tee/optee_os/lib/libutee/tee_api_operations.c:1009
    1a4c:	b12a      	cbz	r2, 1a5a <TEE_CipherUpdate+0xc4>
/mnt/disk/raspbian-tee/optee_os/lib/libutee/tee_api_operations.c:1010
    1a4e:	ac04      	add	r4, sp, #16
    1a50:	9400      	str	r4, [sp, #0]
    1a52:	6bc0      	ldr	r0, [r0, #60]	; 0x3c
    1a54:	f000 eefe 	blx	2854 <utee_cipher_update>
    1a58:	e7ec      	b.n	1a34 <TEE_CipherUpdate+0x9e>
/mnt/disk/raspbian-tee/optee_os/lib/libutee/tee_api_operations.c:1014
    1a5a:	2000      	movs	r0, #0
    1a5c:	2100      	movs	r1, #0
/mnt/disk/raspbian-tee/optee_os/lib/libutee/tee_api_operations.c:1013
    1a5e:	4614      	mov	r4, r2
/mnt/disk/raspbian-tee/optee_os/lib/libutee/tee_api_operations.c:1014
    1a60:	e9cd 0104 	strd	r0, r1, [sp, #16]
    1a64:	e7e7      	b.n	1a36 <TEE_CipherUpdate+0xa0>
    1a66:	4c02      	ldr	r4, [pc, #8]	; (1a70 <TEE_CipherUpdate+0xda>)
    1a68:	e7ec      	b.n	1a44 <TEE_CipherUpdate+0xae>
    1a6a:	bf00      	nop
    1a6c:	ffff0010 	.word	0xffff0010
    1a70:	ffff0006 	.word	0xffff0006
    1a74:	000078e4 	.word	0x000078e4
    1a78:	0000002c 	.word	0x0000002c

00001a7c <TEE_CipherDoFinal>:
TEE_CipherDoFinal():
/mnt/disk/raspbian-tee/optee_os/lib/libutee/tee_api_operations.c:1030
    1a7c:	e92d 43f0 	stmdb	sp!, {r4, r5, r6, r7, r8, r9, lr}
    1a80:	4698      	mov	r8, r3
    1a82:	4c40      	ldr	r4, [pc, #256]	; (1b84 <TEE_CipherDoFinal+0x108>)
    1a84:	b087      	sub	sp, #28
/mnt/disk/raspbian-tee/optee_os/lib/libutee/tee_api_operations.c:1037
    1a86:	4605      	mov	r5, r0
/mnt/disk/raspbian-tee/optee_os/lib/libutee/tee_api_operations.c:1030
    1a88:	447c      	add	r4, pc
    1a8a:	9f0e      	ldr	r7, [sp, #56]	; 0x38
/mnt/disk/raspbian-tee/optee_os/lib/libutee/tee_api_operations.c:1037
    1a8c:	2800      	cmp	r0, #0
    1a8e:	d069      	beq.n	1b64 <TEE_CipherDoFinal+0xe8>
/mnt/disk/raspbian-tee/optee_os/lib/libutee/tee_api_operations.c:1037 (discriminator 1)
    1a90:	b909      	cbnz	r1, 1a96 <TEE_CipherDoFinal+0x1a>
/mnt/disk/raspbian-tee/optee_os/lib/libutee/tee_api_operations.c:1038
    1a92:	2a00      	cmp	r2, #0
    1a94:	d166      	bne.n	1b64 <TEE_CipherDoFinal+0xe8>
/mnt/disk/raspbian-tee/optee_os/lib/libutee/tee_api_operations.c:1038 (discriminator 1)
    1a96:	2f00      	cmp	r7, #0
    1a98:	d064      	beq.n	1b64 <TEE_CipherDoFinal+0xe8>
/mnt/disk/raspbian-tee/optee_os/lib/libutee/tee_api_operations.c:1039
    1a9a:	f1b8 0f00 	cmp.w	r8, #0
    1a9e:	d102      	bne.n	1aa6 <TEE_CipherDoFinal+0x2a>
/mnt/disk/raspbian-tee/optee_os/lib/libutee/tee_api_operations.c:1040
    1aa0:	683b      	ldr	r3, [r7, #0]
    1aa2:	2b00      	cmp	r3, #0
    1aa4:	d15e      	bne.n	1b64 <TEE_CipherDoFinal+0xe8>
/mnt/disk/raspbian-tee/optee_os/lib/libutee/tee_api_operations.c:1045
    1aa6:	686b      	ldr	r3, [r5, #4]
    1aa8:	2b01      	cmp	r3, #1
    1aaa:	d15b      	bne.n	1b64 <TEE_CipherDoFinal+0xe8>
/mnt/disk/raspbian-tee/optee_os/lib/libutee/tee_api_operations.c:1050
    1aac:	69eb      	ldr	r3, [r5, #28]
    1aae:	039b      	lsls	r3, r3, #14
    1ab0:	d558      	bpl.n	1b64 <TEE_CipherDoFinal+0xe8>
/mnt/disk/raspbian-tee/optee_os/lib/libutee/tee_api_operations.c:1055
    1ab2:	6aab      	ldr	r3, [r5, #40]	; 0x28
    1ab4:	2b01      	cmp	r3, #1
    1ab6:	d155      	bne.n	1b64 <TEE_CipherDoFinal+0xe8>
/mnt/disk/raspbian-tee/optee_os/lib/libutee/tee_api_operations.c:1064
    1ab8:	682b      	ldr	r3, [r5, #0]
    1aba:	f423 7380 	bic.w	r3, r3, #256	; 0x100
    1abe:	f103 4070 	add.w	r0, r3, #4026531840	; 0xf0000000
    1ac2:	3810      	subs	r0, #16
    1ac4:	2801      	cmp	r0, #1
    1ac6:	6b68      	ldr	r0, [r5, #52]	; 0x34
    1ac8:	d902      	bls.n	1ad0 <TEE_CipherDoFinal+0x54>
/mnt/disk/raspbian-tee/optee_os/lib/libutee/tee_api_operations.c:1067 (discriminator 1)
    1aca:	4e2b      	ldr	r6, [pc, #172]	; (1b78 <TEE_CipherDoFinal+0xfc>)
    1acc:	42b3      	cmp	r3, r6
    1ace:	d107      	bne.n	1ae0 <TEE_CipherDoFinal+0x64>
/mnt/disk/raspbian-tee/optee_os/lib/libutee/tee_api_operations.c:1070
    1ad0:	6bab      	ldr	r3, [r5, #56]	; 0x38
    1ad2:	4413      	add	r3, r2
    1ad4:	fbb3 f6f0 	udiv	r6, r3, r0
    1ad8:	fb00 3316 	mls	r3, r0, r6, r3
    1adc:	2b00      	cmp	r3, #0
    1ade:	d141      	bne.n	1b64 <TEE_CipherDoFinal+0xe8>
/mnt/disk/raspbian-tee/optee_os/lib/libutee/tee_api_operations.c:1082
    1ae0:	2801      	cmp	r0, #1
    1ae2:	d90b      	bls.n	1afc <TEE_CipherDoFinal+0x80>
/mnt/disk/raspbian-tee/optee_os/lib/libutee/tee_api_operations.c:1083
    1ae4:	6bab      	ldr	r3, [r5, #56]	; 0x38
    1ae6:	4413      	add	r3, r2
/mnt/disk/raspbian-tee/optee_os/lib/libutee/tee_api_operations.c:1087
    1ae8:	f8d7 c000 	ldr.w	ip, [r7]
    1aec:	4563      	cmp	r3, ip
    1aee:	d907      	bls.n	1b00 <TEE_CipherDoFinal+0x84>
/mnt/disk/raspbian-tee/optee_os/lib/libutee/tee_api_operations.c:1088
    1af0:	4c22      	ldr	r4, [pc, #136]	; (1b7c <TEE_CipherDoFinal+0x100>)
    1af2:	603b      	str	r3, [r7, #0]
/mnt/disk/raspbian-tee/optee_os/lib/libutee/tee_api_operations.c:1126
    1af4:	4620      	mov	r0, r4
    1af6:	b007      	add	sp, #28
    1af8:	e8bd 83f0 	ldmia.w	sp!, {r4, r5, r6, r7, r8, r9, pc}
    1afc:	4613      	mov	r3, r2
    1afe:	e7f3      	b.n	1ae8 <TEE_CipherDoFinal+0x6c>
/mnt/disk/raspbian-tee/optee_os/lib/libutee/tee_api_operations.c:1093
    1b00:	2600      	movs	r6, #0
    1b02:	f8cd c010 	str.w	ip, [sp, #16]
    1b06:	9605      	str	r6, [sp, #20]
/mnt/disk/raspbian-tee/optee_os/lib/libutee/tee_api_operations.c:1094
    1b08:	2801      	cmp	r0, #1
    1b0a:	f10d 0910 	add.w	r9, sp, #16
    1b0e:	d925      	bls.n	1b5c <TEE_CipherDoFinal+0xe0>
/mnt/disk/raspbian-tee/optee_os/lib/libutee/tee_api_operations.c:1095
    1b10:	4b1d      	ldr	r3, [pc, #116]	; (1b88 <TEE_CipherDoFinal+0x10c>)
    1b12:	4628      	mov	r0, r5
    1b14:	58e3      	ldr	r3, [r4, r3]
    1b16:	9303      	str	r3, [sp, #12]
    1b18:	4613      	mov	r3, r2
    1b1a:	e88d 0300 	stmia.w	sp, {r8, r9}
    1b1e:	460a      	mov	r2, r1
    1b20:	9903      	ldr	r1, [sp, #12]
    1b22:	f7ff f9b9 	bl	e98 <tee_buffer_update>
/mnt/disk/raspbian-tee/optee_os/lib/libutee/tee_api_operations.c:1097
    1b26:	4604      	mov	r4, r0
    1b28:	bb08      	cbnz	r0, 1b6e <TEE_CipherDoFinal+0xf2>
/mnt/disk/raspbian-tee/optee_os/lib/libutee/tee_api_operations.c:1103
    1b2a:	683b      	ldr	r3, [r7, #0]
/mnt/disk/raspbian-tee/optee_os/lib/libutee/tee_api_operations.c:1104
    1b2c:	f8cd 9000 	str.w	r9, [sp]
/mnt/disk/raspbian-tee/optee_os/lib/libutee/tee_api_operations.c:1100
    1b30:	9e04      	ldr	r6, [sp, #16]
/mnt/disk/raspbian-tee/optee_os/lib/libutee/tee_api_operations.c:1104
    1b32:	6baa      	ldr	r2, [r5, #56]	; 0x38
    1b34:	6ae9      	ldr	r1, [r5, #44]	; 0x2c
/mnt/disk/raspbian-tee/optee_os/lib/libutee/tee_api_operations.c:1103
    1b36:	1b9b      	subs	r3, r3, r6
    1b38:	9304      	str	r3, [sp, #16]
/mnt/disk/raspbian-tee/optee_os/lib/libutee/tee_api_operations.c:1104
    1b3a:	eb08 0306 	add.w	r3, r8, r6
/mnt/disk/raspbian-tee/optee_os/lib/libutee/tee_api_operations.c:1103
    1b3e:	9005      	str	r0, [sp, #20]
/mnt/disk/raspbian-tee/optee_os/lib/libutee/tee_api_operations.c:1107
    1b40:	6be8      	ldr	r0, [r5, #60]	; 0x3c
    1b42:	f000 ee94 	blx	286c <utee_cipher_final>
    1b46:	4604      	mov	r4, r0
/mnt/disk/raspbian-tee/optee_os/lib/libutee/tee_api_operations.c:1110
    1b48:	b988      	cbnz	r0, 1b6e <TEE_CipherDoFinal+0xf2>
/mnt/disk/raspbian-tee/optee_os/lib/libutee/tee_api_operations.c:1113
    1b4a:	9b04      	ldr	r3, [sp, #16]
    1b4c:	441e      	add	r6, r3
/mnt/disk/raspbian-tee/optee_os/lib/libutee/tee_api_operations.c:1114
    1b4e:	603e      	str	r6, [r7, #0]
/mnt/disk/raspbian-tee/optee_os/lib/libutee/tee_api_operations.c:1118
    1b50:	62a8      	str	r0, [r5, #40]	; 0x28
/mnt/disk/raspbian-tee/optee_os/lib/libutee/tee_api_operations.c:1116
    1b52:	69eb      	ldr	r3, [r5, #28]
    1b54:	f423 3300 	bic.w	r3, r3, #131072	; 0x20000
    1b58:	61eb      	str	r3, [r5, #28]
    1b5a:	e7cb      	b.n	1af4 <TEE_CipherDoFinal+0x78>
/mnt/disk/raspbian-tee/optee_os/lib/libutee/tee_api_operations.c:1107
    1b5c:	f8cd 9000 	str.w	r9, [sp]
    1b60:	4643      	mov	r3, r8
    1b62:	e7ed      	b.n	1b40 <TEE_CipherDoFinal+0xc4>
    1b64:	4c06      	ldr	r4, [pc, #24]	; (1b80 <TEE_CipherDoFinal+0x104>)
/mnt/disk/raspbian-tee/optee_os/lib/libutee/tee_api_operations.c:1123
    1b66:	4620      	mov	r0, r4
    1b68:	f005 ff19 	bl	799e <TEE_Panic>
/mnt/disk/raspbian-tee/optee_os/lib/libutee/tee_api_operations.c:1125
    1b6c:	e7c2      	b.n	1af4 <TEE_CipherDoFinal+0x78>
/mnt/disk/raspbian-tee/optee_os/lib/libutee/tee_api_operations.c:1121
    1b6e:	4b03      	ldr	r3, [pc, #12]	; (1b7c <TEE_CipherDoFinal+0x100>)
    1b70:	429c      	cmp	r4, r3
    1b72:	d0bf      	beq.n	1af4 <TEE_CipherDoFinal+0x78>
    1b74:	e7f7      	b.n	1b66 <TEE_CipherDoFinal+0xea>
    1b76:	bf00      	nop
    1b78:	10000013 	.word	0x10000013
    1b7c:	ffff0010 	.word	0xffff0010
    1b80:	ffff0006 	.word	0xffff0006
    1b84:	000077f8 	.word	0x000077f8
    1b88:	0000002c 	.word	0x0000002c

00001b8c <TEE_MACInit>:
TEE_MACInit():
/mnt/disk/raspbian-tee/optee_os/lib/libutee/tee_api_operations.c:1131
    1b8c:	b570      	push	{r4, r5, r6, lr}
    1b8e:	460d      	mov	r5, r1
    1b90:	4616      	mov	r6, r2
/mnt/disk/raspbian-tee/optee_os/lib/libutee/tee_api_operations.c:1132
    1b92:	4604      	mov	r4, r0
    1b94:	b908      	cbnz	r0, 1b9a <TEE_MACInit+0xe>
/mnt/disk/raspbian-tee/optee_os/lib/libutee/tee_api_operations.c:1133
    1b96:	f005 ff02 	bl	799e <TEE_Panic>
/mnt/disk/raspbian-tee/optee_os/lib/libutee/tee_api_operations.c:1135
    1b9a:	6863      	ldr	r3, [r4, #4]
    1b9c:	2b03      	cmp	r3, #3
    1b9e:	d002      	beq.n	1ba6 <TEE_MACInit+0x1a>
/mnt/disk/raspbian-tee/optee_os/lib/libutee/tee_api_operations.c:1136
    1ba0:	2000      	movs	r0, #0
    1ba2:	f005 fefc 	bl	799e <TEE_Panic>
/mnt/disk/raspbian-tee/optee_os/lib/libutee/tee_api_operations.c:1138
    1ba6:	69e3      	ldr	r3, [r4, #28]
    1ba8:	035b      	lsls	r3, r3, #13
    1baa:	d501      	bpl.n	1bb0 <TEE_MACInit+0x24>
/mnt/disk/raspbian-tee/optee_os/lib/libutee/tee_api_operations.c:1138 (discriminator 1)
    1bac:	6a23      	ldr	r3, [r4, #32]
    1bae:	b913      	cbnz	r3, 1bb6 <TEE_MACInit+0x2a>
/mnt/disk/raspbian-tee/optee_os/lib/libutee/tee_api_operations.c:1140
    1bb0:	2000      	movs	r0, #0
    1bb2:	f005 fef4 	bl	799e <TEE_Panic>
/mnt/disk/raspbian-tee/optee_os/lib/libutee/tee_api_operations.c:1142
    1bb6:	6aa3      	ldr	r3, [r4, #40]	; 0x28
    1bb8:	b113      	cbz	r3, 1bc0 <TEE_MACInit+0x34>
/mnt/disk/raspbian-tee/optee_os/lib/libutee/tee_api_operations.c:1143
    1bba:	4620      	mov	r0, r4
    1bbc:	f7ff fd3e 	bl	163c <TEE_ResetOperation>
/mnt/disk/raspbian-tee/optee_os/lib/libutee/tee_api_operations.c:1145
    1bc0:	2301      	movs	r3, #1
init_hash_operation():
/mnt/disk/raspbian-tee/optee_os/lib/libutee/tee_api_operations.c:759
    1bc2:	4632      	mov	r2, r6
TEE_MACInit():
/mnt/disk/raspbian-tee/optee_os/lib/libutee/tee_api_operations.c:1145
    1bc4:	62a3      	str	r3, [r4, #40]	; 0x28
init_hash_operation():
/mnt/disk/raspbian-tee/optee_os/lib/libutee/tee_api_operations.c:759
    1bc6:	4629      	mov	r1, r5
    1bc8:	6be0      	ldr	r0, [r4, #60]	; 0x3c
    1bca:	f000 ee1a 	blx	2800 <utee_hash_init>
/mnt/disk/raspbian-tee/optee_os/lib/libutee/tee_api_operations.c:760
    1bce:	b108      	cbz	r0, 1bd4 <TEE_MACInit+0x48>
/mnt/disk/raspbian-tee/optee_os/lib/libutee/tee_api_operations.c:761
    1bd0:	f005 fee5 	bl	799e <TEE_Panic>
/mnt/disk/raspbian-tee/optee_os/lib/libutee/tee_api_operations.c:762
    1bd4:	2300      	movs	r3, #0
    1bd6:	63a3      	str	r3, [r4, #56]	; 0x38
/mnt/disk/raspbian-tee/optee_os/lib/libutee/tee_api_operations.c:763
    1bd8:	69e3      	ldr	r3, [r4, #28]
    1bda:	f443 3300 	orr.w	r3, r3, #131072	; 0x20000
    1bde:	61e3      	str	r3, [r4, #28]
    1be0:	bd70      	pop	{r4, r5, r6, pc}

00001be2 <TEE_MACUpdate>:
TEE_MACUpdate():
/mnt/disk/raspbian-tee/optee_os/lib/libutee/tee_api_operations.c:1152
    1be2:	b570      	push	{r4, r5, r6, lr}
    1be4:	460d      	mov	r5, r1
    1be6:	4616      	mov	r6, r2
/mnt/disk/raspbian-tee/optee_os/lib/libutee/tee_api_operations.c:1155
    1be8:	4604      	mov	r4, r0
    1bea:	b108      	cbz	r0, 1bf0 <TEE_MACUpdate+0xe>
/mnt/disk/raspbian-tee/optee_os/lib/libutee/tee_api_operations.c:1155 (discriminator 1)
    1bec:	b919      	cbnz	r1, 1bf6 <TEE_MACUpdate+0x14>
/mnt/disk/raspbian-tee/optee_os/lib/libutee/tee_api_operations.c:1155 (discriminator 2)
    1bee:	b112      	cbz	r2, 1bf6 <TEE_MACUpdate+0x14>
/mnt/disk/raspbian-tee/optee_os/lib/libutee/tee_api_operations.c:1156
    1bf0:	2000      	movs	r0, #0
    1bf2:	f005 fed4 	bl	799e <TEE_Panic>
/mnt/disk/raspbian-tee/optee_os/lib/libutee/tee_api_operations.c:1158
    1bf6:	6863      	ldr	r3, [r4, #4]
    1bf8:	2b03      	cmp	r3, #3
    1bfa:	d002      	beq.n	1c02 <TEE_MACUpdate+0x20>
/mnt/disk/raspbian-tee/optee_os/lib/libutee/tee_api_operations.c:1159
    1bfc:	2000      	movs	r0, #0
    1bfe:	f005 fece 	bl	799e <TEE_Panic>
/mnt/disk/raspbian-tee/optee_os/lib/libutee/tee_api_operations.c:1161
    1c02:	69e0      	ldr	r0, [r4, #28]
    1c04:	f410 3000 	ands.w	r0, r0, #131072	; 0x20000
    1c08:	d101      	bne.n	1c0e <TEE_MACUpdate+0x2c>
/mnt/disk/raspbian-tee/optee_os/lib/libutee/tee_api_operations.c:1162
    1c0a:	f005 fec8 	bl	799e <TEE_Panic>
/mnt/disk/raspbian-tee/optee_os/lib/libutee/tee_api_operations.c:1164
    1c0e:	6aa3      	ldr	r3, [r4, #40]	; 0x28
    1c10:	2b01      	cmp	r3, #1
    1c12:	d002      	beq.n	1c1a <TEE_MACUpdate+0x38>
/mnt/disk/raspbian-tee/optee_os/lib/libutee/tee_api_operations.c:1165
    1c14:	2000      	movs	r0, #0
    1c16:	f005 fec2 	bl	799e <TEE_Panic>
/mnt/disk/raspbian-tee/optee_os/lib/libutee/tee_api_operations.c:1167
    1c1a:	4632      	mov	r2, r6
    1c1c:	4629      	mov	r1, r5
    1c1e:	6be0      	ldr	r0, [r4, #60]	; 0x3c
    1c20:	f000 edf8 	blx	2814 <utee_hash_update>
/mnt/disk/raspbian-tee/optee_os/lib/libutee/tee_api_operations.c:1168
    1c24:	b118      	cbz	r0, 1c2e <TEE_MACUpdate+0x4c>
/mnt/disk/raspbian-tee/optee_os/lib/libutee/tee_api_operations.c:1170
    1c26:	e8bd 4070 	ldmia.w	sp!, {r4, r5, r6, lr}
/mnt/disk/raspbian-tee/optee_os/lib/libutee/tee_api_operations.c:1169
    1c2a:	f005 beb8 	b.w	799e <TEE_Panic>
    1c2e:	bd70      	pop	{r4, r5, r6, pc}

00001c30 <TEE_MACComputeFinal>:
TEE_MACComputeFinal():
/mnt/disk/raspbian-tee/optee_os/lib/libutee/tee_api_operations.c:1175
    1c30:	b530      	push	{r4, r5, lr}
/mnt/disk/raspbian-tee/optee_os/lib/libutee/tee_api_operations.c:1179
    1c32:	4605      	mov	r5, r0
/mnt/disk/raspbian-tee/optee_os/lib/libutee/tee_api_operations.c:1175
    1c34:	b085      	sub	sp, #20
    1c36:	9c08      	ldr	r4, [sp, #32]
/mnt/disk/raspbian-tee/optee_os/lib/libutee/tee_api_operations.c:1179
    1c38:	b308      	cbz	r0, 1c7e <TEE_MACComputeFinal+0x4e>
/mnt/disk/raspbian-tee/optee_os/lib/libutee/tee_api_operations.c:1179 (discriminator 1)
    1c3a:	b901      	cbnz	r1, 1c3e <TEE_MACComputeFinal+0xe>
/mnt/disk/raspbian-tee/optee_os/lib/libutee/tee_api_operations.c:1180
    1c3c:	b9fa      	cbnz	r2, 1c7e <TEE_MACComputeFinal+0x4e>
/mnt/disk/raspbian-tee/optee_os/lib/libutee/tee_api_operations.c:1180 (discriminator 1)
    1c3e:	b1f3      	cbz	r3, 1c7e <TEE_MACComputeFinal+0x4e>
/mnt/disk/raspbian-tee/optee_os/lib/libutee/tee_api_operations.c:1181
    1c40:	b1ec      	cbz	r4, 1c7e <TEE_MACComputeFinal+0x4e>
/mnt/disk/raspbian-tee/optee_os/lib/libutee/tee_api_operations.c:1187
    1c42:	6868      	ldr	r0, [r5, #4]
    1c44:	2803      	cmp	r0, #3
    1c46:	d11a      	bne.n	1c7e <TEE_MACComputeFinal+0x4e>
/mnt/disk/raspbian-tee/optee_os/lib/libutee/tee_api_operations.c:1192
    1c48:	69e8      	ldr	r0, [r5, #28]
    1c4a:	0380      	lsls	r0, r0, #14
    1c4c:	d517      	bpl.n	1c7e <TEE_MACComputeFinal+0x4e>
/mnt/disk/raspbian-tee/optee_os/lib/libutee/tee_api_operations.c:1197
    1c4e:	6aa8      	ldr	r0, [r5, #40]	; 0x28
    1c50:	2801      	cmp	r0, #1
    1c52:	d114      	bne.n	1c7e <TEE_MACComputeFinal+0x4e>
/mnt/disk/raspbian-tee/optee_os/lib/libutee/tee_api_operations.c:1202
    1c54:	6820      	ldr	r0, [r4, #0]
    1c56:	9002      	str	r0, [sp, #8]
    1c58:	2000      	movs	r0, #0
    1c5a:	9003      	str	r0, [sp, #12]
/mnt/disk/raspbian-tee/optee_os/lib/libutee/tee_api_operations.c:1203
    1c5c:	a802      	add	r0, sp, #8
    1c5e:	9000      	str	r0, [sp, #0]
    1c60:	6be8      	ldr	r0, [r5, #60]	; 0x3c
    1c62:	f000 ede2 	blx	2828 <utee_hash_final>
/mnt/disk/raspbian-tee/optee_os/lib/libutee/tee_api_operations.c:1204
    1c66:	9b02      	ldr	r3, [sp, #8]
    1c68:	6023      	str	r3, [r4, #0]
/mnt/disk/raspbian-tee/optee_os/lib/libutee/tee_api_operations.c:1205
    1c6a:	4604      	mov	r4, r0
    1c6c:	b960      	cbnz	r0, 1c88 <TEE_MACComputeFinal+0x58>
/mnt/disk/raspbian-tee/optee_os/lib/libutee/tee_api_operations.c:1208
    1c6e:	69eb      	ldr	r3, [r5, #28]
/mnt/disk/raspbian-tee/optee_os/lib/libutee/tee_api_operations.c:1210
    1c70:	62a8      	str	r0, [r5, #40]	; 0x28
/mnt/disk/raspbian-tee/optee_os/lib/libutee/tee_api_operations.c:1208
    1c72:	f423 3300 	bic.w	r3, r3, #131072	; 0x20000
    1c76:	61eb      	str	r3, [r5, #28]
/mnt/disk/raspbian-tee/optee_os/lib/libutee/tee_api_operations.c:1218
    1c78:	4620      	mov	r0, r4
    1c7a:	b005      	add	sp, #20
    1c7c:	bd30      	pop	{r4, r5, pc}
    1c7e:	4c04      	ldr	r4, [pc, #16]	; (1c90 <TEE_MACComputeFinal+0x60>)
/mnt/disk/raspbian-tee/optee_os/lib/libutee/tee_api_operations.c:1215
    1c80:	4620      	mov	r0, r4
    1c82:	f005 fe8c 	bl	799e <TEE_Panic>
/mnt/disk/raspbian-tee/optee_os/lib/libutee/tee_api_operations.c:1217
    1c86:	e7f7      	b.n	1c78 <TEE_MACComputeFinal+0x48>
/mnt/disk/raspbian-tee/optee_os/lib/libutee/tee_api_operations.c:1213
    1c88:	4b02      	ldr	r3, [pc, #8]	; (1c94 <TEE_MACComputeFinal+0x64>)
    1c8a:	4298      	cmp	r0, r3
    1c8c:	d0f4      	beq.n	1c78 <TEE_MACComputeFinal+0x48>
    1c8e:	e7f7      	b.n	1c80 <TEE_MACComputeFinal+0x50>
    1c90:	ffff0006 	.word	0xffff0006
    1c94:	ffff0010 	.word	0xffff0010

00001c98 <TEE_MACCompareFinal>:
TEE_MACCompareFinal():
/mnt/disk/raspbian-tee/optee_os/lib/libutee/tee_api_operations.c:1223
    1c98:	b5f0      	push	{r4, r5, r6, r7, lr}
    1c9a:	461f      	mov	r7, r3
/mnt/disk/raspbian-tee/optee_os/lib/libutee/tee_api_operations.c:1226
    1c9c:	2340      	movs	r3, #64	; 0x40
/mnt/disk/raspbian-tee/optee_os/lib/libutee/tee_api_operations.c:1223
    1c9e:	b095      	sub	sp, #84	; 0x54
    1ca0:	4605      	mov	r5, r0
/mnt/disk/raspbian-tee/optee_os/lib/libutee/tee_api_operations.c:1226
    1ca2:	9303      	str	r3, [sp, #12]
/mnt/disk/raspbian-tee/optee_os/lib/libutee/tee_api_operations.c:1228
    1ca4:	6843      	ldr	r3, [r0, #4]
    1ca6:	2b03      	cmp	r3, #3
    1ca8:	d11a      	bne.n	1ce0 <TEE_MACCompareFinal+0x48>
/mnt/disk/raspbian-tee/optee_os/lib/libutee/tee_api_operations.c:1233
    1caa:	69c3      	ldr	r3, [r0, #28]
    1cac:	039b      	lsls	r3, r3, #14
    1cae:	d517      	bpl.n	1ce0 <TEE_MACCompareFinal+0x48>
/mnt/disk/raspbian-tee/optee_os/lib/libutee/tee_api_operations.c:1238
    1cb0:	6a83      	ldr	r3, [r0, #40]	; 0x28
    1cb2:	2b01      	cmp	r3, #1
    1cb4:	d114      	bne.n	1ce0 <TEE_MACCompareFinal+0x48>
/mnt/disk/raspbian-tee/optee_os/lib/libutee/tee_api_operations.c:1243
    1cb6:	ae04      	add	r6, sp, #16
    1cb8:	ab03      	add	r3, sp, #12
    1cba:	9300      	str	r3, [sp, #0]
    1cbc:	4633      	mov	r3, r6
    1cbe:	f7ff ffb7 	bl	1c30 <TEE_MACComputeFinal>
/mnt/disk/raspbian-tee/optee_os/lib/libutee/tee_api_operations.c:1245
    1cc2:	4604      	mov	r4, r0
    1cc4:	b988      	cbnz	r0, 1cea <TEE_MACCompareFinal+0x52>
/mnt/disk/raspbian-tee/optee_os/lib/libutee/tee_api_operations.c:1248
    1cc6:	9a03      	ldr	r2, [sp, #12]
    1cc8:	9b1a      	ldr	r3, [sp, #104]	; 0x68
    1cca:	429a      	cmp	r2, r3
    1ccc:	d110      	bne.n	1cf0 <TEE_MACCompareFinal+0x58>
/mnt/disk/raspbian-tee/optee_os/lib/libutee/tee_api_operations.c:1253
    1cce:	4631      	mov	r1, r6
    1cd0:	4638      	mov	r0, r7
    1cd2:	f005 feb8 	bl	7a46 <buf_compare_ct>
    1cd6:	b958      	cbnz	r0, 1cf0 <TEE_MACCompareFinal+0x58>
/mnt/disk/raspbian-tee/optee_os/lib/libutee/tee_api_operations.c:1258
    1cd8:	62ac      	str	r4, [r5, #40]	; 0x28
/mnt/disk/raspbian-tee/optee_os/lib/libutee/tee_api_operations.c:1266
    1cda:	4620      	mov	r0, r4
    1cdc:	b015      	add	sp, #84	; 0x54
    1cde:	bdf0      	pop	{r4, r5, r6, r7, pc}
    1ce0:	4c04      	ldr	r4, [pc, #16]	; (1cf4 <TEE_MACCompareFinal+0x5c>)
/mnt/disk/raspbian-tee/optee_os/lib/libutee/tee_api_operations.c:1263
    1ce2:	4620      	mov	r0, r4
    1ce4:	f005 fe5b 	bl	799e <TEE_Panic>
/mnt/disk/raspbian-tee/optee_os/lib/libutee/tee_api_operations.c:1265
    1ce8:	e7f7      	b.n	1cda <TEE_MACCompareFinal+0x42>
/mnt/disk/raspbian-tee/optee_os/lib/libutee/tee_api_operations.c:1261
    1cea:	4b03      	ldr	r3, [pc, #12]	; (1cf8 <TEE_MACCompareFinal+0x60>)
    1cec:	4298      	cmp	r0, r3
    1cee:	d1f8      	bne.n	1ce2 <TEE_MACCompareFinal+0x4a>
    1cf0:	4c01      	ldr	r4, [pc, #4]	; (1cf8 <TEE_MACCompareFinal+0x60>)
    1cf2:	e7f2      	b.n	1cda <TEE_MACCompareFinal+0x42>
    1cf4:	ffff0006 	.word	0xffff0006
    1cf8:	ffff3071 	.word	0xffff3071

00001cfc <TEE_AEInit>:
TEE_AEInit():
/mnt/disk/raspbian-tee/optee_os/lib/libutee/tee_api_operations.c:1273
    1cfc:	b573      	push	{r0, r1, r4, r5, r6, lr}
/mnt/disk/raspbian-tee/optee_os/lib/libutee/tee_api_operations.c:1276
    1cfe:	4605      	mov	r5, r0
    1d00:	b320      	cbz	r0, 1d4c <TEE_AEInit+0x50>
/mnt/disk/raspbian-tee/optee_os/lib/libutee/tee_api_operations.c:1276 (discriminator 1)
    1d02:	b319      	cbz	r1, 1d4c <TEE_AEInit+0x50>
/mnt/disk/raspbian-tee/optee_os/lib/libutee/tee_api_operations.c:1281
    1d04:	6840      	ldr	r0, [r0, #4]
    1d06:	2804      	cmp	r0, #4
    1d08:	d120      	bne.n	1d4c <TEE_AEInit+0x50>
/mnt/disk/raspbian-tee/optee_os/lib/libutee/tee_api_operations.c:1286
    1d0a:	6aa8      	ldr	r0, [r5, #40]	; 0x28
    1d0c:	b9f0      	cbnz	r0, 1d4c <TEE_AEInit+0x50>
/mnt/disk/raspbian-tee/optee_os/lib/libutee/tee_api_operations.c:1297
    1d0e:	682c      	ldr	r4, [r5, #0]
    1d10:	4813      	ldr	r0, [pc, #76]	; (1d60 <TEE_AEInit+0x64>)
    1d12:	4284      	cmp	r4, r0
    1d14:	d109      	bne.n	1d2a <TEE_AEInit+0x2e>
/mnt/disk/raspbian-tee/optee_os/lib/libutee/tee_api_operations.c:1301
    1d16:	f1a3 0060 	sub.w	r0, r3, #96	; 0x60
    1d1a:	2820      	cmp	r0, #32
    1d1c:	d903      	bls.n	1d26 <TEE_AEInit+0x2a>
    1d1e:	4c11      	ldr	r4, [pc, #68]	; (1d64 <TEE_AEInit+0x68>)
/mnt/disk/raspbian-tee/optee_os/lib/libutee/tee_api_operations.c:1321
    1d20:	4620      	mov	r0, r4
    1d22:	b002      	add	sp, #8
    1d24:	bd70      	pop	{r4, r5, r6, pc}
/mnt/disk/raspbian-tee/optee_os/lib/libutee/tee_api_operations.c:1301 (discriminator 1)
    1d26:	0758      	lsls	r0, r3, #29
    1d28:	d1f9      	bne.n	1d1e <TEE_AEInit+0x22>
/mnt/disk/raspbian-tee/optee_os/lib/libutee/tee_api_operations.c:1307
    1d2a:	08de      	lsrs	r6, r3, #3
    1d2c:	9b07      	ldr	r3, [sp, #28]
    1d2e:	9301      	str	r3, [sp, #4]
    1d30:	9b06      	ldr	r3, [sp, #24]
    1d32:	9300      	str	r3, [sp, #0]
    1d34:	4633      	mov	r3, r6
    1d36:	6be8      	ldr	r0, [r5, #60]	; 0x3c
    1d38:	f000 ee08 	blx	294c <utee_authenc_init>
/mnt/disk/raspbian-tee/optee_os/lib/libutee/tee_api_operations.c:1309
    1d3c:	4604      	mov	r4, r0
    1d3e:	b950      	cbnz	r0, 1d56 <TEE_AEInit+0x5a>
/mnt/disk/raspbian-tee/optee_os/lib/libutee/tee_api_operations.c:1313
    1d40:	69eb      	ldr	r3, [r5, #28]
/mnt/disk/raspbian-tee/optee_os/lib/libutee/tee_api_operations.c:1312
    1d42:	642e      	str	r6, [r5, #64]	; 0x40
/mnt/disk/raspbian-tee/optee_os/lib/libutee/tee_api_operations.c:1313
    1d44:	f443 3300 	orr.w	r3, r3, #131072	; 0x20000
    1d48:	61eb      	str	r3, [r5, #28]
    1d4a:	e7e9      	b.n	1d20 <TEE_AEInit+0x24>
    1d4c:	4c06      	ldr	r4, [pc, #24]	; (1d68 <TEE_AEInit+0x6c>)
/mnt/disk/raspbian-tee/optee_os/lib/libutee/tee_api_operations.c:1318
    1d4e:	4620      	mov	r0, r4
    1d50:	f005 fe25 	bl	799e <TEE_Panic>
/mnt/disk/raspbian-tee/optee_os/lib/libutee/tee_api_operations.c:1320
    1d54:	e7e4      	b.n	1d20 <TEE_AEInit+0x24>
/mnt/disk/raspbian-tee/optee_os/lib/libutee/tee_api_operations.c:1316
    1d56:	4b03      	ldr	r3, [pc, #12]	; (1d64 <TEE_AEInit+0x68>)
    1d58:	4298      	cmp	r0, r3
    1d5a:	d0e0      	beq.n	1d1e <TEE_AEInit+0x22>
    1d5c:	e7f7      	b.n	1d4e <TEE_AEInit+0x52>
    1d5e:	bf00      	nop
    1d60:	40000810 	.word	0x40000810
    1d64:	ffff000a 	.word	0xffff000a
    1d68:	ffff0006 	.word	0xffff0006

00001d6c <TEE_AEUpdateAAD>:
TEE_AEUpdateAAD():
/mnt/disk/raspbian-tee/optee_os/lib/libutee/tee_api_operations.c:1325
    1d6c:	b570      	push	{r4, r5, r6, lr}
    1d6e:	460d      	mov	r5, r1
    1d70:	4616      	mov	r6, r2
/mnt/disk/raspbian-tee/optee_os/lib/libutee/tee_api_operations.c:1328
    1d72:	4604      	mov	r4, r0
    1d74:	b108      	cbz	r0, 1d7a <TEE_AEUpdateAAD+0xe>
/mnt/disk/raspbian-tee/optee_os/lib/libutee/tee_api_operations.c:1328 (discriminator 1)
    1d76:	b919      	cbnz	r1, 1d80 <TEE_AEUpdateAAD+0x14>
/mnt/disk/raspbian-tee/optee_os/lib/libutee/tee_api_operations.c:1329
    1d78:	b112      	cbz	r2, 1d80 <TEE_AEUpdateAAD+0x14>
/mnt/disk/raspbian-tee/optee_os/lib/libutee/tee_api_operations.c:1330
    1d7a:	2000      	movs	r0, #0
    1d7c:	f005 fe0f 	bl	799e <TEE_Panic>
/mnt/disk/raspbian-tee/optee_os/lib/libutee/tee_api_operations.c:1332
    1d80:	6863      	ldr	r3, [r4, #4]
    1d82:	2b04      	cmp	r3, #4
    1d84:	d002      	beq.n	1d8c <TEE_AEUpdateAAD+0x20>
/mnt/disk/raspbian-tee/optee_os/lib/libutee/tee_api_operations.c:1333
    1d86:	2000      	movs	r0, #0
    1d88:	f005 fe09 	bl	799e <TEE_Panic>
/mnt/disk/raspbian-tee/optee_os/lib/libutee/tee_api_operations.c:1335
    1d8c:	69e0      	ldr	r0, [r4, #28]
    1d8e:	f410 3000 	ands.w	r0, r0, #131072	; 0x20000
    1d92:	d101      	bne.n	1d98 <TEE_AEUpdateAAD+0x2c>
/mnt/disk/raspbian-tee/optee_os/lib/libutee/tee_api_operations.c:1336
    1d94:	f005 fe03 	bl	799e <TEE_Panic>
/mnt/disk/raspbian-tee/optee_os/lib/libutee/tee_api_operations.c:1338
    1d98:	4632      	mov	r2, r6
    1d9a:	4629      	mov	r1, r5
    1d9c:	6be0      	ldr	r0, [r4, #60]	; 0x3c
    1d9e:	f000 ede2 	blx	2964 <utee_authenc_update_aad>
/mnt/disk/raspbian-tee/optee_os/lib/libutee/tee_api_operations.c:1340
    1da2:	2301      	movs	r3, #1
    1da4:	62a3      	str	r3, [r4, #40]	; 0x28
/mnt/disk/raspbian-tee/optee_os/lib/libutee/tee_api_operations.c:1342
    1da6:	b118      	cbz	r0, 1db0 <TEE_AEUpdateAAD+0x44>
/mnt/disk/raspbian-tee/optee_os/lib/libutee/tee_api_operations.c:1344
    1da8:	e8bd 4070 	ldmia.w	sp!, {r4, r5, r6, lr}
/mnt/disk/raspbian-tee/optee_os/lib/libutee/tee_api_operations.c:1343
    1dac:	f005 bdf7 	b.w	799e <TEE_Panic>
    1db0:	bd70      	pop	{r4, r5, r6, pc}

00001db2 <TEE_AEUpdate>:
TEE_AEUpdate():
/mnt/disk/raspbian-tee/optee_os/lib/libutee/tee_api_operations.c:1348
    1db2:	b5f0      	push	{r4, r5, r6, r7, lr}
/mnt/disk/raspbian-tee/optee_os/lib/libutee/tee_api_operations.c:1353
    1db4:	4605      	mov	r5, r0
/mnt/disk/raspbian-tee/optee_os/lib/libutee/tee_api_operations.c:1348
    1db6:	4f30      	ldr	r7, [pc, #192]	; (1e78 <TEE_AEUpdate+0xc6>)
    1db8:	b087      	sub	sp, #28
    1dba:	447f      	add	r7, pc
    1dbc:	9e0c      	ldr	r6, [sp, #48]	; 0x30
/mnt/disk/raspbian-tee/optee_os/lib/libutee/tee_api_operations.c:1353
    1dbe:	2800      	cmp	r0, #0
    1dc0:	d04c      	beq.n	1e5c <TEE_AEUpdate+0xaa>
/mnt/disk/raspbian-tee/optee_os/lib/libutee/tee_api_operations.c:1353 (discriminator 1)
    1dc2:	b909      	cbnz	r1, 1dc8 <TEE_AEUpdate+0x16>
/mnt/disk/raspbian-tee/optee_os/lib/libutee/tee_api_operations.c:1354
    1dc4:	2a00      	cmp	r2, #0
    1dc6:	d149      	bne.n	1e5c <TEE_AEUpdate+0xaa>
/mnt/disk/raspbian-tee/optee_os/lib/libutee/tee_api_operations.c:1354 (discriminator 1)
    1dc8:	2e00      	cmp	r6, #0
    1dca:	d047      	beq.n	1e5c <TEE_AEUpdate+0xaa>
/mnt/disk/raspbian-tee/optee_os/lib/libutee/tee_api_operations.c:1355
    1dcc:	b913      	cbnz	r3, 1dd4 <TEE_AEUpdate+0x22>
/mnt/disk/raspbian-tee/optee_os/lib/libutee/tee_api_operations.c:1356
    1dce:	6830      	ldr	r0, [r6, #0]
    1dd0:	2800      	cmp	r0, #0
    1dd2:	d143      	bne.n	1e5c <TEE_AEUpdate+0xaa>
/mnt/disk/raspbian-tee/optee_os/lib/libutee/tee_api_operations.c:1361
    1dd4:	6868      	ldr	r0, [r5, #4]
    1dd6:	2804      	cmp	r0, #4
    1dd8:	d140      	bne.n	1e5c <TEE_AEUpdate+0xaa>
/mnt/disk/raspbian-tee/optee_os/lib/libutee/tee_api_operations.c:1366
    1dda:	69e8      	ldr	r0, [r5, #28]
    1ddc:	0380      	lsls	r0, r0, #14
    1dde:	d53d      	bpl.n	1e5c <TEE_AEUpdate+0xaa>
/mnt/disk/raspbian-tee/optee_os/lib/libutee/tee_api_operations.c:1371
    1de0:	b919      	cbnz	r1, 1dea <TEE_AEUpdate+0x38>
/mnt/disk/raspbian-tee/optee_os/lib/libutee/tee_api_operations.c:1371 (discriminator 1)
    1de2:	b912      	cbnz	r2, 1dea <TEE_AEUpdate+0x38>
/mnt/disk/raspbian-tee/optee_os/lib/libutee/tee_api_operations.c:1372
    1de4:	6032      	str	r2, [r6, #0]
/mnt/disk/raspbian-tee/optee_os/lib/libutee/tee_api_operations.c:1414
    1de6:	2400      	movs	r4, #0
    1de8:	e00e      	b.n	1e08 <TEE_AEUpdate+0x56>
/mnt/disk/raspbian-tee/optee_os/lib/libutee/tee_api_operations.c:1382
    1dea:	6b6c      	ldr	r4, [r5, #52]	; 0x34
    1dec:	2c01      	cmp	r4, #1
    1dee:	d90e      	bls.n	1e0e <TEE_AEUpdate+0x5c>
/mnt/disk/raspbian-tee/optee_os/lib/libutee/tee_api_operations.c:1383
    1df0:	6ba8      	ldr	r0, [r5, #56]	; 0x38
    1df2:	f1c4 0c00 	rsb	ip, r4, #0
    1df6:	4410      	add	r0, r2
    1df8:	ea00 000c 	and.w	r0, r0, ip
/mnt/disk/raspbian-tee/optee_os/lib/libutee/tee_api_operations.c:1389
    1dfc:	f8d6 c000 	ldr.w	ip, [r6]
    1e00:	4560      	cmp	r0, ip
    1e02:	d906      	bls.n	1e12 <TEE_AEUpdate+0x60>
/mnt/disk/raspbian-tee/optee_os/lib/libutee/tee_api_operations.c:1390
    1e04:	4c1a      	ldr	r4, [pc, #104]	; (1e70 <TEE_AEUpdate+0xbe>)
    1e06:	6030      	str	r0, [r6, #0]
/mnt/disk/raspbian-tee/optee_os/lib/libutee/tee_api_operations.c:1422
    1e08:	4620      	mov	r0, r4
    1e0a:	b007      	add	sp, #28
    1e0c:	bdf0      	pop	{r4, r5, r6, r7, pc}
    1e0e:	4610      	mov	r0, r2
    1e10:	e7f4      	b.n	1dfc <TEE_AEUpdate+0x4a>
/mnt/disk/raspbian-tee/optee_os/lib/libutee/tee_api_operations.c:1395
    1e12:	2000      	movs	r0, #0
    1e14:	f8cd c010 	str.w	ip, [sp, #16]
    1e18:	9005      	str	r0, [sp, #20]
/mnt/disk/raspbian-tee/optee_os/lib/libutee/tee_api_operations.c:1396
    1e1a:	2c01      	cmp	r4, #1
    1e1c:	d912      	bls.n	1e44 <TEE_AEUpdate+0x92>
/mnt/disk/raspbian-tee/optee_os/lib/libutee/tee_api_operations.c:1397
    1e1e:	4817      	ldr	r0, [pc, #92]	; (1e7c <TEE_AEUpdate+0xca>)
    1e20:	5838      	ldr	r0, [r7, r0]
    1e22:	9003      	str	r0, [sp, #12]
    1e24:	a804      	add	r0, sp, #16
    1e26:	9300      	str	r3, [sp, #0]
    1e28:	4613      	mov	r3, r2
    1e2a:	9001      	str	r0, [sp, #4]
    1e2c:	460a      	mov	r2, r1
    1e2e:	4628      	mov	r0, r5
    1e30:	9903      	ldr	r1, [sp, #12]
    1e32:	f7ff f831 	bl	e98 <tee_buffer_update>
/mnt/disk/raspbian-tee/optee_os/lib/libutee/tee_api_operations.c:1401
    1e36:	4604      	mov	r4, r0
/mnt/disk/raspbian-tee/optee_os/lib/libutee/tee_api_operations.c:1409
    1e38:	b9a8      	cbnz	r0, 1e66 <TEE_AEUpdate+0xb4>
/mnt/disk/raspbian-tee/optee_os/lib/libutee/tee_api_operations.c:1412
    1e3a:	9b04      	ldr	r3, [sp, #16]
    1e3c:	6033      	str	r3, [r6, #0]
/mnt/disk/raspbian-tee/optee_os/lib/libutee/tee_api_operations.c:1414
    1e3e:	2301      	movs	r3, #1
    1e40:	62ab      	str	r3, [r5, #40]	; 0x28
    1e42:	e7d0      	b.n	1de6 <TEE_AEUpdate+0x34>
/mnt/disk/raspbian-tee/optee_os/lib/libutee/tee_api_operations.c:1400
    1e44:	b12a      	cbz	r2, 1e52 <TEE_AEUpdate+0xa0>
/mnt/disk/raspbian-tee/optee_os/lib/libutee/tee_api_operations.c:1401
    1e46:	a804      	add	r0, sp, #16
    1e48:	9000      	str	r0, [sp, #0]
    1e4a:	6be8      	ldr	r0, [r5, #60]	; 0x3c
    1e4c:	f000 ed94 	blx	2978 <utee_authenc_update_payload>
    1e50:	e7f1      	b.n	1e36 <TEE_AEUpdate+0x84>
/mnt/disk/raspbian-tee/optee_os/lib/libutee/tee_api_operations.c:1405
    1e52:	2200      	movs	r2, #0
    1e54:	2300      	movs	r3, #0
    1e56:	e9cd 2304 	strd	r2, r3, [sp, #16]
    1e5a:	e7ee      	b.n	1e3a <TEE_AEUpdate+0x88>
    1e5c:	4c05      	ldr	r4, [pc, #20]	; (1e74 <TEE_AEUpdate+0xc2>)
/mnt/disk/raspbian-tee/optee_os/lib/libutee/tee_api_operations.c:1419
    1e5e:	4620      	mov	r0, r4
    1e60:	f005 fd9d 	bl	799e <TEE_Panic>
/mnt/disk/raspbian-tee/optee_os/lib/libutee/tee_api_operations.c:1421
    1e64:	e7d0      	b.n	1e08 <TEE_AEUpdate+0x56>
/mnt/disk/raspbian-tee/optee_os/lib/libutee/tee_api_operations.c:1417
    1e66:	4b02      	ldr	r3, [pc, #8]	; (1e70 <TEE_AEUpdate+0xbe>)
    1e68:	4298      	cmp	r0, r3
    1e6a:	d0cd      	beq.n	1e08 <TEE_AEUpdate+0x56>
    1e6c:	e7f7      	b.n	1e5e <TEE_AEUpdate+0xac>
    1e6e:	bf00      	nop
    1e70:	ffff0010 	.word	0xffff0010
    1e74:	ffff0006 	.word	0xffff0006
    1e78:	000074c6 	.word	0x000074c6
    1e7c:	00000014 	.word	0x00000014

00001e80 <TEE_AEEncryptFinal>:
TEE_AEEncryptFinal():
/mnt/disk/raspbian-tee/optee_os/lib/libutee/tee_api_operations.c:1428
    1e80:	e92d 4ff0 	stmdb	sp!, {r4, r5, r6, r7, r8, r9, sl, fp, lr}
    1e84:	4698      	mov	r8, r3
    1e86:	f8df c108 	ldr.w	ip, [pc, #264]	; 1f90 <TEE_AEEncryptFinal+0x110>
    1e8a:	b08b      	sub	sp, #44	; 0x2c
/mnt/disk/raspbian-tee/optee_os/lib/libutee/tee_api_operations.c:1436
    1e8c:	4604      	mov	r4, r0
/mnt/disk/raspbian-tee/optee_os/lib/libutee/tee_api_operations.c:1428
    1e8e:	44fc      	add	ip, pc
    1e90:	9e14      	ldr	r6, [sp, #80]	; 0x50
    1e92:	f8dd b054 	ldr.w	fp, [sp, #84]	; 0x54
    1e96:	9f16      	ldr	r7, [sp, #88]	; 0x58
/mnt/disk/raspbian-tee/optee_os/lib/libutee/tee_api_operations.c:1436
    1e98:	2800      	cmp	r0, #0
    1e9a:	d069      	beq.n	1f70 <TEE_AEEncryptFinal+0xf0>
/mnt/disk/raspbian-tee/optee_os/lib/libutee/tee_api_operations.c:1436 (discriminator 1)
    1e9c:	b909      	cbnz	r1, 1ea2 <TEE_AEEncryptFinal+0x22>
/mnt/disk/raspbian-tee/optee_os/lib/libutee/tee_api_operations.c:1437
    1e9e:	2a00      	cmp	r2, #0
    1ea0:	d166      	bne.n	1f70 <TEE_AEEncryptFinal+0xf0>
/mnt/disk/raspbian-tee/optee_os/lib/libutee/tee_api_operations.c:1437 (discriminator 1)
    1ea2:	2e00      	cmp	r6, #0
    1ea4:	d064      	beq.n	1f70 <TEE_AEEncryptFinal+0xf0>
/mnt/disk/raspbian-tee/optee_os/lib/libutee/tee_api_operations.c:1438
    1ea6:	f1b8 0f00 	cmp.w	r8, #0
    1eaa:	d102      	bne.n	1eb2 <TEE_AEEncryptFinal+0x32>
/mnt/disk/raspbian-tee/optee_os/lib/libutee/tee_api_operations.c:1439
    1eac:	6833      	ldr	r3, [r6, #0]
    1eae:	2b00      	cmp	r3, #0
    1eb0:	d15e      	bne.n	1f70 <TEE_AEEncryptFinal+0xf0>
/mnt/disk/raspbian-tee/optee_os/lib/libutee/tee_api_operations.c:1439 (discriminator 1)
    1eb2:	f1bb 0f00 	cmp.w	fp, #0
    1eb6:	d05b      	beq.n	1f70 <TEE_AEEncryptFinal+0xf0>
/mnt/disk/raspbian-tee/optee_os/lib/libutee/tee_api_operations.c:1440
    1eb8:	2f00      	cmp	r7, #0
    1eba:	d059      	beq.n	1f70 <TEE_AEEncryptFinal+0xf0>
/mnt/disk/raspbian-tee/optee_os/lib/libutee/tee_api_operations.c:1445
    1ebc:	6863      	ldr	r3, [r4, #4]
    1ebe:	2b04      	cmp	r3, #4
    1ec0:	d156      	bne.n	1f70 <TEE_AEEncryptFinal+0xf0>
/mnt/disk/raspbian-tee/optee_os/lib/libutee/tee_api_operations.c:1450
    1ec2:	69e3      	ldr	r3, [r4, #28]
    1ec4:	039b      	lsls	r3, r3, #14
    1ec6:	d553      	bpl.n	1f70 <TEE_AEEncryptFinal+0xf0>
/mnt/disk/raspbian-tee/optee_os/lib/libutee/tee_api_operations.c:1465
    1ec8:	6ba3      	ldr	r3, [r4, #56]	; 0x38
/mnt/disk/raspbian-tee/optee_os/lib/libutee/tee_api_operations.c:1466
    1eca:	6830      	ldr	r0, [r6, #0]
/mnt/disk/raspbian-tee/optee_os/lib/libutee/tee_api_operations.c:1465
    1ecc:	4413      	add	r3, r2
    1ece:	f8df 90b4 	ldr.w	r9, [pc, #180]	; 1f84 <TEE_AEEncryptFinal+0x104>
/mnt/disk/raspbian-tee/optee_os/lib/libutee/tee_api_operations.c:1466
    1ed2:	4283      	cmp	r3, r0
    1ed4:	d908      	bls.n	1ee8 <TEE_AEEncryptFinal+0x68>
/mnt/disk/raspbian-tee/optee_os/lib/libutee/tee_api_operations.c:1468
    1ed6:	4648      	mov	r0, r9
/mnt/disk/raspbian-tee/optee_os/lib/libutee/tee_api_operations.c:1467
    1ed8:	6033      	str	r3, [r6, #0]
/mnt/disk/raspbian-tee/optee_os/lib/libutee/tee_api_operations.c:1471
    1eda:	683b      	ldr	r3, [r7, #0]
    1edc:	6c25      	ldr	r5, [r4, #64]	; 0x40
    1ede:	42ab      	cmp	r3, r5
    1ee0:	d204      	bcs.n	1eec <TEE_AEEncryptFinal+0x6c>
/mnt/disk/raspbian-tee/optee_os/lib/libutee/tee_api_operations.c:1472
    1ee2:	603d      	str	r5, [r7, #0]
    1ee4:	4b27      	ldr	r3, [pc, #156]	; (1f84 <TEE_AEEncryptFinal+0x104>)
    1ee6:	e039      	b.n	1f5c <TEE_AEEncryptFinal+0xdc>
/mnt/disk/raspbian-tee/optee_os/lib/libutee/tee_api_operations.c:1463
    1ee8:	4827      	ldr	r0, [pc, #156]	; (1f88 <TEE_AEEncryptFinal+0x108>)
    1eea:	e7f6      	b.n	1eda <TEE_AEEncryptFinal+0x5a>
/mnt/disk/raspbian-tee/optee_os/lib/libutee/tee_api_operations.c:1476
    1eec:	4548      	cmp	r0, r9
    1eee:	d0f9      	beq.n	1ee4 <TEE_AEEncryptFinal+0x64>
/mnt/disk/raspbian-tee/optee_os/lib/libutee/tee_api_operations.c:1479
    1ef0:	9308      	str	r3, [sp, #32]
    1ef2:	2500      	movs	r5, #0
/mnt/disk/raspbian-tee/optee_os/lib/libutee/tee_api_operations.c:1480
    1ef4:	6833      	ldr	r3, [r6, #0]
    1ef6:	f10d 0a18 	add.w	sl, sp, #24
    1efa:	9306      	str	r3, [sp, #24]
/mnt/disk/raspbian-tee/optee_os/lib/libutee/tee_api_operations.c:1481
    1efc:	6b63      	ldr	r3, [r4, #52]	; 0x34
/mnt/disk/raspbian-tee/optee_os/lib/libutee/tee_api_operations.c:1479
    1efe:	9509      	str	r5, [sp, #36]	; 0x24
/mnt/disk/raspbian-tee/optee_os/lib/libutee/tee_api_operations.c:1480
    1f00:	9507      	str	r5, [sp, #28]
/mnt/disk/raspbian-tee/optee_os/lib/libutee/tee_api_operations.c:1481
    1f02:	2b01      	cmp	r3, #1
    1f04:	d92e      	bls.n	1f64 <TEE_AEEncryptFinal+0xe4>
/mnt/disk/raspbian-tee/optee_os/lib/libutee/tee_api_operations.c:1482
    1f06:	4b23      	ldr	r3, [pc, #140]	; (1f94 <TEE_AEEncryptFinal+0x114>)
    1f08:	4620      	mov	r0, r4
    1f0a:	f85c 3003 	ldr.w	r3, [ip, r3]
    1f0e:	9305      	str	r3, [sp, #20]
    1f10:	4613      	mov	r3, r2
    1f12:	e88d 0500 	stmia.w	sp, {r8, sl}
    1f16:	460a      	mov	r2, r1
    1f18:	9905      	ldr	r1, [sp, #20]
    1f1a:	f7fe ffbd 	bl	e98 <tee_buffer_update>
/mnt/disk/raspbian-tee/optee_os/lib/libutee/tee_api_operations.c:1484
    1f1e:	4603      	mov	r3, r0
    1f20:	2800      	cmp	r0, #0
    1f22:	d12c      	bne.n	1f7e <TEE_AEEncryptFinal+0xfe>
/mnt/disk/raspbian-tee/optee_os/lib/libutee/tee_api_operations.c:1487
    1f24:	9d06      	ldr	r5, [sp, #24]
/mnt/disk/raspbian-tee/optee_os/lib/libutee/tee_api_operations.c:1491
    1f26:	ab08      	add	r3, sp, #32
/mnt/disk/raspbian-tee/optee_os/lib/libutee/tee_api_operations.c:1490
    1f28:	6832      	ldr	r2, [r6, #0]
/mnt/disk/raspbian-tee/optee_os/lib/libutee/tee_api_operations.c:1491
    1f2a:	9302      	str	r3, [sp, #8]
    1f2c:	eb08 0305 	add.w	r3, r8, r5
    1f30:	e88d 0c00 	stmia.w	sp, {sl, fp}
/mnt/disk/raspbian-tee/optee_os/lib/libutee/tee_api_operations.c:1490
    1f34:	1b52      	subs	r2, r2, r5
    1f36:	9206      	str	r2, [sp, #24]
/mnt/disk/raspbian-tee/optee_os/lib/libutee/tee_api_operations.c:1491
    1f38:	6ae1      	ldr	r1, [r4, #44]	; 0x2c
    1f3a:	6ba2      	ldr	r2, [r4, #56]	; 0x38
