
b13bc418-3b81-11eb-adc1-0242ac120002.elf:     file format elf32-littlearm
b13bc418-3b81-11eb-adc1-0242ac120002.elf
architecture: armv8-a, flags 0x00000150:
HAS_SYMS, DYNAMIC, D_PAGED
start address 0x00000020

Program Header:
0x70000001 off    0x0001a30c vaddr 0x0000a30c paddr 0x0000a30c align 2**2
         filesz 0x00000680 memsz 0x00000680 flags r--
    LOAD off    0x00010000 vaddr 0x00000000 paddr 0x00000000 align 2**16
         filesz 0x00009000 memsz 0x00009000 flags r-x
    LOAD off    0x00019000 vaddr 0x00009000 paddr 0x00009000 align 2**16
         filesz 0x00001bcc memsz 0x00001bcc flags r--
    LOAD off    0x0001b000 vaddr 0x0000b000 paddr 0x0000b000 align 2**16
         filesz 0x0000009c memsz 0x00082110 flags rw-
 DYNAMIC off    0x0001aaf8 vaddr 0x0000aaf8 paddr 0x0000aaf8 align 2**2
         filesz 0x00000088 memsz 0x00000088 flags rw-

Dynamic Section:
  HASH                 0x0000abb4
  GNU_HASH             0x0000a2c4
  STRTAB               0x0000abb0
  SYMTAB               0x0000ab80
  STRSZ                0x00000001
  SYMENT               0x00000010
  DEBUG                0x00000000
  REL                  0x0000a9d0
  RELSZ                0x00000128
  RELENT               0x00000008
  FLAGS_1              0x08000000
  RELCOUNT             0x00000017
private flags = 0x5000400: [Version5 EABI] [hard-float ABI]

Sections:
Idx Name          Size      VMA       LMA       File off  Algn
  0 .ta_head      00000020  00000000  00000000  00010000  2**3
                  CONTENTS, ALLOC, LOAD, DATA
  1 .text         00008fe0  00000020  00000020  00010020  2**3
                  CONTENTS, ALLOC, LOAD, READONLY, CODE
  2 .rodata       0000119f  00009000  00009000  00019000  2**3
                  CONTENTS, ALLOC, LOAD, READONLY, DATA
  3 .ARM.extab    00000124  0000a1a0  0000a1a0  0001a1a0  2**2
                  CONTENTS, ALLOC, LOAD, READONLY, DATA
  4 .gnu.hash     00000018  0000a2c4  0000a2c4  0001a2c4  2**2
                  CONTENTS, ALLOC, LOAD, READONLY, DATA
  5 .ARM.extab.text.__aeabi_ldivmod 0000000c  0000a2dc  0000a2dc  0001a2dc  2**2
                  CONTENTS, ALLOC, LOAD, READONLY, DATA
  6 .ARM.extab.text.__aeabi_uldivmod 0000000c  0000a2e8  0000a2e8  0001a2e8  2**2
                  CONTENTS, ALLOC, LOAD, READONLY, DATA
  7 .ARM.extab.text.utee_panic 0000000c  0000a2f4  0000a2f4  0001a2f4  2**2
                  CONTENTS, ALLOC, LOAD, READONLY, DATA
  8 .ARM.extab.text.unlikely 0000000c  0000a300  0000a300  0001a300  2**2
                  CONTENTS, ALLOC, LOAD, READONLY, DATA
  9 .ARM.exidx    00000680  0000a30c  0000a30c  0001a30c  2**2
                  CONTENTS, ALLOC, LOAD, READONLY, DATA
 10 .got          00000044  0000a98c  0000a98c  0001a98c  2**2
                  CONTENTS, ALLOC, LOAD, DATA
 11 .dynsym       00000030  0000ab80  0000ab80  0001ab80  2**2
                  CONTENTS, ALLOC, LOAD, READONLY, DATA
 12 .rel.got      00000070  0000aa88  0000aa88  0001aa88  2**2
                  CONTENTS, ALLOC, LOAD, READONLY, DATA
 13 .dynamic      00000088  0000aaf8  0000aaf8  0001aaf8  2**2
                  CONTENTS, ALLOC, LOAD, DATA
 14 .dynstr       00000001  0000abb0  0000abb0  0001abb0  2**0
                  CONTENTS, ALLOC, LOAD, READONLY, DATA
 15 .hash         00000018  0000abb4  0000abb4  0001abb4  2**2
                  CONTENTS, ALLOC, LOAD, READONLY, DATA
 16 .data         0000009c  0000b000  0000b000  0001b000  2**2
                  CONTENTS, ALLOC, LOAD, DATA
 17 .bss          00082074  0000b09c  0000b09c  0001b09c  2**2
                  ALLOC
 18 .debug_info   00013912  00000000  00000000  0001b09c  2**0
                  CONTENTS, READONLY, DEBUGGING, OCTETS
 19 .debug_abbrev 00003382  00000000  00000000  0002e9ae  2**0
                  CONTENTS, READONLY, DEBUGGING, OCTETS
 20 .debug_loclists 00001c1c  00000000  00000000  00031d30  2**0
                  CONTENTS, READONLY, DEBUGGING, OCTETS
 21 .debug_aranges 000005d0  00000000  00000000  00033950  2**3
                  CONTENTS, READONLY, DEBUGGING, OCTETS
 22 .debug_rnglists 000007bc  00000000  00000000  00033f20  2**0
                  CONTENTS, READONLY, DEBUGGING, OCTETS
 23 .debug_macro  00014ad1  00000000  00000000  000346dc  2**0
                  CONTENTS, READONLY, DEBUGGING, OCTETS
 24 .debug_line   0000673a  00000000  00000000  000491ad  2**0
                  CONTENTS, READONLY, DEBUGGING, OCTETS
 25 .debug_str    00013554  00000000  00000000  0004f8e7  2**0
                  CONTENTS, READONLY, DEBUGGING, OCTETS
 26 .comment      0000004f  00000000  00000000  00062e3b  2**0
                  CONTENTS, READONLY
 27 .ARM.attributes 00000031  00000000  00000000  00062e8a  2**0
                  CONTENTS, READONLY
 28 .debug_frame  00002148  00000000  00000000  00062ebc  2**2
                  CONTENTS, READONLY, DEBUGGING, OCTETS
 29 .rel.dyn      000000b8  0000a9d0  0000a9d0  0001a9d0  2**2
                  CONTENTS, ALLOC, LOAD, READONLY, DATA
 30 .debug_loc    00010a49  00000000  00000000  00065004  2**0
                  CONTENTS, READONLY, DEBUGGING, OCTETS
 31 .debug_ranges 000007c0  00000000  00000000  00075a50  2**3
                  CONTENTS, READONLY, DEBUGGING, OCTETS
SYMBOL TABLE:
00000000 l    d  .ta_head	00000000 .ta_head
00000020 l    d  .text	00000000 .text
00009000 l    d  .rodata	00000000 .rodata
0000a1a0 l    d  .ARM.extab	00000000 .ARM.extab
0000a2c4 l    d  .gnu.hash	00000000 .gnu.hash
0000a2dc l    d  .ARM.extab.text.__aeabi_ldivmod	00000000 .ARM.extab.text.__aeabi_ldivmod
0000a2e8 l    d  .ARM.extab.text.__aeabi_uldivmod	00000000 .ARM.extab.text.__aeabi_uldivmod
0000a2f4 l    d  .ARM.extab.text.utee_panic	00000000 .ARM.extab.text.utee_panic
0000a300 l    d  .ARM.extab.text.unlikely	00000000 .ARM.extab.text.unlikely
0000a30c l    d  .ARM.exidx	00000000 .ARM.exidx
0000a98c l    d  .got	00000000 .got
0000aa88 l    d  .rel.got	00000000 .rel.got
0000aaf8 l    d  .dynamic	00000000 .dynamic
0000ab80 l    d  .dynsym	00000000 .dynsym
0000abb0 l    d  .dynstr	00000000 .dynstr
0000abb4 l    d  .hash	00000000 .hash
0000b000 l    d  .data	00000000 .data
0000b09c l    d  .bss	00000000 .bss
00000000 l    d  .debug_info	00000000 .debug_info
00000000 l    d  .debug_abbrev	00000000 .debug_abbrev
00000000 l    d  .debug_loclists	00000000 .debug_loclists
00000000 l    d  .debug_aranges	00000000 .debug_aranges
00000000 l    d  .debug_rnglists	00000000 .debug_rnglists
00000000 l    d  .debug_macro	00000000 .debug_macro
00000000 l    d  .debug_line	00000000 .debug_line
00000000 l    d  .debug_str	00000000 .debug_str
00000000 l    d  .comment	00000000 .comment
00000000 l    d  .ARM.attributes	00000000 .ARM.attributes
00000000 l    d  .debug_frame	00000000 .debug_frame
0000a9d0 l    d  .rel.dyn	00000000 .rel.dyn
00000000 l    d  .debug_loc	00000000 .debug_loc
00000000 l    d  .debug_ranges	00000000 .debug_ranges
00000000 l    df *ABS*	00000000 user_ta_header.c
00009034 l     O .rodata	00000004 __compound_literal.5
00009038 l     O .rodata	00000004 __compound_literal.4
0000903c l     O .rodata	00000004 __compound_literal.3
00009040 l     O .rodata	00000001 __compound_literal.2
00009041 l     O .rodata	00000001 __compound_literal.1
00009042 l     O .rodata	00000001 __compound_literal.0
00000000 l    df *ABS*	00000000 lenet.c
00000020 l     F .text	0000001a relu
0000003a l     F .text	000000a6 load_input
000000e0 l     F .text	00000500 forward.constprop.0
00000000 l    df *ABS*	00000000 e_exp.c
00009000 l     O .rodata	00000010 ln2HI
00009010 l     O .rodata	00000010 ln2LO
00009020 l     O .rodata	00000010 halF
00000000 l    df *ABS*	00000000 lenet5_ta.c
000093ef l     O .rodata	00000014 __func__.6
00009403 l     O .rodata	00000015 __func__.5
00009418 l     O .rodata	00000019 __func__.4
00009431 l     O .rodata	0000001a __func__.3
0000944b l     O .rodata	00000008 __func__.2
00009453 l     O .rodata	0000000e __func__.1
00009461 l     O .rodata	0000000b __func__.0
00000000 l    df *ABS*	00000000 e_sqrt.c
00000000 l    df *ABS*	00000000 trace.c
0000161c l     F .text	0000004e append
00009538 l     O .rodata	00000005 lvl_strs.5561
0000953d l     O .rodata	0000000a __func__.5615
00000000 l    df *ABS*	00000000 snprintk.c
00009581 l     O .rodata	00000011 HEXDIGITS
00009592 l     O .rodata	00000011 hexdigits
00000000 l    df *ABS*	00000000 arm32_aeabi_ldivmod_a32.o
00000000 l    df *ABS*	00000000 trace_ext.c
00000000 l    df *ABS*	00000000 tee_api.c
000095db l     O .rodata	0000000b __func__.6728
0000b0a0 l     O .bss	00000004 tee_api_instance_data
00000000 l    df *ABS*	00000000 tee_api_operations.c
000023e4 l     F .text	00000160 tee_buffer_update
00000000 l    df *ABS*	00000000 user_ta_entry.c
000039ac l     F .text	0000001c ta_header_get_session
000039c8 l     F .text	00000068 ta_header_remove_session
0000b0a4 l     O .bss	00000001 init_done
0000b078 l     O .data	00000008 ta_sessions
00000000 l    df *ABS*	00000000 utee_syscalls_a32.o
00000000 l    df *ABS*	00000000 gprof_a32.o
00000000 l    df *ABS*	00000000 tee_api_objects.c
00000000 l    df *ABS*	00000000 tee_api_arith_mpi.c
0000581c l     F .text	00000020 api_panic
00004808 l     F .text	00000020 mpi_panic
00004828 l     F .text	00000044 get_const_mpi
0000486c l     F .text	00000010 mpi_is_odd
0000487c l     F .text	00000016 rng_read
00004892 l     F .text	0000001c put_mpi
000048ae l     F .text	0000045a mpi_egcd
00004d08 l     F .text	00000024 get_mpi
00004d2c l     F .text	00000088 bigint_binary
0000b0cc l     O .bss	00002000 data.6728
00004fba l     F .text	000000ea bigint_binary_mod
000095f7 l     O .rodata	0000000e __func__.6757
00009605 l     O .rodata	00000009 __func__.6996
0000960e l     O .rodata	0000000e __func__.6856
0000961c l     O .rodata	00000012 __func__.6729
0000962e l     O .rodata	0000000f __func__.6767
0000963d l     O .rodata	0000001f __func__.6785
0000965c l     O .rodata	00000019 __func__.6792
00009675 l     O .rodata	00000012 __func__.6867
00009687 l     O .rodata	00000015 __func__.6822
0000969c l     O .rodata	0000000e __func__.6894
000096aa l     O .rodata	0000000e __func__.6922
000096b8 l     O .rodata	0000000e __func__.6928
000096c6 l     O .rodata	00000011 __func__.6957
000096d7 l     O .rodata	00000018 __func__.6973
000096ef l     O .rodata	0000001d __func__.7053
0000970c l     O .rodata	00000019 __func__.7103
00009725 l     O .rodata	00000015 __func__.7117
00000000 l    df *ABS*	00000000 bignum.c
0000583c l     F .text	00000038 mpi_get_digit
00005874 l     F .text	0000005e mpi_sub_hlp
000058d2 l     F .text	00000492 mpi_mul_hlp
00005d64 l     F .text	00000048 mbedtls_mpi_mod_int.part.1
00006e06 l     F .text	0000006c mpi_write_hlp
00006fac l     F .text	00000050 mpi_check_small_factors
00007698 l     F .text	00000216 mpi_miller_rabin
0000904c l     O .rodata	000002a0 small_prime
000092ec l     O .rodata	00000024 gcd_pairs
00000000 l    df *ABS*	00000000 bget_malloc.c
0000803c l     F .text	00000030 raw_malloc_return_hook.isra.3
0000806c l     F .text	000000d8 create_free_block.constprop.11
00008278 l     F .text	00000038 raw_malloc.constprop.15
00009c4e l     O .rodata	00000012 __func__.5854
00009c60 l     O .rodata	00000005 __func__.5710
00009c65 l     O .rodata	00000006 __func__.5725
00009c6b l     O .rodata	00000005 __func__.5742
00009c70 l     O .rodata	00000006 __func__.5734
00009c76 l     O .rodata	00000006 __func__.5751
00009c7c l     O .rodata	00000007 __func__.5761
00009c83 l     O .rodata	0000000d __func__.5890
00009c90 l     O .rodata	0000000c __func__.5864
00009c9c l     O .rodata	0000000b __func__.5875
00009ca7 l     O .rodata	00000010 __func__.5942
00009cb7 l     O .rodata	0000000e __func__.5896
00009cc5 l     O .rodata	00000013 __func__.5802
0000d0d0 l     O .bss	00000038 mstats
0000d108 l     O .bss	00000004 malloc_pool_len
0000d10c l     O .bss	00000004 malloc_pool
0000b080 l     O .data	0000001c malloc_poolset
00000000 l    df *ABS*	00000000 mempool.c
0000a0e0 l     O .rodata	00000013 __func__.5618
0000a0f3 l     O .rodata	0000000e __func__.5627
00000000 l    df *ABS*	00000000 assert.c
00000000 l    df *ABS*	00000000 stack_check.c
00000000 l    df *ABS*	00000000 memset.c
00000000 l    df *ABS*	00000000 aeabi_unwind.c
00000000 l    df *ABS*	00000000 memchr.c
00000000 l    df *ABS*	00000000 strlen.c
00000000 l    df *ABS*	00000000 arm32_aeabi_ldivmod.c
00000000 l    df *ABS*	00000000 tee_api_panic.c
00000000 l    df *ABS*	00000000 snprintf.c
00000000 l    df *ABS*	00000000 memcmp.c
00000000 l    df *ABS*	00000000 memcpy.c
00000000 l    df *ABS*	00000000 memmove.c
00000000 l    df *ABS*	00000000 buf_compare_ct.c
00000000 l    df *ABS*	00000000 
0000aaf8 l     O *ABS*	00000000 _DYNAMIC
0000a98c l     O *ABS*	00000000 _GLOBAL_OFFSET_TABLE_
00008fc0 l     F .text	00000010 __utee_check_access_rights_from_thumb
00008fd0 l     F .text	00000010 __utee_cache_operation_from_thumb
00008fe0 l     F .text	00000010 __utee_log_from_thumb
00008ff0 l     F .text	00000010 __utee_panic_from_thumb
000020dc g     F .text	00000022 putchar
000042e4 g     F .text	00000070 TEE_PopulateTransientObject
0000572e g     F .text	00000004 TEE_BigIntConvertToFMM
00005470 g     F .text	00000008 TEE_BigIntSquareMod
000050a4 g     F .text	000000f4 TEE_BigIntShiftRight
00003f54 g     F .text	00000018 utee_storage_obj_create
00005e44 g     F .text	000000a8 mbedtls_mpi_grow
00008e10 g     F .text	000000ec __l_divmod
00003bd4 g     F .text	00000014 utee_return
00002dec g     F .text	00000030 TEE_DigestUpdate
000023c8 g     F .text	00000004 TEE_Realloc
00002c54 g     F .text	000000f4 TEE_SetOperationKey2
00000f14 g     F .text	000000a0 Predict
0000207e g     F .text	0000003a printf
00003be8 g     F .text	00000014 utee_log
00004354 g     F .text	00000022 TEE_InitRefAttribute
000021e6 g     F .text	00000066 TEE_InvokeTACommand
00005dbe g     F .text	00000026 mbedtls_mpi_init_mempool
000062b8 g     F .text	00000046 mbedtls_mpi_write_binary
000033cc g     F .text	00000118 TEE_AEEncryptFinal
0000200c g     F .text	0000000e vsnprintk
00006742 g     F .text	00000030 mbedtls_mpi_sub_int
00008f60 g     F .text	00000034 memmove
00008f00 g     F .text	0000001e snprintf
00004f94 g     F .text	00000026 TEE_BigIntCmpS32
0000b070 g     O .data	00000004 __stack_chk_guard
00004376 g     F .text	00000022 TEE_InitValueAttribute
00005eec g     F .text	000000cc mbedtls_mpi_shrink
00008d6a g     F .text	00000002 __aeabi_unwind_cpp_pr0
000051e4 g     F .text	0000001c TEE_BigIntAdd
00003c28 g     F .text	00000014 utee_get_property_name_to_index
00000fb4 g     F .text	0000018c Initial
00009044 g     O .rodata	00000004 ta_heap_size
000042b4 g     F .text	00000030 TEE_ResetTransientObject
00003d0c g     F .text	00000018 utee_cryp_state_alloc
00003edc g     F .text	00000018 utee_authenc_enc_final
0000686c g     F .text	0000012c mbedtls_mpi_read_string
00002e8c g     F .text	00000056 TEE_CipherInit
0000521c g     F .text	00000058 TEE_BigIntNeg
00000020 g       .text	00000000 __text_start
00004654 g     F .text	0000002c TEE_StartPersistentObjectEnumerator
00006396 g     F .text	00000078 mbedtls_mpi_shift_r
00008bcc g     F .text	0000004c malloc_buffer_overlaps_heap
00005438 g     F .text	0000001c TEE_BigIntSubMod
00007bda g     F .text	00000136 mbedtls_mpi_gen_prime
00006166 g     F .text	00000020 mbedtls_mpi_get_bit
00006252 g     F .text	00000066 mbedtls_mpi_read_binary
00003248 g     F .text	00000070 TEE_AEInit
0000169c g     F .text	0000013c trace_printf
00007024 g     F .text	000000c4 mbedtls_mpi_montmul
00008f4a g     F .text	00000016 memcpy
00003d38 g     F .text	00000014 utee_cryp_state_free
00005732 g     F .text	0000004a TEE_BigIntConvertFromFMM
00008efc g     F .text	00000004 TEE_Panic
0000204c g     F .text	00000018 __aeabi_uldivmod
00002d48 g     F .text	000000a4 TEE_CopyOperation
000020b8 g     F .text	00000024 puts
0000577c g     F .text	000000a0 TEE_BigIntComputeFMM
00008694 g     F .text	00000020 malloc_get_stats
00003db8 g     F .text	00000018 utee_cipher_final
00002368 g     F .text	00000016 TEE_GetREETime
000045f4 g     F .text	00000038 TEE_AllocatePersistentObjectEnumerator
0000b004 g     O .data	0000006c ta_props
000035ec g     F .text	000000bc TEE_AsymmetricEncrypt
000086b4 g     F .text	00000002 malloc
00003e20 g     F .text	00000014 utee_cryp_obj_close
00004430 g     F .text	00000048 TEE_GenerateKey
00008f1e g     F .text	0000000e vsnprintf
0000b000 g     O .data	00000004 trace_level
00004f60 g     F .text	00000034 TEE_BigIntCmp
00009030 g     O .rodata	00000004 ta_num_props
00008504 g     F .text	0000007c bgetr
00003ec4 g     F .text	00000018 utee_authenc_update_payload
00008cec g     F .text	0000002e mempool_free
00002ee2 g     F .text	000000e6 TEE_CipherUpdate
00004e78 g     F .text	00000058 TEE_BigIntConvertToOctetString
00002ad2 g     F .text	000000b6 TEE_GetOperationInfoMultiple
0000405c g     F .text	00000014 utee_cache_operation
00006204 g     F .text	00000042 mbedtls_mpi_bitlen
00003e98 g     F .text	00000018 utee_authenc_init
00005198 g     F .text	0000002a TEE_BigIntGetBit
00009048 g     O .rodata	00000003 trace_ext_prefix
000082b0 g     F .text	0000005c bgetz
000022b8 g     F .text	0000000c TEE_GetInstanceData
000022e6 g     F .text	0000001e TEE_Wait
0000400c g     F .text	00000014 utee_storage_obj_write
00006772 g     F .text	000000dc mbedtls_mpi_mul_mpi
00008d6e g     F .text	00000002 __aeabi_unwind_cpp_pr2
000023d6 g     F .text	00000006 TEE_CacheFlush
0000135c g     F .text	00000028 TA_DestroyEntryPoint
00005dac g     F .text	00000012 mbedtls_mpi_init
000061d6 g     F .text	0000002e mbedtls_mpi_lsb
00008d1c g     F .text	00000028 _assert_log
0000572a g     F .text	00000004 TEE_BigIntFMMContextSizeInU32
000031e4 g     F .text	00000064 TEE_MACCompareFinal
000045ae g     F .text	00000046 TEE_RenamePersistentObject
00001140 g     F .text	000001f4 __ieee754_exp
00002e1c g     F .text	00000070 TEE_DigestDoFinal
00004db4 g     F .text	00000044 _TEE_MathAPI_Init
0000667e g     F .text	00000048 mbedtls_mpi_add_mpi
00003fe4 g     F .text	00000014 utee_storage_next_enum
00008d58 g     F .text	00000002 __stack_chk_fail
0000d110 g     O .bss	00080000 ta_heap
00005478 g     F .text	000000a4 TEE_BigIntInvMod
000013d0 g     F .text	0000003c TA_CloseSessionEntryPoint
000036a8 g     F .text	000000c0 TEE_AsymmetricDecrypt
00004478 g     F .text	00000064 TEE_OpenPersistentObject
000066c6 g     F .text	0000004c mbedtls_mpi_sub_mpi
00003bfc g     F .text	00000014 __utee_panic
00003d24 g     F .text	00000014 utee_cryp_state_copy
0000140c g     F .text	000000c4 TA_InvokeCommandEntryPoint
00008c5c g     F .text	0000006c mempool_alloc
00003e0c g     F .text	00000014 utee_cryp_obj_alloc
00003cf8 g     F .text	00000014 utee_set_ta_time
00003df8 g     F .text	00000014 utee_cryp_obj_get_attr
00008cc8 g     F .text	00000024 mempool_calloc
00004400 g     F .text	00000030 TEE_CopyObjectAttributes
000086c8 g     F .text	00000048 calloc
0000237e g     F .text	0000004a TEE_Malloc
00003cbc g     F .text	00000014 utee_mask_cancellation
00003e34 g     F .text	00000014 utee_cryp_obj_reset
000022a0 g     F .text	0000000a TEE_CheckMemoryAccessRights
0008d110 g       .bss	00000000 __gprof_buf_end
00008d9c g     F .text	00000074 __ul_divmod
0000612e g     F .text	00000038 mbedtls_mpi_lset
000046d4 g     F .text	00000040 TEE_ReadObjectData
0000414c g     F .text	00000070 TEE_GetObjectBufferAttribute
00001384 g     F .text	0000004c TA_OpenSessionEntryPoint
00003fd0 g     F .text	00000014 utee_storage_start_enum
00002544 g     F .text	00000026 TEE_FreeOperation
00003f80 g     F .text	00000014 utee_storage_obj_rename
0000b0a8 g     O .bss	00000004 ta_param_types
00006d3a g     F .text	0000002e mbedtls_mpi_div_int
0000407c g     F .text	0000003a __utee_from_attr
000056ec g     F .text	00000030 TEE_BigIntIsProbablePrime
0000684e g     F .text	0000001e mbedtls_mpi_mul_int
00004574 g     F .text	00000024 TEE_CloseAndDeletePersistentObject1
0000710c g     F .text	00000446 mbedtls_mpi_exp_mod
0000603c g     F .text	0000006c mbedtls_mpi_safe_cond_assign
00003c10 g     F .text	00000018 utee_get_property
000034e4 g     F .text	00000108 TEE_AEDecryptFinal
00004df8 g     F .text	00000040 TEE_BigIntInit
000022c4 g     F .text	00000004 TEE_MemMove
00004e38 g     F .text	00000040 TEE_BigIntConvertFromOctetString
0000b074 g     O .data	00000004 _ref__utee_mcount
0000640e g     F .text	0000006e mbedtls_mpi_cmp_abs
000030d8 g     F .text	00000056 TEE_MACInit
00003768 g     F .text	000000b4 TEE_AsymmetricSignDigest
00008d70 g     F .text	0000001c memchr
00002268 g     F .text	0000001c TEE_UnmaskCancellation
000040b6 g     F .text	0000002a TEE_GetObjectInfo
00007d10 g     F .text	0000032c mbedtls_mpi_self_test
00003f6c g     F .text	00000014 utee_storage_obj_del
000032fe g     F .text	000000ce TEE_AEUpdate
00004034 g     F .text	00000014 utee_storage_obj_seek
00004284 g     F .text	00000030 TEE_FreeTransientObject
0000b09c g     O .bss	00000004 lenet
00006512 g     F .text	00000030 mbedtls_mpi_cmp_int
00003d60 g     F .text	00000014 utee_hash_update
00003994 g     F .text	00000018 rand
00004070  w    F .text	0000000c __utee_mcount
00002ab0 g     F .text	00000022 TEE_GetOperationInfo
000053cc g     F .text	00000050 TEE_BigIntMod
00006dcc g     F .text	0000003a mbedtls_mpi_mod_int
00003c54 g     F .text	00000014 utee_close_ta_session
0000531e g     F .text	000000ae TEE_BigIntDiv
00005fb8 g     F .text	00000056 mbedtls_mpi_copy
00008680 g     F .text	00000014 malloc_reset_stats
00003da0 g     F .text	00000018 utee_cipher_update
000005e0 g     F .text	00000934 TrainBatch
00004100 g     F .text	00000020 TEE_RestrictObjectUsage1
00008710 g     F .text	00000038 realloc
0000600e g     F .text	0000002e mbedtls_mpi_swap
00008c18 g     F .text	00000044 mempool_alloc_pool
00003f24 g     F .text	00000018 utee_asymm_verify
00005274 g     F .text	000000a4 TEE_BigIntMul
00002b88 g     F .text	00000040 TEE_ResetOperation
000062fe g     F .text	00000098 mbedtls_mpi_shift_l
0000647c g     F .text	00000096 mbedtls_mpi_cmp_mpi
000022cc g     F .text	00000004 TEE_MemFill
00008f2c g     F .text	0000001e memcmp
000089f8 g     F .text	000000f8 malloc_add_pool
0000312e g     F .text	0000004e TEE_MACUpdate
00001688 g     F .text	00000014 trace_get_level
00006542 g     F .text	000000bc mbedtls_mpi_add_abs
00003e84 g     F .text	00000014 utee_cryp_random_number_generate
00004120 g     F .text	0000002c TEE_RestrictObjectUsage
00005722 g     F .text	00000008 TEE_BigIntFMMSizeInU32
0000571c g     F .text	00000004 TEE_BigIntInitFMM
00003f0c g     F .text	00000018 utee_asymm_operate
00004240 g     F .text	00000014 TEE_CloseObject
00003a30 g     F .text	00000190 __utee_entry
00009000 g       .text	00000000 __text_end
0000551c g     F .text	0000007c TEE_BigIntRelativePrime
00006d68 g     F .text	00000064 mbedtls_mpi_mod_mpi
00008580 g     F .text	0000009c bpool
0000224c g     F .text	0000001c TEE_GetCancellationFlag
00007552 g     F .text	00000114 mbedtls_mpi_gcd
00002340 g     F .text	00000028 TEE_SetTAPersistentTime
00008d5a g     F .text	00000010 memset
00002304 g     F .text	0000003c TEE_GetTAPersistentTime
000017d8 g     F .text	00000100 dhex_dump
000044dc g     F .text	00000098 TEE_CreatePersistentObject
00002284 g     F .text	0000001c TEE_MaskCancellation
00003ff8 g     F .text	00000014 utee_storage_obj_read
000032b8 g     F .text	00000046 TEE_AEUpdateAAD
00004754 g     F .text	00000038 TEE_TruncateObjectData
00003e48 g     F .text	00000014 utee_cryp_obj_populate
000040e0 g     F .text	00000020 TEE_GetObjectInfo1
0000166a g     F .text	0000001e trace_set_level
00003dd0 g     F .text	00000014 utee_cryp_obj_get_info
000041bc g     F .text	00000084 TEE_GetObjectValueAttribute
00002bc8 g     F .text	0000008c TEE_SetOperationKey
00003f94 g     F .text	00000014 utee_storage_alloc_enum
00003fbc g     F .text	00000014 utee_storage_reset_enum
00004020 g     F .text	00000014 utee_storage_obj_trunc
00004f08 g     F .text	00000058 TEE_BigIntConvertToS32
00005200 g     F .text	0000001c TEE_BigIntSub
00003c80 g     F .text	00000014 utee_get_cancellation_flag
00003d4c g     F .text	00000014 utee_hash_init
00008d54 g     F .text	00000004 tahead_get_trace_level
00002100 g     F .text	00000050 __utee_from_param
0000478c g     F .text	0000007c TEE_SeekObjectData
00002150 g     F .text	0000003e __utee_to_param
000070e8 g     F .text	00000024 mbedtls_mpi_montred
00008748 g     F .text	000002b0 memalign
00002fc8 g     F .text	00000110 TEE_CipherDoFinal
00004ed0 g     F .text	00000038 TEE_BigIntConvertFromS32
00006712 g     F .text	00000030 mbedtls_mpi_add_int
00003de4 g     F .text	00000014 utee_cryp_obj_restrict_usage
00008af0 g     F .text	000000dc malloc_buffer_is_within_alloced
00003e5c g     F .text	00000014 utee_cryp_obj_copy
00005720 g     F .text	00000002 TEE_BigIntInitFMMContext
00003e70 g     F .text	00000014 utee_cryp_derive_key
00003ef4 g     F .text	00000018 utee_authenc_dec_final
00004714 g     F .text	00000040 TEE_WriteObjectData
00004640 g     F .text	00000014 TEE_ResetPersistentObjectEnumerator
00005318 g     F .text	00000006 TEE_BigIntSquare
00001334 g     F .text	00000028 TA_CreateEntryPoint
00006ffc g     F .text	00000028 mbedtls_mpi_montg_init
0000201a g     F .text	0000001a snprintk
000051c2 g     F .text	00000022 TEE_BigIntGetBitCount
00005454 g     F .text	0000001c TEE_BigIntMulMod
000078ae g     F .text	000002d0 mbedtls_mpi_inv_mod
000038c8 g     F .text	000000ba TEE_DeriveKey
0000b0ac g     O .bss	00000020 ta_params
00006998 g     F .text	000003a2 mbedtls_mpi_div_mpi
00006246 g     F .text	0000000c mbedtls_mpi_size
00008144 g     F .text	00000134 bget
00004254 g     F .text	00000030 TEE_AllocateTransientObject
00006186 g     F .text	00000050 mbedtls_mpi_set_bit
00005de4 g     F .text	00000012 mbedtls_mpi_init_static
000023cc g     F .text	00000004 TEE_Free
00007b7e g     F .text	0000005c mbedtls_mpi_is_prime
000014d0 g     F .text	0000014c __ieee754_sqrt
000023dc g     F .text	00000006 TEE_CacheInvalidate
00003d8c g     F .text	00000014 utee_cipher_init
00008d44 g     F .text	00000010 _assert_break
0000541c g     F .text	0000001c TEE_BigIntAddMod
00003fa8 g     F .text	00000014 utee_storage_free_enum
00003eb0 g     F .text	00000014 utee_authenc_update_aad
0000256a g     F .text	00000546 TEE_AllocateOperation
00003982 g     F .text	00000012 TEE_GenerateRandom
000022c8 g     F .text	00000004 TEE_MemCompare
000018d8 g     F .text	00000734 __vsnprintf
0000462c g     F .text	00000014 TEE_FreePersistentObjectEnumerator
00003bc0 g     F .text	00000014 utee_panic
0000218e g     F .text	00000044 TEE_OpenTASession
00002064 g     F .text	00000014 trace_ext_puts
00002078 g     F .text	00000006 trace_ext_get_thread_id
00004598 g     F .text	00000016 TEE_CloseAndDeletePersistentObject
00005df6 g     F .text	0000004e mbedtls_mpi_free
000023d0 g     F .text	00000006 TEE_CacheClean
00003c3c g     F .text	00000018 utee_open_ta_session
00008f94 g     F .text	0000002c buf_compare_ct
000060a8 g     F .text	00000086 mbedtls_mpi_safe_cond_swap
00004398 g     F .text	00000068 TEE_CopyObjectAttributes1
00003d74 g     F .text	00000018 utee_hash_final
00008d8c g     F .text	00000010 strlen
00005598 g     F .text	00000154 TEE_BigIntComputeExtendedGcd
00008d6c g     F .text	00000002 __aeabi_unwind_cpp_pr1
00003f3c g     F .text	00000018 utee_storage_obj_open
00003c68 g     F .text	00000018 utee_invoke_ta_command
00003cd0 g     F .text	00000014 utee_wait
000022d0 g     F .text	00000016 TEE_GetSystemTime
00000000 g     O .ta_head	00000020 ta_head
0000830c g     F .text	000001f8 brel
000065fe g     F .text	00000080 mbedtls_mpi_sub_abs
00003ce4 g     F .text	00000014 utee_get_time
00007666 g     F .text	00000032 mbedtls_mpi_fill_random
000022aa g     F .text	0000000e TEE_SetInstanceData
00003ca8 g     F .text	00000014 utee_unmask_cancellation
00002034 g     F .text	00000018 __aeabi_ldivmod
00003c94 g     F .text	00000014 utee_check_access_rights
00006e72 g     F .text	0000013a mbedtls_mpi_write_string
00004680 g     F .text	00000054 TEE_GetNextPersistentObject
00004048 g     F .text	00000014 utee_cryp_obj_generate_key
000021d2 g     F .text	00000014 TEE_CloseTASession
0000381c g     F .text	000000ac TEE_AsymmetricVerifyDigest
0008d110 g       .bss	00000000 __gprof_buf_start
000086b6 g     F .text	00000012 free
0000861c g     F .text	00000064 bstats
0000317c g     F .text	00000068 TEE_MACComputeFinal
0000d0cc g     O .bss	00000004 mbedtls_mpi_mempool



Disassembly of section .text:

00000020 <relu>:
relu():
/workspace/benchmark/Lenet5_in_OPTEE/ta/lenet.c:155
      20:	efc0 1e30 	vmov.i64	d17, #0x0000000000000000
      24:	eef7 0b00 	vmov.f64	d16, #112	; 0x3f800000  1.0
      28:	eeb4 0be1 	vcmpe.f64	d0, d17
      2c:	eef1 fa10 	vmrs	APSR_nzcv, fpscr
      30:	fe70 0ba1 	vselgt.f64	d16, d16, d17
/workspace/benchmark/Lenet5_in_OPTEE/ta/lenet.c:156
      34:	ee20 0b80 	vmul.f64	d0, d16, d0
      38:	4770      	bx	lr

0000003a <load_input>:
load_input():
/workspace/benchmark/Lenet5_in_OPTEE/ta/lenet.c:187
      3a:	efc0 1e30 	vmov.i64	d17, #0x0000000000000000
/workspace/benchmark/Lenet5_in_OPTEE/ta/lenet.c:184
      3e:	b570      	push	{r4, r5, r6, lr}
      40:	1e4c      	subs	r4, r1, #1
      42:	ed2d 8b02 	vpush	{d8}
      46:	4605      	mov	r5, r0
/workspace/benchmark/Lenet5_in_OPTEE/ta/lenet.c:188
      48:	f201 360f 	addw	r6, r1, #783	; 0x30f
      4c:	4623      	mov	r3, r4
/workspace/benchmark/Lenet5_in_OPTEE/ta/lenet.c:187
      4e:	eeb0 8b61 	vmov.f64	d8, d17
/workspace/benchmark/Lenet5_in_OPTEE/ta/lenet.c:189
      52:	f103 011c 	add.w	r1, r3, #28
/workspace/benchmark/Lenet5_in_OPTEE/ta/lenet.c:191 (discriminator 3)
      56:	f813 2f01 	ldrb.w	r2, [r3, #1]!
      5a:	ee07 2a90 	vmov	s15, r2
/workspace/benchmark/Lenet5_in_OPTEE/ta/lenet.c:189 (discriminator 3)
      5e:	4299      	cmp	r1, r3
/workspace/benchmark/Lenet5_in_OPTEE/ta/lenet.c:191 (discriminator 3)
      60:	eef8 0be7 	vcvt.f64.s32	d16, s15
/workspace/benchmark/Lenet5_in_OPTEE/ta/lenet.c:192 (discriminator 3)
      64:	fb12 f202 	smulbb	r2, r2, r2
      68:	ee07 2a90 	vmov	s15, r2
/workspace/benchmark/Lenet5_in_OPTEE/ta/lenet.c:191 (discriminator 3)
      6c:	ee38 8b20 	vadd.f64	d8, d8, d16
/workspace/benchmark/Lenet5_in_OPTEE/ta/lenet.c:192 (discriminator 3)
      70:	eef8 0be7 	vcvt.f64.s32	d16, s15
      74:	ee71 1ba0 	vadd.f64	d17, d17, d16
/workspace/benchmark/Lenet5_in_OPTEE/ta/lenet.c:189 (discriminator 3)
      78:	d1ed      	bne.n	56 <load_input+0x1c>
/workspace/benchmark/Lenet5_in_OPTEE/ta/lenet.c:188 (discriminator 2)
      7a:	42b1      	cmp	r1, r6
      7c:	d001      	beq.n	82 <load_input+0x48>
      7e:	460b      	mov	r3, r1
      80:	e7e7      	b.n	52 <load_input+0x18>
/workspace/benchmark/Lenet5_in_OPTEE/ta/lenet.c:194
      82:	eddf 0b15 	vldr	d16, [pc, #84]	; d8 <load_input+0x9e>
      86:	ee28 8b20 	vmul.f64	d8, d8, d16
/workspace/benchmark/Lenet5_in_OPTEE/ta/lenet.c:196
      8a:	ee28 0b48 	vnmul.f64	d0, d8, d8
      8e:	eea1 0ba0 	vfma.f64	d0, d17, d16
      92:	f001 fa1d 	bl	14d0 <__ieee754_sqrt>
/workspace/benchmark/Lenet5_in_OPTEE/ta/lenet.c:197
      96:	eef7 0b00 	vmov.f64	d16, #112	; 0x3f800000  1.0
      9a:	f505 7004 	add.w	r0, r5, #528	; 0x210
      9e:	eec0 1b80 	vdiv.f64	d17, d16, d0
/workspace/benchmark/Lenet5_in_OPTEE/ta/lenet.c:187
      a2:	4605      	mov	r5, r0
      a4:	4623      	mov	r3, r4
      a6:	f104 011c 	add.w	r1, r4, #28
/workspace/benchmark/Lenet5_in_OPTEE/ta/lenet.c:200 (discriminator 3)
      aa:	f813 2f01 	ldrb.w	r2, [r3, #1]!
      ae:	ee07 2a90 	vmov	s15, r2
/workspace/benchmark/Lenet5_in_OPTEE/ta/lenet.c:198 (discriminator 3)
      b2:	4299      	cmp	r1, r3
/workspace/benchmark/Lenet5_in_OPTEE/ta/lenet.c:200 (discriminator 3)
      b4:	eef8 0be7 	vcvt.f64.s32	d16, s15
      b8:	ee70 0bc8 	vsub.f64	d16, d16, d8
      bc:	ee60 0ba1 	vmul.f64	d16, d16, d17
      c0:	ece5 0b02 	vstmia	r5!, {d16}
/workspace/benchmark/Lenet5_in_OPTEE/ta/lenet.c:198 (discriminator 3)
      c4:	d1f1      	bne.n	aa <load_input+0x70>
/workspace/benchmark/Lenet5_in_OPTEE/ta/lenet.c:197 (discriminator 2)
      c6:	f500 7080 	add.w	r0, r0, #256	; 0x100
      ca:	428e      	cmp	r6, r1
      cc:	d001      	beq.n	d2 <load_input+0x98>
      ce:	460c      	mov	r4, r1
      d0:	e7e7      	b.n	a2 <load_input+0x68>
/workspace/benchmark/Lenet5_in_OPTEE/ta/lenet.c:202
      d2:	ecbd 8b02 	vpop	{d8}
      d6:	bd70      	pop	{r4, r5, r6, pc}
      d8:	a72f0539 	.word	0xa72f0539
      dc:	3f54e5e0 	.word	0x3f54e5e0

000000e0 <forward.constprop.0>:
forward():
/workspace/benchmark/Lenet5_in_OPTEE/ta/lenet.c:165
      e0:	f8df 34f8 	ldr.w	r3, [pc, #1272]	; 5dc <forward.constprop.0+0x4fc>
      e4:	2200      	movs	r2, #0
/workspace/benchmark/Lenet5_in_OPTEE/ta/lenet.c:163
      e6:	e92d 4ff0 	stmdb	sp!, {r4, r5, r6, r7, r8, r9, sl, fp, lr}
/workspace/benchmark/Lenet5_in_OPTEE/ta/lenet.c:165
      ea:	4611      	mov	r1, r2
      ec:	447b      	add	r3, pc
/workspace/benchmark/Lenet5_in_OPTEE/ta/lenet.c:163
      ee:	b08b      	sub	sp, #44	; 0x2c
      f0:	4683      	mov	fp, r0
/workspace/benchmark/Lenet5_in_OPTEE/ta/lenet.c:165
      f2:	681b      	ldr	r3, [r3, #0]
      f4:	9300      	str	r3, [sp, #0]
      f6:	f500 5300 	add.w	r3, r0, #8192	; 0x2000
      fa:	9303      	str	r3, [sp, #12]
      fc:	9b03      	ldr	r3, [sp, #12]
      fe:	1898      	adds	r0, r3, r2
     100:	2300      	movs	r3, #0
     102:	e026      	b.n	152 <forward.constprop.0+0x72>
     104:	ecf9 2b02 	vldmia	r9!, {d18}
     108:	f1b8 0801 	subs.w	r8, r8, #1
     10c:	ecfa 1b02 	vldmia	sl!, {d17}
     110:	eee2 0ba1 	vfma.f64	d16, d18, d17
     114:	d1f6      	bne.n	104 <forward.constprop.0+0x24>
     116:	3701      	adds	r7, #1
     118:	f50c 7c80 	add.w	ip, ip, #256	; 0x100
     11c:	f10e 0e28 	add.w	lr, lr, #40	; 0x28
     120:	2f05      	cmp	r7, #5
     122:	d004      	beq.n	12e <forward.constprop.0+0x4e>
/workspace/benchmark/Lenet5_in_OPTEE/ta/lenet.c:163
     124:	46f2      	mov	sl, lr
     126:	46e1      	mov	r9, ip
     128:	f04f 0805 	mov.w	r8, #5
     12c:	e7ea      	b.n	104 <forward.constprop.0+0x24>
/workspace/benchmark/Lenet5_in_OPTEE/ta/lenet.c:165
     12e:	3401      	adds	r4, #1
     130:	3608      	adds	r6, #8
     132:	2c1c      	cmp	r4, #28
     134:	ed45 0b02 	vstr	d16, [r5, #-8]
     138:	d007      	beq.n	14a <forward.constprop.0+0x6a>
     13a:	9f00      	ldr	r7, [sp, #0]
/workspace/benchmark/Lenet5_in_OPTEE/ta/lenet.c:163
     13c:	46b4      	mov	ip, r6
     13e:	ecf5 0b02 	vldmia	r5!, {d16}
     142:	eb01 0e07 	add.w	lr, r1, r7
/workspace/benchmark/Lenet5_in_OPTEE/ta/lenet.c:165
     146:	2700      	movs	r7, #0
     148:	e7ec      	b.n	124 <forward.constprop.0+0x44>
     14a:	3301      	adds	r3, #1
     14c:	30e0      	adds	r0, #224	; 0xe0
     14e:	2b1c      	cmp	r3, #28
     150:	d004      	beq.n	15c <forward.constprop.0+0x7c>
     152:	eb0b 2603 	add.w	r6, fp, r3, lsl #8
     156:	4605      	mov	r5, r0
     158:	2400      	movs	r4, #0
     15a:	e7ee      	b.n	13a <forward.constprop.0+0x5a>
     15c:	31c8      	adds	r1, #200	; 0xc8
     15e:	f502 52c4 	add.w	r2, r2, #6272	; 0x1880
     162:	f5b1 6f96 	cmp.w	r1, #1200	; 0x4b0
     166:	d1c9      	bne.n	fc <forward.constprop.0+0x1c>
     168:	9a00      	ldr	r2, [sp, #0]
relu():
/workspace/benchmark/Lenet5_in_OPTEE/ta/lenet.c:155
     16a:	efc0 1e30 	vmov.i64	d17, #0x0000000000000000
     16e:	f50b 5300 	add.w	r3, fp, #8192	; 0x2000
     172:	f50b 4433 	add.w	r4, fp, #45824	; 0xb300
     176:	f502 22ca 	add.w	r2, r2, #413696	; 0x65000
     17a:	eef7 2b00 	vmov.f64	d18, #112	; 0x3f800000  1.0
     17e:	f502 7298 	add.w	r2, r2, #304	; 0x130
forward():
/workspace/benchmark/Lenet5_in_OPTEE/ta/lenet.c:165
     182:	f503 51c4 	add.w	r1, r3, #6272	; 0x1880
     186:	edd2 3b00 	vldr	d19, [r2]
     18a:	edd3 0b00 	vldr	d16, [r3]
     18e:	ee70 0ba3 	vadd.f64	d16, d16, d19
relu():
/workspace/benchmark/Lenet5_in_OPTEE/ta/lenet.c:155
     192:	eef5 0bc0 	vcmpe.f64	d16, #0.0
     196:	eef1 fa10 	vmrs	APSR_nzcv, fpscr
     19a:	fe72 3ba1 	vselgt.f64	d19, d18, d17
     19e:	ee60 0ba3 	vmul.f64	d16, d16, d19
forward():
/workspace/benchmark/Lenet5_in_OPTEE/ta/lenet.c:165
     1a2:	ece3 0b02 	vstmia	r3!, {d16}
     1a6:	428b      	cmp	r3, r1
     1a8:	d1ed      	bne.n	186 <forward.constprop.0+0xa6>
     1aa:	3208      	adds	r2, #8
     1ac:	429c      	cmp	r4, r3
     1ae:	d1e8      	bne.n	182 <forward.constprop.0+0xa2>
/workspace/benchmark/Lenet5_in_OPTEE/ta/lenet.c:166
     1b0:	2700      	movs	r7, #0
     1b2:	f04f 081c 	mov.w	r8, #28
     1b6:	9402      	str	r4, [sp, #8]
     1b8:	f44f 53c4 	mov.w	r3, #6272	; 0x1880
     1bc:	2000      	movs	r0, #0
     1be:	fb03 fe07 	mul.w	lr, r3, r7
     1c2:	9b02      	ldr	r3, [sp, #8]
     1c4:	9301      	str	r3, [sp, #4]
     1c6:	f44f 7344 	mov.w	r3, #784	; 0x310
     1ca:	437b      	muls	r3, r7
     1cc:	461c      	mov	r4, r3
     1ce:	e062      	b.n	296 <forward.constprop.0+0x1b6>
     1d0:	2601      	movs	r6, #1
     1d2:	1819      	adds	r1, r3, r0
     1d4:	eddc 0b00 	vldr	d16, [ip]
     1d8:	eba6 0a03 	sub.w	sl, r6, r3
     1dc:	f10c 0ce0 	add.w	ip, ip, #224	; 0xe0
     1e0:	fb08 4101 	mla	r1, r8, r1, r4
     1e4:	4411      	add	r1, r2
     1e6:	4429      	add	r1, r5
     1e8:	f501 6180 	add.w	r1, r1, #1024	; 0x400
     1ec:	eb0b 01c1 	add.w	r1, fp, r1, lsl #3
     1f0:	edd1 1b00 	vldr	d17, [r1]
     1f4:	eef4 1be0 	vcmpe.f64	d17, d16
     1f8:	ed5c 1b36 	vldr	d17, [ip, #-216]	; 0xffffff28
     1fc:	eef1 fa10 	vmrs	APSR_nzcv, fpscr
     200:	bf4c      	ite	mi
     202:	2101      	movmi	r1, #1
     204:	2100      	movpl	r1, #0
     206:	fb01 3a0a 	mla	sl, r1, sl, r3
     20a:	f1c2 0100 	rsb	r1, r2, #0
     20e:	bf58      	it	pl
     210:	2100      	movpl	r1, #0
     212:	eb0a 0300 	add.w	r3, sl, r0
     216:	4411      	add	r1, r2
     218:	4622      	mov	r2, r4
     21a:	fb08 4303 	mla	r3, r8, r3, r4
     21e:	440b      	add	r3, r1
     220:	442b      	add	r3, r5
     222:	f503 6380 	add.w	r3, r3, #1024	; 0x400
     226:	eb0b 03c3 	add.w	r3, fp, r3, lsl #3
     22a:	edd3 0b00 	vldr	d16, [r3]
     22e:	eba6 030a 	sub.w	r3, r6, sl
     232:	eef4 1be0 	vcmpe.f64	d17, d16
     236:	eef1 fa10 	vmrs	APSR_nzcv, fpscr
     23a:	bfcc      	ite	gt
     23c:	2201      	movgt	r2, #1
     23e:	2200      	movle	r2, #0
     240:	fb02 a303 	mla	r3, r2, r3, sl
     244:	f1c1 0201 	rsb	r2, r1, #1
     248:	bfd8      	it	le
     24a:	2200      	movle	r2, #0
     24c:	440a      	add	r2, r1
     24e:	2e00      	cmp	r6, #0
     250:	d0be      	beq.n	1d0 <forward.constprop.0+0xf0>
     252:	4403      	add	r3, r0
     254:	9904      	ldr	r1, [sp, #16]
     256:	f109 0910 	add.w	r9, r9, #16
     25a:	fb08 4303 	mla	r3, r8, r3, r4
     25e:	4413      	add	r3, r2
     260:	442b      	add	r3, r5
     262:	3502      	adds	r5, #2
     264:	f503 6380 	add.w	r3, r3, #1024	; 0x400
     268:	2d1c      	cmp	r5, #28
     26a:	eb0b 03c3 	add.w	r3, fp, r3, lsl #3
     26e:	e9d3 2300 	ldrd	r2, r3, [r3]
     272:	e8e1 2302 	strd	r2, r3, [r1], #8
     276:	9104      	str	r1, [sp, #16]
     278:	d004      	beq.n	284 <forward.constprop.0+0x1a4>
     27a:	2600      	movs	r6, #0
     27c:	46cc      	mov	ip, r9
     27e:	4632      	mov	r2, r6
     280:	4633      	mov	r3, r6
     282:	e7a6      	b.n	1d2 <forward.constprop.0+0xf2>
     284:	9b01      	ldr	r3, [sp, #4]
     286:	3002      	adds	r0, #2
     288:	f50e 7ee0 	add.w	lr, lr, #448	; 0x1c0
     28c:	281c      	cmp	r0, #28
     28e:	f103 0370 	add.w	r3, r3, #112	; 0x70
     292:	9301      	str	r3, [sp, #4]
     294:	d006      	beq.n	2a4 <forward.constprop.0+0x1c4>
     296:	9b03      	ldr	r3, [sp, #12]
     298:	2500      	movs	r5, #0
     29a:	eb03 090e 	add.w	r9, r3, lr
     29e:	9b01      	ldr	r3, [sp, #4]
     2a0:	9304      	str	r3, [sp, #16]
     2a2:	e7ea      	b.n	27a <forward.constprop.0+0x19a>
     2a4:	9b02      	ldr	r3, [sp, #8]
     2a6:	3701      	adds	r7, #1
     2a8:	2f06      	cmp	r7, #6
     2aa:	f503 63c4 	add.w	r3, r3, #1568	; 0x620
     2ae:	9302      	str	r3, [sp, #8]
     2b0:	d182      	bne.n	1b8 <forward.constprop.0+0xd8>
     2b2:	9b00      	ldr	r3, [sp, #0]
     2b4:	2100      	movs	r1, #0
     2b6:	460a      	mov	r2, r1
     2b8:	f503 6396 	add.w	r3, r3, #1200	; 0x4b0
     2bc:	9308      	str	r3, [sp, #32]
     2be:	f50b 4357 	add.w	r3, fp, #55040	; 0xd700
     2c2:	33c0      	adds	r3, #192	; 0xc0
     2c4:	9309      	str	r3, [sp, #36]	; 0x24
/workspace/benchmark/Lenet5_in_OPTEE/ta/lenet.c:167
     2c6:	9808      	ldr	r0, [sp, #32]
     2c8:	4692      	mov	sl, r2
     2ca:	4699      	mov	r9, r3
     2cc:	f04f 0c00 	mov.w	ip, #0
     2d0:	4408      	add	r0, r1
     2d2:	9003      	str	r0, [sp, #12]
     2d4:	e046      	b.n	364 <forward.constprop.0+0x284>
     2d6:	9c06      	ldr	r4, [sp, #24]
     2d8:	ecf4 2b02 	vldmia	r4!, {d18}
     2dc:	9406      	str	r4, [sp, #24]
     2de:	9c07      	ldr	r4, [sp, #28]
     2e0:	ecf4 1b02 	vldmia	r4!, {d17}
     2e4:	9407      	str	r4, [sp, #28]
     2e6:	eee2 0ba1 	vfma.f64	d16, d18, d17
     2ea:	9c05      	ldr	r4, [sp, #20]
     2ec:	3c01      	subs	r4, #1
     2ee:	9405      	str	r4, [sp, #20]
     2f0:	d1f1      	bne.n	2d6 <forward.constprop.0+0x1f6>
     2f2:	9c04      	ldr	r4, [sp, #16]
     2f4:	f108 0870 	add.w	r8, r8, #112	; 0x70
     2f8:	f10e 0e28 	add.w	lr, lr, #40	; 0x28
     2fc:	3c01      	subs	r4, #1
     2fe:	9404      	str	r4, [sp, #16]
     300:	d006      	beq.n	310 <forward.constprop.0+0x230>
/workspace/benchmark/Lenet5_in_OPTEE/ta/lenet.c:166
     302:	2405      	movs	r4, #5
     304:	f8cd e01c 	str.w	lr, [sp, #28]
     308:	f8cd 8018 	str.w	r8, [sp, #24]
     30c:	9405      	str	r4, [sp, #20]
     30e:	e7e2      	b.n	2d6 <forward.constprop.0+0x1f6>
/workspace/benchmark/Lenet5_in_OPTEE/ta/lenet.c:167
     310:	9c01      	ldr	r4, [sp, #4]
     312:	ed40 0b02 	vstr	d16, [r0, #-8]
     316:	3401      	adds	r4, #1
     318:	9401      	str	r4, [sp, #4]
     31a:	2c0a      	cmp	r4, #10
     31c:	d008      	beq.n	330 <forward.constprop.0+0x250>
     31e:	ecf0 0b02 	vldmia	r0!, {d16}
/workspace/benchmark/Lenet5_in_OPTEE/ta/lenet.c:166
     322:	2405      	movs	r4, #5
     324:	f8dd e00c 	ldr.w	lr, [sp, #12]
     328:	9404      	str	r4, [sp, #16]
     32a:	eb07 0800 	add.w	r8, r7, r0
     32e:	e7e8      	b.n	302 <forward.constprop.0+0x222>
/workspace/benchmark/Lenet5_in_OPTEE/ta/lenet.c:167
     330:	9802      	ldr	r0, [sp, #8]
     332:	3550      	adds	r5, #80	; 0x50
     334:	3620      	adds	r6, #32
     336:	3001      	adds	r0, #1
     338:	9002      	str	r0, [sp, #8]
     33a:	280a      	cmp	r0, #10
     33c:	d006      	beq.n	34c <forward.constprop.0+0x26c>
     33e:	f5a6 5713 	sub.w	r7, r6, #9408	; 0x24c0
     342:	2400      	movs	r4, #0
/workspace/benchmark/Lenet5_in_OPTEE/ta/lenet.c:166
     344:	4628      	mov	r0, r5
     346:	3f08      	subs	r7, #8
/workspace/benchmark/Lenet5_in_OPTEE/ta/lenet.c:167
     348:	9401      	str	r4, [sp, #4]
     34a:	e7e8      	b.n	31e <forward.constprop.0+0x23e>
     34c:	9803      	ldr	r0, [sp, #12]
     34e:	f10c 0c19 	add.w	ip, ip, #25
     352:	f509 7948 	add.w	r9, r9, #800	; 0x320
     356:	f5aa 7a48 	sub.w	sl, sl, #800	; 0x320
     35a:	30c8      	adds	r0, #200	; 0xc8
     35c:	f5bc 7fc8 	cmp.w	ip, #400	; 0x190
     360:	9003      	str	r0, [sp, #12]
     362:	d004      	beq.n	36e <forward.constprop.0+0x28e>
     364:	2000      	movs	r0, #0
     366:	4656      	mov	r6, sl
     368:	464d      	mov	r5, r9
     36a:	9002      	str	r0, [sp, #8]
     36c:	e7e7      	b.n	33e <forward.constprop.0+0x25e>
     36e:	f502 62c4 	add.w	r2, r2, #1568	; 0x620
     372:	f501 6148 	add.w	r1, r1, #3200	; 0xc80
     376:	f5b2 5f13 	cmp.w	r2, #9408	; 0x24c0
     37a:	d1a4      	bne.n	2c6 <forward.constprop.0+0x1e6>
     37c:	9a00      	ldr	r2, [sp, #0]
     37e:	f50b 3484 	add.w	r4, fp, #67584	; 0x10800
relu():
/workspace/benchmark/Lenet5_in_OPTEE/ta/lenet.c:155
     382:	efc0 1e30 	vmov.i64	d17, #0x0000000000000000
     386:	f504 70e0 	add.w	r0, r4, #448	; 0x1c0
     38a:	f502 22ca 	add.w	r2, r2, #413696	; 0x65000
     38e:	eef7 2b00 	vmov.f64	d18, #112	; 0x3f800000  1.0
     392:	f502 72b0 	add.w	r2, r2, #352	; 0x160
forward():
/workspace/benchmark/Lenet5_in_OPTEE/ta/lenet.c:167
     396:	f503 7148 	add.w	r1, r3, #800	; 0x320
     39a:	edd2 3b00 	vldr	d19, [r2]
     39e:	edd3 0b00 	vldr	d16, [r3]
     3a2:	ee70 0ba3 	vadd.f64	d16, d16, d19
relu():
/workspace/benchmark/Lenet5_in_OPTEE/ta/lenet.c:155
     3a6:	eef5 0bc0 	vcmpe.f64	d16, #0.0
     3aa:	eef1 fa10 	vmrs	APSR_nzcv, fpscr
     3ae:	fe72 3ba1 	vselgt.f64	d19, d18, d17
     3b2:	ee60 0ba3 	vmul.f64	d16, d16, d19
forward():
/workspace/benchmark/Lenet5_in_OPTEE/ta/lenet.c:167
     3b6:	ece3 0b02 	vstmia	r3!, {d16}
     3ba:	428b      	cmp	r3, r1
     3bc:	d1ed      	bne.n	39a <forward.constprop.0+0x2ba>
     3be:	3208      	adds	r2, #8
     3c0:	4298      	cmp	r0, r3
     3c2:	d1e8      	bne.n	396 <forward.constprop.0+0x2b6>
/workspace/benchmark/Lenet5_in_OPTEE/ta/lenet.c:168
     3c4:	2700      	movs	r7, #0
     3c6:	f04f 080a 	mov.w	r8, #10
     3ca:	f504 73e0 	add.w	r3, r4, #448	; 0x1c0
     3ce:	f641 29f8 	movw	r9, #6904	; 0x1af8
     3d2:	9303      	str	r3, [sp, #12]
     3d4:	f44f 7348 	mov.w	r3, #800	; 0x320
     3d8:	2000      	movs	r0, #0
     3da:	fb03 fe07 	mul.w	lr, r3, r7
     3de:	9b03      	ldr	r3, [sp, #12]
     3e0:	9302      	str	r3, [sp, #8]
     3e2:	2364      	movs	r3, #100	; 0x64
     3e4:	437b      	muls	r3, r7
     3e6:	461c      	mov	r4, r3
     3e8:	e05d      	b.n	4a6 <forward.constprop.0+0x3c6>
     3ea:	2601      	movs	r6, #1
     3ec:	181a      	adds	r2, r3, r0
     3ee:	eddc 1b00 	vldr	d17, [ip]
     3f2:	1af1      	subs	r1, r6, r3
     3f4:	f10c 0c50 	add.w	ip, ip, #80	; 0x50
     3f8:	fb08 4202 	mla	r2, r8, r2, r4
     3fc:	4452      	add	r2, sl
     3fe:	442a      	add	r2, r5
     400:	444a      	add	r2, r9
     402:	eb0b 02c2 	add.w	r2, fp, r2, lsl #3
     406:	edd2 0b00 	vldr	d16, [r2]
     40a:	f1ca 0200 	rsb	r2, sl, #0
     40e:	eef4 1be0 	vcmpe.f64	d17, d16
     412:	ed5c 1b12 	vldr	d17, [ip, #-72]	; 0xffffffb8
     416:	eef1 fa10 	vmrs	APSR_nzcv, fpscr
     41a:	bfdc      	itt	le
     41c:	2100      	movle	r1, #0
     41e:	2200      	movle	r2, #0
     420:	4419      	add	r1, r3
     422:	4452      	add	r2, sl
     424:	180b      	adds	r3, r1, r0
     426:	eba6 0a01 	sub.w	sl, r6, r1
     42a:	fb08 4303 	mla	r3, r8, r3, r4
     42e:	4413      	add	r3, r2
     430:	442b      	add	r3, r5
     432:	444b      	add	r3, r9
     434:	eb0b 03c3 	add.w	r3, fp, r3, lsl #3
     438:	edd3 0b00 	vldr	d16, [r3]
     43c:	eef4 1be0 	vcmpe.f64	d17, d16
     440:	eef1 fa10 	vmrs	APSR_nzcv, fpscr
     444:	bfcc      	ite	gt
     446:	2301      	movgt	r3, #1
     448:	2300      	movle	r3, #0
     44a:	fb03 130a 	mla	r3, r3, sl, r1
     44e:	f1c2 0a01 	rsb	sl, r2, #1
     452:	bfd8      	it	le
     454:	f04f 0a00 	movle.w	sl, #0
     458:	4492      	add	sl, r2
     45a:	2e00      	cmp	r6, #0
     45c:	d0c5      	beq.n	3ea <forward.constprop.0+0x30a>
     45e:	4403      	add	r3, r0
     460:	9904      	ldr	r1, [sp, #16]
     462:	fb08 4303 	mla	r3, r8, r3, r4
     466:	4453      	add	r3, sl
     468:	442b      	add	r3, r5
     46a:	3502      	adds	r5, #2
     46c:	444b      	add	r3, r9
     46e:	2d0a      	cmp	r5, #10
     470:	eb0b 03c3 	add.w	r3, fp, r3, lsl #3
     474:	e9d3 2300 	ldrd	r2, r3, [r3]
     478:	e8e1 2302 	strd	r2, r3, [r1], #8
     47c:	9b01      	ldr	r3, [sp, #4]
     47e:	9104      	str	r1, [sp, #16]
     480:	f103 0310 	add.w	r3, r3, #16
     484:	9301      	str	r3, [sp, #4]
     486:	d005      	beq.n	494 <forward.constprop.0+0x3b4>
     488:	2600      	movs	r6, #0
     48a:	f8dd c004 	ldr.w	ip, [sp, #4]
     48e:	46b2      	mov	sl, r6
     490:	4633      	mov	r3, r6
     492:	e7ab      	b.n	3ec <forward.constprop.0+0x30c>
     494:	9b02      	ldr	r3, [sp, #8]
     496:	3002      	adds	r0, #2
     498:	f10e 0ea0 	add.w	lr, lr, #160	; 0xa0
     49c:	280a      	cmp	r0, #10
     49e:	f103 0328 	add.w	r3, r3, #40	; 0x28
     4a2:	9302      	str	r3, [sp, #8]
     4a4:	d006      	beq.n	4b4 <forward.constprop.0+0x3d4>
     4a6:	9b09      	ldr	r3, [sp, #36]	; 0x24
     4a8:	2500      	movs	r5, #0
     4aa:	4473      	add	r3, lr
     4ac:	9301      	str	r3, [sp, #4]
     4ae:	9b02      	ldr	r3, [sp, #8]
     4b0:	9304      	str	r3, [sp, #16]
     4b2:	e7e9      	b.n	488 <forward.constprop.0+0x3a8>
     4b4:	9b03      	ldr	r3, [sp, #12]
     4b6:	3701      	adds	r7, #1
     4b8:	2f10      	cmp	r7, #16
     4ba:	f103 03c8 	add.w	r3, r3, #200	; 0xc8
     4be:	9303      	str	r3, [sp, #12]
     4c0:	d188      	bne.n	3d4 <forward.constprop.0+0x2f4>
     4c2:	2400      	movs	r4, #0
     4c4:	f50b 398b 	add.w	r9, fp, #71168	; 0x11600
     4c8:	4625      	mov	r5, r4
     4ca:	f644 7ab0 	movw	sl, #20400	; 0x4fb0
/workspace/benchmark/Lenet5_in_OPTEE/ta/lenet.c:169
     4ce:	9800      	ldr	r0, [sp, #0]
     4d0:	eb0b 0205 	add.w	r2, fp, r5
     4d4:	f109 0340 	add.w	r3, r9, #64	; 0x40
     4d8:	f502 3284 	add.w	r2, r2, #67584	; 0x10800
     4dc:	4420      	add	r0, r4
/workspace/benchmark/Lenet5_in_OPTEE/ta/lenet.c:168
     4de:	2100      	movs	r1, #0
     4e0:	461e      	mov	r6, r3
     4e2:	f502 72e0 	add.w	r2, r2, #448	; 0x1c0
     4e6:	9001      	str	r0, [sp, #4]
     4e8:	e019      	b.n	51e <forward.constprop.0+0x43e>
/workspace/benchmark/Lenet5_in_OPTEE/ta/lenet.c:169
     4ea:	ecf8 2b02 	vldmia	r8!, {d18}
     4ee:	f1bc 0c01 	subs.w	ip, ip, #1
     4f2:	ecfe 1b02 	vldmia	lr!, {d17}
     4f6:	eee2 0ba1 	vfma.f64	d16, d18, d17
     4fa:	d1f6      	bne.n	4ea <forward.constprop.0+0x40a>
     4fc:	3028      	adds	r0, #40	; 0x28
     4fe:	28c8      	cmp	r0, #200	; 0xc8
     500:	d006      	beq.n	510 <forward.constprop.0+0x430>
     502:	eb02 0800 	add.w	r8, r2, r0
     506:	eb07 0e00 	add.w	lr, r7, r0
/workspace/benchmark/Lenet5_in_OPTEE/ta/lenet.c:168
     50a:	f04f 0c05 	mov.w	ip, #5
     50e:	e7ec      	b.n	4ea <forward.constprop.0+0x40a>
/workspace/benchmark/Lenet5_in_OPTEE/ta/lenet.c:169
     510:	31c8      	adds	r1, #200	; 0xc8
     512:	f645 50c0 	movw	r0, #24000	; 0x5dc0
     516:	ed46 0b02 	vstr	d16, [r6, #-8]
     51a:	4281      	cmp	r1, r0
     51c:	d006      	beq.n	52c <forward.constprop.0+0x44c>
     51e:	9f01      	ldr	r7, [sp, #4]
/workspace/benchmark/Lenet5_in_OPTEE/ta/lenet.c:168
     520:	2000      	movs	r0, #0
     522:	ecf6 0b02 	vldmia	r6!, {d16}
     526:	440f      	add	r7, r1
     528:	4457      	add	r7, sl
     52a:	e7ea      	b.n	502 <forward.constprop.0+0x422>
/workspace/benchmark/Lenet5_in_OPTEE/ta/lenet.c:169
     52c:	35c8      	adds	r5, #200	; 0xc8
     52e:	440c      	add	r4, r1
     530:	f5b5 6f48 	cmp.w	r5, #3200	; 0xc80
     534:	d1cb      	bne.n	4ce <forward.constprop.0+0x3ee>
     536:	9a00      	ldr	r2, [sp, #0]
relu():
/workspace/benchmark/Lenet5_in_OPTEE/ta/lenet.c:155
     538:	efc0 1e30 	vmov.i64	d17, #0x0000000000000000
forward():
/workspace/benchmark/Lenet5_in_OPTEE/ta/lenet.c:169
     53c:	4619      	mov	r1, r3
relu():
/workspace/benchmark/Lenet5_in_OPTEE/ta/lenet.c:155
     53e:	eef7 2b00 	vmov.f64	d18, #112	; 0x3f800000  1.0
     542:	f502 20ca 	add.w	r0, r2, #413696	; 0x65000
     546:	f50b 328d 	add.w	r2, fp, #72192	; 0x11a00
     54a:	f500 74f0 	add.w	r4, r0, #480	; 0x1e0
forward():
/workspace/benchmark/Lenet5_in_OPTEE/ta/lenet.c:169
     54e:	ecf4 3b02 	vldmia	r4!, {d19}
     552:	edd1 0b00 	vldr	d16, [r1]
     556:	ee70 0ba3 	vadd.f64	d16, d16, d19
relu():
/workspace/benchmark/Lenet5_in_OPTEE/ta/lenet.c:155
     55a:	eef5 0bc0 	vcmpe.f64	d16, #0.0
     55e:	eef1 fa10 	vmrs	APSR_nzcv, fpscr
     562:	fe72 3ba1 	vselgt.f64	d19, d18, d17
     566:	ee60 0ba3 	vmul.f64	d16, d16, d19
forward():
/workspace/benchmark/Lenet5_in_OPTEE/ta/lenet.c:169
     56a:	ece1 0b02 	vstmia	r1!, {d16}
     56e:	428a      	cmp	r2, r1
     570:	d1ed      	bne.n	54e <forward.constprop.0+0x46e>
     572:	9900      	ldr	r1, [sp, #0]
     574:	f102 0650 	add.w	r6, r2, #80	; 0x50
     578:	f501 21c5 	add.w	r1, r1, #403456	; 0x62800
     57c:	f501 716c 	add.w	r1, r1, #944	; 0x3b0
/workspace/benchmark/Lenet5_in_OPTEE/ta/lenet.c:170
     580:	4614      	mov	r4, r2
/workspace/benchmark/Lenet5_in_OPTEE/ta/lenet.c:169
     582:	460f      	mov	r7, r1
     584:	4615      	mov	r5, r2
/workspace/benchmark/Lenet5_in_OPTEE/ta/lenet.c:170
     586:	ecf7 1b02 	vldmia	r7!, {d17}
     58a:	edd3 2b00 	vldr	d18, [r3]
     58e:	edd5 0b00 	vldr	d16, [r5]
     592:	eee2 0ba1 	vfma.f64	d16, d18, d17
     596:	ece5 0b02 	vstmia	r5!, {d16}
     59a:	42ae      	cmp	r6, r5
     59c:	d1f3      	bne.n	586 <forward.constprop.0+0x4a6>
     59e:	3308      	adds	r3, #8
     5a0:	3150      	adds	r1, #80	; 0x50
     5a2:	429a      	cmp	r2, r3
     5a4:	d1ec      	bne.n	580 <forward.constprop.0+0x4a0>
relu():
/workspace/benchmark/Lenet5_in_OPTEE/ta/lenet.c:155
     5a6:	efc0 2e30 	vmov.i64	d18, #0x0000000000000000
     5aa:	f500 63b4 	add.w	r3, r0, #1440	; 0x5a0
     5ae:	eef7 3b00 	vmov.f64	d19, #112	; 0x3f800000  1.0
forward():
/workspace/benchmark/Lenet5_in_OPTEE/ta/lenet.c:170
     5b2:	ecf3 1b02 	vldmia	r3!, {d17}
     5b6:	edd4 0b00 	vldr	d16, [r4]
     5ba:	ee70 0ba1 	vadd.f64	d16, d16, d17
relu():
/workspace/benchmark/Lenet5_in_OPTEE/ta/lenet.c:155
     5be:	eef5 0bc0 	vcmpe.f64	d16, #0.0
     5c2:	eef1 fa10 	vmrs	APSR_nzcv, fpscr
     5c6:	fe73 1ba2 	vselgt.f64	d17, d19, d18
     5ca:	ee60 0ba1 	vmul.f64	d16, d16, d17
forward():
/workspace/benchmark/Lenet5_in_OPTEE/ta/lenet.c:170
     5ce:	ece4 0b02 	vstmia	r4!, {d16}
     5d2:	42b4      	cmp	r4, r6
     5d4:	d1ed      	bne.n	5b2 <forward.constprop.0+0x4d2>
/workspace/benchmark/Lenet5_in_OPTEE/ta/lenet.c:171
     5d6:	b00b      	add	sp, #44	; 0x2c
     5d8:	e8bd 8ff0 	ldmia.w	sp!, {r4, r5, r6, r7, r8, r9, sl, fp, pc}
     5dc:	0000afac 	.word	0x0000afac

000005e0 <TrainBatch>:
TrainBatch():
/workspace/benchmark/Lenet5_in_OPTEE/ta/lenet.c:270
     5e0:	e92d 4ff0 	stmdb	sp!, {r4, r5, r6, r7, r8, r9, sl, fp, lr}
     5e4:	4bda      	ldr	r3, [pc, #872]	; (950 <TrainBatch+0x370>)
     5e6:	ed2d 8b0a 	vpush	{d8-d12}
     5ea:	f5ad 2d6e 	sub.w	sp, sp, #974848	; 0xee000
     5ee:	b0b3      	sub	sp, #204	; 0xcc
     5f0:	ee0b 2a10 	vmov	s22, r2
     5f4:	4ad7      	ldr	r2, [pc, #860]	; (954 <TrainBatch+0x374>)
softmax():
/workspace/benchmark/Lenet5_in_OPTEE/ta/lenet.c:220
     5f6:	ef80 8e30 	vmov.i64	d8, #0x0000000000000000
TrainBatch():
/workspace/benchmark/Lenet5_in_OPTEE/ta/lenet.c:270
     5fa:	447a      	add	r2, pc
     5fc:	900d      	str	r0, [sp, #52]	; 0x34
     5fe:	910e      	str	r1, [sp, #56]	; 0x38
     600:	f50d 216e 	add.w	r1, sp, #974848	; 0xee000
     604:	31c4      	adds	r1, #196	; 0xc4
/workspace/benchmark/Lenet5_in_OPTEE/ta/lenet.c:271
     606:	f50d 300d 	add.w	r0, sp, #144384	; 0x23400
/workspace/benchmark/Lenet5_in_OPTEE/ta/lenet.c:270
     60a:	58d3      	ldr	r3, [r2, r3]
/workspace/benchmark/Lenet5_in_OPTEE/ta/lenet.c:271
     60c:	30e0      	adds	r0, #224	; 0xe0
     60e:	4ace      	ldr	r2, [pc, #824]	; (948 <TrainBatch+0x368>)
/workspace/benchmark/Lenet5_in_OPTEE/ta/lenet.c:270
     610:	681b      	ldr	r3, [r3, #0]
     612:	600b      	str	r3, [r1, #0]
     614:	f04f 0300 	mov.w	r3, #0
/workspace/benchmark/Lenet5_in_OPTEE/ta/lenet.c:271
     618:	2100      	movs	r1, #0
     61a:	f008 fb9e 	bl	8d5a <memset>
/workspace/benchmark/Lenet5_in_OPTEE/ta/lenet.c:273
     61e:	eef8 0bcb 	vcvt.f64.s32	d16, s22
     622:	eef6 1b00 	vmov.f64	d17, #96	; 0x3f000000  0.5
/workspace/benchmark/Lenet5_in_OPTEE/ta/lenet.c:275
     626:	2300      	movs	r3, #0
     628:	9303      	str	r3, [sp, #12]
/workspace/benchmark/Lenet5_in_OPTEE/ta/lenet.c:273
     62a:	ee81 9ba0 	vdiv.f64	d9, d17, d16
/workspace/benchmark/Lenet5_in_OPTEE/ta/lenet.c:275 (discriminator 1)
     62e:	ee1b 2a10 	vmov	r2, s22
     632:	9b03      	ldr	r3, [sp, #12]
     634:	4293      	cmp	r3, r2
     636:	db23      	blt.n	680 <TrainBatch+0xa0>
/workspace/benchmark/Lenet5_in_OPTEE/ta/lenet.c:291
     638:	4bc7      	ldr	r3, [pc, #796]	; (958 <TrainBatch+0x378>)
     63a:	f50d 310d 	add.w	r1, sp, #144384	; 0x23400
     63e:	31e0      	adds	r1, #224	; 0xe0
     640:	447b      	add	r3, pc
     642:	681b      	ldr	r3, [r3, #0]
     644:	f503 22ca 	add.w	r2, r3, #413696	; 0x65000
     648:	f502 62be 	add.w	r2, r2, #1520	; 0x5f0
/workspace/benchmark/Lenet5_in_OPTEE/ta/lenet.c:291 (discriminator 3)
     64c:	ecf1 1b02 	vldmia	r1!, {d17}
     650:	edd3 0b00 	vldr	d16, [r3]
     654:	eee1 0b89 	vfma.f64	d16, d17, d9
     658:	ece3 0b02 	vstmia	r3!, {d16}
/workspace/benchmark/Lenet5_in_OPTEE/ta/lenet.c:290 (discriminator 3)
     65c:	429a      	cmp	r2, r3
     65e:	d1f5      	bne.n	64c <TrainBatch+0x6c>
/workspace/benchmark/Lenet5_in_OPTEE/ta/lenet.c:270
     660:	4abe      	ldr	r2, [pc, #760]	; (95c <TrainBatch+0x37c>)
/workspace/benchmark/Lenet5_in_OPTEE/ta/lenet.c:292
     662:	f50d 216e 	add.w	r1, sp, #974848	; 0xee000
     666:	4bba      	ldr	r3, [pc, #744]	; (950 <TrainBatch+0x370>)
     668:	31c4      	adds	r1, #196	; 0xc4
/workspace/benchmark/Lenet5_in_OPTEE/ta/lenet.c:270
     66a:	447a      	add	r2, pc
/workspace/benchmark/Lenet5_in_OPTEE/ta/lenet.c:292
     66c:	58d3      	ldr	r3, [r2, r3]
     66e:	681a      	ldr	r2, [r3, #0]
     670:	680b      	ldr	r3, [r1, #0]
     672:	405a      	eors	r2, r3
     674:	f04f 0300 	mov.w	r3, #0
     678:	f000 8445 	beq.w	f06 <TrainBatch+0x926>
     67c:	f008 fb6c 	bl	8d58 <__stack_chk_fail>
/workspace/benchmark/Lenet5_in_OPTEE/ta/lenet.c:278
     680:	f50d 3790 	add.w	r7, sp, #73728	; 0x12000
/workspace/benchmark/Lenet5_in_OPTEE/ta/lenet.c:277
     684:	ac10      	add	r4, sp, #64	; 0x40
/workspace/benchmark/Lenet5_in_OPTEE/ta/lenet.c:278
     686:	37c8      	adds	r7, #200	; 0xc8
/workspace/benchmark/Lenet5_in_OPTEE/ta/lenet.c:277
     688:	4ab0      	ldr	r2, [pc, #704]	; (94c <TrainBatch+0x36c>)
     68a:	2100      	movs	r1, #0
/workspace/benchmark/Lenet5_in_OPTEE/ta/lenet.c:278
     68c:	f5a7 65c7 	sub.w	r5, r7, #1592	; 0x638
/workspace/benchmark/Lenet5_in_OPTEE/ta/lenet.c:277
     690:	4620      	mov	r0, r4
softmax():
/workspace/benchmark/Lenet5_in_OPTEE/ta/lenet.c:206
     692:	ef80 ae30 	vmov.i64	d10, #0x0000000000000000
TrainBatch():
/workspace/benchmark/Lenet5_in_OPTEE/ta/lenet.c:277
     696:	f008 fb60 	bl	8d5a <memset>
/workspace/benchmark/Lenet5_in_OPTEE/ta/lenet.c:278
     69a:	4aac      	ldr	r2, [pc, #688]	; (94c <TrainBatch+0x36c>)
     69c:	2100      	movs	r1, #0
     69e:	4628      	mov	r0, r5
     6a0:	f008 fb5b 	bl	8d5a <memset>
/workspace/benchmark/Lenet5_in_OPTEE/ta/lenet.c:279
     6a4:	f50d 2008 	add.w	r0, sp, #557056	; 0x88000
     6a8:	4aa7      	ldr	r2, [pc, #668]	; (948 <TrainBatch+0x368>)
     6aa:	2100      	movs	r1, #0
     6ac:	f500 602d 	add.w	r0, r0, #2768	; 0xad0
     6b0:	f505 358d 	add.w	r5, r5, #72192	; 0x11a00
     6b4:	f008 fb51 	bl	8d5a <memset>
/workspace/benchmark/Lenet5_in_OPTEE/ta/lenet.c:280
     6b8:	9b0d      	ldr	r3, [sp, #52]	; 0x34
     6ba:	9a03      	ldr	r2, [sp, #12]
     6bc:	f44f 7144 	mov.w	r1, #784	; 0x310
     6c0:	4620      	mov	r0, r4
/workspace/benchmark/Lenet5_in_OPTEE/ta/lenet.c:282
     6c2:	46ab      	mov	fp, r5
     6c4:	f44f 388d 	mov.w	r8, #72192	; 0x11a00
/workspace/benchmark/Lenet5_in_OPTEE/ta/lenet.c:280
     6c8:	fb01 3102 	mla	r1, r1, r2, r3
     6cc:	f7ff fcb5 	bl	3a <load_input>
/workspace/benchmark/Lenet5_in_OPTEE/ta/lenet.c:281
     6d0:	4620      	mov	r0, r4
     6d2:	f7ff fd05 	bl	e0 <forward.constprop.0>
/workspace/benchmark/Lenet5_in_OPTEE/ta/lenet.c:282
     6d6:	9b0e      	ldr	r3, [sp, #56]	; 0x38
     6d8:	9a03      	ldr	r2, [sp, #12]
     6da:	f813 9002 	ldrb.w	r9, [r3, r2]
softmax():
/workspace/benchmark/Lenet5_in_OPTEE/ta/lenet.c:209
     6de:	ef80 ce30 	vmov.i64	d12, #0x0000000000000000
     6e2:	f504 3a8d 	add.w	sl, r4, #72192	; 0x11a00
TrainBatch():
/workspace/benchmark/Lenet5_in_OPTEE/ta/lenet.c:270
     6e6:	260a      	movs	r6, #10
softmax():
/workspace/benchmark/Lenet5_in_OPTEE/ta/lenet.c:212
     6e8:	eb04 0308 	add.w	r3, r4, r8
     6ec:	edd3 0b00 	vldr	d16, [r3]
     6f0:	ecba 0b02 	vldmia	sl!, {d0}
     6f4:	9300      	str	r3, [sp, #0]
     6f6:	ee30 0b60 	vsub.f64	d0, d0, d16
     6fa:	f000 fd21 	bl	1140 <__ieee754_exp>
/workspace/benchmark/Lenet5_in_OPTEE/ta/lenet.c:210
     6fe:	9b00      	ldr	r3, [sp, #0]
/workspace/benchmark/Lenet5_in_OPTEE/ta/lenet.c:212
     700:	ee3c cb00 	vadd.f64	d12, d12, d0
/workspace/benchmark/Lenet5_in_OPTEE/ta/lenet.c:210
     704:	3e01      	subs	r6, #1
     706:	d1f1      	bne.n	6ec <TrainBatch+0x10c>
/workspace/benchmark/Lenet5_in_OPTEE/ta/lenet.c:214
     708:	eef7 2b00 	vmov.f64	d18, #112	; 0x3f800000  1.0
/workspace/benchmark/Lenet5_in_OPTEE/ta/lenet.c:207
     70c:	4b8f      	ldr	r3, [pc, #572]	; (94c <TrainBatch+0x36c>)
     70e:	f108 0808 	add.w	r8, r8, #8
/workspace/benchmark/Lenet5_in_OPTEE/ta/lenet.c:214
     712:	eec2 0b8c 	vdiv.f64	d16, d18, d12
/workspace/benchmark/Lenet5_in_OPTEE/ta/lenet.c:207
     716:	4598      	cmp	r8, r3
/workspace/benchmark/Lenet5_in_OPTEE/ta/lenet.c:215
     718:	eea0 abe0 	vfms.f64	d10, d16, d16
/workspace/benchmark/Lenet5_in_OPTEE/ta/lenet.c:214
     71c:	eceb 0b02 	vstmia	fp!, {d16}
/workspace/benchmark/Lenet5_in_OPTEE/ta/lenet.c:207
     720:	d1dd      	bne.n	6de <TrainBatch+0xfe>
/workspace/benchmark/Lenet5_in_OPTEE/ta/lenet.c:217
     722:	f50d 330d 	add.w	r3, sp, #144384	; 0x23400
     726:	3390      	adds	r3, #144	; 0x90
     728:	eb03 03c9 	add.w	r3, r3, r9, lsl #3
     72c:	edd3 0b00 	vldr	d16, [r3]
     730:	462b      	mov	r3, r5
     732:	ee3a ab20 	vadd.f64	d10, d10, d16
/workspace/benchmark/Lenet5_in_OPTEE/ta/lenet.c:220
     736:	edd3 1b00 	vldr	d17, [r3]
     73a:	45b1      	cmp	r9, r6
/workspace/benchmark/Lenet5_in_OPTEE/ta/lenet.c:218
     73c:	f106 0601 	add.w	r6, r6, #1
/workspace/benchmark/Lenet5_in_OPTEE/ta/lenet.c:220
     740:	fe42 0b88 	vseleq.f64	d16, d18, d8
     744:	ee71 3b8a 	vadd.f64	d19, d17, d10
/workspace/benchmark/Lenet5_in_OPTEE/ta/lenet.c:218
     748:	2e0a      	cmp	r6, #10
/workspace/benchmark/Lenet5_in_OPTEE/ta/lenet.c:220
     74a:	ee70 0be3 	vsub.f64	d16, d16, d19
     74e:	ee60 0ba1 	vmul.f64	d16, d16, d17
     752:	ece3 0b02 	vstmia	r3!, {d16}
/workspace/benchmark/Lenet5_in_OPTEE/ta/lenet.c:218
     756:	d1ee      	bne.n	736 <TrainBatch+0x156>
backward():
/workspace/benchmark/Lenet5_in_OPTEE/ta/lenet.c:175
     758:	4b81      	ldr	r3, [pc, #516]	; (960 <TrainBatch+0x380>)
     75a:	447b      	add	r3, pc
     75c:	681b      	ldr	r3, [r3, #0]
     75e:	9304      	str	r3, [sp, #16]
     760:	9a04      	ldr	r2, [sp, #16]
     762:	f503 21c5 	add.w	r1, r3, #403456	; 0x62800
     766:	f5a7 63c7 	sub.w	r3, r7, #1592	; 0x638
     76a:	9305      	str	r3, [sp, #20]
     76c:	f507 3388 	add.w	r3, r7, #69632	; 0x11000
     770:	f502 27ca 	add.w	r7, r2, #413696	; 0x65000
     774:	3308      	adds	r3, #8
     776:	f501 716c 	add.w	r1, r1, #944	; 0x3b0
     77a:	f507 7798 	add.w	r7, r7, #304	; 0x130
     77e:	4618      	mov	r0, r3
softmax():
/workspace/benchmark/Lenet5_in_OPTEE/ta/lenet.c:220
     780:	468e      	mov	lr, r1
     782:	46ac      	mov	ip, r5
     784:	260a      	movs	r6, #10
backward():
/workspace/benchmark/Lenet5_in_OPTEE/ta/lenet.c:175
     786:	ecfc 2b02 	vldmia	ip!, {d18}
     78a:	3e01      	subs	r6, #1
     78c:	ecfe 1b02 	vldmia	lr!, {d17}
     790:	edd0 0b00 	vldr	d16, [r0]
     794:	eee2 0ba1 	vfma.f64	d16, d18, d17
     798:	edc0 0b00 	vstr	d16, [r0]
     79c:	d1f3      	bne.n	786 <TrainBatch+0x1a6>
     79e:	3150      	adds	r1, #80	; 0x50
     7a0:	3008      	adds	r0, #8
     7a2:	42b9      	cmp	r1, r7
     7a4:	d1ec      	bne.n	780 <TrainBatch+0x1a0>
     7a6:	f504 368b 	add.w	r6, r4, #71168	; 0x11600
     7aa:	4619      	mov	r1, r3
     7ac:	3640      	adds	r6, #64	; 0x40
     7ae:	2278      	movs	r2, #120	; 0x78
     7b0:	4630      	mov	r0, r6
relugrad():
/workspace/benchmark/Lenet5_in_OPTEE/ta/lenet.c:160
     7b2:	eef7 2b00 	vmov.f64	d18, #112	; 0x3f800000  1.0
backward():
/workspace/benchmark/Lenet5_in_OPTEE/ta/lenet.c:175
     7b6:	ecf0 0b02 	vldmia	r0!, {d16}
relugrad():
/workspace/benchmark/Lenet5_in_OPTEE/ta/lenet.c:160
     7ba:	eef5 0bc0 	vcmpe.f64	d16, #0.0
backward():
/workspace/benchmark/Lenet5_in_OPTEE/ta/lenet.c:175
     7be:	edd1 0b00 	vldr	d16, [r1]
relugrad():
/workspace/benchmark/Lenet5_in_OPTEE/ta/lenet.c:160
     7c2:	eef1 fa10 	vmrs	APSR_nzcv, fpscr
     7c6:	fe72 1b88 	vselgt.f64	d17, d18, d8
backward():
/workspace/benchmark/Lenet5_in_OPTEE/ta/lenet.c:175
     7ca:	3a01      	subs	r2, #1
     7cc:	ee60 0ba1 	vmul.f64	d16, d16, d17
     7d0:	ece1 0b02 	vstmia	r1!, {d16}
     7d4:	d1ef      	bne.n	7b6 <TrainBatch+0x1d6>
     7d6:	f50d 216e 	add.w	r1, sp, #974848	; 0xee000
     7da:	f50d 2208 	add.w	r2, sp, #557056	; 0x88000
     7de:	3170      	adds	r1, #112	; 0x70
     7e0:	462f      	mov	r7, r5
     7e2:	200a      	movs	r0, #10
     7e4:	f502 622d 	add.w	r2, r2, #2768	; 0xad0
     7e8:	9202      	str	r2, [sp, #8]
     7ea:	edd1 0b00 	vldr	d16, [r1]
     7ee:	3801      	subs	r0, #1
     7f0:	ecf7 1b02 	vldmia	r7!, {d17}
     7f4:	ee70 0ba1 	vadd.f64	d16, d16, d17
     7f8:	ece1 0b02 	vstmia	r1!, {d16}
     7fc:	d1f5      	bne.n	7ea <TrainBatch+0x20a>
     7fe:	9a02      	ldr	r2, [sp, #8]
     800:	f502 2cc5 	add.w	ip, r2, #403456	; 0x62800
     804:	f50c 7c6c 	add.w	ip, ip, #944	; 0x3b0
     808:	9a02      	ldr	r2, [sp, #8]
     80a:	eb0c 0700 	add.w	r7, ip, r0
     80e:	ecf6 1b02 	vldmia	r6!, {d17}
     812:	46ae      	mov	lr, r5
     814:	210a      	movs	r1, #10
     816:	920b      	str	r2, [sp, #44]	; 0x2c
     818:	ecfe 2b02 	vldmia	lr!, {d18}
     81c:	3901      	subs	r1, #1
     81e:	edd7 0b00 	vldr	d16, [r7]
     822:	eee1 0ba2 	vfma.f64	d16, d17, d18
     826:	ece7 0b02 	vstmia	r7!, {d16}
     82a:	d1f5      	bne.n	818 <TrainBatch+0x238>
     82c:	3050      	adds	r0, #80	; 0x50
     82e:	f5b0 5f16 	cmp.w	r0, #9600	; 0x2580
     832:	d1e9      	bne.n	808 <TrainBatch+0x228>
     834:	460f      	mov	r7, r1
/workspace/benchmark/Lenet5_in_OPTEE/ta/lenet.c:176
     836:	f645 52c0 	movw	r2, #24000	; 0x5dc0
     83a:	9805      	ldr	r0, [sp, #20]
     83c:	2500      	movs	r5, #0
     83e:	9e04      	ldr	r6, [sp, #16]
     840:	4699      	mov	r9, r3
     842:	4438      	add	r0, r7
     844:	f500 3084 	add.w	r0, r0, #67584	; 0x10800
     848:	eb06 0b01 	add.w	fp, r6, r1
     84c:	f500 70e0 	add.w	r0, r0, #448	; 0x1c0
     850:	e017      	b.n	882 <TrainBatch+0x2a2>
     852:	ecfa 2b02 	vldmia	sl!, {d18}
     856:	f1be 0e01 	subs.w	lr, lr, #1
     85a:	edd8 0b00 	vldr	d16, [r8]
     85e:	eee1 0ba2 	vfma.f64	d16, d17, d18
     862:	ece8 0b02 	vstmia	r8!, {d16}
     866:	d1f4      	bne.n	852 <TrainBatch+0x272>
     868:	3628      	adds	r6, #40	; 0x28
     86a:	2ec8      	cmp	r6, #200	; 0xc8
     86c:	d006      	beq.n	87c <TrainBatch+0x29c>
     86e:	eb00 0806 	add.w	r8, r0, r6
     872:	eb0c 0a06 	add.w	sl, ip, r6
/workspace/benchmark/Lenet5_in_OPTEE/ta/lenet.c:175
     876:	f04f 0e05 	mov.w	lr, #5
     87a:	e7ea      	b.n	852 <TrainBatch+0x272>
/workspace/benchmark/Lenet5_in_OPTEE/ta/lenet.c:176
     87c:	35c8      	adds	r5, #200	; 0xc8
     87e:	4295      	cmp	r5, r2
     880:	d009      	beq.n	896 <TrainBatch+0x2b6>
     882:	eb0b 0c05 	add.w	ip, fp, r5
     886:	ecf9 1b02 	vldmia	r9!, {d17}
     88a:	f50c 4c9f 	add.w	ip, ip, #20352	; 0x4f80
     88e:	2600      	movs	r6, #0
     890:	f10c 0c30 	add.w	ip, ip, #48	; 0x30
     894:	e7eb      	b.n	86e <TrainBatch+0x28e>
     896:	37c8      	adds	r7, #200	; 0xc8
     898:	4429      	add	r1, r5
     89a:	f5b7 6f48 	cmp.w	r7, #3200	; 0xc80
     89e:	d1cc      	bne.n	83a <TrainBatch+0x25a>
     8a0:	9a05      	ldr	r2, [sp, #20]
     8a2:	f504 3484 	add.w	r4, r4, #67584	; 0x10800
     8a6:	f504 74e0 	add.w	r4, r4, #448	; 0x1c0
relugrad():
/workspace/benchmark/Lenet5_in_OPTEE/ta/lenet.c:160
     8aa:	eef7 2b00 	vmov.f64	d18, #112	; 0x3f800000  1.0
     8ae:	f502 3584 	add.w	r5, r2, #67584	; 0x10800
backward():
/workspace/benchmark/Lenet5_in_OPTEE/ta/lenet.c:176
     8b2:	f44f 72c8 	mov.w	r2, #400	; 0x190
     8b6:	f505 75e0 	add.w	r5, r5, #448	; 0x1c0
     8ba:	4629      	mov	r1, r5
     8bc:	ecf4 0b02 	vldmia	r4!, {d16}
relugrad():
/workspace/benchmark/Lenet5_in_OPTEE/ta/lenet.c:160
     8c0:	eef5 0bc0 	vcmpe.f64	d16, #0.0
backward():
/workspace/benchmark/Lenet5_in_OPTEE/ta/lenet.c:176
     8c4:	edd1 0b00 	vldr	d16, [r1]
relugrad():
/workspace/benchmark/Lenet5_in_OPTEE/ta/lenet.c:160
     8c8:	eef1 fa10 	vmrs	APSR_nzcv, fpscr
     8cc:	fe72 1b88 	vselgt.f64	d17, d18, d8
backward():
/workspace/benchmark/Lenet5_in_OPTEE/ta/lenet.c:176
     8d0:	3a01      	subs	r2, #1
     8d2:	ee60 0ba1 	vmul.f64	d16, d16, d17
     8d6:	ece1 0b02 	vstmia	r1!, {d16}
     8da:	d1ef      	bne.n	8bc <TrainBatch+0x2dc>
     8dc:	9a02      	ldr	r2, [sp, #8]
     8de:	2178      	movs	r1, #120	; 0x78
     8e0:	f502 20ca 	add.w	r0, r2, #413696	; 0x65000
     8e4:	461a      	mov	r2, r3
     8e6:	f500 70f0 	add.w	r0, r0, #480	; 0x1e0
     8ea:	edd0 0b00 	vldr	d16, [r0]
     8ee:	3901      	subs	r1, #1
     8f0:	ecf2 1b02 	vldmia	r2!, {d17}
     8f4:	ee70 0ba1 	vadd.f64	d16, d16, d17
     8f8:	ece0 0b02 	vstmia	r0!, {d16}
     8fc:	d1f5      	bne.n	8ea <TrainBatch+0x30a>
     8fe:	468c      	mov	ip, r1
     900:	aa10      	add	r2, sp, #64	; 0x40
     902:	9201      	str	r2, [sp, #4]
     904:	f645 52c0 	movw	r2, #24000	; 0x5dc0
     908:	9802      	ldr	r0, [sp, #8]
     90a:	2400      	movs	r4, #0
     90c:	4699      	mov	r9, r3
     90e:	eb00 0b0c 	add.w	fp, r0, ip
     912:	9801      	ldr	r0, [sp, #4]
     914:	4408      	add	r0, r1
     916:	f500 3084 	add.w	r0, r0, #67584	; 0x10800
     91a:	f500 70e0 	add.w	r0, r0, #448	; 0x1c0
     91e:	e024      	b.n	96a <TrainBatch+0x38a>
     920:	ecfa 2b02 	vldmia	sl!, {d18}
     924:	3f01      	subs	r7, #1
     926:	edd8 0b00 	vldr	d16, [r8]
     92a:	eee2 0ba1 	vfma.f64	d16, d18, d17
     92e:	ece8 0b02 	vstmia	r8!, {d16}
     932:	d1f5      	bne.n	920 <TrainBatch+0x340>
     934:	3628      	adds	r6, #40	; 0x28
     936:	2ec8      	cmp	r6, #200	; 0xc8
     938:	d014      	beq.n	964 <TrainBatch+0x384>
     93a:	eb0e 0806 	add.w	r8, lr, r6
     93e:	eb00 0a06 	add.w	sl, r0, r6
     942:	2705      	movs	r7, #5
     944:	e7ec      	b.n	920 <TrainBatch+0x340>
     946:	bf00      	nop
     948:	000655f0 	.word	0x000655f0
     94c:	00011a50 	.word	0x00011a50
     950:	0000000c 	.word	0x0000000c
     954:	0000a38e 	.word	0x0000a38e
     958:	0000aa58 	.word	0x0000aa58
     95c:	0000a31e 	.word	0x0000a31e
     960:	0000a93e 	.word	0x0000a93e
     964:	34c8      	adds	r4, #200	; 0xc8
     966:	4294      	cmp	r4, r2
     968:	d009      	beq.n	97e <TrainBatch+0x39e>
     96a:	eb0b 0e04 	add.w	lr, fp, r4
     96e:	ecf9 1b02 	vldmia	r9!, {d17}
     972:	f50e 4e9f 	add.w	lr, lr, #20352	; 0x4f80
     976:	2600      	movs	r6, #0
     978:	f10e 0e30 	add.w	lr, lr, #48	; 0x30
     97c:	e7dd      	b.n	93a <TrainBatch+0x35a>
     97e:	31c8      	adds	r1, #200	; 0xc8
     980:	44a4      	add	ip, r4
     982:	f5b1 6f48 	cmp.w	r1, #3200	; 0xc80
     986:	d1bf      	bne.n	908 <TrainBatch+0x328>
     988:	9b01      	ldr	r3, [sp, #4]
/workspace/benchmark/Lenet5_in_OPTEE/ta/lenet.c:177
     98a:	9700      	str	r7, [sp, #0]
     98c:	f503 4357 	add.w	r3, r3, #55040	; 0xd700
     990:	33c0      	adds	r3, #192	; 0xc0
     992:	9306      	str	r3, [sp, #24]
     994:	ab32      	add	r3, sp, #200	; 0xc8
     996:	9308      	str	r3, [sp, #32]
     998:	f50d 338d 	add.w	r3, sp, #72192	; 0x11a00
     99c:	3390      	adds	r3, #144	; 0x90
     99e:	9309      	str	r3, [sp, #36]	; 0x24
     9a0:	9a00      	ldr	r2, [sp, #0]
     9a2:	f44f 7348 	mov.w	r3, #800	; 0x320
     9a6:	f04f 0c64 	mov.w	ip, #100	; 0x64
     9aa:	46a8      	mov	r8, r5
     9ac:	2400      	movs	r4, #0
     9ae:	fb03 f902 	mul.w	r9, r3, r2
     9b2:	fb0c fc02 	mul.w	ip, ip, r2
     9b6:	e05e      	b.n	a76 <TrainBatch+0x496>
     9b8:	2701      	movs	r7, #1
     9ba:	1918      	adds	r0, r3, r4
     9bc:	220a      	movs	r2, #10
     9be:	edde 0b00 	vldr	d16, [lr]
     9c2:	f10e 0e50 	add.w	lr, lr, #80	; 0x50
     9c6:	fb02 c000 	mla	r0, r2, r0, ip
     9ca:	9a08      	ldr	r2, [sp, #32]
     9cc:	4408      	add	r0, r1
     9ce:	4430      	add	r0, r6
     9d0:	4450      	add	r0, sl
     9d2:	eb02 00c0 	add.w	r0, r2, r0, lsl #3
     9d6:	220a      	movs	r2, #10
     9d8:	ed50 1b22 	vldr	d17, [r0, #-136]	; 0xffffff78
     9dc:	1af8      	subs	r0, r7, r3
     9de:	eef4 1be0 	vcmpe.f64	d17, d16
     9e2:	ed5e 1b12 	vldr	d17, [lr, #-72]	; 0xffffffb8
     9e6:	eef1 fa10 	vmrs	APSR_nzcv, fpscr
     9ea:	bf58      	it	pl
     9ec:	2000      	movpl	r0, #0
     9ee:	4418      	add	r0, r3
     9f0:	f1c1 0300 	rsb	r3, r1, #0
     9f4:	bf58      	it	pl
     9f6:	2300      	movpl	r3, #0
     9f8:	4419      	add	r1, r3
     9fa:	1903      	adds	r3, r0, r4
     9fc:	fb02 c303 	mla	r3, r2, r3, ip
     a00:	9a08      	ldr	r2, [sp, #32]
     a02:	440b      	add	r3, r1
     a04:	4433      	add	r3, r6
     a06:	4453      	add	r3, sl
     a08:	eb02 03c3 	add.w	r3, r2, r3, lsl #3
     a0c:	ed53 0b22 	vldr	d16, [r3, #-136]	; 0xffffff78
     a10:	1a3b      	subs	r3, r7, r0
     a12:	461a      	mov	r2, r3
     a14:	eef4 1be0 	vcmpe.f64	d17, d16
     a18:	eef1 fa10 	vmrs	APSR_nzcv, fpscr
     a1c:	bfcc      	ite	gt
     a1e:	2301      	movgt	r3, #1
     a20:	2300      	movle	r3, #0
     a22:	fb03 0302 	mla	r3, r3, r2, r0
     a26:	f1c1 0001 	rsb	r0, r1, #1
     a2a:	bfd8      	it	le
     a2c:	2000      	movle	r0, #0
     a2e:	4401      	add	r1, r0
     a30:	2f00      	cmp	r7, #0
     a32:	d0c1      	beq.n	9b8 <TrainBatch+0x3d8>
     a34:	220a      	movs	r2, #10
     a36:	4423      	add	r3, r4
     a38:	9807      	ldr	r0, [sp, #28]
     a3a:	f10b 0b10 	add.w	fp, fp, #16
     a3e:	fb02 c303 	mla	r3, r2, r3, ip
     a42:	9a09      	ldr	r2, [sp, #36]	; 0x24
     a44:	440b      	add	r3, r1
     a46:	ecf0 0b02 	vldmia	r0!, {d16}
     a4a:	4433      	add	r3, r6
     a4c:	3602      	adds	r6, #2
     a4e:	4453      	add	r3, sl
     a50:	2e0a      	cmp	r6, #10
     a52:	9007      	str	r0, [sp, #28]
     a54:	eb02 03c3 	add.w	r3, r2, r3, lsl #3
     a58:	edc3 0b00 	vstr	d16, [r3]
     a5c:	d004      	beq.n	a68 <TrainBatch+0x488>
     a5e:	2700      	movs	r7, #0
     a60:	46de      	mov	lr, fp
     a62:	4639      	mov	r1, r7
     a64:	463b      	mov	r3, r7
     a66:	e7a8      	b.n	9ba <TrainBatch+0x3da>
     a68:	3402      	adds	r4, #2
     a6a:	f108 0828 	add.w	r8, r8, #40	; 0x28
     a6e:	f109 09a0 	add.w	r9, r9, #160	; 0xa0
     a72:	2c0a      	cmp	r4, #10
     a74:	d008      	beq.n	a88 <TrainBatch+0x4a8>
     a76:	9b06      	ldr	r3, [sp, #24]
     a78:	2600      	movs	r6, #0
     a7a:	f8cd 801c 	str.w	r8, [sp, #28]
     a7e:	f641 2af8 	movw	sl, #6904	; 0x1af8
     a82:	eb03 0b09 	add.w	fp, r3, r9
     a86:	e7ea      	b.n	a5e <TrainBatch+0x47e>
     a88:	9b00      	ldr	r3, [sp, #0]
     a8a:	35c8      	adds	r5, #200	; 0xc8
     a8c:	3301      	adds	r3, #1
     a8e:	9300      	str	r3, [sp, #0]
     a90:	2b10      	cmp	r3, #16
     a92:	d185      	bne.n	9a0 <TrainBatch+0x3c0>
     a94:	9a04      	ldr	r2, [sp, #16]
     a96:	2100      	movs	r1, #0
     a98:	460b      	mov	r3, r1
     a9a:	f502 6296 	add.w	r2, r2, #1200	; 0x4b0
     a9e:	920f      	str	r2, [sp, #60]	; 0x3c
     aa0:	f50d 32f9 	add.w	r2, sp, #127488	; 0x1f200
     aa4:	3250      	adds	r2, #80	; 0x50
     aa6:	9208      	str	r2, [sp, #32]
/workspace/benchmark/Lenet5_in_OPTEE/ta/lenet.c:178
     aa8:	9a0f      	ldr	r2, [sp, #60]	; 0x3c
     aaa:	f04f 0e00 	mov.w	lr, #0
     aae:	f8dd a020 	ldr.w	sl, [sp, #32]
     ab2:	440a      	add	r2, r1
     ab4:	9307      	str	r3, [sp, #28]
     ab6:	9206      	str	r2, [sp, #24]
     ab8:	e041      	b.n	b3e <TrainBatch+0x55e>
     aba:	9a0c      	ldr	r2, [sp, #48]	; 0x30
     abc:	eddb 0b00 	vldr	d16, [fp]
     ac0:	ecf2 2b02 	vldmia	r2!, {d18}
     ac4:	eee1 0ba2 	vfma.f64	d16, d17, d18
     ac8:	920c      	str	r2, [sp, #48]	; 0x30
     aca:	9a0a      	ldr	r2, [sp, #40]	; 0x28
     acc:	3a01      	subs	r2, #1
     ace:	920a      	str	r2, [sp, #40]	; 0x28
     ad0:	eceb 0b02 	vstmia	fp!, {d16}
     ad4:	d1f1      	bne.n	aba <TrainBatch+0x4da>
     ad6:	9a09      	ldr	r2, [sp, #36]	; 0x24
     ad8:	f109 0970 	add.w	r9, r9, #112	; 0x70
     adc:	f108 0828 	add.w	r8, r8, #40	; 0x28
     ae0:	3a01      	subs	r2, #1
     ae2:	9209      	str	r2, [sp, #36]	; 0x24
     ae4:	d005      	beq.n	af2 <TrainBatch+0x512>
/workspace/benchmark/Lenet5_in_OPTEE/ta/lenet.c:177
     ae6:	2205      	movs	r2, #5
     ae8:	46cb      	mov	fp, r9
     aea:	f8cd 8030 	str.w	r8, [sp, #48]	; 0x30
     aee:	920a      	str	r2, [sp, #40]	; 0x28
     af0:	e7e3      	b.n	aba <TrainBatch+0x4da>
/workspace/benchmark/Lenet5_in_OPTEE/ta/lenet.c:178
     af2:	3701      	adds	r7, #1
     af4:	2f0a      	cmp	r7, #10
     af6:	d008      	beq.n	b0a <TrainBatch+0x52a>
     af8:	ecfc 1b02 	vldmia	ip!, {d17}
     afc:	2205      	movs	r2, #5
     afe:	f8dd 8018 	ldr.w	r8, [sp, #24]
     b02:	9209      	str	r2, [sp, #36]	; 0x24
     b04:	eb06 090c 	add.w	r9, r6, ip
     b08:	e7ed      	b.n	ae6 <TrainBatch+0x506>
     b0a:	3001      	adds	r0, #1
     b0c:	3450      	adds	r4, #80	; 0x50
     b0e:	3520      	adds	r5, #32
     b10:	280a      	cmp	r0, #10
     b12:	d005      	beq.n	b20 <TrainBatch+0x540>
     b14:	f5a5 5613 	sub.w	r6, r5, #9408	; 0x24c0
     b18:	46a4      	mov	ip, r4
     b1a:	2700      	movs	r7, #0
     b1c:	3e08      	subs	r6, #8
     b1e:	e7eb      	b.n	af8 <TrainBatch+0x518>
     b20:	9a06      	ldr	r2, [sp, #24]
     b22:	f10e 0e19 	add.w	lr, lr, #25
     b26:	f50a 7a48 	add.w	sl, sl, #800	; 0x320
     b2a:	f5be 7fc8 	cmp.w	lr, #400	; 0x190
     b2e:	f102 02c8 	add.w	r2, r2, #200	; 0xc8
     b32:	9206      	str	r2, [sp, #24]
     b34:	9a07      	ldr	r2, [sp, #28]
     b36:	f5a2 7248 	sub.w	r2, r2, #800	; 0x320
     b3a:	9207      	str	r2, [sp, #28]
     b3c:	d003      	beq.n	b46 <TrainBatch+0x566>
     b3e:	9d07      	ldr	r5, [sp, #28]
     b40:	4654      	mov	r4, sl
     b42:	2000      	movs	r0, #0
     b44:	e7e6      	b.n	b14 <TrainBatch+0x534>
     b46:	f503 63c4 	add.w	r3, r3, #1568	; 0x620
     b4a:	f501 6148 	add.w	r1, r1, #3200	; 0xc80
     b4e:	f5b3 5f13 	cmp.w	r3, #9408	; 0x24c0
     b52:	d1a9      	bne.n	aa8 <TrainBatch+0x4c8>
     b54:	9b01      	ldr	r3, [sp, #4]
relugrad():
/workspace/benchmark/Lenet5_in_OPTEE/ta/lenet.c:160
     b56:	eef7 2b00 	vmov.f64	d18, #112	; 0x3f800000  1.0
     b5a:	f503 4033 	add.w	r0, r3, #45824	; 0xb300
     b5e:	f50d 338d 	add.w	r3, sp, #72192	; 0x11a00
     b62:	3390      	adds	r3, #144	; 0x90
     b64:	f503 4333 	add.w	r3, r3, #45824	; 0xb300
     b68:	9306      	str	r3, [sp, #24]
backward():
/workspace/benchmark/Lenet5_in_OPTEE/ta/lenet.c:178
     b6a:	4619      	mov	r1, r3
     b6c:	f44f 6393 	mov.w	r3, #1176	; 0x498
     b70:	ecf0 0b02 	vldmia	r0!, {d16}
relugrad():
/workspace/benchmark/Lenet5_in_OPTEE/ta/lenet.c:160
     b74:	eef5 0bc0 	vcmpe.f64	d16, #0.0
backward():
/workspace/benchmark/Lenet5_in_OPTEE/ta/lenet.c:178
     b78:	edd1 0b00 	vldr	d16, [r1]
relugrad():
/workspace/benchmark/Lenet5_in_OPTEE/ta/lenet.c:160
     b7c:	eef1 fa10 	vmrs	APSR_nzcv, fpscr
     b80:	fe72 1b88 	vselgt.f64	d17, d18, d8
backward():
/workspace/benchmark/Lenet5_in_OPTEE/ta/lenet.c:178
     b84:	3b01      	subs	r3, #1
     b86:	ee60 0ba1 	vmul.f64	d16, d16, d17
     b8a:	ece1 0b02 	vstmia	r1!, {d16}
     b8e:	d1ef      	bne.n	b70 <TrainBatch+0x590>
     b90:	f50d 216d 	add.w	r1, sp, #970752	; 0xed000
     b94:	9b08      	ldr	r3, [sp, #32]
     b96:	f501 6143 	add.w	r1, r1, #3120	; 0xc30
     b9a:	ecf1 0b02 	vldmia	r1!, {d16}
     b9e:	f503 7048 	add.w	r0, r3, #800	; 0x320
     ba2:	ecf3 1b02 	vldmia	r3!, {d17}
     ba6:	ee70 0ba1 	vadd.f64	d16, d16, d17
     baa:	4283      	cmp	r3, r0
     bac:	d1f9      	bne.n	ba2 <TrainBatch+0x5c2>
     bae:	9a00      	ldr	r2, [sp, #0]
     bb0:	ed41 0b02 	vstr	d16, [r1, #-8]
     bb4:	3a01      	subs	r2, #1
     bb6:	9200      	str	r2, [sp, #0]
     bb8:	d1ef      	bne.n	b9a <TrainBatch+0x5ba>
     bba:	4613      	mov	r3, r2
     bbc:	4692      	mov	sl, r2
     bbe:	9a01      	ldr	r2, [sp, #4]
     bc0:	f502 4233 	add.w	r2, r2, #45824	; 0xb300
     bc4:	9209      	str	r2, [sp, #36]	; 0x24
     bc6:	9802      	ldr	r0, [sp, #8]
     bc8:	2100      	movs	r1, #0
     bca:	9a08      	ldr	r2, [sp, #32]
     bcc:	4418      	add	r0, r3
     bce:	9207      	str	r2, [sp, #28]
     bd0:	f500 6096 	add.w	r0, r0, #1200	; 0x4b0
     bd4:	900a      	str	r0, [sp, #40]	; 0x28
     bd6:	e035      	b.n	c44 <TrainBatch+0x664>
     bd8:	ecfb 2b02 	vldmia	fp!, {d18}
     bdc:	3a01      	subs	r2, #1
     bde:	ecf0 1b02 	vldmia	r0!, {d17}
     be2:	eee2 0ba1 	vfma.f64	d16, d18, d17
     be6:	d1f7      	bne.n	bd8 <TrainBatch+0x5f8>
     be8:	9800      	ldr	r0, [sp, #0]
     bea:	f108 0870 	add.w	r8, r8, #112	; 0x70
     bee:	f109 0950 	add.w	r9, r9, #80	; 0x50
     bf2:	3801      	subs	r0, #1
     bf4:	9000      	str	r0, [sp, #0]
     bf6:	d003      	beq.n	c00 <TrainBatch+0x620>
     bf8:	4648      	mov	r0, r9
     bfa:	46c3      	mov	fp, r8
     bfc:	220a      	movs	r2, #10
     bfe:	e7eb      	b.n	bd8 <TrainBatch+0x5f8>
     c00:	3701      	adds	r7, #1
     c02:	f10e 0e08 	add.w	lr, lr, #8
     c06:	2f05      	cmp	r7, #5
     c08:	ed4c 0b02 	vstr	d16, [ip, #-8]
     c0c:	d007      	beq.n	c1e <TrainBatch+0x63e>
     c0e:	200a      	movs	r0, #10
     c10:	f8dd 901c 	ldr.w	r9, [sp, #28]
     c14:	ecfc 0b02 	vldmia	ip!, {d16}
     c18:	46f0      	mov	r8, lr
     c1a:	9000      	str	r0, [sp, #0]
     c1c:	e7ec      	b.n	bf8 <TrainBatch+0x618>
     c1e:	3401      	adds	r4, #1
     c20:	3628      	adds	r6, #40	; 0x28
     c22:	3570      	adds	r5, #112	; 0x70
     c24:	2c05      	cmp	r4, #5
     c26:	d005      	beq.n	c34 <TrainBatch+0x654>
     c28:	9809      	ldr	r0, [sp, #36]	; 0x24
     c2a:	46b4      	mov	ip, r6
     c2c:	2700      	movs	r7, #0
     c2e:	eb00 0e05 	add.w	lr, r0, r5
     c32:	e7ec      	b.n	c0e <TrainBatch+0x62e>
     c34:	9a07      	ldr	r2, [sp, #28]
     c36:	31c8      	adds	r1, #200	; 0xc8
     c38:	f5b1 6f48 	cmp.w	r1, #3200	; 0xc80
     c3c:	f502 7248 	add.w	r2, r2, #800	; 0x320
     c40:	9207      	str	r2, [sp, #28]
     c42:	d004      	beq.n	c4e <TrainBatch+0x66e>
     c44:	980a      	ldr	r0, [sp, #40]	; 0x28
     c46:	4655      	mov	r5, sl
     c48:	2400      	movs	r4, #0
     c4a:	1846      	adds	r6, r0, r1
     c4c:	e7ec      	b.n	c28 <TrainBatch+0x648>
     c4e:	f50a 6ac4 	add.w	sl, sl, #1568	; 0x620
     c52:	f503 6348 	add.w	r3, r3, #3200	; 0xc80
     c56:	f5ba 5f13 	cmp.w	sl, #9408	; 0x24c0
     c5a:	d1b4      	bne.n	bc6 <TrainBatch+0x5e6>
     c5c:	9b01      	ldr	r3, [sp, #4]
/workspace/benchmark/Lenet5_in_OPTEE/ta/lenet.c:179
     c5e:	f04f 0a1c 	mov.w	sl, #28
     c62:	f8dd c000 	ldr.w	ip, [sp]
     c66:	f503 5300 	add.w	r3, r3, #8192	; 0x2000
     c6a:	930a      	str	r3, [sp, #40]	; 0x28
     c6c:	ab32      	add	r3, sp, #200	; 0xc8
     c6e:	9308      	str	r3, [sp, #32]
     c70:	f50d 338d 	add.w	r3, sp, #72192	; 0x11a00
     c74:	3390      	adds	r3, #144	; 0x90
     c76:	9309      	str	r3, [sp, #36]	; 0x24
     c78:	f44f 53c4 	mov.w	r3, #6272	; 0x1880
     c7c:	f44f 7744 	mov.w	r7, #784	; 0x310
     c80:	f8dd 8018 	ldr.w	r8, [sp, #24]
     c84:	2400      	movs	r4, #0
     c86:	fb03 f90c 	mul.w	r9, r3, ip
     c8a:	fb07 f70c 	mul.w	r7, r7, ip
     c8e:	e05d      	b.n	d4c <TrainBatch+0x76c>
     c90:	2601      	movs	r6, #1
     c92:	18e0      	adds	r0, r4, r3
     c94:	9a08      	ldr	r2, [sp, #32]
     c96:	edde 0b00 	vldr	d16, [lr]
     c9a:	f10e 0ee0 	add.w	lr, lr, #224	; 0xe0
     c9e:	fb0a 7000 	mla	r0, sl, r0, r7
     ca2:	4428      	add	r0, r5
     ca4:	4408      	add	r0, r1
     ca6:	f500 6080 	add.w	r0, r0, #1024	; 0x400
     caa:	eb02 00c0 	add.w	r0, r2, r0, lsl #3
     cae:	ed50 1b22 	vldr	d17, [r0, #-136]	; 0xffffff78
     cb2:	1af0      	subs	r0, r6, r3
     cb4:	eef4 1be0 	vcmpe.f64	d17, d16
     cb8:	ed5e 1b36 	vldr	d17, [lr, #-216]	; 0xffffff28
     cbc:	eef1 fa10 	vmrs	APSR_nzcv, fpscr
     cc0:	bf58      	it	pl
     cc2:	2000      	movpl	r0, #0
     cc4:	4418      	add	r0, r3
     cc6:	f1c1 0300 	rsb	r3, r1, #0
     cca:	bf58      	it	pl
     ccc:	2300      	movpl	r3, #0
     cce:	4419      	add	r1, r3
     cd0:	1823      	adds	r3, r4, r0
     cd2:	fb0a 7303 	mla	r3, sl, r3, r7
     cd6:	442b      	add	r3, r5
     cd8:	440b      	add	r3, r1
     cda:	f503 6380 	add.w	r3, r3, #1024	; 0x400
     cde:	eb02 03c3 	add.w	r3, r2, r3, lsl #3
     ce2:	ed53 0b22 	vldr	d16, [r3, #-136]	; 0xffffff78
     ce6:	1a33      	subs	r3, r6, r0
     ce8:	461a      	mov	r2, r3
     cea:	eef4 1be0 	vcmpe.f64	d17, d16
     cee:	eef1 fa10 	vmrs	APSR_nzcv, fpscr
     cf2:	bfcc      	ite	gt
     cf4:	2301      	movgt	r3, #1
     cf6:	2300      	movle	r3, #0
     cf8:	fb03 0302 	mla	r3, r3, r2, r0
     cfc:	f1c1 0001 	rsb	r0, r1, #1
     d00:	bfd8      	it	le
     d02:	2000      	movle	r0, #0
     d04:	4401      	add	r1, r0
     d06:	2e00      	cmp	r6, #0
     d08:	d0c2      	beq.n	c90 <TrainBatch+0x6b0>
     d0a:	4423      	add	r3, r4
     d0c:	9807      	ldr	r0, [sp, #28]
     d0e:	9a09      	ldr	r2, [sp, #36]	; 0x24
     d10:	f10b 0b10 	add.w	fp, fp, #16
     d14:	fb0a 7303 	mla	r3, sl, r3, r7
     d18:	ecf0 0b02 	vldmia	r0!, {d16}
     d1c:	442b      	add	r3, r5
     d1e:	3502      	adds	r5, #2
     d20:	440b      	add	r3, r1
     d22:	2d1c      	cmp	r5, #28
     d24:	f503 6380 	add.w	r3, r3, #1024	; 0x400
     d28:	9007      	str	r0, [sp, #28]
     d2a:	eb02 03c3 	add.w	r3, r2, r3, lsl #3
     d2e:	edc3 0b00 	vstr	d16, [r3]
     d32:	d004      	beq.n	d3e <TrainBatch+0x75e>
     d34:	2600      	movs	r6, #0
     d36:	46de      	mov	lr, fp
     d38:	4631      	mov	r1, r6
     d3a:	4633      	mov	r3, r6
     d3c:	e7a9      	b.n	c92 <TrainBatch+0x6b2>
     d3e:	3402      	adds	r4, #2
     d40:	f108 0870 	add.w	r8, r8, #112	; 0x70
     d44:	f509 79e0 	add.w	r9, r9, #448	; 0x1c0
     d48:	2c1c      	cmp	r4, #28
     d4a:	d006      	beq.n	d5a <TrainBatch+0x77a>
     d4c:	9b0a      	ldr	r3, [sp, #40]	; 0x28
     d4e:	2500      	movs	r5, #0
     d50:	f8cd 801c 	str.w	r8, [sp, #28]
     d54:	eb03 0b09 	add.w	fp, r3, r9
     d58:	e7ec      	b.n	d34 <TrainBatch+0x754>
     d5a:	9b06      	ldr	r3, [sp, #24]
     d5c:	f10c 0c01 	add.w	ip, ip, #1
     d60:	f1bc 0f06 	cmp.w	ip, #6
     d64:	f503 63c4 	add.w	r3, r3, #1568	; 0x620
     d68:	9306      	str	r3, [sp, #24]
     d6a:	d185      	bne.n	c78 <TrainBatch+0x698>
/workspace/benchmark/Lenet5_in_OPTEE/ta/lenet.c:180
     d6c:	2100      	movs	r1, #0
     d6e:	f44f 53c4 	mov.w	r3, #6272	; 0x1880
     d72:	9a04      	ldr	r2, [sp, #16]
     d74:	20c8      	movs	r0, #200	; 0xc8
     d76:	9d05      	ldr	r5, [sp, #20]
     d78:	434b      	muls	r3, r1
     d7a:	fb00 2b01 	mla	fp, r0, r1, r2
     d7e:	2000      	movs	r0, #0
     d80:	f503 5300 	add.w	r3, r3, #8192	; 0x2000
     d84:	e029      	b.n	dda <TrainBatch+0x7fa>
     d86:	ecfa 2b02 	vldmia	sl!, {d18}
     d8a:	f108 0801 	add.w	r8, r8, #1
     d8e:	edd9 0b00 	vldr	d16, [r9]
     d92:	f1b8 0f05 	cmp.w	r8, #5
     d96:	eee1 0ba2 	vfma.f64	d16, d17, d18
     d9a:	ece9 0b02 	vstmia	r9!, {d16}
     d9e:	d1f2      	bne.n	d86 <TrainBatch+0x7a6>
     da0:	3701      	adds	r7, #1
     da2:	f50c 7c80 	add.w	ip, ip, #256	; 0x100
     da6:	f10e 0e28 	add.w	lr, lr, #40	; 0x28
     daa:	2f05      	cmp	r7, #5
     dac:	d004      	beq.n	db8 <TrainBatch+0x7d8>
/workspace/benchmark/Lenet5_in_OPTEE/ta/lenet.c:179
     dae:	46f2      	mov	sl, lr
     db0:	46e1      	mov	r9, ip
/workspace/benchmark/Lenet5_in_OPTEE/ta/lenet.c:180
     db2:	f04f 0800 	mov.w	r8, #0
     db6:	e7e6      	b.n	d86 <TrainBatch+0x7a6>
     db8:	3601      	adds	r6, #1
     dba:	3408      	adds	r4, #8
     dbc:	2e1c      	cmp	r6, #28
     dbe:	d007      	beq.n	dd0 <TrainBatch+0x7f0>
     dc0:	1917      	adds	r7, r2, r4
     dc2:	46de      	mov	lr, fp
     dc4:	441f      	add	r7, r3
     dc6:	46a4      	mov	ip, r4
     dc8:	edd7 1b00 	vldr	d17, [r7]
     dcc:	2700      	movs	r7, #0
     dce:	e7ee      	b.n	dae <TrainBatch+0x7ce>
     dd0:	3001      	adds	r0, #1
     dd2:	f505 7580 	add.w	r5, r5, #256	; 0x100
     dd6:	281c      	cmp	r0, #28
     dd8:	d005      	beq.n	de6 <TrainBatch+0x806>
     dda:	f06f 021f 	mvn.w	r2, #31
     dde:	462c      	mov	r4, r5
     de0:	2600      	movs	r6, #0
     de2:	4342      	muls	r2, r0
     de4:	e7ec      	b.n	dc0 <TrainBatch+0x7e0>
     de6:	3101      	adds	r1, #1
     de8:	2906      	cmp	r1, #6
     dea:	d1c0      	bne.n	d6e <TrainBatch+0x78e>
     dec:	9a05      	ldr	r2, [sp, #20]
     dee:	2300      	movs	r3, #0
     df0:	9901      	ldr	r1, [sp, #4]
relugrad():
/workspace/benchmark/Lenet5_in_OPTEE/ta/lenet.c:160
     df2:	eef7 2b00 	vmov.f64	d18, #112	; 0x3f800000  1.0
backward():
/workspace/benchmark/Lenet5_in_OPTEE/ta/lenet.c:180
     df6:	ecf1 0b02 	vldmia	r1!, {d16}
     dfa:	3301      	adds	r3, #1
relugrad():
/workspace/benchmark/Lenet5_in_OPTEE/ta/lenet.c:160
     dfc:	eef5 0bc0 	vcmpe.f64	d16, #0.0
backward():
/workspace/benchmark/Lenet5_in_OPTEE/ta/lenet.c:180
     e00:	edd2 0b00 	vldr	d16, [r2]
relugrad():
/workspace/benchmark/Lenet5_in_OPTEE/ta/lenet.c:160
     e04:	eef1 fa10 	vmrs	APSR_nzcv, fpscr
     e08:	fe72 1b88 	vselgt.f64	d17, d18, d8
backward():
/workspace/benchmark/Lenet5_in_OPTEE/ta/lenet.c:180
     e0c:	f5b3 6f80 	cmp.w	r3, #1024	; 0x400
     e10:	ee60 0ba1 	vmul.f64	d16, d16, d17
     e14:	ece2 0b02 	vstmia	r2!, {d16}
     e18:	d1ed      	bne.n	df6 <TrainBatch+0x816>
     e1a:	f50d 226d 	add.w	r2, sp, #970752	; 0xed000
     e1e:	f50d 339d 	add.w	r3, sp, #80384	; 0x13a00
     e22:	f502 6240 	add.w	r2, r2, #3072	; 0xc00
     e26:	3390      	adds	r3, #144	; 0x90
     e28:	2100      	movs	r1, #0
     e2a:	ecf2 0b02 	vldmia	r2!, {d16}
     e2e:	f503 50c4 	add.w	r0, r3, #6272	; 0x1880
     e32:	ecf3 1b02 	vldmia	r3!, {d17}
     e36:	ee70 0ba1 	vadd.f64	d16, d16, d17
     e3a:	4298      	cmp	r0, r3
     e3c:	d1f9      	bne.n	e32 <TrainBatch+0x852>
     e3e:	3101      	adds	r1, #1
     e40:	ed42 0b02 	vstr	d16, [r2, #-8]
     e44:	2906      	cmp	r1, #6
     e46:	d10a      	bne.n	e5e <TrainBatch+0x87e>
     e48:	9a05      	ldr	r2, [sp, #20]
     e4a:	2300      	movs	r3, #0
     e4c:	4619      	mov	r1, r3
     e4e:	f502 5200 	add.w	r2, r2, #8192	; 0x2000
     e52:	9204      	str	r2, [sp, #16]
     e54:	9a02      	ldr	r2, [sp, #8]
     e56:	2000      	movs	r0, #0
     e58:	9c01      	ldr	r4, [sp, #4]
     e5a:	18d5      	adds	r5, r2, r3
     e5c:	e030      	b.n	ec0 <TrainBatch+0x8e0>
     e5e:	4603      	mov	r3, r0
     e60:	e7e3      	b.n	e2a <TrainBatch+0x84a>
     e62:	ecfb 2b02 	vldmia	fp!, {d18}
     e66:	f10a 0a01 	add.w	sl, sl, #1
     e6a:	ecf2 1b02 	vldmia	r2!, {d17}
     e6e:	f1ba 0f1c 	cmp.w	sl, #28
     e72:	eee2 0ba1 	vfma.f64	d16, d18, d17
     e76:	d1f4      	bne.n	e62 <TrainBatch+0x882>
     e78:	f10e 0e01 	add.w	lr, lr, #1
     e7c:	f508 7880 	add.w	r8, r8, #256	; 0x100
     e80:	f109 09e0 	add.w	r9, r9, #224	; 0xe0
     e84:	f1be 0f1c 	cmp.w	lr, #28
     e88:	d004      	beq.n	e94 <TrainBatch+0x8b4>
     e8a:	464a      	mov	r2, r9
     e8c:	46c3      	mov	fp, r8
     e8e:	f04f 0a00 	mov.w	sl, #0
     e92:	e7e6      	b.n	e62 <TrainBatch+0x882>
     e94:	3601      	adds	r6, #1
     e96:	f10c 0c08 	add.w	ip, ip, #8
     e9a:	2e05      	cmp	r6, #5
     e9c:	ed47 0b02 	vstr	d16, [r7, #-8]
     ea0:	d008      	beq.n	eb4 <TrainBatch+0x8d4>
     ea2:	9a04      	ldr	r2, [sp, #16]
     ea4:	46e0      	mov	r8, ip
     ea6:	ecf7 0b02 	vldmia	r7!, {d16}
     eaa:	f04f 0e00 	mov.w	lr, #0
     eae:	eb02 0901 	add.w	r9, r2, r1
     eb2:	e7ea      	b.n	e8a <TrainBatch+0x8aa>
     eb4:	3001      	adds	r0, #1
     eb6:	3528      	adds	r5, #40	; 0x28
     eb8:	f504 7480 	add.w	r4, r4, #256	; 0x100
     ebc:	2805      	cmp	r0, #5
     ebe:	d003      	beq.n	ec8 <TrainBatch+0x8e8>
     ec0:	46a4      	mov	ip, r4
     ec2:	462f      	mov	r7, r5
     ec4:	2600      	movs	r6, #0
     ec6:	e7ec      	b.n	ea2 <TrainBatch+0x8c2>
     ec8:	f501 51c4 	add.w	r1, r1, #6272	; 0x1880
     ecc:	33c8      	adds	r3, #200	; 0xc8
     ece:	f5b1 4f13 	cmp.w	r1, #37632	; 0x9300
     ed2:	d1bf      	bne.n	e54 <TrainBatch+0x874>
     ed4:	f50d 330d 	add.w	r3, sp, #144384	; 0x23400
TrainBatch():
/workspace/benchmark/Lenet5_in_OPTEE/ta/lenet.c:286
     ed8:	f64c 22be 	movw	r2, #51902	; 0xcabe
     edc:	33e0      	adds	r3, #224	; 0xe0
/workspace/benchmark/Lenet5_in_OPTEE/ta/lenet.c:287 (discriminator 3)
     ede:	990b      	ldr	r1, [sp, #44]	; 0x2c
     ee0:	edd3 0b00 	vldr	d16, [r3]
     ee4:	ecf1 1b02 	vldmia	r1!, {d17}
     ee8:	ee70 0ba1 	vadd.f64	d16, d16, d17
     eec:	910b      	str	r1, [sp, #44]	; 0x2c
/workspace/benchmark/Lenet5_in_OPTEE/ta/lenet.c:286 (discriminator 3)
     eee:	9900      	ldr	r1, [sp, #0]
     ef0:	3101      	adds	r1, #1
     ef2:	9100      	str	r1, [sp, #0]
     ef4:	4291      	cmp	r1, r2
/workspace/benchmark/Lenet5_in_OPTEE/ta/lenet.c:287 (discriminator 3)
     ef6:	ece3 0b02 	vstmia	r3!, {d16}
/workspace/benchmark/Lenet5_in_OPTEE/ta/lenet.c:286 (discriminator 3)
     efa:	d1f0      	bne.n	ede <TrainBatch+0x8fe>
/workspace/benchmark/Lenet5_in_OPTEE/ta/lenet.c:275 (discriminator 2)
     efc:	9b03      	ldr	r3, [sp, #12]
     efe:	3301      	adds	r3, #1
     f00:	9303      	str	r3, [sp, #12]
     f02:	f7ff bb94 	b.w	62e <TrainBatch+0x4e>
/workspace/benchmark/Lenet5_in_OPTEE/ta/lenet.c:292
     f06:	f50d 2d6e 	add.w	sp, sp, #974848	; 0xee000
     f0a:	b033      	add	sp, #204	; 0xcc
     f0c:	ecbd 8b0a 	vpop	{d8-d12}
     f10:	e8bd 8ff0 	ldmia.w	sp!, {r4, r5, r6, r7, r8, r9, sl, fp, pc}

00000f14 <Predict>:
Predict():
/workspace/benchmark/Lenet5_in_OPTEE/ta/lenet.c:295
     f14:	4a24      	ldr	r2, [pc, #144]	; (fa8 <Predict+0x94>)
     f16:	b570      	push	{r4, r5, r6, lr}
     f18:	4606      	mov	r6, r0
     f1a:	4b24      	ldr	r3, [pc, #144]	; (fac <Predict+0x98>)
     f1c:	447a      	add	r2, pc
     f1e:	f5ad 3d8d 	sub.w	sp, sp, #72192	; 0x11a00
     f22:	b096      	sub	sp, #88	; 0x58
     f24:	f50d 318d 	add.w	r1, sp, #72192	; 0x11a00
/workspace/benchmark/Lenet5_in_OPTEE/ta/lenet.c:297
     f28:	466c      	mov	r4, sp
/workspace/benchmark/Lenet5_in_OPTEE/ta/lenet.c:295
     f2a:	58d3      	ldr	r3, [r2, r3]
     f2c:	3154      	adds	r1, #84	; 0x54
/workspace/benchmark/Lenet5_in_OPTEE/ta/lenet.c:296
     f2e:	4a1d      	ldr	r2, [pc, #116]	; (fa4 <Predict+0x90>)
     f30:	4668      	mov	r0, sp
/workspace/benchmark/Lenet5_in_OPTEE/ta/lenet.c:295
     f32:	681b      	ldr	r3, [r3, #0]
     f34:	600b      	str	r3, [r1, #0]
     f36:	f04f 0300 	mov.w	r3, #0
/workspace/benchmark/Lenet5_in_OPTEE/ta/lenet.c:296
     f3a:	2100      	movs	r1, #0
     f3c:	f007 ff0d 	bl	8d5a <memset>
/workspace/benchmark/Lenet5_in_OPTEE/ta/lenet.c:297
     f40:	4631      	mov	r1, r6
     f42:	4620      	mov	r0, r4
     f44:	ad16      	add	r5, sp, #88	; 0x58
     f46:	f7ff f878 	bl	3a <load_input>
/workspace/benchmark/Lenet5_in_OPTEE/ta/lenet.c:298
     f4a:	4620      	mov	r0, r4
     f4c:	f7ff f8c8 	bl	e0 <forward.constprop.0>
get_result():
/workspace/benchmark/Lenet5_in_OPTEE/ta/lenet.c:236
     f50:	f505 338c 	add.w	r3, r5, #71680	; 0x11800
     f54:	2201      	movs	r2, #1
/workspace/benchmark/Lenet5_in_OPTEE/ta/lenet.c:235
     f56:	2000      	movs	r0, #0
/workspace/benchmark/Lenet5_in_OPTEE/ta/lenet.c:236
     f58:	edd3 0b6a 	vldr	d16, [r3, #424]	; 0x1a8
/workspace/benchmark/Lenet5_in_OPTEE/ta/lenet.c:237
     f5c:	f504 338d 	add.w	r3, r4, #72192	; 0x11a00
     f60:	3308      	adds	r3, #8
/workspace/benchmark/Lenet5_in_OPTEE/ta/lenet.c:239
     f62:	ecf3 1b02 	vldmia	r3!, {d17}
     f66:	b2d1      	uxtb	r1, r2
     f68:	eef4 1be0 	vcmpe.f64	d17, d16
     f6c:	eef1 fa10 	vmrs	APSR_nzcv, fpscr
     f70:	dd02      	ble.n	f78 <Predict+0x64>
/workspace/benchmark/Lenet5_in_OPTEE/ta/lenet.c:241
     f72:	eef0 0b61 	vmov.f64	d16, d17
/workspace/benchmark/Lenet5_in_OPTEE/ta/lenet.c:239
     f76:	4608      	mov	r0, r1
/workspace/benchmark/Lenet5_in_OPTEE/ta/lenet.c:237
     f78:	3201      	adds	r2, #1
     f7a:	2a0a      	cmp	r2, #10
     f7c:	d1f1      	bne.n	f62 <Predict+0x4e>
Predict():
/workspace/benchmark/Lenet5_in_OPTEE/ta/lenet.c:295
     f7e:	4a0c      	ldr	r2, [pc, #48]	; (fb0 <Predict+0x9c>)
/workspace/benchmark/Lenet5_in_OPTEE/ta/lenet.c:300
     f80:	f50d 318d 	add.w	r1, sp, #72192	; 0x11a00
     f84:	4b09      	ldr	r3, [pc, #36]	; (fac <Predict+0x98>)
     f86:	3154      	adds	r1, #84	; 0x54
/workspace/benchmark/Lenet5_in_OPTEE/ta/lenet.c:295
     f88:	447a      	add	r2, pc
/workspace/benchmark/Lenet5_in_OPTEE/ta/lenet.c:300
     f8a:	58d3      	ldr	r3, [r2, r3]
     f8c:	681a      	ldr	r2, [r3, #0]
     f8e:	680b      	ldr	r3, [r1, #0]
     f90:	405a      	eors	r2, r3
     f92:	f04f 0300 	mov.w	r3, #0
     f96:	d001      	beq.n	f9c <Predict+0x88>
     f98:	f007 fede 	bl	8d58 <__stack_chk_fail>
     f9c:	f50d 3d8d 	add.w	sp, sp, #72192	; 0x11a00
     fa0:	b016      	add	sp, #88	; 0x58
     fa2:	bd70      	pop	{r4, r5, r6, pc}
     fa4:	00011a50 	.word	0x00011a50
     fa8:	00009a6c 	.word	0x00009a6c
     fac:	0000000c 	.word	0x0000000c
     fb0:	00009a00 	.word	0x00009a00

00000fb4 <Initial>:
Initial():
/workspace/benchmark/Lenet5_in_OPTEE/ta/lenet.c:303
     fb4:	4a5a      	ldr	r2, [pc, #360]	; (1120 <Initial+0x16c>)
     fb6:	e92d 47f0 	stmdb	sp!, {r4, r5, r6, r7, r8, r9, sl, lr}
     fba:	4b5a      	ldr	r3, [pc, #360]	; (1124 <Initial+0x170>)
/workspace/benchmark/Lenet5_in_OPTEE/ta/lenet.c:304
     fbc:	4f5a      	ldr	r7, [pc, #360]	; (1128 <Initial+0x174>)
/workspace/benchmark/Lenet5_in_OPTEE/ta/lenet.c:303
     fbe:	447a      	add	r2, pc
     fc0:	ed2d 8b02 	vpush	{d8}
     fc4:	b082      	sub	sp, #8
/workspace/benchmark/Lenet5_in_OPTEE/ta/lenet.c:304
     fc6:	447f      	add	r7, pc
rand():
/workspace/benchmark/Lenet5_in_OPTEE/ta/lenet.c:252
     fc8:	46ea      	mov	sl, sp
Initial():
/workspace/benchmark/Lenet5_in_OPTEE/ta/lenet.c:303
     fca:	58d3      	ldr	r3, [r2, r3]
/workspace/benchmark/Lenet5_in_OPTEE/ta/lenet.c:304
     fcc:	683e      	ldr	r6, [r7, #0]
/workspace/benchmark/Lenet5_in_OPTEE/ta/lenet.c:303
     fce:	681b      	ldr	r3, [r3, #0]
     fd0:	9301      	str	r3, [sp, #4]
     fd2:	f04f 0300 	mov.w	r3, #0
/workspace/benchmark/Lenet5_in_OPTEE/ta/lenet.c:304 (discriminator 1)
     fd6:	683d      	ldr	r5, [r7, #0]
     fd8:	f505 23ca 	add.w	r3, r5, #413696	; 0x65000
     fdc:	f503 7398 	add.w	r3, r3, #304	; 0x130
     fe0:	429e      	cmp	r6, r3
     fe2:	d340      	bcc.n	1066 <Initial+0xb2>
/workspace/benchmark/Lenet5_in_OPTEE/ta/lenet.c:305
     fe4:	4e51      	ldr	r6, [pc, #324]	; (112c <Initial+0x178>)
     fe6:	ed9f 8b46 	vldr	d8, [pc, #280]	; 1100 <Initial+0x14c>
     fea:	447e      	add	r6, pc
/workspace/benchmark/Lenet5_in_OPTEE/ta/lenet.c:305 (discriminator 1)
     fec:	6834      	ldr	r4, [r6, #0]
     fee:	f504 6496 	add.w	r4, r4, #1200	; 0x4b0
     ff2:	42ac      	cmp	r4, r5
     ff4:	d850      	bhi.n	1098 <Initial+0xe4>
/workspace/benchmark/Lenet5_in_OPTEE/ta/lenet.c:306
     ff6:	4f4e      	ldr	r7, [pc, #312]	; (1130 <Initial+0x17c>)
     ff8:	f644 76b0 	movw	r6, #20400	; 0x4fb0
     ffc:	ed9f 8b42 	vldr	d8, [pc, #264]	; 1108 <Initial+0x154>
    1000:	447f      	add	r7, pc
/workspace/benchmark/Lenet5_in_OPTEE/ta/lenet.c:306 (discriminator 1)
    1002:	683d      	ldr	r5, [r7, #0]
    1004:	4435      	add	r5, r6
    1006:	42a5      	cmp	r5, r4
    1008:	d851      	bhi.n	10ae <Initial+0xfa>
/workspace/benchmark/Lenet5_in_OPTEE/ta/lenet.c:307
    100a:	4e4a      	ldr	r6, [pc, #296]	; (1134 <Initial+0x180>)
    100c:	ed9f 8b40 	vldr	d8, [pc, #256]	; 1110 <Initial+0x15c>
    1010:	447e      	add	r6, pc
/workspace/benchmark/Lenet5_in_OPTEE/ta/lenet.c:307 (discriminator 1)
    1012:	6834      	ldr	r4, [r6, #0]
    1014:	f504 24c5 	add.w	r4, r4, #403456	; 0x62800
    1018:	f504 746c 	add.w	r4, r4, #944	; 0x3b0
    101c:	42ac      	cmp	r4, r5
    101e:	d851      	bhi.n	10c4 <Initial+0x110>
/workspace/benchmark/Lenet5_in_OPTEE/ta/lenet.c:308
    1020:	4d45      	ldr	r5, [pc, #276]	; (1138 <Initial+0x184>)
    1022:	ed9f 8b3d 	vldr	d8, [pc, #244]	; 1118 <Initial+0x164>
    1026:	447d      	add	r5, pc
/workspace/benchmark/Lenet5_in_OPTEE/ta/lenet.c:308 (discriminator 1)
    1028:	682b      	ldr	r3, [r5, #0]
    102a:	f503 23ca 	add.w	r3, r3, #413696	; 0x65000
    102e:	f503 7098 	add.w	r0, r3, #304	; 0x130
    1032:	42a0      	cmp	r0, r4
    1034:	d851      	bhi.n	10da <Initial+0x126>
/workspace/benchmark/Lenet5_in_OPTEE/ta/lenet.c:309
    1036:	f203 52f3 	addw	r2, r3, #1523	; 0x5f3
    103a:	f503 61be 	add.w	r1, r3, #1520	; 0x5f0
    103e:	1a12      	subs	r2, r2, r0
    1040:	f203 132d 	addw	r3, r3, #301	; 0x12d
    1044:	f022 0203 	bic.w	r2, r2, #3
    1048:	4299      	cmp	r1, r3
    104a:	bf38      	it	cc
    104c:	2200      	movcc	r2, #0
/workspace/benchmark/Lenet5_in_OPTEE/ta/lenet.c:303
    104e:	493b      	ldr	r1, [pc, #236]	; (113c <Initial+0x188>)
/workspace/benchmark/Lenet5_in_OPTEE/ta/lenet.c:309
    1050:	4b34      	ldr	r3, [pc, #208]	; (1124 <Initial+0x170>)
/workspace/benchmark/Lenet5_in_OPTEE/ta/lenet.c:303
    1052:	4479      	add	r1, pc
/workspace/benchmark/Lenet5_in_OPTEE/ta/lenet.c:309
    1054:	58cb      	ldr	r3, [r1, r3]
    1056:	6819      	ldr	r1, [r3, #0]
    1058:	9b01      	ldr	r3, [sp, #4]
    105a:	4059      	eors	r1, r3
    105c:	f04f 0300 	mov.w	r3, #0
    1060:	d046      	beq.n	10f0 <Initial+0x13c>
    1062:	f007 fe79 	bl	8d58 <__stack_chk_fail>
rand():
/workspace/benchmark/Lenet5_in_OPTEE/ta/lenet.c:252 (discriminator 3)
    1066:	2104      	movs	r1, #4
    1068:	4650      	mov	r0, sl
    106a:	f002 fc8a 	bl	3982 <TEE_GenerateRandom>
/workspace/benchmark/Lenet5_in_OPTEE/ta/lenet.c:253 (discriminator 3)
    106e:	9c00      	ldr	r4, [sp, #0]
/workspace/benchmark/Lenet5_in_OPTEE/ta/lenet.c:252 (discriminator 3)
    1070:	2104      	movs	r1, #4
    1072:	4650      	mov	r0, sl
    1074:	f002 fc85 	bl	3982 <TEE_GenerateRandom>
f64rand():
/workspace/benchmark/Lenet5_in_OPTEE/ta/lenet.c:263 (discriminator 3)
    1078:	9a00      	ldr	r2, [sp, #0]
/workspace/benchmark/Lenet5_in_OPTEE/ta/lenet.c:262 (discriminator 3)
    107a:	0b23      	lsrs	r3, r4, #12
    107c:	0524      	lsls	r4, r4, #20
/workspace/benchmark/Lenet5_in_OPTEE/ta/lenet.c:263 (discriminator 3)
    107e:	f043 4980 	orr.w	r9, r3, #1073741824	; 0x40000000
/workspace/benchmark/Lenet5_in_OPTEE/ta/lenet.c:264 (discriminator 3)
    1082:	eef0 0b08 	vmov.f64	d16, #8	; 0x40400000  3.0
/workspace/benchmark/Lenet5_in_OPTEE/ta/lenet.c:263 (discriminator 3)
    1086:	ea44 3812 	orr.w	r8, r4, r2, lsr #12
/workspace/benchmark/Lenet5_in_OPTEE/ta/lenet.c:264 (discriminator 3)
    108a:	ec49 8b31 	vmov	d17, r8, r9
    108e:	ee71 0be0 	vsub.f64	d16, d17, d16
Initial():
/workspace/benchmark/Lenet5_in_OPTEE/ta/lenet.c:304 (discriminator 3)
    1092:	ece6 0b02 	vstmia	r6!, {d16}
    1096:	e79e      	b.n	fd6 <Initial+0x22>
/workspace/benchmark/Lenet5_in_OPTEE/ta/lenet.c:305 (discriminator 3)
    1098:	eeb0 0b48 	vmov.f64	d0, d8
    109c:	f000 fa18 	bl	14d0 <__ieee754_sqrt>
    10a0:	ecf5 0b02 	vldmia	r5!, {d16}
    10a4:	ee20 0b80 	vmul.f64	d0, d16, d0
    10a8:	ed05 0b02 	vstr	d0, [r5, #-8]
    10ac:	e79e      	b.n	fec <Initial+0x38>
/workspace/benchmark/Lenet5_in_OPTEE/ta/lenet.c:306 (discriminator 3)
    10ae:	eeb0 0b48 	vmov.f64	d0, d8
    10b2:	f000 fa0d 	bl	14d0 <__ieee754_sqrt>
    10b6:	ecf4 0b02 	vldmia	r4!, {d16}
    10ba:	ee20 0b80 	vmul.f64	d0, d16, d0
    10be:	ed04 0b02 	vstr	d0, [r4, #-8]
    10c2:	e79e      	b.n	1002 <Initial+0x4e>
/workspace/benchmark/Lenet5_in_OPTEE/ta/lenet.c:307 (discriminator 3)
    10c4:	eeb0 0b48 	vmov.f64	d0, d8
    10c8:	f000 fa02 	bl	14d0 <__ieee754_sqrt>
    10cc:	ecf5 0b02 	vldmia	r5!, {d16}
    10d0:	ee20 0b80 	vmul.f64	d0, d16, d0
    10d4:	ed05 0b02 	vstr	d0, [r5, #-8]
    10d8:	e79b      	b.n	1012 <Initial+0x5e>
/workspace/benchmark/Lenet5_in_OPTEE/ta/lenet.c:308 (discriminator 3)
    10da:	eeb0 0b48 	vmov.f64	d0, d8
    10de:	f000 f9f7 	bl	14d0 <__ieee754_sqrt>
    10e2:	ecf4 0b02 	vldmia	r4!, {d16}
    10e6:	ee20 0b80 	vmul.f64	d0, d16, d0
    10ea:	ed04 0b02 	vstr	d0, [r4, #-8]
    10ee:	e79b      	b.n	1028 <Initial+0x74>
/workspace/benchmark/Lenet5_in_OPTEE/ta/lenet.c:309
    10f0:	2100      	movs	r1, #0
/workspace/benchmark/Lenet5_in_OPTEE/ta/lenet.c:310
    10f2:	b002      	add	sp, #8
    10f4:	ecbd 8b02 	vpop	{d8}
    10f8:	e8bd 47f0 	ldmia.w	sp!, {r4, r5, r6, r7, r8, r9, sl, lr}
/workspace/benchmark/Lenet5_in_OPTEE/ta/lenet.c:309
    10fc:	f007 be2d 	b.w	8d5a <memset>
    1100:	ab277f45 	.word	0xab277f45
    1104:	3fa18de5 	.word	0x3fa18de5
    1108:	65781658 	.word	0x65781658
    110c:	3f865781 	.word	0x3f865781
    1110:	83501cea 	.word	0x83501cea
    1114:	3f5ce9b6 	.word	0x3f5ce9b6
    1118:	17a17a18 	.word	0x17a17a18
    111c:	3fa7a17a 	.word	0x3fa7a17a
    1120:	000099ca 	.word	0x000099ca
    1124:	0000000c 	.word	0x0000000c
    1128:	0000a0d2 	.word	0x0000a0d2
    112c:	0000a0ae 	.word	0x0000a0ae
    1130:	0000a098 	.word	0x0000a098
    1134:	0000a088 	.word	0x0000a088
    1138:	0000a072 	.word	0x0000a072
    113c:	00009936 	.word	0x00009936

00001140 <__ieee754_exp>:
__ieee754_exp():
/workspace/benchmark/Lenet5_in_OPTEE/ta/e_exp.c:112
    1140:	ee10 2a90 	vmov	r2, s1
/workspace/benchmark/Lenet5_in_OPTEE/ta/e_exp.c:107
    1144:	b510      	push	{r4, lr}
/workspace/benchmark/Lenet5_in_OPTEE/ta/e_exp.c:117
    1146:	4c74      	ldr	r4, [pc, #464]	; (1318 <__ieee754_exp+0x1d8>)
/workspace/benchmark/Lenet5_in_OPTEE/ta/e_exp.c:114
    1148:	f022 4100 	bic.w	r1, r2, #2147483648	; 0x80000000
/workspace/benchmark/Lenet5_in_OPTEE/ta/e_exp.c:113
    114c:	0fd0      	lsrs	r0, r2, #31
/workspace/benchmark/Lenet5_in_OPTEE/ta/e_exp.c:117
    114e:	42a1      	cmp	r1, r4
    1150:	d923      	bls.n	119a <__ieee754_exp+0x5a>
/workspace/benchmark/Lenet5_in_OPTEE/ta/e_exp.c:118
    1152:	4b72      	ldr	r3, [pc, #456]	; (131c <__ieee754_exp+0x1dc>)
    1154:	4299      	cmp	r1, r3
    1156:	d90e      	bls.n	1176 <__ieee754_exp+0x36>
/workspace/benchmark/Lenet5_in_OPTEE/ta/e_exp.c:119
    1158:	ee10 3a10 	vmov	r3, s0
    115c:	f3c2 0213 	ubfx	r2, r2, #0, #20
    1160:	431a      	orrs	r2, r3
    1162:	d002      	beq.n	116a <__ieee754_exp+0x2a>
/workspace/benchmark/Lenet5_in_OPTEE/ta/e_exp.c:120
    1164:	ee30 0b00 	vadd.f64	d0, d0, d0
/workspace/benchmark/Lenet5_in_OPTEE/ta/e_exp.c:156
    1168:	bd10      	pop	{r4, pc}
/workspace/benchmark/Lenet5_in_OPTEE/ta/e_exp.c:121
    116a:	efc0 0e30 	vmov.i64	d16, #0x0000000000000000
    116e:	2800      	cmp	r0, #0
    1170:	fe00 0b20 	vseleq.f64	d0, d0, d16
    1174:	e7f8      	b.n	1168 <__ieee754_exp+0x28>
/workspace/benchmark/Lenet5_in_OPTEE/ta/e_exp.c:123
    1176:	eddf 0b4e 	vldr	d16, [pc, #312]	; 12b0 <__ieee754_exp+0x170>
    117a:	eeb4 0be0 	vcmpe.f64	d0, d16
    117e:	eef1 fa10 	vmrs	APSR_nzcv, fpscr
    1182:	f300 808f 	bgt.w	12a4 <__ieee754_exp+0x164>
/workspace/benchmark/Lenet5_in_OPTEE/ta/e_exp.c:124
    1186:	eddf 0b4c 	vldr	d16, [pc, #304]	; 12b8 <__ieee754_exp+0x178>
    118a:	eeb4 0be0 	vcmpe.f64	d0, d16
    118e:	eef1 fa10 	vmrs	APSR_nzcv, fpscr
    1192:	d53f      	bpl.n	1214 <__ieee754_exp+0xd4>
/workspace/benchmark/Lenet5_in_OPTEE/ta/e_exp.c:121
    1194:	ef80 0e30 	vmov.i64	d0, #0x0000000000000000
    1198:	e7e6      	b.n	1168 <__ieee754_exp+0x28>
/workspace/benchmark/Lenet5_in_OPTEE/ta/e_exp.c:128
    119a:	4a61      	ldr	r2, [pc, #388]	; (1320 <__ieee754_exp+0x1e0>)
    119c:	4291      	cmp	r1, r2
    119e:	d954      	bls.n	124a <__ieee754_exp+0x10a>
/workspace/benchmark/Lenet5_in_OPTEE/ta/e_exp.c:129
    11a0:	4b60      	ldr	r3, [pc, #384]	; (1324 <__ieee754_exp+0x1e4>)
    11a2:	4299      	cmp	r1, r3
    11a4:	d836      	bhi.n	1214 <__ieee754_exp+0xd4>
/workspace/benchmark/Lenet5_in_OPTEE/ta/e_exp.c:130
    11a6:	4b61      	ldr	r3, [pc, #388]	; (132c <__ieee754_exp+0x1ec>)
    11a8:	447b      	add	r3, pc
    11aa:	eb03 03c0 	add.w	r3, r3, r0, lsl #3
    11ae:	edd3 0b00 	vldr	d16, [r3]
    11b2:	edd3 1b04 	vldr	d17, [r3, #16]
    11b6:	f1c0 0301 	rsb	r3, r0, #1
    11ba:	1a1b      	subs	r3, r3, r0
    11bc:	ee70 0b60 	vsub.f64	d16, d0, d16
/workspace/benchmark/Lenet5_in_OPTEE/ta/e_exp.c:137
    11c0:	ee30 0be1 	vsub.f64	d0, d16, d17
/workspace/benchmark/Lenet5_in_OPTEE/ta/e_exp.c:145
    11c4:	ee60 2b00 	vmul.f64	d18, d0, d0
/workspace/benchmark/Lenet5_in_OPTEE/ta/e_exp.c:146
    11c8:	eddf 3b3d 	vldr	d19, [pc, #244]	; 12c0 <__ieee754_exp+0x180>
    11cc:	eddf 4b3e 	vldr	d20, [pc, #248]	; 12c8 <__ieee754_exp+0x188>
    11d0:	eee2 4be3 	vfms.f64	d20, d18, d19
    11d4:	eddf 3b3e 	vldr	d19, [pc, #248]	; 12d0 <__ieee754_exp+0x190>
    11d8:	eee4 3ba2 	vfma.f64	d19, d20, d18
    11dc:	eddf 4b3e 	vldr	d20, [pc, #248]	; 12d8 <__ieee754_exp+0x198>
    11e0:	eee3 4ba2 	vfma.f64	d20, d19, d18
    11e4:	eddf 3b3e 	vldr	d19, [pc, #248]	; 12e0 <__ieee754_exp+0x1a0>
    11e8:	eee4 3ba2 	vfma.f64	d19, d20, d18
    11ec:	eef0 4b40 	vmov.f64	d20, d0
    11f0:	eee3 4ba2 	vfma.f64	d20, d19, d18
/workspace/benchmark/Lenet5_in_OPTEE/ta/e_exp.c:147
    11f4:	eef0 2b00 	vmov.f64	d18, #0	; 0x40000000  2.0
    11f8:	ee64 5b80 	vmul.f64	d21, d20, d0
    11fc:	ee72 2be4 	vsub.f64	d18, d18, d20
    1200:	eec5 3ba2 	vdiv.f64	d19, d21, d18
    1204:	eef7 2b00 	vmov.f64	d18, #112	; 0x3f800000  1.0
    1208:	bb83      	cbnz	r3, 126c <__ieee754_exp+0x12c>
/workspace/benchmark/Lenet5_in_OPTEE/ta/e_exp.c:147 (discriminator 1)
    120a:	ee30 0b22 	vadd.f64	d0, d0, d18
    120e:	ee30 0b23 	vadd.f64	d0, d0, d19
    1212:	e7a9      	b.n	1168 <__ieee754_exp+0x28>
/workspace/benchmark/Lenet5_in_OPTEE/ta/e_exp.c:132
    1214:	4b46      	ldr	r3, [pc, #280]	; (1330 <__ieee754_exp+0x1f0>)
    1216:	eddf 1b34 	vldr	d17, [pc, #208]	; 12e8 <__ieee754_exp+0x1a8>
    121a:	447b      	add	r3, pc
/workspace/benchmark/Lenet5_in_OPTEE/ta/e_exp.c:134
    121c:	eddf 2b34 	vldr	d18, [pc, #208]	; 12f0 <__ieee754_exp+0x1b0>
/workspace/benchmark/Lenet5_in_OPTEE/ta/e_exp.c:132
    1220:	eb03 03c0 	add.w	r3, r3, r0, lsl #3
    1224:	edd3 0b08 	vldr	d16, [r3, #32]
    1228:	eee0 0b21 	vfma.f64	d16, d0, d17
    122c:	eefd 7be0 	vcvt.s32.f64	s15, d16
/workspace/benchmark/Lenet5_in_OPTEE/ta/e_exp.c:134
    1230:	eef0 0b40 	vmov.f64	d16, d0
/workspace/benchmark/Lenet5_in_OPTEE/ta/e_exp.c:133
    1234:	eef8 1be7 	vcvt.f64.s32	d17, s15
/workspace/benchmark/Lenet5_in_OPTEE/ta/e_exp.c:132
    1238:	ee17 3a90 	vmov	r3, s15
/workspace/benchmark/Lenet5_in_OPTEE/ta/e_exp.c:134
    123c:	eee1 0be2 	vfms.f64	d16, d17, d18
/workspace/benchmark/Lenet5_in_OPTEE/ta/e_exp.c:135
    1240:	eddf 2b2d 	vldr	d18, [pc, #180]	; 12f8 <__ieee754_exp+0x1b8>
    1244:	ee61 1ba2 	vmul.f64	d17, d17, d18
    1248:	e7ba      	b.n	11c0 <__ieee754_exp+0x80>
/workspace/benchmark/Lenet5_in_OPTEE/ta/e_exp.c:139
    124a:	4a37      	ldr	r2, [pc, #220]	; (1328 <__ieee754_exp+0x1e8>)
    124c:	4291      	cmp	r1, r2
    124e:	d80b      	bhi.n	1268 <__ieee754_exp+0x128>
/workspace/benchmark/Lenet5_in_OPTEE/ta/e_exp.c:140
    1250:	eddf 2b2b 	vldr	d18, [pc, #172]	; 1300 <__ieee754_exp+0x1c0>
    1254:	eeb4 0be2 	vcmpe.f64	d0, d18
    1258:	eef1 fa10 	vmrs	APSR_nzcv, fpscr
    125c:	ddb2      	ble.n	11c4 <__ieee754_exp+0x84>
/workspace/benchmark/Lenet5_in_OPTEE/ta/e_exp.c:140 (discriminator 1)
    125e:	eef7 0b00 	vmov.f64	d16, #112	; 0x3f800000  1.0
    1262:	ee30 0b20 	vadd.f64	d0, d0, d16
    1266:	e77f      	b.n	1168 <__ieee754_exp+0x28>
/workspace/benchmark/Lenet5_in_OPTEE/ta/e_exp.c:142
    1268:	2300      	movs	r3, #0
    126a:	e7ab      	b.n	11c4 <__ieee754_exp+0x84>
/workspace/benchmark/Lenet5_in_OPTEE/ta/e_exp.c:148
    126c:	ee70 0ba2 	vadd.f64	d16, d16, d18
/workspace/benchmark/Lenet5_in_OPTEE/ta/e_exp.c:149
    1270:	f46f 747f 	mvn.w	r4, #1020	; 0x3fc
    1274:	42a3      	cmp	r3, r4
/workspace/benchmark/Lenet5_in_OPTEE/ta/e_exp.c:148
    1276:	ee70 0be1 	vsub.f64	d16, d16, d17
    127a:	ee70 0ba3 	vadd.f64	d16, d16, d19
    127e:	ec51 0b30 	vmov	r0, r1, d16
/workspace/benchmark/Lenet5_in_OPTEE/ta/e_exp.c:149
    1282:	db04      	blt.n	128e <__ieee754_exp+0x14e>
/workspace/benchmark/Lenet5_in_OPTEE/ta/e_exp.c:150
    1284:	eb01 5103 	add.w	r1, r1, r3, lsl #20
/workspace/benchmark/Lenet5_in_OPTEE/ta/e_exp.c:151
    1288:	ec41 0b10 	vmov	d0, r0, r1
    128c:	e76c      	b.n	1168 <__ieee754_exp+0x28>
/workspace/benchmark/Lenet5_in_OPTEE/ta/e_exp.c:153
    128e:	f503 737a 	add.w	r3, r3, #1000	; 0x3e8
/workspace/benchmark/Lenet5_in_OPTEE/ta/e_exp.c:154
    1292:	ed9f 0b1d 	vldr	d0, [pc, #116]	; 1308 <__ieee754_exp+0x1c8>
/workspace/benchmark/Lenet5_in_OPTEE/ta/e_exp.c:153
    1296:	eb01 5103 	add.w	r1, r1, r3, lsl #20
/workspace/benchmark/Lenet5_in_OPTEE/ta/e_exp.c:154
    129a:	ec41 0b30 	vmov	d16, r0, r1
    129e:	ee20 0b80 	vmul.f64	d0, d16, d0
    12a2:	e761      	b.n	1168 <__ieee754_exp+0x28>
/workspace/benchmark/Lenet5_in_OPTEE/ta/e_exp.c:123
    12a4:	ed9f 0b1a 	vldr	d0, [pc, #104]	; 1310 <__ieee754_exp+0x1d0>
    12a8:	e75e      	b.n	1168 <__ieee754_exp+0x28>
    12aa:	bf00      	nop
    12ac:	f3af 8000 	nop.w
    12b0:	fefa39ef 	.word	0xfefa39ef
    12b4:	40862e42 	.word	0x40862e42
    12b8:	d52d3051 	.word	0xd52d3051
    12bc:	c0874910 	.word	0xc0874910
    12c0:	72bea4d0 	.word	0x72bea4d0
    12c4:	3e663769 	.word	0x3e663769
    12c8:	c5d26bf1 	.word	0xc5d26bf1
    12cc:	3ebbbd41 	.word	0x3ebbbd41
    12d0:	af25de2c 	.word	0xaf25de2c
    12d4:	bf11566a 	.word	0xbf11566a
    12d8:	16bebd93 	.word	0x16bebd93
    12dc:	3f66c16c 	.word	0x3f66c16c
    12e0:	5555553e 	.word	0x5555553e
    12e4:	bfc55555 	.word	0xbfc55555
    12e8:	652b82fe 	.word	0x652b82fe
    12ec:	3ff71547 	.word	0x3ff71547
    12f0:	fee00000 	.word	0xfee00000
    12f4:	3fe62e42 	.word	0x3fe62e42
    12f8:	35793c76 	.word	0x35793c76
    12fc:	3dea39ef 	.word	0x3dea39ef
    1300:	8800759c 	.word	0x8800759c
    1304:	fe37e43c 	.word	0xfe37e43c
    1308:	00000000 	.word	0x00000000
    130c:	01700000 	.word	0x01700000
    1310:	00000000 	.word	0x00000000
    1314:	7ff00000 	.word	0x7ff00000
    1318:	40862e41 	.word	0x40862e41
    131c:	7fefffff 	.word	0x7fefffff
    1320:	3fd62e42 	.word	0x3fd62e42
    1324:	3ff0a2b1 	.word	0x3ff0a2b1
    1328:	3e2fffff 	.word	0x3e2fffff
    132c:	00007e54 	.word	0x00007e54
    1330:	00007de2 	.word	0x00007de2

00001334 <TA_CreateEntryPoint>:
TA_CreateEntryPoint():
/workspace/benchmark/Lenet5_in_OPTEE/ta/lenet5_ta.c:16
    1334:	b507      	push	{r0, r1, r2, lr}
/workspace/benchmark/Lenet5_in_OPTEE/ta/lenet5_ta.c:17
    1336:	2203      	movs	r2, #3
    1338:	4b06      	ldr	r3, [pc, #24]	; (1354 <TA_CreateEntryPoint+0x20>)
    133a:	4807      	ldr	r0, [pc, #28]	; (1358 <TA_CreateEntryPoint+0x24>)
    133c:	2111      	movs	r1, #17
    133e:	447b      	add	r3, pc
    1340:	9300      	str	r3, [sp, #0]
    1342:	4478      	add	r0, pc
    1344:	2301      	movs	r3, #1
    1346:	f000 f9a9 	bl	169c <trace_printf>
/workspace/benchmark/Lenet5_in_OPTEE/ta/lenet5_ta.c:20
    134a:	2000      	movs	r0, #0
    134c:	b003      	add	sp, #12
    134e:	f85d fb04 	ldr.w	pc, [sp], #4
    1352:	bf00      	nop
    1354:	00007fce 	.word	0x00007fce
    1358:	000080a9 	.word	0x000080a9

0000135c <TA_DestroyEntryPoint>:
TA_DestroyEntryPoint():
/workspace/benchmark/Lenet5_in_OPTEE/ta/lenet5_ta.c:27
    135c:	b507      	push	{r0, r1, r2, lr}
/workspace/benchmark/Lenet5_in_OPTEE/ta/lenet5_ta.c:28
    135e:	2203      	movs	r2, #3
    1360:	4806      	ldr	r0, [pc, #24]	; (137c <TA_DestroyEntryPoint+0x20>)
    1362:	4b07      	ldr	r3, [pc, #28]	; (1380 <TA_DestroyEntryPoint+0x24>)
    1364:	211c      	movs	r1, #28
    1366:	4478      	add	r0, pc
    1368:	447b      	add	r3, pc
    136a:	3014      	adds	r0, #20
    136c:	9300      	str	r3, [sp, #0]
    136e:	2301      	movs	r3, #1
    1370:	f000 f994 	bl	169c <trace_printf>
/workspace/benchmark/Lenet5_in_OPTEE/ta/lenet5_ta.c:29
    1374:	b003      	add	sp, #12
    1376:	f85d fb04 	ldr.w	pc, [sp], #4
    137a:	bf00      	nop
    137c:	00008085 	.word	0x00008085
    1380:	00007fc8 	.word	0x00007fc8

00001384 <TA_OpenSessionEntryPoint>:
TA_OpenSessionEntryPoint():
/workspace/benchmark/Lenet5_in_OPTEE/ta/lenet5_ta.c:40
    1384:	b537      	push	{r0, r1, r2, r4, r5, lr}
    1386:	4604      	mov	r4, r0
/workspace/benchmark/Lenet5_in_OPTEE/ta/lenet5_ta.c:46
    1388:	4d0e      	ldr	r5, [pc, #56]	; (13c4 <TA_OpenSessionEntryPoint+0x40>)
    138a:	4b0f      	ldr	r3, [pc, #60]	; (13c8 <TA_OpenSessionEntryPoint+0x44>)
    138c:	2203      	movs	r2, #3
    138e:	447d      	add	r5, pc
    1390:	212e      	movs	r1, #46	; 0x2e
    1392:	3529      	adds	r5, #41	; 0x29
    1394:	447b      	add	r3, pc
    1396:	4628      	mov	r0, r5
    1398:	9300      	str	r3, [sp, #0]
    139a:	2301      	movs	r3, #1
    139c:	f000 f97e 	bl	169c <trace_printf>
/workspace/benchmark/Lenet5_in_OPTEE/ta/lenet5_ta.c:48
    13a0:	b95c      	cbnz	r4, 13ba <TA_OpenSessionEntryPoint+0x36>
/workspace/benchmark/Lenet5_in_OPTEE/ta/lenet5_ta.c:59
    13a2:	4b0a      	ldr	r3, [pc, #40]	; (13cc <TA_OpenSessionEntryPoint+0x48>)
    13a4:	2202      	movs	r2, #2
    13a6:	213b      	movs	r1, #59	; 0x3b
    13a8:	4628      	mov	r0, r5
    13aa:	447b      	add	r3, pc
    13ac:	9300      	str	r3, [sp, #0]
    13ae:	2301      	movs	r3, #1
    13b0:	f000 f974 	bl	169c <trace_printf>
/workspace/benchmark/Lenet5_in_OPTEE/ta/lenet5_ta.c:63
    13b4:	4620      	mov	r0, r4
    13b6:	b003      	add	sp, #12
    13b8:	bd30      	pop	{r4, r5, pc}
/workspace/benchmark/Lenet5_in_OPTEE/ta/lenet5_ta.c:49
    13ba:	4c01      	ldr	r4, [pc, #4]	; (13c0 <TA_OpenSessionEntryPoint+0x3c>)
    13bc:	e7fa      	b.n	13b4 <TA_OpenSessionEntryPoint+0x30>
    13be:	bf00      	nop
    13c0:	ffff0006 	.word	0xffff0006
    13c4:	0000805d 	.word	0x0000805d
    13c8:	00007fc1 	.word	0x00007fc1
    13cc:	00007fd4 	.word	0x00007fd4

000013d0 <TA_CloseSessionEntryPoint>:
TA_CloseSessionEntryPoint():
/workspace/benchmark/Lenet5_in_OPTEE/ta/lenet5_ta.c:70
    13d0:	4b0a      	ldr	r3, [pc, #40]	; (13fc <TA_CloseSessionEntryPoint+0x2c>)
    13d2:	b507      	push	{r0, r1, r2, lr}
/workspace/benchmark/Lenet5_in_OPTEE/ta/lenet5_ta.c:72
    13d4:	4a0a      	ldr	r2, [pc, #40]	; (1400 <TA_CloseSessionEntryPoint+0x30>)
/workspace/benchmark/Lenet5_in_OPTEE/ta/lenet5_ta.c:70
    13d6:	447b      	add	r3, pc
/workspace/benchmark/Lenet5_in_OPTEE/ta/lenet5_ta.c:72
    13d8:	589b      	ldr	r3, [r3, r2]
    13da:	6818      	ldr	r0, [r3, #0]
    13dc:	f000 fff6 	bl	23cc <TEE_Free>
/workspace/benchmark/Lenet5_in_OPTEE/ta/lenet5_ta.c:73
    13e0:	4808      	ldr	r0, [pc, #32]	; (1404 <TA_CloseSessionEntryPoint+0x34>)
    13e2:	4b09      	ldr	r3, [pc, #36]	; (1408 <TA_CloseSessionEntryPoint+0x38>)
    13e4:	2202      	movs	r2, #2
    13e6:	4478      	add	r0, pc
    13e8:	2149      	movs	r1, #73	; 0x49
    13ea:	447b      	add	r3, pc
    13ec:	3042      	adds	r0, #66	; 0x42
    13ee:	9300      	str	r3, [sp, #0]
    13f0:	2301      	movs	r3, #1
    13f2:	f000 f953 	bl	169c <trace_printf>
/workspace/benchmark/Lenet5_in_OPTEE/ta/lenet5_ta.c:74
    13f6:	b003      	add	sp, #12
    13f8:	f85d fb04 	ldr.w	pc, [sp], #4
    13fc:	000095b2 	.word	0x000095b2
    1400:	00000030 	.word	0x00000030
    1404:	00008005 	.word	0x00008005
    1408:	00007fa8 	.word	0x00007fa8

0000140c <TA_InvokeCommandEntryPoint>:
TA_InvokeCommandEntryPoint():
/workspace/benchmark/Lenet5_in_OPTEE/ta/lenet5_ta.c:169
    140c:	b573      	push	{r0, r1, r4, r5, r6, lr}
/workspace/benchmark/Lenet5_in_OPTEE/ta/lenet5_ta.c:171
    140e:	2901      	cmp	r1, #1
/workspace/benchmark/Lenet5_in_OPTEE/ta/lenet5_ta.c:169
    1410:	4e27      	ldr	r6, [pc, #156]	; (14b0 <TA_InvokeCommandEntryPoint+0xa4>)
    1412:	4614      	mov	r4, r2
    1414:	461d      	mov	r5, r3
    1416:	447e      	add	r6, pc
/workspace/benchmark/Lenet5_in_OPTEE/ta/lenet5_ta.c:171
    1418:	d01c      	beq.n	1454 <TA_InvokeCommandEntryPoint+0x48>
    141a:	2902      	cmp	r1, #2
    141c:	d032      	beq.n	1484 <TA_InvokeCommandEntryPoint+0x78>
    141e:	b959      	cbnz	r1, 1438 <TA_InvokeCommandEntryPoint+0x2c>
ta_init():
/workspace/benchmark/Lenet5_in_OPTEE/ta/lenet5_ta.c:85
    1420:	4824      	ldr	r0, [pc, #144]	; (14b4 <TA_InvokeCommandEntryPoint+0xa8>)
    1422:	2203      	movs	r2, #3
    1424:	4b24      	ldr	r3, [pc, #144]	; (14b8 <TA_InvokeCommandEntryPoint+0xac>)
    1426:	2155      	movs	r1, #85	; 0x55
    1428:	4478      	add	r0, pc
    142a:	447b      	add	r3, pc
    142c:	305c      	adds	r0, #92	; 0x5c
    142e:	9300      	str	r3, [sp, #0]
    1430:	2301      	movs	r3, #1
    1432:	f000 f933 	bl	169c <trace_printf>
/workspace/benchmark/Lenet5_in_OPTEE/ta/lenet5_ta.c:87
    1436:	b10c      	cbz	r4, 143c <TA_InvokeCommandEntryPoint+0x30>
TA_InvokeCommandEntryPoint():
/workspace/benchmark/Lenet5_in_OPTEE/ta/lenet5_ta.c:171
    1438:	4c1b      	ldr	r4, [pc, #108]	; (14a8 <TA_InvokeCommandEntryPoint+0x9c>)
    143a:	e008      	b.n	144e <TA_InvokeCommandEntryPoint+0x42>
ta_init():
/workspace/benchmark/Lenet5_in_OPTEE/ta/lenet5_ta.c:93
    143c:	481b      	ldr	r0, [pc, #108]	; (14ac <TA_InvokeCommandEntryPoint+0xa0>)
    143e:	4621      	mov	r1, r4
    1440:	f000 ff9d 	bl	237e <TEE_Malloc>
    1444:	4b1d      	ldr	r3, [pc, #116]	; (14bc <TA_InvokeCommandEntryPoint+0xb0>)
    1446:	58f3      	ldr	r3, [r6, r3]
    1448:	6018      	str	r0, [r3, #0]
/workspace/benchmark/Lenet5_in_OPTEE/ta/lenet5_ta.c:94
    144a:	f7ff fdb3 	bl	fb4 <Initial>
TA_InvokeCommandEntryPoint():
/workspace/benchmark/Lenet5_in_OPTEE/ta/lenet5_ta.c:181
    144e:	4620      	mov	r0, r4
    1450:	b002      	add	sp, #8
    1452:	bd70      	pop	{r4, r5, r6, pc}
ta_trainBatch():
/workspace/benchmark/Lenet5_in_OPTEE/ta/lenet5_ta.c:109
    1454:	481a      	ldr	r0, [pc, #104]	; (14c0 <TA_InvokeCommandEntryPoint+0xb4>)
    1456:	2203      	movs	r2, #3
    1458:	4b1a      	ldr	r3, [pc, #104]	; (14c4 <TA_InvokeCommandEntryPoint+0xb8>)
    145a:	4478      	add	r0, pc
    145c:	447b      	add	r3, pc
    145e:	3064      	adds	r0, #100	; 0x64
    1460:	9300      	str	r3, [sp, #0]
    1462:	460b      	mov	r3, r1
    1464:	216d      	movs	r1, #109	; 0x6d
    1466:	f000 f919 	bl	169c <trace_printf>
/workspace/benchmark/Lenet5_in_OPTEE/ta/lenet5_ta.c:111
    146a:	2c55      	cmp	r4, #85	; 0x55
    146c:	d1e4      	bne.n	1438 <TA_InvokeCommandEntryPoint+0x2c>
/workspace/benchmark/Lenet5_in_OPTEE/ta/lenet5_ta.c:117
    146e:	686a      	ldr	r2, [r5, #4]
/workspace/benchmark/Lenet5_in_OPTEE/ta/lenet5_ta.c:137
    1470:	f44f 7344 	mov.w	r3, #784	; 0x310
    1474:	68a9      	ldr	r1, [r5, #8]
    1476:	6828      	ldr	r0, [r5, #0]
    1478:	fbb2 f2f3 	udiv	r2, r2, r3
    147c:	f7ff f8b0 	bl	5e0 <TrainBatch>
ta_predict():
/workspace/benchmark/Lenet5_in_OPTEE/ta/lenet5_ta.c:158
    1480:	2400      	movs	r4, #0
    1482:	e7e4      	b.n	144e <TA_InvokeCommandEntryPoint+0x42>
/workspace/benchmark/Lenet5_in_OPTEE/ta/lenet5_ta.c:150
    1484:	4810      	ldr	r0, [pc, #64]	; (14c8 <TA_InvokeCommandEntryPoint+0xbc>)
    1486:	2203      	movs	r2, #3
    1488:	4b10      	ldr	r3, [pc, #64]	; (14cc <TA_InvokeCommandEntryPoint+0xc0>)
    148a:	2196      	movs	r1, #150	; 0x96
    148c:	4478      	add	r0, pc
    148e:	447b      	add	r3, pc
    1490:	3072      	adds	r0, #114	; 0x72
    1492:	9300      	str	r3, [sp, #0]
    1494:	2301      	movs	r3, #1
    1496:	f000 f901 	bl	169c <trace_printf>
/workspace/benchmark/Lenet5_in_OPTEE/ta/lenet5_ta.c:152
    149a:	2c25      	cmp	r4, #37	; 0x25
    149c:	d1cc      	bne.n	1438 <TA_InvokeCommandEntryPoint+0x2c>
/workspace/benchmark/Lenet5_in_OPTEE/ta/lenet5_ta.c:156
    149e:	6828      	ldr	r0, [r5, #0]
    14a0:	f7ff fd38 	bl	f14 <Predict>
    14a4:	60a8      	str	r0, [r5, #8]
    14a6:	e7eb      	b.n	1480 <TA_InvokeCommandEntryPoint+0x74>
    14a8:	ffff0006 	.word	0xffff0006
    14ac:	000655f0 	.word	0x000655f0
    14b0:	00009572 	.word	0x00009572
    14b4:	00007fc3 	.word	0x00007fc3
    14b8:	00007f7f 	.word	0x00007f7f
    14bc:	00000030 	.word	0x00000030
    14c0:	00007f91 	.word	0x00007f91
    14c4:	00007f64 	.word	0x00007f64
    14c8:	00007f5f 	.word	0x00007f5f
    14cc:	00007f48 	.word	0x00007f48

000014d0 <__ieee754_sqrt>:
__ieee754_sqrt():
/workspace/benchmark/Lenet5_in_OPTEE/ta/e_sqrt.c:103
    14d0:	ee10 1a90 	vmov	r1, s1
/workspace/benchmark/Lenet5_in_OPTEE/ta/e_sqrt.c:97
    14d4:	e92d 41f0 	stmdb	sp!, {r4, r5, r6, r7, r8, lr}
/workspace/benchmark/Lenet5_in_OPTEE/ta/e_sqrt.c:107
    14d8:	4c4f      	ldr	r4, [pc, #316]	; (1618 <__ieee754_sqrt+0x148>)
/workspace/benchmark/Lenet5_in_OPTEE/ta/e_sqrt.c:103
    14da:	ee10 3a90 	vmov	r3, s1
/workspace/benchmark/Lenet5_in_OPTEE/ta/e_sqrt.c:104
    14de:	ee10 0a10 	vmov	r0, s0
    14e2:	ee10 2a10 	vmov	r2, s0
/workspace/benchmark/Lenet5_in_OPTEE/ta/e_sqrt.c:107
    14e6:	438c      	bics	r4, r1
    14e8:	d103      	bne.n	14f2 <__ieee754_sqrt+0x22>
/workspace/benchmark/Lenet5_in_OPTEE/ta/e_sqrt.c:108
    14ea:	ee00 0b00 	vmla.f64	d0, d0, d0
/workspace/benchmark/Lenet5_in_OPTEE/ta/e_sqrt.c:192
    14ee:	e8bd 81f0 	ldmia.w	sp!, {r4, r5, r6, r7, r8, pc}
/workspace/benchmark/Lenet5_in_OPTEE/ta/e_sqrt.c:112
    14f2:	2900      	cmp	r1, #0
    14f4:	dc09      	bgt.n	150a <__ieee754_sqrt+0x3a>
/workspace/benchmark/Lenet5_in_OPTEE/ta/e_sqrt.c:113
    14f6:	f021 4400 	bic.w	r4, r1, #2147483648	; 0x80000000
    14fa:	4304      	orrs	r4, r0
    14fc:	d0f7      	beq.n	14ee <__ieee754_sqrt+0x1e>
/workspace/benchmark/Lenet5_in_OPTEE/ta/e_sqrt.c:114
    14fe:	b121      	cbz	r1, 150a <__ieee754_sqrt+0x3a>
/workspace/benchmark/Lenet5_in_OPTEE/ta/e_sqrt.c:115
    1500:	ee70 0b40 	vsub.f64	d16, d0, d0
    1504:	ee80 0ba0 	vdiv.f64	d0, d16, d16
    1508:	e7f1      	b.n	14ee <__ieee754_sqrt+0x1e>
/workspace/benchmark/Lenet5_in_OPTEE/ta/e_sqrt.c:119
    150a:	1509      	asrs	r1, r1, #20
    150c:	d07c      	beq.n	1608 <__ieee754_sqrt+0x138>
/workspace/benchmark/Lenet5_in_OPTEE/ta/e_sqrt.c:130
    150e:	f3c3 0313 	ubfx	r3, r3, #0, #20
/workspace/benchmark/Lenet5_in_OPTEE/ta/e_sqrt.c:129
    1512:	f2a1 35ff 	subw	r5, r1, #1023	; 0x3ff
/workspace/benchmark/Lenet5_in_OPTEE/ta/e_sqrt.c:130
    1516:	f443 1380 	orr.w	r3, r3, #1048576	; 0x100000
/workspace/benchmark/Lenet5_in_OPTEE/ta/e_sqrt.c:131
    151a:	07c9      	lsls	r1, r1, #31
/workspace/benchmark/Lenet5_in_OPTEE/ta/e_sqrt.c:140
    151c:	f04f 0c00 	mov.w	ip, #0
/workspace/benchmark/Lenet5_in_OPTEE/ta/e_sqrt.c:135
    1520:	ea4f 0565 	mov.w	r5, r5, asr #1
/workspace/benchmark/Lenet5_in_OPTEE/ta/e_sqrt.c:132
    1524:	bf58      	it	pl
    1526:	005b      	lslpl	r3, r3, #1
/workspace/benchmark/Lenet5_in_OPTEE/ta/e_sqrt.c:139
    1528:	f04f 0816 	mov.w	r8, #22
/workspace/benchmark/Lenet5_in_OPTEE/ta/e_sqrt.c:132
    152c:	bf5c      	itt	pl
    152e:	eb03 73d2 	addpl.w	r3, r3, r2, lsr #31
/workspace/benchmark/Lenet5_in_OPTEE/ta/e_sqrt.c:133
    1532:	0052      	lslpl	r2, r2, #1
/workspace/benchmark/Lenet5_in_OPTEE/ta/e_sqrt.c:140
    1534:	46e6      	mov	lr, ip
/workspace/benchmark/Lenet5_in_OPTEE/ta/e_sqrt.c:141
    1536:	f44f 1100 	mov.w	r1, #2097152	; 0x200000
/workspace/benchmark/Lenet5_in_OPTEE/ta/e_sqrt.c:138
    153a:	005b      	lsls	r3, r3, #1
    153c:	eb03 73d2 	add.w	r3, r3, r2, lsr #31
/workspace/benchmark/Lenet5_in_OPTEE/ta/e_sqrt.c:139
    1540:	0052      	lsls	r2, r2, #1
/workspace/benchmark/Lenet5_in_OPTEE/ta/e_sqrt.c:144
    1542:	eb0e 0001 	add.w	r0, lr, r1
/workspace/benchmark/Lenet5_in_OPTEE/ta/e_sqrt.c:145
    1546:	4298      	cmp	r0, r3
/workspace/benchmark/Lenet5_in_OPTEE/ta/e_sqrt.c:147
    1548:	bfdc      	itt	le
    154a:	1a1b      	suble	r3, r3, r0
/workspace/benchmark/Lenet5_in_OPTEE/ta/e_sqrt.c:146
    154c:	eb00 0e01 	addle.w	lr, r0, r1
/workspace/benchmark/Lenet5_in_OPTEE/ta/e_sqrt.c:150
    1550:	ea4f 70d2 	mov.w	r0, r2, lsr #31
/workspace/benchmark/Lenet5_in_OPTEE/ta/e_sqrt.c:148
    1554:	bfd8      	it	le
    1556:	448c      	addle	ip, r1
/workspace/benchmark/Lenet5_in_OPTEE/ta/e_sqrt.c:150
    1558:	eb00 0343 	add.w	r3, r0, r3, lsl #1
/workspace/benchmark/Lenet5_in_OPTEE/ta/e_sqrt.c:151
    155c:	0052      	lsls	r2, r2, #1
/workspace/benchmark/Lenet5_in_OPTEE/ta/e_sqrt.c:152
    155e:	0849      	lsrs	r1, r1, #1
/workspace/benchmark/Lenet5_in_OPTEE/ta/e_sqrt.c:143
    1560:	f1b8 0801 	subs.w	r8, r8, #1
    1564:	d1ed      	bne.n	1542 <__ieee754_sqrt+0x72>
/workspace/benchmark/Lenet5_in_OPTEE/ta/e_sqrt.c:140
    1566:	4641      	mov	r1, r8
    1568:	2620      	movs	r6, #32
/workspace/benchmark/Lenet5_in_OPTEE/ta/e_sqrt.c:155
    156a:	f04f 4000 	mov.w	r0, #2147483648	; 0x80000000
/workspace/benchmark/Lenet5_in_OPTEE/ta/e_sqrt.c:157
    156e:	eb00 0408 	add.w	r4, r0, r8
/workspace/benchmark/Lenet5_in_OPTEE/ta/e_sqrt.c:159
    1572:	4573      	cmp	r3, lr
    1574:	dc02      	bgt.n	157c <__ieee754_sqrt+0xac>
/workspace/benchmark/Lenet5_in_OPTEE/ta/e_sqrt.c:159 (discriminator 1)
    1576:	d113      	bne.n	15a0 <__ieee754_sqrt+0xd0>
/workspace/benchmark/Lenet5_in_OPTEE/ta/e_sqrt.c:159 (discriminator 2)
    1578:	4294      	cmp	r4, r2
    157a:	d811      	bhi.n	15a0 <__ieee754_sqrt+0xd0>
/workspace/benchmark/Lenet5_in_OPTEE/ta/e_sqrt.c:160
    157c:	eb04 0800 	add.w	r8, r4, r0
/workspace/benchmark/Lenet5_in_OPTEE/ta/e_sqrt.c:161
    1580:	2c00      	cmp	r4, #0
    1582:	da46      	bge.n	1612 <__ieee754_sqrt+0x142>
/workspace/benchmark/Lenet5_in_OPTEE/ta/e_sqrt.c:161 (discriminator 1)
    1584:	f1b8 0f00 	cmp.w	r8, #0
    1588:	db43      	blt.n	1612 <__ieee754_sqrt+0x142>
/workspace/benchmark/Lenet5_in_OPTEE/ta/e_sqrt.c:161 (discriminator 2)
    158a:	f10e 0701 	add.w	r7, lr, #1
/workspace/benchmark/Lenet5_in_OPTEE/ta/e_sqrt.c:162
    158e:	eba3 030e 	sub.w	r3, r3, lr
/workspace/benchmark/Lenet5_in_OPTEE/ta/e_sqrt.c:163
    1592:	4294      	cmp	r4, r2
    1594:	bf88      	it	hi
    1596:	f103 33ff 	addhi.w	r3, r3, #4294967295	; 0xffffffff
/workspace/benchmark/Lenet5_in_OPTEE/ta/e_sqrt.c:164
    159a:	1b12      	subs	r2, r2, r4
/workspace/benchmark/Lenet5_in_OPTEE/ta/e_sqrt.c:165
    159c:	4401      	add	r1, r0
    159e:	46be      	mov	lr, r7
/workspace/benchmark/Lenet5_in_OPTEE/ta/e_sqrt.c:167
    15a0:	005b      	lsls	r3, r3, #1
/workspace/benchmark/Lenet5_in_OPTEE/ta/e_sqrt.c:169
    15a2:	0840      	lsrs	r0, r0, #1
/workspace/benchmark/Lenet5_in_OPTEE/ta/e_sqrt.c:167
    15a4:	eb03 73d2 	add.w	r3, r3, r2, lsr #31
/workspace/benchmark/Lenet5_in_OPTEE/ta/e_sqrt.c:156
    15a8:	3e01      	subs	r6, #1
/workspace/benchmark/Lenet5_in_OPTEE/ta/e_sqrt.c:168
    15aa:	ea4f 0242 	mov.w	r2, r2, lsl #1
/workspace/benchmark/Lenet5_in_OPTEE/ta/e_sqrt.c:156
    15ae:	d1de      	bne.n	156e <__ieee754_sqrt+0x9e>
/workspace/benchmark/Lenet5_in_OPTEE/ta/e_sqrt.c:173
    15b0:	431a      	orrs	r2, r3
    15b2:	d007      	beq.n	15c4 <__ieee754_sqrt+0xf4>
/workspace/benchmark/Lenet5_in_OPTEE/ta/e_sqrt.c:177
    15b4:	1c4b      	adds	r3, r1, #1
/workspace/benchmark/Lenet5_in_OPTEE/ta/e_sqrt.c:182
    15b6:	bf13      	iteet	ne
    15b8:	3101      	addne	r1, #1
/workspace/benchmark/Lenet5_in_OPTEE/ta/e_sqrt.c:177
    15ba:	f10c 0c01 	addeq.w	ip, ip, #1
    15be:	4631      	moveq	r1, r6
/workspace/benchmark/Lenet5_in_OPTEE/ta/e_sqrt.c:182
    15c0:	f021 0101 	bicne.w	r1, r1, #1
/workspace/benchmark/Lenet5_in_OPTEE/ta/e_sqrt.c:185
    15c4:	ea4f 006c 	mov.w	r0, ip, asr #1
/workspace/benchmark/Lenet5_in_OPTEE/ta/e_sqrt.c:186
    15c8:	0849      	lsrs	r1, r1, #1
/workspace/benchmark/Lenet5_in_OPTEE/ta/e_sqrt.c:185
    15ca:	f100 507f 	add.w	r0, r0, #1069547520	; 0x3fc00000
/workspace/benchmark/Lenet5_in_OPTEE/ta/e_sqrt.c:187
    15ce:	f01c 0f01 	tst.w	ip, #1
/workspace/benchmark/Lenet5_in_OPTEE/ta/e_sqrt.c:185
    15d2:	f500 1000 	add.w	r0, r0, #2097152	; 0x200000
/workspace/benchmark/Lenet5_in_OPTEE/ta/e_sqrt.c:187
    15d6:	bf18      	it	ne
    15d8:	f041 4100 	orrne.w	r1, r1, #2147483648	; 0x80000000
/workspace/benchmark/Lenet5_in_OPTEE/ta/e_sqrt.c:189
    15dc:	eb00 5305 	add.w	r3, r0, r5, lsl #20
/workspace/benchmark/Lenet5_in_OPTEE/ta/e_sqrt.c:190
    15e0:	460a      	mov	r2, r1
/workspace/benchmark/Lenet5_in_OPTEE/ta/e_sqrt.c:191
    15e2:	ec43 2b10 	vmov	d0, r2, r3
    15e6:	e782      	b.n	14ee <__ieee754_sqrt+0x1e>
/workspace/benchmark/Lenet5_in_OPTEE/ta/e_sqrt.c:122
    15e8:	0ad3      	lsrs	r3, r2, #11
/workspace/benchmark/Lenet5_in_OPTEE/ta/e_sqrt.c:121
    15ea:	3815      	subs	r0, #21
/workspace/benchmark/Lenet5_in_OPTEE/ta/e_sqrt.c:122
    15ec:	0552      	lsls	r2, r2, #21
/workspace/benchmark/Lenet5_in_OPTEE/ta/e_sqrt.c:120
    15ee:	2b00      	cmp	r3, #0
    15f0:	d0fa      	beq.n	15e8 <__ieee754_sqrt+0x118>
/workspace/benchmark/Lenet5_in_OPTEE/ta/e_sqrt.c:124 (discriminator 1)
    15f2:	02dc      	lsls	r4, r3, #11
    15f4:	d50a      	bpl.n	160c <__ieee754_sqrt+0x13c>
/workspace/benchmark/Lenet5_in_OPTEE/ta/e_sqrt.c:126
    15f6:	f1c1 0420 	rsb	r4, r1, #32
/workspace/benchmark/Lenet5_in_OPTEE/ta/e_sqrt.c:125
    15fa:	1e4d      	subs	r5, r1, #1
/workspace/benchmark/Lenet5_in_OPTEE/ta/e_sqrt.c:126
    15fc:	fa22 f404 	lsr.w	r4, r2, r4
    1600:	4323      	orrs	r3, r4
/workspace/benchmark/Lenet5_in_OPTEE/ta/e_sqrt.c:127
    1602:	408a      	lsls	r2, r1
/workspace/benchmark/Lenet5_in_OPTEE/ta/e_sqrt.c:125
    1604:	1b41      	subs	r1, r0, r5
    1606:	e782      	b.n	150e <__ieee754_sqrt+0x3e>
/workspace/benchmark/Lenet5_in_OPTEE/ta/e_sqrt.c:118
    1608:	4608      	mov	r0, r1
    160a:	e7f0      	b.n	15ee <__ieee754_sqrt+0x11e>
/workspace/benchmark/Lenet5_in_OPTEE/ta/e_sqrt.c:124 (discriminator 3)
    160c:	005b      	lsls	r3, r3, #1
    160e:	3101      	adds	r1, #1
    1610:	e7ef      	b.n	15f2 <__ieee754_sqrt+0x122>
    1612:	4677      	mov	r7, lr
    1614:	e7bb      	b.n	158e <__ieee754_sqrt+0xbe>
    1616:	bf00      	nop
    1618:	7ff00000 	.word	0x7ff00000

0000161c <append>:
append():
/mnt/disk/raspbian-tee/optee_os/lib/libutils/ext/trace.c:198
    161c:	b40e      	push	{r1, r2, r3}
/mnt/disk/raspbian-tee/optee_os/lib/libutils/ext/trace.c:203
    161e:	f8d0 3100 	ldr.w	r3, [r0, #256]	; 0x100
/mnt/disk/raspbian-tee/optee_os/lib/libutils/ext/trace.c:198
    1622:	b533      	push	{r0, r1, r4, r5, lr}
    1624:	4604      	mov	r4, r0
/mnt/disk/raspbian-tee/optee_os/lib/libutils/ext/trace.c:203
    1626:	b90b      	cbnz	r3, 162c <append+0x10>
/mnt/disk/raspbian-tee/optee_os/lib/libutils/ext/trace.c:204
    1628:	f8c4 0100 	str.w	r0, [r4, #256]	; 0x100
/mnt/disk/raspbian-tee/optee_os/lib/libutils/ext/trace.c:205
    162c:	f8d4 0100 	ldr.w	r0, [r4, #256]	; 0x100
/mnt/disk/raspbian-tee/optee_os/lib/libutils/ext/trace.c:206
    1630:	ab06      	add	r3, sp, #24
/mnt/disk/raspbian-tee/optee_os/lib/libutils/ext/trace.c:207
    1632:	9a05      	ldr	r2, [sp, #20]
/mnt/disk/raspbian-tee/optee_os/lib/libutils/ext/trace.c:205
    1634:	1b05      	subs	r5, r0, r4
/mnt/disk/raspbian-tee/optee_os/lib/libutils/ext/trace.c:206
    1636:	9301      	str	r3, [sp, #4]
/mnt/disk/raspbian-tee/optee_os/lib/libutils/ext/trace.c:205
    1638:	f5c5 7580 	rsb	r5, r5, #256	; 0x100
/mnt/disk/raspbian-tee/optee_os/lib/libutils/ext/trace.c:207
    163c:	4629      	mov	r1, r5
    163e:	f000 fce5 	bl	200c <vsnprintk>
/mnt/disk/raspbian-tee/optee_os/lib/libutils/ext/trace.c:209
    1642:	2800      	cmp	r0, #0
    1644:	db0f      	blt.n	1666 <append+0x4a>
/mnt/disk/raspbian-tee/optee_os/lib/libutils/ext/trace.c:213
    1646:	4285      	cmp	r5, r0
    1648:	dd0d      	ble.n	1666 <append+0x4a>
/mnt/disk/raspbian-tee/optee_os/lib/libutils/ext/trace.c:217
    164a:	4285      	cmp	r5, r0
    164c:	bfa8      	it	ge
    164e:	4605      	movge	r5, r0
    1650:	f8d4 0100 	ldr.w	r0, [r4, #256]	; 0x100
    1654:	4405      	add	r5, r0
/mnt/disk/raspbian-tee/optee_os/lib/libutils/ext/trace.c:218
    1656:	2001      	movs	r0, #1
/mnt/disk/raspbian-tee/optee_os/lib/libutils/ext/trace.c:217
    1658:	f8c4 5100 	str.w	r5, [r4, #256]	; 0x100
/mnt/disk/raspbian-tee/optee_os/lib/libutils/ext/trace.c:219
    165c:	b002      	add	sp, #8
    165e:	e8bd 4030 	ldmia.w	sp!, {r4, r5, lr}
    1662:	b003      	add	sp, #12
    1664:	4770      	bx	lr
/mnt/disk/raspbian-tee/optee_os/lib/libutils/ext/trace.c:211
    1666:	2000      	movs	r0, #0
    1668:	e7f8      	b.n	165c <append+0x40>

0000166a <trace_set_level>:
trace_set_level():
/mnt/disk/raspbian-tee/optee_os/lib/libutils/ext/trace.c:25
    166a:	4b05      	ldr	r3, [pc, #20]	; (1680 <trace_set_level+0x16>)
/mnt/disk/raspbian-tee/optee_os/lib/libutils/ext/trace.c:26
    166c:	2804      	cmp	r0, #4
    166e:	4a05      	ldr	r2, [pc, #20]	; (1684 <trace_set_level+0x1a>)
/mnt/disk/raspbian-tee/optee_os/lib/libutils/ext/trace.c:25
    1670:	447b      	add	r3, pc
    1672:	589b      	ldr	r3, [r3, r2]
/mnt/disk/raspbian-tee/optee_os/lib/libutils/ext/trace.c:26
    1674:	d801      	bhi.n	167a <trace_set_level+0x10>
/mnt/disk/raspbian-tee/optee_os/lib/libutils/ext/trace.c:27
    1676:	6018      	str	r0, [r3, #0]
    1678:	4770      	bx	lr
/mnt/disk/raspbian-tee/optee_os/lib/libutils/ext/trace.c:29
    167a:	2204      	movs	r2, #4
    167c:	601a      	str	r2, [r3, #0]
    167e:	4770      	bx	lr
    1680:	00009318 	.word	0x00009318
    1684:	00000014 	.word	0x00000014

00001688 <trace_get_level>:
trace_get_level():
/mnt/disk/raspbian-tee/optee_os/lib/libutils/ext/trace.c:33
    1688:	4b02      	ldr	r3, [pc, #8]	; (1694 <trace_get_level+0xc>)
/mnt/disk/raspbian-tee/optee_os/lib/libutils/ext/trace.c:34
    168a:	4a03      	ldr	r2, [pc, #12]	; (1698 <trace_get_level+0x10>)
/mnt/disk/raspbian-tee/optee_os/lib/libutils/ext/trace.c:33
    168c:	447b      	add	r3, pc
/mnt/disk/raspbian-tee/optee_os/lib/libutils/ext/trace.c:34
    168e:	589b      	ldr	r3, [r3, r2]
/mnt/disk/raspbian-tee/optee_os/lib/libutils/ext/trace.c:35
    1690:	6818      	ldr	r0, [r3, #0]
    1692:	4770      	bx	lr
    1694:	000092fc 	.word	0x000092fc
    1698:	00000014 	.word	0x00000014

0000169c <trace_printf>:
trace_printf():
/mnt/disk/raspbian-tee/optee_os/lib/libutils/ext/trace.c:97
    169c:	e92d 47f0 	stmdb	sp!, {r4, r5, r6, r7, r8, r9, sl, lr}
    16a0:	4607      	mov	r7, r0
    16a2:	f8df 910c 	ldr.w	r9, [pc, #268]	; 17b0 <trace_printf+0x114>
    16a6:	b0c6      	sub	sp, #280	; 0x118
    16a8:	4688      	mov	r8, r1
    16aa:	44f9      	add	r9, pc
    16ac:	4614      	mov	r4, r2
/mnt/disk/raspbian-tee/optee_os/lib/libutils/ext/trace.c:103
    16ae:	469a      	mov	sl, r3
    16b0:	2b00      	cmp	r3, #0
    16b2:	d06a      	beq.n	178a <trace_printf+0xee>
/mnt/disk/raspbian-tee/optee_os/lib/libutils/ext/trace.c:103 (discriminator 1)
    16b4:	4b3f      	ldr	r3, [pc, #252]	; (17b4 <trace_printf+0x118>)
    16b6:	f859 3003 	ldr.w	r3, [r9, r3]
    16ba:	681b      	ldr	r3, [r3, #0]
    16bc:	4293      	cmp	r3, r2
    16be:	db61      	blt.n	1784 <trace_printf+0xe8>
trace_level_to_string():
/mnt/disk/raspbian-tee/optee_os/lib/libutils/ext/trace.c:52
    16c0:	4613      	mov	r3, r2
    16c2:	2a04      	cmp	r2, #4
/mnt/disk/raspbian-tee/optee_os/lib/libutils/ext/trace.c:55
    16c4:	4a3c      	ldr	r2, [pc, #240]	; (17b8 <trace_printf+0x11c>)
/mnt/disk/raspbian-tee/optee_os/lib/libutils/ext/trace.c:52
    16c6:	bf88      	it	hi
    16c8:	2300      	movhi	r3, #0
/mnt/disk/raspbian-tee/optee_os/lib/libutils/ext/trace.c:55
    16ca:	447a      	add	r2, pc
    16cc:	5cd3      	ldrb	r3, [r2, r3]
trace_printf():
/mnt/disk/raspbian-tee/optee_os/lib/libutils/ext/trace.c:107
    16ce:	4a3b      	ldr	r2, [pc, #236]	; (17bc <trace_printf+0x120>)
    16d0:	ad06      	add	r5, sp, #24
    16d2:	f44f 7180 	mov.w	r1, #256	; 0x100
    16d6:	4628      	mov	r0, r5
    16d8:	447a      	add	r2, pc
    16da:	f000 fc9e 	bl	201a <snprintk>
/mnt/disk/raspbian-tee/optee_os/lib/libutils/ext/trace.c:109
    16de:	1e06      	subs	r6, r0, #0
    16e0:	db50      	blt.n	1784 <trace_printf+0xe8>
/mnt/disk/raspbian-tee/optee_os/lib/libutils/ext/trace.c:114
    16e2:	4b37      	ldr	r3, [pc, #220]	; (17c0 <trace_printf+0x124>)
    16e4:	f5c6 7180 	rsb	r1, r6, #256	; 0x100
    16e8:	4a36      	ldr	r2, [pc, #216]	; (17c4 <trace_printf+0x128>)
    16ea:	19a8      	adds	r0, r5, r6
    16ec:	447a      	add	r2, pc
    16ee:	f859 3003 	ldr.w	r3, [r9, r3]
    16f2:	9303      	str	r3, [sp, #12]
    16f4:	f000 fc91 	bl	201a <snprintk>
/mnt/disk/raspbian-tee/optee_os/lib/libutils/ext/trace.c:116
    16f8:	2800      	cmp	r0, #0
    16fa:	db43      	blt.n	1784 <trace_printf+0xe8>
/mnt/disk/raspbian-tee/optee_os/lib/libutils/ext/trace.c:118
    16fc:	4406      	add	r6, r0
/mnt/disk/raspbian-tee/optee_os/lib/libutils/ext/trace.c:120
    16fe:	f1ba 0f00 	cmp.w	sl, #0
    1702:	d04b      	beq.n	179c <trace_printf+0x100>
/mnt/disk/raspbian-tee/optee_os/lib/libutils/ext/trace.c:120 (discriminator 1)
    1704:	231a      	movs	r3, #26
    1706:	fa23 f404 	lsr.w	r4, r3, r4
    170a:	07e3      	lsls	r3, r4, #31
    170c:	d546      	bpl.n	179c <trace_printf+0x100>
print_thread_id():
/mnt/disk/raspbian-tee/optee_os/lib/libutils/ext/trace.c:65
    170e:	f000 fcb3 	bl	2078 <trace_ext_get_thread_id>
trace_printf():
/mnt/disk/raspbian-tee/optee_os/lib/libutils/ext/trace.c:122
    1712:	19ac      	adds	r4, r5, r6
    1714:	f5c6 7980 	rsb	r9, r6, #256	; 0x100
print_thread_id():
/mnt/disk/raspbian-tee/optee_os/lib/libutils/ext/trace.c:67
    1718:	2800      	cmp	r0, #0
    171a:	db38      	blt.n	178e <trace_printf+0xf2>
/mnt/disk/raspbian-tee/optee_os/lib/libutils/ext/trace.c:68
    171c:	4a2a      	ldr	r2, [pc, #168]	; (17c8 <trace_printf+0x12c>)
    171e:	2301      	movs	r3, #1
    1720:	9000      	str	r0, [sp, #0]
    1722:	447a      	add	r2, pc
/mnt/disk/raspbian-tee/optee_os/lib/libutils/ext/trace.c:70
    1724:	4649      	mov	r1, r9
    1726:	4620      	mov	r0, r4
    1728:	f000 fc77 	bl	201a <snprintk>
trace_printf():
/mnt/disk/raspbian-tee/optee_os/lib/libutils/ext/trace.c:129
    172c:	2800      	cmp	r0, #0
    172e:	db29      	blt.n	1784 <trace_printf+0xe8>
/mnt/disk/raspbian-tee/optee_os/lib/libutils/ext/trace.c:131
    1730:	1984      	adds	r4, r0, r6
/mnt/disk/raspbian-tee/optee_os/lib/libutils/ext/trace.c:133
    1732:	b167      	cbz	r7, 174e <trace_printf+0xb2>
/mnt/disk/raspbian-tee/optee_os/lib/libutils/ext/trace.c:134
    1734:	4a25      	ldr	r2, [pc, #148]	; (17cc <trace_printf+0x130>)
    1736:	463b      	mov	r3, r7
    1738:	f8cd 8000 	str.w	r8, [sp]
    173c:	f5c4 7180 	rsb	r1, r4, #256	; 0x100
    1740:	447a      	add	r2, pc
    1742:	1928      	adds	r0, r5, r4
    1744:	f000 fc69 	bl	201a <snprintk>
/mnt/disk/raspbian-tee/optee_os/lib/libutils/ext/trace.c:136
    1748:	2800      	cmp	r0, #0
    174a:	db1b      	blt.n	1784 <trace_printf+0xe8>
/mnt/disk/raspbian-tee/optee_os/lib/libutils/ext/trace.c:138
    174c:	4404      	add	r4, r0
/mnt/disk/raspbian-tee/optee_os/lib/libutils/ext/trace.c:148
    174e:	ab4f      	add	r3, sp, #316	; 0x13c
/mnt/disk/raspbian-tee/optee_os/lib/libutils/ext/trace.c:149
    1750:	f5c4 7180 	rsb	r1, r4, #256	; 0x100
    1754:	1928      	adds	r0, r5, r4
    1756:	9a4e      	ldr	r2, [sp, #312]	; 0x138
/mnt/disk/raspbian-tee/optee_os/lib/libutils/ext/trace.c:148
    1758:	9305      	str	r3, [sp, #20]
/mnt/disk/raspbian-tee/optee_os/lib/libutils/ext/trace.c:149
    175a:	f000 fc57 	bl	200c <vsnprintk>
/mnt/disk/raspbian-tee/optee_os/lib/libutils/ext/trace.c:151
    175e:	2800      	cmp	r0, #0
/mnt/disk/raspbian-tee/optee_os/lib/libutils/ext/trace.c:157
    1760:	f04f 030a 	mov.w	r3, #10
/mnt/disk/raspbian-tee/optee_os/lib/libutils/ext/trace.c:152
    1764:	bfc8      	it	gt
    1766:	1824      	addgt	r4, r4, r0
    1768:	2cfe      	cmp	r4, #254	; 0xfe
    176a:	bf28      	it	cs
    176c:	24fe      	movcs	r4, #254	; 0xfe
/mnt/disk/raspbian-tee/optee_os/lib/libutils/ext/trace.c:157
    176e:	552b      	strb	r3, [r5, r4]
/mnt/disk/raspbian-tee/optee_os/lib/libutils/ext/trace.c:158
    1770:	b114      	cbz	r4, 1778 <trace_printf+0xdc>
/mnt/disk/raspbian-tee/optee_os/lib/libutils/ext/trace.c:158 (discriminator 1)
    1772:	5d2b      	ldrb	r3, [r5, r4]
    1774:	2b0a      	cmp	r3, #10
    1776:	d019      	beq.n	17ac <trace_printf+0x110>
/mnt/disk/raspbian-tee/optee_os/lib/libutils/ext/trace.c:161
    1778:	442c      	add	r4, r5
/mnt/disk/raspbian-tee/optee_os/lib/libutils/ext/trace.c:163
    177a:	4628      	mov	r0, r5
/mnt/disk/raspbian-tee/optee_os/lib/libutils/ext/trace.c:161
    177c:	2300      	movs	r3, #0
    177e:	70a3      	strb	r3, [r4, #2]
/mnt/disk/raspbian-tee/optee_os/lib/libutils/ext/trace.c:163
    1780:	f000 fc70 	bl	2064 <trace_ext_puts>
/mnt/disk/raspbian-tee/optee_os/lib/libutils/ext/trace.c:164
    1784:	b046      	add	sp, #280	; 0x118
    1786:	e8bd 87f0 	ldmia.w	sp!, {r4, r5, r6, r7, r8, r9, sl, pc}
trace_level_to_string():
/mnt/disk/raspbian-tee/optee_os/lib/libutils/ext/trace.c:50
    178a:	234d      	movs	r3, #77	; 0x4d
    178c:	e79f      	b.n	16ce <trace_printf+0x32>
print_thread_id():
/mnt/disk/raspbian-tee/optee_os/lib/libutils/ext/trace.c:70
    178e:	4b10      	ldr	r3, [pc, #64]	; (17d0 <trace_printf+0x134>)
    1790:	4a10      	ldr	r2, [pc, #64]	; (17d4 <trace_printf+0x138>)
    1792:	447b      	add	r3, pc
    1794:	9300      	str	r3, [sp, #0]
    1796:	447a      	add	r2, pc
    1798:	2301      	movs	r3, #1
    179a:	e7c3      	b.n	1724 <trace_printf+0x88>
trace_printf():
/mnt/disk/raspbian-tee/optee_os/lib/libutils/ext/trace.c:142
    179c:	2efe      	cmp	r6, #254	; 0xfe
    179e:	d8f1      	bhi.n	1784 <trace_printf+0xe8>
/mnt/disk/raspbian-tee/optee_os/lib/libutils/ext/trace.c:144
    17a0:	1c74      	adds	r4, r6, #1
    17a2:	2320      	movs	r3, #32
    17a4:	55ab      	strb	r3, [r5, r6]
/mnt/disk/raspbian-tee/optee_os/lib/libutils/ext/trace.c:145
    17a6:	2300      	movs	r3, #0
    17a8:	552b      	strb	r3, [r5, r4]
    17aa:	e7d0      	b.n	174e <trace_printf+0xb2>
/mnt/disk/raspbian-tee/optee_os/lib/libutils/ext/trace.c:159
    17ac:	3c01      	subs	r4, #1
    17ae:	e7df      	b.n	1770 <trace_printf+0xd4>
    17b0:	000092de 	.word	0x000092de
    17b4:	00000014 	.word	0x00000014
    17b8:	00007e6a 	.word	0x00007e6a
    17bc:	00007e6b 	.word	0x00007e6b
    17c0:	0000001c 	.word	0x0000001c
    17c4:	00007e5b 	.word	0x00007e5b
    17c8:	00007e29 	.word	0x00007e29
    17cc:	00007e16 	.word	0x00007e16
    17d0:	00007bff 	.word	0x00007bff
    17d4:	00007dbb 	.word	0x00007dbb

000017d8 <dhex_dump>:
dhex_dump():
/mnt/disk/raspbian-tee/optee_os/lib/libutils/ext/trace.c:225
    17d8:	e92d 4ff0 	stmdb	sp!, {r4, r5, r6, r7, r8, r9, sl, fp, lr}
    17dc:	4690      	mov	r8, r2
    17de:	4a35      	ldr	r2, [pc, #212]	; (18b4 <dhex_dump+0xdc>)
    17e0:	468a      	mov	sl, r1
/mnt/disk/raspbian-tee/optee_os/lib/libutils/ext/trace.c:231
    17e2:	4935      	ldr	r1, [pc, #212]	; (18b8 <dhex_dump+0xe0>)
/mnt/disk/raspbian-tee/optee_os/lib/libutils/ext/trace.c:225
    17e4:	447a      	add	r2, pc
    17e6:	b0c7      	sub	sp, #284	; 0x11c
    17e8:	4681      	mov	r9, r0
/mnt/disk/raspbian-tee/optee_os/lib/libutils/ext/trace.c:231
    17ea:	5852      	ldr	r2, [r2, r1]
    17ec:	6812      	ldr	r2, [r2, #0]
    17ee:	4542      	cmp	r2, r8
    17f0:	db1d      	blt.n	182e <dhex_dump+0x56>
    17f2:	461e      	mov	r6, r3
/mnt/disk/raspbian-tee/optee_os/lib/libutils/ext/trace.c:240
    17f4:	4b31      	ldr	r3, [pc, #196]	; (18bc <dhex_dump+0xe4>)
/mnt/disk/raspbian-tee/optee_os/lib/libutils/ext/trace.c:232
    17f6:	ad05      	add	r5, sp, #20
/mnt/disk/raspbian-tee/optee_os/lib/libutils/ext/trace.c:235
    17f8:	f8df b0c4 	ldr.w	fp, [pc, #196]	; 18c0 <dhex_dump+0xe8>
/mnt/disk/raspbian-tee/optee_os/lib/libutils/ext/trace.c:240
    17fc:	447b      	add	r3, pc
    17fe:	9302      	str	r3, [sp, #8]
/mnt/disk/raspbian-tee/optee_os/lib/libutils/ext/trace.c:248
    1800:	4b30      	ldr	r3, [pc, #192]	; (18c4 <dhex_dump+0xec>)
/mnt/disk/raspbian-tee/optee_os/lib/libutils/ext/trace.c:235
    1802:	44fb      	add	fp, pc
/mnt/disk/raspbian-tee/optee_os/lib/libutils/ext/trace.c:232
    1804:	2400      	movs	r4, #0
    1806:	f8c5 4100 	str.w	r4, [r5, #256]	; 0x100
/mnt/disk/raspbian-tee/optee_os/lib/libutils/ext/trace.c:248
    180a:	447b      	add	r3, pc
    180c:	9303      	str	r3, [sp, #12]
/mnt/disk/raspbian-tee/optee_os/lib/libutils/ext/trace.c:233 (discriminator 1)
    180e:	9b50      	ldr	r3, [sp, #320]	; 0x140
    1810:	429c      	cmp	r4, r3
    1812:	db0f      	blt.n	1834 <dhex_dump+0x5c>
/mnt/disk/raspbian-tee/optee_os/lib/libutils/ext/trace.c:253
    1814:	f8d5 3100 	ldr.w	r3, [r5, #256]	; 0x100
    1818:	b14b      	cbz	r3, 182e <dhex_dump+0x56>
/mnt/disk/raspbian-tee/optee_os/lib/libutils/ext/trace.c:255
    181a:	4b2b      	ldr	r3, [pc, #172]	; (18c8 <dhex_dump+0xf0>)
    181c:	4642      	mov	r2, r8
    181e:	9501      	str	r5, [sp, #4]
    1820:	4651      	mov	r1, sl
    1822:	447b      	add	r3, pc
    1824:	4648      	mov	r0, r9
    1826:	9300      	str	r3, [sp, #0]
    1828:	2301      	movs	r3, #1
    182a:	f7ff ff37 	bl	169c <trace_printf>
/mnt/disk/raspbian-tee/optee_os/lib/libutils/ext/trace.c:263
    182e:	b047      	add	sp, #284	; 0x11c
    1830:	e8bd 8ff0 	ldmia.w	sp!, {r4, r5, r6, r7, r8, r9, sl, fp, pc}
/mnt/disk/raspbian-tee/optee_os/lib/libutils/ext/trace.c:234
    1834:	f014 070f 	ands.w	r7, r4, #15
    1838:	d013      	beq.n	1862 <dhex_dump+0x8a>
/mnt/disk/raspbian-tee/optee_os/lib/libutils/ext/trace.c:240
    183a:	f816 2b01 	ldrb.w	r2, [r6], #1
    183e:	4628      	mov	r0, r5
    1840:	9902      	ldr	r1, [sp, #8]
    1842:	f7ff feeb 	bl	161c <append>
/mnt/disk/raspbian-tee/optee_os/lib/libutils/ext/trace.c:241
    1846:	b9a8      	cbnz	r0, 1874 <dhex_dump+0x9c>
/mnt/disk/raspbian-tee/optee_os/lib/libutils/ext/trace.c:262
    1848:	4820      	ldr	r0, [pc, #128]	; (18cc <dhex_dump+0xf4>)
    184a:	2203      	movs	r2, #3
    184c:	4b20      	ldr	r3, [pc, #128]	; (18d0 <dhex_dump+0xf8>)
    184e:	f44f 7183 	mov.w	r1, #262	; 0x106
    1852:	4478      	add	r0, pc
    1854:	447b      	add	r3, pc
    1856:	3005      	adds	r0, #5
    1858:	9300      	str	r3, [sp, #0]
    185a:	2301      	movs	r3, #1
    185c:	f7ff ff1e 	bl	169c <trace_printf>
    1860:	e7e5      	b.n	182e <dhex_dump+0x56>
/mnt/disk/raspbian-tee/optee_os/lib/libutils/ext/trace.c:235
    1862:	4633      	mov	r3, r6
    1864:	2208      	movs	r2, #8
    1866:	4659      	mov	r1, fp
    1868:	4628      	mov	r0, r5
    186a:	f7ff fed7 	bl	161c <append>
/mnt/disk/raspbian-tee/optee_os/lib/libutils/ext/trace.c:237
    186e:	2800      	cmp	r0, #0
    1870:	d1e3      	bne.n	183a <dhex_dump+0x62>
    1872:	e7e9      	b.n	1848 <dhex_dump+0x70>
/mnt/disk/raspbian-tee/optee_os/lib/libutils/ext/trace.c:243
    1874:	4263      	negs	r3, r4
    1876:	f003 030f 	and.w	r3, r3, #15
    187a:	bf58      	it	pl
    187c:	425f      	negpl	r7, r3
    187e:	2f07      	cmp	r7, #7
    1880:	d108      	bne.n	1894 <dhex_dump+0xbc>
/mnt/disk/raspbian-tee/optee_os/lib/libutils/ext/trace.c:244
    1882:	4914      	ldr	r1, [pc, #80]	; (18d4 <dhex_dump+0xfc>)
    1884:	4628      	mov	r0, r5
    1886:	4479      	add	r1, pc
    1888:	f7ff fec8 	bl	161c <append>
/mnt/disk/raspbian-tee/optee_os/lib/libutils/ext/trace.c:245
    188c:	2800      	cmp	r0, #0
    188e:	d0db      	beq.n	1848 <dhex_dump+0x70>
/mnt/disk/raspbian-tee/optee_os/lib/libutils/ext/trace.c:233 (discriminator 2)
    1890:	3401      	adds	r4, #1
    1892:	e7bc      	b.n	180e <dhex_dump+0x36>
/mnt/disk/raspbian-tee/optee_os/lib/libutils/ext/trace.c:247
    1894:	2f0f      	cmp	r7, #15
    1896:	d1fb      	bne.n	1890 <dhex_dump+0xb8>
/mnt/disk/raspbian-tee/optee_os/lib/libutils/ext/trace.c:248
    1898:	9b03      	ldr	r3, [sp, #12]
    189a:	4642      	mov	r2, r8
    189c:	9300      	str	r3, [sp, #0]
    189e:	4651      	mov	r1, sl
    18a0:	2301      	movs	r3, #1
    18a2:	9501      	str	r5, [sp, #4]
    18a4:	4648      	mov	r0, r9
    18a6:	f7ff fef9 	bl	169c <trace_printf>
/mnt/disk/raspbian-tee/optee_os/lib/libutils/ext/trace.c:250
    18aa:	2300      	movs	r3, #0
    18ac:	f8c5 3100 	str.w	r3, [r5, #256]	; 0x100
    18b0:	e7ee      	b.n	1890 <dhex_dump+0xb8>
    18b2:	bf00      	nop
    18b4:	000091a4 	.word	0x000091a4
    18b8:	00000014 	.word	0x00000014
    18bc:	00007d61 	.word	0x00007d61
    18c0:	00007d61 	.word	0x00007d61
    18c4:	00007d61 	.word	0x00007d61
    18c8:	00007d49 	.word	0x00007d49
    18cc:	00007ce2 	.word	0x00007ce2
    18d0:	00007d1a 	.word	0x00007d1a
    18d4:	00007ce3 	.word	0x00007ce3

000018d8 <__vsnprintf>:
__vsnprintf():
/mnt/disk/raspbian-tee/optee_os/lib/libutils/ext/snprintk.c:137
    18d8:	e92d 4ff0 	stmdb	sp!, {r4, r5, r6, r7, r8, r9, sl, fp, lr}
/mnt/disk/raspbian-tee/optee_os/lib/libutils/ext/snprintk.c:141
    18dc:	4680      	mov	r8, r0
    18de:	461f      	mov	r7, r3
/mnt/disk/raspbian-tee/optee_os/lib/libutils/ext/snprintk.c:137
    18e0:	b09f      	sub	sp, #124	; 0x7c
kprintf():
/mnt/disk/raspbian-tee/optee_os/lib/libutils/ext/snprintk.c:269
    18e2:	2300      	movs	r3, #0
__vsnprintf():
/mnt/disk/raspbian-tee/optee_os/lib/libutils/ext/snprintk.c:137
    18e4:	920b      	str	r2, [sp, #44]	; 0x2c
    18e6:	f89d 20a0 	ldrb.w	r2, [sp, #160]	; 0xa0
    18ea:	9213      	str	r2, [sp, #76]	; 0x4c
/mnt/disk/raspbian-tee/optee_os/lib/libutils/ext/snprintk.c:141
    18ec:	4602      	mov	r2, r0
    18ee:	440a      	add	r2, r1
/mnt/disk/raspbian-tee/optee_os/lib/libutils/ext/snprintk.c:137
    18f0:	9010      	str	r0, [sp, #64]	; 0x40
    18f2:	9112      	str	r1, [sp, #72]	; 0x48
/mnt/disk/raspbian-tee/optee_os/lib/libutils/ext/snprintk.c:141
    18f4:	920e      	str	r2, [sp, #56]	; 0x38
kprintf():
/mnt/disk/raspbian-tee/optee_os/lib/libutils/ext/snprintk.c:269
    18f6:	930f      	str	r3, [sp, #60]	; 0x3c
/mnt/disk/raspbian-tee/optee_os/lib/libutils/ext/snprintk.c:267
    18f8:	930c      	str	r3, [sp, #48]	; 0x30
/mnt/disk/raspbian-tee/optee_os/lib/libutils/ext/snprintk.c:275
    18fa:	9b0b      	ldr	r3, [sp, #44]	; 0x2c
    18fc:	781b      	ldrb	r3, [r3, #0]
    18fe:	2b25      	cmp	r3, #37	; 0x25
    1900:	d024      	beq.n	194c <__vsnprintf+0x74>
    1902:	b993      	cbnz	r3, 192a <__vsnprintf+0x52>
__vsnprintf():
/mnt/disk/raspbian-tee/optee_os/lib/libutils/ext/snprintk.c:143
    1904:	9b10      	ldr	r3, [sp, #64]	; 0x40
    1906:	b163      	cbz	r3, 1922 <__vsnprintf+0x4a>
/mnt/disk/raspbian-tee/optee_os/lib/libutils/ext/snprintk.c:143 (discriminator 1)
    1908:	9b12      	ldr	r3, [sp, #72]	; 0x48
    190a:	b153      	cbz	r3, 1922 <__vsnprintf+0x4a>
/mnt/disk/raspbian-tee/optee_os/lib/libutils/ext/snprintk.c:145
    190c:	9a0c      	ldr	r2, [sp, #48]	; 0x30
    190e:	4293      	cmp	r3, r2
    1910:	f04f 0300 	mov.w	r3, #0
/mnt/disk/raspbian-tee/optee_os/lib/libutils/ext/snprintk.c:146
    1914:	9a10      	ldr	r2, [sp, #64]	; 0x40
/mnt/disk/raspbian-tee/optee_os/lib/libutils/ext/snprintk.c:145
    1916:	f200 835f 	bhi.w	1fd8 <__vsnprintf+0x700>
/mnt/disk/raspbian-tee/optee_os/lib/libutils/ext/snprintk.c:146
    191a:	9912      	ldr	r1, [sp, #72]	; 0x48
    191c:	440a      	add	r2, r1
    191e:	f802 3c01 	strb.w	r3, [r2, #-1]
/mnt/disk/raspbian-tee/optee_os/lib/libutils/ext/snprintk.c:151
    1922:	980c      	ldr	r0, [sp, #48]	; 0x30
    1924:	b01f      	add	sp, #124	; 0x7c
    1926:	e8bd 8ff0 	ldmia.w	sp!, {r4, r5, r6, r7, r8, r9, sl, fp, pc}
kprintf():
/mnt/disk/raspbian-tee/optee_os/lib/libutils/ext/snprintk.c:276
    192a:	9a0c      	ldr	r2, [sp, #48]	; 0x30
    192c:	3201      	adds	r2, #1
    192e:	920c      	str	r2, [sp, #48]	; 0x30
/mnt/disk/raspbian-tee/optee_os/lib/libutils/ext/snprintk.c:277
    1930:	f1b8 0f00 	cmp.w	r8, #0
    1934:	d006      	beq.n	1944 <__vsnprintf+0x6c>
    1936:	9a0e      	ldr	r2, [sp, #56]	; 0x38
    1938:	4542      	cmp	r2, r8
    193a:	d903      	bls.n	1944 <__vsnprintf+0x6c>
    193c:	f888 3000 	strb.w	r3, [r8]
    1940:	f108 0801 	add.w	r8, r8, #1
/mnt/disk/raspbian-tee/optee_os/lib/libutils/ext/snprintk.c:275
    1944:	9b0b      	ldr	r3, [sp, #44]	; 0x2c
    1946:	3301      	adds	r3, #1
    1948:	930b      	str	r3, [sp, #44]	; 0x2c
    194a:	e7d6      	b.n	18fa <__vsnprintf+0x22>
/mnt/disk/raspbian-tee/optee_os/lib/libutils/ext/snprintk.c:282
    194c:	9b0b      	ldr	r3, [sp, #44]	; 0x2c
/mnt/disk/raspbian-tee/optee_os/lib/libutils/ext/snprintk.c:288
    194e:	f04f 0a00 	mov.w	sl, #0
/mnt/disk/raspbian-tee/optee_os/lib/libutils/ext/snprintk.c:282
    1952:	463a      	mov	r2, r7
/mnt/disk/raspbian-tee/optee_os/lib/libutils/ext/snprintk.c:287
    1954:	f04f 3bff 	mov.w	fp, #4294967295	; 0xffffffff
/mnt/disk/raspbian-tee/optee_os/lib/libutils/ext/snprintk.c:282
    1958:	3301      	adds	r3, #1
/mnt/disk/raspbian-tee/optee_os/lib/libutils/ext/snprintk.c:284
    195a:	4656      	mov	r6, sl
/mnt/disk/raspbian-tee/optee_os/lib/libutils/ext/snprintk.c:286
    195c:	f8cd a034 	str.w	sl, [sp, #52]	; 0x34
/mnt/disk/raspbian-tee/optee_os/lib/libutils/ext/snprintk.c:290
    1960:	f893 9000 	ldrb.w	r9, [r3]
    1964:	1c59      	adds	r1, r3, #1
    1966:	910b      	str	r1, [sp, #44]	; 0x2c
/mnt/disk/raspbian-tee/optee_os/lib/libutils/ext/snprintk.c:291
    1968:	f1b9 0f63 	cmp.w	r9, #99	; 0x63
    196c:	f000 8163 	beq.w	1c36 <__vsnprintf+0x35e>
    1970:	f300 8095 	bgt.w	1a9e <__vsnprintf+0x1c6>
    1974:	f1b9 0f30 	cmp.w	r9, #48	; 0x30
    1978:	f000 8147 	beq.w	1c0a <__vsnprintf+0x332>
    197c:	dc26      	bgt.n	19cc <__vsnprintf+0xf4>
    197e:	f1b9 0f2a 	cmp.w	r9, #42	; 0x2a
    1982:	f000 8119 	beq.w	1bb8 <__vsnprintf+0x2e0>
    1986:	dc13      	bgt.n	19b0 <__vsnprintf+0xd8>
    1988:	f1b9 0f20 	cmp.w	r9, #32
    198c:	f000 810a 	beq.w	1ba4 <__vsnprintf+0x2cc>
    1990:	f1b9 0f23 	cmp.w	r9, #35	; 0x23
    1994:	f000 810d 	beq.w	1bb2 <__vsnprintf+0x2da>
/mnt/disk/raspbian-tee/optee_os/lib/libutils/ext/snprintk.c:541
    1998:	f1b9 0f00 	cmp.w	r9, #0
    199c:	d0b2      	beq.n	1904 <__vsnprintf+0x2c>
/mnt/disk/raspbian-tee/optee_os/lib/libutils/ext/snprintk.c:545
    199e:	ab1e      	add	r3, sp, #120	; 0x78
    19a0:	4617      	mov	r7, r2
/mnt/disk/raspbian-tee/optee_os/lib/libutils/ext/snprintk.c:546
    19a2:	f04f 0b01 	mov.w	fp, #1
/mnt/disk/raspbian-tee/optee_os/lib/libutils/ext/snprintk.c:545
    19a6:	f803 9d28 	strb.w	r9, [r3, #-40]!
    19aa:	e0c0      	b.n	1b2e <__vsnprintf+0x256>
/mnt/disk/raspbian-tee/optee_os/lib/libutils/ext/snprintk.c:311
    19ac:	461a      	mov	r2, r3
    19ae:	e00b      	b.n	19c8 <__vsnprintf+0xf0>
/mnt/disk/raspbian-tee/optee_os/lib/libutils/ext/snprintk.c:291
    19b0:	f1b9 0f2d 	cmp.w	r9, #45	; 0x2d
    19b4:	f000 8109 	beq.w	1bca <__vsnprintf+0x2f2>
    19b8:	f1b9 0f2e 	cmp.w	r9, #46	; 0x2e
    19bc:	f000 8108 	beq.w	1bd0 <__vsnprintf+0x2f8>
    19c0:	f1b9 0f2b 	cmp.w	r9, #43	; 0x2b
    19c4:	d1e8      	bne.n	1998 <__vsnprintf+0xc0>
/mnt/disk/raspbian-tee/optee_os/lib/libutils/ext/snprintk.c:319
    19c6:	46ca      	mov	sl, r9
/mnt/disk/raspbian-tee/optee_os/lib/libutils/ext/snprintk.c:322
    19c8:	9b0b      	ldr	r3, [sp, #44]	; 0x2c
    19ca:	e7c9      	b.n	1960 <__vsnprintf+0x88>
/mnt/disk/raspbian-tee/optee_os/lib/libutils/ext/snprintk.c:291
    19cc:	f1b9 0f44 	cmp.w	r9, #68	; 0x44
    19d0:	f000 818a 	beq.w	1ce8 <__vsnprintf+0x410>
    19d4:	dc14      	bgt.n	1a00 <__vsnprintf+0x128>
    19d6:	f1b9 0f39 	cmp.w	r9, #57	; 0x39
    19da:	dcdd      	bgt.n	1998 <__vsnprintf+0xc0>
    19dc:	2300      	movs	r3, #0
    19de:	930d      	str	r3, [sp, #52]	; 0x34
/mnt/disk/raspbian-tee/optee_os/lib/libutils/ext/snprintk.c:346
    19e0:	9b0d      	ldr	r3, [sp, #52]	; 0x34
    19e2:	f1a9 0930 	sub.w	r9, r9, #48	; 0x30
    19e6:	210a      	movs	r1, #10
    19e8:	fb01 9303 	mla	r3, r1, r3, r9
    19ec:	930d      	str	r3, [sp, #52]	; 0x34
/mnt/disk/raspbian-tee/optee_os/lib/libutils/ext/snprintk.c:347
    19ee:	9b0b      	ldr	r3, [sp, #44]	; 0x2c
    19f0:	f813 9b01 	ldrb.w	r9, [r3], #1
    19f4:	930b      	str	r3, [sp, #44]	; 0x2c
/mnt/disk/raspbian-tee/optee_os/lib/libutils/ext/snprintk.c:348
    19f6:	f1a9 0330 	sub.w	r3, r9, #48	; 0x30
    19fa:	2b09      	cmp	r3, #9
    19fc:	d9f0      	bls.n	19e0 <__vsnprintf+0x108>
    19fe:	e7b3      	b.n	1968 <__vsnprintf+0x90>
/mnt/disk/raspbian-tee/optee_os/lib/libutils/ext/snprintk.c:291
    1a00:	f1b9 0f55 	cmp.w	r9, #85	; 0x55
    1a04:	f000 823d 	beq.w	1e82 <__vsnprintf+0x5aa>
    1a08:	f1b9 0f58 	cmp.w	r9, #88	; 0x58
    1a0c:	f000 80ab 	beq.w	1b66 <__vsnprintf+0x28e>
    1a10:	f1b9 0f4f 	cmp.w	r9, #79	; 0x4f
    1a14:	d1c0      	bne.n	1998 <__vsnprintf+0xc0>
/mnt/disk/raspbian-tee/optee_os/lib/libutils/ext/snprintk.c:408
    1a16:	f046 0610 	orr.w	r6, r6, #16
/mnt/disk/raspbian-tee/optee_os/lib/libutils/ext/snprintk.c:411
    1a1a:	0635      	lsls	r5, r6, #24
    1a1c:	f140 81c0 	bpl.w	1da0 <__vsnprintf+0x4c8>
    1a20:	3207      	adds	r2, #7
    1a22:	f022 0207 	bic.w	r2, r2, #7
    1a26:	f102 0708 	add.w	r7, r2, #8
    1a2a:	e9d2 4500 	ldrd	r4, r5, [r2]
/mnt/disk/raspbian-tee/optee_os/lib/libutils/ext/snprintk.c:488
    1a2e:	f04f 0a00 	mov.w	sl, #0
    1a32:	f1bb 3fff 	cmp.w	fp, #4294967295	; 0xffffffff
    1a36:	d011      	beq.n	1a5c <__vsnprintf+0x184>
    1a38:	4653      	mov	r3, sl
/mnt/disk/raspbian-tee/optee_os/lib/libutils/ext/snprintk.c:489
    1a3a:	f426 6680 	bic.w	r6, r6, #1024	; 0x400
/mnt/disk/raspbian-tee/optee_os/lib/libutils/ext/snprintk.c:497
    1a3e:	ea54 0205 	orrs.w	r2, r4, r5
    1a42:	d105      	bne.n	1a50 <__vsnprintf+0x178>
    1a44:	f1bb 0f00 	cmp.w	fp, #0
    1a48:	f000 8269 	beq.w	1f1e <__vsnprintf+0x646>
    1a4c:	2400      	movs	r4, #0
    1a4e:	2500      	movs	r5, #0
/mnt/disk/raspbian-tee/optee_os/lib/libutils/ext/snprintk.c:503
    1a50:	2b01      	cmp	r3, #1
    1a52:	f000 8161 	beq.w	1d18 <__vsnprintf+0x440>
    1a56:	2b02      	cmp	r3, #2
    1a58:	f000 81f8 	beq.w	1e4c <__vsnprintf+0x574>
/mnt/disk/raspbian-tee/optee_os/lib/libutils/ext/snprintk.c:488
    1a5c:	f10d 0275 	add.w	r2, sp, #117	; 0x75
/mnt/disk/raspbian-tee/optee_os/lib/libutils/ext/snprintk.c:507
    1a60:	08e0      	lsrs	r0, r4, #3
    1a62:	ea4f 0cd5 	mov.w	ip, r5, lsr #3
    1a66:	ea40 7045 	orr.w	r0, r0, r5, lsl #29
/mnt/disk/raspbian-tee/optee_os/lib/libutils/ext/snprintk.c:506
    1a6a:	f004 0107 	and.w	r1, r4, #7
/mnt/disk/raspbian-tee/optee_os/lib/libutils/ext/snprintk.c:507
    1a6e:	4665      	mov	r5, ip
    1a70:	4604      	mov	r4, r0
/mnt/disk/raspbian-tee/optee_os/lib/libutils/ext/snprintk.c:506
    1a72:	3130      	adds	r1, #48	; 0x30
    1a74:	1e53      	subs	r3, r2, #1
    1a76:	f802 1c01 	strb.w	r1, [r2, #-1]
/mnt/disk/raspbian-tee/optee_os/lib/libutils/ext/snprintk.c:508
    1a7a:	ea54 0005 	orrs.w	r0, r4, r5
    1a7e:	f040 8239 	bne.w	1ef4 <__vsnprintf+0x61c>
/mnt/disk/raspbian-tee/optee_os/lib/libutils/ext/snprintk.c:510
    1a82:	07f5      	lsls	r5, r6, #31
    1a84:	d505      	bpl.n	1a92 <__vsnprintf+0x1ba>
    1a86:	2930      	cmp	r1, #48	; 0x30
    1a88:	d003      	beq.n	1a92 <__vsnprintf+0x1ba>
/mnt/disk/raspbian-tee/optee_os/lib/libutils/ext/snprintk.c:511
    1a8a:	2130      	movs	r1, #48	; 0x30
    1a8c:	f803 1c01 	strb.w	r1, [r3, #-1]
    1a90:	1e93      	subs	r3, r2, #2
/mnt/disk/raspbian-tee/optee_os/lib/libutils/ext/snprintk.c:537
    1a92:	f10d 0275 	add.w	r2, sp, #117	; 0x75
    1a96:	4658      	mov	r0, fp
    1a98:	eba2 0b03 	sub.w	fp, r2, r3
    1a9c:	e0d5      	b.n	1c4a <__vsnprintf+0x372>
/mnt/disk/raspbian-tee/optee_os/lib/libutils/ext/snprintk.c:291
    1a9e:	f1b9 0f6f 	cmp.w	r9, #111	; 0x6f
    1aa2:	d0ba      	beq.n	1a1a <__vsnprintf+0x142>
    1aa4:	dc1e      	bgt.n	1ae4 <__vsnprintf+0x20c>
    1aa6:	f1b9 0f69 	cmp.w	r9, #105	; 0x69
    1aaa:	f000 811f 	beq.w	1cec <__vsnprintf+0x414>
    1aae:	dc0a      	bgt.n	1ac6 <__vsnprintf+0x1ee>
    1ab0:	f1b9 0f64 	cmp.w	r9, #100	; 0x64
    1ab4:	f000 811a 	beq.w	1cec <__vsnprintf+0x414>
    1ab8:	f1b9 0f68 	cmp.w	r9, #104	; 0x68
    1abc:	f47f af6c 	bne.w	1998 <__vsnprintf+0xc0>
/mnt/disk/raspbian-tee/optee_os/lib/libutils/ext/snprintk.c:352
    1ac0:	f046 0640 	orr.w	r6, r6, #64	; 0x40
    1ac4:	e780      	b.n	19c8 <__vsnprintf+0xf0>
/mnt/disk/raspbian-tee/optee_os/lib/libutils/ext/snprintk.c:291
    1ac6:	f1b9 0f6c 	cmp.w	r9, #108	; 0x6c
    1aca:	f000 80a1 	beq.w	1c10 <__vsnprintf+0x338>
    1ace:	f1b9 0f6e 	cmp.w	r9, #110	; 0x6e
    1ad2:	f000 8146 	beq.w	1d62 <__vsnprintf+0x48a>
    1ad6:	f1b9 0f6a 	cmp.w	r9, #106	; 0x6a
    1ada:	f47f af5d 	bne.w	1998 <__vsnprintf+0xc0>
/mnt/disk/raspbian-tee/optee_os/lib/libutils/ext/snprintk.c:355
    1ade:	f046 0680 	orr.w	r6, r6, #128	; 0x80
    1ae2:	e771      	b.n	19c8 <__vsnprintf+0xf0>
/mnt/disk/raspbian-tee/optee_os/lib/libutils/ext/snprintk.c:291
    1ae4:	f1b9 0f74 	cmp.w	r9, #116	; 0x74
    1ae8:	f000 809f 	beq.w	1c2a <__vsnprintf+0x352>
    1aec:	dc22      	bgt.n	1b34 <__vsnprintf+0x25c>
    1aee:	f1b9 0f71 	cmp.w	r9, #113	; 0x71
    1af2:	f000 8094 	beq.w	1c1e <__vsnprintf+0x346>
    1af6:	f2c0 8167 	blt.w	1dc8 <__vsnprintf+0x4f0>
    1afa:	f1b9 0f73 	cmp.w	r9, #115	; 0x73
    1afe:	f47f af4b 	bne.w	1998 <__vsnprintf+0xc0>
/mnt/disk/raspbian-tee/optee_os/lib/libutils/ext/snprintk.c:442
    1b02:	6813      	ldr	r3, [r2, #0]
    1b04:	1d17      	adds	r7, r2, #4
    1b06:	b913      	cbnz	r3, 1b0e <__vsnprintf+0x236>
/mnt/disk/raspbian-tee/optee_os/lib/libutils/ext/snprintk.c:444
    1b08:	f8df 34ec 	ldr.w	r3, [pc, #1260]	; 1ff8 <__vsnprintf+0x720>
    1b0c:	447b      	add	r3, pc
/mnt/disk/raspbian-tee/optee_os/lib/libutils/ext/snprintk.c:445
    1b0e:	f1bb 3fff 	cmp.w	fp, #4294967295	; 0xffffffff
    1b12:	f000 81ad 	beq.w	1e70 <__vsnprintf+0x598>
/mnt/disk/raspbian-tee/optee_os/lib/libutils/ext/snprintk.c:451
    1b16:	4618      	mov	r0, r3
    1b18:	465a      	mov	r2, fp
    1b1a:	2100      	movs	r1, #0
    1b1c:	9311      	str	r3, [sp, #68]	; 0x44
    1b1e:	f007 f927 	bl	8d70 <memchr>
/mnt/disk/raspbian-tee/optee_os/lib/libutils/ext/snprintk.c:453
    1b22:	9b11      	ldr	r3, [sp, #68]	; 0x44
    1b24:	b120      	cbz	r0, 1b30 <__vsnprintf+0x258>
/mnt/disk/raspbian-tee/optee_os/lib/libutils/ext/snprintk.c:454
    1b26:	1ac0      	subs	r0, r0, r3
    1b28:	4583      	cmp	fp, r0
    1b2a:	bfa8      	it	ge
    1b2c:	4683      	movge	fp, r0
/mnt/disk/raspbian-tee/optee_os/lib/libutils/ext/snprintk.c:285
    1b2e:	2000      	movs	r0, #0
/mnt/disk/raspbian-tee/optee_os/lib/libutils/ext/snprintk.c:461
    1b30:	4682      	mov	sl, r0
    1b32:	e08a      	b.n	1c4a <__vsnprintf+0x372>
/mnt/disk/raspbian-tee/optee_os/lib/libutils/ext/snprintk.c:291
    1b34:	f1b9 0f78 	cmp.w	r9, #120	; 0x78
    1b38:	f000 81c2 	beq.w	1ec0 <__vsnprintf+0x5e8>
    1b3c:	f1b9 0f7a 	cmp.w	r9, #122	; 0x7a
    1b40:	d076      	beq.n	1c30 <__vsnprintf+0x358>
    1b42:	f1b9 0f75 	cmp.w	r9, #117	; 0x75
    1b46:	f47f af27 	bne.w	1998 <__vsnprintf+0xc0>
/mnt/disk/raspbian-tee/optee_os/lib/libutils/ext/snprintk.c:467
    1b4a:	f016 0380 	ands.w	r3, r6, #128	; 0x80
    1b4e:	f000 819b 	beq.w	1e88 <__vsnprintf+0x5b0>
    1b52:	3207      	adds	r2, #7
    1b54:	f022 0207 	bic.w	r2, r2, #7
    1b58:	f102 0708 	add.w	r7, r2, #8
    1b5c:	e9d2 4500 	ldrd	r4, r5, [r2]
/mnt/disk/raspbian-tee/optee_os/lib/libutils/ext/snprintk.c:482
    1b60:	f04f 0a00 	mov.w	sl, #0
    1b64:	e0d4      	b.n	1d10 <__vsnprintf+0x438>
/mnt/disk/raspbian-tee/optee_os/lib/libutils/ext/snprintk.c:471
    1b66:	f8df 3494 	ldr.w	r3, [pc, #1172]	; 1ffc <__vsnprintf+0x724>
    1b6a:	447b      	add	r3, pc
/mnt/disk/raspbian-tee/optee_os/lib/libutils/ext/snprintk.c:474
    1b6c:	930f      	str	r3, [sp, #60]	; 0x3c
/mnt/disk/raspbian-tee/optee_os/lib/libutils/ext/snprintk.c:475
    1b6e:	0637      	lsls	r7, r6, #24
    1b70:	f140 81aa 	bpl.w	1ec8 <__vsnprintf+0x5f0>
    1b74:	3207      	adds	r2, #7
    1b76:	f022 0207 	bic.w	r2, r2, #7
    1b7a:	f102 0708 	add.w	r7, r2, #8
    1b7e:	e9d2 4500 	ldrd	r4, r5, [r2]
/mnt/disk/raspbian-tee/optee_os/lib/libutils/ext/snprintk.c:478
    1b82:	07f3      	lsls	r3, r6, #31
    1b84:	f140 815c 	bpl.w	1e40 <__vsnprintf+0x568>
    1b88:	ea54 0305 	orrs.w	r3, r4, r5
    1b8c:	f000 822d 	beq.w	1fea <__vsnprintf+0x712>
/mnt/disk/raspbian-tee/optee_os/lib/libutils/ext/snprintk.c:479
    1b90:	f046 0602 	orr.w	r6, r6, #2
/mnt/disk/raspbian-tee/optee_os/lib/libutils/ext/snprintk.c:488
    1b94:	f1bb 3fff 	cmp.w	fp, #4294967295	; 0xffffffff
    1b98:	f000 822a 	beq.w	1ff0 <__vsnprintf+0x718>
    1b9c:	f04f 0a00 	mov.w	sl, #0
    1ba0:	2302      	movs	r3, #2
    1ba2:	e74a      	b.n	1a3a <__vsnprintf+0x162>
/mnt/disk/raspbian-tee/optee_os/lib/libutils/ext/snprintk.c:299
    1ba4:	f1ba 0f00 	cmp.w	sl, #0
    1ba8:	f04f 0320 	mov.w	r3, #32
    1bac:	bf08      	it	eq
    1bae:	469a      	moveq	sl, r3
    1bb0:	e70a      	b.n	19c8 <__vsnprintf+0xf0>
/mnt/disk/raspbian-tee/optee_os/lib/libutils/ext/snprintk.c:302
    1bb2:	f046 0601 	orr.w	r6, r6, #1
    1bb6:	e707      	b.n	19c8 <__vsnprintf+0xf0>
/mnt/disk/raspbian-tee/optee_os/lib/libutils/ext/snprintk.c:311
    1bb8:	1d13      	adds	r3, r2, #4
    1bba:	6812      	ldr	r2, [r2, #0]
    1bbc:	920d      	str	r2, [sp, #52]	; 0x34
    1bbe:	2a00      	cmp	r2, #0
    1bc0:	f6bf aef4 	bge.w	19ac <__vsnprintf+0xd4>
/mnt/disk/raspbian-tee/optee_os/lib/libutils/ext/snprintk.c:313
    1bc4:	4252      	negs	r2, r2
    1bc6:	920d      	str	r2, [sp, #52]	; 0x34
/mnt/disk/raspbian-tee/optee_os/lib/libutils/ext/snprintk.c:311
    1bc8:	461a      	mov	r2, r3
/mnt/disk/raspbian-tee/optee_os/lib/libutils/ext/snprintk.c:316
    1bca:	f046 0604 	orr.w	r6, r6, #4
    1bce:	e6fb      	b.n	19c8 <__vsnprintf+0xf0>
/mnt/disk/raspbian-tee/optee_os/lib/libutils/ext/snprintk.c:322
    1bd0:	990b      	ldr	r1, [sp, #44]	; 0x2c
    1bd2:	9b0b      	ldr	r3, [sp, #44]	; 0x2c
    1bd4:	f891 9000 	ldrb.w	r9, [r1]
    1bd8:	3301      	adds	r3, #1
    1bda:	f1b9 0f2a 	cmp.w	r9, #42	; 0x2a
    1bde:	d00e      	beq.n	1bfe <__vsnprintf+0x326>
    1be0:	f04f 0b00 	mov.w	fp, #0
/mnt/disk/raspbian-tee/optee_os/lib/libutils/ext/snprintk.c:330
    1be4:	930b      	str	r3, [sp, #44]	; 0x2c
/mnt/disk/raspbian-tee/optee_os/lib/libutils/ext/snprintk.c:328
    1be6:	f1a9 0330 	sub.w	r3, r9, #48	; 0x30
    1bea:	2b09      	cmp	r3, #9
    1bec:	f63f aebc 	bhi.w	1968 <__vsnprintf+0x90>
/mnt/disk/raspbian-tee/optee_os/lib/libutils/ext/snprintk.c:329
    1bf0:	210a      	movs	r1, #10
    1bf2:	fb01 3b0b 	mla	fp, r1, fp, r3
/mnt/disk/raspbian-tee/optee_os/lib/libutils/ext/snprintk.c:330
    1bf6:	9b0b      	ldr	r3, [sp, #44]	; 0x2c
    1bf8:	f813 9b01 	ldrb.w	r9, [r3], #1
    1bfc:	e7f2      	b.n	1be4 <__vsnprintf+0x30c>
/mnt/disk/raspbian-tee/optee_os/lib/libutils/ext/snprintk.c:324
    1bfe:	6811      	ldr	r1, [r2, #0]
/mnt/disk/raspbian-tee/optee_os/lib/libutils/ext/snprintk.c:323
    1c00:	3204      	adds	r2, #4
/mnt/disk/raspbian-tee/optee_os/lib/libutils/ext/snprintk.c:322
    1c02:	930b      	str	r3, [sp, #44]	; 0x2c
/mnt/disk/raspbian-tee/optee_os/lib/libutils/ext/snprintk.c:324
    1c04:	ea41 7be1 	orr.w	fp, r1, r1, asr #31
    1c08:	e6de      	b.n	19c8 <__vsnprintf+0xf0>
/mnt/disk/raspbian-tee/optee_os/lib/libutils/ext/snprintk.c:340
    1c0a:	f446 6680 	orr.w	r6, r6, #1024	; 0x400
    1c0e:	e6db      	b.n	19c8 <__vsnprintf+0xf0>
/mnt/disk/raspbian-tee/optee_os/lib/libutils/ext/snprintk.c:358
    1c10:	9b0b      	ldr	r3, [sp, #44]	; 0x2c
    1c12:	781b      	ldrb	r3, [r3, #0]
    1c14:	2b6c      	cmp	r3, #108	; 0x6c
    1c16:	d105      	bne.n	1c24 <__vsnprintf+0x34c>
/mnt/disk/raspbian-tee/optee_os/lib/libutils/ext/snprintk.c:359
    1c18:	9b0b      	ldr	r3, [sp, #44]	; 0x2c
    1c1a:	3301      	adds	r3, #1
    1c1c:	930b      	str	r3, [sp, #44]	; 0x2c
/mnt/disk/raspbian-tee/optee_os/lib/libutils/ext/snprintk.c:366
    1c1e:	f046 0620 	orr.w	r6, r6, #32
    1c22:	e6d1      	b.n	19c8 <__vsnprintf+0xf0>
/mnt/disk/raspbian-tee/optee_os/lib/libutils/ext/snprintk.c:362
    1c24:	f046 0610 	orr.w	r6, r6, #16
    1c28:	e6ce      	b.n	19c8 <__vsnprintf+0xf0>
/mnt/disk/raspbian-tee/optee_os/lib/libutils/ext/snprintk.c:369
    1c2a:	f446 7680 	orr.w	r6, r6, #256	; 0x100
    1c2e:	e6cb      	b.n	19c8 <__vsnprintf+0xf0>
/mnt/disk/raspbian-tee/optee_os/lib/libutils/ext/snprintk.c:372
    1c30:	f446 7600 	orr.w	r6, r6, #512	; 0x200
    1c34:	e6c8      	b.n	19c8 <__vsnprintf+0xf0>
/mnt/disk/raspbian-tee/optee_os/lib/libutils/ext/snprintk.c:375
    1c36:	ab1e      	add	r3, sp, #120	; 0x78
/mnt/disk/raspbian-tee/optee_os/lib/libutils/ext/snprintk.c:285
    1c38:	f04f 0a00 	mov.w	sl, #0
/mnt/disk/raspbian-tee/optee_os/lib/libutils/ext/snprintk.c:375
    1c3c:	1d17      	adds	r7, r2, #4
/mnt/disk/raspbian-tee/optee_os/lib/libutils/ext/snprintk.c:376
    1c3e:	f04f 0b01 	mov.w	fp, #1
/mnt/disk/raspbian-tee/optee_os/lib/libutils/ext/snprintk.c:375
    1c42:	6812      	ldr	r2, [r2, #0]
/mnt/disk/raspbian-tee/optee_os/lib/libutils/ext/snprintk.c:377
    1c44:	4650      	mov	r0, sl
/mnt/disk/raspbian-tee/optee_os/lib/libutils/ext/snprintk.c:375
    1c46:	f803 2d28 	strb.w	r2, [r3, #-40]!
/mnt/disk/raspbian-tee/optee_os/lib/libutils/ext/snprintk.c:565
    1c4a:	4558      	cmp	r0, fp
    1c4c:	4602      	mov	r2, r0
    1c4e:	bfb8      	it	lt
    1c50:	465a      	movlt	r2, fp
/mnt/disk/raspbian-tee/optee_os/lib/libutils/ext/snprintk.c:566
    1c52:	f1ba 0f00 	cmp.w	sl, #0
    1c56:	f000 8165 	beq.w	1f24 <__vsnprintf+0x64c>
/mnt/disk/raspbian-tee/optee_os/lib/libutils/ext/snprintk.c:567
    1c5a:	3201      	adds	r2, #1
/mnt/disk/raspbian-tee/optee_os/lib/libutils/ext/snprintk.c:572
    1c5c:	990d      	ldr	r1, [sp, #52]	; 0x34
    1c5e:	9c0c      	ldr	r4, [sp, #48]	; 0x30
    1c60:	4291      	cmp	r1, r2
    1c62:	bfb8      	it	lt
    1c64:	4611      	movlt	r1, r2
    1c66:	440c      	add	r4, r1
/mnt/disk/raspbian-tee/optee_os/lib/libutils/ext/snprintk.c:575
    1c68:	f240 4104 	movw	r1, #1028	; 0x404
/mnt/disk/raspbian-tee/optee_os/lib/libutils/ext/snprintk.c:572
    1c6c:	940c      	str	r4, [sp, #48]	; 0x30
/mnt/disk/raspbian-tee/optee_os/lib/libutils/ext/snprintk.c:575
    1c6e:	ea16 0401 	ands.w	r4, r6, r1
    1c72:	d106      	bne.n	1c82 <__vsnprintf+0x3aa>
/mnt/disk/raspbian-tee/optee_os/lib/libutils/ext/snprintk.c:576
    1c74:	990d      	ldr	r1, [sp, #52]	; 0x34
/mnt/disk/raspbian-tee/optee_os/lib/libutils/ext/snprintk.c:578
    1c76:	f04f 0c20 	mov.w	ip, #32
/mnt/disk/raspbian-tee/optee_os/lib/libutils/ext/snprintk.c:576
    1c7a:	1a89      	subs	r1, r1, r2
/mnt/disk/raspbian-tee/optee_os/lib/libutils/ext/snprintk.c:577
    1c7c:	2900      	cmp	r1, #0
    1c7e:	f300 8155 	bgt.w	1f2c <__vsnprintf+0x654>
/mnt/disk/raspbian-tee/optee_os/lib/libutils/ext/snprintk.c:582
    1c82:	f1ba 0f00 	cmp.w	sl, #0
    1c86:	f000 8166 	beq.w	1f56 <__vsnprintf+0x67e>
/mnt/disk/raspbian-tee/optee_os/lib/libutils/ext/snprintk.c:583
    1c8a:	f1b8 0f00 	cmp.w	r8, #0
    1c8e:	f040 8159 	bne.w	1f44 <__vsnprintf+0x66c>
/mnt/disk/raspbian-tee/optee_os/lib/libutils/ext/snprintk.c:586
    1c92:	f04f 0800 	mov.w	r8, #0
/mnt/disk/raspbian-tee/optee_os/lib/libutils/ext/snprintk.c:590
    1c96:	f5b4 6f80 	cmp.w	r4, #1024	; 0x400
    1c9a:	d105      	bne.n	1ca8 <__vsnprintf+0x3d0>
/mnt/disk/raspbian-tee/optee_os/lib/libutils/ext/snprintk.c:591
    1c9c:	990d      	ldr	r1, [sp, #52]	; 0x34
/mnt/disk/raspbian-tee/optee_os/lib/libutils/ext/snprintk.c:593
    1c9e:	2430      	movs	r4, #48	; 0x30
/mnt/disk/raspbian-tee/optee_os/lib/libutils/ext/snprintk.c:591
    1ca0:	1a89      	subs	r1, r1, r2
/mnt/disk/raspbian-tee/optee_os/lib/libutils/ext/snprintk.c:592
    1ca2:	2900      	cmp	r1, #0
    1ca4:	f300 8173 	bgt.w	1f8e <__vsnprintf+0x6b6>
/mnt/disk/raspbian-tee/optee_os/lib/libutils/ext/snprintk.c:597
    1ca8:	eba0 000b 	sub.w	r0, r0, fp
/mnt/disk/raspbian-tee/optee_os/lib/libutils/ext/snprintk.c:599
    1cac:	2130      	movs	r1, #48	; 0x30
/mnt/disk/raspbian-tee/optee_os/lib/libutils/ext/snprintk.c:598
    1cae:	2800      	cmp	r0, #0
    1cb0:	f300 8179 	bgt.w	1fa6 <__vsnprintf+0x6ce>
    1cb4:	eb03 010b 	add.w	r1, r3, fp
/mnt/disk/raspbian-tee/optee_os/lib/libutils/ext/snprintk.c:602
    1cb8:	428b      	cmp	r3, r1
    1cba:	f040 8180 	bne.w	1fbe <__vsnprintf+0x6e6>
/mnt/disk/raspbian-tee/optee_os/lib/libutils/ext/snprintk.c:605
    1cbe:	0773      	lsls	r3, r6, #29
    1cc0:	f57f ae1b 	bpl.w	18fa <__vsnprintf+0x22>
/mnt/disk/raspbian-tee/optee_os/lib/libutils/ext/snprintk.c:606
    1cc4:	9b0d      	ldr	r3, [sp, #52]	; 0x34
    1cc6:	1a9b      	subs	r3, r3, r2
/mnt/disk/raspbian-tee/optee_os/lib/libutils/ext/snprintk.c:608
    1cc8:	2220      	movs	r2, #32
/mnt/disk/raspbian-tee/optee_os/lib/libutils/ext/snprintk.c:607
    1cca:	2b00      	cmp	r3, #0
    1ccc:	f77f ae15 	ble.w	18fa <__vsnprintf+0x22>
/mnt/disk/raspbian-tee/optee_os/lib/libutils/ext/snprintk.c:608
    1cd0:	f1b8 0f00 	cmp.w	r8, #0
    1cd4:	d006      	beq.n	1ce4 <__vsnprintf+0x40c>
    1cd6:	990e      	ldr	r1, [sp, #56]	; 0x38
    1cd8:	4541      	cmp	r1, r8
    1cda:	d903      	bls.n	1ce4 <__vsnprintf+0x40c>
    1cdc:	f888 2000 	strb.w	r2, [r8]
    1ce0:	f108 0801 	add.w	r8, r8, #1
    1ce4:	3b01      	subs	r3, #1
    1ce6:	e7f0      	b.n	1cca <__vsnprintf+0x3f2>
/mnt/disk/raspbian-tee/optee_os/lib/libutils/ext/snprintk.c:380
    1ce8:	f046 0610 	orr.w	r6, r6, #16
/mnt/disk/raspbian-tee/optee_os/lib/libutils/ext/snprintk.c:384
    1cec:	0631      	lsls	r1, r6, #24
    1cee:	d523      	bpl.n	1d38 <__vsnprintf+0x460>
    1cf0:	3207      	adds	r2, #7
    1cf2:	f022 0207 	bic.w	r2, r2, #7
    1cf6:	f102 0708 	add.w	r7, r2, #8
    1cfa:	e9d2 4500 	ldrd	r4, r5, [r2]
/mnt/disk/raspbian-tee/optee_os/lib/libutils/ext/snprintk.c:385
    1cfe:	2c00      	cmp	r4, #0
    1d00:	f175 0300 	sbcs.w	r3, r5, #0
    1d04:	da04      	bge.n	1d10 <__vsnprintf+0x438>
/mnt/disk/raspbian-tee/optee_os/lib/libutils/ext/snprintk.c:386
    1d06:	4264      	negs	r4, r4
/mnt/disk/raspbian-tee/optee_os/lib/libutils/ext/snprintk.c:387
    1d08:	f04f 0a2d 	mov.w	sl, #45	; 0x2d
/mnt/disk/raspbian-tee/optee_os/lib/libutils/ext/snprintk.c:386
    1d0c:	eb65 0545 	sbc.w	r5, r5, r5, lsl #1
/mnt/disk/raspbian-tee/optee_os/lib/libutils/ext/snprintk.c:488
    1d10:	f1bb 3fff 	cmp.w	fp, #4294967295	; 0xffffffff
    1d14:	f040 80ec 	bne.w	1ef0 <__vsnprintf+0x618>
/mnt/disk/raspbian-tee/optee_os/lib/libutils/ext/snprintk.c:508
    1d18:	f10d 0375 	add.w	r3, sp, #117	; 0x75
    1d1c:	9311      	str	r3, [sp, #68]	; 0x44
    1d1e:	9b11      	ldr	r3, [sp, #68]	; 0x44
/mnt/disk/raspbian-tee/optee_os/lib/libutils/ext/snprintk.c:516
    1d20:	2d00      	cmp	r5, #0
    1d22:	bf08      	it	eq
    1d24:	2c0a      	cmpeq	r4, #10
    1d26:	f103 33ff 	add.w	r3, r3, #4294967295	; 0xffffffff
    1d2a:	f080 80e5 	bcs.w	1ef8 <__vsnprintf+0x620>
/mnt/disk/raspbian-tee/optee_os/lib/libutils/ext/snprintk.c:520
    1d2e:	9a11      	ldr	r2, [sp, #68]	; 0x44
    1d30:	3430      	adds	r4, #48	; 0x30
    1d32:	f802 4c01 	strb.w	r4, [r2, #-1]
    1d36:	e6ac      	b.n	1a92 <__vsnprintf+0x1ba>
/mnt/disk/raspbian-tee/optee_os/lib/libutils/ext/snprintk.c:384
    1d38:	05f3      	lsls	r3, r6, #23
    1d3a:	d503      	bpl.n	1d44 <__vsnprintf+0x46c>
    1d3c:	1d17      	adds	r7, r2, #4
    1d3e:	6814      	ldr	r4, [r2, #0]
    1d40:	17e5      	asrs	r5, r4, #31
    1d42:	e7dc      	b.n	1cfe <__vsnprintf+0x426>
    1d44:	05b7      	lsls	r7, r6, #22
    1d46:	d4f9      	bmi.n	1d3c <__vsnprintf+0x464>
    1d48:	06b5      	lsls	r5, r6, #26
    1d4a:	d4d1      	bmi.n	1cf0 <__vsnprintf+0x418>
    1d4c:	f016 0f10 	tst.w	r6, #16
    1d50:	f102 0704 	add.w	r7, r2, #4
    1d54:	d1f3      	bne.n	1d3e <__vsnprintf+0x466>
    1d56:	f016 0f40 	tst.w	r6, #64	; 0x40
    1d5a:	6814      	ldr	r4, [r2, #0]
    1d5c:	d0f0      	beq.n	1d40 <__vsnprintf+0x468>
    1d5e:	b224      	sxth	r4, r4
    1d60:	e7ee      	b.n	1d40 <__vsnprintf+0x468>
/mnt/disk/raspbian-tee/optee_os/lib/libutils/ext/snprintk.c:392
    1d62:	f016 0f80 	tst.w	r6, #128	; 0x80
    1d66:	f102 0704 	add.w	r7, r2, #4
    1d6a:	d006      	beq.n	1d7a <__vsnprintf+0x4a2>
/mnt/disk/raspbian-tee/optee_os/lib/libutils/ext/snprintk.c:399
    1d6c:	6813      	ldr	r3, [r2, #0]
    1d6e:	9a0c      	ldr	r2, [sp, #48]	; 0x30
    1d70:	4610      	mov	r0, r2
    1d72:	17d1      	asrs	r1, r2, #31
    1d74:	e9c3 0100 	strd	r0, r1, [r3]
    1d78:	e5bf      	b.n	18fa <__vsnprintf+0x22>
/mnt/disk/raspbian-tee/optee_os/lib/libutils/ext/snprintk.c:394
    1d7a:	05f4      	lsls	r4, r6, #23
    1d7c:	d503      	bpl.n	1d86 <__vsnprintf+0x4ae>
/mnt/disk/raspbian-tee/optee_os/lib/libutils/ext/snprintk.c:405
    1d7e:	6813      	ldr	r3, [r2, #0]
    1d80:	9a0c      	ldr	r2, [sp, #48]	; 0x30
    1d82:	601a      	str	r2, [r3, #0]
    1d84:	e5b9      	b.n	18fa <__vsnprintf+0x22>
/mnt/disk/raspbian-tee/optee_os/lib/libutils/ext/snprintk.c:396
    1d86:	05b0      	lsls	r0, r6, #22
    1d88:	d4f9      	bmi.n	1d7e <__vsnprintf+0x4a6>
/mnt/disk/raspbian-tee/optee_os/lib/libutils/ext/snprintk.c:398
    1d8a:	06b1      	lsls	r1, r6, #26
    1d8c:	d4ee      	bmi.n	1d6c <__vsnprintf+0x494>
/mnt/disk/raspbian-tee/optee_os/lib/libutils/ext/snprintk.c:400
    1d8e:	06f3      	lsls	r3, r6, #27
    1d90:	d4f5      	bmi.n	1d7e <__vsnprintf+0x4a6>
/mnt/disk/raspbian-tee/optee_os/lib/libutils/ext/snprintk.c:402
    1d92:	0676      	lsls	r6, r6, #25
    1d94:	d5f3      	bpl.n	1d7e <__vsnprintf+0x4a6>
/mnt/disk/raspbian-tee/optee_os/lib/libutils/ext/snprintk.c:403
    1d96:	6813      	ldr	r3, [r2, #0]
    1d98:	f8bd 2030 	ldrh.w	r2, [sp, #48]	; 0x30
    1d9c:	801a      	strh	r2, [r3, #0]
    1d9e:	e5ac      	b.n	18fa <__vsnprintf+0x22>
/mnt/disk/raspbian-tee/optee_os/lib/libutils/ext/snprintk.c:411
    1da0:	05f4      	lsls	r4, r6, #23
    1da2:	d502      	bpl.n	1daa <__vsnprintf+0x4d2>
    1da4:	1d17      	adds	r7, r2, #4
    1da6:	6814      	ldr	r4, [r2, #0]
    1da8:	e00c      	b.n	1dc4 <__vsnprintf+0x4ec>
    1daa:	05b0      	lsls	r0, r6, #22
    1dac:	d4fa      	bmi.n	1da4 <__vsnprintf+0x4cc>
    1dae:	06b1      	lsls	r1, r6, #26
    1db0:	f53f ae36 	bmi.w	1a20 <__vsnprintf+0x148>
    1db4:	f016 0f10 	tst.w	r6, #16
    1db8:	f102 0704 	add.w	r7, r2, #4
    1dbc:	d1f3      	bne.n	1da6 <__vsnprintf+0x4ce>
    1dbe:	0673      	lsls	r3, r6, #25
    1dc0:	d5f1      	bpl.n	1da6 <__vsnprintf+0x4ce>
    1dc2:	8814      	ldrh	r4, [r2, #0]
    1dc4:	2500      	movs	r5, #0
    1dc6:	e632      	b.n	1a2e <__vsnprintf+0x156>
/mnt/disk/raspbian-tee/optee_os/lib/libutils/ext/snprintk.c:415
    1dc8:	9b13      	ldr	r3, [sp, #76]	; 0x4c
    1dca:	2b00      	cmp	r3, #0
    1dcc:	d02d      	beq.n	1e2a <__vsnprintf+0x552>
    1dce:	9b0b      	ldr	r3, [sp, #44]	; 0x2c
    1dd0:	781b      	ldrb	r3, [r3, #0]
    1dd2:	2b55      	cmp	r3, #85	; 0x55
    1dd4:	d129      	bne.n	1e2a <__vsnprintf+0x552>
    1dd6:	9b0b      	ldr	r3, [sp, #44]	; 0x2c
    1dd8:	785b      	ldrb	r3, [r3, #1]
    1dda:	2b6c      	cmp	r3, #108	; 0x6c
    1ddc:	d125      	bne.n	1e2a <__vsnprintf+0x552>
/mnt/disk/raspbian-tee/optee_os/lib/libutils/ext/snprintk.c:420
    1dde:	9b0b      	ldr	r3, [sp, #44]	; 0x2c
/mnt/disk/raspbian-tee/optee_os/lib/libutils/ext/snprintk.c:421
    1de0:	1d17      	adds	r7, r2, #4
uuid2str():
/mnt/disk/raspbian-tee/optee_os/lib/libutils/ext/snprintk.c:223
    1de2:	ac14      	add	r4, sp, #80	; 0x50
    1de4:	2125      	movs	r1, #37	; 0x25
kprintf():
/mnt/disk/raspbian-tee/optee_os/lib/libutils/ext/snprintk.c:420
    1de6:	3302      	adds	r3, #2
    1de8:	930b      	str	r3, [sp, #44]	; 0x2c
/mnt/disk/raspbian-tee/optee_os/lib/libutils/ext/snprintk.c:421
    1dea:	6813      	ldr	r3, [r2, #0]
uuid2str():
/mnt/disk/raspbian-tee/optee_os/lib/libutils/ext/snprintk.c:223
    1dec:	4620      	mov	r0, r4
    1dee:	7bda      	ldrb	r2, [r3, #15]
    1df0:	9209      	str	r2, [sp, #36]	; 0x24
    1df2:	7b9a      	ldrb	r2, [r3, #14]
    1df4:	9208      	str	r2, [sp, #32]
    1df6:	7b5a      	ldrb	r2, [r3, #13]
    1df8:	9207      	str	r2, [sp, #28]
    1dfa:	7b1a      	ldrb	r2, [r3, #12]
    1dfc:	9206      	str	r2, [sp, #24]
    1dfe:	7ada      	ldrb	r2, [r3, #11]
    1e00:	9205      	str	r2, [sp, #20]
    1e02:	7a9a      	ldrb	r2, [r3, #10]
    1e04:	9204      	str	r2, [sp, #16]
    1e06:	7a5a      	ldrb	r2, [r3, #9]
    1e08:	9203      	str	r2, [sp, #12]
    1e0a:	7a1a      	ldrb	r2, [r3, #8]
    1e0c:	9202      	str	r2, [sp, #8]
    1e0e:	88da      	ldrh	r2, [r3, #6]
    1e10:	9201      	str	r2, [sp, #4]
    1e12:	889a      	ldrh	r2, [r3, #4]
    1e14:	9200      	str	r2, [sp, #0]
    1e16:	4a7a      	ldr	r2, [pc, #488]	; (2000 <__vsnprintf+0x728>)
    1e18:	681b      	ldr	r3, [r3, #0]
    1e1a:	447a      	add	r2, pc
    1e1c:	f000 f8fd 	bl	201a <snprintk>
    1e20:	4683      	mov	fp, r0
kprintf():
/mnt/disk/raspbian-tee/optee_os/lib/libutils/ext/snprintk.c:285
    1e22:	2000      	movs	r0, #0
/mnt/disk/raspbian-tee/optee_os/lib/libutils/ext/snprintk.c:423
    1e24:	4623      	mov	r3, r4
/mnt/disk/raspbian-tee/optee_os/lib/libutils/ext/snprintk.c:424
    1e26:	4682      	mov	sl, r0
    1e28:	e70f      	b.n	1c4a <__vsnprintf+0x372>
/mnt/disk/raspbian-tee/optee_os/lib/libutils/ext/snprintk.c:437
    1e2a:	4b76      	ldr	r3, [pc, #472]	; (2004 <__vsnprintf+0x72c>)
/mnt/disk/raspbian-tee/optee_os/lib/libutils/ext/snprintk.c:435
    1e2c:	1d17      	adds	r7, r2, #4
    1e2e:	6814      	ldr	r4, [r2, #0]
    1e30:	2500      	movs	r5, #0
/mnt/disk/raspbian-tee/optee_os/lib/libutils/ext/snprintk.c:437
    1e32:	447b      	add	r3, pc
/mnt/disk/raspbian-tee/optee_os/lib/libutils/ext/snprintk.c:438
    1e34:	f046 0602 	orr.w	r6, r6, #2
/mnt/disk/raspbian-tee/optee_os/lib/libutils/ext/snprintk.c:439
    1e38:	f04f 0978 	mov.w	r9, #120	; 0x78
/mnt/disk/raspbian-tee/optee_os/lib/libutils/ext/snprintk.c:437
    1e3c:	3311      	adds	r3, #17
    1e3e:	930f      	str	r3, [sp, #60]	; 0x3c
/mnt/disk/raspbian-tee/optee_os/lib/libutils/ext/snprintk.c:488
    1e40:	f1bb 3fff 	cmp.w	fp, #4294967295	; 0xffffffff
    1e44:	f47f aeaa 	bne.w	1b9c <__vsnprintf+0x2c4>
    1e48:	f04f 0a00 	mov.w	sl, #0
    1e4c:	f10d 0375 	add.w	r3, sp, #117	; 0x75
/mnt/disk/raspbian-tee/optee_os/lib/libutils/ext/snprintk.c:525
    1e50:	f004 020f 	and.w	r2, r4, #15
    1e54:	990f      	ldr	r1, [sp, #60]	; 0x3c
    1e56:	5c8a      	ldrb	r2, [r1, r2]
/mnt/disk/raspbian-tee/optee_os/lib/libutils/ext/snprintk.c:526
    1e58:	0929      	lsrs	r1, r5, #4
/mnt/disk/raspbian-tee/optee_os/lib/libutils/ext/snprintk.c:525
    1e5a:	f803 2d01 	strb.w	r2, [r3, #-1]!
/mnt/disk/raspbian-tee/optee_os/lib/libutils/ext/snprintk.c:526
    1e5e:	0922      	lsrs	r2, r4, #4
    1e60:	ea42 7205 	orr.w	r2, r2, r5, lsl #28
    1e64:	460d      	mov	r5, r1
    1e66:	4614      	mov	r4, r2
/mnt/disk/raspbian-tee/optee_os/lib/libutils/ext/snprintk.c:527
    1e68:	ea54 0205 	orrs.w	r2, r4, r5
    1e6c:	d1f0      	bne.n	1e50 <__vsnprintf+0x578>
    1e6e:	e610      	b.n	1a92 <__vsnprintf+0x1ba>
/mnt/disk/raspbian-tee/optee_os/lib/libutils/ext/snprintk.c:460
    1e70:	4618      	mov	r0, r3
    1e72:	9311      	str	r3, [sp, #68]	; 0x44
    1e74:	f006 ff8a 	bl	8d8c <strlen>
    1e78:	4683      	mov	fp, r0
/mnt/disk/raspbian-tee/optee_os/lib/libutils/ext/snprintk.c:285
    1e7a:	2000      	movs	r0, #0
    1e7c:	9b11      	ldr	r3, [sp, #68]	; 0x44
/mnt/disk/raspbian-tee/optee_os/lib/libutils/ext/snprintk.c:461
    1e7e:	4682      	mov	sl, r0
    1e80:	e6e3      	b.n	1c4a <__vsnprintf+0x372>
/mnt/disk/raspbian-tee/optee_os/lib/libutils/ext/snprintk.c:464
    1e82:	f046 0610 	orr.w	r6, r6, #16
    1e86:	e660      	b.n	1b4a <__vsnprintf+0x272>
/mnt/disk/raspbian-tee/optee_os/lib/libutils/ext/snprintk.c:467
    1e88:	f416 7a80 	ands.w	sl, r6, #256	; 0x100
    1e8c:	d003      	beq.n	1e96 <__vsnprintf+0x5be>
    1e8e:	6814      	ldr	r4, [r2, #0]
    1e90:	1d17      	adds	r7, r2, #4
    1e92:	2500      	movs	r5, #0
    1e94:	e664      	b.n	1b60 <__vsnprintf+0x288>
    1e96:	f416 7300 	ands.w	r3, r6, #512	; 0x200
    1e9a:	d003      	beq.n	1ea4 <__vsnprintf+0x5cc>
    1e9c:	1d17      	adds	r7, r2, #4
    1e9e:	6814      	ldr	r4, [r2, #0]
    1ea0:	2500      	movs	r5, #0
    1ea2:	e735      	b.n	1d10 <__vsnprintf+0x438>
    1ea4:	f016 0a20 	ands.w	sl, r6, #32
    1ea8:	f47f ae53 	bne.w	1b52 <__vsnprintf+0x27a>
    1eac:	f016 0310 	ands.w	r3, r6, #16
    1eb0:	f102 0704 	add.w	r7, r2, #4
    1eb4:	d1f3      	bne.n	1e9e <__vsnprintf+0x5c6>
    1eb6:	f016 0a40 	ands.w	sl, r6, #64	; 0x40
    1eba:	d0f0      	beq.n	1e9e <__vsnprintf+0x5c6>
    1ebc:	8814      	ldrh	r4, [r2, #0]
    1ebe:	e7e8      	b.n	1e92 <__vsnprintf+0x5ba>
/mnt/disk/raspbian-tee/optee_os/lib/libutils/ext/snprintk.c:474
    1ec0:	4b51      	ldr	r3, [pc, #324]	; (2008 <__vsnprintf+0x730>)
    1ec2:	447b      	add	r3, pc
    1ec4:	3311      	adds	r3, #17
    1ec6:	e651      	b.n	1b6c <__vsnprintf+0x294>
/mnt/disk/raspbian-tee/optee_os/lib/libutils/ext/snprintk.c:475
    1ec8:	05f5      	lsls	r5, r6, #23
    1eca:	d502      	bpl.n	1ed2 <__vsnprintf+0x5fa>
    1ecc:	1d17      	adds	r7, r2, #4
    1ece:	6814      	ldr	r4, [r2, #0]
    1ed0:	e00c      	b.n	1eec <__vsnprintf+0x614>
    1ed2:	05b4      	lsls	r4, r6, #22
    1ed4:	d4fa      	bmi.n	1ecc <__vsnprintf+0x5f4>
    1ed6:	06b0      	lsls	r0, r6, #26
    1ed8:	f53f ae4c 	bmi.w	1b74 <__vsnprintf+0x29c>
    1edc:	f016 0f10 	tst.w	r6, #16
    1ee0:	f102 0704 	add.w	r7, r2, #4
    1ee4:	d1f3      	bne.n	1ece <__vsnprintf+0x5f6>
    1ee6:	0671      	lsls	r1, r6, #25
    1ee8:	d5f1      	bpl.n	1ece <__vsnprintf+0x5f6>
    1eea:	8814      	ldrh	r4, [r2, #0]
    1eec:	2500      	movs	r5, #0
    1eee:	e648      	b.n	1b82 <__vsnprintf+0x2aa>
/mnt/disk/raspbian-tee/optee_os/lib/libutils/ext/snprintk.c:488
    1ef0:	2301      	movs	r3, #1
    1ef2:	e5a2      	b.n	1a3a <__vsnprintf+0x162>
/mnt/disk/raspbian-tee/optee_os/lib/libutils/ext/snprintk.c:508
    1ef4:	461a      	mov	r2, r3
    1ef6:	e5b3      	b.n	1a60 <__vsnprintf+0x188>
/mnt/disk/raspbian-tee/optee_os/lib/libutils/ext/snprintk.c:517
    1ef8:	9311      	str	r3, [sp, #68]	; 0x44
    1efa:	4620      	mov	r0, r4
    1efc:	4629      	mov	r1, r5
    1efe:	220a      	movs	r2, #10
    1f00:	2300      	movs	r3, #0
    1f02:	f000 e8a4 	blx	204c <__aeabi_uldivmod>
    1f06:	9b11      	ldr	r3, [sp, #68]	; 0x44
    1f08:	3230      	adds	r2, #48	; 0x30
/mnt/disk/raspbian-tee/optee_os/lib/libutils/ext/snprintk.c:518
    1f0a:	4620      	mov	r0, r4
    1f0c:	4629      	mov	r1, r5
/mnt/disk/raspbian-tee/optee_os/lib/libutils/ext/snprintk.c:517
    1f0e:	701a      	strb	r2, [r3, #0]
/mnt/disk/raspbian-tee/optee_os/lib/libutils/ext/snprintk.c:518
    1f10:	220a      	movs	r2, #10
    1f12:	2300      	movs	r3, #0
    1f14:	f000 e89a 	blx	204c <__aeabi_uldivmod>
    1f18:	4604      	mov	r4, r0
    1f1a:	460d      	mov	r5, r1
    1f1c:	e6ff      	b.n	1d1e <__vsnprintf+0x446>
/mnt/disk/raspbian-tee/optee_os/lib/libutils/ext/snprintk.c:496
    1f1e:	f10d 0375 	add.w	r3, sp, #117	; 0x75
    1f22:	e5b6      	b.n	1a92 <__vsnprintf+0x1ba>
/mnt/disk/raspbian-tee/optee_os/lib/libutils/ext/snprintk.c:568
    1f24:	07b4      	lsls	r4, r6, #30
/mnt/disk/raspbian-tee/optee_os/lib/libutils/ext/snprintk.c:569
    1f26:	bf48      	it	mi
    1f28:	3202      	addmi	r2, #2
    1f2a:	e697      	b.n	1c5c <__vsnprintf+0x384>
/mnt/disk/raspbian-tee/optee_os/lib/libutils/ext/snprintk.c:578
    1f2c:	f1b8 0f00 	cmp.w	r8, #0
    1f30:	d006      	beq.n	1f40 <__vsnprintf+0x668>
    1f32:	9d0e      	ldr	r5, [sp, #56]	; 0x38
    1f34:	4545      	cmp	r5, r8
    1f36:	d903      	bls.n	1f40 <__vsnprintf+0x668>
    1f38:	f888 c000 	strb.w	ip, [r8]
    1f3c:	f108 0801 	add.w	r8, r8, #1
    1f40:	3901      	subs	r1, #1
    1f42:	e69b      	b.n	1c7c <__vsnprintf+0x3a4>
/mnt/disk/raspbian-tee/optee_os/lib/libutils/ext/snprintk.c:583
    1f44:	990e      	ldr	r1, [sp, #56]	; 0x38
    1f46:	4541      	cmp	r1, r8
    1f48:	f67f aea5 	bls.w	1c96 <__vsnprintf+0x3be>
    1f4c:	f888 a000 	strb.w	sl, [r8]
    1f50:	f108 0801 	add.w	r8, r8, #1
    1f54:	e69f      	b.n	1c96 <__vsnprintf+0x3be>
/mnt/disk/raspbian-tee/optee_os/lib/libutils/ext/snprintk.c:584
    1f56:	07b1      	lsls	r1, r6, #30
    1f58:	f57f ae9d 	bpl.w	1c96 <__vsnprintf+0x3be>
/mnt/disk/raspbian-tee/optee_os/lib/libutils/ext/snprintk.c:585
    1f5c:	f1b8 0f00 	cmp.w	r8, #0
    1f60:	f43f ae97 	beq.w	1c92 <__vsnprintf+0x3ba>
    1f64:	990e      	ldr	r1, [sp, #56]	; 0x38
    1f66:	4541      	cmp	r1, r8
    1f68:	f67f ae95 	bls.w	1c96 <__vsnprintf+0x3be>
    1f6c:	2130      	movs	r1, #48	; 0x30
    1f6e:	f888 1000 	strb.w	r1, [r8]
/mnt/disk/raspbian-tee/optee_os/lib/libutils/ext/snprintk.c:586
    1f72:	f118 0101 	adds.w	r1, r8, #1
    1f76:	f43f ae8c 	beq.w	1c92 <__vsnprintf+0x3ba>
    1f7a:	9d0e      	ldr	r5, [sp, #56]	; 0x38
    1f7c:	428d      	cmp	r5, r1
    1f7e:	d904      	bls.n	1f8a <__vsnprintf+0x6b2>
    1f80:	f888 9001 	strb.w	r9, [r8, #1]
    1f84:	f108 0802 	add.w	r8, r8, #2
    1f88:	e685      	b.n	1c96 <__vsnprintf+0x3be>
    1f8a:	4688      	mov	r8, r1
    1f8c:	e683      	b.n	1c96 <__vsnprintf+0x3be>
/mnt/disk/raspbian-tee/optee_os/lib/libutils/ext/snprintk.c:593
    1f8e:	f1b8 0f00 	cmp.w	r8, #0
    1f92:	d006      	beq.n	1fa2 <__vsnprintf+0x6ca>
    1f94:	9d0e      	ldr	r5, [sp, #56]	; 0x38
    1f96:	4545      	cmp	r5, r8
    1f98:	d903      	bls.n	1fa2 <__vsnprintf+0x6ca>
    1f9a:	f888 4000 	strb.w	r4, [r8]
    1f9e:	f108 0801 	add.w	r8, r8, #1
    1fa2:	3901      	subs	r1, #1
    1fa4:	e67d      	b.n	1ca2 <__vsnprintf+0x3ca>
/mnt/disk/raspbian-tee/optee_os/lib/libutils/ext/snprintk.c:599
    1fa6:	f1b8 0f00 	cmp.w	r8, #0
    1faa:	d006      	beq.n	1fba <__vsnprintf+0x6e2>
    1fac:	9c0e      	ldr	r4, [sp, #56]	; 0x38
    1fae:	4544      	cmp	r4, r8
    1fb0:	d903      	bls.n	1fba <__vsnprintf+0x6e2>
    1fb2:	f888 1000 	strb.w	r1, [r8]
    1fb6:	f108 0801 	add.w	r8, r8, #1
    1fba:	3801      	subs	r0, #1
    1fbc:	e677      	b.n	1cae <__vsnprintf+0x3d6>
/mnt/disk/raspbian-tee/optee_os/lib/libutils/ext/snprintk.c:603
    1fbe:	f1b8 0f00 	cmp.w	r8, #0
    1fc2:	d007      	beq.n	1fd4 <__vsnprintf+0x6fc>
    1fc4:	980e      	ldr	r0, [sp, #56]	; 0x38
    1fc6:	4540      	cmp	r0, r8
    1fc8:	d904      	bls.n	1fd4 <__vsnprintf+0x6fc>
    1fca:	7818      	ldrb	r0, [r3, #0]
    1fcc:	f108 0801 	add.w	r8, r8, #1
    1fd0:	f808 0c01 	strb.w	r0, [r8, #-1]
/mnt/disk/raspbian-tee/optee_os/lib/libutils/ext/snprintk.c:602
    1fd4:	3301      	adds	r3, #1
    1fd6:	e66f      	b.n	1cb8 <__vsnprintf+0x3e0>
__vsnprintf():
/mnt/disk/raspbian-tee/optee_os/lib/libutils/ext/snprintk.c:148
    1fd8:	990c      	ldr	r1, [sp, #48]	; 0x30
    1fda:	5453      	strb	r3, [r2, r1]
/mnt/disk/raspbian-tee/optee_os/lib/libutils/ext/snprintk.c:150
    1fdc:	e4a1      	b.n	1922 <__vsnprintf+0x4a>
kprintf():
/mnt/disk/raspbian-tee/optee_os/lib/libutils/ext/snprintk.c:489
    1fde:	f426 6680 	bic.w	r6, r6, #1024	; 0x400
/mnt/disk/raspbian-tee/optee_os/lib/libutils/ext/snprintk.c:482
    1fe2:	f04f 0a00 	mov.w	sl, #0
/mnt/disk/raspbian-tee/optee_os/lib/libutils/ext/snprintk.c:476
    1fe6:	2302      	movs	r3, #2
    1fe8:	e52c      	b.n	1a44 <__vsnprintf+0x16c>
/mnt/disk/raspbian-tee/optee_os/lib/libutils/ext/snprintk.c:488
    1fea:	f1bb 3fff 	cmp.w	fp, #4294967295	; 0xffffffff
    1fee:	d1f6      	bne.n	1fde <__vsnprintf+0x706>
    1ff0:	f04f 3bff 	mov.w	fp, #4294967295	; 0xffffffff
    1ff4:	e728      	b.n	1e48 <__vsnprintf+0x570>
    1ff6:	bf00      	nop
    1ff8:	00007a93 	.word	0x00007a93
    1ffc:	00007a13 	.word	0x00007a13
    2000:	0000778c 	.word	0x0000778c
    2004:	0000774b 	.word	0x0000774b
    2008:	000076bb 	.word	0x000076bb

0000200c <vsnprintk>:
vsnprintk():
/mnt/disk/raspbian-tee/optee_os/lib/libutils/ext/snprintk.c:129
    200c:	b513      	push	{r0, r1, r4, lr}
/mnt/disk/raspbian-tee/optee_os/lib/libutils/ext/snprintk.c:130
    200e:	2401      	movs	r4, #1
    2010:	9400      	str	r4, [sp, #0]
    2012:	f7ff fc61 	bl	18d8 <__vsnprintf>
/mnt/disk/raspbian-tee/optee_os/lib/libutils/ext/snprintk.c:131
    2016:	b002      	add	sp, #8
    2018:	bd10      	pop	{r4, pc}

0000201a <snprintk>:
snprintk():
/mnt/disk/raspbian-tee/optee_os/lib/libutils/ext/snprintk.c:112
    201a:	b40c      	push	{r2, r3}
    201c:	b507      	push	{r0, r1, r2, lr}
    201e:	ab04      	add	r3, sp, #16
    2020:	f853 2b04 	ldr.w	r2, [r3], #4
/mnt/disk/raspbian-tee/optee_os/lib/libutils/ext/snprintk.c:116
    2024:	9301      	str	r3, [sp, #4]
/mnt/disk/raspbian-tee/optee_os/lib/libutils/ext/snprintk.c:117
    2026:	f7ff fff1 	bl	200c <vsnprintk>
/mnt/disk/raspbian-tee/optee_os/lib/libutils/ext/snprintk.c:121
    202a:	b003      	add	sp, #12
    202c:	f85d eb04 	ldr.w	lr, [sp], #4
    2030:	b002      	add	sp, #8
    2032:	4770      	bx	lr

00002034 <__aeabi_ldivmod>:
__aeabi_ldivmod():
/mnt/disk/raspbian-tee/optee_os/lib/libutils/isoc/arch/arm/arm32_aeabi_ldivmod_a32.S:24
    2034:	e92d5000 	push	{ip, lr}
/mnt/disk/raspbian-tee/optee_os/lib/libutils/isoc/arch/arm/arm32_aeabi_ldivmod_a32.S:26
    2038:	e92d000f 	push	{r0, r1, r2, r3}
/mnt/disk/raspbian-tee/optee_os/lib/libutils/isoc/arch/arm/arm32_aeabi_ldivmod_a32.S:28
    203c:	e1a0000d 	mov	r0, sp
/mnt/disk/raspbian-tee/optee_os/lib/libutils/isoc/arch/arm/arm32_aeabi_ldivmod_a32.S:29
    2040:	fa001b72 	blx	8e10 <__l_divmod>
/mnt/disk/raspbian-tee/optee_os/lib/libutils/isoc/arch/arm/arm32_aeabi_ldivmod_a32.S:30
    2044:	e8bd000f 	pop	{r0, r1, r2, r3}
/mnt/disk/raspbian-tee/optee_os/lib/libutils/isoc/arch/arm/arm32_aeabi_ldivmod_a32.S:31
    2048:	e8bd9000 	pop	{ip, pc}

0000204c <__aeabi_uldivmod>:
__aeabi_uldivmod():
/mnt/disk/raspbian-tee/optee_os/lib/libutils/isoc/arch/arm/arm32_aeabi_ldivmod_a32.S:42
    204c:	e92d5000 	push	{ip, lr}
/mnt/disk/raspbian-tee/optee_os/lib/libutils/isoc/arch/arm/arm32_aeabi_ldivmod_a32.S:44
    2050:	e92d000f 	push	{r0, r1, r2, r3}
/mnt/disk/raspbian-tee/optee_os/lib/libutils/isoc/arch/arm/arm32_aeabi_ldivmod_a32.S:46
    2054:	e1a0000d 	mov	r0, sp
/mnt/disk/raspbian-tee/optee_os/lib/libutils/isoc/arch/arm/arm32_aeabi_ldivmod_a32.S:47
    2058:	fa001b4f 	blx	8d9c <__ul_divmod>
/mnt/disk/raspbian-tee/optee_os/lib/libutils/isoc/arch/arm/arm32_aeabi_ldivmod_a32.S:48
    205c:	e8bd000f 	pop	{r0, r1, r2, r3}
/mnt/disk/raspbian-tee/optee_os/lib/libutils/isoc/arch/arm/arm32_aeabi_ldivmod_a32.S:49
    2060:	e8bd9000 	pop	{ip, pc}

00002064 <trace_ext_puts>:
trace_ext_puts():
/mnt/disk/raspbian-tee/optee_os/lib/libutee/trace_ext.c:17
    2064:	b510      	push	{r4, lr}
    2066:	4604      	mov	r4, r0
/mnt/disk/raspbian-tee/optee_os/lib/libutee/trace_ext.c:18
    2068:	f006 fe90 	bl	8d8c <strlen>
    206c:	4601      	mov	r1, r0
    206e:	4620      	mov	r0, r4
/mnt/disk/raspbian-tee/optee_os/lib/libutee/trace_ext.c:19
    2070:	e8bd 4010 	ldmia.w	sp!, {r4, lr}
/mnt/disk/raspbian-tee/optee_os/lib/libutee/trace_ext.c:18
    2074:	f006 bfb4 	b.w	8fe0 <__utee_log_from_thumb>

00002078 <trace_ext_get_thread_id>:
trace_ext_get_thread_id():
/mnt/disk/raspbian-tee/optee_os/lib/libutee/trace_ext.c:24
    2078:	f04f 30ff 	mov.w	r0, #4294967295	; 0xffffffff
    207c:	4770      	bx	lr

0000207e <printf>:
printf():
/mnt/disk/raspbian-tee/optee_os/lib/libutee/trace_ext.c:32
    207e:	b40f      	push	{r0, r1, r2, r3}
    2080:	b530      	push	{r4, r5, lr}
    2082:	b0c3      	sub	sp, #268	; 0x10c
/mnt/disk/raspbian-tee/optee_os/lib/libutee/trace_ext.c:37
    2084:	f7ff fb00 	bl	1688 <trace_get_level>
    2088:	2800      	cmp	r0, #0
    208a:	dd13      	ble.n	20b4 <printf+0x36>
/mnt/disk/raspbian-tee/optee_os/lib/libutee/trace_ext.c:41
    208c:	ad02      	add	r5, sp, #8
/mnt/disk/raspbian-tee/optee_os/lib/libutee/trace_ext.c:40
    208e:	ab47      	add	r3, sp, #284	; 0x11c
/mnt/disk/raspbian-tee/optee_os/lib/libutee/trace_ext.c:41
    2090:	9a46      	ldr	r2, [sp, #280]	; 0x118
    2092:	f44f 7180 	mov.w	r1, #256	; 0x100
    2096:	4628      	mov	r0, r5
/mnt/disk/raspbian-tee/optee_os/lib/libutee/trace_ext.c:40
    2098:	9301      	str	r3, [sp, #4]
/mnt/disk/raspbian-tee/optee_os/lib/libutee/trace_ext.c:41
    209a:	f006 ff40 	bl	8f1e <vsnprintf>
/mnt/disk/raspbian-tee/optee_os/lib/libutee/trace_ext.c:44
    209e:	1e04      	subs	r4, r0, #0
    20a0:	db02      	blt.n	20a8 <printf+0x2a>
/mnt/disk/raspbian-tee/optee_os/lib/libutee/trace_ext.c:47
    20a2:	4628      	mov	r0, r5
    20a4:	f7ff ffde 	bl	2064 <trace_ext_puts>
/mnt/disk/raspbian-tee/optee_os/lib/libutee/trace_ext.c:50
    20a8:	4620      	mov	r0, r4
    20aa:	b043      	add	sp, #268	; 0x10c
    20ac:	e8bd 4030 	ldmia.w	sp!, {r4, r5, lr}
    20b0:	b004      	add	sp, #16
    20b2:	4770      	bx	lr
/mnt/disk/raspbian-tee/optee_os/lib/libutee/trace_ext.c:38
    20b4:	2400      	movs	r4, #0
    20b6:	e7f7      	b.n	20a8 <printf+0x2a>

000020b8 <puts>:
puts():
/mnt/disk/raspbian-tee/optee_os/lib/libutee/trace_ext.c:53
    20b8:	b510      	push	{r4, lr}
    20ba:	4604      	mov	r4, r0
/mnt/disk/raspbian-tee/optee_os/lib/libutee/trace_ext.c:54
    20bc:	f7ff fae4 	bl	1688 <trace_get_level>
    20c0:	2800      	cmp	r0, #0
    20c2:	dd06      	ble.n	20d2 <puts+0x1a>
/mnt/disk/raspbian-tee/optee_os/lib/libutee/trace_ext.c:55
    20c4:	4620      	mov	r0, r4
    20c6:	f7ff ffcd 	bl	2064 <trace_ext_puts>
/mnt/disk/raspbian-tee/optee_os/lib/libutee/trace_ext.c:56
    20ca:	4803      	ldr	r0, [pc, #12]	; (20d8 <puts+0x20>)
    20cc:	4478      	add	r0, pc
    20ce:	f7ff ffc9 	bl	2064 <trace_ext_puts>
/mnt/disk/raspbian-tee/optee_os/lib/libutee/trace_ext.c:59
    20d2:	2001      	movs	r0, #1
    20d4:	bd10      	pop	{r4, pc}
    20d6:	bf00      	nop
    20d8:	000072c4 	.word	0x000072c4

000020dc <putchar>:
putchar():
/mnt/disk/raspbian-tee/optee_os/lib/libutee/trace_ext.c:62
    20dc:	b513      	push	{r0, r1, r4, lr}
/mnt/disk/raspbian-tee/optee_os/lib/libutee/trace_ext.c:63
    20de:	2300      	movs	r3, #0
/mnt/disk/raspbian-tee/optee_os/lib/libutee/trace_ext.c:62
    20e0:	4604      	mov	r4, r0
/mnt/disk/raspbian-tee/optee_os/lib/libutee/trace_ext.c:63
    20e2:	f88d 0004 	strb.w	r0, [sp, #4]
    20e6:	f88d 3005 	strb.w	r3, [sp, #5]
/mnt/disk/raspbian-tee/optee_os/lib/libutee/trace_ext.c:65
    20ea:	f7ff facd 	bl	1688 <trace_get_level>
    20ee:	2800      	cmp	r0, #0
    20f0:	dd02      	ble.n	20f8 <putchar+0x1c>
/mnt/disk/raspbian-tee/optee_os/lib/libutee/trace_ext.c:66
    20f2:	a801      	add	r0, sp, #4
    20f4:	f7ff ffb6 	bl	2064 <trace_ext_puts>
/mnt/disk/raspbian-tee/optee_os/lib/libutee/trace_ext.c:73
    20f8:	b2e0      	uxtb	r0, r4
    20fa:	b002      	add	sp, #8
    20fc:	bd10      	pop	{r4, pc}
    20fe:	bf00      	nop

00002100 <__utee_from_param>:
__utee_from_param():
/mnt/disk/raspbian-tee/optee_os/lib/libutee/tee_api.c:23
    2100:	2300      	movs	r3, #0
/mnt/disk/raspbian-tee/optee_os/lib/libutee/tee_api.c:20
    2102:	b5f0      	push	{r4, r5, r6, r7, lr}
    2104:	4694      	mov	ip, r2
    2106:	4615      	mov	r5, r2
/mnt/disk/raspbian-tee/optee_os/lib/libutee/tee_api.c:39
    2108:	2600      	movs	r6, #0
    210a:	2700      	movs	r7, #0
/mnt/disk/raspbian-tee/optee_os/lib/libutee/tee_api.c:35
    210c:	461a      	mov	r2, r3
/mnt/disk/raspbian-tee/optee_os/lib/libutee/tee_api.c:23
    210e:	e880 000a 	stmia.w	r0, {r1, r3}
/mnt/disk/raspbian-tee/optee_os/lib/libutee/tee_api.c:25
    2112:	fa21 f403 	lsr.w	r4, r1, r3
    2116:	f004 040f 	and.w	r4, r4, #15
    211a:	3c01      	subs	r4, #1
    211c:	2c06      	cmp	r4, #6
    211e:	d812      	bhi.n	2146 <__utee_from_param+0x46>
    2120:	e8df f004 	tbb	[pc, r4]
    2124:	11040404 	.word	0x11040404
    2128:	0404      	.short	0x0404
    212a:	04          	.byte	0x04
    212b:	00          	.byte	0x00
/mnt/disk/raspbian-tee/optee_os/lib/libutee/tee_api.c:35
    212c:	f85c 4013 	ldr.w	r4, [ip, r3, lsl #1]
    2130:	6084      	str	r4, [r0, #8]
    2132:	60c2      	str	r2, [r0, #12]
/mnt/disk/raspbian-tee/optee_os/lib/libutee/tee_api.c:36
    2134:	686c      	ldr	r4, [r5, #4]
    2136:	6104      	str	r4, [r0, #16]
    2138:	6142      	str	r2, [r0, #20]
    213a:	3304      	adds	r3, #4
    213c:	3508      	adds	r5, #8
    213e:	3010      	adds	r0, #16
/mnt/disk/raspbian-tee/optee_os/lib/libutee/tee_api.c:24 (discriminator 2)
    2140:	2b10      	cmp	r3, #16
    2142:	d1e6      	bne.n	2112 <__utee_from_param+0x12>
/mnt/disk/raspbian-tee/optee_os/lib/libutee/tee_api.c:44
    2144:	bdf0      	pop	{r4, r5, r6, r7, pc}
/mnt/disk/raspbian-tee/optee_os/lib/libutee/tee_api.c:39
    2146:	e9c0 6702 	strd	r6, r7, [r0, #8]
/mnt/disk/raspbian-tee/optee_os/lib/libutee/tee_api.c:40
    214a:	e9c0 6704 	strd	r6, r7, [r0, #16]
/mnt/disk/raspbian-tee/optee_os/lib/libutee/tee_api.c:41
    214e:	e7f4      	b.n	213a <__utee_from_param+0x3a>

00002150 <__utee_to_param>:
__utee_to_param():
/mnt/disk/raspbian-tee/optee_os/lib/libutee/tee_api.c:48
    2150:	b5f0      	push	{r4, r5, r6, r7, lr}
/mnt/disk/raspbian-tee/optee_os/lib/libutee/tee_api.c:50
    2152:	2300      	movs	r3, #0
    2154:	6816      	ldr	r6, [r2, #0]
    2156:	4605      	mov	r5, r0
/mnt/disk/raspbian-tee/optee_os/lib/libutee/tee_api.c:56
    2158:	fa26 f403 	lsr.w	r4, r6, r3
/mnt/disk/raspbian-tee/optee_os/lib/libutee/tee_api.c:53
    215c:	f8d2 c008 	ldr.w	ip, [r2, #8]
/mnt/disk/raspbian-tee/optee_os/lib/libutee/tee_api.c:56
    2160:	f004 040f 	and.w	r4, r4, #15
/mnt/disk/raspbian-tee/optee_os/lib/libutee/tee_api.c:54
    2164:	6917      	ldr	r7, [r2, #16]
/mnt/disk/raspbian-tee/optee_os/lib/libutee/tee_api.c:56
    2166:	3c01      	subs	r4, #1
    2168:	2c06      	cmp	r4, #6
    216a:	d808      	bhi.n	217e <__utee_to_param+0x2e>
    216c:	e8df f004 	tbb	[pc, r4]
    2170:	07040404 	.word	0x07040404
    2174:	0404      	.short	0x0404
    2176:	04          	.byte	0x04
    2177:	00          	.byte	0x00
/mnt/disk/raspbian-tee/optee_os/lib/libutee/tee_api.c:66
    2178:	f840 c013 	str.w	ip, [r0, r3, lsl #1]
/mnt/disk/raspbian-tee/optee_os/lib/libutee/tee_api.c:67
    217c:	606f      	str	r7, [r5, #4]
    217e:	3304      	adds	r3, #4
    2180:	3210      	adds	r2, #16
    2182:	3508      	adds	r5, #8
/mnt/disk/raspbian-tee/optee_os/lib/libutee/tee_api.c:52 (discriminator 2)
    2184:	2b10      	cmp	r3, #16
    2186:	d1e7      	bne.n	2158 <__utee_to_param+0x8>
/mnt/disk/raspbian-tee/optee_os/lib/libutee/tee_api.c:74
    2188:	b101      	cbz	r1, 218c <__utee_to_param+0x3c>
/mnt/disk/raspbian-tee/optee_os/lib/libutee/tee_api.c:75
    218a:	600e      	str	r6, [r1, #0]
    218c:	bdf0      	pop	{r4, r5, r6, r7, pc}

0000218e <TEE_OpenTASession>:
TEE_OpenTASession():
/mnt/disk/raspbian-tee/optee_os/lib/libutee/tee_api.c:84
    218e:	b5f0      	push	{r4, r5, r6, r7, lr}
    2190:	4605      	mov	r5, r0
    2192:	460f      	mov	r7, r1
    2194:	b097      	sub	sp, #92	; 0x5c
    2196:	4611      	mov	r1, r2
/mnt/disk/raspbian-tee/optee_os/lib/libutee/tee_api.c:89
    2198:	ac04      	add	r4, sp, #16
    219a:	461a      	mov	r2, r3
    219c:	4620      	mov	r0, r4
/mnt/disk/raspbian-tee/optee_os/lib/libutee/tee_api.c:84
    219e:	461e      	mov	r6, r3
/mnt/disk/raspbian-tee/optee_os/lib/libutee/tee_api.c:89
    21a0:	f7ff ffae 	bl	2100 <__utee_from_param>
/mnt/disk/raspbian-tee/optee_os/lib/libutee/tee_api.c:90
    21a4:	9b1d      	ldr	r3, [sp, #116]	; 0x74
    21a6:	9300      	str	r3, [sp, #0]
    21a8:	4622      	mov	r2, r4
    21aa:	4639      	mov	r1, r7
    21ac:	4628      	mov	r0, r5
    21ae:	ab03      	add	r3, sp, #12
    21b0:	f001 ed44 	blx	3c3c <utee_open_ta_session>
/mnt/disk/raspbian-tee/optee_os/lib/libutee/tee_api.c:92
    21b4:	4622      	mov	r2, r4
/mnt/disk/raspbian-tee/optee_os/lib/libutee/tee_api.c:90
    21b6:	4605      	mov	r5, r0
/mnt/disk/raspbian-tee/optee_os/lib/libutee/tee_api.c:92
    21b8:	2100      	movs	r1, #0
    21ba:	4630      	mov	r0, r6
    21bc:	f7ff ffc8 	bl	2150 <__utee_to_param>
/mnt/disk/raspbian-tee/optee_os/lib/libutee/tee_api.c:98
    21c0:	b10d      	cbz	r5, 21c6 <TEE_OpenTASession+0x38>
/mnt/disk/raspbian-tee/optee_os/lib/libutee/tee_api.c:99
    21c2:	2300      	movs	r3, #0
    21c4:	9303      	str	r3, [sp, #12]
/mnt/disk/raspbian-tee/optee_os/lib/libutee/tee_api.c:101
    21c6:	9b1c      	ldr	r3, [sp, #112]	; 0x70
/mnt/disk/raspbian-tee/optee_os/lib/libutee/tee_api.c:103
    21c8:	4628      	mov	r0, r5
/mnt/disk/raspbian-tee/optee_os/lib/libutee/tee_api.c:101
    21ca:	9a03      	ldr	r2, [sp, #12]
    21cc:	601a      	str	r2, [r3, #0]
/mnt/disk/raspbian-tee/optee_os/lib/libutee/tee_api.c:103
    21ce:	b017      	add	sp, #92	; 0x5c
    21d0:	bdf0      	pop	{r4, r5, r6, r7, pc}

000021d2 <TEE_CloseTASession>:
TEE_CloseTASession():
/mnt/disk/raspbian-tee/optee_os/lib/libutee/tee_api.c:106
    21d2:	b508      	push	{r3, lr}
/mnt/disk/raspbian-tee/optee_os/lib/libutee/tee_api.c:107
    21d4:	b130      	cbz	r0, 21e4 <TEE_CloseTASession+0x12>
/mnt/disk/raspbian-tee/optee_os/lib/libutee/tee_api.c:108
    21d6:	f001 ed3e 	blx	3c54 <utee_close_ta_session>
/mnt/disk/raspbian-tee/optee_os/lib/libutee/tee_api.c:110
    21da:	b118      	cbz	r0, 21e4 <TEE_CloseTASession+0x12>
/mnt/disk/raspbian-tee/optee_os/lib/libutee/tee_api.c:113
    21dc:	e8bd 4008 	ldmia.w	sp!, {r3, lr}
/mnt/disk/raspbian-tee/optee_os/lib/libutee/tee_api.c:111
    21e0:	f006 be8c 	b.w	8efc <TEE_Panic>
    21e4:	bd08      	pop	{r3, pc}

000021e6 <TEE_InvokeTACommand>:
TEE_InvokeTACommand():
/mnt/disk/raspbian-tee/optee_os/lib/libutee/tee_api.c:120
    21e6:	e92d 41f0 	stmdb	sp!, {r4, r5, r6, r7, r8, lr}
    21ea:	4604      	mov	r4, r0
    21ec:	460f      	mov	r7, r1
    21ee:	b096      	sub	sp, #88	; 0x58
/mnt/disk/raspbian-tee/optee_os/lib/libutee/tee_api.c:125
    21f0:	4619      	mov	r1, r3
    21f2:	ad04      	add	r5, sp, #16
/mnt/disk/raspbian-tee/optee_os/lib/libutee/tee_api.c:120
    21f4:	4690      	mov	r8, r2
/mnt/disk/raspbian-tee/optee_os/lib/libutee/tee_api.c:125
    21f6:	4628      	mov	r0, r5
/mnt/disk/raspbian-tee/optee_os/lib/libutee/tee_api.c:120
    21f8:	9e1d      	ldr	r6, [sp, #116]	; 0x74
/mnt/disk/raspbian-tee/optee_os/lib/libutee/tee_api.c:125
    21fa:	9a1c      	ldr	r2, [sp, #112]	; 0x70
    21fc:	f7ff ff80 	bl	2100 <__utee_from_param>
/mnt/disk/raspbian-tee/optee_os/lib/libutee/tee_api.c:126
    2200:	ab03      	add	r3, sp, #12
    2202:	4642      	mov	r2, r8
    2204:	9300      	str	r3, [sp, #0]
    2206:	4639      	mov	r1, r7
    2208:	462b      	mov	r3, r5
    220a:	4620      	mov	r0, r4
    220c:	f001 ed2c 	blx	3c68 <utee_invoke_ta_command>
/mnt/disk/raspbian-tee/optee_os/lib/libutee/tee_api.c:129
    2210:	462a      	mov	r2, r5
/mnt/disk/raspbian-tee/optee_os/lib/libutee/tee_api.c:126
    2212:	4604      	mov	r4, r0
/mnt/disk/raspbian-tee/optee_os/lib/libutee/tee_api.c:129
    2214:	2100      	movs	r1, #0
    2216:	981c      	ldr	r0, [sp, #112]	; 0x70
    2218:	f7ff ff9a 	bl	2150 <__utee_to_param>
    221c:	9b03      	ldr	r3, [sp, #12]
/mnt/disk/raspbian-tee/optee_os/lib/libutee/tee_api.c:131
    221e:	b106      	cbz	r6, 2222 <TEE_InvokeTACommand+0x3c>
/mnt/disk/raspbian-tee/optee_os/lib/libutee/tee_api.c:132
    2220:	6033      	str	r3, [r6, #0]
/mnt/disk/raspbian-tee/optee_os/lib/libutee/tee_api.c:134
    2222:	2b04      	cmp	r3, #4
    2224:	d009      	beq.n	223a <TEE_InvokeTACommand+0x54>
/mnt/disk/raspbian-tee/optee_os/lib/libutee/tee_api.c:137
    2226:	b144      	cbz	r4, 223a <TEE_InvokeTACommand+0x54>
/mnt/disk/raspbian-tee/optee_os/lib/libutee/tee_api.c:137 (discriminator 1)
    2228:	4b06      	ldr	r3, [pc, #24]	; (2244 <TEE_InvokeTACommand+0x5e>)
    222a:	429c      	cmp	r4, r3
    222c:	d005      	beq.n	223a <TEE_InvokeTACommand+0x54>
/mnt/disk/raspbian-tee/optee_os/lib/libutee/tee_api.c:138
    222e:	4b06      	ldr	r3, [pc, #24]	; (2248 <TEE_InvokeTACommand+0x62>)
    2230:	429c      	cmp	r4, r3
    2232:	d002      	beq.n	223a <TEE_InvokeTACommand+0x54>
/mnt/disk/raspbian-tee/optee_os/lib/libutee/tee_api.c:140
    2234:	4620      	mov	r0, r4
    2236:	f006 fe61 	bl	8efc <TEE_Panic>
/mnt/disk/raspbian-tee/optee_os/lib/libutee/tee_api.c:143
    223a:	4620      	mov	r0, r4
    223c:	b016      	add	sp, #88	; 0x58
    223e:	e8bd 81f0 	ldmia.w	sp!, {r4, r5, r6, r7, r8, pc}
    2242:	bf00      	nop
    2244:	ffff000c 	.word	0xffff000c
    2248:	ffff3024 	.word	0xffff3024

0000224c <TEE_GetCancellationFlag>:
TEE_GetCancellationFlag():
/mnt/disk/raspbian-tee/optee_os/lib/libutee/tee_api.c:148
    224c:	b507      	push	{r0, r1, r2, lr}
/mnt/disk/raspbian-tee/optee_os/lib/libutee/tee_api.c:150
    224e:	a801      	add	r0, sp, #4
    2250:	f001 ed16 	blx	3c80 <utee_get_cancellation_flag>
/mnt/disk/raspbian-tee/optee_os/lib/libutee/tee_api.c:152
    2254:	b108      	cbz	r0, 225a <TEE_GetCancellationFlag+0xe>
/mnt/disk/raspbian-tee/optee_os/lib/libutee/tee_api.c:153
    2256:	2300      	movs	r3, #0
    2258:	9301      	str	r3, [sp, #4]
/mnt/disk/raspbian-tee/optee_os/lib/libutee/tee_api.c:155
    225a:	9801      	ldr	r0, [sp, #4]
    225c:	3000      	adds	r0, #0
    225e:	bf18      	it	ne
    2260:	2001      	movne	r0, #1
    2262:	b003      	add	sp, #12
    2264:	f85d fb04 	ldr.w	pc, [sp], #4

00002268 <TEE_UnmaskCancellation>:
TEE_UnmaskCancellation():
/mnt/disk/raspbian-tee/optee_os/lib/libutee/tee_api.c:158
    2268:	b507      	push	{r0, r1, r2, lr}
/mnt/disk/raspbian-tee/optee_os/lib/libutee/tee_api.c:160
    226a:	a801      	add	r0, sp, #4
    226c:	f001 ed1c 	blx	3ca8 <utee_unmask_cancellation>
/mnt/disk/raspbian-tee/optee_os/lib/libutee/tee_api.c:162
    2270:	b108      	cbz	r0, 2276 <TEE_UnmaskCancellation+0xe>
/mnt/disk/raspbian-tee/optee_os/lib/libutee/tee_api.c:163
    2272:	f006 fe43 	bl	8efc <TEE_Panic>
/mnt/disk/raspbian-tee/optee_os/lib/libutee/tee_api.c:165
    2276:	9801      	ldr	r0, [sp, #4]
    2278:	3000      	adds	r0, #0
    227a:	bf18      	it	ne
    227c:	2001      	movne	r0, #1
    227e:	b003      	add	sp, #12
    2280:	f85d fb04 	ldr.w	pc, [sp], #4

00002284 <TEE_MaskCancellation>:
TEE_MaskCancellation():
/mnt/disk/raspbian-tee/optee_os/lib/libutee/tee_api.c:168
    2284:	b507      	push	{r0, r1, r2, lr}
/mnt/disk/raspbian-tee/optee_os/lib/libutee/tee_api.c:170
    2286:	a801      	add	r0, sp, #4
    2288:	f001 ed18 	blx	3cbc <utee_mask_cancellation>
/mnt/disk/raspbian-tee/optee_os/lib/libutee/tee_api.c:172
    228c:	b108      	cbz	r0, 2292 <TEE_MaskCancellation+0xe>
/mnt/disk/raspbian-tee/optee_os/lib/libutee/tee_api.c:173
    228e:	f006 fe35 	bl	8efc <TEE_Panic>
/mnt/disk/raspbian-tee/optee_os/lib/libutee/tee_api.c:175
    2292:	9801      	ldr	r0, [sp, #4]
    2294:	3000      	adds	r0, #0
    2296:	bf18      	it	ne
    2298:	2001      	movne	r0, #1
    229a:	b003      	add	sp, #12
    229c:	f85d fb04 	ldr.w	pc, [sp], #4

000022a0 <TEE_CheckMemoryAccessRights>:
TEE_CheckMemoryAccessRights():
/mnt/disk/raspbian-tee/optee_os/lib/libutee/tee_api.c:184
    22a0:	b10a      	cbz	r2, 22a6 <TEE_CheckMemoryAccessRights+0x6>
/mnt/disk/raspbian-tee/optee_os/lib/libutee/tee_api.c:188
    22a2:	f006 be8d 	b.w	8fc0 <__utee_check_access_rights_from_thumb>
/mnt/disk/raspbian-tee/optee_os/lib/libutee/tee_api.c:200
    22a6:	4610      	mov	r0, r2
    22a8:	4770      	bx	lr

000022aa <TEE_SetInstanceData>:
TEE_SetInstanceData():
/mnt/disk/raspbian-tee/optee_os/lib/libutee/tee_api.c:204
    22aa:	4b02      	ldr	r3, [pc, #8]	; (22b4 <TEE_SetInstanceData+0xa>)
    22ac:	447b      	add	r3, pc
    22ae:	6018      	str	r0, [r3, #0]
    22b0:	4770      	bx	lr
    22b2:	bf00      	nop
    22b4:	00008df0 	.word	0x00008df0

000022b8 <TEE_GetInstanceData>:
TEE_GetInstanceData():
/mnt/disk/raspbian-tee/optee_os/lib/libutee/tee_api.c:210
    22b8:	4b01      	ldr	r3, [pc, #4]	; (22c0 <TEE_GetInstanceData+0x8>)
    22ba:	447b      	add	r3, pc
    22bc:	6818      	ldr	r0, [r3, #0]
    22be:	4770      	bx	lr
    22c0:	00008de2 	.word	0x00008de2

000022c4 <TEE_MemMove>:
TEE_MemMove():
/mnt/disk/raspbian-tee/optee_os/lib/libutee/tee_api.c:214
    22c4:	f006 be4c 	b.w	8f60 <memmove>

000022c8 <TEE_MemCompare>:
TEE_MemCompare():
/mnt/disk/raspbian-tee/optee_os/lib/libutee/tee_api.c:219
    22c8:	f006 be30 	b.w	8f2c <memcmp>

000022cc <TEE_MemFill>:
TEE_MemFill():
/mnt/disk/raspbian-tee/optee_os/lib/libutee/tee_api.c:224
    22cc:	f006 bd45 	b.w	8d5a <memset>

000022d0 <TEE_GetSystemTime>:
TEE_GetSystemTime():
/mnt/disk/raspbian-tee/optee_os/lib/libutee/tee_api.c:230
    22d0:	b508      	push	{r3, lr}
/mnt/disk/raspbian-tee/optee_os/lib/libutee/tee_api.c:231
    22d2:	4601      	mov	r1, r0
    22d4:	2000      	movs	r0, #0
    22d6:	f001 ed06 	blx	3ce4 <utee_get_time>
/mnt/disk/raspbian-tee/optee_os/lib/libutee/tee_api.c:233
    22da:	b118      	cbz	r0, 22e4 <TEE_GetSystemTime+0x14>
/mnt/disk/raspbian-tee/optee_os/lib/libutee/tee_api.c:235
    22dc:	e8bd 4008 	ldmia.w	sp!, {r3, lr}
/mnt/disk/raspbian-tee/optee_os/lib/libutee/tee_api.c:234
    22e0:	f006 be0c 	b.w	8efc <TEE_Panic>
    22e4:	bd08      	pop	{r3, pc}

000022e6 <TEE_Wait>:
TEE_Wait():
/mnt/disk/raspbian-tee/optee_os/lib/libutee/tee_api.c:238
    22e6:	b510      	push	{r4, lr}
/mnt/disk/raspbian-tee/optee_os/lib/libutee/tee_api.c:239
    22e8:	f001 ecf2 	blx	3cd0 <utee_wait>
/mnt/disk/raspbian-tee/optee_os/lib/libutee/tee_api.c:241
    22ec:	4604      	mov	r4, r0
    22ee:	b120      	cbz	r0, 22fa <TEE_Wait+0x14>
/mnt/disk/raspbian-tee/optee_os/lib/libutee/tee_api.c:241 (discriminator 1)
    22f0:	4b03      	ldr	r3, [pc, #12]	; (2300 <TEE_Wait+0x1a>)
    22f2:	4298      	cmp	r0, r3
    22f4:	d001      	beq.n	22fa <TEE_Wait+0x14>
/mnt/disk/raspbian-tee/optee_os/lib/libutee/tee_api.c:242
    22f6:	f006 fe01 	bl	8efc <TEE_Panic>
/mnt/disk/raspbian-tee/optee_os/lib/libutee/tee_api.c:245
    22fa:	4620      	mov	r0, r4
    22fc:	bd10      	pop	{r4, pc}
    22fe:	bf00      	nop
    2300:	ffff0002 	.word	0xffff0002

00002304 <TEE_GetTAPersistentTime>:
TEE_GetTAPersistentTime():
/mnt/disk/raspbian-tee/optee_os/lib/libutee/tee_api.c:248
    2304:	b538      	push	{r3, r4, r5, lr}
/mnt/disk/raspbian-tee/optee_os/lib/libutee/tee_api.c:251
    2306:	4601      	mov	r1, r0
/mnt/disk/raspbian-tee/optee_os/lib/libutee/tee_api.c:248
    2308:	4605      	mov	r5, r0
/mnt/disk/raspbian-tee/optee_os/lib/libutee/tee_api.c:251
    230a:	2001      	movs	r0, #1
    230c:	f001 ecea 	blx	3ce4 <utee_get_time>
/mnt/disk/raspbian-tee/optee_os/lib/libutee/tee_api.c:253
    2310:	4604      	mov	r4, r0
    2312:	b170      	cbz	r0, 2332 <TEE_GetTAPersistentTime+0x2e>
/mnt/disk/raspbian-tee/optee_os/lib/libutee/tee_api.c:253 (discriminator 1)
    2314:	4b08      	ldr	r3, [pc, #32]	; (2338 <TEE_GetTAPersistentTime+0x34>)
    2316:	4298      	cmp	r0, r3
    2318:	d00b      	beq.n	2332 <TEE_GetTAPersistentTime+0x2e>
/mnt/disk/raspbian-tee/optee_os/lib/libutee/tee_api.c:254
    231a:	2300      	movs	r3, #0
    231c:	602b      	str	r3, [r5, #0]
/mnt/disk/raspbian-tee/optee_os/lib/libutee/tee_api.c:255
    231e:	606b      	str	r3, [r5, #4]
/mnt/disk/raspbian-tee/optee_os/lib/libutee/tee_api.c:258
    2320:	f500 4330 	add.w	r3, r0, #45056	; 0xb000
    2324:	2b01      	cmp	r3, #1
    2326:	d904      	bls.n	2332 <TEE_GetTAPersistentTime+0x2e>
/mnt/disk/raspbian-tee/optee_os/lib/libutee/tee_api.c:261
    2328:	4b04      	ldr	r3, [pc, #16]	; (233c <TEE_GetTAPersistentTime+0x38>)
    232a:	4298      	cmp	r0, r3
    232c:	d001      	beq.n	2332 <TEE_GetTAPersistentTime+0x2e>
/mnt/disk/raspbian-tee/optee_os/lib/libutee/tee_api.c:263
    232e:	f006 fde5 	bl	8efc <TEE_Panic>
/mnt/disk/raspbian-tee/optee_os/lib/libutee/tee_api.c:266
    2332:	4620      	mov	r0, r4
    2334:	bd38      	pop	{r3, r4, r5, pc}
    2336:	bf00      	nop
    2338:	ffff300f 	.word	0xffff300f
    233c:	ffff000c 	.word	0xffff000c

00002340 <TEE_SetTAPersistentTime>:
TEE_SetTAPersistentTime():
/mnt/disk/raspbian-tee/optee_os/lib/libutee/tee_api.c:269
    2340:	b510      	push	{r4, lr}
/mnt/disk/raspbian-tee/optee_os/lib/libutee/tee_api.c:272
    2342:	f001 ecda 	blx	3cf8 <utee_set_ta_time>
/mnt/disk/raspbian-tee/optee_os/lib/libutee/tee_api.c:274
    2346:	4604      	mov	r4, r0
    2348:	b138      	cbz	r0, 235a <TEE_SetTAPersistentTime+0x1a>
/mnt/disk/raspbian-tee/optee_os/lib/libutee/tee_api.c:274 (discriminator 1)
    234a:	4b05      	ldr	r3, [pc, #20]	; (2360 <TEE_SetTAPersistentTime+0x20>)
    234c:	4298      	cmp	r0, r3
    234e:	d004      	beq.n	235a <TEE_SetTAPersistentTime+0x1a>
/mnt/disk/raspbian-tee/optee_os/lib/libutee/tee_api.c:275
    2350:	4b04      	ldr	r3, [pc, #16]	; (2364 <TEE_SetTAPersistentTime+0x24>)
    2352:	4298      	cmp	r0, r3
    2354:	d001      	beq.n	235a <TEE_SetTAPersistentTime+0x1a>
/mnt/disk/raspbian-tee/optee_os/lib/libutee/tee_api.c:277
    2356:	f006 fdd1 	bl	8efc <TEE_Panic>
/mnt/disk/raspbian-tee/optee_os/lib/libutee/tee_api.c:280
    235a:	4620      	mov	r0, r4
    235c:	bd10      	pop	{r4, pc}
    235e:	bf00      	nop
    2360:	ffff000c 	.word	0xffff000c
    2364:	ffff3041 	.word	0xffff3041

00002368 <TEE_GetREETime>:
TEE_GetREETime():
/mnt/disk/raspbian-tee/optee_os/lib/libutee/tee_api.c:283
    2368:	b508      	push	{r3, lr}
/mnt/disk/raspbian-tee/optee_os/lib/libutee/tee_api.c:284
    236a:	4601      	mov	r1, r0
    236c:	2002      	movs	r0, #2
    236e:	f001 ecba 	blx	3ce4 <utee_get_time>
/mnt/disk/raspbian-tee/optee_os/lib/libutee/tee_api.c:286
    2372:	b118      	cbz	r0, 237c <TEE_GetREETime+0x14>
/mnt/disk/raspbian-tee/optee_os/lib/libutee/tee_api.c:288
    2374:	e8bd 4008 	ldmia.w	sp!, {r3, lr}
/mnt/disk/raspbian-tee/optee_os/lib/libutee/tee_api.c:287
    2378:	f006 bdc0 	b.w	8efc <TEE_Panic>
    237c:	bd08      	pop	{r3, pc}

0000237e <TEE_Malloc>:
TEE_Malloc():
/mnt/disk/raspbian-tee/optee_os/lib/libutee/tee_api.c:291
    237e:	b507      	push	{r0, r1, r2, lr}
/mnt/disk/raspbian-tee/optee_os/lib/libutee/tee_api.c:292
    2380:	b931      	cbnz	r1, 2390 <TEE_Malloc+0x12>
/mnt/disk/raspbian-tee/optee_os/lib/libutee/tee_api.c:293
    2382:	4601      	mov	r1, r0
    2384:	2001      	movs	r0, #1
/mnt/disk/raspbian-tee/optee_os/lib/libutee/tee_api.c:300
    2386:	b003      	add	sp, #12
    2388:	f85d eb04 	ldr.w	lr, [sp], #4
/mnt/disk/raspbian-tee/optee_os/lib/libutee/tee_api.c:293
    238c:	f006 b99c 	b.w	86c8 <calloc>
/mnt/disk/raspbian-tee/optee_os/lib/libutee/tee_api.c:294
    2390:	f1b1 4f00 	cmp.w	r1, #2147483648	; 0x80000000
    2394:	d104      	bne.n	23a0 <TEE_Malloc+0x22>
/mnt/disk/raspbian-tee/optee_os/lib/libutee/tee_api.c:300
    2396:	b003      	add	sp, #12
    2398:	f85d eb04 	ldr.w	lr, [sp], #4
/mnt/disk/raspbian-tee/optee_os/lib/libutee/tee_api.c:295
    239c:	f006 b98a 	b.w	86b4 <malloc>
/mnt/disk/raspbian-tee/optee_os/lib/libutee/tee_api.c:297
    23a0:	4b07      	ldr	r3, [pc, #28]	; (23c0 <TEE_Malloc+0x42>)
    23a2:	4808      	ldr	r0, [pc, #32]	; (23c4 <TEE_Malloc+0x46>)
    23a4:	447b      	add	r3, pc
    23a6:	9300      	str	r3, [sp, #0]
    23a8:	2301      	movs	r3, #1
    23aa:	9101      	str	r1, [sp, #4]
    23ac:	461a      	mov	r2, r3
    23ae:	f240 1129 	movw	r1, #297	; 0x129
    23b2:	4478      	add	r0, pc
    23b4:	f7ff f972 	bl	169c <trace_printf>
/mnt/disk/raspbian-tee/optee_os/lib/libutee/tee_api.c:300
    23b8:	2000      	movs	r0, #0
    23ba:	b003      	add	sp, #12
    23bc:	f85d fb04 	ldr.w	pc, [sp], #4
    23c0:	0000723e 	.word	0x0000723e
    23c4:	00007225 	.word	0x00007225

000023c8 <TEE_Realloc>:
TEE_Realloc():
/mnt/disk/raspbian-tee/optee_os/lib/libutee/tee_api.c:304
    23c8:	f006 b9a2 	b.w	8710 <realloc>

000023cc <TEE_Free>:
TEE_Free():
/mnt/disk/raspbian-tee/optee_os/lib/libutee/tee_api.c:309
    23cc:	f006 b973 	b.w	86b6 <free>

000023d0 <TEE_CacheClean>:
TEE_CacheClean():
/mnt/disk/raspbian-tee/optee_os/lib/libutee/tee_api.c:315
    23d0:	2200      	movs	r2, #0
    23d2:	f006 bdfd 	b.w	8fd0 <__utee_cache_operation_from_thumb>

000023d6 <TEE_CacheFlush>:
TEE_CacheFlush():
/mnt/disk/raspbian-tee/optee_os/lib/libutee/tee_api.c:319
    23d6:	2201      	movs	r2, #1
    23d8:	f006 bdfa 	b.w	8fd0 <__utee_cache_operation_from_thumb>

000023dc <TEE_CacheInvalidate>:
TEE_CacheInvalidate():
/mnt/disk/raspbian-tee/optee_os/lib/libutee/tee_api.c:324
    23dc:	2202      	movs	r2, #2
    23de:	f006 bdf7 	b.w	8fd0 <__utee_cache_operation_from_thumb>
    23e2:	bf00      	nop

000023e4 <tee_buffer_update>:
tee_buffer_update():
/mnt/disk/raspbian-tee/optee_os/lib/libutee/tee_api_operations.c:852
    23e4:	e92d 4ff0 	stmdb	sp!, {r4, r5, r6, r7, r8, r9, sl, fp, lr}
    23e8:	461f      	mov	r7, r3
    23ea:	4604      	mov	r4, r0
    23ec:	b087      	sub	sp, #28
    23ee:	468b      	mov	fp, r1
/mnt/disk/raspbian-tee/optee_os/lib/libutee/tee_api_operations.c:864
    23f0:	4692      	mov	sl, r2
/mnt/disk/raspbian-tee/optee_os/lib/libutee/tee_api_operations.c:857
    23f2:	9b11      	ldr	r3, [sp, #68]	; 0x44
/mnt/disk/raspbian-tee/optee_os/lib/libutee/tee_api_operations.c:852
    23f4:	f8dd 8040 	ldr.w	r8, [sp, #64]	; 0x40
/mnt/disk/raspbian-tee/optee_os/lib/libutee/tee_api_operations.c:857
    23f8:	e9d3 0100 	ldrd	r0, r1, [r3]
    23fc:	e9cd 0102 	strd	r0, r1, [sp, #8]
/mnt/disk/raspbian-tee/optee_os/lib/libutee/tee_api_operations.c:864
    2400:	b962      	cbnz	r2, 241c <tee_buffer_update+0x38>
/mnt/disk/raspbian-tee/optee_os/lib/libutee/tee_api_operations.c:865
    2402:	b93f      	cbnz	r7, 2414 <tee_buffer_update+0x30>
/mnt/disk/raspbian-tee/optee_os/lib/libutee/tee_api_operations.c:858
    2404:	2500      	movs	r5, #0
/mnt/disk/raspbian-tee/optee_os/lib/libutee/tee_api_operations.c:940
    2406:	9b11      	ldr	r3, [sp, #68]	; 0x44
    2408:	2000      	movs	r0, #0
    240a:	601d      	str	r5, [r3, #0]
    240c:	6058      	str	r0, [r3, #4]
/mnt/disk/raspbian-tee/optee_os/lib/libutee/tee_api_operations.c:942
    240e:	b007      	add	sp, #28
    2410:	e8bd 8ff0 	ldmia.w	sp!, {r4, r5, r6, r7, r8, r9, sl, fp, pc}
/mnt/disk/raspbian-tee/optee_os/lib/libutee/tee_api_operations.c:866
    2414:	4610      	mov	r0, r2
    2416:	f006 fd71 	bl	8efc <TEE_Panic>
    241a:	e7f3      	b.n	2404 <tee_buffer_update+0x20>
/mnt/disk/raspbian-tee/optee_os/lib/libutee/tee_api_operations.c:870
    241c:	f894 3030 	ldrb.w	r3, [r4, #48]	; 0x30
    2420:	6b65      	ldr	r5, [r4, #52]	; 0x34
    2422:	2b00      	cmp	r3, #0
    2424:	d05b      	beq.n	24de <tee_buffer_update+0xfa>
/mnt/disk/raspbian-tee/optee_os/lib/libutee/tee_api_operations.c:871
    2426:	006e      	lsls	r6, r5, #1
/mnt/disk/raspbian-tee/optee_os/lib/libutee/tee_api_operations.c:872
    2428:	f04f 0901 	mov.w	r9, #1
/mnt/disk/raspbian-tee/optee_os/lib/libutee/tee_api_operations.c:878
    242c:	6ba0      	ldr	r0, [r4, #56]	; 0x38
    242e:	b1c8      	cbz	r0, 2464 <tee_buffer_update+0x80>
/mnt/disk/raspbian-tee/optee_os/lib/libutee/tee_api_operations.c:880
    2430:	42a8      	cmp	r0, r5
/mnt/disk/raspbian-tee/optee_os/lib/libutee/tee_api_operations.c:884
    2432:	6ae3      	ldr	r3, [r4, #44]	; 0x2c
/mnt/disk/raspbian-tee/optee_os/lib/libutee/tee_api_operations.c:883
    2434:	bf28      	it	cs
    2436:	1a35      	subcs	r5, r6, r0
/mnt/disk/raspbian-tee/optee_os/lib/libutee/tee_api_operations.c:881
    2438:	bf38      	it	cc
    243a:	1a2d      	subcc	r5, r5, r0
/mnt/disk/raspbian-tee/optee_os/lib/libutee/tee_api_operations.c:883
    243c:	42bd      	cmp	r5, r7
/mnt/disk/raspbian-tee/optee_os/lib/libutee/tee_api_operations.c:884
    243e:	4651      	mov	r1, sl
/mnt/disk/raspbian-tee/optee_os/lib/libutee/tee_api_operations.c:883
    2440:	bf28      	it	cs
    2442:	463d      	movcs	r5, r7
/mnt/disk/raspbian-tee/optee_os/lib/libutee/tee_api_operations.c:884
    2444:	4418      	add	r0, r3
    2446:	462a      	mov	r2, r5
    2448:	f006 fd7f 	bl	8f4a <memcpy>
/mnt/disk/raspbian-tee/optee_os/lib/libutee/tee_api_operations.c:885
    244c:	6ba3      	ldr	r3, [r4, #56]	; 0x38
/mnt/disk/raspbian-tee/optee_os/lib/libutee/tee_api_operations.c:888
    244e:	6b61      	ldr	r1, [r4, #52]	; 0x34
/mnt/disk/raspbian-tee/optee_os/lib/libutee/tee_api_operations.c:885
    2450:	442b      	add	r3, r5
    2452:	63a3      	str	r3, [r4, #56]	; 0x38
/mnt/disk/raspbian-tee/optee_os/lib/libutee/tee_api_operations.c:888
    2454:	fbb3 f2f1 	udiv	r2, r3, r1
    2458:	fb01 3312 	mls	r3, r1, r2, r3
    245c:	2b00      	cmp	r3, #0
    245e:	d1d1      	bne.n	2404 <tee_buffer_update+0x20>
/mnt/disk/raspbian-tee/optee_os/lib/libutee/tee_api_operations.c:886
    2460:	44aa      	add	sl, r5
/mnt/disk/raspbian-tee/optee_os/lib/libutee/tee_api_operations.c:887
    2462:	1b7f      	subs	r7, r7, r5
/mnt/disk/raspbian-tee/optee_os/lib/libutee/tee_api_operations.c:893
    2464:	6ba5      	ldr	r5, [r4, #56]	; 0x38
/mnt/disk/raspbian-tee/optee_os/lib/libutee/tee_api_operations.c:857
    2466:	9902      	ldr	r1, [sp, #8]
/mnt/disk/raspbian-tee/optee_os/lib/libutee/tee_api_operations.c:893
    2468:	2d00      	cmp	r5, #0
    246a:	d03c      	beq.n	24e6 <tee_buffer_update+0x102>
/mnt/disk/raspbian-tee/optee_os/lib/libutee/tee_api_operations.c:894 (discriminator 1)
    246c:	1978      	adds	r0, r7, r5
    246e:	eb06 0309 	add.w	r3, r6, r9
/mnt/disk/raspbian-tee/optee_os/lib/libutee/tee_api_operations.c:893 (discriminator 1)
    2472:	4298      	cmp	r0, r3
    2474:	d336      	bcc.n	24e4 <tee_buffer_update+0x100>
/mnt/disk/raspbian-tee/optee_os/lib/libutee/tee_api_operations.c:895
    2476:	6b62      	ldr	r2, [r4, #52]	; 0x34
    2478:	1e53      	subs	r3, r2, #1
    247a:	4252      	negs	r2, r2
    247c:	1b9b      	subs	r3, r3, r6
    247e:	4403      	add	r3, r0
    2480:	4013      	ands	r3, r2
/mnt/disk/raspbian-tee/optee_os/lib/libutee/tee_api_operations.c:897
    2482:	429d      	cmp	r5, r3
    2484:	bf28      	it	cs
    2486:	461d      	movcs	r5, r3
/mnt/disk/raspbian-tee/optee_os/lib/libutee/tee_api_operations.c:898
    2488:	ab06      	add	r3, sp, #24
    248a:	e9dd 0102 	ldrd	r0, r1, [sp, #8]
    248e:	2100      	movs	r1, #0
    2490:	e963 0102 	strd	r0, r1, [r3, #-8]!
/mnt/disk/raspbian-tee/optee_os/lib/libutee/tee_api_operations.c:899
    2494:	462a      	mov	r2, r5
    2496:	6ae1      	ldr	r1, [r4, #44]	; 0x2c
    2498:	9300      	str	r3, [sp, #0]
    249a:	4643      	mov	r3, r8
    249c:	6be0      	ldr	r0, [r4, #60]	; 0x3c
    249e:	47d8      	blx	fp
/mnt/disk/raspbian-tee/optee_os/lib/libutee/tee_api_operations.c:900
    24a0:	b108      	cbz	r0, 24a6 <tee_buffer_update+0xc2>
/mnt/disk/raspbian-tee/optee_os/lib/libutee/tee_api_operations.c:901
    24a2:	f006 fd2b 	bl	8efc <TEE_Panic>
/mnt/disk/raspbian-tee/optee_os/lib/libutee/tee_api_operations.c:902
    24a6:	9b04      	ldr	r3, [sp, #16]
/mnt/disk/raspbian-tee/optee_os/lib/libutee/tee_api_operations.c:903
    24a8:	9a02      	ldr	r2, [sp, #8]
/mnt/disk/raspbian-tee/optee_os/lib/libutee/tee_api_operations.c:902
    24aa:	4498      	add	r8, r3
/mnt/disk/raspbian-tee/optee_os/lib/libutee/tee_api_operations.c:903
    24ac:	1ad1      	subs	r1, r2, r3
/mnt/disk/raspbian-tee/optee_os/lib/libutee/tee_api_operations.c:905
    24ae:	6ba2      	ldr	r2, [r4, #56]	; 0x38
    24b0:	1b52      	subs	r2, r2, r5
    24b2:	63a2      	str	r2, [r4, #56]	; 0x38
/mnt/disk/raspbian-tee/optee_os/lib/libutee/tee_api_operations.c:906
    24b4:	2a00      	cmp	r2, #0
    24b6:	d03f      	beq.n	2538 <tee_buffer_update+0x154>
/mnt/disk/raspbian-tee/optee_os/lib/libutee/tee_api_operations.c:910
    24b8:	6ae0      	ldr	r0, [r4, #44]	; 0x2c
    24ba:	1b72      	subs	r2, r6, r5
    24bc:	9302      	str	r3, [sp, #8]
    24be:	1941      	adds	r1, r0, r5
    24c0:	f006 fd43 	bl	8f4a <memcpy>
/mnt/disk/raspbian-tee/optee_os/lib/libutee/tee_api_operations.c:911
    24c4:	6ae5      	ldr	r5, [r4, #44]	; 0x2c
    24c6:	6ba0      	ldr	r0, [r4, #56]	; 0x38
    24c8:	463a      	mov	r2, r7
    24ca:	4651      	mov	r1, sl
    24cc:	4428      	add	r0, r5
    24ce:	f006 fd3c 	bl	8f4a <memcpy>
/mnt/disk/raspbian-tee/optee_os/lib/libutee/tee_api_operations.c:912
    24d2:	6ba2      	ldr	r2, [r4, #56]	; 0x38
/mnt/disk/raspbian-tee/optee_os/lib/libutee/tee_api_operations.c:904
    24d4:	9b02      	ldr	r3, [sp, #8]
/mnt/disk/raspbian-tee/optee_os/lib/libutee/tee_api_operations.c:912
    24d6:	4417      	add	r7, r2
    24d8:	63a7      	str	r7, [r4, #56]	; 0x38
/mnt/disk/raspbian-tee/optee_os/lib/libutee/tee_api_operations.c:904
    24da:	461d      	mov	r5, r3
/mnt/disk/raspbian-tee/optee_os/lib/libutee/tee_api_operations.c:913
    24dc:	e793      	b.n	2406 <tee_buffer_update+0x22>
/mnt/disk/raspbian-tee/optee_os/lib/libutee/tee_api_operations.c:874
    24de:	462e      	mov	r6, r5
/mnt/disk/raspbian-tee/optee_os/lib/libutee/tee_api_operations.c:875
    24e0:	4699      	mov	r9, r3
    24e2:	e7a3      	b.n	242c <tee_buffer_update+0x48>
/mnt/disk/raspbian-tee/optee_os/lib/libutee/tee_api_operations.c:858
    24e4:	2500      	movs	r5, #0
/mnt/disk/raspbian-tee/optee_os/lib/libutee/tee_api_operations.c:917
    24e6:	44b1      	add	r9, r6
    24e8:	454f      	cmp	r7, r9
    24ea:	d31a      	bcc.n	2522 <tee_buffer_update+0x13e>
/mnt/disk/raspbian-tee/optee_os/lib/libutee/tee_api_operations.c:919
    24ec:	6822      	ldr	r2, [r4, #0]
    24ee:	4b14      	ldr	r3, [pc, #80]	; (2540 <tee_buffer_update+0x15c>)
    24f0:	429a      	cmp	r2, r3
    24f2:	6b62      	ldr	r2, [r4, #52]	; 0x34
    24f4:	d122      	bne.n	253c <tee_buffer_update+0x158>
/mnt/disk/raspbian-tee/optee_os/lib/libutee/tee_api_operations.c:920
    24f6:	1e53      	subs	r3, r2, #1
    24f8:	1b9e      	subs	r6, r3, r6
/mnt/disk/raspbian-tee/optee_os/lib/libutee/tee_api_operations.c:922
    24fa:	4252      	negs	r2, r2
    24fc:	443e      	add	r6, r7
    24fe:	4016      	ands	r6, r2
/mnt/disk/raspbian-tee/optee_os/lib/libutee/tee_api_operations.c:924
    2500:	2300      	movs	r3, #0
    2502:	9104      	str	r1, [sp, #16]
/mnt/disk/raspbian-tee/optee_os/lib/libutee/tee_api_operations.c:925
    2504:	4632      	mov	r2, r6
/mnt/disk/raspbian-tee/optee_os/lib/libutee/tee_api_operations.c:924
    2506:	9305      	str	r3, [sp, #20]
/mnt/disk/raspbian-tee/optee_os/lib/libutee/tee_api_operations.c:925
    2508:	4651      	mov	r1, sl
    250a:	ab04      	add	r3, sp, #16
    250c:	6be0      	ldr	r0, [r4, #60]	; 0x3c
    250e:	9300      	str	r3, [sp, #0]
    2510:	4643      	mov	r3, r8
    2512:	47d8      	blx	fp
/mnt/disk/raspbian-tee/optee_os/lib/libutee/tee_api_operations.c:926
    2514:	b108      	cbz	r0, 251a <tee_buffer_update+0x136>
/mnt/disk/raspbian-tee/optee_os/lib/libutee/tee_api_operations.c:927
    2516:	f006 fcf1 	bl	8efc <TEE_Panic>
/mnt/disk/raspbian-tee/optee_os/lib/libutee/tee_api_operations.c:932
    251a:	9b04      	ldr	r3, [sp, #16]
/mnt/disk/raspbian-tee/optee_os/lib/libutee/tee_api_operations.c:928
    251c:	44b2      	add	sl, r6
/mnt/disk/raspbian-tee/optee_os/lib/libutee/tee_api_operations.c:929
    251e:	1bbf      	subs	r7, r7, r6
/mnt/disk/raspbian-tee/optee_os/lib/libutee/tee_api_operations.c:932
    2520:	441d      	add	r5, r3
/mnt/disk/raspbian-tee/optee_os/lib/libutee/tee_api_operations.c:936
    2522:	6ba3      	ldr	r3, [r4, #56]	; 0x38
    2524:	463a      	mov	r2, r7
    2526:	6ae0      	ldr	r0, [r4, #44]	; 0x2c
    2528:	4651      	mov	r1, sl
    252a:	4418      	add	r0, r3
    252c:	f006 fd0d 	bl	8f4a <memcpy>
/mnt/disk/raspbian-tee/optee_os/lib/libutee/tee_api_operations.c:937
    2530:	6ba3      	ldr	r3, [r4, #56]	; 0x38
    2532:	441f      	add	r7, r3
    2534:	63a7      	str	r7, [r4, #56]	; 0x38
    2536:	e766      	b.n	2406 <tee_buffer_update+0x22>
/mnt/disk/raspbian-tee/optee_os/lib/libutee/tee_api_operations.c:904
    2538:	461d      	mov	r5, r3
    253a:	e7d4      	b.n	24e6 <tee_buffer_update+0x102>
/mnt/disk/raspbian-tee/optee_os/lib/libutee/tee_api_operations.c:922
    253c:	1b96      	subs	r6, r2, r6
    253e:	e7dc      	b.n	24fa <tee_buffer_update+0x116>
    2540:	10000310 	.word	0x10000310

00002544 <TEE_FreeOperation>:
TEE_FreeOperation():
/mnt/disk/raspbian-tee/optee_os/lib/libutee/tee_api_operations.c:351
    2544:	b510      	push	{r4, lr}
/mnt/disk/raspbian-tee/optee_os/lib/libutee/tee_api_operations.c:354
    2546:	4604      	mov	r4, r0
    2548:	b908      	cbnz	r0, 254e <TEE_FreeOperation+0xa>
/mnt/disk/raspbian-tee/optee_os/lib/libutee/tee_api_operations.c:355
    254a:	f006 fcd7 	bl	8efc <TEE_Panic>
/mnt/disk/raspbian-tee/optee_os/lib/libutee/tee_api_operations.c:362
    254e:	6be0      	ldr	r0, [r4, #60]	; 0x3c
    2550:	f001 ebf2 	blx	3d38 <utee_cryp_state_free>
/mnt/disk/raspbian-tee/optee_os/lib/libutee/tee_api_operations.c:363
    2554:	b108      	cbz	r0, 255a <TEE_FreeOperation+0x16>
/mnt/disk/raspbian-tee/optee_os/lib/libutee/tee_api_operations.c:364
    2556:	f006 fcd1 	bl	8efc <TEE_Panic>
/mnt/disk/raspbian-tee/optee_os/lib/libutee/tee_api_operations.c:366
    255a:	6ae0      	ldr	r0, [r4, #44]	; 0x2c
    255c:	f7ff ff36 	bl	23cc <TEE_Free>
/mnt/disk/raspbian-tee/optee_os/lib/libutee/tee_api_operations.c:367
    2560:	4620      	mov	r0, r4
/mnt/disk/raspbian-tee/optee_os/lib/libutee/tee_api_operations.c:368
    2562:	e8bd 4010 	ldmia.w	sp!, {r4, lr}
/mnt/disk/raspbian-tee/optee_os/lib/libutee/tee_api_operations.c:367
    2566:	f7ff bf31 	b.w	23cc <TEE_Free>

0000256a <TEE_AllocateOperation>:
TEE_AllocateOperation():
/mnt/disk/raspbian-tee/optee_os/lib/libutee/tee_api_operations.c:37
    256a:	e92d 4ff0 	stmdb	sp!, {r4, r5, r6, r7, r8, r9, sl, fp, lr}
    256e:	460c      	mov	r4, r1
    2570:	4617      	mov	r7, r2
    2572:	b087      	sub	sp, #28
    2574:	4699      	mov	r9, r3
/mnt/disk/raspbian-tee/optee_os/lib/libutee/tee_api_operations.c:46
    2576:	9003      	str	r0, [sp, #12]
    2578:	b908      	cbnz	r0, 257e <TEE_AllocateOperation+0x14>
/mnt/disk/raspbian-tee/optee_os/lib/libutee/tee_api_operations.c:47
    257a:	f006 fcbf 	bl	8efc <TEE_Panic>
/mnt/disk/raspbian-tee/optee_os/lib/libutee/tee_api_operations.c:49
    257e:	4bba      	ldr	r3, [pc, #744]	; (2868 <TEE_AllocateOperation+0x2fe>)
    2580:	429c      	cmp	r4, r3
    2582:	f000 81b6 	beq.w	28f2 <TEE_AllocateOperation+0x388>
/mnt/disk/raspbian-tee/optee_os/lib/libutee/tee_api_operations.c:53
    2586:	4bb9      	ldr	r3, [pc, #740]	; (286c <TEE_AllocateOperation+0x302>)
    2588:	429c      	cmp	r4, r3
    258a:	d06e      	beq.n	266a <TEE_AllocateOperation+0x100>
    258c:	d83f      	bhi.n	260e <TEE_AllocateOperation+0xa4>
    258e:	4ab8      	ldr	r2, [pc, #736]	; (2870 <TEE_AllocateOperation+0x306>)
    2590:	4294      	cmp	r4, r2
    2592:	d055      	beq.n	2640 <TEE_AllocateOperation+0xd6>
    2594:	d82d      	bhi.n	25f2 <TEE_AllocateOperation+0x88>
    2596:	f5a2 5287 	sub.w	r2, r2, #4320	; 0x10e0
    259a:	3a10      	subs	r2, #16
    259c:	4294      	cmp	r4, r2
    259e:	d040      	beq.n	2622 <TEE_AllocateOperation+0xb8>
    25a0:	f502 5280 	add.w	r2, r2, #4096	; 0x1000
    25a4:	4294      	cmp	r4, r2
    25a6:	d065      	beq.n	2674 <TEE_AllocateOperation+0x10a>
/mnt/disk/raspbian-tee/optee_os/lib/libutee/tee_api_operations.c:108
    25a8:	4ab2      	ldr	r2, [pc, #712]	; (2874 <TEE_AllocateOperation+0x30a>)
    25aa:	4294      	cmp	r4, r2
    25ac:	d050      	beq.n	2650 <TEE_AllocateOperation+0xe6>
    25ae:	f200 80d8 	bhi.w	2762 <TEE_AllocateOperation+0x1f8>
    25b2:	4bb1      	ldr	r3, [pc, #708]	; (2878 <TEE_AllocateOperation+0x30e>)
    25b4:	429c      	cmp	r4, r3
    25b6:	d07d      	beq.n	26b4 <TEE_AllocateOperation+0x14a>
    25b8:	f200 808e 	bhi.w	26d8 <TEE_AllocateOperation+0x16e>
    25bc:	4baf      	ldr	r3, [pc, #700]	; (287c <TEE_AllocateOperation+0x312>)
    25be:	429c      	cmp	r4, r3
    25c0:	f000 81a9 	beq.w	2916 <TEE_AllocateOperation+0x3ac>
    25c4:	d86b      	bhi.n	269e <TEE_AllocateOperation+0x134>
    25c6:	f46f 71ff 	mvn.w	r1, #510	; 0x1fe
    25ca:	440b      	add	r3, r1
    25cc:	429c      	cmp	r4, r3
    25ce:	d85b      	bhi.n	2688 <TEE_AllocateOperation+0x11e>
    25d0:	3b01      	subs	r3, #1
    25d2:	429c      	cmp	r4, r3
    25d4:	d209      	bcs.n	25ea <TEE_AllocateOperation+0x80>
    25d6:	f5a3 7380 	sub.w	r3, r3, #256	; 0x100
    25da:	429c      	cmp	r4, r3
    25dc:	d324      	bcc.n	2628 <TEE_AllocateOperation+0xbe>
    25de:	3301      	adds	r3, #1
    25e0:	429c      	cmp	r4, r3
    25e2:	d902      	bls.n	25ea <TEE_AllocateOperation+0x80>
    25e4:	3302      	adds	r3, #2
    25e6:	429c      	cmp	r4, r3
    25e8:	d11e      	bne.n	2628 <TEE_AllocateOperation+0xbe>
    25ea:	f04f 0800 	mov.w	r8, #0
/mnt/disk/raspbian-tee/optee_os/lib/libutee/tee_api_operations.c:44
    25ee:	4646      	mov	r6, r8
    25f0:	e182      	b.n	28f8 <TEE_AllocateOperation+0x38e>
/mnt/disk/raspbian-tee/optee_os/lib/libutee/tee_api_operations.c:53
    25f2:	4aa3      	ldr	r2, [pc, #652]	; (2880 <TEE_AllocateOperation+0x316>)
    25f4:	4294      	cmp	r4, r2
    25f6:	d034      	beq.n	2662 <TEE_AllocateOperation+0xf8>
    25f8:	f502 6271 	add.w	r2, r2, #3856	; 0xf10
    25fc:	4294      	cmp	r4, r2
    25fe:	d03c      	beq.n	267a <TEE_AllocateOperation+0x110>
    2600:	f5a2 5280 	sub.w	r2, r2, #4096	; 0x1000
    2604:	4294      	cmp	r4, r2
    2606:	d1cf      	bne.n	25a8 <TEE_AllocateOperation+0x3e>
/mnt/disk/raspbian-tee/optee_os/lib/libutee/tee_api_operations.c:87
    2608:	f5b9 7f80 	cmp.w	r9, #256	; 0x100
    260c:	e00b      	b.n	2626 <TEE_AllocateOperation+0xbc>
/mnt/disk/raspbian-tee/optee_os/lib/libutee/tee_api_operations.c:53
    260e:	4a9d      	ldr	r2, [pc, #628]	; (2884 <TEE_AllocateOperation+0x31a>)
    2610:	4294      	cmp	r4, r2
    2612:	d02f      	beq.n	2674 <TEE_AllocateOperation+0x10a>
    2614:	d80a      	bhi.n	262c <TEE_AllocateOperation+0xc2>
    2616:	4a9c      	ldr	r2, [pc, #624]	; (2888 <TEE_AllocateOperation+0x31e>)
    2618:	4294      	cmp	r4, r2
    261a:	d031      	beq.n	2680 <TEE_AllocateOperation+0x116>
    261c:	4a9b      	ldr	r2, [pc, #620]	; (288c <TEE_AllocateOperation+0x322>)
    261e:	4294      	cmp	r4, r2
    2620:	d1c2      	bne.n	25a8 <TEE_AllocateOperation+0x3e>
/mnt/disk/raspbian-tee/optee_os/lib/libutee/tee_api_operations.c:75
    2622:	f1b9 0fc0 	cmp.w	r9, #192	; 0xc0
/mnt/disk/raspbian-tee/optee_os/lib/libutee/tee_api_operations.c:99
    2626:	d0bf      	beq.n	25a8 <TEE_AllocateOperation+0x3e>
/mnt/disk/raspbian-tee/optee_os/lib/libutee/tee_api_operations.c:56
    2628:	4e99      	ldr	r6, [pc, #612]	; (2890 <TEE_AllocateOperation+0x326>)
    262a:	e1ca      	b.n	29c2 <TEE_AllocateOperation+0x458>
/mnt/disk/raspbian-tee/optee_os/lib/libutee/tee_api_operations.c:53
    262c:	4a99      	ldr	r2, [pc, #612]	; (2894 <TEE_AllocateOperation+0x32a>)
    262e:	4294      	cmp	r4, r2
    2630:	d023      	beq.n	267a <TEE_AllocateOperation+0x110>
    2632:	f502 5280 	add.w	r2, r2, #4096	; 0x1000
    2636:	4294      	cmp	r4, r2
    2638:	d022      	beq.n	2680 <TEE_AllocateOperation+0x116>
    263a:	f5a2 5200 	sub.w	r2, r2, #8192	; 0x2000
    263e:	e7e1      	b.n	2604 <TEE_AllocateOperation+0x9a>
/mnt/disk/raspbian-tee/optee_os/lib/libutee/tee_api_operations.c:55
    2640:	f5a9 7300 	sub.w	r3, r9, #512	; 0x200
    2644:	f5b3 7f00 	cmp.w	r3, #512	; 0x200
    2648:	d8ee      	bhi.n	2628 <TEE_AllocateOperation+0xbe>
/mnt/disk/raspbian-tee/optee_os/lib/libutee/tee_api_operations.c:59
    264a:	f019 0f3f 	tst.w	r9, #63	; 0x3f
    264e:	d1eb      	bne.n	2628 <TEE_AllocateOperation+0xbe>
/mnt/disk/raspbian-tee/optee_os/lib/libutee/tee_api_operations.c:157
    2650:	2f02      	cmp	r7, #2
    2652:	f000 81bd 	beq.w	29d0 <TEE_AllocateOperation+0x466>
/mnt/disk/raspbian-tee/optee_os/lib/libutee/tee_api_operations.c:160
    2656:	2f03      	cmp	r7, #3
    2658:	d1e6      	bne.n	2628 <TEE_AllocateOperation+0xbe>
/mnt/disk/raspbian-tee/optee_os/lib/libutee/tee_api_operations.c:44
    265a:	2600      	movs	r6, #0
/mnt/disk/raspbian-tee/optee_os/lib/libutee/tee_api_operations.c:161
    265c:	2220      	movs	r2, #32
/mnt/disk/raspbian-tee/optee_os/lib/libutee/tee_api_operations.c:43
    265e:	46b2      	mov	sl, r6
    2660:	e02d      	b.n	26be <TEE_AllocateOperation+0x154>
/mnt/disk/raspbian-tee/optee_os/lib/libutee/tee_api_operations.c:64
    2662:	f5b9 6f00 	cmp.w	r9, #2048	; 0x800
/mnt/disk/raspbian-tee/optee_os/lib/libutee/tee_api_operations.c:108
    2666:	d1df      	bne.n	2628 <TEE_AllocateOperation+0xbe>
    2668:	e7f2      	b.n	2650 <TEE_AllocateOperation+0xe6>
/mnt/disk/raspbian-tee/optee_os/lib/libutee/tee_api_operations.c:69
    266a:	f429 6380 	bic.w	r3, r9, #1024	; 0x400
    266e:	f5b3 6f00 	cmp.w	r3, #2048	; 0x800
    2672:	e7f8      	b.n	2666 <TEE_AllocateOperation+0xfc>
/mnt/disk/raspbian-tee/optee_os/lib/libutee/tee_api_operations.c:81
    2674:	f1b9 0fe0 	cmp.w	r9, #224	; 0xe0
    2678:	e7d5      	b.n	2626 <TEE_AllocateOperation+0xbc>
/mnt/disk/raspbian-tee/optee_os/lib/libutee/tee_api_operations.c:93
    267a:	f5b9 7fc0 	cmp.w	r9, #384	; 0x180
    267e:	e7d2      	b.n	2626 <TEE_AllocateOperation+0xbc>
/mnt/disk/raspbian-tee/optee_os/lib/libutee/tee_api_operations.c:99
    2680:	f240 2209 	movw	r2, #521	; 0x209
    2684:	4591      	cmp	r9, r2
    2686:	e7ce      	b.n	2626 <TEE_AllocateOperation+0xbc>
/mnt/disk/raspbian-tee/optee_os/lib/libutee/tee_api_operations.c:108
    2688:	4b83      	ldr	r3, [pc, #524]	; (2898 <TEE_AllocateOperation+0x32e>)
    268a:	429c      	cmp	r4, r3
    268c:	d0ad      	beq.n	25ea <TEE_AllocateOperation+0x80>
    268e:	33fd      	adds	r3, #253	; 0xfd
    2690:	429c      	cmp	r4, r3
    2692:	d1c9      	bne.n	2628 <TEE_AllocateOperation+0xbe>
    2694:	f04f 0800 	mov.w	r8, #0
/mnt/disk/raspbian-tee/optee_os/lib/libutee/tee_api_operations.c:41
    2698:	2301      	movs	r3, #1
/mnt/disk/raspbian-tee/optee_os/lib/libutee/tee_api_operations.c:44
    269a:	4646      	mov	r6, r8
    269c:	e132      	b.n	2904 <TEE_AllocateOperation+0x39a>
/mnt/disk/raspbian-tee/optee_os/lib/libutee/tee_api_operations.c:108
    269e:	4b7f      	ldr	r3, [pc, #508]	; (289c <TEE_AllocateOperation+0x332>)
    26a0:	429c      	cmp	r4, r3
    26a2:	d80f      	bhi.n	26c4 <TEE_AllocateOperation+0x15a>
    26a4:	3b01      	subs	r3, #1
    26a6:	429c      	cmp	r4, r3
    26a8:	d204      	bcs.n	26b4 <TEE_AllocateOperation+0x14a>
    26aa:	f104 4350 	add.w	r3, r4, #3489660928	; 0xd0000000
    26ae:	3b01      	subs	r3, #1
    26b0:	2b05      	cmp	r3, #5
    26b2:	d8b9      	bhi.n	2628 <TEE_AllocateOperation+0xbe>
/mnt/disk/raspbian-tee/optee_os/lib/libutee/tee_api_operations.c:244
    26b4:	2f04      	cmp	r7, #4
    26b6:	d1b7      	bne.n	2628 <TEE_AllocateOperation+0xbe>
/mnt/disk/raspbian-tee/optee_os/lib/libutee/tee_api_operations.c:44
    26b8:	2600      	movs	r6, #0
/mnt/disk/raspbian-tee/optee_os/lib/libutee/tee_api_operations.c:246
    26ba:	2208      	movs	r2, #8
/mnt/disk/raspbian-tee/optee_os/lib/libutee/tee_api_operations.c:43
    26bc:	46b2      	mov	sl, r6
/mnt/disk/raspbian-tee/optee_os/lib/libutee/tee_api_operations.c:41
    26be:	2301      	movs	r3, #1
    26c0:	46b0      	mov	r8, r6
    26c2:	e13e      	b.n	2942 <TEE_AllocateOperation+0x3d8>
/mnt/disk/raspbian-tee/optee_os/lib/libutee/tee_api_operations.c:108
    26c4:	4b76      	ldr	r3, [pc, #472]	; (28a0 <TEE_AllocateOperation+0x336>)
    26c6:	429c      	cmp	r4, r3
    26c8:	d0f4      	beq.n	26b4 <TEE_AllocateOperation+0x14a>
    26ca:	d3ad      	bcc.n	2628 <TEE_AllocateOperation+0xbe>
    26cc:	f104 4350 	add.w	r3, r4, #3489660928	; 0xd0000000
    26d0:	f5a3 63a2 	sub.w	r3, r3, #1296	; 0x510
    26d4:	2b01      	cmp	r3, #1
    26d6:	e7ec      	b.n	26b2 <TEE_AllocateOperation+0x148>
    26d8:	4b72      	ldr	r3, [pc, #456]	; (28a4 <TEE_AllocateOperation+0x33a>)
    26da:	429c      	cmp	r4, r3
    26dc:	d01b      	beq.n	2716 <TEE_AllocateOperation+0x1ac>
    26de:	d823      	bhi.n	2728 <TEE_AllocateOperation+0x1be>
    26e0:	4b71      	ldr	r3, [pc, #452]	; (28a8 <TEE_AllocateOperation+0x33e>)
    26e2:	429c      	cmp	r4, r3
    26e4:	d80f      	bhi.n	2706 <TEE_AllocateOperation+0x19c>
    26e6:	f1b4 4fa0 	cmp.w	r4, #1342177280	; 0x50000000
    26ea:	f200 8121 	bhi.w	2930 <TEE_AllocateOperation+0x3c6>
    26ee:	4b6f      	ldr	r3, [pc, #444]	; (28ac <TEE_AllocateOperation+0x342>)
    26f0:	429c      	cmp	r4, r3
    26f2:	f43f af7a 	beq.w	25ea <TEE_AllocateOperation+0x80>
    26f6:	f503 7380 	add.w	r3, r3, #256	; 0x100
    26fa:	429c      	cmp	r4, r3
    26fc:	d0ca      	beq.n	2694 <TEE_AllocateOperation+0x12a>
    26fe:	4b6c      	ldr	r3, [pc, #432]	; (28b0 <TEE_AllocateOperation+0x346>)
    2700:	429c      	cmp	r4, r3
    2702:	d191      	bne.n	2628 <TEE_AllocateOperation+0xbe>
    2704:	e7d6      	b.n	26b4 <TEE_AllocateOperation+0x14a>
    2706:	4b6b      	ldr	r3, [pc, #428]	; (28b4 <TEE_AllocateOperation+0x34a>)
    2708:	429c      	cmp	r4, r3
    270a:	f000 8107 	beq.w	291c <TEE_AllocateOperation+0x3b2>
    270e:	f503 7380 	add.w	r3, r3, #256	; 0x100
    2712:	429c      	cmp	r4, r3
    2714:	d188      	bne.n	2628 <TEE_AllocateOperation+0xbe>
/mnt/disk/raspbian-tee/optee_os/lib/libutee/tee_api_operations.c:173
    2716:	2f00      	cmp	r7, #0
    2718:	f000 815f 	beq.w	29da <TEE_AllocateOperation+0x470>
/mnt/disk/raspbian-tee/optee_os/lib/libutee/tee_api_operations.c:175
    271c:	2f01      	cmp	r7, #1
    271e:	d183      	bne.n	2628 <TEE_AllocateOperation+0xbe>
/mnt/disk/raspbian-tee/optee_os/lib/libutee/tee_api_operations.c:44
    2720:	2600      	movs	r6, #0
/mnt/disk/raspbian-tee/optee_os/lib/libutee/tee_api_operations.c:176
    2722:	46ba      	mov	sl, r7
/mnt/disk/raspbian-tee/optee_os/lib/libutee/tee_api_operations.c:177
    2724:	2204      	movs	r2, #4
    2726:	e7ca      	b.n	26be <TEE_AllocateOperation+0x154>
/mnt/disk/raspbian-tee/optee_os/lib/libutee/tee_api_operations.c:108
    2728:	4b63      	ldr	r3, [pc, #396]	; (28b8 <TEE_AllocateOperation+0x34e>)
    272a:	429c      	cmp	r4, r3
    272c:	d0f3      	beq.n	2716 <TEE_AllocateOperation+0x1ac>
    272e:	d80a      	bhi.n	2746 <TEE_AllocateOperation+0x1dc>
    2730:	f5a3 1300 	sub.w	r3, r3, #2097152	; 0x200000
    2734:	429c      	cmp	r4, r3
    2736:	d0ee      	beq.n	2716 <TEE_AllocateOperation+0x1ac>
    2738:	f503 1380 	add.w	r3, r3, #1048576	; 0x100000
    273c:	429c      	cmp	r4, r3
    273e:	d0ea      	beq.n	2716 <TEE_AllocateOperation+0x1ac>
    2740:	f5a3 1300 	sub.w	r3, r3, #2097152	; 0x200000
    2744:	e7e5      	b.n	2712 <TEE_AllocateOperation+0x1a8>
    2746:	4b5d      	ldr	r3, [pc, #372]	; (28bc <TEE_AllocateOperation+0x352>)
    2748:	429c      	cmp	r4, r3
    274a:	d081      	beq.n	2650 <TEE_AllocateOperation+0xe6>
    274c:	d802      	bhi.n	2754 <TEE_AllocateOperation+0x1ea>
    274e:	f2a3 73ef 	subw	r3, r3, #2031	; 0x7ef
    2752:	e004      	b.n	275e <TEE_AllocateOperation+0x1f4>
    2754:	4b5a      	ldr	r3, [pc, #360]	; (28c0 <TEE_AllocateOperation+0x356>)
    2756:	429c      	cmp	r4, r3
    2758:	f43f af7a 	beq.w	2650 <TEE_AllocateOperation+0xe6>
    275c:	33f0      	adds	r3, #240	; 0xf0
    275e:	429c      	cmp	r4, r3
    2760:	e781      	b.n	2666 <TEE_AllocateOperation+0xfc>
    2762:	4a4a      	ldr	r2, [pc, #296]	; (288c <TEE_AllocateOperation+0x322>)
    2764:	4294      	cmp	r4, r2
    2766:	d064      	beq.n	2832 <TEE_AllocateOperation+0x2c8>
    2768:	d843      	bhi.n	27f2 <TEE_AllocateOperation+0x288>
    276a:	4a56      	ldr	r2, [pc, #344]	; (28c4 <TEE_AllocateOperation+0x35a>)
    276c:	4294      	cmp	r4, r2
    276e:	f43f af6f 	beq.w	2650 <TEE_AllocateOperation+0xe6>
    2772:	d818      	bhi.n	27a6 <TEE_AllocateOperation+0x23c>
    2774:	f5a2 52bf 	sub.w	r2, r2, #6112	; 0x17e0
    2778:	3a0f      	subs	r2, #15
    277a:	4294      	cmp	r4, r2
    277c:	f43f af68 	beq.w	2650 <TEE_AllocateOperation+0xe6>
    2780:	d808      	bhi.n	2794 <TEE_AllocateOperation+0x22a>
    2782:	4b3f      	ldr	r3, [pc, #252]	; (2880 <TEE_AllocateOperation+0x316>)
    2784:	429c      	cmp	r4, r3
    2786:	f43f af63 	beq.w	2650 <TEE_AllocateOperation+0xe6>
    278a:	f203 63ff 	addw	r3, r3, #1791	; 0x6ff
    278e:	429c      	cmp	r4, r3
