
b9aa5f00-d229-11e4-925c0002a5d5c51b.elf:     file format elf32-littlearm
b9aa5f00-d229-11e4-925c0002a5d5c51b.elf
architecture: armv8-a, flags 0x00000150:
HAS_SYMS, DYNAMIC, D_PAGED
start address 0x00000020

Program Header:
0x70000001 off    0x00017464 vaddr 0x00007464 paddr 0x00007464 align 2**2
         filesz 0x00000500 memsz 0x00000500 flags r--
    LOAD off    0x00010000 vaddr 0x00000000 paddr 0x00000000 align 2**16
         filesz 0x00006170 memsz 0x00006170 flags r-x
    LOAD off    0x00016170 vaddr 0x00006170 paddr 0x00006170 align 2**16
         filesz 0x00001a34 memsz 0x00001a34 flags r--
    LOAD off    0x00018000 vaddr 0x00008000 paddr 0x00008000 align 2**16
         filesz 0x0000017c memsz 0x0000a520 flags rw-
 DYNAMIC off    0x00017ad0 vaddr 0x00007ad0 paddr 0x00007ad0 align 2**2
         filesz 0x00000088 memsz 0x00000088 flags rw-

Dynamic Section:
  HASH                 0x00007b8c
  GNU_HASH             0x0000741c
  STRTAB               0x00007b88
  SYMTAB               0x00007b58
  STRSZ                0x00000001
  SYMENT               0x00000010
  DEBUG                0x00000000
  REL                  0x00007998
  RELSZ                0x00000138
  RELENT               0x00000008
  FLAGS_1              0x08000000
  RELCOUNT             0x0000001d
private flags = 0x5000400: [Version5 EABI] [hard-float ABI]

Sections:
Idx Name          Size      VMA       LMA       File off  Algn
  0 .ta_head      00000020  00000000  00000000  00010000  2**3
                  CONTENTS, ALLOC, LOAD, DATA
  1 .text         00006150  00000020  00000020  00010020  2**3
                  CONTENTS, ALLOC, LOAD, READONLY, CODE
  2 .rodata       000011d4  00006170  00006170  00016170  2**2
                  CONTENTS, ALLOC, LOAD, READONLY, DATA
  3 .ARM.extab    000000d8  00007344  00007344  00017344  2**2
                  CONTENTS, ALLOC, LOAD, READONLY, DATA
  4 .gnu.hash     00000018  0000741c  0000741c  0001741c  2**2
                  CONTENTS, ALLOC, LOAD, READONLY, DATA
  5 .ARM.extab.text.__aeabi_ldivmod 0000000c  00007434  00007434  00017434  2**2
                  CONTENTS, ALLOC, LOAD, READONLY, DATA
  6 .ARM.extab.text.__aeabi_uldivmod 0000000c  00007440  00007440  00017440  2**2
                  CONTENTS, ALLOC, LOAD, READONLY, DATA
  7 .ARM.extab.text.utee_panic 0000000c  0000744c  0000744c  0001744c  2**2
                  CONTENTS, ALLOC, LOAD, READONLY, DATA
  8 .ARM.extab.text.unlikely 0000000c  00007458  00007458  00017458  2**2
                  CONTENTS, ALLOC, LOAD, READONLY, DATA
  9 .ARM.exidx    00000500  00007464  00007464  00017464  2**2
                  CONTENTS, ALLOC, LOAD, READONLY, DATA
 10 .got          00000034  00007964  00007964  00017964  2**2
                  CONTENTS, ALLOC, LOAD, DATA
 11 .dynsym       00000030  00007b58  00007b58  00017b58  2**2
                  CONTENTS, ALLOC, LOAD, READONLY, DATA
 12 .rel.got      00000050  00007a80  00007a80  00017a80  2**2
                  CONTENTS, ALLOC, LOAD, READONLY, DATA
 13 .dynamic      00000088  00007ad0  00007ad0  00017ad0  2**2
                  CONTENTS, ALLOC, LOAD, DATA
 14 .dynstr       00000001  00007b88  00007b88  00017b88  2**0
                  CONTENTS, ALLOC, LOAD, READONLY, DATA
 15 .hash         00000018  00007b8c  00007b8c  00017b8c  2**2
                  CONTENTS, ALLOC, LOAD, READONLY, DATA
 16 .data         0000017c  00008000  00008000  00018000  2**2
                  CONTENTS, ALLOC, LOAD, DATA
 17 .bss          0000a3a0  00008180  00008180  0001817c  2**3
                  ALLOC
 18 .debug_info   0000e17b  00000000  00000000  0001817c  2**0
                  CONTENTS, READONLY, DEBUGGING, OCTETS
 19 .debug_abbrev 00002997  00000000  00000000  000262f7  2**0
                  CONTENTS, READONLY, DEBUGGING, OCTETS
 20 .debug_loclists 00000722  00000000  00000000  00028c8e  2**0
                  CONTENTS, READONLY, DEBUGGING, OCTETS
 21 .debug_aranges 00000530  00000000  00000000  000293b0  2**3
                  CONTENTS, READONLY, DEBUGGING, OCTETS
 22 .debug_rnglists 0000004a  00000000  00000000  000298e0  2**0
                  CONTENTS, READONLY, DEBUGGING, OCTETS
 23 .debug_macro  000116ae  00000000  00000000  0002992a  2**0
                  CONTENTS, READONLY, DEBUGGING, OCTETS
 24 .debug_line   00005146  00000000  00000000  0003afd8  2**0
                  CONTENTS, READONLY, DEBUGGING, OCTETS
 25 .debug_str    00011805  00000000  00000000  0004011e  2**0
                  CONTENTS, READONLY, DEBUGGING, OCTETS
 26 .comment      0000004f  00000000  00000000  00051923  2**0
                  CONTENTS, READONLY
 27 .ARM.attributes 00000031  00000000  00000000  00051972  2**0
                  CONTENTS, READONLY
 28 .debug_frame  00001848  00000000  00000000  000519a4  2**2
                  CONTENTS, READONLY, DEBUGGING, OCTETS
 29 .rel.dyn      000000e8  00007998  00007998  00017998  2**2
                  CONTENTS, ALLOC, LOAD, READONLY, DATA
 30 .debug_loc    0000cd72  00000000  00000000  000531ec  2**0
                  CONTENTS, READONLY, DEBUGGING, OCTETS
 31 .debug_ranges 00000758  00000000  00000000  0005ff60  2**3
                  CONTENTS, READONLY, DEBUGGING, OCTETS
SYMBOL TABLE:
00000000 l    d  .ta_head	00000000 .ta_head
00000020 l    d  .text	00000000 .text
00006170 l    d  .rodata	00000000 .rodata
00007344 l    d  .ARM.extab	00000000 .ARM.extab
0000741c l    d  .gnu.hash	00000000 .gnu.hash
00007434 l    d  .ARM.extab.text.__aeabi_ldivmod	00000000 .ARM.extab.text.__aeabi_ldivmod
00007440 l    d  .ARM.extab.text.__aeabi_uldivmod	00000000 .ARM.extab.text.__aeabi_uldivmod
0000744c l    d  .ARM.extab.text.utee_panic	00000000 .ARM.extab.text.utee_panic
00007458 l    d  .ARM.extab.text.unlikely	00000000 .ARM.extab.text.unlikely
00007464 l    d  .ARM.exidx	00000000 .ARM.exidx
00007964 l    d  .got	00000000 .got
00007a80 l    d  .rel.got	00000000 .rel.got
00007ad0 l    d  .dynamic	00000000 .dynamic
00007b58 l    d  .dynsym	00000000 .dynsym
00007b88 l    d  .dynstr	00000000 .dynstr
00007b8c l    d  .hash	00000000 .hash
00008000 l    d  .data	00000000 .data
00008180 l    d  .bss	00000000 .bss
00000000 l    d  .debug_info	00000000 .debug_info
00000000 l    d  .debug_abbrev	00000000 .debug_abbrev
00000000 l    d  .debug_loclists	00000000 .debug_loclists
00000000 l    d  .debug_aranges	00000000 .debug_aranges
00000000 l    d  .debug_rnglists	00000000 .debug_rnglists
00000000 l    d  .debug_macro	00000000 .debug_macro
00000000 l    d  .debug_line	00000000 .debug_line
00000000 l    d  .debug_str	00000000 .debug_str
00000000 l    d  .comment	00000000 .comment
00000000 l    d  .ARM.attributes	00000000 .ARM.attributes
00000000 l    d  .debug_frame	00000000 .debug_frame
00007998 l    d  .rel.dyn	00000000 .rel.dyn
00000000 l    d  .debug_loc	00000000 .debug_loc
00000000 l    d  .debug_ranges	00000000 .debug_ranges
00000000 l    df *ABS*	00000000 user_ta_header.c
00006174 l     O .rodata	00000004 __compound_literal.5
00006178 l     O .rodata	00000004 __compound_literal.4
0000617c l     O .rodata	00000004 __compound_literal.3
00006180 l     O .rodata	00000001 __compound_literal.2
00006181 l     O .rodata	00000001 __compound_literal.1
00006182 l     O .rodata	00000001 __compound_literal.0
00000000 l    df *ABS*	00000000 sdp_ta.c
000064a6 l     O .rodata	0000001a __func__.1
000064c0 l     O .rodata	0000000e __func__.0
00000000 l    df *ABS*	00000000 stub.c
00000168 l     F .text	00000010 delta_inc_refcount
00000178 l     F .text	00000010 delta_dec_refcount
00000188 l     F .text	00000010 bdisp_inc_refcount
00000198 l     F .text	00000010 bdisp_dec_refcount
000001a8 l     F .text	00000010 sti_inc_refcount
000001b8 l     F .text	00000010 sti_dec_refcount
000065e0 l     O .rodata	0000001b __func__.0
00008180 l     O .bss	00000004 delta_refcount
00008184 l     O .bss	00000004 bdisp_refcount
00008188 l     O .bss	00000004 sti_refcount
00008190 l     O .bss	00000320 regions
00000000 l    df *ABS*	00000000 snprintk.c
000066dd l     O .rodata	00000011 HEXDIGITS
000066ee l     O .rodata	00000011 hexdigits
00000000 l    df *ABS*	00000000 trace.c
00000c50 l     F .text	0000004e append
00006737 l     O .rodata	00000005 lvl_strs.5561
0000673c l     O .rodata	0000000a __func__.5615
00000000 l    df *ABS*	00000000 arm32_aeabi_ldivmod_a32.o
00000000 l    df *ABS*	00000000 trace_ext.c
00000000 l    df *ABS*	00000000 user_ta_entry.c
00000fd8 l     F .text	0000001c ta_header_get_session
00000ff4 l     F .text	00000068 ta_header_remove_session
000084b0 l     O .bss	00000001 init_done
00008158 l     O .data	00000008 ta_sessions
00000000 l    df *ABS*	00000000 utee_syscalls_a32.o
00000000 l    df *ABS*	00000000 gprof_a32.o
00000000 l    df *ABS*	00000000 tee_api.c
00006780 l     O .rodata	0000000b __func__.6728
000084d8 l     O .bss	00000004 tee_api_instance_data
00000000 l    df *ABS*	00000000 tee_api_arith_mpi.c
000029a0 l     F .text	00000020 api_panic
0000198c l     F .text	00000020 mpi_panic
000019ac l     F .text	00000044 get_const_mpi
000019f0 l     F .text	00000010 mpi_is_odd
00001a00 l     F .text	00000016 rng_read
00001a16 l     F .text	0000001c put_mpi
00001a32 l     F .text	0000045a mpi_egcd
00001e8c l     F .text	00000024 get_mpi
00001eb0 l     F .text	00000088 bigint_binary
000084dc l     O .bss	00002000 data.6728
0000213e l     F .text	000000ea bigint_binary_mod
0000679c l     O .rodata	0000000e __func__.6757
000067aa l     O .rodata	00000009 __func__.6996
000067b3 l     O .rodata	0000000e __func__.6856
000067c1 l     O .rodata	00000012 __func__.6729
000067d3 l     O .rodata	0000000f __func__.6767
000067e2 l     O .rodata	0000001f __func__.6785
00006801 l     O .rodata	00000019 __func__.6792
0000681a l     O .rodata	00000012 __func__.6867
0000682c l     O .rodata	00000015 __func__.6822
00006841 l     O .rodata	0000000e __func__.6894
0000684f l     O .rodata	0000000e __func__.6922
0000685d l     O .rodata	0000000e __func__.6928
0000686b l     O .rodata	00000011 __func__.6957
0000687c l     O .rodata	00000018 __func__.6973
00006894 l     O .rodata	0000001d __func__.7053
000068b1 l     O .rodata	00000019 __func__.7103
000068ca l     O .rodata	00000015 __func__.7117
00000000 l    df *ABS*	00000000 bignum.c
000029c0 l     F .text	00000038 mpi_get_digit
000029f8 l     F .text	0000005e mpi_sub_hlp
00002a56 l     F .text	00000492 mpi_mul_hlp
00002ee8 l     F .text	00000048 mbedtls_mpi_mod_int.part.1
00003f8a l     F .text	0000006c mpi_write_hlp
00004130 l     F .text	00000050 mpi_check_small_factors
0000481c l     F .text	00000216 mpi_miller_rabin
0000618c l     O .rodata	000002a0 small_prime
0000642c l     O .rodata	00000024 gcd_pairs
00000000 l    df *ABS*	00000000 bget_malloc.c
000051c0 l     F .text	00000030 raw_malloc_return_hook.isra.3
000051f0 l     F .text	000000d8 create_free_block.constprop.11
000053fc l     F .text	00000038 raw_malloc.constprop.15
00006df3 l     O .rodata	00000012 __func__.5854
00006e05 l     O .rodata	00000005 __func__.5710
00006e0a l     O .rodata	00000006 __func__.5725
00006e10 l     O .rodata	00000005 __func__.5742
00006e15 l     O .rodata	00000006 __func__.5734
00006e1b l     O .rodata	00000006 __func__.5751
00006e21 l     O .rodata	00000007 __func__.5761
00006e28 l     O .rodata	0000000d __func__.5890
00006e35 l     O .rodata	0000000c __func__.5864
00006e41 l     O .rodata	0000000b __func__.5875
00006e4c l     O .rodata	00000010 __func__.5942
00006e5c l     O .rodata	0000000e __func__.5896
00006e6a l     O .rodata	00000013 __func__.5802
0000a4e0 l     O .bss	00000038 mstats
0000a518 l     O .bss	00000004 malloc_pool_len
0000a51c l     O .bss	00000004 malloc_pool
00008160 l     O .data	0000001c malloc_poolset
00000000 l    df *ABS*	00000000 mempool.c
00007285 l     O .rodata	00000013 __func__.5618
00007298 l     O .rodata	0000000e __func__.5627
00000000 l    df *ABS*	00000000 assert.c
00000000 l    df *ABS*	00000000 snprintf.c
00000000 l    df *ABS*	00000000 memset.c
00000000 l    df *ABS*	00000000 strcmp.c
00000000 l    df *ABS*	00000000 aeabi_unwind.c
00000000 l    df *ABS*	00000000 memchr.c
00000000 l    df *ABS*	00000000 strlen.c
00000000 l    df *ABS*	00000000 arm32_aeabi_ldivmod.c
00000000 l    df *ABS*	00000000 tee_api_panic.c
00000000 l    df *ABS*	00000000 memcmp.c
00000000 l    df *ABS*	00000000 memcpy.c
00000000 l    df *ABS*	00000000 memmove.c
00000000 l    df *ABS*	00000000 
00007ad0 l     O *ABS*	00000000 _DYNAMIC
00007964 l     O *ABS*	00000000 _GLOBAL_OFFSET_TABLE_
00006130 l     F .text	00000010 __utee_check_access_rights_from_thumb
00006140 l     F .text	00000010 __utee_panic_from_thumb
00006150 l     F .text	00000010 __utee_cache_operation_from_thumb
00006160 l     F .text	00000010 __utee_log_from_thumb
00000fb4 g     F .text	00000022 putchar
000001c8 g     F .text	00000028 platform_init
000028b2 g     F .text	00000004 TEE_BigIntConvertToFMM
000025f4 g     F .text	00000008 TEE_BigIntSquareMod
00002228 g     F .text	000000f4 TEE_BigIntShiftRight
00001580 g     F .text	00000018 utee_storage_obj_create
00002fc8 g     F .text	000000a8 mbedtls_mpi_grow
00005fd8 g     F .text	000000ec __l_divmod
00001200 g     F .text	00000014 utee_return
00001970 g     F .text	00000004 TEE_Realloc
00000f56 g     F .text	0000003a printf
00001214 g     F .text	00000014 utee_log
0000178e g     F .text	00000066 TEE_InvokeTACommand
00002f42 g     F .text	00000026 mbedtls_mpi_init_mempool
0000343c g     F .text	00000046 mbedtls_mpi_write_binary
00000c28 g     F .text	0000000e vsnprintk
000038c6 g     F .text	00000030 mbedtls_mpi_sub_int
000060fc g     F .text	00000034 memmove
00005edc g     F .text	0000001e snprintf
00002118 g     F .text	00000026 TEE_BigIntCmpS32
00003070 g     F .text	000000cc mbedtls_mpi_shrink
00005f32 g     F .text	00000002 __aeabi_unwind_cpp_pr0
00002368 g     F .text	0000001c TEE_BigIntAdd
00001254 g     F .text	00000014 utee_get_property_name_to_index
00006184 g     O .rodata	00000004 ta_heap_size
00001338 g     F .text	00000018 utee_cryp_state_alloc
00001508 g     F .text	00000018 utee_authenc_enc_final
000039f0 g     F .text	0000012c mbedtls_mpi_read_string
000023a0 g     F .text	00000058 TEE_BigIntNeg
00000020 g       .text	00000000 __text_start
0000351a g     F .text	00000078 mbedtls_mpi_shift_r
00005d50 g     F .text	0000004c malloc_buffer_overlaps_heap
000025bc g     F .text	0000001c TEE_BigIntSubMod
00004d5e g     F .text	00000136 mbedtls_mpi_gen_prime
000032ea g     F .text	00000020 mbedtls_mpi_get_bit
000033d6 g     F .text	00000066 mbedtls_mpi_read_binary
00000cd0 g     F .text	0000013c trace_printf
000041a8 g     F .text	000000c4 mbedtls_mpi_montmul
000060e6 g     F .text	00000016 memcpy
00001364 g     F .text	00000014 utee_cryp_state_free
000028b6 g     F .text	0000004a TEE_BigIntConvertFromFMM
000060c4 g     F .text	00000004 TEE_Panic
00000f24 g     F .text	00000018 __aeabi_uldivmod
00000f90 g     F .text	00000024 puts
00002900 g     F .text	000000a0 TEE_BigIntComputeFMM
00005818 g     F .text	00000020 malloc_get_stats
000013e4 g     F .text	00000018 utee_cipher_final
00001910 g     F .text	00000016 TEE_GetREETime
000080e8 g     O .data	0000006c ta_props
00005838 g     F .text	00000002 malloc
0000144c g     F .text	00000014 utee_cryp_obj_close
000004a4 g     F .text	00000050 platform_dump_device
00005efa g     F .text	0000000e vsnprintf
000080e4 g     O .data	00000004 trace_level
00000298 g     F .text	0000007c platform_check_permissions
000020e4 g     F .text	00000034 TEE_BigIntCmp
00006170 g     O .rodata	00000004 ta_num_props
00005688 g     F .text	0000007c bgetr
00008000 g     O .data	000000e4 stm_devices
000014f0 g     F .text	00000018 utee_authenc_update_payload
00005e70 g     F .text	0000002e mempool_free
00001ffc g     F .text	00000058 TEE_BigIntConvertToOctetString
00001688 g     F .text	00000014 utee_cache_operation
00003388 g     F .text	00000042 mbedtls_mpi_bitlen
000014c4 g     F .text	00000018 utee_authenc_init
0000231c g     F .text	0000002a TEE_BigIntGetBit
00006188 g     O .rodata	00000003 trace_ext_prefix
00005434 g     F .text	0000005c bgetz
00001860 g     F .text	0000000c TEE_GetInstanceData
0000188e g     F .text	0000001e TEE_Wait
00001638 g     F .text	00000014 utee_storage_obj_write
000038f6 g     F .text	000000dc mbedtls_mpi_mul_mpi
00005f36 g     F .text	00000002 __aeabi_unwind_cpp_pr2
0000197e g     F .text	00000006 TEE_CacheFlush
0000002a g     F .text	00000002 TA_DestroyEntryPoint
00002f30 g     F .text	00000012 mbedtls_mpi_init
0000335a g     F .text	0000002e mbedtls_mpi_lsb
00005ea0 g     F .text	00000028 _assert_log
000028ae g     F .text	00000004 TEE_BigIntFMMContextSizeInU32
00001f38 g     F .text	00000044 _TEE_MathAPI_Init
00003802 g     F .text	00000048 mbedtls_mpi_add_mpi
00001610 g     F .text	00000014 utee_storage_next_enum
0000a520 g     O .bss	00008000 ta_heap
000025fc g     F .text	000000a4 TEE_BigIntInvMod
0000003c g     F .text	00000024 TA_CloseSessionEntryPoint
00000314 g     F .text	00000034 platform_add_device_to_region
00000270 g     F .text	00000028 platform_find_device_by_name
0000384a g     F .text	0000004c mbedtls_mpi_sub_mpi
00001228 g     F .text	00000014 __utee_panic
00001350 g     F .text	00000014 utee_cryp_state_copy
00000060 g     F .text	00000108 TA_InvokeCommandEntryPoint
00005de0 g     F .text	0000006c mempool_alloc
00001438 g     F .text	00000014 utee_cryp_obj_alloc
00001324 g     F .text	00000014 utee_set_ta_time
00001424 g     F .text	00000014 utee_cryp_obj_get_attr
00005e4c g     F .text	00000024 mempool_calloc
0000584c g     F .text	00000048 calloc
00001926 g     F .text	0000004a TEE_Malloc
000012e8 g     F .text	00000014 utee_mask_cancellation
00001460 g     F .text	00000014 utee_cryp_obj_reset
00001848 g     F .text	0000000a TEE_CheckMemoryAccessRights
00012520 g       .bss	00000000 __gprof_buf_end
00005f64 g     F .text	00000074 __ul_divmod
000032b2 g     F .text	00000038 mbedtls_mpi_lset
00000348 g     F .text	00000036 platform_remove_device_from_region
0000002c g     F .text	00000010 TA_OpenSessionEntryPoint
000015fc g     F .text	00000014 utee_storage_start_enum
000015ac g     F .text	00000014 utee_storage_obj_rename
000084b4 g     O .bss	00000004 ta_param_types
00003ebe g     F .text	0000002e mbedtls_mpi_div_int
00002870 g     F .text	00000030 TEE_BigIntIsProbablePrime
000039d2 g     F .text	0000001e mbedtls_mpi_mul_int
00004290 g     F .text	00000446 mbedtls_mpi_exp_mod
000031c0 g     F .text	0000006c mbedtls_mpi_safe_cond_assign
0000123c g     F .text	00000018 utee_get_property
00001f7c g     F .text	00000040 TEE_BigIntInit
0000186c g     F .text	00000004 TEE_MemMove
00001fbc g     F .text	00000040 TEE_BigIntConvertFromOctetString
00008154 g     O .data	00000004 _ref__utee_mcount
00003592 g     F .text	0000006e mbedtls_mpi_cmp_abs
00005f38 g     F .text	0000001c memchr
00001810 g     F .text	0000001c TEE_UnmaskCancellation
00004e94 g     F .text	0000032c mbedtls_mpi_self_test
00001598 g     F .text	00000014 utee_storage_obj_del
00001660 g     F .text	00000014 utee_storage_obj_seek
00003696 g     F .text	00000030 mbedtls_mpi_cmp_int
0000138c g     F .text	00000014 utee_hash_update
0000169c  w    F .text	0000000c __utee_mcount
00002550 g     F .text	00000050 TEE_BigIntMod
00003f50 g     F .text	0000003a mbedtls_mpi_mod_int
00001280 g     F .text	00000014 utee_close_ta_session
000024a2 g     F .text	000000ae TEE_BigIntDiv
0000313c g     F .text	00000056 mbedtls_mpi_copy
00005804 g     F .text	00000014 malloc_reset_stats
000013cc g     F .text	00000018 utee_cipher_update
00005894 g     F .text	00000038 realloc
00003192 g     F .text	0000002e mbedtls_mpi_swap
00005d9c g     F .text	00000044 mempool_alloc_pool
00001550 g     F .text	00000018 utee_asymm_verify
000023f8 g     F .text	000000a4 TEE_BigIntMul
00003482 g     F .text	00000098 mbedtls_mpi_shift_l
00003600 g     F .text	00000096 mbedtls_mpi_cmp_mpi
00001874 g     F .text	00000004 TEE_MemFill
000060c8 g     F .text	0000001e memcmp
00005b7c g     F .text	000000f8 malloc_add_pool
00000cbc g     F .text	00000014 trace_get_level
000036c6 g     F .text	000000bc mbedtls_mpi_add_abs
000014b0 g     F .text	00000014 utee_cryp_random_number_generate
000028a6 g     F .text	00000008 TEE_BigIntFMMSizeInU32
000028a0 g     F .text	00000004 TEE_BigIntInitFMM
00001538 g     F .text	00000018 utee_asymm_operate
0000105c g     F .text	00000190 __utee_entry
00006170 g       .text	00000000 __text_end
000026a0 g     F .text	0000007c TEE_BigIntRelativePrime
00003eec g     F .text	00000064 mbedtls_mpi_mod_mpi
00005704 g     F .text	0000009c bpool
000017f4 g     F .text	0000001c TEE_GetCancellationFlag
000046d6 g     F .text	00000114 mbedtls_mpi_gcd
000018e8 g     F .text	00000028 TEE_SetTAPersistentTime
00005f08 g     F .text	00000010 memset
00000254 g     F .text	0000001c platform_find_region_by_id
000018ac g     F .text	0000003c TEE_GetTAPersistentTime
00000e0c g     F .text	00000100 dhex_dump
0000182c g     F .text	0000001c TEE_MaskCancellation
00001624 g     F .text	00000014 utee_storage_obj_read
00001474 g     F .text	00000014 utee_cryp_obj_populate
00000c9e g     F .text	0000001e trace_set_level
000013fc g     F .text	00000014 utee_cryp_obj_get_info
000015c0 g     F .text	00000014 utee_storage_alloc_enum
000015e8 g     F .text	00000014 utee_storage_reset_enum
0000164c g     F .text	00000014 utee_storage_obj_trunc
00005f18 g     F .text	0000001a strcmp
0000208c g     F .text	00000058 TEE_BigIntConvertToS32
00002384 g     F .text	0000001c TEE_BigIntSub
000012ac g     F .text	00000014 utee_get_cancellation_flag
00001378 g     F .text	00000014 utee_hash_init
00005ed8 g     F .text	00000004 tahead_get_trace_level
000016a8 g     F .text	00000050 __utee_from_param
000016f8 g     F .text	0000003e __utee_to_param
0000426c g     F .text	00000024 mbedtls_mpi_montred
000058cc g     F .text	000002b0 memalign
00002054 g     F .text	00000038 TEE_BigIntConvertFromS32
00003896 g     F .text	00000030 mbedtls_mpi_add_int
00001410 g     F .text	00000014 utee_cryp_obj_restrict_usage
00005c74 g     F .text	000000dc malloc_buffer_is_within_alloced
00001488 g     F .text	00000014 utee_cryp_obj_copy
000028a4 g     F .text	00000002 TEE_BigIntInitFMMContext
0000149c g     F .text	00000014 utee_cryp_derive_key
00001520 g     F .text	00000018 utee_authenc_dec_final
0000249c g     F .text	00000006 TEE_BigIntSquare
00000020 g     F .text	0000000a TA_CreateEntryPoint
00004180 g     F .text	00000028 mbedtls_mpi_montg_init
00000c36 g     F .text	0000001a snprintk
00002346 g     F .text	00000022 TEE_BigIntGetBitCount
000025d8 g     F .text	0000001c TEE_BigIntMulMod
00004a32 g     F .text	000002d0 mbedtls_mpi_inv_mod
0000037e g     F .text	00000126 platform_dump_status
000084b8 g     O .bss	00000020 ta_params
00003b1c g     F .text	000003a2 mbedtls_mpi_div_mpi
000033ca g     F .text	0000000c mbedtls_mpi_size
000052c8 g     F .text	00000134 bget
0000330a g     F .text	00000050 mbedtls_mpi_set_bit
00002f68 g     F .text	00000012 mbedtls_mpi_init_static
00001974 g     F .text	00000004 TEE_Free
00004d02 g     F .text	0000005c mbedtls_mpi_is_prime
00001984 g     F .text	00000006 TEE_CacheInvalidate
000013b8 g     F .text	00000014 utee_cipher_init
00005ec8 g     F .text	00000010 _assert_break
000025a0 g     F .text	0000001c TEE_BigIntAddMod
000015d4 g     F .text	00000014 utee_storage_free_enum
000014dc g     F .text	00000014 utee_authenc_update_aad
0000022c g     F .text	00000028 platform_destroy_region
00001870 g     F .text	00000004 TEE_MemCompare
000004f4 g     F .text	00000734 __vsnprintf
00001736 g     F .text	00000044 TEE_OpenTASession
000011ec g     F .text	00000014 utee_panic
00000f3c g     F .text	00000014 trace_ext_puts
00000f50 g     F .text	00000006 trace_ext_get_thread_id
00002f7a g     F .text	0000004e mbedtls_mpi_free
00001978 g     F .text	00000006 TEE_CacheClean
00001268 g     F .text	00000018 utee_open_ta_session
0000322c g     F .text	00000086 mbedtls_mpi_safe_cond_swap
000013a0 g     F .text	00000018 utee_hash_final
000001f0 g     F .text	0000003c platform_create_region
00005f54 g     F .text	00000010 strlen
0000271c g     F .text	00000154 TEE_BigIntComputeExtendedGcd
00005f34 g     F .text	00000002 __aeabi_unwind_cpp_pr1
00001568 g     F .text	00000018 utee_storage_obj_open
00001294 g     F .text	00000018 utee_invoke_ta_command
000012fc g     F .text	00000014 utee_wait
00001878 g     F .text	00000016 TEE_GetSystemTime
00000000 g     O .ta_head	00000020 ta_head
00005490 g     F .text	000001f8 brel
00003782 g     F .text	00000080 mbedtls_mpi_sub_abs
00001310 g     F .text	00000014 utee_get_time
000047ea g     F .text	00000032 mbedtls_mpi_fill_random
00001852 g     F .text	0000000e TEE_SetInstanceData
000012d4 g     F .text	00000014 utee_unmask_cancellation
00000f0c g     F .text	00000018 __aeabi_ldivmod
000012c0 g     F .text	00000014 utee_check_access_rights
00003ff6 g     F .text	0000013a mbedtls_mpi_write_string
00001674 g     F .text	00000014 utee_cryp_obj_generate_key
0000177a g     F .text	00000014 TEE_CloseTASession
00012520 g       .bss	00000000 __gprof_buf_start
0000583a g     F .text	00000012 free
000057a0 g     F .text	00000064 bstats
0000a4dc g     O .bss	00000004 mbedtls_mpi_mempool



Disassembly of section .text:

00000020 <TA_CreateEntryPoint>:
TA_CreateEntryPoint():
/workspace/benchmark/optee-sdp/ta/sdp_ta.c:24
      20:	b508      	push	{r3, lr}
/workspace/benchmark/optee-sdp/ta/sdp_ta.c:25
      22:	f000 f8d1 	bl	1c8 <platform_init>
/workspace/benchmark/optee-sdp/ta/sdp_ta.c:27
      26:	2000      	movs	r0, #0
      28:	bd08      	pop	{r3, pc}

0000002a <TA_DestroyEntryPoint>:
TA_DestroyEntryPoint():
/workspace/benchmark/optee-sdp/ta/sdp_ta.c:35
      2a:	4770      	bx	lr

0000002c <TA_OpenSessionEntryPoint>:
TA_OpenSessionEntryPoint():
/workspace/benchmark/optee-sdp/ta/sdp_ta.c:59
      2c:	4b02      	ldr	r3, [pc, #8]	; (38 <TA_OpenSessionEntryPoint+0xc>)
/workspace/benchmark/optee-sdp/ta/sdp_ta.c:51
      2e:	2800      	cmp	r0, #0
/workspace/benchmark/optee-sdp/ta/sdp_ta.c:59
      30:	bf18      	it	ne
      32:	4618      	movne	r0, r3
      34:	4770      	bx	lr
      36:	bf00      	nop
      38:	ffff0006 	.word	0xffff0006

0000003c <TA_CloseSessionEntryPoint>:
TA_CloseSessionEntryPoint():
/workspace/benchmark/optee-sdp/ta/sdp_ta.c:66
      3c:	b507      	push	{r0, r1, r2, lr}
/workspace/benchmark/optee-sdp/ta/sdp_ta.c:68
      3e:	2202      	movs	r2, #2
      40:	4b05      	ldr	r3, [pc, #20]	; (58 <TA_CloseSessionEntryPoint+0x1c>)
      42:	4806      	ldr	r0, [pc, #24]	; (5c <TA_CloseSessionEntryPoint+0x20>)
      44:	2144      	movs	r1, #68	; 0x44
      46:	447b      	add	r3, pc
      48:	9300      	str	r3, [sp, #0]
      4a:	4478      	add	r0, pc
      4c:	2301      	movs	r3, #1
      4e:	f000 fe3f 	bl	cd0 <trace_printf>
/workspace/benchmark/optee-sdp/ta/sdp_ta.c:69
      52:	b003      	add	sp, #12
      54:	f85d fb04 	ldr.w	pc, [sp], #4
      58:	00006406 	.word	0x00006406
      5c:	00006458 	.word	0x00006458

00000060 <TA_InvokeCommandEntryPoint>:
TA_InvokeCommandEntryPoint():
/workspace/benchmark/optee-sdp/ta/sdp_ta.c:186
      60:	e92d 41f3 	stmdb	sp!, {r0, r1, r4, r5, r6, r7, r8, lr}
      64:	460c      	mov	r4, r1
      66:	461d      	mov	r5, r3
/workspace/benchmark/optee-sdp/ta/sdp_ta.c:190
      68:	2c03      	cmp	r4, #3
      6a:	d807      	bhi.n	7c <TA_InvokeCommandEntryPoint+0x1c>
      6c:	e8df f004 	tbb	[pc, r4]
      70:	631b1402 	.word	0x631b1402
create_region():
/workspace/benchmark/optee-sdp/ta/sdp_ta.c:80
      74:	f240 2311 	movw	r3, #529	; 0x211
      78:	429a      	cmp	r2, r3
      7a:	d001      	beq.n	80 <TA_InvokeCommandEntryPoint+0x20>
TA_InvokeCommandEntryPoint():
/workspace/benchmark/optee-sdp/ta/sdp_ta.c:190
      7c:	4c33      	ldr	r4, [pc, #204]	; (14c <TA_InvokeCommandEntryPoint+0xec>)
      7e:	e007      	b.n	90 <TA_InvokeCommandEntryPoint+0x30>
create_region():
/workspace/benchmark/optee-sdp/ta/sdp_ta.c:86
      80:	68aa      	ldr	r2, [r5, #8]
      82:	2100      	movs	r1, #0
      84:	6868      	ldr	r0, [r5, #4]
      86:	f000 f8b3 	bl	1f0 <platform_create_region>
/workspace/benchmark/optee-sdp/ta/sdp_ta.c:87
      8a:	2800      	cmp	r0, #0
      8c:	dbf6      	blt.n	7c <TA_InvokeCommandEntryPoint+0x1c>
/workspace/benchmark/optee-sdp/ta/sdp_ta.c:90
      8e:	6128      	str	r0, [r5, #16]
TA_InvokeCommandEntryPoint():
/workspace/benchmark/optee-sdp/ta/sdp_ta.c:202
      90:	4620      	mov	r0, r4
      92:	b002      	add	sp, #8
      94:	e8bd 81f0 	ldmia.w	sp!, {r4, r5, r6, r7, r8, pc}
destroy_region():
/workspace/benchmark/optee-sdp/ta/sdp_ta.c:103
      98:	2a01      	cmp	r2, #1
      9a:	d1ef      	bne.n	7c <TA_InvokeCommandEntryPoint+0x1c>
/workspace/benchmark/optee-sdp/ta/sdp_ta.c:108
      9c:	6828      	ldr	r0, [r5, #0]
      9e:	f000 f8c5 	bl	22c <platform_destroy_region>
dump_status():
/workspace/benchmark/optee-sdp/ta/sdp_ta.c:176
      a2:	2400      	movs	r4, #0
      a4:	e7f4      	b.n	90 <TA_InvokeCommandEntryPoint+0x30>
update_region():
/workspace/benchmark/optee-sdp/ta/sdp_ta.c:126
      a6:	f240 1351 	movw	r3, #337	; 0x151
      aa:	429a      	cmp	r2, r3
      ac:	d1e6      	bne.n	7c <TA_InvokeCommandEntryPoint+0x1c>
/workspace/benchmark/optee-sdp/ta/sdp_ta.c:133
      ae:	68ae      	ldr	r6, [r5, #8]
/workspace/benchmark/optee-sdp/ta/sdp_ta.c:130
      b0:	f8d5 8000 	ldr.w	r8, [r5]
/workspace/benchmark/optee-sdp/ta/sdp_ta.c:137
      b4:	4630      	mov	r0, r6
/workspace/benchmark/optee-sdp/ta/sdp_ta.c:131
      b6:	686c      	ldr	r4, [r5, #4]
/workspace/benchmark/optee-sdp/ta/sdp_ta.c:135
      b8:	692f      	ldr	r7, [r5, #16]
/workspace/benchmark/optee-sdp/ta/sdp_ta.c:137
      ba:	f000 f8d9 	bl	270 <platform_find_device_by_name>
/workspace/benchmark/optee-sdp/ta/sdp_ta.c:138
      be:	4605      	mov	r5, r0
      c0:	b960      	cbnz	r0, dc <TA_InvokeCommandEntryPoint+0x7c>
/workspace/benchmark/optee-sdp/ta/sdp_ta.c:139
      c2:	4b23      	ldr	r3, [pc, #140]	; (150 <TA_InvokeCommandEntryPoint+0xf0>)
      c4:	2202      	movs	r2, #2
      c6:	4823      	ldr	r0, [pc, #140]	; (154 <TA_InvokeCommandEntryPoint+0xf4>)
      c8:	218b      	movs	r1, #139	; 0x8b
      ca:	447b      	add	r3, pc
      cc:	9300      	str	r3, [sp, #0]
      ce:	4478      	add	r0, pc
      d0:	2301      	movs	r3, #1
      d2:	9601      	str	r6, [sp, #4]
/workspace/benchmark/optee-sdp/ta/sdp_ta.c:145
      d4:	301a      	adds	r0, #26
      d6:	f000 fdfb 	bl	cd0 <trace_printf>
/workspace/benchmark/optee-sdp/ta/sdp_ta.c:146
      da:	e7cf      	b.n	7c <TA_InvokeCommandEntryPoint+0x1c>
/workspace/benchmark/optee-sdp/ta/sdp_ta.c:143
      dc:	4640      	mov	r0, r8
      de:	f000 f8b9 	bl	254 <platform_find_region_by_id>
/workspace/benchmark/optee-sdp/ta/sdp_ta.c:144
      e2:	4606      	mov	r6, r0
      e4:	b950      	cbnz	r0, fc <TA_InvokeCommandEntryPoint+0x9c>
/workspace/benchmark/optee-sdp/ta/sdp_ta.c:145
      e6:	4b1c      	ldr	r3, [pc, #112]	; (158 <TA_InvokeCommandEntryPoint+0xf8>)
      e8:	2202      	movs	r2, #2
      ea:	481c      	ldr	r0, [pc, #112]	; (15c <TA_InvokeCommandEntryPoint+0xfc>)
      ec:	2191      	movs	r1, #145	; 0x91
      ee:	447b      	add	r3, pc
      f0:	f8cd 8004 	str.w	r8, [sp, #4]
      f4:	9300      	str	r3, [sp, #0]
      f6:	4478      	add	r0, pc
      f8:	2301      	movs	r3, #1
      fa:	e7eb      	b.n	d4 <TA_InvokeCommandEntryPoint+0x74>
/workspace/benchmark/optee-sdp/ta/sdp_ta.c:149
      fc:	b1bc      	cbz	r4, 12e <TA_InvokeCommandEntryPoint+0xce>
/workspace/benchmark/optee-sdp/ta/sdp_ta.c:150
      fe:	463a      	mov	r2, r7
     100:	4629      	mov	r1, r5
     102:	f000 f8c9 	bl	298 <platform_check_permissions>
     106:	4604      	mov	r4, r0
     108:	b158      	cbz	r0, 122 <TA_InvokeCommandEntryPoint+0xc2>
/workspace/benchmark/optee-sdp/ta/sdp_ta.c:151
     10a:	4815      	ldr	r0, [pc, #84]	; (160 <TA_InvokeCommandEntryPoint+0x100>)
     10c:	2202      	movs	r2, #2
     10e:	4b15      	ldr	r3, [pc, #84]	; (164 <TA_InvokeCommandEntryPoint+0x104>)
     110:	2197      	movs	r1, #151	; 0x97
     112:	4478      	add	r0, pc
     114:	447b      	add	r3, pc
     116:	301a      	adds	r0, #26
     118:	9300      	str	r3, [sp, #0]
     11a:	2301      	movs	r3, #1
     11c:	f000 fdd8 	bl	cd0 <trace_printf>
/workspace/benchmark/optee-sdp/ta/sdp_ta.c:152
     120:	e7ac      	b.n	7c <TA_InvokeCommandEntryPoint+0x1c>
/workspace/benchmark/optee-sdp/ta/sdp_ta.c:155
     122:	463a      	mov	r2, r7
     124:	4629      	mov	r1, r5
     126:	4630      	mov	r0, r6
     128:	f000 f8f4 	bl	314 <platform_add_device_to_region>
     12c:	e7b0      	b.n	90 <TA_InvokeCommandEntryPoint+0x30>
/workspace/benchmark/optee-sdp/ta/sdp_ta.c:157
     12e:	4629      	mov	r1, r5
     130:	f000 f90a 	bl	348 <platform_remove_device_from_region>
     134:	e7ac      	b.n	90 <TA_InvokeCommandEntryPoint+0x30>
dump_status():
/workspace/benchmark/optee-sdp/ta/sdp_ta.c:169
     136:	2a06      	cmp	r2, #6
     138:	d1a0      	bne.n	7c <TA_InvokeCommandEntryPoint+0x1c>
/workspace/benchmark/optee-sdp/ta/sdp_ta.c:173
     13a:	6869      	ldr	r1, [r5, #4]
     13c:	4628      	mov	r0, r5
     13e:	f000 f91e 	bl	37e <platform_dump_status>
/workspace/benchmark/optee-sdp/ta/sdp_ta.c:174
     142:	e9d5 0100 	ldrd	r0, r1, [r5]
     146:	f000 f9ad 	bl	4a4 <platform_dump_device>
     14a:	e7aa      	b.n	a2 <TA_InvokeCommandEntryPoint+0x42>
     14c:	ffff0006 	.word	0xffff0006
     150:	0000638f 	.word	0x0000638f
     154:	000063d4 	.word	0x000063d4
     158:	00006381 	.word	0x00006381
     15c:	000063ac 	.word	0x000063ac
     160:	00006390 	.word	0x00006390
     164:	00006374 	.word	0x00006374

00000168 <delta_inc_refcount>:
delta_inc_refcount():
/workspace/benchmark/optee-sdp/ta/platform/stub.c:27
     168:	4a02      	ldr	r2, [pc, #8]	; (174 <delta_inc_refcount+0xc>)
     16a:	447a      	add	r2, pc
     16c:	6813      	ldr	r3, [r2, #0]
     16e:	3301      	adds	r3, #1
     170:	6013      	str	r3, [r2, #0]
/workspace/benchmark/optee-sdp/ta/platform/stub.c:28
     172:	4770      	bx	lr
     174:	00008012 	.word	0x00008012

00000178 <delta_dec_refcount>:
delta_dec_refcount():
/workspace/benchmark/optee-sdp/ta/platform/stub.c:32
     178:	4a02      	ldr	r2, [pc, #8]	; (184 <delta_dec_refcount+0xc>)
     17a:	447a      	add	r2, pc
     17c:	6813      	ldr	r3, [r2, #0]
     17e:	3b01      	subs	r3, #1
     180:	6013      	str	r3, [r2, #0]
/workspace/benchmark/optee-sdp/ta/platform/stub.c:33
     182:	4770      	bx	lr
     184:	00008002 	.word	0x00008002

00000188 <bdisp_inc_refcount>:
bdisp_inc_refcount():
/workspace/benchmark/optee-sdp/ta/platform/stub.c:37
     188:	4a02      	ldr	r2, [pc, #8]	; (194 <bdisp_inc_refcount+0xc>)
     18a:	447a      	add	r2, pc
     18c:	6853      	ldr	r3, [r2, #4]
     18e:	3301      	adds	r3, #1
     190:	6053      	str	r3, [r2, #4]
/workspace/benchmark/optee-sdp/ta/platform/stub.c:38
     192:	4770      	bx	lr
     194:	00007ff2 	.word	0x00007ff2

00000198 <bdisp_dec_refcount>:
bdisp_dec_refcount():
/workspace/benchmark/optee-sdp/ta/platform/stub.c:42
     198:	4a02      	ldr	r2, [pc, #8]	; (1a4 <bdisp_dec_refcount+0xc>)
     19a:	447a      	add	r2, pc
     19c:	6853      	ldr	r3, [r2, #4]
     19e:	3b01      	subs	r3, #1
     1a0:	6053      	str	r3, [r2, #4]
/workspace/benchmark/optee-sdp/ta/platform/stub.c:43
     1a2:	4770      	bx	lr
     1a4:	00007fe2 	.word	0x00007fe2

000001a8 <sti_inc_refcount>:
sti_inc_refcount():
/workspace/benchmark/optee-sdp/ta/platform/stub.c:47
     1a8:	4a02      	ldr	r2, [pc, #8]	; (1b4 <sti_inc_refcount+0xc>)
     1aa:	447a      	add	r2, pc
     1ac:	6893      	ldr	r3, [r2, #8]
     1ae:	3301      	adds	r3, #1
     1b0:	6093      	str	r3, [r2, #8]
/workspace/benchmark/optee-sdp/ta/platform/stub.c:48
     1b2:	4770      	bx	lr
     1b4:	00007fd2 	.word	0x00007fd2

000001b8 <sti_dec_refcount>:
sti_dec_refcount():
/workspace/benchmark/optee-sdp/ta/platform/stub.c:52
     1b8:	4a02      	ldr	r2, [pc, #8]	; (1c4 <sti_dec_refcount+0xc>)
     1ba:	447a      	add	r2, pc
     1bc:	6893      	ldr	r3, [r2, #8]
     1be:	3b01      	subs	r3, #1
     1c0:	6093      	str	r3, [r2, #8]
/workspace/benchmark/optee-sdp/ta/platform/stub.c:53
     1c2:	4770      	bx	lr
     1c4:	00007fc2 	.word	0x00007fc2

000001c8 <platform_init>:
platform_init():
/workspace/benchmark/optee-sdp/ta/platform/stub.c:85
     1c8:	4808      	ldr	r0, [pc, #32]	; (1ec <platform_init+0x24>)
/workspace/benchmark/optee-sdp/ta/platform/stub.c:89
     1ca:	f44f 7248 	mov.w	r2, #800	; 0x320
/workspace/benchmark/optee-sdp/ta/platform/stub.c:84
     1ce:	b510      	push	{r4, lr}
/workspace/benchmark/optee-sdp/ta/platform/stub.c:85
     1d0:	2400      	movs	r4, #0
     1d2:	4478      	add	r0, pc
/workspace/benchmark/optee-sdp/ta/platform/stub.c:89
     1d4:	4621      	mov	r1, r4
     1d6:	3010      	adds	r0, #16
/workspace/benchmark/optee-sdp/ta/platform/stub.c:85
     1d8:	f840 4c10 	str.w	r4, [r0, #-16]
/workspace/benchmark/optee-sdp/ta/platform/stub.c:86
     1dc:	f840 4c0c 	str.w	r4, [r0, #-12]
/workspace/benchmark/optee-sdp/ta/platform/stub.c:87
     1e0:	f840 4c08 	str.w	r4, [r0, #-8]
/workspace/benchmark/optee-sdp/ta/platform/stub.c:89
     1e4:	f005 fe90 	bl	5f08 <memset>
/workspace/benchmark/optee-sdp/ta/platform/stub.c:92
     1e8:	4620      	mov	r0, r4
     1ea:	bd10      	pop	{r4, pc}
     1ec:	00007faa 	.word	0x00007faa

000001f0 <platform_create_region>:
find_free_region():
/workspace/benchmark/optee-sdp/ta/platform/stub.c:76
     1f0:	4b0c      	ldr	r3, [pc, #48]	; (224 <platform_create_region+0x34>)
platform_create_region():
/workspace/benchmark/optee-sdp/ta/platform/stub.c:95
     1f2:	b570      	push	{r4, r5, r6, lr}
     1f4:	4604      	mov	r4, r0
     1f6:	447b      	add	r3, pc
     1f8:	3310      	adds	r3, #16
find_free_region():
/workspace/benchmark/optee-sdp/ta/platform/stub.c:76
     1fa:	2000      	movs	r0, #0
/workspace/benchmark/optee-sdp/ta/platform/stub.c:77
     1fc:	e9d3 5600 	ldrd	r5, r6, [r3]
     200:	4335      	orrs	r5, r6
     202:	d006      	beq.n	212 <platform_create_region+0x22>
/workspace/benchmark/optee-sdp/ta/platform/stub.c:76
     204:	3001      	adds	r0, #1
     206:	3328      	adds	r3, #40	; 0x28
     208:	2814      	cmp	r0, #20
     20a:	d1f7      	bne.n	1fc <platform_create_region+0xc>
/workspace/benchmark/optee-sdp/ta/platform/stub.c:80
     20c:	f04f 30ff 	mov.w	r0, #4294967295	; 0xffffffff
platform_create_region():
/workspace/benchmark/optee-sdp/ta/platform/stub.c:105
     210:	bd70      	pop	{r4, r5, r6, pc}
/workspace/benchmark/optee-sdp/ta/platform/stub.c:101
     212:	4b05      	ldr	r3, [pc, #20]	; (228 <platform_create_region+0x38>)
     214:	2528      	movs	r5, #40	; 0x28
     216:	447b      	add	r3, pc
     218:	fb05 3300 	mla	r3, r5, r0, r3
     21c:	e9c3 4104 	strd	r4, r1, [r3, #16]
/workspace/benchmark/optee-sdp/ta/platform/stub.c:102
     220:	619a      	str	r2, [r3, #24]
/workspace/benchmark/optee-sdp/ta/platform/stub.c:104
     222:	e7f5      	b.n	210 <platform_create_region+0x20>
     224:	00007f86 	.word	0x00007f86
     228:	00007f66 	.word	0x00007f66

0000022c <platform_destroy_region>:
platform_destroy_region():
/workspace/benchmark/optee-sdp/ta/platform/stub.c:109
     22c:	2814      	cmp	r0, #20
/workspace/benchmark/optee-sdp/ta/platform/stub.c:108
     22e:	b508      	push	{r3, lr}
/workspace/benchmark/optee-sdp/ta/platform/stub.c:109
     230:	dc0a      	bgt.n	248 <platform_destroy_region+0x1c>
/workspace/benchmark/optee-sdp/ta/platform/stub.c:112
     232:	4b07      	ldr	r3, [pc, #28]	; (250 <platform_destroy_region+0x24>)
     234:	2228      	movs	r2, #40	; 0x28
     236:	2100      	movs	r1, #0
     238:	447b      	add	r3, pc
     23a:	3310      	adds	r3, #16
     23c:	fb02 3000 	mla	r0, r2, r0, r3
     240:	f005 fe62 	bl	5f08 <memset>
/workspace/benchmark/optee-sdp/ta/platform/stub.c:114
     244:	2000      	movs	r0, #0
/workspace/benchmark/optee-sdp/ta/platform/stub.c:115
     246:	bd08      	pop	{r3, pc}
/workspace/benchmark/optee-sdp/ta/platform/stub.c:110
     248:	f04f 30ff 	mov.w	r0, #4294967295	; 0xffffffff
     24c:	e7fb      	b.n	246 <platform_destroy_region+0x1a>
     24e:	bf00      	nop
     250:	00007f44 	.word	0x00007f44

00000254 <platform_find_region_by_id>:
platform_find_region_by_id():
/workspace/benchmark/optee-sdp/ta/platform/stub.c:119
     254:	2814      	cmp	r0, #20
     256:	dc06      	bgt.n	266 <platform_find_region_by_id+0x12>
/workspace/benchmark/optee-sdp/ta/platform/stub.c:122
     258:	4b04      	ldr	r3, [pc, #16]	; (26c <platform_find_region_by_id+0x18>)
     25a:	2228      	movs	r2, #40	; 0x28
     25c:	447b      	add	r3, pc
     25e:	3310      	adds	r3, #16
     260:	fb02 3000 	mla	r0, r2, r0, r3
     264:	4770      	bx	lr
/workspace/benchmark/optee-sdp/ta/platform/stub.c:120
     266:	2000      	movs	r0, #0
/workspace/benchmark/optee-sdp/ta/platform/stub.c:123
     268:	4770      	bx	lr
     26a:	bf00      	nop
     26c:	00007f20 	.word	0x00007f20

00000270 <platform_find_device_by_name>:
platform_find_device_by_name():
/workspace/benchmark/optee-sdp/ta/platform/stub.c:126
     270:	b570      	push	{r4, r5, r6, lr}
     272:	4606      	mov	r6, r0
     274:	4c07      	ldr	r4, [pc, #28]	; (294 <platform_find_device_by_name+0x24>)
/workspace/benchmark/optee-sdp/ta/platform/stub.c:129
     276:	2500      	movs	r5, #0
     278:	447c      	add	r4, pc
/workspace/benchmark/optee-sdp/ta/platform/stub.c:130
     27a:	4631      	mov	r1, r6
     27c:	4620      	mov	r0, r4
     27e:	f005 fe4b 	bl	5f18 <strcmp>
     282:	b120      	cbz	r0, 28e <platform_find_device_by_name+0x1e>
/workspace/benchmark/optee-sdp/ta/platform/stub.c:129 (discriminator 2)
     284:	3501      	adds	r5, #1
     286:	344c      	adds	r4, #76	; 0x4c
     288:	2d03      	cmp	r5, #3
     28a:	d1f6      	bne.n	27a <platform_find_device_by_name+0xa>
/workspace/benchmark/optee-sdp/ta/platform/stub.c:134
     28c:	2400      	movs	r4, #0
/workspace/benchmark/optee-sdp/ta/platform/stub.c:135
     28e:	4620      	mov	r0, r4
     290:	bd70      	pop	{r4, r5, r6, pc}
     292:	bf00      	nop
     294:	00007d84 	.word	0x00007d84

00000298 <platform_check_permissions>:
platform_check_permissions():
/workspace/benchmark/optee-sdp/ta/platform/stub.c:139
     298:	b51f      	push	{r0, r1, r2, r3, r4, lr}
/workspace/benchmark/optee-sdp/ta/platform/stub.c:140
     29a:	68c3      	ldr	r3, [r0, #12]
     29c:	b90b      	cbnz	r3, 2a2 <platform_check_permissions+0xa>
/workspace/benchmark/optee-sdp/ta/platform/stub.c:140 (discriminator 1)
     29e:	2a02      	cmp	r2, #2
     2a0:	d031      	beq.n	306 <platform_check_permissions+0x6e>
/workspace/benchmark/optee-sdp/ta/platform/stub.c:143
     2a2:	6c09      	ldr	r1, [r1, #64]	; 0x40
     2a4:	428b      	cmp	r3, r1
     2a6:	d101      	bne.n	2ac <platform_check_permissions+0x14>
/workspace/benchmark/optee-sdp/ta/platform/stub.c:143 (discriminator 1)
     2a8:	2a02      	cmp	r2, #2
     2aa:	d02c      	beq.n	306 <platform_check_permissions+0x6e>
/workspace/benchmark/optee-sdp/ta/platform/stub.c:146
     2ac:	f003 407f 	and.w	r0, r3, #4278190080	; 0xff000000
     2b0:	f1b0 7f40 	cmp.w	r0, #50331648	; 0x3000000
     2b4:	d10e      	bne.n	2d4 <platform_check_permissions+0x3c>
/workspace/benchmark/optee-sdp/ta/platform/stub.c:146 (discriminator 1)
     2b6:	2a02      	cmp	r2, #2
     2b8:	d016      	beq.n	2e8 <platform_check_permissions+0x50>
/workspace/benchmark/optee-sdp/ta/platform/stub.c:146 (discriminator 2)
     2ba:	f001 407f 	and.w	r0, r1, #4278190080	; 0xff000000
     2be:	f1b0 6f80 	cmp.w	r0, #67108864	; 0x4000000
     2c2:	d10e      	bne.n	2e2 <platform_check_permissions+0x4a>
/workspace/benchmark/optee-sdp/ta/platform/stub.c:155
     2c4:	ea83 0001 	eor.w	r0, r3, r1
     2c8:	f410 007f 	ands.w	r0, r0, #16711680	; 0xff0000
     2cc:	d10c      	bne.n	2e8 <platform_check_permissions+0x50>
/workspace/benchmark/optee-sdp/ta/platform/stub.c:160
     2ce:	b005      	add	sp, #20
     2d0:	f85d fb04 	ldr.w	pc, [sp], #4
/workspace/benchmark/optee-sdp/ta/platform/stub.c:154
     2d4:	f1b0 6f80 	cmp.w	r0, #67108864	; 0x4000000
     2d8:	d106      	bne.n	2e8 <platform_check_permissions+0x50>
/workspace/benchmark/optee-sdp/ta/platform/stub.c:154 (discriminator 1)
     2da:	2a02      	cmp	r2, #2
     2dc:	d004      	beq.n	2e8 <platform_check_permissions+0x50>
/workspace/benchmark/optee-sdp/ta/platform/stub.c:154 (discriminator 2)
     2de:	f001 407f 	and.w	r0, r1, #4278190080	; 0xff000000
     2e2:	f1b0 6fa0 	cmp.w	r0, #83886080	; 0x5000000
     2e6:	d0ed      	beq.n	2c4 <platform_check_permissions+0x2c>
/workspace/benchmark/optee-sdp/ta/platform/stub.c:158
     2e8:	9301      	str	r3, [sp, #4]
     2ea:	4808      	ldr	r0, [pc, #32]	; (30c <platform_check_permissions+0x74>)
     2ec:	4b08      	ldr	r3, [pc, #32]	; (310 <platform_check_permissions+0x78>)
     2ee:	4478      	add	r0, pc
     2f0:	9103      	str	r1, [sp, #12]
     2f2:	447b      	add	r3, pc
     2f4:	9202      	str	r2, [sp, #8]
     2f6:	9300      	str	r3, [sp, #0]
     2f8:	2202      	movs	r2, #2
     2fa:	2301      	movs	r3, #1
     2fc:	219e      	movs	r1, #158	; 0x9e
     2fe:	f000 fce7 	bl	cd0 <trace_printf>
/workspace/benchmark/optee-sdp/ta/platform/stub.c:159
     302:	2001      	movs	r0, #1
     304:	e7e3      	b.n	2ce <platform_check_permissions+0x36>
/workspace/benchmark/optee-sdp/ta/platform/stub.c:141
     306:	2000      	movs	r0, #0
     308:	e7e1      	b.n	2ce <platform_check_permissions+0x36>
     30a:	bf00      	nop
     30c:	000062ee 	.word	0x000062ee
     310:	000061d8 	.word	0x000061d8

00000314 <platform_add_device_to_region>:
platform_add_device_to_region():
/workspace/benchmark/optee-sdp/ta/platform/stub.c:163
     314:	b570      	push	{r4, r5, r6, lr}
/workspace/benchmark/optee-sdp/ta/platform/stub.c:170
     316:	2300      	movs	r3, #0
/workspace/benchmark/optee-sdp/ta/platform/stub.c:167
     318:	6c0c      	ldr	r4, [r1, #64]	; 0x40
     31a:	f100 050c 	add.w	r5, r0, #12
/workspace/benchmark/optee-sdp/ta/platform/stub.c:166
     31e:	2a02      	cmp	r2, #2
/workspace/benchmark/optee-sdp/ta/platform/stub.c:167
     320:	bf08      	it	eq
     322:	60c4      	streq	r4, [r0, #12]
/workspace/benchmark/optee-sdp/ta/platform/stub.c:171
     324:	f855 6f04 	ldr.w	r6, [r5, #4]!
     328:	b10e      	cbz	r6, 32e <platform_add_device_to_region+0x1a>
/workspace/benchmark/optee-sdp/ta/platform/stub.c:171 (discriminator 1)
     32a:	42a6      	cmp	r6, r4
     32c:	d107      	bne.n	33e <platform_add_device_to_region+0x2a>
/workspace/benchmark/optee-sdp/ta/platform/stub.c:172
     32e:	eb00 0083 	add.w	r0, r0, r3, lsl #2
/workspace/benchmark/optee-sdp/ta/platform/stub.c:181
     332:	6c4b      	ldr	r3, [r1, #68]	; 0x44
/workspace/benchmark/optee-sdp/ta/platform/stub.c:172
     334:	6104      	str	r4, [r0, #16]
/workspace/benchmark/optee-sdp/ta/platform/stub.c:173
     336:	61c2      	str	r2, [r0, #28]
/workspace/benchmark/optee-sdp/ta/platform/stub.c:181
     338:	4798      	blx	r3
/workspace/benchmark/optee-sdp/ta/platform/stub.c:183
     33a:	2000      	movs	r0, #0
/workspace/benchmark/optee-sdp/ta/platform/stub.c:184
     33c:	bd70      	pop	{r4, r5, r6, pc}
/workspace/benchmark/optee-sdp/ta/platform/stub.c:170 (discriminator 2)
     33e:	3301      	adds	r3, #1
     340:	2b03      	cmp	r3, #3
     342:	d1ef      	bne.n	324 <platform_add_device_to_region+0x10>
/workspace/benchmark/optee-sdp/ta/platform/stub.c:178
     344:	2001      	movs	r0, #1
     346:	e7f9      	b.n	33c <platform_add_device_to_region+0x28>

00000348 <platform_remove_device_from_region>:
platform_remove_device_from_region():
/workspace/benchmark/optee-sdp/ta/platform/stub.c:191
     348:	6c0b      	ldr	r3, [r1, #64]	; 0x40
     34a:	6902      	ldr	r2, [r0, #16]
/workspace/benchmark/optee-sdp/ta/platform/stub.c:187
     34c:	b510      	push	{r4, lr}
/workspace/benchmark/optee-sdp/ta/platform/stub.c:191
     34e:	4293      	cmp	r3, r2
     350:	d00f      	beq.n	372 <platform_remove_device_from_region+0x2a>
     352:	6942      	ldr	r2, [r0, #20]
     354:	4293      	cmp	r3, r2
     356:	d00e      	beq.n	376 <platform_remove_device_from_region+0x2e>
     358:	6982      	ldr	r2, [r0, #24]
     35a:	429a      	cmp	r2, r3
     35c:	d10d      	bne.n	37a <platform_remove_device_from_region+0x32>
/workspace/benchmark/optee-sdp/ta/platform/stub.c:190
     35e:	2302      	movs	r3, #2
/workspace/benchmark/optee-sdp/ta/platform/stub.c:192
     360:	eb00 0383 	add.w	r3, r0, r3, lsl #2
     364:	2400      	movs	r4, #0
     366:	611c      	str	r4, [r3, #16]
/workspace/benchmark/optee-sdp/ta/platform/stub.c:193
     368:	61dc      	str	r4, [r3, #28]
/workspace/benchmark/optee-sdp/ta/platform/stub.c:201
     36a:	6c8b      	ldr	r3, [r1, #72]	; 0x48
     36c:	4798      	blx	r3
/workspace/benchmark/optee-sdp/ta/platform/stub.c:202
     36e:	4620      	mov	r0, r4
/workspace/benchmark/optee-sdp/ta/platform/stub.c:203
     370:	bd10      	pop	{r4, pc}
/workspace/benchmark/optee-sdp/ta/platform/stub.c:190
     372:	2300      	movs	r3, #0
     374:	e7f4      	b.n	360 <platform_remove_device_from_region+0x18>
     376:	2301      	movs	r3, #1
     378:	e7f2      	b.n	360 <platform_remove_device_from_region+0x18>
/workspace/benchmark/optee-sdp/ta/platform/stub.c:198
     37a:	2001      	movs	r0, #1
     37c:	e7f8      	b.n	370 <platform_remove_device_from_region+0x28>

0000037e <platform_dump_status>:
platform_dump_status():
/workspace/benchmark/optee-sdp/ta/platform/stub.c:206
     37e:	e92d 4ff7 	stmdb	sp!, {r0, r1, r2, r4, r5, r6, r7, r8, r9, sl, fp, lr}
     382:	4605      	mov	r5, r0
/workspace/benchmark/optee-sdp/ta/platform/stub.c:210
     384:	4a3e      	ldr	r2, [pc, #248]	; (480 <platform_dump_status+0x102>)
     386:	4e3f      	ldr	r6, [pc, #252]	; (484 <platform_dump_status+0x106>)
/workspace/benchmark/optee-sdp/ta/platform/stub.c:206
     388:	460c      	mov	r4, r1
/workspace/benchmark/optee-sdp/ta/platform/stub.c:210
     38a:	6800      	ldr	r0, [r0, #0]
     38c:	447a      	add	r2, pc
/workspace/benchmark/optee-sdp/ta/platform/stub.c:215
     38e:	f8df 80f8 	ldr.w	r8, [pc, #248]	; 488 <platform_dump_status+0x10a>
/workspace/benchmark/optee-sdp/ta/platform/stub.c:210
     392:	f005 fda3 	bl	5edc <snprintf>
/workspace/benchmark/optee-sdp/ta/platform/stub.c:211
     396:	447e      	add	r6, pc
     398:	682b      	ldr	r3, [r5, #0]
/workspace/benchmark/optee-sdp/ta/platform/stub.c:212
     39a:	1a24      	subs	r4, r4, r0
     39c:	f106 07e4 	add.w	r7, r6, #228	; 0xe4
/workspace/benchmark/optee-sdp/ta/platform/stub.c:215
     3a0:	44f8      	add	r8, pc
/workspace/benchmark/optee-sdp/ta/platform/stub.c:211
     3a2:	4403      	add	r3, r0
     3a4:	602b      	str	r3, [r5, #0]
/workspace/benchmark/optee-sdp/ta/platform/stub.c:215 (discriminator 3)
     3a6:	6c33      	ldr	r3, [r6, #64]	; 0x40
     3a8:	4621      	mov	r1, r4
     3aa:	9300      	str	r3, [sp, #0]
     3ac:	4642      	mov	r2, r8
     3ae:	4633      	mov	r3, r6
     3b0:	6828      	ldr	r0, [r5, #0]
     3b2:	f005 fd93 	bl	5edc <snprintf>
/workspace/benchmark/optee-sdp/ta/platform/stub.c:216 (discriminator 3)
     3b6:	682b      	ldr	r3, [r5, #0]
/workspace/benchmark/optee-sdp/ta/platform/stub.c:215 (discriminator 3)
     3b8:	4601      	mov	r1, r0
/workspace/benchmark/optee-sdp/ta/platform/stub.c:214 (discriminator 3)
     3ba:	364c      	adds	r6, #76	; 0x4c
/workspace/benchmark/optee-sdp/ta/platform/stub.c:216 (discriminator 3)
     3bc:	1818      	adds	r0, r3, r0
/workspace/benchmark/optee-sdp/ta/platform/stub.c:217 (discriminator 3)
     3be:	1a64      	subs	r4, r4, r1
/workspace/benchmark/optee-sdp/ta/platform/stub.c:214 (discriminator 3)
     3c0:	42be      	cmp	r6, r7
/workspace/benchmark/optee-sdp/ta/platform/stub.c:216 (discriminator 3)
     3c2:	6028      	str	r0, [r5, #0]
/workspace/benchmark/optee-sdp/ta/platform/stub.c:214 (discriminator 3)
     3c4:	d1ef      	bne.n	3a6 <platform_dump_status+0x28>
/workspace/benchmark/optee-sdp/ta/platform/stub.c:220
     3c6:	4f31      	ldr	r7, [pc, #196]	; (48c <platform_dump_status+0x10e>)
     3c8:	4621      	mov	r1, r4
     3ca:	4a31      	ldr	r2, [pc, #196]	; (490 <platform_dump_status+0x112>)
     3cc:	447f      	add	r7, pc
/workspace/benchmark/optee-sdp/ta/platform/stub.c:235
     3ce:	f8df a0c4 	ldr.w	sl, [pc, #196]	; 494 <platform_dump_status+0x116>
/workspace/benchmark/optee-sdp/ta/platform/stub.c:220
     3d2:	447a      	add	r2, pc
/workspace/benchmark/optee-sdp/ta/platform/stub.c:241
     3d4:	f8df b0c0 	ldr.w	fp, [pc, #192]	; 498 <platform_dump_status+0x11a>
     3d8:	f107 0610 	add.w	r6, r7, #16
/workspace/benchmark/optee-sdp/ta/platform/stub.c:235
     3dc:	44fa      	add	sl, pc
/workspace/benchmark/optee-sdp/ta/platform/stub.c:220
     3de:	683b      	ldr	r3, [r7, #0]
/workspace/benchmark/optee-sdp/ta/platform/stub.c:241
     3e0:	44fb      	add	fp, pc
/workspace/benchmark/optee-sdp/ta/platform/stub.c:220
     3e2:	f005 fd7b 	bl	5edc <snprintf>
     3e6:	4602      	mov	r2, r0
/workspace/benchmark/optee-sdp/ta/platform/stub.c:221
     3e8:	682b      	ldr	r3, [r5, #0]
/workspace/benchmark/optee-sdp/ta/platform/stub.c:222
     3ea:	1aa4      	subs	r4, r4, r2
/workspace/benchmark/optee-sdp/ta/platform/stub.c:224
     3ec:	4a2b      	ldr	r2, [pc, #172]	; (49c <platform_dump_status+0x11e>)
     3ee:	4621      	mov	r1, r4
/workspace/benchmark/optee-sdp/ta/platform/stub.c:221
     3f0:	1818      	adds	r0, r3, r0
/workspace/benchmark/optee-sdp/ta/platform/stub.c:224
     3f2:	687b      	ldr	r3, [r7, #4]
     3f4:	447a      	add	r2, pc
/workspace/benchmark/optee-sdp/ta/platform/stub.c:221
     3f6:	6028      	str	r0, [r5, #0]
/workspace/benchmark/optee-sdp/ta/platform/stub.c:224
     3f8:	f005 fd70 	bl	5edc <snprintf>
     3fc:	4602      	mov	r2, r0
/workspace/benchmark/optee-sdp/ta/platform/stub.c:225
     3fe:	682b      	ldr	r3, [r5, #0]
/workspace/benchmark/optee-sdp/ta/platform/stub.c:226
     400:	1aa4      	subs	r4, r4, r2
/workspace/benchmark/optee-sdp/ta/platform/stub.c:228
     402:	4a27      	ldr	r2, [pc, #156]	; (4a0 <platform_dump_status+0x122>)
     404:	4621      	mov	r1, r4
/workspace/benchmark/optee-sdp/ta/platform/stub.c:225
     406:	1818      	adds	r0, r3, r0
/workspace/benchmark/optee-sdp/ta/platform/stub.c:228
     408:	68bb      	ldr	r3, [r7, #8]
     40a:	447a      	add	r2, pc
/workspace/benchmark/optee-sdp/ta/platform/stub.c:225
     40c:	6028      	str	r0, [r5, #0]
/workspace/benchmark/optee-sdp/ta/platform/stub.c:228
     40e:	f005 fd65 	bl	5edc <snprintf>
/workspace/benchmark/optee-sdp/ta/platform/stub.c:229
     412:	682b      	ldr	r3, [r5, #0]
/workspace/benchmark/optee-sdp/ta/platform/stub.c:230
     414:	1a24      	subs	r4, r4, r0
     416:	f507 774c 	add.w	r7, r7, #816	; 0x330
/workspace/benchmark/optee-sdp/ta/platform/stub.c:229
     41a:	4403      	add	r3, r0
     41c:	602b      	str	r3, [r5, #0]
/workspace/benchmark/optee-sdp/ta/platform/stub.c:233
     41e:	e9d6 3200 	ldrd	r3, r2, [r6]
     422:	431a      	orrs	r2, r3
     424:	d024      	beq.n	470 <platform_dump_status+0xf2>
/workspace/benchmark/optee-sdp/ta/platform/stub.c:235
     426:	68f2      	ldr	r2, [r6, #12]
     428:	4621      	mov	r1, r4
     42a:	9201      	str	r2, [sp, #4]
     42c:	f106 090c 	add.w	r9, r6, #12
     430:	6828      	ldr	r0, [r5, #0]
/workspace/benchmark/optee-sdp/ta/platform/stub.c:239
     432:	f04f 0800 	mov.w	r8, #0
/workspace/benchmark/optee-sdp/ta/platform/stub.c:235
     436:	68b2      	ldr	r2, [r6, #8]
     438:	9200      	str	r2, [sp, #0]
     43a:	4652      	mov	r2, sl
     43c:	f005 fd4e 	bl	5edc <snprintf>
/workspace/benchmark/optee-sdp/ta/platform/stub.c:236
     440:	682b      	ldr	r3, [r5, #0]
/workspace/benchmark/optee-sdp/ta/platform/stub.c:237
     442:	1a24      	subs	r4, r4, r0
/workspace/benchmark/optee-sdp/ta/platform/stub.c:236
     444:	4403      	add	r3, r0
     446:	602b      	str	r3, [r5, #0]
/workspace/benchmark/optee-sdp/ta/platform/stub.c:240
     448:	f859 3f04 	ldr.w	r3, [r9, #4]!
     44c:	b15b      	cbz	r3, 466 <platform_dump_status+0xe8>
/workspace/benchmark/optee-sdp/ta/platform/stub.c:241
     44e:	f8d9 200c 	ldr.w	r2, [r9, #12]
     452:	4621      	mov	r1, r4
     454:	9200      	str	r2, [sp, #0]
     456:	465a      	mov	r2, fp
     458:	6828      	ldr	r0, [r5, #0]
     45a:	f005 fd3f 	bl	5edc <snprintf>
/workspace/benchmark/optee-sdp/ta/platform/stub.c:242
     45e:	682b      	ldr	r3, [r5, #0]
/workspace/benchmark/optee-sdp/ta/platform/stub.c:243
     460:	1a24      	subs	r4, r4, r0
/workspace/benchmark/optee-sdp/ta/platform/stub.c:242
     462:	4403      	add	r3, r0
     464:	602b      	str	r3, [r5, #0]
/workspace/benchmark/optee-sdp/ta/platform/stub.c:239 (discriminator 2)
     466:	f108 0801 	add.w	r8, r8, #1
     46a:	f1b8 0f03 	cmp.w	r8, #3
     46e:	d1eb      	bne.n	448 <platform_dump_status+0xca>
/workspace/benchmark/optee-sdp/ta/platform/stub.c:232 (discriminator 2)
     470:	3628      	adds	r6, #40	; 0x28
     472:	42be      	cmp	r6, r7
     474:	d1d3      	bne.n	41e <platform_dump_status+0xa0>
/workspace/benchmark/optee-sdp/ta/platform/stub.c:249
     476:	2000      	movs	r0, #0
     478:	b003      	add	sp, #12
     47a:	e8bd 8ff0 	ldmia.w	sp!, {r4, r5, r6, r7, r8, r9, sl, fp, pc}
     47e:	bf00      	nop
     480:	0000618c 	.word	0x0000618c
     484:	00007c66 	.word	0x00007c66
     488:	0000618b 	.word	0x0000618b
     48c:	00007db0 	.word	0x00007db0
     490:	00006171 	.word	0x00006171
     494:	000061be 	.word	0x000061be
     498:	000061e0 	.word	0x000061e0
     49c:	0000616c 	.word	0x0000616c
     4a0:	00006175 	.word	0x00006175

000004a4 <platform_dump_device>:
platform_dump_device():
/workspace/benchmark/optee-sdp/ta/platform/stub.c:256
     4a4:	4a10      	ldr	r2, [pc, #64]	; (4e8 <platform_dump_device+0x44>)
/workspace/benchmark/optee-sdp/ta/platform/stub.c:252
     4a6:	e92d 41f3 	stmdb	sp!, {r0, r1, r4, r5, r6, r7, r8, lr}
     4aa:	4605      	mov	r5, r0
/workspace/benchmark/optee-sdp/ta/platform/stub.c:256
     4ac:	4f0f      	ldr	r7, [pc, #60]	; (4ec <platform_dump_device+0x48>)
/workspace/benchmark/optee-sdp/ta/platform/stub.c:261
     4ae:	f8df 8040 	ldr.w	r8, [pc, #64]	; 4f0 <platform_dump_device+0x4c>
/workspace/benchmark/optee-sdp/ta/platform/stub.c:252
     4b2:	460c      	mov	r4, r1
/workspace/benchmark/optee-sdp/ta/platform/stub.c:256
     4b4:	447a      	add	r2, pc
     4b6:	447f      	add	r7, pc
     4b8:	f005 fd10 	bl	5edc <snprintf>
/workspace/benchmark/optee-sdp/ta/platform/stub.c:258
     4bc:	2603      	movs	r6, #3
/workspace/benchmark/optee-sdp/ta/platform/stub.c:257
     4be:	4405      	add	r5, r0
/workspace/benchmark/optee-sdp/ta/platform/stub.c:258
     4c0:	1a24      	subs	r4, r4, r0
/workspace/benchmark/optee-sdp/ta/platform/stub.c:261
     4c2:	44f8      	add	r8, pc
/workspace/benchmark/optee-sdp/ta/platform/stub.c:261 (discriminator 3)
     4c4:	6c3b      	ldr	r3, [r7, #64]	; 0x40
     4c6:	4621      	mov	r1, r4
     4c8:	4628      	mov	r0, r5
     4ca:	9300      	str	r3, [sp, #0]
     4cc:	4642      	mov	r2, r8
     4ce:	463b      	mov	r3, r7
     4d0:	f005 fd04 	bl	5edc <snprintf>
/workspace/benchmark/optee-sdp/ta/platform/stub.c:260 (discriminator 3)
     4d4:	374c      	adds	r7, #76	; 0x4c
/workspace/benchmark/optee-sdp/ta/platform/stub.c:262 (discriminator 3)
     4d6:	4405      	add	r5, r0
/workspace/benchmark/optee-sdp/ta/platform/stub.c:263 (discriminator 3)
     4d8:	1a24      	subs	r4, r4, r0
/workspace/benchmark/optee-sdp/ta/platform/stub.c:260 (discriminator 3)
     4da:	3e01      	subs	r6, #1
     4dc:	d1f2      	bne.n	4c4 <platform_dump_device+0x20>
/workspace/benchmark/optee-sdp/ta/platform/stub.c:266
     4de:	4630      	mov	r0, r6
     4e0:	b002      	add	sp, #8
     4e2:	e8bd 81f0 	ldmia.w	sp!, {r4, r5, r6, r7, r8, pc}
     4e6:	bf00      	nop
     4e8:	00006064 	.word	0x00006064
     4ec:	00007b46 	.word	0x00007b46
     4f0:	00006069 	.word	0x00006069

000004f4 <__vsnprintf>:
__vsnprintf():
/mnt/disk/raspbian-tee/optee_os/lib/libutils/ext/snprintk.c:137
     4f4:	e92d 4ff0 	stmdb	sp!, {r4, r5, r6, r7, r8, r9, sl, fp, lr}
/mnt/disk/raspbian-tee/optee_os/lib/libutils/ext/snprintk.c:141
     4f8:	4680      	mov	r8, r0
     4fa:	461f      	mov	r7, r3
/mnt/disk/raspbian-tee/optee_os/lib/libutils/ext/snprintk.c:137
     4fc:	b09f      	sub	sp, #124	; 0x7c
kprintf():
/mnt/disk/raspbian-tee/optee_os/lib/libutils/ext/snprintk.c:269
     4fe:	2300      	movs	r3, #0
__vsnprintf():
/mnt/disk/raspbian-tee/optee_os/lib/libutils/ext/snprintk.c:137
     500:	920b      	str	r2, [sp, #44]	; 0x2c
     502:	f89d 20a0 	ldrb.w	r2, [sp, #160]	; 0xa0
     506:	9213      	str	r2, [sp, #76]	; 0x4c
/mnt/disk/raspbian-tee/optee_os/lib/libutils/ext/snprintk.c:141
     508:	4602      	mov	r2, r0
     50a:	440a      	add	r2, r1
/mnt/disk/raspbian-tee/optee_os/lib/libutils/ext/snprintk.c:137
     50c:	9010      	str	r0, [sp, #64]	; 0x40
     50e:	9112      	str	r1, [sp, #72]	; 0x48
/mnt/disk/raspbian-tee/optee_os/lib/libutils/ext/snprintk.c:141
     510:	920e      	str	r2, [sp, #56]	; 0x38
kprintf():
/mnt/disk/raspbian-tee/optee_os/lib/libutils/ext/snprintk.c:269
     512:	930f      	str	r3, [sp, #60]	; 0x3c
/mnt/disk/raspbian-tee/optee_os/lib/libutils/ext/snprintk.c:267
     514:	930c      	str	r3, [sp, #48]	; 0x30
/mnt/disk/raspbian-tee/optee_os/lib/libutils/ext/snprintk.c:275
     516:	9b0b      	ldr	r3, [sp, #44]	; 0x2c
     518:	781b      	ldrb	r3, [r3, #0]
     51a:	2b25      	cmp	r3, #37	; 0x25
     51c:	d024      	beq.n	568 <__vsnprintf+0x74>
     51e:	b993      	cbnz	r3, 546 <__vsnprintf+0x52>
__vsnprintf():
/mnt/disk/raspbian-tee/optee_os/lib/libutils/ext/snprintk.c:143
     520:	9b10      	ldr	r3, [sp, #64]	; 0x40
     522:	b163      	cbz	r3, 53e <__vsnprintf+0x4a>
/mnt/disk/raspbian-tee/optee_os/lib/libutils/ext/snprintk.c:143 (discriminator 1)
     524:	9b12      	ldr	r3, [sp, #72]	; 0x48
     526:	b153      	cbz	r3, 53e <__vsnprintf+0x4a>
/mnt/disk/raspbian-tee/optee_os/lib/libutils/ext/snprintk.c:145
     528:	9a0c      	ldr	r2, [sp, #48]	; 0x30
     52a:	4293      	cmp	r3, r2
     52c:	f04f 0300 	mov.w	r3, #0
/mnt/disk/raspbian-tee/optee_os/lib/libutils/ext/snprintk.c:146
     530:	9a10      	ldr	r2, [sp, #64]	; 0x40
/mnt/disk/raspbian-tee/optee_os/lib/libutils/ext/snprintk.c:145
     532:	f200 835f 	bhi.w	bf4 <__vsnprintf+0x700>
/mnt/disk/raspbian-tee/optee_os/lib/libutils/ext/snprintk.c:146
     536:	9912      	ldr	r1, [sp, #72]	; 0x48
     538:	440a      	add	r2, r1
     53a:	f802 3c01 	strb.w	r3, [r2, #-1]
/mnt/disk/raspbian-tee/optee_os/lib/libutils/ext/snprintk.c:151
     53e:	980c      	ldr	r0, [sp, #48]	; 0x30
     540:	b01f      	add	sp, #124	; 0x7c
     542:	e8bd 8ff0 	ldmia.w	sp!, {r4, r5, r6, r7, r8, r9, sl, fp, pc}
kprintf():
/mnt/disk/raspbian-tee/optee_os/lib/libutils/ext/snprintk.c:276
     546:	9a0c      	ldr	r2, [sp, #48]	; 0x30
     548:	3201      	adds	r2, #1
     54a:	920c      	str	r2, [sp, #48]	; 0x30
/mnt/disk/raspbian-tee/optee_os/lib/libutils/ext/snprintk.c:277
     54c:	f1b8 0f00 	cmp.w	r8, #0
     550:	d006      	beq.n	560 <__vsnprintf+0x6c>
     552:	9a0e      	ldr	r2, [sp, #56]	; 0x38
     554:	4542      	cmp	r2, r8
     556:	d903      	bls.n	560 <__vsnprintf+0x6c>
     558:	f888 3000 	strb.w	r3, [r8]
     55c:	f108 0801 	add.w	r8, r8, #1
/mnt/disk/raspbian-tee/optee_os/lib/libutils/ext/snprintk.c:275
     560:	9b0b      	ldr	r3, [sp, #44]	; 0x2c
     562:	3301      	adds	r3, #1
     564:	930b      	str	r3, [sp, #44]	; 0x2c
     566:	e7d6      	b.n	516 <__vsnprintf+0x22>
/mnt/disk/raspbian-tee/optee_os/lib/libutils/ext/snprintk.c:282
     568:	9b0b      	ldr	r3, [sp, #44]	; 0x2c
/mnt/disk/raspbian-tee/optee_os/lib/libutils/ext/snprintk.c:288
     56a:	f04f 0a00 	mov.w	sl, #0
/mnt/disk/raspbian-tee/optee_os/lib/libutils/ext/snprintk.c:282
     56e:	463a      	mov	r2, r7
/mnt/disk/raspbian-tee/optee_os/lib/libutils/ext/snprintk.c:287
     570:	f04f 3bff 	mov.w	fp, #4294967295	; 0xffffffff
/mnt/disk/raspbian-tee/optee_os/lib/libutils/ext/snprintk.c:282
     574:	3301      	adds	r3, #1
/mnt/disk/raspbian-tee/optee_os/lib/libutils/ext/snprintk.c:284
     576:	4656      	mov	r6, sl
/mnt/disk/raspbian-tee/optee_os/lib/libutils/ext/snprintk.c:286
     578:	f8cd a034 	str.w	sl, [sp, #52]	; 0x34
/mnt/disk/raspbian-tee/optee_os/lib/libutils/ext/snprintk.c:290
     57c:	f893 9000 	ldrb.w	r9, [r3]
     580:	1c59      	adds	r1, r3, #1
     582:	910b      	str	r1, [sp, #44]	; 0x2c
/mnt/disk/raspbian-tee/optee_os/lib/libutils/ext/snprintk.c:291
     584:	f1b9 0f63 	cmp.w	r9, #99	; 0x63
     588:	f000 8163 	beq.w	852 <__vsnprintf+0x35e>
     58c:	f300 8095 	bgt.w	6ba <__vsnprintf+0x1c6>
     590:	f1b9 0f30 	cmp.w	r9, #48	; 0x30
     594:	f000 8147 	beq.w	826 <__vsnprintf+0x332>
     598:	dc26      	bgt.n	5e8 <__vsnprintf+0xf4>
     59a:	f1b9 0f2a 	cmp.w	r9, #42	; 0x2a
     59e:	f000 8119 	beq.w	7d4 <__vsnprintf+0x2e0>
     5a2:	dc13      	bgt.n	5cc <__vsnprintf+0xd8>
     5a4:	f1b9 0f20 	cmp.w	r9, #32
     5a8:	f000 810a 	beq.w	7c0 <__vsnprintf+0x2cc>
     5ac:	f1b9 0f23 	cmp.w	r9, #35	; 0x23
     5b0:	f000 810d 	beq.w	7ce <__vsnprintf+0x2da>
/mnt/disk/raspbian-tee/optee_os/lib/libutils/ext/snprintk.c:541
     5b4:	f1b9 0f00 	cmp.w	r9, #0
     5b8:	d0b2      	beq.n	520 <__vsnprintf+0x2c>
/mnt/disk/raspbian-tee/optee_os/lib/libutils/ext/snprintk.c:545
     5ba:	ab1e      	add	r3, sp, #120	; 0x78
     5bc:	4617      	mov	r7, r2
/mnt/disk/raspbian-tee/optee_os/lib/libutils/ext/snprintk.c:546
     5be:	f04f 0b01 	mov.w	fp, #1
/mnt/disk/raspbian-tee/optee_os/lib/libutils/ext/snprintk.c:545
     5c2:	f803 9d28 	strb.w	r9, [r3, #-40]!
     5c6:	e0c0      	b.n	74a <__vsnprintf+0x256>
/mnt/disk/raspbian-tee/optee_os/lib/libutils/ext/snprintk.c:311
     5c8:	461a      	mov	r2, r3
     5ca:	e00b      	b.n	5e4 <__vsnprintf+0xf0>
/mnt/disk/raspbian-tee/optee_os/lib/libutils/ext/snprintk.c:291
     5cc:	f1b9 0f2d 	cmp.w	r9, #45	; 0x2d
     5d0:	f000 8109 	beq.w	7e6 <__vsnprintf+0x2f2>
     5d4:	f1b9 0f2e 	cmp.w	r9, #46	; 0x2e
     5d8:	f000 8108 	beq.w	7ec <__vsnprintf+0x2f8>
     5dc:	f1b9 0f2b 	cmp.w	r9, #43	; 0x2b
     5e0:	d1e8      	bne.n	5b4 <__vsnprintf+0xc0>
/mnt/disk/raspbian-tee/optee_os/lib/libutils/ext/snprintk.c:319
     5e2:	46ca      	mov	sl, r9
/mnt/disk/raspbian-tee/optee_os/lib/libutils/ext/snprintk.c:322
     5e4:	9b0b      	ldr	r3, [sp, #44]	; 0x2c
     5e6:	e7c9      	b.n	57c <__vsnprintf+0x88>
/mnt/disk/raspbian-tee/optee_os/lib/libutils/ext/snprintk.c:291
     5e8:	f1b9 0f44 	cmp.w	r9, #68	; 0x44
     5ec:	f000 818a 	beq.w	904 <__vsnprintf+0x410>
     5f0:	dc14      	bgt.n	61c <__vsnprintf+0x128>
     5f2:	f1b9 0f39 	cmp.w	r9, #57	; 0x39
     5f6:	dcdd      	bgt.n	5b4 <__vsnprintf+0xc0>
     5f8:	2300      	movs	r3, #0
     5fa:	930d      	str	r3, [sp, #52]	; 0x34
/mnt/disk/raspbian-tee/optee_os/lib/libutils/ext/snprintk.c:346
     5fc:	9b0d      	ldr	r3, [sp, #52]	; 0x34
     5fe:	f1a9 0930 	sub.w	r9, r9, #48	; 0x30
     602:	210a      	movs	r1, #10
     604:	fb01 9303 	mla	r3, r1, r3, r9
     608:	930d      	str	r3, [sp, #52]	; 0x34
/mnt/disk/raspbian-tee/optee_os/lib/libutils/ext/snprintk.c:347
     60a:	9b0b      	ldr	r3, [sp, #44]	; 0x2c
     60c:	f813 9b01 	ldrb.w	r9, [r3], #1
     610:	930b      	str	r3, [sp, #44]	; 0x2c
/mnt/disk/raspbian-tee/optee_os/lib/libutils/ext/snprintk.c:348
     612:	f1a9 0330 	sub.w	r3, r9, #48	; 0x30
     616:	2b09      	cmp	r3, #9
     618:	d9f0      	bls.n	5fc <__vsnprintf+0x108>
     61a:	e7b3      	b.n	584 <__vsnprintf+0x90>
/mnt/disk/raspbian-tee/optee_os/lib/libutils/ext/snprintk.c:291
     61c:	f1b9 0f55 	cmp.w	r9, #85	; 0x55
     620:	f000 823d 	beq.w	a9e <__vsnprintf+0x5aa>
     624:	f1b9 0f58 	cmp.w	r9, #88	; 0x58
     628:	f000 80ab 	beq.w	782 <__vsnprintf+0x28e>
     62c:	f1b9 0f4f 	cmp.w	r9, #79	; 0x4f
     630:	d1c0      	bne.n	5b4 <__vsnprintf+0xc0>
/mnt/disk/raspbian-tee/optee_os/lib/libutils/ext/snprintk.c:408
     632:	f046 0610 	orr.w	r6, r6, #16
/mnt/disk/raspbian-tee/optee_os/lib/libutils/ext/snprintk.c:411
     636:	0635      	lsls	r5, r6, #24
     638:	f140 81c0 	bpl.w	9bc <__vsnprintf+0x4c8>
     63c:	3207      	adds	r2, #7
     63e:	f022 0207 	bic.w	r2, r2, #7
     642:	f102 0708 	add.w	r7, r2, #8
     646:	e9d2 4500 	ldrd	r4, r5, [r2]
/mnt/disk/raspbian-tee/optee_os/lib/libutils/ext/snprintk.c:488
     64a:	f04f 0a00 	mov.w	sl, #0
     64e:	f1bb 3fff 	cmp.w	fp, #4294967295	; 0xffffffff
     652:	d011      	beq.n	678 <__vsnprintf+0x184>
     654:	4653      	mov	r3, sl
/mnt/disk/raspbian-tee/optee_os/lib/libutils/ext/snprintk.c:489
     656:	f426 6680 	bic.w	r6, r6, #1024	; 0x400
/mnt/disk/raspbian-tee/optee_os/lib/libutils/ext/snprintk.c:497
     65a:	ea54 0205 	orrs.w	r2, r4, r5
     65e:	d105      	bne.n	66c <__vsnprintf+0x178>
     660:	f1bb 0f00 	cmp.w	fp, #0
     664:	f000 8269 	beq.w	b3a <__vsnprintf+0x646>
     668:	2400      	movs	r4, #0
     66a:	2500      	movs	r5, #0
/mnt/disk/raspbian-tee/optee_os/lib/libutils/ext/snprintk.c:503
     66c:	2b01      	cmp	r3, #1
     66e:	f000 8161 	beq.w	934 <__vsnprintf+0x440>
     672:	2b02      	cmp	r3, #2
     674:	f000 81f8 	beq.w	a68 <__vsnprintf+0x574>
/mnt/disk/raspbian-tee/optee_os/lib/libutils/ext/snprintk.c:488
     678:	f10d 0275 	add.w	r2, sp, #117	; 0x75
/mnt/disk/raspbian-tee/optee_os/lib/libutils/ext/snprintk.c:507
     67c:	08e0      	lsrs	r0, r4, #3
     67e:	ea4f 0cd5 	mov.w	ip, r5, lsr #3
     682:	ea40 7045 	orr.w	r0, r0, r5, lsl #29
/mnt/disk/raspbian-tee/optee_os/lib/libutils/ext/snprintk.c:506
     686:	f004 0107 	and.w	r1, r4, #7
/mnt/disk/raspbian-tee/optee_os/lib/libutils/ext/snprintk.c:507
     68a:	4665      	mov	r5, ip
     68c:	4604      	mov	r4, r0
/mnt/disk/raspbian-tee/optee_os/lib/libutils/ext/snprintk.c:506
     68e:	3130      	adds	r1, #48	; 0x30
     690:	1e53      	subs	r3, r2, #1
     692:	f802 1c01 	strb.w	r1, [r2, #-1]
/mnt/disk/raspbian-tee/optee_os/lib/libutils/ext/snprintk.c:508
     696:	ea54 0005 	orrs.w	r0, r4, r5
     69a:	f040 8239 	bne.w	b10 <__vsnprintf+0x61c>
/mnt/disk/raspbian-tee/optee_os/lib/libutils/ext/snprintk.c:510
     69e:	07f5      	lsls	r5, r6, #31
     6a0:	d505      	bpl.n	6ae <__vsnprintf+0x1ba>
     6a2:	2930      	cmp	r1, #48	; 0x30
     6a4:	d003      	beq.n	6ae <__vsnprintf+0x1ba>
/mnt/disk/raspbian-tee/optee_os/lib/libutils/ext/snprintk.c:511
     6a6:	2130      	movs	r1, #48	; 0x30
     6a8:	f803 1c01 	strb.w	r1, [r3, #-1]
     6ac:	1e93      	subs	r3, r2, #2
/mnt/disk/raspbian-tee/optee_os/lib/libutils/ext/snprintk.c:537
     6ae:	f10d 0275 	add.w	r2, sp, #117	; 0x75
     6b2:	4658      	mov	r0, fp
     6b4:	eba2 0b03 	sub.w	fp, r2, r3
     6b8:	e0d5      	b.n	866 <__vsnprintf+0x372>
/mnt/disk/raspbian-tee/optee_os/lib/libutils/ext/snprintk.c:291
     6ba:	f1b9 0f6f 	cmp.w	r9, #111	; 0x6f
     6be:	d0ba      	beq.n	636 <__vsnprintf+0x142>
     6c0:	dc1e      	bgt.n	700 <__vsnprintf+0x20c>
     6c2:	f1b9 0f69 	cmp.w	r9, #105	; 0x69
     6c6:	f000 811f 	beq.w	908 <__vsnprintf+0x414>
     6ca:	dc0a      	bgt.n	6e2 <__vsnprintf+0x1ee>
     6cc:	f1b9 0f64 	cmp.w	r9, #100	; 0x64
     6d0:	f000 811a 	beq.w	908 <__vsnprintf+0x414>
     6d4:	f1b9 0f68 	cmp.w	r9, #104	; 0x68
     6d8:	f47f af6c 	bne.w	5b4 <__vsnprintf+0xc0>
/mnt/disk/raspbian-tee/optee_os/lib/libutils/ext/snprintk.c:352
     6dc:	f046 0640 	orr.w	r6, r6, #64	; 0x40
     6e0:	e780      	b.n	5e4 <__vsnprintf+0xf0>
/mnt/disk/raspbian-tee/optee_os/lib/libutils/ext/snprintk.c:291
     6e2:	f1b9 0f6c 	cmp.w	r9, #108	; 0x6c
     6e6:	f000 80a1 	beq.w	82c <__vsnprintf+0x338>
     6ea:	f1b9 0f6e 	cmp.w	r9, #110	; 0x6e
     6ee:	f000 8146 	beq.w	97e <__vsnprintf+0x48a>
     6f2:	f1b9 0f6a 	cmp.w	r9, #106	; 0x6a
     6f6:	f47f af5d 	bne.w	5b4 <__vsnprintf+0xc0>
/mnt/disk/raspbian-tee/optee_os/lib/libutils/ext/snprintk.c:355
     6fa:	f046 0680 	orr.w	r6, r6, #128	; 0x80
     6fe:	e771      	b.n	5e4 <__vsnprintf+0xf0>
/mnt/disk/raspbian-tee/optee_os/lib/libutils/ext/snprintk.c:291
     700:	f1b9 0f74 	cmp.w	r9, #116	; 0x74
     704:	f000 809f 	beq.w	846 <__vsnprintf+0x352>
     708:	dc22      	bgt.n	750 <__vsnprintf+0x25c>
     70a:	f1b9 0f71 	cmp.w	r9, #113	; 0x71
     70e:	f000 8094 	beq.w	83a <__vsnprintf+0x346>
     712:	f2c0 8167 	blt.w	9e4 <__vsnprintf+0x4f0>
     716:	f1b9 0f73 	cmp.w	r9, #115	; 0x73
     71a:	f47f af4b 	bne.w	5b4 <__vsnprintf+0xc0>
/mnt/disk/raspbian-tee/optee_os/lib/libutils/ext/snprintk.c:442
     71e:	6813      	ldr	r3, [r2, #0]
     720:	1d17      	adds	r7, r2, #4
     722:	b913      	cbnz	r3, 72a <__vsnprintf+0x236>
/mnt/disk/raspbian-tee/optee_os/lib/libutils/ext/snprintk.c:444
     724:	f8df 34ec 	ldr.w	r3, [pc, #1260]	; c14 <__vsnprintf+0x720>
     728:	447b      	add	r3, pc
/mnt/disk/raspbian-tee/optee_os/lib/libutils/ext/snprintk.c:445
     72a:	f1bb 3fff 	cmp.w	fp, #4294967295	; 0xffffffff
     72e:	f000 81ad 	beq.w	a8c <__vsnprintf+0x598>
/mnt/disk/raspbian-tee/optee_os/lib/libutils/ext/snprintk.c:451
     732:	4618      	mov	r0, r3
     734:	465a      	mov	r2, fp
     736:	2100      	movs	r1, #0
     738:	9311      	str	r3, [sp, #68]	; 0x44
     73a:	f005 fbfd 	bl	5f38 <memchr>
/mnt/disk/raspbian-tee/optee_os/lib/libutils/ext/snprintk.c:453
     73e:	9b11      	ldr	r3, [sp, #68]	; 0x44
     740:	b120      	cbz	r0, 74c <__vsnprintf+0x258>
/mnt/disk/raspbian-tee/optee_os/lib/libutils/ext/snprintk.c:454
     742:	1ac0      	subs	r0, r0, r3
     744:	4583      	cmp	fp, r0
     746:	bfa8      	it	ge
     748:	4683      	movge	fp, r0
/mnt/disk/raspbian-tee/optee_os/lib/libutils/ext/snprintk.c:285
     74a:	2000      	movs	r0, #0
/mnt/disk/raspbian-tee/optee_os/lib/libutils/ext/snprintk.c:461
     74c:	4682      	mov	sl, r0
     74e:	e08a      	b.n	866 <__vsnprintf+0x372>
/mnt/disk/raspbian-tee/optee_os/lib/libutils/ext/snprintk.c:291
     750:	f1b9 0f78 	cmp.w	r9, #120	; 0x78
     754:	f000 81c2 	beq.w	adc <__vsnprintf+0x5e8>
     758:	f1b9 0f7a 	cmp.w	r9, #122	; 0x7a
     75c:	d076      	beq.n	84c <__vsnprintf+0x358>
     75e:	f1b9 0f75 	cmp.w	r9, #117	; 0x75
     762:	f47f af27 	bne.w	5b4 <__vsnprintf+0xc0>
/mnt/disk/raspbian-tee/optee_os/lib/libutils/ext/snprintk.c:467
     766:	f016 0380 	ands.w	r3, r6, #128	; 0x80
     76a:	f000 819b 	beq.w	aa4 <__vsnprintf+0x5b0>
     76e:	3207      	adds	r2, #7
     770:	f022 0207 	bic.w	r2, r2, #7
     774:	f102 0708 	add.w	r7, r2, #8
     778:	e9d2 4500 	ldrd	r4, r5, [r2]
/mnt/disk/raspbian-tee/optee_os/lib/libutils/ext/snprintk.c:482
     77c:	f04f 0a00 	mov.w	sl, #0
     780:	e0d4      	b.n	92c <__vsnprintf+0x438>
/mnt/disk/raspbian-tee/optee_os/lib/libutils/ext/snprintk.c:471
     782:	f8df 3494 	ldr.w	r3, [pc, #1172]	; c18 <__vsnprintf+0x724>
     786:	447b      	add	r3, pc
/mnt/disk/raspbian-tee/optee_os/lib/libutils/ext/snprintk.c:474
     788:	930f      	str	r3, [sp, #60]	; 0x3c
/mnt/disk/raspbian-tee/optee_os/lib/libutils/ext/snprintk.c:475
     78a:	0637      	lsls	r7, r6, #24
     78c:	f140 81aa 	bpl.w	ae4 <__vsnprintf+0x5f0>
     790:	3207      	adds	r2, #7
     792:	f022 0207 	bic.w	r2, r2, #7
     796:	f102 0708 	add.w	r7, r2, #8
     79a:	e9d2 4500 	ldrd	r4, r5, [r2]
/mnt/disk/raspbian-tee/optee_os/lib/libutils/ext/snprintk.c:478
     79e:	07f3      	lsls	r3, r6, #31
     7a0:	f140 815c 	bpl.w	a5c <__vsnprintf+0x568>
     7a4:	ea54 0305 	orrs.w	r3, r4, r5
     7a8:	f000 822d 	beq.w	c06 <__vsnprintf+0x712>
/mnt/disk/raspbian-tee/optee_os/lib/libutils/ext/snprintk.c:479
     7ac:	f046 0602 	orr.w	r6, r6, #2
/mnt/disk/raspbian-tee/optee_os/lib/libutils/ext/snprintk.c:488
     7b0:	f1bb 3fff 	cmp.w	fp, #4294967295	; 0xffffffff
     7b4:	f000 822a 	beq.w	c0c <__vsnprintf+0x718>
     7b8:	f04f 0a00 	mov.w	sl, #0
     7bc:	2302      	movs	r3, #2
     7be:	e74a      	b.n	656 <__vsnprintf+0x162>
/mnt/disk/raspbian-tee/optee_os/lib/libutils/ext/snprintk.c:299
     7c0:	f1ba 0f00 	cmp.w	sl, #0
     7c4:	f04f 0320 	mov.w	r3, #32
     7c8:	bf08      	it	eq
     7ca:	469a      	moveq	sl, r3
     7cc:	e70a      	b.n	5e4 <__vsnprintf+0xf0>
/mnt/disk/raspbian-tee/optee_os/lib/libutils/ext/snprintk.c:302
     7ce:	f046 0601 	orr.w	r6, r6, #1
     7d2:	e707      	b.n	5e4 <__vsnprintf+0xf0>
/mnt/disk/raspbian-tee/optee_os/lib/libutils/ext/snprintk.c:311
     7d4:	1d13      	adds	r3, r2, #4
     7d6:	6812      	ldr	r2, [r2, #0]
     7d8:	920d      	str	r2, [sp, #52]	; 0x34
     7da:	2a00      	cmp	r2, #0
     7dc:	f6bf aef4 	bge.w	5c8 <__vsnprintf+0xd4>
/mnt/disk/raspbian-tee/optee_os/lib/libutils/ext/snprintk.c:313
     7e0:	4252      	negs	r2, r2
     7e2:	920d      	str	r2, [sp, #52]	; 0x34
/mnt/disk/raspbian-tee/optee_os/lib/libutils/ext/snprintk.c:311
     7e4:	461a      	mov	r2, r3
/mnt/disk/raspbian-tee/optee_os/lib/libutils/ext/snprintk.c:316
     7e6:	f046 0604 	orr.w	r6, r6, #4
     7ea:	e6fb      	b.n	5e4 <__vsnprintf+0xf0>
/mnt/disk/raspbian-tee/optee_os/lib/libutils/ext/snprintk.c:322
     7ec:	990b      	ldr	r1, [sp, #44]	; 0x2c
     7ee:	9b0b      	ldr	r3, [sp, #44]	; 0x2c
     7f0:	f891 9000 	ldrb.w	r9, [r1]
     7f4:	3301      	adds	r3, #1
     7f6:	f1b9 0f2a 	cmp.w	r9, #42	; 0x2a
     7fa:	d00e      	beq.n	81a <__vsnprintf+0x326>
     7fc:	f04f 0b00 	mov.w	fp, #0
/mnt/disk/raspbian-tee/optee_os/lib/libutils/ext/snprintk.c:330
     800:	930b      	str	r3, [sp, #44]	; 0x2c
/mnt/disk/raspbian-tee/optee_os/lib/libutils/ext/snprintk.c:328
     802:	f1a9 0330 	sub.w	r3, r9, #48	; 0x30
     806:	2b09      	cmp	r3, #9
     808:	f63f aebc 	bhi.w	584 <__vsnprintf+0x90>
/mnt/disk/raspbian-tee/optee_os/lib/libutils/ext/snprintk.c:329
     80c:	210a      	movs	r1, #10
     80e:	fb01 3b0b 	mla	fp, r1, fp, r3
/mnt/disk/raspbian-tee/optee_os/lib/libutils/ext/snprintk.c:330
     812:	9b0b      	ldr	r3, [sp, #44]	; 0x2c
     814:	f813 9b01 	ldrb.w	r9, [r3], #1
     818:	e7f2      	b.n	800 <__vsnprintf+0x30c>
/mnt/disk/raspbian-tee/optee_os/lib/libutils/ext/snprintk.c:324
     81a:	6811      	ldr	r1, [r2, #0]
/mnt/disk/raspbian-tee/optee_os/lib/libutils/ext/snprintk.c:323
     81c:	3204      	adds	r2, #4
/mnt/disk/raspbian-tee/optee_os/lib/libutils/ext/snprintk.c:322
     81e:	930b      	str	r3, [sp, #44]	; 0x2c
/mnt/disk/raspbian-tee/optee_os/lib/libutils/ext/snprintk.c:324
     820:	ea41 7be1 	orr.w	fp, r1, r1, asr #31
     824:	e6de      	b.n	5e4 <__vsnprintf+0xf0>
/mnt/disk/raspbian-tee/optee_os/lib/libutils/ext/snprintk.c:340
     826:	f446 6680 	orr.w	r6, r6, #1024	; 0x400
     82a:	e6db      	b.n	5e4 <__vsnprintf+0xf0>
/mnt/disk/raspbian-tee/optee_os/lib/libutils/ext/snprintk.c:358
     82c:	9b0b      	ldr	r3, [sp, #44]	; 0x2c
     82e:	781b      	ldrb	r3, [r3, #0]
     830:	2b6c      	cmp	r3, #108	; 0x6c
     832:	d105      	bne.n	840 <__vsnprintf+0x34c>
/mnt/disk/raspbian-tee/optee_os/lib/libutils/ext/snprintk.c:359
     834:	9b0b      	ldr	r3, [sp, #44]	; 0x2c
     836:	3301      	adds	r3, #1
     838:	930b      	str	r3, [sp, #44]	; 0x2c
/mnt/disk/raspbian-tee/optee_os/lib/libutils/ext/snprintk.c:366
     83a:	f046 0620 	orr.w	r6, r6, #32
     83e:	e6d1      	b.n	5e4 <__vsnprintf+0xf0>
/mnt/disk/raspbian-tee/optee_os/lib/libutils/ext/snprintk.c:362
     840:	f046 0610 	orr.w	r6, r6, #16
     844:	e6ce      	b.n	5e4 <__vsnprintf+0xf0>
/mnt/disk/raspbian-tee/optee_os/lib/libutils/ext/snprintk.c:369
     846:	f446 7680 	orr.w	r6, r6, #256	; 0x100
     84a:	e6cb      	b.n	5e4 <__vsnprintf+0xf0>
/mnt/disk/raspbian-tee/optee_os/lib/libutils/ext/snprintk.c:372
     84c:	f446 7600 	orr.w	r6, r6, #512	; 0x200
     850:	e6c8      	b.n	5e4 <__vsnprintf+0xf0>
/mnt/disk/raspbian-tee/optee_os/lib/libutils/ext/snprintk.c:375
     852:	ab1e      	add	r3, sp, #120	; 0x78
/mnt/disk/raspbian-tee/optee_os/lib/libutils/ext/snprintk.c:285
     854:	f04f 0a00 	mov.w	sl, #0
/mnt/disk/raspbian-tee/optee_os/lib/libutils/ext/snprintk.c:375
     858:	1d17      	adds	r7, r2, #4
/mnt/disk/raspbian-tee/optee_os/lib/libutils/ext/snprintk.c:376
     85a:	f04f 0b01 	mov.w	fp, #1
/mnt/disk/raspbian-tee/optee_os/lib/libutils/ext/snprintk.c:375
     85e:	6812      	ldr	r2, [r2, #0]
/mnt/disk/raspbian-tee/optee_os/lib/libutils/ext/snprintk.c:377
     860:	4650      	mov	r0, sl
/mnt/disk/raspbian-tee/optee_os/lib/libutils/ext/snprintk.c:375
     862:	f803 2d28 	strb.w	r2, [r3, #-40]!
/mnt/disk/raspbian-tee/optee_os/lib/libutils/ext/snprintk.c:565
     866:	4558      	cmp	r0, fp
     868:	4602      	mov	r2, r0
     86a:	bfb8      	it	lt
     86c:	465a      	movlt	r2, fp
/mnt/disk/raspbian-tee/optee_os/lib/libutils/ext/snprintk.c:566
     86e:	f1ba 0f00 	cmp.w	sl, #0
     872:	f000 8165 	beq.w	b40 <__vsnprintf+0x64c>
/mnt/disk/raspbian-tee/optee_os/lib/libutils/ext/snprintk.c:567
     876:	3201      	adds	r2, #1
/mnt/disk/raspbian-tee/optee_os/lib/libutils/ext/snprintk.c:572
     878:	990d      	ldr	r1, [sp, #52]	; 0x34
     87a:	9c0c      	ldr	r4, [sp, #48]	; 0x30
     87c:	4291      	cmp	r1, r2
     87e:	bfb8      	it	lt
     880:	4611      	movlt	r1, r2
     882:	440c      	add	r4, r1
/mnt/disk/raspbian-tee/optee_os/lib/libutils/ext/snprintk.c:575
     884:	f240 4104 	movw	r1, #1028	; 0x404
/mnt/disk/raspbian-tee/optee_os/lib/libutils/ext/snprintk.c:572
     888:	940c      	str	r4, [sp, #48]	; 0x30
/mnt/disk/raspbian-tee/optee_os/lib/libutils/ext/snprintk.c:575
     88a:	ea16 0401 	ands.w	r4, r6, r1
     88e:	d106      	bne.n	89e <__vsnprintf+0x3aa>
/mnt/disk/raspbian-tee/optee_os/lib/libutils/ext/snprintk.c:576
     890:	990d      	ldr	r1, [sp, #52]	; 0x34
/mnt/disk/raspbian-tee/optee_os/lib/libutils/ext/snprintk.c:578
     892:	f04f 0c20 	mov.w	ip, #32
/mnt/disk/raspbian-tee/optee_os/lib/libutils/ext/snprintk.c:576
     896:	1a89      	subs	r1, r1, r2
/mnt/disk/raspbian-tee/optee_os/lib/libutils/ext/snprintk.c:577
     898:	2900      	cmp	r1, #0
     89a:	f300 8155 	bgt.w	b48 <__vsnprintf+0x654>
/mnt/disk/raspbian-tee/optee_os/lib/libutils/ext/snprintk.c:582
     89e:	f1ba 0f00 	cmp.w	sl, #0
     8a2:	f000 8166 	beq.w	b72 <__vsnprintf+0x67e>
/mnt/disk/raspbian-tee/optee_os/lib/libutils/ext/snprintk.c:583
     8a6:	f1b8 0f00 	cmp.w	r8, #0
     8aa:	f040 8159 	bne.w	b60 <__vsnprintf+0x66c>
/mnt/disk/raspbian-tee/optee_os/lib/libutils/ext/snprintk.c:586
     8ae:	f04f 0800 	mov.w	r8, #0
/mnt/disk/raspbian-tee/optee_os/lib/libutils/ext/snprintk.c:590
     8b2:	f5b4 6f80 	cmp.w	r4, #1024	; 0x400
     8b6:	d105      	bne.n	8c4 <__vsnprintf+0x3d0>
/mnt/disk/raspbian-tee/optee_os/lib/libutils/ext/snprintk.c:591
     8b8:	990d      	ldr	r1, [sp, #52]	; 0x34
/mnt/disk/raspbian-tee/optee_os/lib/libutils/ext/snprintk.c:593
     8ba:	2430      	movs	r4, #48	; 0x30
/mnt/disk/raspbian-tee/optee_os/lib/libutils/ext/snprintk.c:591
     8bc:	1a89      	subs	r1, r1, r2
/mnt/disk/raspbian-tee/optee_os/lib/libutils/ext/snprintk.c:592
     8be:	2900      	cmp	r1, #0
     8c0:	f300 8173 	bgt.w	baa <__vsnprintf+0x6b6>
/mnt/disk/raspbian-tee/optee_os/lib/libutils/ext/snprintk.c:597
     8c4:	eba0 000b 	sub.w	r0, r0, fp
/mnt/disk/raspbian-tee/optee_os/lib/libutils/ext/snprintk.c:599
     8c8:	2130      	movs	r1, #48	; 0x30
/mnt/disk/raspbian-tee/optee_os/lib/libutils/ext/snprintk.c:598
     8ca:	2800      	cmp	r0, #0
     8cc:	f300 8179 	bgt.w	bc2 <__vsnprintf+0x6ce>
     8d0:	eb03 010b 	add.w	r1, r3, fp
/mnt/disk/raspbian-tee/optee_os/lib/libutils/ext/snprintk.c:602
     8d4:	428b      	cmp	r3, r1
     8d6:	f040 8180 	bne.w	bda <__vsnprintf+0x6e6>
/mnt/disk/raspbian-tee/optee_os/lib/libutils/ext/snprintk.c:605
     8da:	0773      	lsls	r3, r6, #29
     8dc:	f57f ae1b 	bpl.w	516 <__vsnprintf+0x22>
/mnt/disk/raspbian-tee/optee_os/lib/libutils/ext/snprintk.c:606
     8e0:	9b0d      	ldr	r3, [sp, #52]	; 0x34
     8e2:	1a9b      	subs	r3, r3, r2
/mnt/disk/raspbian-tee/optee_os/lib/libutils/ext/snprintk.c:608
     8e4:	2220      	movs	r2, #32
/mnt/disk/raspbian-tee/optee_os/lib/libutils/ext/snprintk.c:607
     8e6:	2b00      	cmp	r3, #0
     8e8:	f77f ae15 	ble.w	516 <__vsnprintf+0x22>
/mnt/disk/raspbian-tee/optee_os/lib/libutils/ext/snprintk.c:608
     8ec:	f1b8 0f00 	cmp.w	r8, #0
     8f0:	d006      	beq.n	900 <__vsnprintf+0x40c>
     8f2:	990e      	ldr	r1, [sp, #56]	; 0x38
     8f4:	4541      	cmp	r1, r8
     8f6:	d903      	bls.n	900 <__vsnprintf+0x40c>
     8f8:	f888 2000 	strb.w	r2, [r8]
     8fc:	f108 0801 	add.w	r8, r8, #1
     900:	3b01      	subs	r3, #1
     902:	e7f0      	b.n	8e6 <__vsnprintf+0x3f2>
/mnt/disk/raspbian-tee/optee_os/lib/libutils/ext/snprintk.c:380
     904:	f046 0610 	orr.w	r6, r6, #16
/mnt/disk/raspbian-tee/optee_os/lib/libutils/ext/snprintk.c:384
     908:	0631      	lsls	r1, r6, #24
     90a:	d523      	bpl.n	954 <__vsnprintf+0x460>
     90c:	3207      	adds	r2, #7
     90e:	f022 0207 	bic.w	r2, r2, #7
     912:	f102 0708 	add.w	r7, r2, #8
     916:	e9d2 4500 	ldrd	r4, r5, [r2]
/mnt/disk/raspbian-tee/optee_os/lib/libutils/ext/snprintk.c:385
     91a:	2c00      	cmp	r4, #0
     91c:	f175 0300 	sbcs.w	r3, r5, #0
     920:	da04      	bge.n	92c <__vsnprintf+0x438>
/mnt/disk/raspbian-tee/optee_os/lib/libutils/ext/snprintk.c:386
     922:	4264      	negs	r4, r4
/mnt/disk/raspbian-tee/optee_os/lib/libutils/ext/snprintk.c:387
     924:	f04f 0a2d 	mov.w	sl, #45	; 0x2d
/mnt/disk/raspbian-tee/optee_os/lib/libutils/ext/snprintk.c:386
     928:	eb65 0545 	sbc.w	r5, r5, r5, lsl #1
/mnt/disk/raspbian-tee/optee_os/lib/libutils/ext/snprintk.c:488
     92c:	f1bb 3fff 	cmp.w	fp, #4294967295	; 0xffffffff
     930:	f040 80ec 	bne.w	b0c <__vsnprintf+0x618>
/mnt/disk/raspbian-tee/optee_os/lib/libutils/ext/snprintk.c:508
     934:	f10d 0375 	add.w	r3, sp, #117	; 0x75
     938:	9311      	str	r3, [sp, #68]	; 0x44
     93a:	9b11      	ldr	r3, [sp, #68]	; 0x44
/mnt/disk/raspbian-tee/optee_os/lib/libutils/ext/snprintk.c:516
     93c:	2d00      	cmp	r5, #0
     93e:	bf08      	it	eq
     940:	2c0a      	cmpeq	r4, #10
     942:	f103 33ff 	add.w	r3, r3, #4294967295	; 0xffffffff
     946:	f080 80e5 	bcs.w	b14 <__vsnprintf+0x620>
/mnt/disk/raspbian-tee/optee_os/lib/libutils/ext/snprintk.c:520
     94a:	9a11      	ldr	r2, [sp, #68]	; 0x44
     94c:	3430      	adds	r4, #48	; 0x30
     94e:	f802 4c01 	strb.w	r4, [r2, #-1]
     952:	e6ac      	b.n	6ae <__vsnprintf+0x1ba>
/mnt/disk/raspbian-tee/optee_os/lib/libutils/ext/snprintk.c:384
     954:	05f3      	lsls	r3, r6, #23
     956:	d503      	bpl.n	960 <__vsnprintf+0x46c>
     958:	1d17      	adds	r7, r2, #4
     95a:	6814      	ldr	r4, [r2, #0]
     95c:	17e5      	asrs	r5, r4, #31
     95e:	e7dc      	b.n	91a <__vsnprintf+0x426>
     960:	05b7      	lsls	r7, r6, #22
     962:	d4f9      	bmi.n	958 <__vsnprintf+0x464>
     964:	06b5      	lsls	r5, r6, #26
     966:	d4d1      	bmi.n	90c <__vsnprintf+0x418>
     968:	f016 0f10 	tst.w	r6, #16
     96c:	f102 0704 	add.w	r7, r2, #4
     970:	d1f3      	bne.n	95a <__vsnprintf+0x466>
     972:	f016 0f40 	tst.w	r6, #64	; 0x40
     976:	6814      	ldr	r4, [r2, #0]
     978:	d0f0      	beq.n	95c <__vsnprintf+0x468>
     97a:	b224      	sxth	r4, r4
     97c:	e7ee      	b.n	95c <__vsnprintf+0x468>
/mnt/disk/raspbian-tee/optee_os/lib/libutils/ext/snprintk.c:392
     97e:	f016 0f80 	tst.w	r6, #128	; 0x80
     982:	f102 0704 	add.w	r7, r2, #4
     986:	d006      	beq.n	996 <__vsnprintf+0x4a2>
/mnt/disk/raspbian-tee/optee_os/lib/libutils/ext/snprintk.c:399
     988:	6813      	ldr	r3, [r2, #0]
     98a:	9a0c      	ldr	r2, [sp, #48]	; 0x30
     98c:	4610      	mov	r0, r2
     98e:	17d1      	asrs	r1, r2, #31
     990:	e9c3 0100 	strd	r0, r1, [r3]
     994:	e5bf      	b.n	516 <__vsnprintf+0x22>
/mnt/disk/raspbian-tee/optee_os/lib/libutils/ext/snprintk.c:394
     996:	05f4      	lsls	r4, r6, #23
     998:	d503      	bpl.n	9a2 <__vsnprintf+0x4ae>
/mnt/disk/raspbian-tee/optee_os/lib/libutils/ext/snprintk.c:405
     99a:	6813      	ldr	r3, [r2, #0]
     99c:	9a0c      	ldr	r2, [sp, #48]	; 0x30
     99e:	601a      	str	r2, [r3, #0]
     9a0:	e5b9      	b.n	516 <__vsnprintf+0x22>
/mnt/disk/raspbian-tee/optee_os/lib/libutils/ext/snprintk.c:396
     9a2:	05b0      	lsls	r0, r6, #22
     9a4:	d4f9      	bmi.n	99a <__vsnprintf+0x4a6>
/mnt/disk/raspbian-tee/optee_os/lib/libutils/ext/snprintk.c:398
     9a6:	06b1      	lsls	r1, r6, #26
     9a8:	d4ee      	bmi.n	988 <__vsnprintf+0x494>
/mnt/disk/raspbian-tee/optee_os/lib/libutils/ext/snprintk.c:400
     9aa:	06f3      	lsls	r3, r6, #27
     9ac:	d4f5      	bmi.n	99a <__vsnprintf+0x4a6>
/mnt/disk/raspbian-tee/optee_os/lib/libutils/ext/snprintk.c:402
     9ae:	0676      	lsls	r6, r6, #25
     9b0:	d5f3      	bpl.n	99a <__vsnprintf+0x4a6>
/mnt/disk/raspbian-tee/optee_os/lib/libutils/ext/snprintk.c:403
     9b2:	6813      	ldr	r3, [r2, #0]
     9b4:	f8bd 2030 	ldrh.w	r2, [sp, #48]	; 0x30
     9b8:	801a      	strh	r2, [r3, #0]
     9ba:	e5ac      	b.n	516 <__vsnprintf+0x22>
/mnt/disk/raspbian-tee/optee_os/lib/libutils/ext/snprintk.c:411
     9bc:	05f4      	lsls	r4, r6, #23
     9be:	d502      	bpl.n	9c6 <__vsnprintf+0x4d2>
     9c0:	1d17      	adds	r7, r2, #4
     9c2:	6814      	ldr	r4, [r2, #0]
     9c4:	e00c      	b.n	9e0 <__vsnprintf+0x4ec>
     9c6:	05b0      	lsls	r0, r6, #22
     9c8:	d4fa      	bmi.n	9c0 <__vsnprintf+0x4cc>
     9ca:	06b1      	lsls	r1, r6, #26
     9cc:	f53f ae36 	bmi.w	63c <__vsnprintf+0x148>
     9d0:	f016 0f10 	tst.w	r6, #16
     9d4:	f102 0704 	add.w	r7, r2, #4
     9d8:	d1f3      	bne.n	9c2 <__vsnprintf+0x4ce>
     9da:	0673      	lsls	r3, r6, #25
     9dc:	d5f1      	bpl.n	9c2 <__vsnprintf+0x4ce>
     9de:	8814      	ldrh	r4, [r2, #0]
     9e0:	2500      	movs	r5, #0
     9e2:	e632      	b.n	64a <__vsnprintf+0x156>
/mnt/disk/raspbian-tee/optee_os/lib/libutils/ext/snprintk.c:415
     9e4:	9b13      	ldr	r3, [sp, #76]	; 0x4c
     9e6:	2b00      	cmp	r3, #0
     9e8:	d02d      	beq.n	a46 <__vsnprintf+0x552>
     9ea:	9b0b      	ldr	r3, [sp, #44]	; 0x2c
     9ec:	781b      	ldrb	r3, [r3, #0]
     9ee:	2b55      	cmp	r3, #85	; 0x55
     9f0:	d129      	bne.n	a46 <__vsnprintf+0x552>
     9f2:	9b0b      	ldr	r3, [sp, #44]	; 0x2c
     9f4:	785b      	ldrb	r3, [r3, #1]
     9f6:	2b6c      	cmp	r3, #108	; 0x6c
     9f8:	d125      	bne.n	a46 <__vsnprintf+0x552>
/mnt/disk/raspbian-tee/optee_os/lib/libutils/ext/snprintk.c:420
     9fa:	9b0b      	ldr	r3, [sp, #44]	; 0x2c
/mnt/disk/raspbian-tee/optee_os/lib/libutils/ext/snprintk.c:421
     9fc:	1d17      	adds	r7, r2, #4
uuid2str():
/mnt/disk/raspbian-tee/optee_os/lib/libutils/ext/snprintk.c:223
     9fe:	ac14      	add	r4, sp, #80	; 0x50
     a00:	2125      	movs	r1, #37	; 0x25
kprintf():
/mnt/disk/raspbian-tee/optee_os/lib/libutils/ext/snprintk.c:420
     a02:	3302      	adds	r3, #2
     a04:	930b      	str	r3, [sp, #44]	; 0x2c
/mnt/disk/raspbian-tee/optee_os/lib/libutils/ext/snprintk.c:421
     a06:	6813      	ldr	r3, [r2, #0]
uuid2str():
/mnt/disk/raspbian-tee/optee_os/lib/libutils/ext/snprintk.c:223
     a08:	4620      	mov	r0, r4
     a0a:	7bda      	ldrb	r2, [r3, #15]
     a0c:	9209      	str	r2, [sp, #36]	; 0x24
     a0e:	7b9a      	ldrb	r2, [r3, #14]
     a10:	9208      	str	r2, [sp, #32]
     a12:	7b5a      	ldrb	r2, [r3, #13]
     a14:	9207      	str	r2, [sp, #28]
     a16:	7b1a      	ldrb	r2, [r3, #12]
     a18:	9206      	str	r2, [sp, #24]
     a1a:	7ada      	ldrb	r2, [r3, #11]
     a1c:	9205      	str	r2, [sp, #20]
     a1e:	7a9a      	ldrb	r2, [r3, #10]
     a20:	9204      	str	r2, [sp, #16]
     a22:	7a5a      	ldrb	r2, [r3, #9]
     a24:	9203      	str	r2, [sp, #12]
     a26:	7a1a      	ldrb	r2, [r3, #8]
     a28:	9202      	str	r2, [sp, #8]
     a2a:	88da      	ldrh	r2, [r3, #6]
     a2c:	9201      	str	r2, [sp, #4]
     a2e:	889a      	ldrh	r2, [r3, #4]
     a30:	9200      	str	r2, [sp, #0]
     a32:	4a7a      	ldr	r2, [pc, #488]	; (c1c <__vsnprintf+0x728>)
     a34:	681b      	ldr	r3, [r3, #0]
     a36:	447a      	add	r2, pc
     a38:	f000 f8fd 	bl	c36 <snprintk>
     a3c:	4683      	mov	fp, r0
kprintf():
/mnt/disk/raspbian-tee/optee_os/lib/libutils/ext/snprintk.c:285
     a3e:	2000      	movs	r0, #0
/mnt/disk/raspbian-tee/optee_os/lib/libutils/ext/snprintk.c:423
     a40:	4623      	mov	r3, r4
/mnt/disk/raspbian-tee/optee_os/lib/libutils/ext/snprintk.c:424
     a42:	4682      	mov	sl, r0
     a44:	e70f      	b.n	866 <__vsnprintf+0x372>
/mnt/disk/raspbian-tee/optee_os/lib/libutils/ext/snprintk.c:437
     a46:	4b76      	ldr	r3, [pc, #472]	; (c20 <__vsnprintf+0x72c>)
/mnt/disk/raspbian-tee/optee_os/lib/libutils/ext/snprintk.c:435
     a48:	1d17      	adds	r7, r2, #4
     a4a:	6814      	ldr	r4, [r2, #0]
     a4c:	2500      	movs	r5, #0
/mnt/disk/raspbian-tee/optee_os/lib/libutils/ext/snprintk.c:437
     a4e:	447b      	add	r3, pc
/mnt/disk/raspbian-tee/optee_os/lib/libutils/ext/snprintk.c:438
     a50:	f046 0602 	orr.w	r6, r6, #2
/mnt/disk/raspbian-tee/optee_os/lib/libutils/ext/snprintk.c:439
     a54:	f04f 0978 	mov.w	r9, #120	; 0x78
/mnt/disk/raspbian-tee/optee_os/lib/libutils/ext/snprintk.c:437
     a58:	3311      	adds	r3, #17
     a5a:	930f      	str	r3, [sp, #60]	; 0x3c
/mnt/disk/raspbian-tee/optee_os/lib/libutils/ext/snprintk.c:488
     a5c:	f1bb 3fff 	cmp.w	fp, #4294967295	; 0xffffffff
     a60:	f47f aeaa 	bne.w	7b8 <__vsnprintf+0x2c4>
     a64:	f04f 0a00 	mov.w	sl, #0
     a68:	f10d 0375 	add.w	r3, sp, #117	; 0x75
/mnt/disk/raspbian-tee/optee_os/lib/libutils/ext/snprintk.c:525
     a6c:	f004 020f 	and.w	r2, r4, #15
     a70:	990f      	ldr	r1, [sp, #60]	; 0x3c
     a72:	5c8a      	ldrb	r2, [r1, r2]
/mnt/disk/raspbian-tee/optee_os/lib/libutils/ext/snprintk.c:526
     a74:	0929      	lsrs	r1, r5, #4
/mnt/disk/raspbian-tee/optee_os/lib/libutils/ext/snprintk.c:525
     a76:	f803 2d01 	strb.w	r2, [r3, #-1]!
/mnt/disk/raspbian-tee/optee_os/lib/libutils/ext/snprintk.c:526
     a7a:	0922      	lsrs	r2, r4, #4
     a7c:	ea42 7205 	orr.w	r2, r2, r5, lsl #28
     a80:	460d      	mov	r5, r1
     a82:	4614      	mov	r4, r2
/mnt/disk/raspbian-tee/optee_os/lib/libutils/ext/snprintk.c:527
     a84:	ea54 0205 	orrs.w	r2, r4, r5
     a88:	d1f0      	bne.n	a6c <__vsnprintf+0x578>
     a8a:	e610      	b.n	6ae <__vsnprintf+0x1ba>
/mnt/disk/raspbian-tee/optee_os/lib/libutils/ext/snprintk.c:460
     a8c:	4618      	mov	r0, r3
     a8e:	9311      	str	r3, [sp, #68]	; 0x44
     a90:	f005 fa60 	bl	5f54 <strlen>
     a94:	4683      	mov	fp, r0
/mnt/disk/raspbian-tee/optee_os/lib/libutils/ext/snprintk.c:285
     a96:	2000      	movs	r0, #0
     a98:	9b11      	ldr	r3, [sp, #68]	; 0x44
/mnt/disk/raspbian-tee/optee_os/lib/libutils/ext/snprintk.c:461
     a9a:	4682      	mov	sl, r0
     a9c:	e6e3      	b.n	866 <__vsnprintf+0x372>
/mnt/disk/raspbian-tee/optee_os/lib/libutils/ext/snprintk.c:464
     a9e:	f046 0610 	orr.w	r6, r6, #16
     aa2:	e660      	b.n	766 <__vsnprintf+0x272>
/mnt/disk/raspbian-tee/optee_os/lib/libutils/ext/snprintk.c:467
     aa4:	f416 7a80 	ands.w	sl, r6, #256	; 0x100
     aa8:	d003      	beq.n	ab2 <__vsnprintf+0x5be>
     aaa:	6814      	ldr	r4, [r2, #0]
     aac:	1d17      	adds	r7, r2, #4
     aae:	2500      	movs	r5, #0
     ab0:	e664      	b.n	77c <__vsnprintf+0x288>
     ab2:	f416 7300 	ands.w	r3, r6, #512	; 0x200
     ab6:	d003      	beq.n	ac0 <__vsnprintf+0x5cc>
     ab8:	1d17      	adds	r7, r2, #4
     aba:	6814      	ldr	r4, [r2, #0]
     abc:	2500      	movs	r5, #0
     abe:	e735      	b.n	92c <__vsnprintf+0x438>
     ac0:	f016 0a20 	ands.w	sl, r6, #32
     ac4:	f47f ae53 	bne.w	76e <__vsnprintf+0x27a>
     ac8:	f016 0310 	ands.w	r3, r6, #16
     acc:	f102 0704 	add.w	r7, r2, #4
     ad0:	d1f3      	bne.n	aba <__vsnprintf+0x5c6>
     ad2:	f016 0a40 	ands.w	sl, r6, #64	; 0x40
     ad6:	d0f0      	beq.n	aba <__vsnprintf+0x5c6>
     ad8:	8814      	ldrh	r4, [r2, #0]
     ada:	e7e8      	b.n	aae <__vsnprintf+0x5ba>
/mnt/disk/raspbian-tee/optee_os/lib/libutils/ext/snprintk.c:474
     adc:	4b51      	ldr	r3, [pc, #324]	; (c24 <__vsnprintf+0x730>)
     ade:	447b      	add	r3, pc
     ae0:	3311      	adds	r3, #17
     ae2:	e651      	b.n	788 <__vsnprintf+0x294>
/mnt/disk/raspbian-tee/optee_os/lib/libutils/ext/snprintk.c:475
     ae4:	05f5      	lsls	r5, r6, #23
     ae6:	d502      	bpl.n	aee <__vsnprintf+0x5fa>
     ae8:	1d17      	adds	r7, r2, #4
     aea:	6814      	ldr	r4, [r2, #0]
     aec:	e00c      	b.n	b08 <__vsnprintf+0x614>
     aee:	05b4      	lsls	r4, r6, #22
     af0:	d4fa      	bmi.n	ae8 <__vsnprintf+0x5f4>
     af2:	06b0      	lsls	r0, r6, #26
     af4:	f53f ae4c 	bmi.w	790 <__vsnprintf+0x29c>
     af8:	f016 0f10 	tst.w	r6, #16
     afc:	f102 0704 	add.w	r7, r2, #4
     b00:	d1f3      	bne.n	aea <__vsnprintf+0x5f6>
     b02:	0671      	lsls	r1, r6, #25
     b04:	d5f1      	bpl.n	aea <__vsnprintf+0x5f6>
     b06:	8814      	ldrh	r4, [r2, #0]
     b08:	2500      	movs	r5, #0
     b0a:	e648      	b.n	79e <__vsnprintf+0x2aa>
/mnt/disk/raspbian-tee/optee_os/lib/libutils/ext/snprintk.c:488
     b0c:	2301      	movs	r3, #1
     b0e:	e5a2      	b.n	656 <__vsnprintf+0x162>
/mnt/disk/raspbian-tee/optee_os/lib/libutils/ext/snprintk.c:508
     b10:	461a      	mov	r2, r3
     b12:	e5b3      	b.n	67c <__vsnprintf+0x188>
/mnt/disk/raspbian-tee/optee_os/lib/libutils/ext/snprintk.c:517
     b14:	9311      	str	r3, [sp, #68]	; 0x44
     b16:	4620      	mov	r0, r4
     b18:	4629      	mov	r1, r5
     b1a:	220a      	movs	r2, #10
     b1c:	2300      	movs	r3, #0
     b1e:	f000 ea02 	blx	f24 <__aeabi_uldivmod>
     b22:	9b11      	ldr	r3, [sp, #68]	; 0x44
     b24:	3230      	adds	r2, #48	; 0x30
/mnt/disk/raspbian-tee/optee_os/lib/libutils/ext/snprintk.c:518
     b26:	4620      	mov	r0, r4
     b28:	4629      	mov	r1, r5
/mnt/disk/raspbian-tee/optee_os/lib/libutils/ext/snprintk.c:517
     b2a:	701a      	strb	r2, [r3, #0]
/mnt/disk/raspbian-tee/optee_os/lib/libutils/ext/snprintk.c:518
     b2c:	220a      	movs	r2, #10
     b2e:	2300      	movs	r3, #0
     b30:	f000 e9f8 	blx	f24 <__aeabi_uldivmod>
     b34:	4604      	mov	r4, r0
     b36:	460d      	mov	r5, r1
     b38:	e6ff      	b.n	93a <__vsnprintf+0x446>
/mnt/disk/raspbian-tee/optee_os/lib/libutils/ext/snprintk.c:496
     b3a:	f10d 0375 	add.w	r3, sp, #117	; 0x75
     b3e:	e5b6      	b.n	6ae <__vsnprintf+0x1ba>
/mnt/disk/raspbian-tee/optee_os/lib/libutils/ext/snprintk.c:568
     b40:	07b4      	lsls	r4, r6, #30
/mnt/disk/raspbian-tee/optee_os/lib/libutils/ext/snprintk.c:569
     b42:	bf48      	it	mi
     b44:	3202      	addmi	r2, #2
     b46:	e697      	b.n	878 <__vsnprintf+0x384>
/mnt/disk/raspbian-tee/optee_os/lib/libutils/ext/snprintk.c:578
     b48:	f1b8 0f00 	cmp.w	r8, #0
     b4c:	d006      	beq.n	b5c <__vsnprintf+0x668>
     b4e:	9d0e      	ldr	r5, [sp, #56]	; 0x38
     b50:	4545      	cmp	r5, r8
     b52:	d903      	bls.n	b5c <__vsnprintf+0x668>
     b54:	f888 c000 	strb.w	ip, [r8]
     b58:	f108 0801 	add.w	r8, r8, #1
     b5c:	3901      	subs	r1, #1
     b5e:	e69b      	b.n	898 <__vsnprintf+0x3a4>
/mnt/disk/raspbian-tee/optee_os/lib/libutils/ext/snprintk.c:583
     b60:	990e      	ldr	r1, [sp, #56]	; 0x38
     b62:	4541      	cmp	r1, r8
     b64:	f67f aea5 	bls.w	8b2 <__vsnprintf+0x3be>
     b68:	f888 a000 	strb.w	sl, [r8]
     b6c:	f108 0801 	add.w	r8, r8, #1
     b70:	e69f      	b.n	8b2 <__vsnprintf+0x3be>
/mnt/disk/raspbian-tee/optee_os/lib/libutils/ext/snprintk.c:584
     b72:	07b1      	lsls	r1, r6, #30
     b74:	f57f ae9d 	bpl.w	8b2 <__vsnprintf+0x3be>
/mnt/disk/raspbian-tee/optee_os/lib/libutils/ext/snprintk.c:585
     b78:	f1b8 0f00 	cmp.w	r8, #0
     b7c:	f43f ae97 	beq.w	8ae <__vsnprintf+0x3ba>
     b80:	990e      	ldr	r1, [sp, #56]	; 0x38
     b82:	4541      	cmp	r1, r8
     b84:	f67f ae95 	bls.w	8b2 <__vsnprintf+0x3be>
     b88:	2130      	movs	r1, #48	; 0x30
     b8a:	f888 1000 	strb.w	r1, [r8]
/mnt/disk/raspbian-tee/optee_os/lib/libutils/ext/snprintk.c:586
     b8e:	f118 0101 	adds.w	r1, r8, #1
     b92:	f43f ae8c 	beq.w	8ae <__vsnprintf+0x3ba>
     b96:	9d0e      	ldr	r5, [sp, #56]	; 0x38
     b98:	428d      	cmp	r5, r1
     b9a:	d904      	bls.n	ba6 <__vsnprintf+0x6b2>
     b9c:	f888 9001 	strb.w	r9, [r8, #1]
     ba0:	f108 0802 	add.w	r8, r8, #2
     ba4:	e685      	b.n	8b2 <__vsnprintf+0x3be>
     ba6:	4688      	mov	r8, r1
     ba8:	e683      	b.n	8b2 <__vsnprintf+0x3be>
/mnt/disk/raspbian-tee/optee_os/lib/libutils/ext/snprintk.c:593
     baa:	f1b8 0f00 	cmp.w	r8, #0
     bae:	d006      	beq.n	bbe <__vsnprintf+0x6ca>
     bb0:	9d0e      	ldr	r5, [sp, #56]	; 0x38
     bb2:	4545      	cmp	r5, r8
     bb4:	d903      	bls.n	bbe <__vsnprintf+0x6ca>
     bb6:	f888 4000 	strb.w	r4, [r8]
     bba:	f108 0801 	add.w	r8, r8, #1
     bbe:	3901      	subs	r1, #1
     bc0:	e67d      	b.n	8be <__vsnprintf+0x3ca>
/mnt/disk/raspbian-tee/optee_os/lib/libutils/ext/snprintk.c:599
     bc2:	f1b8 0f00 	cmp.w	r8, #0
     bc6:	d006      	beq.n	bd6 <__vsnprintf+0x6e2>
     bc8:	9c0e      	ldr	r4, [sp, #56]	; 0x38
     bca:	4544      	cmp	r4, r8
     bcc:	d903      	bls.n	bd6 <__vsnprintf+0x6e2>
     bce:	f888 1000 	strb.w	r1, [r8]
     bd2:	f108 0801 	add.w	r8, r8, #1
     bd6:	3801      	subs	r0, #1
     bd8:	e677      	b.n	8ca <__vsnprintf+0x3d6>
/mnt/disk/raspbian-tee/optee_os/lib/libutils/ext/snprintk.c:603
     bda:	f1b8 0f00 	cmp.w	r8, #0
     bde:	d007      	beq.n	bf0 <__vsnprintf+0x6fc>
     be0:	980e      	ldr	r0, [sp, #56]	; 0x38
     be2:	4540      	cmp	r0, r8
     be4:	d904      	bls.n	bf0 <__vsnprintf+0x6fc>
     be6:	7818      	ldrb	r0, [r3, #0]
     be8:	f108 0801 	add.w	r8, r8, #1
     bec:	f808 0c01 	strb.w	r0, [r8, #-1]
/mnt/disk/raspbian-tee/optee_os/lib/libutils/ext/snprintk.c:602
     bf0:	3301      	adds	r3, #1
     bf2:	e66f      	b.n	8d4 <__vsnprintf+0x3e0>
__vsnprintf():
/mnt/disk/raspbian-tee/optee_os/lib/libutils/ext/snprintk.c:148
     bf4:	990c      	ldr	r1, [sp, #48]	; 0x30
     bf6:	5453      	strb	r3, [r2, r1]
/mnt/disk/raspbian-tee/optee_os/lib/libutils/ext/snprintk.c:150
     bf8:	e4a1      	b.n	53e <__vsnprintf+0x4a>
kprintf():
/mnt/disk/raspbian-tee/optee_os/lib/libutils/ext/snprintk.c:489
     bfa:	f426 6680 	bic.w	r6, r6, #1024	; 0x400
/mnt/disk/raspbian-tee/optee_os/lib/libutils/ext/snprintk.c:482
     bfe:	f04f 0a00 	mov.w	sl, #0
/mnt/disk/raspbian-tee/optee_os/lib/libutils/ext/snprintk.c:476
     c02:	2302      	movs	r3, #2
     c04:	e52c      	b.n	660 <__vsnprintf+0x16c>
/mnt/disk/raspbian-tee/optee_os/lib/libutils/ext/snprintk.c:488
     c06:	f1bb 3fff 	cmp.w	fp, #4294967295	; 0xffffffff
     c0a:	d1f6      	bne.n	bfa <__vsnprintf+0x706>
     c0c:	f04f 3bff 	mov.w	fp, #4294967295	; 0xffffffff
     c10:	e728      	b.n	a64 <__vsnprintf+0x570>
     c12:	bf00      	nop
     c14:	00005fd3 	.word	0x00005fd3
     c18:	00005f53 	.word	0x00005f53
     c1c:	00005ccc 	.word	0x00005ccc
     c20:	00005c8b 	.word	0x00005c8b
     c24:	00005bfb 	.word	0x00005bfb

00000c28 <vsnprintk>:
vsnprintk():
/mnt/disk/raspbian-tee/optee_os/lib/libutils/ext/snprintk.c:129
     c28:	b513      	push	{r0, r1, r4, lr}
/mnt/disk/raspbian-tee/optee_os/lib/libutils/ext/snprintk.c:130
     c2a:	2401      	movs	r4, #1
     c2c:	9400      	str	r4, [sp, #0]
     c2e:	f7ff fc61 	bl	4f4 <__vsnprintf>
/mnt/disk/raspbian-tee/optee_os/lib/libutils/ext/snprintk.c:131
     c32:	b002      	add	sp, #8
     c34:	bd10      	pop	{r4, pc}

00000c36 <snprintk>:
snprintk():
/mnt/disk/raspbian-tee/optee_os/lib/libutils/ext/snprintk.c:112
     c36:	b40c      	push	{r2, r3}
     c38:	b507      	push	{r0, r1, r2, lr}
     c3a:	ab04      	add	r3, sp, #16
     c3c:	f853 2b04 	ldr.w	r2, [r3], #4
/mnt/disk/raspbian-tee/optee_os/lib/libutils/ext/snprintk.c:116
     c40:	9301      	str	r3, [sp, #4]
/mnt/disk/raspbian-tee/optee_os/lib/libutils/ext/snprintk.c:117
     c42:	f7ff fff1 	bl	c28 <vsnprintk>
/mnt/disk/raspbian-tee/optee_os/lib/libutils/ext/snprintk.c:121
     c46:	b003      	add	sp, #12
     c48:	f85d eb04 	ldr.w	lr, [sp], #4
     c4c:	b002      	add	sp, #8
     c4e:	4770      	bx	lr

00000c50 <append>:
append():
/mnt/disk/raspbian-tee/optee_os/lib/libutils/ext/trace.c:198
     c50:	b40e      	push	{r1, r2, r3}
/mnt/disk/raspbian-tee/optee_os/lib/libutils/ext/trace.c:203
     c52:	f8d0 3100 	ldr.w	r3, [r0, #256]	; 0x100
/mnt/disk/raspbian-tee/optee_os/lib/libutils/ext/trace.c:198
     c56:	b533      	push	{r0, r1, r4, r5, lr}
     c58:	4604      	mov	r4, r0
/mnt/disk/raspbian-tee/optee_os/lib/libutils/ext/trace.c:203
     c5a:	b90b      	cbnz	r3, c60 <append+0x10>
/mnt/disk/raspbian-tee/optee_os/lib/libutils/ext/trace.c:204
     c5c:	f8c4 0100 	str.w	r0, [r4, #256]	; 0x100
/mnt/disk/raspbian-tee/optee_os/lib/libutils/ext/trace.c:205
     c60:	f8d4 0100 	ldr.w	r0, [r4, #256]	; 0x100
/mnt/disk/raspbian-tee/optee_os/lib/libutils/ext/trace.c:206
     c64:	ab06      	add	r3, sp, #24
/mnt/disk/raspbian-tee/optee_os/lib/libutils/ext/trace.c:207
     c66:	9a05      	ldr	r2, [sp, #20]
/mnt/disk/raspbian-tee/optee_os/lib/libutils/ext/trace.c:205
     c68:	1b05      	subs	r5, r0, r4
/mnt/disk/raspbian-tee/optee_os/lib/libutils/ext/trace.c:206
     c6a:	9301      	str	r3, [sp, #4]
/mnt/disk/raspbian-tee/optee_os/lib/libutils/ext/trace.c:205
     c6c:	f5c5 7580 	rsb	r5, r5, #256	; 0x100
/mnt/disk/raspbian-tee/optee_os/lib/libutils/ext/trace.c:207
     c70:	4629      	mov	r1, r5
     c72:	f7ff ffd9 	bl	c28 <vsnprintk>
/mnt/disk/raspbian-tee/optee_os/lib/libutils/ext/trace.c:209
     c76:	2800      	cmp	r0, #0
     c78:	db0f      	blt.n	c9a <append+0x4a>
/mnt/disk/raspbian-tee/optee_os/lib/libutils/ext/trace.c:213
     c7a:	4285      	cmp	r5, r0
     c7c:	dd0d      	ble.n	c9a <append+0x4a>
/mnt/disk/raspbian-tee/optee_os/lib/libutils/ext/trace.c:217
     c7e:	4285      	cmp	r5, r0
     c80:	bfa8      	it	ge
     c82:	4605      	movge	r5, r0
     c84:	f8d4 0100 	ldr.w	r0, [r4, #256]	; 0x100
     c88:	4405      	add	r5, r0
/mnt/disk/raspbian-tee/optee_os/lib/libutils/ext/trace.c:218
     c8a:	2001      	movs	r0, #1
/mnt/disk/raspbian-tee/optee_os/lib/libutils/ext/trace.c:217
     c8c:	f8c4 5100 	str.w	r5, [r4, #256]	; 0x100
/mnt/disk/raspbian-tee/optee_os/lib/libutils/ext/trace.c:219
     c90:	b002      	add	sp, #8
     c92:	e8bd 4030 	ldmia.w	sp!, {r4, r5, lr}
     c96:	b003      	add	sp, #12
     c98:	4770      	bx	lr
/mnt/disk/raspbian-tee/optee_os/lib/libutils/ext/trace.c:211
     c9a:	2000      	movs	r0, #0
     c9c:	e7f8      	b.n	c90 <append+0x40>

00000c9e <trace_set_level>:
trace_set_level():
/mnt/disk/raspbian-tee/optee_os/lib/libutils/ext/trace.c:25
     c9e:	4b05      	ldr	r3, [pc, #20]	; (cb4 <trace_set_level+0x16>)
/mnt/disk/raspbian-tee/optee_os/lib/libutils/ext/trace.c:26
     ca0:	2804      	cmp	r0, #4
     ca2:	4a05      	ldr	r2, [pc, #20]	; (cb8 <trace_set_level+0x1a>)
/mnt/disk/raspbian-tee/optee_os/lib/libutils/ext/trace.c:25
     ca4:	447b      	add	r3, pc
     ca6:	589b      	ldr	r3, [r3, r2]
/mnt/disk/raspbian-tee/optee_os/lib/libutils/ext/trace.c:26
     ca8:	d801      	bhi.n	cae <trace_set_level+0x10>
/mnt/disk/raspbian-tee/optee_os/lib/libutils/ext/trace.c:27
     caa:	6018      	str	r0, [r3, #0]
     cac:	4770      	bx	lr
/mnt/disk/raspbian-tee/optee_os/lib/libutils/ext/trace.c:29
     cae:	2204      	movs	r2, #4
     cb0:	601a      	str	r2, [r3, #0]
     cb2:	4770      	bx	lr
     cb4:	00006cbc 	.word	0x00006cbc
     cb8:	00000010 	.word	0x00000010

00000cbc <trace_get_level>:
trace_get_level():
/mnt/disk/raspbian-tee/optee_os/lib/libutils/ext/trace.c:33
     cbc:	4b02      	ldr	r3, [pc, #8]	; (cc8 <trace_get_level+0xc>)
/mnt/disk/raspbian-tee/optee_os/lib/libutils/ext/trace.c:34
     cbe:	4a03      	ldr	r2, [pc, #12]	; (ccc <trace_get_level+0x10>)
/mnt/disk/raspbian-tee/optee_os/lib/libutils/ext/trace.c:33
     cc0:	447b      	add	r3, pc
/mnt/disk/raspbian-tee/optee_os/lib/libutils/ext/trace.c:34
     cc2:	589b      	ldr	r3, [r3, r2]
/mnt/disk/raspbian-tee/optee_os/lib/libutils/ext/trace.c:35
     cc4:	6818      	ldr	r0, [r3, #0]
     cc6:	4770      	bx	lr
     cc8:	00006ca0 	.word	0x00006ca0
     ccc:	00000010 	.word	0x00000010

00000cd0 <trace_printf>:
trace_printf():
/mnt/disk/raspbian-tee/optee_os/lib/libutils/ext/trace.c:97
     cd0:	e92d 47f0 	stmdb	sp!, {r4, r5, r6, r7, r8, r9, sl, lr}
     cd4:	4607      	mov	r7, r0
     cd6:	f8df 910c 	ldr.w	r9, [pc, #268]	; de4 <trace_printf+0x114>
     cda:	b0c6      	sub	sp, #280	; 0x118
     cdc:	4688      	mov	r8, r1
     cde:	44f9      	add	r9, pc
     ce0:	4614      	mov	r4, r2
/mnt/disk/raspbian-tee/optee_os/lib/libutils/ext/trace.c:103
     ce2:	469a      	mov	sl, r3
     ce4:	2b00      	cmp	r3, #0
     ce6:	d06a      	beq.n	dbe <trace_printf+0xee>
/mnt/disk/raspbian-tee/optee_os/lib/libutils/ext/trace.c:103 (discriminator 1)
     ce8:	4b3f      	ldr	r3, [pc, #252]	; (de8 <trace_printf+0x118>)
     cea:	f859 3003 	ldr.w	r3, [r9, r3]
     cee:	681b      	ldr	r3, [r3, #0]
     cf0:	4293      	cmp	r3, r2
     cf2:	db61      	blt.n	db8 <trace_printf+0xe8>
trace_level_to_string():
/mnt/disk/raspbian-tee/optee_os/lib/libutils/ext/trace.c:52
     cf4:	4613      	mov	r3, r2
     cf6:	2a04      	cmp	r2, #4
/mnt/disk/raspbian-tee/optee_os/lib/libutils/ext/trace.c:55
     cf8:	4a3c      	ldr	r2, [pc, #240]	; (dec <trace_printf+0x11c>)
/mnt/disk/raspbian-tee/optee_os/lib/libutils/ext/trace.c:52
     cfa:	bf88      	it	hi
     cfc:	2300      	movhi	r3, #0
/mnt/disk/raspbian-tee/optee_os/lib/libutils/ext/trace.c:55
     cfe:	447a      	add	r2, pc
     d00:	5cd3      	ldrb	r3, [r2, r3]
trace_printf():
/mnt/disk/raspbian-tee/optee_os/lib/libutils/ext/trace.c:107
     d02:	4a3b      	ldr	r2, [pc, #236]	; (df0 <trace_printf+0x120>)
     d04:	ad06      	add	r5, sp, #24
     d06:	f44f 7180 	mov.w	r1, #256	; 0x100
     d0a:	4628      	mov	r0, r5
     d0c:	447a      	add	r2, pc
     d0e:	f7ff ff92 	bl	c36 <snprintk>
/mnt/disk/raspbian-tee/optee_os/lib/libutils/ext/trace.c:109
     d12:	1e06      	subs	r6, r0, #0
     d14:	db50      	blt.n	db8 <trace_printf+0xe8>
/mnt/disk/raspbian-tee/optee_os/lib/libutils/ext/trace.c:114
     d16:	4b37      	ldr	r3, [pc, #220]	; (df4 <trace_printf+0x124>)
     d18:	f5c6 7180 	rsb	r1, r6, #256	; 0x100
     d1c:	4a36      	ldr	r2, [pc, #216]	; (df8 <trace_printf+0x128>)
     d1e:	19a8      	adds	r0, r5, r6
     d20:	447a      	add	r2, pc
     d22:	f859 3003 	ldr.w	r3, [r9, r3]
     d26:	9303      	str	r3, [sp, #12]
     d28:	f7ff ff85 	bl	c36 <snprintk>
/mnt/disk/raspbian-tee/optee_os/lib/libutils/ext/trace.c:116
     d2c:	2800      	cmp	r0, #0
     d2e:	db43      	blt.n	db8 <trace_printf+0xe8>
/mnt/disk/raspbian-tee/optee_os/lib/libutils/ext/trace.c:118
     d30:	4406      	add	r6, r0
/mnt/disk/raspbian-tee/optee_os/lib/libutils/ext/trace.c:120
     d32:	f1ba 0f00 	cmp.w	sl, #0
     d36:	d04b      	beq.n	dd0 <trace_printf+0x100>
/mnt/disk/raspbian-tee/optee_os/lib/libutils/ext/trace.c:120 (discriminator 1)
     d38:	231a      	movs	r3, #26
     d3a:	fa23 f404 	lsr.w	r4, r3, r4
     d3e:	07e3      	lsls	r3, r4, #31
     d40:	d546      	bpl.n	dd0 <trace_printf+0x100>
print_thread_id():
/mnt/disk/raspbian-tee/optee_os/lib/libutils/ext/trace.c:65
     d42:	f000 f905 	bl	f50 <trace_ext_get_thread_id>
trace_printf():
/mnt/disk/raspbian-tee/optee_os/lib/libutils/ext/trace.c:122
     d46:	19ac      	adds	r4, r5, r6
     d48:	f5c6 7980 	rsb	r9, r6, #256	; 0x100
print_thread_id():
/mnt/disk/raspbian-tee/optee_os/lib/libutils/ext/trace.c:67
     d4c:	2800      	cmp	r0, #0
     d4e:	db38      	blt.n	dc2 <trace_printf+0xf2>
/mnt/disk/raspbian-tee/optee_os/lib/libutils/ext/trace.c:68
     d50:	4a2a      	ldr	r2, [pc, #168]	; (dfc <trace_printf+0x12c>)
     d52:	2301      	movs	r3, #1
     d54:	9000      	str	r0, [sp, #0]
     d56:	447a      	add	r2, pc
/mnt/disk/raspbian-tee/optee_os/lib/libutils/ext/trace.c:70
     d58:	4649      	mov	r1, r9
     d5a:	4620      	mov	r0, r4
     d5c:	f7ff ff6b 	bl	c36 <snprintk>
trace_printf():
/mnt/disk/raspbian-tee/optee_os/lib/libutils/ext/trace.c:129
     d60:	2800      	cmp	r0, #0
     d62:	db29      	blt.n	db8 <trace_printf+0xe8>
/mnt/disk/raspbian-tee/optee_os/lib/libutils/ext/trace.c:131
     d64:	1984      	adds	r4, r0, r6
/mnt/disk/raspbian-tee/optee_os/lib/libutils/ext/trace.c:133
     d66:	b167      	cbz	r7, d82 <trace_printf+0xb2>
/mnt/disk/raspbian-tee/optee_os/lib/libutils/ext/trace.c:134
     d68:	4a25      	ldr	r2, [pc, #148]	; (e00 <trace_printf+0x130>)
     d6a:	463b      	mov	r3, r7
     d6c:	f8cd 8000 	str.w	r8, [sp]
     d70:	f5c4 7180 	rsb	r1, r4, #256	; 0x100
     d74:	447a      	add	r2, pc
     d76:	1928      	adds	r0, r5, r4
     d78:	f7ff ff5d 	bl	c36 <snprintk>
/mnt/disk/raspbian-tee/optee_os/lib/libutils/ext/trace.c:136
     d7c:	2800      	cmp	r0, #0
     d7e:	db1b      	blt.n	db8 <trace_printf+0xe8>
/mnt/disk/raspbian-tee/optee_os/lib/libutils/ext/trace.c:138
     d80:	4404      	add	r4, r0
/mnt/disk/raspbian-tee/optee_os/lib/libutils/ext/trace.c:148
     d82:	ab4f      	add	r3, sp, #316	; 0x13c
/mnt/disk/raspbian-tee/optee_os/lib/libutils/ext/trace.c:149
     d84:	f5c4 7180 	rsb	r1, r4, #256	; 0x100
     d88:	1928      	adds	r0, r5, r4
     d8a:	9a4e      	ldr	r2, [sp, #312]	; 0x138
/mnt/disk/raspbian-tee/optee_os/lib/libutils/ext/trace.c:148
     d8c:	9305      	str	r3, [sp, #20]
/mnt/disk/raspbian-tee/optee_os/lib/libutils/ext/trace.c:149
     d8e:	f7ff ff4b 	bl	c28 <vsnprintk>
/mnt/disk/raspbian-tee/optee_os/lib/libutils/ext/trace.c:151
     d92:	2800      	cmp	r0, #0
/mnt/disk/raspbian-tee/optee_os/lib/libutils/ext/trace.c:157
     d94:	f04f 030a 	mov.w	r3, #10
/mnt/disk/raspbian-tee/optee_os/lib/libutils/ext/trace.c:152
     d98:	bfc8      	it	gt
     d9a:	1824      	addgt	r4, r4, r0
     d9c:	2cfe      	cmp	r4, #254	; 0xfe
     d9e:	bf28      	it	cs
     da0:	24fe      	movcs	r4, #254	; 0xfe
/mnt/disk/raspbian-tee/optee_os/lib/libutils/ext/trace.c:157
     da2:	552b      	strb	r3, [r5, r4]
/mnt/disk/raspbian-tee/optee_os/lib/libutils/ext/trace.c:158
     da4:	b114      	cbz	r4, dac <trace_printf+0xdc>
/mnt/disk/raspbian-tee/optee_os/lib/libutils/ext/trace.c:158 (discriminator 1)
     da6:	5d2b      	ldrb	r3, [r5, r4]
     da8:	2b0a      	cmp	r3, #10
     daa:	d019      	beq.n	de0 <trace_printf+0x110>
/mnt/disk/raspbian-tee/optee_os/lib/libutils/ext/trace.c:161
     dac:	442c      	add	r4, r5
/mnt/disk/raspbian-tee/optee_os/lib/libutils/ext/trace.c:163
     dae:	4628      	mov	r0, r5
/mnt/disk/raspbian-tee/optee_os/lib/libutils/ext/trace.c:161
     db0:	2300      	movs	r3, #0
     db2:	70a3      	strb	r3, [r4, #2]
/mnt/disk/raspbian-tee/optee_os/lib/libutils/ext/trace.c:163
     db4:	f000 f8c2 	bl	f3c <trace_ext_puts>
/mnt/disk/raspbian-tee/optee_os/lib/libutils/ext/trace.c:164
     db8:	b046      	add	sp, #280	; 0x118
     dba:	e8bd 87f0 	ldmia.w	sp!, {r4, r5, r6, r7, r8, r9, sl, pc}
trace_level_to_string():
/mnt/disk/raspbian-tee/optee_os/lib/libutils/ext/trace.c:50
     dbe:	234d      	movs	r3, #77	; 0x4d
     dc0:	e79f      	b.n	d02 <trace_printf+0x32>
print_thread_id():
/mnt/disk/raspbian-tee/optee_os/lib/libutils/ext/trace.c:70
     dc2:	4b10      	ldr	r3, [pc, #64]	; (e04 <trace_printf+0x134>)
     dc4:	4a10      	ldr	r2, [pc, #64]	; (e08 <trace_printf+0x138>)
     dc6:	447b      	add	r3, pc
     dc8:	9300      	str	r3, [sp, #0]
     dca:	447a      	add	r2, pc
     dcc:	2301      	movs	r3, #1
     dce:	e7c3      	b.n	d58 <trace_printf+0x88>
trace_printf():
/mnt/disk/raspbian-tee/optee_os/lib/libutils/ext/trace.c:142
     dd0:	2efe      	cmp	r6, #254	; 0xfe
     dd2:	d8f1      	bhi.n	db8 <trace_printf+0xe8>
/mnt/disk/raspbian-tee/optee_os/lib/libutils/ext/trace.c:144
     dd4:	1c74      	adds	r4, r6, #1
     dd6:	2320      	movs	r3, #32
     dd8:	55ab      	strb	r3, [r5, r6]
/mnt/disk/raspbian-tee/optee_os/lib/libutils/ext/trace.c:145
     dda:	2300      	movs	r3, #0
     ddc:	552b      	strb	r3, [r5, r4]
     dde:	e7d0      	b.n	d82 <trace_printf+0xb2>
/mnt/disk/raspbian-tee/optee_os/lib/libutils/ext/trace.c:159
     de0:	3c01      	subs	r4, #1
     de2:	e7df      	b.n	da4 <trace_printf+0xd4>
     de4:	00006c82 	.word	0x00006c82
     de8:	00000010 	.word	0x00000010
     dec:	00005a35 	.word	0x00005a35
     df0:	00005a36 	.word	0x00005a36
     df4:	00000014 	.word	0x00000014
     df8:	00005a26 	.word	0x00005a26
     dfc:	000059f4 	.word	0x000059f4
     e00:	000059e1 	.word	0x000059e1
     e04:	00005692 	.word	0x00005692
     e08:	00005986 	.word	0x00005986

00000e0c <dhex_dump>:
dhex_dump():
/mnt/disk/raspbian-tee/optee_os/lib/libutils/ext/trace.c:225
     e0c:	e92d 4ff0 	stmdb	sp!, {r4, r5, r6, r7, r8, r9, sl, fp, lr}
     e10:	4690      	mov	r8, r2
     e12:	4a35      	ldr	r2, [pc, #212]	; (ee8 <dhex_dump+0xdc>)
     e14:	468a      	mov	sl, r1
/mnt/disk/raspbian-tee/optee_os/lib/libutils/ext/trace.c:231
     e16:	4935      	ldr	r1, [pc, #212]	; (eec <dhex_dump+0xe0>)
/mnt/disk/raspbian-tee/optee_os/lib/libutils/ext/trace.c:225
     e18:	447a      	add	r2, pc
     e1a:	b0c7      	sub	sp, #284	; 0x11c
     e1c:	4681      	mov	r9, r0
/mnt/disk/raspbian-tee/optee_os/lib/libutils/ext/trace.c:231
     e1e:	5852      	ldr	r2, [r2, r1]
     e20:	6812      	ldr	r2, [r2, #0]
     e22:	4542      	cmp	r2, r8
     e24:	db1d      	blt.n	e62 <dhex_dump+0x56>
     e26:	461e      	mov	r6, r3
/mnt/disk/raspbian-tee/optee_os/lib/libutils/ext/trace.c:240
     e28:	4b31      	ldr	r3, [pc, #196]	; (ef0 <dhex_dump+0xe4>)
/mnt/disk/raspbian-tee/optee_os/lib/libutils/ext/trace.c:232
     e2a:	ad05      	add	r5, sp, #20
/mnt/disk/raspbian-tee/optee_os/lib/libutils/ext/trace.c:235
     e2c:	f8df b0c4 	ldr.w	fp, [pc, #196]	; ef4 <dhex_dump+0xe8>
/mnt/disk/raspbian-tee/optee_os/lib/libutils/ext/trace.c:240
     e30:	447b      	add	r3, pc
     e32:	9302      	str	r3, [sp, #8]
/mnt/disk/raspbian-tee/optee_os/lib/libutils/ext/trace.c:248
     e34:	4b30      	ldr	r3, [pc, #192]	; (ef8 <dhex_dump+0xec>)
/mnt/disk/raspbian-tee/optee_os/lib/libutils/ext/trace.c:235
     e36:	44fb      	add	fp, pc
/mnt/disk/raspbian-tee/optee_os/lib/libutils/ext/trace.c:232
     e38:	2400      	movs	r4, #0
     e3a:	f8c5 4100 	str.w	r4, [r5, #256]	; 0x100
/mnt/disk/raspbian-tee/optee_os/lib/libutils/ext/trace.c:248
     e3e:	447b      	add	r3, pc
     e40:	9303      	str	r3, [sp, #12]
/mnt/disk/raspbian-tee/optee_os/lib/libutils/ext/trace.c:233 (discriminator 1)
     e42:	9b50      	ldr	r3, [sp, #320]	; 0x140
     e44:	429c      	cmp	r4, r3
     e46:	db0f      	blt.n	e68 <dhex_dump+0x5c>
/mnt/disk/raspbian-tee/optee_os/lib/libutils/ext/trace.c:253
     e48:	f8d5 3100 	ldr.w	r3, [r5, #256]	; 0x100
     e4c:	b14b      	cbz	r3, e62 <dhex_dump+0x56>
/mnt/disk/raspbian-tee/optee_os/lib/libutils/ext/trace.c:255
     e4e:	4b2b      	ldr	r3, [pc, #172]	; (efc <dhex_dump+0xf0>)
     e50:	4642      	mov	r2, r8
     e52:	9501      	str	r5, [sp, #4]
     e54:	4651      	mov	r1, sl
     e56:	447b      	add	r3, pc
     e58:	4648      	mov	r0, r9
     e5a:	9300      	str	r3, [sp, #0]
     e5c:	2301      	movs	r3, #1
     e5e:	f7ff ff37 	bl	cd0 <trace_printf>
/mnt/disk/raspbian-tee/optee_os/lib/libutils/ext/trace.c:263
     e62:	b047      	add	sp, #284	; 0x11c
     e64:	e8bd 8ff0 	ldmia.w	sp!, {r4, r5, r6, r7, r8, r9, sl, fp, pc}
/mnt/disk/raspbian-tee/optee_os/lib/libutils/ext/trace.c:234
     e68:	f014 070f 	ands.w	r7, r4, #15
     e6c:	d013      	beq.n	e96 <dhex_dump+0x8a>
/mnt/disk/raspbian-tee/optee_os/lib/libutils/ext/trace.c:240
     e6e:	f816 2b01 	ldrb.w	r2, [r6], #1
     e72:	4628      	mov	r0, r5
     e74:	9902      	ldr	r1, [sp, #8]
     e76:	f7ff feeb 	bl	c50 <append>
/mnt/disk/raspbian-tee/optee_os/lib/libutils/ext/trace.c:241
     e7a:	b9a8      	cbnz	r0, ea8 <dhex_dump+0x9c>
/mnt/disk/raspbian-tee/optee_os/lib/libutils/ext/trace.c:262
     e7c:	4820      	ldr	r0, [pc, #128]	; (f00 <dhex_dump+0xf4>)
     e7e:	2203      	movs	r2, #3
     e80:	4b20      	ldr	r3, [pc, #128]	; (f04 <dhex_dump+0xf8>)
     e82:	f44f 7183 	mov.w	r1, #262	; 0x106
     e86:	4478      	add	r0, pc
     e88:	447b      	add	r3, pc
     e8a:	3005      	adds	r0, #5
     e8c:	9300      	str	r3, [sp, #0]
     e8e:	2301      	movs	r3, #1
     e90:	f7ff ff1e 	bl	cd0 <trace_printf>
     e94:	e7e5      	b.n	e62 <dhex_dump+0x56>
/mnt/disk/raspbian-tee/optee_os/lib/libutils/ext/trace.c:235
     e96:	4633      	mov	r3, r6
     e98:	2208      	movs	r2, #8
     e9a:	4659      	mov	r1, fp
     e9c:	4628      	mov	r0, r5
     e9e:	f7ff fed7 	bl	c50 <append>
/mnt/disk/raspbian-tee/optee_os/lib/libutils/ext/trace.c:237
     ea2:	2800      	cmp	r0, #0
     ea4:	d1e3      	bne.n	e6e <dhex_dump+0x62>
     ea6:	e7e9      	b.n	e7c <dhex_dump+0x70>
/mnt/disk/raspbian-tee/optee_os/lib/libutils/ext/trace.c:243
     ea8:	4263      	negs	r3, r4
     eaa:	f003 030f 	and.w	r3, r3, #15
     eae:	bf58      	it	pl
     eb0:	425f      	negpl	r7, r3
     eb2:	2f07      	cmp	r7, #7
     eb4:	d108      	bne.n	ec8 <dhex_dump+0xbc>
/mnt/disk/raspbian-tee/optee_os/lib/libutils/ext/trace.c:244
     eb6:	4914      	ldr	r1, [pc, #80]	; (f08 <dhex_dump+0xfc>)
     eb8:	4628      	mov	r0, r5
     eba:	4479      	add	r1, pc
     ebc:	f7ff fec8 	bl	c50 <append>
/mnt/disk/raspbian-tee/optee_os/lib/libutils/ext/trace.c:245
     ec0:	2800      	cmp	r0, #0
     ec2:	d0db      	beq.n	e7c <dhex_dump+0x70>
/mnt/disk/raspbian-tee/optee_os/lib/libutils/ext/trace.c:233 (discriminator 2)
     ec4:	3401      	adds	r4, #1
     ec6:	e7bc      	b.n	e42 <dhex_dump+0x36>
/mnt/disk/raspbian-tee/optee_os/lib/libutils/ext/trace.c:247
     ec8:	2f0f      	cmp	r7, #15
     eca:	d1fb      	bne.n	ec4 <dhex_dump+0xb8>
/mnt/disk/raspbian-tee/optee_os/lib/libutils/ext/trace.c:248
     ecc:	9b03      	ldr	r3, [sp, #12]
     ece:	4642      	mov	r2, r8
     ed0:	9300      	str	r3, [sp, #0]
     ed2:	4651      	mov	r1, sl
     ed4:	2301      	movs	r3, #1
     ed6:	9501      	str	r5, [sp, #4]
     ed8:	4648      	mov	r0, r9
     eda:	f7ff fef9 	bl	cd0 <trace_printf>
/mnt/disk/raspbian-tee/optee_os/lib/libutils/ext/trace.c:250
     ede:	2300      	movs	r3, #0
     ee0:	f8c5 3100 	str.w	r3, [r5, #256]	; 0x100
     ee4:	e7ee      	b.n	ec4 <dhex_dump+0xb8>
     ee6:	bf00      	nop
     ee8:	00006b48 	.word	0x00006b48
     eec:	00000010 	.word	0x00000010
     ef0:	0000592c 	.word	0x0000592c
     ef4:	0000592c 	.word	0x0000592c
     ef8:	0000592c 	.word	0x0000592c
     efc:	00005914 	.word	0x00005914
     f00:	000058ad 	.word	0x000058ad
     f04:	000058e5 	.word	0x000058e5
     f08:	000058ae 	.word	0x000058ae

00000f0c <__aeabi_ldivmod>:
__aeabi_ldivmod():
/mnt/disk/raspbian-tee/optee_os/lib/libutils/isoc/arch/arm/arm32_aeabi_ldivmod_a32.S:24
     f0c:	e92d5000 	push	{ip, lr}
/mnt/disk/raspbian-tee/optee_os/lib/libutils/isoc/arch/arm/arm32_aeabi_ldivmod_a32.S:26
     f10:	e92d000f 	push	{r0, r1, r2, r3}
/mnt/disk/raspbian-tee/optee_os/lib/libutils/isoc/arch/arm/arm32_aeabi_ldivmod_a32.S:28
     f14:	e1a0000d 	mov	r0, sp
/mnt/disk/raspbian-tee/optee_os/lib/libutils/isoc/arch/arm/arm32_aeabi_ldivmod_a32.S:29
     f18:	fa00142e 	blx	5fd8 <__l_divmod>
/mnt/disk/raspbian-tee/optee_os/lib/libutils/isoc/arch/arm/arm32_aeabi_ldivmod_a32.S:30
     f1c:	e8bd000f 	pop	{r0, r1, r2, r3}
/mnt/disk/raspbian-tee/optee_os/lib/libutils/isoc/arch/arm/arm32_aeabi_ldivmod_a32.S:31
     f20:	e8bd9000 	pop	{ip, pc}

00000f24 <__aeabi_uldivmod>:
__aeabi_uldivmod():
/mnt/disk/raspbian-tee/optee_os/lib/libutils/isoc/arch/arm/arm32_aeabi_ldivmod_a32.S:42
     f24:	e92d5000 	push	{ip, lr}
/mnt/disk/raspbian-tee/optee_os/lib/libutils/isoc/arch/arm/arm32_aeabi_ldivmod_a32.S:44
     f28:	e92d000f 	push	{r0, r1, r2, r3}
/mnt/disk/raspbian-tee/optee_os/lib/libutils/isoc/arch/arm/arm32_aeabi_ldivmod_a32.S:46
     f2c:	e1a0000d 	mov	r0, sp
/mnt/disk/raspbian-tee/optee_os/lib/libutils/isoc/arch/arm/arm32_aeabi_ldivmod_a32.S:47
     f30:	fa00140b 	blx	5f64 <__ul_divmod>
/mnt/disk/raspbian-tee/optee_os/lib/libutils/isoc/arch/arm/arm32_aeabi_ldivmod_a32.S:48
     f34:	e8bd000f 	pop	{r0, r1, r2, r3}
/mnt/disk/raspbian-tee/optee_os/lib/libutils/isoc/arch/arm/arm32_aeabi_ldivmod_a32.S:49
     f38:	e8bd9000 	pop	{ip, pc}

00000f3c <trace_ext_puts>:
trace_ext_puts():
/mnt/disk/raspbian-tee/optee_os/lib/libutee/trace_ext.c:17
     f3c:	b510      	push	{r4, lr}
     f3e:	4604      	mov	r4, r0
/mnt/disk/raspbian-tee/optee_os/lib/libutee/trace_ext.c:18
     f40:	f005 f808 	bl	5f54 <strlen>
     f44:	4601      	mov	r1, r0
     f46:	4620      	mov	r0, r4
/mnt/disk/raspbian-tee/optee_os/lib/libutee/trace_ext.c:19
     f48:	e8bd 4010 	ldmia.w	sp!, {r4, lr}
/mnt/disk/raspbian-tee/optee_os/lib/libutee/trace_ext.c:18
     f4c:	f005 b908 	b.w	6160 <__utee_log_from_thumb>

00000f50 <trace_ext_get_thread_id>:
trace_ext_get_thread_id():
/mnt/disk/raspbian-tee/optee_os/lib/libutee/trace_ext.c:24
     f50:	f04f 30ff 	mov.w	r0, #4294967295	; 0xffffffff
     f54:	4770      	bx	lr

00000f56 <printf>:
printf():
/mnt/disk/raspbian-tee/optee_os/lib/libutee/trace_ext.c:32
     f56:	b40f      	push	{r0, r1, r2, r3}
     f58:	b530      	push	{r4, r5, lr}
     f5a:	b0c3      	sub	sp, #268	; 0x10c
/mnt/disk/raspbian-tee/optee_os/lib/libutee/trace_ext.c:37
     f5c:	f7ff feae 	bl	cbc <trace_get_level>
     f60:	2800      	cmp	r0, #0
     f62:	dd13      	ble.n	f8c <printf+0x36>
/mnt/disk/raspbian-tee/optee_os/lib/libutee/trace_ext.c:41
     f64:	ad02      	add	r5, sp, #8
/mnt/disk/raspbian-tee/optee_os/lib/libutee/trace_ext.c:40
     f66:	ab47      	add	r3, sp, #284	; 0x11c
/mnt/disk/raspbian-tee/optee_os/lib/libutee/trace_ext.c:41
     f68:	9a46      	ldr	r2, [sp, #280]	; 0x118
     f6a:	f44f 7180 	mov.w	r1, #256	; 0x100
     f6e:	4628      	mov	r0, r5
/mnt/disk/raspbian-tee/optee_os/lib/libutee/trace_ext.c:40
     f70:	9301      	str	r3, [sp, #4]
/mnt/disk/raspbian-tee/optee_os/lib/libutee/trace_ext.c:41
     f72:	f004 ffc2 	bl	5efa <vsnprintf>
/mnt/disk/raspbian-tee/optee_os/lib/libutee/trace_ext.c:44
     f76:	1e04      	subs	r4, r0, #0
     f78:	db02      	blt.n	f80 <printf+0x2a>
/mnt/disk/raspbian-tee/optee_os/lib/libutee/trace_ext.c:47
     f7a:	4628      	mov	r0, r5
     f7c:	f7ff ffde 	bl	f3c <trace_ext_puts>
/mnt/disk/raspbian-tee/optee_os/lib/libutee/trace_ext.c:50
     f80:	4620      	mov	r0, r4
     f82:	b043      	add	sp, #268	; 0x10c
     f84:	e8bd 4030 	ldmia.w	sp!, {r4, r5, lr}
     f88:	b004      	add	sp, #16
     f8a:	4770      	bx	lr
/mnt/disk/raspbian-tee/optee_os/lib/libutee/trace_ext.c:38
     f8c:	2400      	movs	r4, #0
     f8e:	e7f7      	b.n	f80 <printf+0x2a>

00000f90 <puts>:
puts():
/mnt/disk/raspbian-tee/optee_os/lib/libutee/trace_ext.c:53
     f90:	b510      	push	{r4, lr}
     f92:	4604      	mov	r4, r0
/mnt/disk/raspbian-tee/optee_os/lib/libutee/trace_ext.c:54
     f94:	f7ff fe92 	bl	cbc <trace_get_level>
     f98:	2800      	cmp	r0, #0
     f9a:	dd06      	ble.n	faa <puts+0x1a>
/mnt/disk/raspbian-tee/optee_os/lib/libutee/trace_ext.c:55
     f9c:	4620      	mov	r0, r4
     f9e:	f7ff ffcd 	bl	f3c <trace_ext_puts>
/mnt/disk/raspbian-tee/optee_os/lib/libutee/trace_ext.c:56
     fa2:	4803      	ldr	r0, [pc, #12]	; (fb0 <puts+0x20>)
     fa4:	4478      	add	r0, pc
     fa6:	f7ff ffc9 	bl	f3c <trace_ext_puts>
/mnt/disk/raspbian-tee/optee_os/lib/libutee/trace_ext.c:59
     faa:	2001      	movs	r0, #1
     fac:	bd10      	pop	{r4, pc}
     fae:	bf00      	nop
     fb0:	000054b3 	.word	0x000054b3

00000fb4 <putchar>:
putchar():
/mnt/disk/raspbian-tee/optee_os/lib/libutee/trace_ext.c:62
     fb4:	b513      	push	{r0, r1, r4, lr}
/mnt/disk/raspbian-tee/optee_os/lib/libutee/trace_ext.c:63
     fb6:	2300      	movs	r3, #0
/mnt/disk/raspbian-tee/optee_os/lib/libutee/trace_ext.c:62
     fb8:	4604      	mov	r4, r0
/mnt/disk/raspbian-tee/optee_os/lib/libutee/trace_ext.c:63
     fba:	f88d 0004 	strb.w	r0, [sp, #4]
     fbe:	f88d 3005 	strb.w	r3, [sp, #5]
/mnt/disk/raspbian-tee/optee_os/lib/libutee/trace_ext.c:65
     fc2:	f7ff fe7b 	bl	cbc <trace_get_level>
     fc6:	2800      	cmp	r0, #0
     fc8:	dd02      	ble.n	fd0 <putchar+0x1c>
/mnt/disk/raspbian-tee/optee_os/lib/libutee/trace_ext.c:66
     fca:	a801      	add	r0, sp, #4
     fcc:	f7ff ffb6 	bl	f3c <trace_ext_puts>
/mnt/disk/raspbian-tee/optee_os/lib/libutee/trace_ext.c:73
     fd0:	b2e0      	uxtb	r0, r4
     fd2:	b002      	add	sp, #8
     fd4:	bd10      	pop	{r4, pc}
     fd6:	bf00      	nop

00000fd8 <ta_header_get_session>:
ta_header_get_session():
/mnt/disk/raspbian-tee/optee_os/lib/libutee/arch/arm/user_ta_entry.c:81
     fd8:	4b05      	ldr	r3, [pc, #20]	; (ff0 <ta_header_get_session+0x18>)
     fda:	447b      	add	r3, pc
     fdc:	681b      	ldr	r3, [r3, #0]
/mnt/disk/raspbian-tee/optee_os/lib/libutee/arch/arm/user_ta_entry.c:81 (discriminator 1)
     fde:	b90b      	cbnz	r3, fe4 <ta_header_get_session+0xc>
/mnt/disk/raspbian-tee/optee_os/lib/libutee/arch/arm/user_ta_entry.c:86
     fe0:	4618      	mov	r0, r3
     fe2:	4770      	bx	lr
/mnt/disk/raspbian-tee/optee_os/lib/libutee/arch/arm/user_ta_entry.c:82
     fe4:	681a      	ldr	r2, [r3, #0]
     fe6:	4282      	cmp	r2, r0
     fe8:	d0fa      	beq.n	fe0 <ta_header_get_session+0x8>
/mnt/disk/raspbian-tee/optee_os/lib/libutee/arch/arm/user_ta_entry.c:81 (discriminator 2)
     fea:	689b      	ldr	r3, [r3, #8]
     fec:	e7f7      	b.n	fde <ta_header_get_session+0x6>
     fee:	bf00      	nop
     ff0:	0000717a 	.word	0x0000717a

00000ff4 <ta_header_remove_session>:
ta_header_remove_session():
/mnt/disk/raspbian-tee/optee_os/lib/libutee/arch/arm/user_ta_entry.c:119
     ff4:	4b14      	ldr	r3, [pc, #80]	; (1048 <ta_header_remove_session+0x54>)
/mnt/disk/raspbian-tee/optee_os/lib/libutee/arch/arm/user_ta_entry.c:115
     ff6:	b510      	push	{r4, lr}
/mnt/disk/raspbian-tee/optee_os/lib/libutee/arch/arm/user_ta_entry.c:119
     ff8:	447b      	add	r3, pc
/mnt/disk/raspbian-tee/optee_os/lib/libutee/arch/arm/user_ta_entry.c:115
     ffa:	4c14      	ldr	r4, [pc, #80]	; (104c <ta_header_remove_session+0x58>)
/mnt/disk/raspbian-tee/optee_os/lib/libutee/arch/arm/user_ta_entry.c:119
     ffc:	681b      	ldr	r3, [r3, #0]
/mnt/disk/raspbian-tee/optee_os/lib/libutee/arch/arm/user_ta_entry.c:115
     ffe:	447c      	add	r4, pc
/mnt/disk/raspbian-tee/optee_os/lib/libutee/arch/arm/user_ta_entry.c:119 (discriminator 1)
    1000:	b903      	cbnz	r3, 1004 <ta_header_remove_session+0x10>
    1002:	bd10      	pop	{r4, pc}
/mnt/disk/raspbian-tee/optee_os/lib/libutee/arch/arm/user_ta_entry.c:120
    1004:	681a      	ldr	r2, [r3, #0]
    1006:	4282      	cmp	r2, r0
    1008:	689a      	ldr	r2, [r3, #8]
    100a:	d11b      	bne.n	1044 <ta_header_remove_session+0x50>
    100c:	68d9      	ldr	r1, [r3, #12]
/mnt/disk/raspbian-tee/optee_os/lib/libutee/arch/arm/user_ta_entry.c:121
    100e:	b1aa      	cbz	r2, 103c <ta_header_remove_session+0x48>
/mnt/disk/raspbian-tee/optee_os/lib/libutee/arch/arm/user_ta_entry.c:121 (discriminator 1)
    1010:	60d1      	str	r1, [r2, #12]
/mnt/disk/raspbian-tee/optee_os/lib/libutee/arch/arm/user_ta_entry.c:121 (discriminator 4)
    1012:	68d9      	ldr	r1, [r3, #12]
/mnt/disk/raspbian-tee/optee_os/lib/libutee/arch/arm/user_ta_entry.c:122 (discriminator 4)
    1014:	4618      	mov	r0, r3
/mnt/disk/raspbian-tee/optee_os/lib/libutee/arch/arm/user_ta_entry.c:121 (discriminator 4)
    1016:	600a      	str	r2, [r1, #0]
/mnt/disk/raspbian-tee/optee_os/lib/libutee/arch/arm/user_ta_entry.c:122 (discriminator 4)
    1018:	f000 fcac 	bl	1974 <TEE_Free>
/mnt/disk/raspbian-tee/optee_os/lib/libutee/arch/arm/user_ta_entry.c:127 (discriminator 4)
    101c:	4b0c      	ldr	r3, [pc, #48]	; (1050 <ta_header_remove_session+0x5c>)
    101e:	447b      	add	r3, pc
    1020:	681b      	ldr	r3, [r3, #0]
    1022:	2b00      	cmp	r3, #0
    1024:	d1ed      	bne.n	1002 <ta_header_remove_session+0xe>
/mnt/disk/raspbian-tee/optee_os/lib/libutee/arch/arm/user_ta_entry.c:125 (discriminator 1)
    1026:	4b0b      	ldr	r3, [pc, #44]	; (1054 <ta_header_remove_session+0x60>)
    1028:	58e3      	ldr	r3, [r4, r3]
    102a:	695b      	ldr	r3, [r3, #20]
    102c:	f003 0314 	and.w	r3, r3, #20
/mnt/disk/raspbian-tee/optee_os/lib/libutee/arch/arm/user_ta_entry.c:127 (discriminator 1)
    1030:	2b14      	cmp	r3, #20
    1032:	d0e6      	beq.n	1002 <ta_header_remove_session+0xe>
/mnt/disk/raspbian-tee/optee_os/lib/libutee/arch/arm/user_ta_entry.c:133
    1034:	e8bd 4010 	ldmia.w	sp!, {r4, lr}
uninit_instance():
/mnt/disk/raspbian-tee/optee_os/lib/libutee/arch/arm/user_ta_entry.c:63
    1038:	f7fe bff7 	b.w	2a <TA_DestroyEntryPoint>
ta_header_remove_session():
/mnt/disk/raspbian-tee/optee_os/lib/libutee/arch/arm/user_ta_entry.c:121 (discriminator 2)
    103c:	4806      	ldr	r0, [pc, #24]	; (1058 <ta_header_remove_session+0x64>)
    103e:	4478      	add	r0, pc
    1040:	6041      	str	r1, [r0, #4]
    1042:	e7e6      	b.n	1012 <ta_header_remove_session+0x1e>
/mnt/disk/raspbian-tee/optee_os/lib/libutee/arch/arm/user_ta_entry.c:119 (discriminator 2)
    1044:	4613      	mov	r3, r2
    1046:	e7db      	b.n	1000 <ta_header_remove_session+0xc>
    1048:	0000715c 	.word	0x0000715c
    104c:	00006962 	.word	0x00006962
    1050:	00007136 	.word	0x00007136
    1054:	0000002c 	.word	0x0000002c
    1058:	00007116 	.word	0x00007116

0000105c <__utee_entry>:
__utee_entry():
/mnt/disk/raspbian-tee/optee_os/lib/libutee/arch/arm/user_ta_entry.c:200
    105c:	b580      	push	{r7, lr}
    105e:	4616      	mov	r6, r2
    1060:	4c5a      	ldr	r4, [pc, #360]	; (11cc <__utee_entry+0x170>)
    1062:	b08c      	sub	sp, #48	; 0x30
    1064:	460f      	mov	r7, r1
    1066:	447c      	add	r4, pc
    1068:	4698      	mov	r8, r3
/mnt/disk/raspbian-tee/optee_os/lib/libutee/arch/arm/user_ta_entry.c:211
    106a:	2801      	cmp	r0, #1
    106c:	d074      	beq.n	1158 <__utee_entry+0xfc>
    106e:	d307      	bcc.n	1080 <__utee_entry+0x24>
    1070:	2802      	cmp	r0, #2
    1072:	d07e      	beq.n	1172 <__utee_entry+0x116>
/mnt/disk/raspbian-tee/optee_os/lib/libutee/arch/arm/user_ta_entry.c:223
    1074:	2000      	movs	r0, #0
/mnt/disk/raspbian-tee/optee_os/lib/libutee/arch/arm/user_ta_entry.c:222
    1076:	f04f 34ff 	mov.w	r4, #4294967295	; 0xffffffff
/mnt/disk/raspbian-tee/optee_os/lib/libutee/arch/arm/user_ta_entry.c:223
    107a:	f005 f823 	bl	60c4 <TEE_Panic>
/mnt/disk/raspbian-tee/optee_os/lib/libutee/arch/arm/user_ta_entry.c:224
    107e:	e026      	b.n	10ce <__utee_entry+0x72>
ta_header_add_session():
/mnt/disk/raspbian-tee/optee_os/lib/libutee/arch/arm/user_ta_entry.c:90
    1080:	4608      	mov	r0, r1
    1082:	f7ff ffa9 	bl	fd8 <ta_header_get_session>
/mnt/disk/raspbian-tee/optee_os/lib/libutee/arch/arm/user_ta_entry.c:93
    1086:	2800      	cmp	r0, #0
    1088:	d138      	bne.n	10fc <__utee_entry+0xa0>
/mnt/disk/raspbian-tee/optee_os/lib/libutee/arch/arm/user_ta_entry.c:96
    108a:	4b51      	ldr	r3, [pc, #324]	; (11d0 <__utee_entry+0x174>)
    108c:	447b      	add	r3, pc
    108e:	781a      	ldrb	r2, [r3, #0]
    1090:	b13a      	cbz	r2, 10a2 <__utee_entry+0x46>
/mnt/disk/raspbian-tee/optee_os/lib/libutee/arch/arm/user_ta_entry.c:103
    1092:	f04f 4100 	mov.w	r1, #2147483648	; 0x80000000
    1096:	2010      	movs	r0, #16
    1098:	f000 fc45 	bl	1926 <TEE_Malloc>
/mnt/disk/raspbian-tee/optee_os/lib/libutee/arch/arm/user_ta_entry.c:105
    109c:	bb18      	cbnz	r0, 10e6 <__utee_entry+0x8a>
/mnt/disk/raspbian-tee/optee_os/lib/libutee/arch/arm/user_ta_entry.c:106
    109e:	4c49      	ldr	r4, [pc, #292]	; (11c4 <__utee_entry+0x168>)
    10a0:	e015      	b.n	10ce <__utee_entry+0x72>
/mnt/disk/raspbian-tee/optee_os/lib/libutee/arch/arm/user_ta_entry.c:97
    10a2:	2201      	movs	r2, #1
    10a4:	701a      	strb	r2, [r3, #0]
init_instance():
/mnt/disk/raspbian-tee/optee_os/lib/libutee/arch/arm/user_ta_entry.c:53
    10a6:	f004 ff17 	bl	5ed8 <tahead_get_trace_level>
    10aa:	f7ff fdf8 	bl	c9e <trace_set_level>
/mnt/disk/raspbian-tee/optee_os/lib/libutee/arch/arm/user_ta_entry.c:55
    10ae:	4b49      	ldr	r3, [pc, #292]	; (11d4 <__utee_entry+0x178>)
    10b0:	4a49      	ldr	r2, [pc, #292]	; (11d8 <__utee_entry+0x17c>)
    10b2:	58e3      	ldr	r3, [r4, r3]
    10b4:	58a2      	ldr	r2, [r4, r2]
    10b6:	9201      	str	r2, [sp, #4]
    10b8:	6819      	ldr	r1, [r3, #0]
    10ba:	4610      	mov	r0, r2
    10bc:	f004 fd5e 	bl	5b7c <malloc_add_pool>
/mnt/disk/raspbian-tee/optee_os/lib/libutee/arch/arm/user_ta_entry.c:56
    10c0:	f000 ff3a 	bl	1f38 <_TEE_MathAPI_Init>
/mnt/disk/raspbian-tee/optee_os/lib/libutee/arch/arm/user_ta_entry.c:57
    10c4:	f7fe ffac 	bl	20 <TA_CreateEntryPoint>
ta_header_add_session():
/mnt/disk/raspbian-tee/optee_os/lib/libutee/arch/arm/user_ta_entry.c:99
    10c8:	4604      	mov	r4, r0
    10ca:	2800      	cmp	r0, #0
    10cc:	d0e1      	beq.n	1092 <__utee_entry+0x36>
ta_header_save_params():
/mnt/disk/raspbian-tee/optee_os/lib/libutee/arch/arm/user_ta_entry.c:69
    10ce:	4843      	ldr	r0, [pc, #268]	; (11dc <__utee_entry+0x180>)
    10d0:	2100      	movs	r1, #0
/mnt/disk/raspbian-tee/optee_os/lib/libutee/arch/arm/user_ta_entry.c:74
    10d2:	2220      	movs	r2, #32
/mnt/disk/raspbian-tee/optee_os/lib/libutee/arch/arm/user_ta_entry.c:69
    10d4:	4478      	add	r0, pc
/mnt/disk/raspbian-tee/optee_os/lib/libutee/arch/arm/user_ta_entry.c:74
    10d6:	3008      	adds	r0, #8
/mnt/disk/raspbian-tee/optee_os/lib/libutee/arch/arm/user_ta_entry.c:69
    10d8:	f840 1c04 	str.w	r1, [r0, #-4]
/mnt/disk/raspbian-tee/optee_os/lib/libutee/arch/arm/user_ta_entry.c:74
    10dc:	f004 ff14 	bl	5f08 <memset>
__utee_entry():
/mnt/disk/raspbian-tee/optee_os/lib/libutee/arch/arm/user_ta_entry.c:227
    10e0:	4620      	mov	r0, r4
    10e2:	f000 e88e 	blx	1200 <utee_return>
ta_header_add_session():
/mnt/disk/raspbian-tee/optee_os/lib/libutee/arch/arm/user_ta_entry.c:108
    10e6:	2300      	movs	r3, #0
    10e8:	6043      	str	r3, [r0, #4]
/mnt/disk/raspbian-tee/optee_os/lib/libutee/arch/arm/user_ta_entry.c:109
    10ea:	6083      	str	r3, [r0, #8]
    10ec:	4b3c      	ldr	r3, [pc, #240]	; (11e0 <__utee_entry+0x184>)
/mnt/disk/raspbian-tee/optee_os/lib/libutee/arch/arm/user_ta_entry.c:107
    10ee:	6007      	str	r7, [r0, #0]
/mnt/disk/raspbian-tee/optee_os/lib/libutee/arch/arm/user_ta_entry.c:109
    10f0:	447b      	add	r3, pc
    10f2:	685a      	ldr	r2, [r3, #4]
    10f4:	60c2      	str	r2, [r0, #12]
    10f6:	6010      	str	r0, [r2, #0]
    10f8:	3008      	adds	r0, #8
    10fa:	6058      	str	r0, [r3, #4]
entry_open_session():
/mnt/disk/raspbian-tee/optee_os/lib/libutee/arch/arm/user_ta_entry.c:147
    10fc:	4638      	mov	r0, r7
    10fe:	f7ff ff6b 	bl	fd8 <ta_header_get_session>
/mnt/disk/raspbian-tee/optee_os/lib/libutee/arch/arm/user_ta_entry.c:148
    1102:	4681      	mov	r9, r0
    1104:	b908      	cbnz	r0, 110a <__utee_entry+0xae>
entry_close_session():
/mnt/disk/raspbian-tee/optee_os/lib/libutee/arch/arm/user_ta_entry.c:169
    1106:	4c30      	ldr	r4, [pc, #192]	; (11c8 <__utee_entry+0x16c>)
    1108:	e7e1      	b.n	10ce <__utee_entry+0x72>
entry_open_session():
/mnt/disk/raspbian-tee/optee_os/lib/libutee/arch/arm/user_ta_entry.c:151
    110a:	f10d 0810 	add.w	r8, sp, #16
ta_header_save_params():
/mnt/disk/raspbian-tee/optee_os/lib/libutee/arch/arm/user_ta_entry.c:69
    110e:	4c35      	ldr	r4, [pc, #212]	; (11e4 <__utee_entry+0x188>)
/mnt/disk/raspbian-tee/optee_os/lib/libutee/arch/arm/user_ta_entry.c:72
    1110:	4645      	mov	r5, r8
entry_open_session():
/mnt/disk/raspbian-tee/optee_os/lib/libutee/arch/arm/user_ta_entry.c:151
    1112:	4632      	mov	r2, r6
    1114:	a903      	add	r1, sp, #12
    1116:	4640      	mov	r0, r8
ta_header_save_params():
/mnt/disk/raspbian-tee/optee_os/lib/libutee/arch/arm/user_ta_entry.c:69
    1118:	447c      	add	r4, pc
entry_open_session():
/mnt/disk/raspbian-tee/optee_os/lib/libutee/arch/arm/user_ta_entry.c:151
    111a:	f000 faed 	bl	16f8 <__utee_to_param>
ta_header_save_params():
/mnt/disk/raspbian-tee/optee_os/lib/libutee/arch/arm/user_ta_entry.c:72
    111e:	cd0f      	ldmia	r5!, {r0, r1, r2, r3}
    1120:	3408      	adds	r4, #8
entry_open_session():
/mnt/disk/raspbian-tee/optee_os/lib/libutee/arch/arm/user_ta_entry.c:152
    1122:	f8dd c00c 	ldr.w	ip, [sp, #12]
ta_header_save_params():
/mnt/disk/raspbian-tee/optee_os/lib/libutee/arch/arm/user_ta_entry.c:69
    1126:	f844 cc04 	str.w	ip, [r4, #-4]
/mnt/disk/raspbian-tee/optee_os/lib/libutee/arch/arm/user_ta_entry.c:72
    112a:	c40f      	stmia	r4!, {r0, r1, r2, r3}
    112c:	e895 000f 	ldmia.w	r5, {r0, r1, r2, r3}
    1130:	e884 000f 	stmia.w	r4, {r0, r1, r2, r3}
entry_open_session():
/mnt/disk/raspbian-tee/optee_os/lib/libutee/arch/arm/user_ta_entry.c:154
    1134:	f109 0204 	add.w	r2, r9, #4
    1138:	4641      	mov	r1, r8
    113a:	4660      	mov	r0, ip
    113c:	f7fe ff76 	bl	2c <TA_OpenSessionEntryPoint>
/mnt/disk/raspbian-tee/optee_os/lib/libutee/arch/arm/user_ta_entry.c:157
    1140:	4642      	mov	r2, r8
/mnt/disk/raspbian-tee/optee_os/lib/libutee/arch/arm/user_ta_entry.c:154
    1142:	4604      	mov	r4, r0
/mnt/disk/raspbian-tee/optee_os/lib/libutee/arch/arm/user_ta_entry.c:157
    1144:	9903      	ldr	r1, [sp, #12]
    1146:	4630      	mov	r0, r6
    1148:	f000 faae 	bl	16a8 <__utee_from_param>
/mnt/disk/raspbian-tee/optee_os/lib/libutee/arch/arm/user_ta_entry.c:159
    114c:	2c00      	cmp	r4, #0
    114e:	d0be      	beq.n	10ce <__utee_entry+0x72>
/mnt/disk/raspbian-tee/optee_os/lib/libutee/arch/arm/user_ta_entry.c:160
    1150:	4638      	mov	r0, r7
    1152:	f7ff ff4f 	bl	ff4 <ta_header_remove_session>
    1156:	e7ba      	b.n	10ce <__utee_entry+0x72>
entry_close_session():
/mnt/disk/raspbian-tee/optee_os/lib/libutee/arch/arm/user_ta_entry.c:166
    1158:	4608      	mov	r0, r1
    115a:	f7ff ff3d 	bl	fd8 <ta_header_get_session>
/mnt/disk/raspbian-tee/optee_os/lib/libutee/arch/arm/user_ta_entry.c:168
    115e:	2800      	cmp	r0, #0
    1160:	d0d1      	beq.n	1106 <__utee_entry+0xaa>
/mnt/disk/raspbian-tee/optee_os/lib/libutee/arch/arm/user_ta_entry.c:171
    1162:	6840      	ldr	r0, [r0, #4]
/mnt/disk/raspbian-tee/optee_os/lib/libutee/arch/arm/user_ta_entry.c:174
    1164:	2400      	movs	r4, #0
/mnt/disk/raspbian-tee/optee_os/lib/libutee/arch/arm/user_ta_entry.c:171
    1166:	f7fe ff69 	bl	3c <TA_CloseSessionEntryPoint>
/mnt/disk/raspbian-tee/optee_os/lib/libutee/arch/arm/user_ta_entry.c:173
    116a:	4638      	mov	r0, r7
    116c:	f7ff ff42 	bl	ff4 <ta_header_remove_session>
    1170:	e7ad      	b.n	10ce <__utee_entry+0x72>
entry_invoke_command():
/mnt/disk/raspbian-tee/optee_os/lib/libutee/arch/arm/user_ta_entry.c:183
    1172:	4608      	mov	r0, r1
    1174:	f7ff ff30 	bl	fd8 <ta_header_get_session>
/mnt/disk/raspbian-tee/optee_os/lib/libutee/arch/arm/user_ta_entry.c:185
    1178:	4681      	mov	r9, r0
    117a:	2800      	cmp	r0, #0
    117c:	d0c3      	beq.n	1106 <__utee_entry+0xaa>
/mnt/disk/raspbian-tee/optee_os/lib/libutee/arch/arm/user_ta_entry.c:188
    117e:	af04      	add	r7, sp, #16
ta_header_save_params():
/mnt/disk/raspbian-tee/optee_os/lib/libutee/arch/arm/user_ta_entry.c:69
    1180:	4c19      	ldr	r4, [pc, #100]	; (11e8 <__utee_entry+0x18c>)
/mnt/disk/raspbian-tee/optee_os/lib/libutee/arch/arm/user_ta_entry.c:72
    1182:	463d      	mov	r5, r7
entry_invoke_command():
/mnt/disk/raspbian-tee/optee_os/lib/libutee/arch/arm/user_ta_entry.c:188
    1184:	4632      	mov	r2, r6
    1186:	a903      	add	r1, sp, #12
    1188:	4638      	mov	r0, r7
ta_header_save_params():
/mnt/disk/raspbian-tee/optee_os/lib/libutee/arch/arm/user_ta_entry.c:69
    118a:	447c      	add	r4, pc
entry_invoke_command():
/mnt/disk/raspbian-tee/optee_os/lib/libutee/arch/arm/user_ta_entry.c:188
    118c:	f000 fab4 	bl	16f8 <__utee_to_param>
ta_header_save_params():
/mnt/disk/raspbian-tee/optee_os/lib/libutee/arch/arm/user_ta_entry.c:72
    1190:	cd0f      	ldmia	r5!, {r0, r1, r2, r3}
    1192:	3408      	adds	r4, #8
entry_invoke_command():
/mnt/disk/raspbian-tee/optee_os/lib/libutee/arch/arm/user_ta_entry.c:189
    1194:	f8dd c00c 	ldr.w	ip, [sp, #12]
ta_header_save_params():
/mnt/disk/raspbian-tee/optee_os/lib/libutee/arch/arm/user_ta_entry.c:69
    1198:	f844 cc04 	str.w	ip, [r4, #-4]
/mnt/disk/raspbian-tee/optee_os/lib/libutee/arch/arm/user_ta_entry.c:72
    119c:	c40f      	stmia	r4!, {r0, r1, r2, r3}
    119e:	e895 000f 	ldmia.w	r5, {r0, r1, r2, r3}
    11a2:	e884 000f 	stmia.w	r4, {r0, r1, r2, r3}
entry_invoke_command():
/mnt/disk/raspbian-tee/optee_os/lib/libutee/arch/arm/user_ta_entry.c:191
    11a6:	4662      	mov	r2, ip
    11a8:	4641      	mov	r1, r8
    11aa:	463b      	mov	r3, r7
    11ac:	f8d9 0004 	ldr.w	r0, [r9, #4]
    11b0:	f7fe ff56 	bl	60 <TA_InvokeCommandEntryPoint>
/mnt/disk/raspbian-tee/optee_os/lib/libutee/arch/arm/user_ta_entry.c:194
    11b4:	463a      	mov	r2, r7
/mnt/disk/raspbian-tee/optee_os/lib/libutee/arch/arm/user_ta_entry.c:191
    11b6:	4604      	mov	r4, r0
/mnt/disk/raspbian-tee/optee_os/lib/libutee/arch/arm/user_ta_entry.c:194
    11b8:	9903      	ldr	r1, [sp, #12]
    11ba:	4630      	mov	r0, r6
    11bc:	f000 fa74 	bl	16a8 <__utee_from_param>
    11c0:	e785      	b.n	10ce <__utee_entry+0x72>
    11c2:	bf00      	nop
    11c4:	ffff000c 	.word	0xffff000c
    11c8:	ffff0007 	.word	0xffff0007
    11cc:	000068fa 	.word	0x000068fa
    11d0:	00007420 	.word	0x00007420
    11d4:	0000000c 	.word	0x0000000c
    11d8:	00000020 	.word	0x00000020
    11dc:	000073d8 	.word	0x000073d8
    11e0:	00007064 	.word	0x00007064
    11e4:	00007394 	.word	0x00007394
    11e8:	00007322 	.word	0x00007322

000011ec <utee_panic>:
utee_panic():
/mnt/disk/raspbian-tee/optee_os/lib/libutee/arch/arm/utee_syscalls_a32.S:47
    11ec:	e92d4fff 	push	{r0, r1, r2, r3, r4, r5, r6, r7, r8, r9, sl, fp, lr}
/mnt/disk/raspbian-tee/optee_os/lib/libutee/arch/arm/utee_syscalls_a32.S:49
    11f0:	e1a0e00f 	mov	lr, pc
/mnt/disk/raspbian-tee/optee_os/lib/libutee/arch/arm/utee_syscalls_a32.S:50
    11f4:	e52de004 	push	{lr}		; (str lr, [sp, #-4]!)
/mnt/disk/raspbian-tee/optee_os/lib/libutee/arch/arm/utee_syscalls_a32.S:52
    11f8:	e1a0100d 	mov	r1, sp
/mnt/disk/raspbian-tee/optee_os/lib/libutee/arch/arm/utee_syscalls_a32.S:53
    11fc:	eb000009 	bl	1228 <__utee_panic>

00001200 <utee_return>:
utee_return():
/mnt/disk/raspbian-tee/optee_os/lib/libutee/arch/arm/utee_syscalls_asm.S:8
    1200:	e92d40e0 	push	{r5, r6, r7, lr}
    1204:	e3a07000 	mov	r7, #0
    1208:	e3a06000 	mov	r6, #0
    120c:	ef000000 	svc	0x00000000
    1210:	e8bd80e0 	pop	{r5, r6, r7, pc}

00001214 <utee_log>:
utee_log():
/mnt/disk/raspbian-tee/optee_os/lib/libutee/arch/arm/utee_syscalls_asm.S:10
    1214:	e92d40e0 	push	{r5, r6, r7, lr}
    1218:	e3a07001 	mov	r7, #1
    121c:	e3a06000 	mov	r6, #0
    1220:	ef000000 	svc	0x00000000
    1224:	e8bd80e0 	pop	{r5, r6, r7, pc}

00001228 <__utee_panic>:
__utee_panic():
/mnt/disk/raspbian-tee/optee_os/lib/libutee/arch/arm/utee_syscalls_asm.S:12
    1228:	e92d40e0 	push	{r5, r6, r7, lr}
    122c:	e3a07002 	mov	r7, #2
    1230:	e3a06000 	mov	r6, #0
    1234:	ef000000 	svc	0x00000000
    1238:	e8bd80e0 	pop	{r5, r6, r7, pc}

0000123c <utee_get_property>:
utee_get_property():
/mnt/disk/raspbian-tee/optee_os/lib/libutee/arch/arm/utee_syscalls_asm.S:14
    123c:	e92d40e0 	push	{r5, r6, r7, lr}
    1240:	e3a07003 	mov	r7, #3
    1244:	e3a06003 	mov	r6, #3
    1248:	e28d5010 	add	r5, sp, #16
    124c:	ef000000 	svc	0x00000000
    1250:	e8bd80e0 	pop	{r5, r6, r7, pc}

00001254 <utee_get_property_name_to_index>:
utee_get_property_name_to_index():
/mnt/disk/raspbian-tee/optee_os/lib/libutee/arch/arm/utee_syscalls_asm.S:16
    1254:	e92d40e0 	push	{r5, r6, r7, lr}
    1258:	e3a07004 	mov	r7, #4
    125c:	e3a06000 	mov	r6, #0
    1260:	ef000000 	svc	0x00000000
    1264:	e8bd80e0 	pop	{r5, r6, r7, pc}

00001268 <utee_open_ta_session>:
utee_open_ta_session():
/mnt/disk/raspbian-tee/optee_os/lib/libutee/arch/arm/utee_syscalls_asm.S:19
    1268:	e92d40e0 	push	{r5, r6, r7, lr}
    126c:	e3a07005 	mov	r7, #5
    1270:	e3a06001 	mov	r6, #1
    1274:	e28d5010 	add	r5, sp, #16
    1278:	ef000000 	svc	0x00000000
    127c:	e8bd80e0 	pop	{r5, r6, r7, pc}

00001280 <utee_close_ta_session>:
utee_close_ta_session():
/mnt/disk/raspbian-tee/optee_os/lib/libutee/arch/arm/utee_syscalls_asm.S:21
    1280:	e92d40e0 	push	{r5, r6, r7, lr}
    1284:	e3a07006 	mov	r7, #6
    1288:	e3a06000 	mov	r6, #0
    128c:	ef000000 	svc	0x00000000
    1290:	e8bd80e0 	pop	{r5, r6, r7, pc}

00001294 <utee_invoke_ta_command>:
utee_invoke_ta_command():
/mnt/disk/raspbian-tee/optee_os/lib/libutee/arch/arm/utee_syscalls_asm.S:23
    1294:	e92d40e0 	push	{r5, r6, r7, lr}
    1298:	e3a07007 	mov	r7, #7
    129c:	e3a06001 	mov	r6, #1
    12a0:	e28d5010 	add	r5, sp, #16
    12a4:	ef000000 	svc	0x00000000
    12a8:	e8bd80e0 	pop	{r5, r6, r7, pc}

000012ac <utee_get_cancellation_flag>:
utee_get_cancellation_flag():
/mnt/disk/raspbian-tee/optee_os/lib/libutee/arch/arm/utee_syscalls_asm.S:25
    12ac:	e92d40e0 	push	{r5, r6, r7, lr}
    12b0:	e3a07009 	mov	r7, #9
    12b4:	e3a06000 	mov	r6, #0
    12b8:	ef000000 	svc	0x00000000
    12bc:	e8bd80e0 	pop	{r5, r6, r7, pc}

000012c0 <utee_check_access_rights>:
utee_check_access_rights():
/mnt/disk/raspbian-tee/optee_os/lib/libutee/arch/arm/utee_syscalls_asm.S:28
    12c0:	e92d40e0 	push	{r5, r6, r7, lr}
    12c4:	e3a07008 	mov	r7, #8
    12c8:	e3a06000 	mov	r6, #0
    12cc:	ef000000 	svc	0x00000000
    12d0:	e8bd80e0 	pop	{r5, r6, r7, pc}

000012d4 <utee_unmask_cancellation>:
utee_unmask_cancellation():
/mnt/disk/raspbian-tee/optee_os/lib/libutee/arch/arm/utee_syscalls_asm.S:30
    12d4:	e92d40e0 	push	{r5, r6, r7, lr}
    12d8:	e3a0700a 	mov	r7, #10
    12dc:	e3a06000 	mov	r6, #0
    12e0:	ef000000 	svc	0x00000000
    12e4:	e8bd80e0 	pop	{r5, r6, r7, pc}

000012e8 <utee_mask_cancellation>:
utee_mask_cancellation():
/mnt/disk/raspbian-tee/optee_os/lib/libutee/arch/arm/utee_syscalls_asm.S:32
    12e8:	e92d40e0 	push	{r5, r6, r7, lr}
    12ec:	e3a0700b 	mov	r7, #11
    12f0:	e3a06000 	mov	r6, #0
    12f4:	ef000000 	svc	0x00000000
    12f8:	e8bd80e0 	pop	{r5, r6, r7, pc}

000012fc <utee_wait>:
utee_wait():
/mnt/disk/raspbian-tee/optee_os/lib/libutee/arch/arm/utee_syscalls_asm.S:34
    12fc:	e92d40e0 	push	{r5, r6, r7, lr}
    1300:	e3a0700c 	mov	r7, #12
    1304:	e3a06000 	mov	r6, #0
    1308:	ef000000 	svc	0x00000000
    130c:	e8bd80e0 	pop	{r5, r6, r7, pc}

00001310 <utee_get_time>:
utee_get_time():
/mnt/disk/raspbian-tee/optee_os/lib/libutee/arch/arm/utee_syscalls_asm.S:36
    1310:	e92d40e0 	push	{r5, r6, r7, lr}
    1314:	e3a0700d 	mov	r7, #13
    1318:	e3a06000 	mov	r6, #0
    131c:	ef000000 	svc	0x00000000
    1320:	e8bd80e0 	pop	{r5, r6, r7, pc}

00001324 <utee_set_ta_time>:
utee_set_ta_time():
/mnt/disk/raspbian-tee/optee_os/lib/libutee/arch/arm/utee_syscalls_asm.S:38
    1324:	e92d40e0 	push	{r5, r6, r7, lr}
    1328:	e3a0700e 	mov	r7, #14
    132c:	e3a06000 	mov	r6, #0
    1330:	ef000000 	svc	0x00000000
    1334:	e8bd80e0 	pop	{r5, r6, r7, pc}

00001338 <utee_cryp_state_alloc>:
utee_cryp_state_alloc():
/mnt/disk/raspbian-tee/optee_os/lib/libutee/arch/arm/utee_syscalls_asm.S:40
    1338:	e92d40e0 	push	{r5, r6, r7, lr}
    133c:	e3a0700f 	mov	r7, #15
    1340:	e3a06001 	mov	r6, #1
    1344:	e28d5010 	add	r5, sp, #16
    1348:	ef000000 	svc	0x00000000
    134c:	e8bd80e0 	pop	{r5, r6, r7, pc}

00001350 <utee_cryp_state_copy>:
utee_cryp_state_copy():
/mnt/disk/raspbian-tee/optee_os/lib/libutee/arch/arm/utee_syscalls_asm.S:42
    1350:	e92d40e0 	push	{r5, r6, r7, lr}
    1354:	e3a07010 	mov	r7, #16
    1358:	e3a06000 	mov	r6, #0
    135c:	ef000000 	svc	0x00000000
    1360:	e8bd80e0 	pop	{r5, r6, r7, pc}

00001364 <utee_cryp_state_free>:
utee_cryp_state_free():
/mnt/disk/raspbian-tee/optee_os/lib/libutee/arch/arm/utee_syscalls_asm.S:44
    1364:	e92d40e0 	push	{r5, r6, r7, lr}
    1368:	e3a07011 	mov	r7, #17
    136c:	e3a06000 	mov	r6, #0
    1370:	ef000000 	svc	0x00000000
    1374:	e8bd80e0 	pop	{r5, r6, r7, pc}

00001378 <utee_hash_init>:
utee_hash_init():
/mnt/disk/raspbian-tee/optee_os/lib/libutee/arch/arm/utee_syscalls_asm.S:46
    1378:	e92d40e0 	push	{r5, r6, r7, lr}
    137c:	e3a07012 	mov	r7, #18
    1380:	e3a06000 	mov	r6, #0
    1384:	ef000000 	svc	0x00000000
    1388:	e8bd80e0 	pop	{r5, r6, r7, pc}

0000138c <utee_hash_update>:
utee_hash_update():
/mnt/disk/raspbian-tee/optee_os/lib/libutee/arch/arm/utee_syscalls_asm.S:48
    138c:	e92d40e0 	push	{r5, r6, r7, lr}
    1390:	e3a07013 	mov	r7, #19
    1394:	e3a06000 	mov	r6, #0
    1398:	ef000000 	svc	0x00000000
    139c:	e8bd80e0 	pop	{r5, r6, r7, pc}

000013a0 <utee_hash_final>:
utee_hash_final():
/mnt/disk/raspbian-tee/optee_os/lib/libutee/arch/arm/utee_syscalls_asm.S:50
    13a0:	e92d40e0 	push	{r5, r6, r7, lr}
    13a4:	e3a07014 	mov	r7, #20
    13a8:	e3a06001 	mov	r6, #1
    13ac:	e28d5010 	add	r5, sp, #16
    13b0:	ef000000 	svc	0x00000000
    13b4:	e8bd80e0 	pop	{r5, r6, r7, pc}

000013b8 <utee_cipher_init>:
utee_cipher_init():
/mnt/disk/raspbian-tee/optee_os/lib/libutee/arch/arm/utee_syscalls_asm.S:52
    13b8:	e92d40e0 	push	{r5, r6, r7, lr}
    13bc:	e3a07015 	mov	r7, #21
    13c0:	e3a06000 	mov	r6, #0
    13c4:	ef000000 	svc	0x00000000
    13c8:	e8bd80e0 	pop	{r5, r6, r7, pc}

000013cc <utee_cipher_update>:
utee_cipher_update():
/mnt/disk/raspbian-tee/optee_os/lib/libutee/arch/arm/utee_syscalls_asm.S:54
    13cc:	e92d40e0 	push	{r5, r6, r7, lr}
    13d0:	e3a07016 	mov	r7, #22
    13d4:	e3a06001 	mov	r6, #1
    13d8:	e28d5010 	add	r5, sp, #16
    13dc:	ef000000 	svc	0x00000000
    13e0:	e8bd80e0 	pop	{r5, r6, r7, pc}

000013e4 <utee_cipher_final>:
utee_cipher_final():
/mnt/disk/raspbian-tee/optee_os/lib/libutee/arch/arm/utee_syscalls_asm.S:56
    13e4:	e92d40e0 	push	{r5, r6, r7, lr}
    13e8:	e3a07017 	mov	r7, #23
    13ec:	e3a06001 	mov	r6, #1
    13f0:	e28d5010 	add	r5, sp, #16
    13f4:	ef000000 	svc	0x00000000
    13f8:	e8bd80e0 	pop	{r5, r6, r7, pc}

000013fc <utee_cryp_obj_get_info>:
utee_cryp_obj_get_info():
/mnt/disk/raspbian-tee/optee_os/lib/libutee/arch/arm/utee_syscalls_asm.S:58
    13fc:	e92d40e0 	push	{r5, r6, r7, lr}
    1400:	e3a07018 	mov	r7, #24
    1404:	e3a06000 	mov	r6, #0
    1408:	ef000000 	svc	0x00000000
    140c:	e8bd80e0 	pop	{r5, r6, r7, pc}

00001410 <utee_cryp_obj_restrict_usage>:
utee_cryp_obj_restrict_usage():
/mnt/disk/raspbian-tee/optee_os/lib/libutee/arch/arm/utee_syscalls_asm.S:60
    1410:	e92d40e0 	push	{r5, r6, r7, lr}
    1414:	e3a07019 	mov	r7, #25
    1418:	e3a06000 	mov	r6, #0
    141c:	ef000000 	svc	0x00000000
    1420:	e8bd80e0 	pop	{r5, r6, r7, pc}

00001424 <utee_cryp_obj_get_attr>:
utee_cryp_obj_get_attr():
/mnt/disk/raspbian-tee/optee_os/lib/libutee/arch/arm/utee_syscalls_asm.S:63
    1424:	e92d40e0 	push	{r5, r6, r7, lr}
    1428:	e3a0701a 	mov	r7, #26
    142c:	e3a06000 	mov	r6, #0
    1430:	ef000000 	svc	0x00000000
    1434:	e8bd80e0 	pop	{r5, r6, r7, pc}

00001438 <utee_cryp_obj_alloc>:
utee_cryp_obj_alloc():
/mnt/disk/raspbian-tee/optee_os/lib/libutee/arch/arm/utee_syscalls_asm.S:65
    1438:	e92d40e0 	push	{r5, r6, r7, lr}
    143c:	e3a0701b 	mov	r7, #27
    1440:	e3a06000 	mov	r6, #0
    1444:	ef000000 	svc	0x00000000
    1448:	e8bd80e0 	pop	{r5, r6, r7, pc}

0000144c <utee_cryp_obj_close>:
utee_cryp_obj_close():
/mnt/disk/raspbian-tee/optee_os/lib/libutee/arch/arm/utee_syscalls_asm.S:67
    144c:	e92d40e0 	push	{r5, r6, r7, lr}
    1450:	e3a0701c 	mov	r7, #28
    1454:	e3a06000 	mov	r6, #0
    1458:	ef000000 	svc	0x00000000
    145c:	e8bd80e0 	pop	{r5, r6, r7, pc}

00001460 <utee_cryp_obj_reset>:
utee_cryp_obj_reset():
/mnt/disk/raspbian-tee/optee_os/lib/libutee/arch/arm/utee_syscalls_asm.S:69
    1460:	e92d40e0 	push	{r5, r6, r7, lr}
    1464:	e3a0701d 	mov	r7, #29
    1468:	e3a06000 	mov	r6, #0
    146c:	ef000000 	svc	0x00000000
    1470:	e8bd80e0 	pop	{r5, r6, r7, pc}

00001474 <utee_cryp_obj_populate>:
utee_cryp_obj_populate():
/mnt/disk/raspbian-tee/optee_os/lib/libutee/arch/arm/utee_syscalls_asm.S:71
    1474:	e92d40e0 	push	{r5, r6, r7, lr}
    1478:	e3a0701e 	mov	r7, #30
    147c:	e3a06000 	mov	r6, #0
    1480:	ef000000 	svc	0x00000000
    1484:	e8bd80e0 	pop	{r5, r6, r7, pc}

00001488 <utee_cryp_obj_copy>:
utee_cryp_obj_copy():
/mnt/disk/raspbian-tee/optee_os/lib/libutee/arch/arm/utee_syscalls_asm.S:73
    1488:	e92d40e0 	push	{r5, r6, r7, lr}
    148c:	e3a0701f 	mov	r7, #31
    1490:	e3a06000 	mov	r6, #0
    1494:	ef000000 	svc	0x00000000
    1498:	e8bd80e0 	pop	{r5, r6, r7, pc}

0000149c <utee_cryp_derive_key>:
utee_cryp_derive_key():
/mnt/disk/raspbian-tee/optee_os/lib/libutee/arch/arm/utee_syscalls_asm.S:75
    149c:	e92d40e0 	push	{r5, r6, r7, lr}
    14a0:	e3a07020 	mov	r7, #32
    14a4:	e3a06000 	mov	r6, #0
    14a8:	ef000000 	svc	0x00000000
    14ac:	e8bd80e0 	pop	{r5, r6, r7, pc}

000014b0 <utee_cryp_random_number_generate>:
utee_cryp_random_number_generate():
/mnt/disk/raspbian-tee/optee_os/lib/libutee/arch/arm/utee_syscalls_asm.S:77
    14b0:	e92d40e0 	push	{r5, r6, r7, lr}
    14b4:	e3a07021 	mov	r7, #33	; 0x21
    14b8:	e3a06000 	mov	r6, #0
    14bc:	ef000000 	svc	0x00000000
    14c0:	e8bd80e0 	pop	{r5, r6, r7, pc}

000014c4 <utee_authenc_init>:
utee_authenc_init():
/mnt/disk/raspbian-tee/optee_os/lib/libutee/arch/arm/utee_syscalls_asm.S:80
    14c4:	e92d40e0 	push	{r5, r6, r7, lr}
    14c8:	e3a07022 	mov	r7, #34	; 0x22
    14cc:	e3a06002 	mov	r6, #2
    14d0:	e28d5010 	add	r5, sp, #16
    14d4:	ef000000 	svc	0x00000000
    14d8:	e8bd80e0 	pop	{r5, r6, r7, pc}

000014dc <utee_authenc_update_aad>:
utee_authenc_update_aad():
/mnt/disk/raspbian-tee/optee_os/lib/libutee/arch/arm/utee_syscalls_asm.S:82
    14dc:	e92d40e0 	push	{r5, r6, r7, lr}
    14e0:	e3a07023 	mov	r7, #35	; 0x23
    14e4:	e3a06000 	mov	r6, #0
    14e8:	ef000000 	svc	0x00000000
    14ec:	e8bd80e0 	pop	{r5, r6, r7, pc}

000014f0 <utee_authenc_update_payload>:
utee_authenc_update_payload():
/mnt/disk/raspbian-tee/optee_os/lib/libutee/arch/arm/utee_syscalls_asm.S:84
    14f0:	e92d40e0 	push	{r5, r6, r7, lr}
    14f4:	e3a07024 	mov	r7, #36	; 0x24
    14f8:	e3a06001 	mov	r6, #1
    14fc:	e28d5010 	add	r5, sp, #16
    1500:	ef000000 	svc	0x00000000
    1504:	e8bd80e0 	pop	{r5, r6, r7, pc}

00001508 <utee_authenc_enc_final>:
utee_authenc_enc_final():
/mnt/disk/raspbian-tee/optee_os/lib/libutee/arch/arm/utee_syscalls_asm.S:87
    1508:	e92d40e0 	push	{r5, r6, r7, lr}
    150c:	e3a07025 	mov	r7, #37	; 0x25
    1510:	e3a06003 	mov	r6, #3
    1514:	e28d5010 	add	r5, sp, #16
    1518:	ef000000 	svc	0x00000000
    151c:	e8bd80e0 	pop	{r5, r6, r7, pc}

00001520 <utee_authenc_dec_final>:
utee_authenc_dec_final():
/mnt/disk/raspbian-tee/optee_os/lib/libutee/arch/arm/utee_syscalls_asm.S:89
    1520:	e92d40e0 	push	{r5, r6, r7, lr}
    1524:	e3a07026 	mov	r7, #38	; 0x26
    1528:	e3a06003 	mov	r6, #3
    152c:	e28d5010 	add	r5, sp, #16
    1530:	ef000000 	svc	0x00000000
    1534:	e8bd80e0 	pop	{r5, r6, r7, pc}

00001538 <utee_asymm_operate>:
utee_asymm_operate():
/mnt/disk/raspbian-tee/optee_os/lib/libutee/arch/arm/utee_syscalls_asm.S:91
    1538:	e92d40e0 	push	{r5, r6, r7, lr}
    153c:	e3a07027 	mov	r7, #39	; 0x27
    1540:	e3a06003 	mov	r6, #3
    1544:	e28d5010 	add	r5, sp, #16
    1548:	ef000000 	svc	0x00000000
    154c:	e8bd80e0 	pop	{r5, r6, r7, pc}

00001550 <utee_asymm_verify>:
utee_asymm_verify():
/mnt/disk/raspbian-tee/optee_os/lib/libutee/arch/arm/utee_syscalls_asm.S:93
    1550:	e92d40e0 	push	{r5, r6, r7, lr}
    1554:	e3a07028 	mov	r7, #40	; 0x28
    1558:	e3a06003 	mov	r6, #3
    155c:	e28d5010 	add	r5, sp, #16
    1560:	ef000000 	svc	0x00000000
    1564:	e8bd80e0 	pop	{r5, r6, r7, pc}

00001568 <utee_storage_obj_open>:
utee_storage_obj_open():
/mnt/disk/raspbian-tee/optee_os/lib/libutee/arch/arm/utee_syscalls_asm.S:95
    1568:	e92d40e0 	push	{r5, r6, r7, lr}
    156c:	e3a07029 	mov	r7, #41	; 0x29
    1570:	e3a06001 	mov	r6, #1
    1574:	e28d5010 	add	r5, sp, #16
    1578:	ef000000 	svc	0x00000000
    157c:	e8bd80e0 	pop	{r5, r6, r7, pc}

00001580 <utee_storage_obj_create>:
utee_storage_obj_create():
/mnt/disk/raspbian-tee/optee_os/lib/libutee/arch/arm/utee_syscalls_asm.S:97
    1580:	e92d40e0 	push	{r5, r6, r7, lr}
    1584:	e3a0702a 	mov	r7, #42	; 0x2a
    1588:	e3a06004 	mov	r6, #4
    158c:	e28d5010 	add	r5, sp, #16
    1590:	ef000000 	svc	0x00000000
    1594:	e8bd80e0 	pop	{r5, r6, r7, pc}

00001598 <utee_storage_obj_del>:
utee_storage_obj_del():
/mnt/disk/raspbian-tee/optee_os/lib/libutee/arch/arm/utee_syscalls_asm.S:99
    1598:	e92d40e0 	push	{r5, r6, r7, lr}
    159c:	e3a0702b 	mov	r7, #43	; 0x2b
    15a0:	e3a06000 	mov	r6, #0
    15a4:	ef000000 	svc	0x00000000
    15a8:	e8bd80e0 	pop	{r5, r6, r7, pc}

000015ac <utee_storage_obj_rename>:
utee_storage_obj_rename():
/mnt/disk/raspbian-tee/optee_os/lib/libutee/arch/arm/utee_syscalls_asm.S:101
    15ac:	e92d40e0 	push	{r5, r6, r7, lr}
    15b0:	e3a0702c 	mov	r7, #44	; 0x2c
    15b4:	e3a06000 	mov	r6, #0
    15b8:	ef000000 	svc	0x00000000
    15bc:	e8bd80e0 	pop	{r5, r6, r7, pc}

000015c0 <utee_storage_alloc_enum>:
utee_storage_alloc_enum():
/mnt/disk/raspbian-tee/optee_os/lib/libutee/arch/arm/utee_syscalls_asm.S:103
    15c0:	e92d40e0 	push	{r5, r6, r7, lr}
    15c4:	e3a0702d 	mov	r7, #45	; 0x2d
    15c8:	e3a06000 	mov	r6, #0
    15cc:	ef000000 	svc	0x00000000
    15d0:	e8bd80e0 	pop	{r5, r6, r7, pc}

000015d4 <utee_storage_free_enum>:
utee_storage_free_enum():
/mnt/disk/raspbian-tee/optee_os/lib/libutee/arch/arm/utee_syscalls_asm.S:105
    15d4:	e92d40e0 	push	{r5, r6, r7, lr}
    15d8:	e3a0702e 	mov	r7, #46	; 0x2e
    15dc:	e3a06000 	mov	r6, #0
    15e0:	ef000000 	svc	0x00000000
    15e4:	e8bd80e0 	pop	{r5, r6, r7, pc}

000015e8 <utee_storage_reset_enum>:
utee_storage_reset_enum():
/mnt/disk/raspbian-tee/optee_os/lib/libutee/arch/arm/utee_syscalls_asm.S:107
    15e8:	e92d40e0 	push	{r5, r6, r7, lr}
    15ec:	e3a0702f 	mov	r7, #47	; 0x2f
    15f0:	e3a06000 	mov	r6, #0
    15f4:	ef000000 	svc	0x00000000
    15f8:	e8bd80e0 	pop	{r5, r6, r7, pc}

000015fc <utee_storage_start_enum>:
utee_storage_start_enum():
/mnt/disk/raspbian-tee/optee_os/lib/libutee/arch/arm/utee_syscalls_asm.S:109
    15fc:	e92d40e0 	push	{r5, r6, r7, lr}
    1600:	e3a07030 	mov	r7, #48	; 0x30
    1604:	e3a06000 	mov	r6, #0
    1608:	ef000000 	svc	0x00000000
    160c:	e8bd80e0 	pop	{r5, r6, r7, pc}

00001610 <utee_storage_next_enum>:
utee_storage_next_enum():
/mnt/disk/raspbian-tee/optee_os/lib/libutee/arch/arm/utee_syscalls_asm.S:111
    1610:	e92d40e0 	push	{r5, r6, r7, lr}
    1614:	e3a07031 	mov	r7, #49	; 0x31
    1618:	e3a06000 	mov	r6, #0
    161c:	ef000000 	svc	0x00000000
    1620:	e8bd80e0 	pop	{r5, r6, r7, pc}

00001624 <utee_storage_obj_read>:
utee_storage_obj_read():
/mnt/disk/raspbian-tee/optee_os/lib/libutee/arch/arm/utee_syscalls_asm.S:113
    1624:	e92d40e0 	push	{r5, r6, r7, lr}
    1628:	e3a07032 	mov	r7, #50	; 0x32
    162c:	e3a06000 	mov	r6, #0
    1630:	ef000000 	svc	0x00000000
    1634:	e8bd80e0 	pop	{r5, r6, r7, pc}

00001638 <utee_storage_obj_write>:
utee_storage_obj_write():
/mnt/disk/raspbian-tee/optee_os/lib/libutee/arch/arm/utee_syscalls_asm.S:115
    1638:	e92d40e0 	push	{r5, r6, r7, lr}
    163c:	e3a07033 	mov	r7, #51	; 0x33
    1640:	e3a06000 	mov	r6, #0
    1644:	ef000000 	svc	0x00000000
    1648:	e8bd80e0 	pop	{r5, r6, r7, pc}

0000164c <utee_storage_obj_trunc>:
utee_storage_obj_trunc():
/mnt/disk/raspbian-tee/optee_os/lib/libutee/arch/arm/utee_syscalls_asm.S:117
    164c:	e92d40e0 	push	{r5, r6, r7, lr}
    1650:	e3a07034 	mov	r7, #52	; 0x34
    1654:	e3a06000 	mov	r6, #0
    1658:	ef000000 	svc	0x00000000
    165c:	e8bd80e0 	pop	{r5, r6, r7, pc}

00001660 <utee_storage_obj_seek>:
utee_storage_obj_seek():
/mnt/disk/raspbian-tee/optee_os/lib/libutee/arch/arm/utee_syscalls_asm.S:119
    1660:	e92d40e0 	push	{r5, r6, r7, lr}
    1664:	e3a07035 	mov	r7, #53	; 0x35
    1668:	e3a06000 	mov	r6, #0
    166c:	ef000000 	svc	0x00000000
    1670:	e8bd80e0 	pop	{r5, r6, r7, pc}

00001674 <utee_cryp_obj_generate_key>:
utee_cryp_obj_generate_key():
/mnt/disk/raspbian-tee/optee_os/lib/libutee/arch/arm/utee_syscalls_asm.S:121
    1674:	e92d40e0 	push	{r5, r6, r7, lr}
    1678:	e3a07036 	mov	r7, #54	; 0x36
    167c:	e3a06000 	mov	r6, #0
    1680:	ef000000 	svc	0x00000000
    1684:	e8bd80e0 	pop	{r5, r6, r7, pc}

00001688 <utee_cache_operation>:
utee_cache_operation():
/mnt/disk/raspbian-tee/optee_os/lib/libutee/arch/arm/utee_syscalls_asm.S:124
    1688:	e92d40e0 	push	{r5, r6, r7, lr}
    168c:	e3a07046 	mov	r7, #70	; 0x46
    1690:	e3a06000 	mov	r6, #0
    1694:	ef000000 	svc	0x00000000
    1698:	e8bd80e0 	pop	{r5, r6, r7, pc}

0000169c <__utee_mcount>:
__utee_mcount():
/mnt/disk/raspbian-tee/optee_os/lib/libutee/arch/arm/gprof/gprof_a32.S:49
    169c:	e52de004 	push	{lr}		; (str lr, [sp, #-4]!)
/mnt/disk/raspbian-tee/optee_os/lib/libutee/arch/arm/gprof/gprof_a32.S:50
    16a0:	e8bd5000 	pop	{ip, lr}
/mnt/disk/raspbian-tee/optee_os/lib/libutee/arch/arm/gprof/gprof_a32.S:51
    16a4:	e12fff1c 	bx	ip

000016a8 <__utee_from_param>:
__utee_from_param():
/mnt/disk/raspbian-tee/optee_os/lib/libutee/tee_api.c:23
    16a8:	2300      	movs	r3, #0
/mnt/disk/raspbian-tee/optee_os/lib/libutee/tee_api.c:20
    16aa:	b5f0      	push	{r4, r5, r6, r7, lr}
    16ac:	4694      	mov	ip, r2
    16ae:	4615      	mov	r5, r2
/mnt/disk/raspbian-tee/optee_os/lib/libutee/tee_api.c:39
    16b0:	2600      	movs	r6, #0
    16b2:	2700      	movs	r7, #0
/mnt/disk/raspbian-tee/optee_os/lib/libutee/tee_api.c:35
    16b4:	461a      	mov	r2, r3
/mnt/disk/raspbian-tee/optee_os/lib/libutee/tee_api.c:23
    16b6:	e880 000a 	stmia.w	r0, {r1, r3}
/mnt/disk/raspbian-tee/optee_os/lib/libutee/tee_api.c:25
    16ba:	fa21 f403 	lsr.w	r4, r1, r3
    16be:	f004 040f 	and.w	r4, r4, #15
    16c2:	3c01      	subs	r4, #1
    16c4:	2c06      	cmp	r4, #6
    16c6:	d812      	bhi.n	16ee <__utee_from_param+0x46>
    16c8:	e8df f004 	tbb	[pc, r4]
    16cc:	11040404 	.word	0x11040404
    16d0:	0404      	.short	0x0404
    16d2:	04          	.byte	0x04
    16d3:	00          	.byte	0x00
/mnt/disk/raspbian-tee/optee_os/lib/libutee/tee_api.c:35
    16d4:	f85c 4013 	ldr.w	r4, [ip, r3, lsl #1]
    16d8:	6084      	str	r4, [r0, #8]
    16da:	60c2      	str	r2, [r0, #12]
/mnt/disk/raspbian-tee/optee_os/lib/libutee/tee_api.c:36
    16dc:	686c      	ldr	r4, [r5, #4]
    16de:	6104      	str	r4, [r0, #16]
    16e0:	6142      	str	r2, [r0, #20]
    16e2:	3304      	adds	r3, #4
    16e4:	3508      	adds	r5, #8
    16e6:	3010      	adds	r0, #16
/mnt/disk/raspbian-tee/optee_os/lib/libutee/tee_api.c:24 (discriminator 2)
    16e8:	2b10      	cmp	r3, #16
    16ea:	d1e6      	bne.n	16ba <__utee_from_param+0x12>
/mnt/disk/raspbian-tee/optee_os/lib/libutee/tee_api.c:44
    16ec:	bdf0      	pop	{r4, r5, r6, r7, pc}
/mnt/disk/raspbian-tee/optee_os/lib/libutee/tee_api.c:39
    16ee:	e9c0 6702 	strd	r6, r7, [r0, #8]
/mnt/disk/raspbian-tee/optee_os/lib/libutee/tee_api.c:40
    16f2:	e9c0 6704 	strd	r6, r7, [r0, #16]
/mnt/disk/raspbian-tee/optee_os/lib/libutee/tee_api.c:41
    16f6:	e7f4      	b.n	16e2 <__utee_from_param+0x3a>

000016f8 <__utee_to_param>:
__utee_to_param():
/mnt/disk/raspbian-tee/optee_os/lib/libutee/tee_api.c:48
    16f8:	b5f0      	push	{r4, r5, r6, r7, lr}
/mnt/disk/raspbian-tee/optee_os/lib/libutee/tee_api.c:50
    16fa:	2300      	movs	r3, #0
    16fc:	6816      	ldr	r6, [r2, #0]
    16fe:	4605      	mov	r5, r0
/mnt/disk/raspbian-tee/optee_os/lib/libutee/tee_api.c:56
    1700:	fa26 f403 	lsr.w	r4, r6, r3
/mnt/disk/raspbian-tee/optee_os/lib/libutee/tee_api.c:53
    1704:	f8d2 c008 	ldr.w	ip, [r2, #8]
/mnt/disk/raspbian-tee/optee_os/lib/libutee/tee_api.c:56
    1708:	f004 040f 	and.w	r4, r4, #15
/mnt/disk/raspbian-tee/optee_os/lib/libutee/tee_api.c:54
    170c:	6917      	ldr	r7, [r2, #16]
/mnt/disk/raspbian-tee/optee_os/lib/libutee/tee_api.c:56
    170e:	3c01      	subs	r4, #1
    1710:	2c06      	cmp	r4, #6
    1712:	d808      	bhi.n	1726 <__utee_to_param+0x2e>
    1714:	e8df f004 	tbb	[pc, r4]
    1718:	07040404 	.word	0x07040404
    171c:	0404      	.short	0x0404
    171e:	04          	.byte	0x04
    171f:	00          	.byte	0x00
/mnt/disk/raspbian-tee/optee_os/lib/libutee/tee_api.c:66
    1720:	f840 c013 	str.w	ip, [r0, r3, lsl #1]
/mnt/disk/raspbian-tee/optee_os/lib/libutee/tee_api.c:67
    1724:	606f      	str	r7, [r5, #4]
    1726:	3304      	adds	r3, #4
    1728:	3210      	adds	r2, #16
    172a:	3508      	adds	r5, #8
/mnt/disk/raspbian-tee/optee_os/lib/libutee/tee_api.c:52 (discriminator 2)
    172c:	2b10      	cmp	r3, #16
    172e:	d1e7      	bne.n	1700 <__utee_to_param+0x8>
/mnt/disk/raspbian-tee/optee_os/lib/libutee/tee_api.c:74
    1730:	b101      	cbz	r1, 1734 <__utee_to_param+0x3c>
/mnt/disk/raspbian-tee/optee_os/lib/libutee/tee_api.c:75
    1732:	600e      	str	r6, [r1, #0]
    1734:	bdf0      	pop	{r4, r5, r6, r7, pc}

00001736 <TEE_OpenTASession>:
TEE_OpenTASession():
/mnt/disk/raspbian-tee/optee_os/lib/libutee/tee_api.c:84
    1736:	b5f0      	push	{r4, r5, r6, r7, lr}
    1738:	4605      	mov	r5, r0
    173a:	460f      	mov	r7, r1
    173c:	b097      	sub	sp, #92	; 0x5c
    173e:	4611      	mov	r1, r2
/mnt/disk/raspbian-tee/optee_os/lib/libutee/tee_api.c:89
    1740:	ac04      	add	r4, sp, #16
    1742:	461a      	mov	r2, r3
    1744:	4620      	mov	r0, r4
/mnt/disk/raspbian-tee/optee_os/lib/libutee/tee_api.c:84
    1746:	461e      	mov	r6, r3
/mnt/disk/raspbian-tee/optee_os/lib/libutee/tee_api.c:89
    1748:	f7ff ffae 	bl	16a8 <__utee_from_param>
/mnt/disk/raspbian-tee/optee_os/lib/libutee/tee_api.c:90
    174c:	9b1d      	ldr	r3, [sp, #116]	; 0x74
    174e:	9300      	str	r3, [sp, #0]
    1750:	4622      	mov	r2, r4
    1752:	4639      	mov	r1, r7
    1754:	4628      	mov	r0, r5
    1756:	ab03      	add	r3, sp, #12
    1758:	f7ff ed86 	blx	1268 <utee_open_ta_session>
/mnt/disk/raspbian-tee/optee_os/lib/libutee/tee_api.c:92
    175c:	4622      	mov	r2, r4
/mnt/disk/raspbian-tee/optee_os/lib/libutee/tee_api.c:90
    175e:	4605      	mov	r5, r0
/mnt/disk/raspbian-tee/optee_os/lib/libutee/tee_api.c:92
    1760:	2100      	movs	r1, #0
    1762:	4630      	mov	r0, r6
    1764:	f7ff ffc8 	bl	16f8 <__utee_to_param>
/mnt/disk/raspbian-tee/optee_os/lib/libutee/tee_api.c:98
    1768:	b10d      	cbz	r5, 176e <TEE_OpenTASession+0x38>
/mnt/disk/raspbian-tee/optee_os/lib/libutee/tee_api.c:99
    176a:	2300      	movs	r3, #0
    176c:	9303      	str	r3, [sp, #12]
/mnt/disk/raspbian-tee/optee_os/lib/libutee/tee_api.c:101
    176e:	9b1c      	ldr	r3, [sp, #112]	; 0x70
/mnt/disk/raspbian-tee/optee_os/lib/libutee/tee_api.c:103
    1770:	4628      	mov	r0, r5
/mnt/disk/raspbian-tee/optee_os/lib/libutee/tee_api.c:101
    1772:	9a03      	ldr	r2, [sp, #12]
    1774:	601a      	str	r2, [r3, #0]
/mnt/disk/raspbian-tee/optee_os/lib/libutee/tee_api.c:103
    1776:	b017      	add	sp, #92	; 0x5c
    1778:	bdf0      	pop	{r4, r5, r6, r7, pc}

0000177a <TEE_CloseTASession>:
TEE_CloseTASession():
/mnt/disk/raspbian-tee/optee_os/lib/libutee/tee_api.c:106
    177a:	b508      	push	{r3, lr}
/mnt/disk/raspbian-tee/optee_os/lib/libutee/tee_api.c:107
    177c:	b130      	cbz	r0, 178c <TEE_CloseTASession+0x12>
/mnt/disk/raspbian-tee/optee_os/lib/libutee/tee_api.c:108
    177e:	f7ff ed80 	blx	1280 <utee_close_ta_session>
/mnt/disk/raspbian-tee/optee_os/lib/libutee/tee_api.c:110
    1782:	b118      	cbz	r0, 178c <TEE_CloseTASession+0x12>
/mnt/disk/raspbian-tee/optee_os/lib/libutee/tee_api.c:113
    1784:	e8bd 4008 	ldmia.w	sp!, {r3, lr}
/mnt/disk/raspbian-tee/optee_os/lib/libutee/tee_api.c:111
    1788:	f004 bc9c 	b.w	60c4 <TEE_Panic>
    178c:	bd08      	pop	{r3, pc}

0000178e <TEE_InvokeTACommand>:
TEE_InvokeTACommand():
/mnt/disk/raspbian-tee/optee_os/lib/libutee/tee_api.c:120
    178e:	e92d 41f0 	stmdb	sp!, {r4, r5, r6, r7, r8, lr}
    1792:	4604      	mov	r4, r0
    1794:	460f      	mov	r7, r1
    1796:	b096      	sub	sp, #88	; 0x58
/mnt/disk/raspbian-tee/optee_os/lib/libutee/tee_api.c:125
    1798:	4619      	mov	r1, r3
    179a:	ad04      	add	r5, sp, #16
/mnt/disk/raspbian-tee/optee_os/lib/libutee/tee_api.c:120
    179c:	4690      	mov	r8, r2
/mnt/disk/raspbian-tee/optee_os/lib/libutee/tee_api.c:125
    179e:	4628      	mov	r0, r5
/mnt/disk/raspbian-tee/optee_os/lib/libutee/tee_api.c:120
    17a0:	9e1d      	ldr	r6, [sp, #116]	; 0x74
/mnt/disk/raspbian-tee/optee_os/lib/libutee/tee_api.c:125
    17a2:	9a1c      	ldr	r2, [sp, #112]	; 0x70
    17a4:	f7ff ff80 	bl	16a8 <__utee_from_param>
/mnt/disk/raspbian-tee/optee_os/lib/libutee/tee_api.c:126
    17a8:	ab03      	add	r3, sp, #12
    17aa:	4642      	mov	r2, r8
    17ac:	9300      	str	r3, [sp, #0]
    17ae:	4639      	mov	r1, r7
    17b0:	462b      	mov	r3, r5
    17b2:	4620      	mov	r0, r4
    17b4:	f7ff ed6e 	blx	1294 <utee_invoke_ta_command>
/mnt/disk/raspbian-tee/optee_os/lib/libutee/tee_api.c:129
    17b8:	462a      	mov	r2, r5
/mnt/disk/raspbian-tee/optee_os/lib/libutee/tee_api.c:126
    17ba:	4604      	mov	r4, r0
/mnt/disk/raspbian-tee/optee_os/lib/libutee/tee_api.c:129
    17bc:	2100      	movs	r1, #0
    17be:	981c      	ldr	r0, [sp, #112]	; 0x70
    17c0:	f7ff ff9a 	bl	16f8 <__utee_to_param>
    17c4:	9b03      	ldr	r3, [sp, #12]
/mnt/disk/raspbian-tee/optee_os/lib/libutee/tee_api.c:131
    17c6:	b106      	cbz	r6, 17ca <TEE_InvokeTACommand+0x3c>
/mnt/disk/raspbian-tee/optee_os/lib/libutee/tee_api.c:132
    17c8:	6033      	str	r3, [r6, #0]
/mnt/disk/raspbian-tee/optee_os/lib/libutee/tee_api.c:134
    17ca:	2b04      	cmp	r3, #4
    17cc:	d009      	beq.n	17e2 <TEE_InvokeTACommand+0x54>
/mnt/disk/raspbian-tee/optee_os/lib/libutee/tee_api.c:137
    17ce:	b144      	cbz	r4, 17e2 <TEE_InvokeTACommand+0x54>
/mnt/disk/raspbian-tee/optee_os/lib/libutee/tee_api.c:137 (discriminator 1)
    17d0:	4b06      	ldr	r3, [pc, #24]	; (17ec <TEE_InvokeTACommand+0x5e>)
    17d2:	429c      	cmp	r4, r3
    17d4:	d005      	beq.n	17e2 <TEE_InvokeTACommand+0x54>
/mnt/disk/raspbian-tee/optee_os/lib/libutee/tee_api.c:138
    17d6:	4b06      	ldr	r3, [pc, #24]	; (17f0 <TEE_InvokeTACommand+0x62>)
    17d8:	429c      	cmp	r4, r3
    17da:	d002      	beq.n	17e2 <TEE_InvokeTACommand+0x54>
/mnt/disk/raspbian-tee/optee_os/lib/libutee/tee_api.c:140
    17dc:	4620      	mov	r0, r4
    17de:	f004 fc71 	bl	60c4 <TEE_Panic>
/mnt/disk/raspbian-tee/optee_os/lib/libutee/tee_api.c:143
    17e2:	4620      	mov	r0, r4
    17e4:	b016      	add	sp, #88	; 0x58
    17e6:	e8bd 81f0 	ldmia.w	sp!, {r4, r5, r6, r7, r8, pc}
    17ea:	bf00      	nop
    17ec:	ffff000c 	.word	0xffff000c
    17f0:	ffff3024 	.word	0xffff3024

000017f4 <TEE_GetCancellationFlag>:
TEE_GetCancellationFlag():
/mnt/disk/raspbian-tee/optee_os/lib/libutee/tee_api.c:148
    17f4:	b507      	push	{r0, r1, r2, lr}
/mnt/disk/raspbian-tee/optee_os/lib/libutee/tee_api.c:150
    17f6:	a801      	add	r0, sp, #4
    17f8:	f7ff ed58 	blx	12ac <utee_get_cancellation_flag>
/mnt/disk/raspbian-tee/optee_os/lib/libutee/tee_api.c:152
    17fc:	b108      	cbz	r0, 1802 <TEE_GetCancellationFlag+0xe>
/mnt/disk/raspbian-tee/optee_os/lib/libutee/tee_api.c:153
    17fe:	2300      	movs	r3, #0
    1800:	9301      	str	r3, [sp, #4]
/mnt/disk/raspbian-tee/optee_os/lib/libutee/tee_api.c:155
    1802:	9801      	ldr	r0, [sp, #4]
    1804:	3000      	adds	r0, #0
    1806:	bf18      	it	ne
    1808:	2001      	movne	r0, #1
    180a:	b003      	add	sp, #12
    180c:	f85d fb04 	ldr.w	pc, [sp], #4

00001810 <TEE_UnmaskCancellation>:
TEE_UnmaskCancellation():
/mnt/disk/raspbian-tee/optee_os/lib/libutee/tee_api.c:158
    1810:	b507      	push	{r0, r1, r2, lr}
/mnt/disk/raspbian-tee/optee_os/lib/libutee/tee_api.c:160
    1812:	a801      	add	r0, sp, #4
    1814:	f7ff ed5e 	blx	12d4 <utee_unmask_cancellation>
/mnt/disk/raspbian-tee/optee_os/lib/libutee/tee_api.c:162
    1818:	b108      	cbz	r0, 181e <TEE_UnmaskCancellation+0xe>
/mnt/disk/raspbian-tee/optee_os/lib/libutee/tee_api.c:163
    181a:	f004 fc53 	bl	60c4 <TEE_Panic>
/mnt/disk/raspbian-tee/optee_os/lib/libutee/tee_api.c:165
    181e:	9801      	ldr	r0, [sp, #4]
    1820:	3000      	adds	r0, #0
    1822:	bf18      	it	ne
    1824:	2001      	movne	r0, #1
    1826:	b003      	add	sp, #12
    1828:	f85d fb04 	ldr.w	pc, [sp], #4

0000182c <TEE_MaskCancellation>:
TEE_MaskCancellation():
/mnt/disk/raspbian-tee/optee_os/lib/libutee/tee_api.c:168
    182c:	b507      	push	{r0, r1, r2, lr}
/mnt/disk/raspbian-tee/optee_os/lib/libutee/tee_api.c:170
    182e:	a801      	add	r0, sp, #4
    1830:	f7ff ed5a 	blx	12e8 <utee_mask_cancellation>
/mnt/disk/raspbian-tee/optee_os/lib/libutee/tee_api.c:172
    1834:	b108      	cbz	r0, 183a <TEE_MaskCancellation+0xe>
/mnt/disk/raspbian-tee/optee_os/lib/libutee/tee_api.c:173
    1836:	f004 fc45 	bl	60c4 <TEE_Panic>
/mnt/disk/raspbian-tee/optee_os/lib/libutee/tee_api.c:175
    183a:	9801      	ldr	r0, [sp, #4]
    183c:	3000      	adds	r0, #0
    183e:	bf18      	it	ne
    1840:	2001      	movne	r0, #1
    1842:	b003      	add	sp, #12
    1844:	f85d fb04 	ldr.w	pc, [sp], #4

00001848 <TEE_CheckMemoryAccessRights>:
TEE_CheckMemoryAccessRights():
/mnt/disk/raspbian-tee/optee_os/lib/libutee/tee_api.c:184
    1848:	b10a      	cbz	r2, 184e <TEE_CheckMemoryAccessRights+0x6>
/mnt/disk/raspbian-tee/optee_os/lib/libutee/tee_api.c:188
    184a:	f004 bc71 	b.w	6130 <__utee_check_access_rights_from_thumb>
/mnt/disk/raspbian-tee/optee_os/lib/libutee/tee_api.c:200
    184e:	4610      	mov	r0, r2
    1850:	4770      	bx	lr

00001852 <TEE_SetInstanceData>:
TEE_SetInstanceData():
/mnt/disk/raspbian-tee/optee_os/lib/libutee/tee_api.c:204
    1852:	4b02      	ldr	r3, [pc, #8]	; (185c <TEE_SetInstanceData+0xa>)
    1854:	447b      	add	r3, pc
    1856:	6018      	str	r0, [r3, #0]
    1858:	4770      	bx	lr
    185a:	bf00      	nop
    185c:	00006c80 	.word	0x00006c80

00001860 <TEE_GetInstanceData>:
TEE_GetInstanceData():
/mnt/disk/raspbian-tee/optee_os/lib/libutee/tee_api.c:210
    1860:	4b01      	ldr	r3, [pc, #4]	; (1868 <TEE_GetInstanceData+0x8>)
    1862:	447b      	add	r3, pc
    1864:	6818      	ldr	r0, [r3, #0]
    1866:	4770      	bx	lr
    1868:	00006c72 	.word	0x00006c72

0000186c <TEE_MemMove>:
TEE_MemMove():
/mnt/disk/raspbian-tee/optee_os/lib/libutee/tee_api.c:214
    186c:	f004 bc46 	b.w	60fc <memmove>

00001870 <TEE_MemCompare>:
TEE_MemCompare():
/mnt/disk/raspbian-tee/optee_os/lib/libutee/tee_api.c:219
    1870:	f004 bc2a 	b.w	60c8 <memcmp>

00001874 <TEE_MemFill>:
TEE_MemFill():
/mnt/disk/raspbian-tee/optee_os/lib/libutee/tee_api.c:224
    1874:	f004 bb48 	b.w	5f08 <memset>

00001878 <TEE_GetSystemTime>:
TEE_GetSystemTime():
/mnt/disk/raspbian-tee/optee_os/lib/libutee/tee_api.c:230
    1878:	b508      	push	{r3, lr}
/mnt/disk/raspbian-tee/optee_os/lib/libutee/tee_api.c:231
    187a:	4601      	mov	r1, r0
    187c:	2000      	movs	r0, #0
    187e:	f7ff ed48 	blx	1310 <utee_get_time>
/mnt/disk/raspbian-tee/optee_os/lib/libutee/tee_api.c:233
    1882:	b118      	cbz	r0, 188c <TEE_GetSystemTime+0x14>
/mnt/disk/raspbian-tee/optee_os/lib/libutee/tee_api.c:235
    1884:	e8bd 4008 	ldmia.w	sp!, {r3, lr}
/mnt/disk/raspbian-tee/optee_os/lib/libutee/tee_api.c:234
    1888:	f004 bc1c 	b.w	60c4 <TEE_Panic>
    188c:	bd08      	pop	{r3, pc}

0000188e <TEE_Wait>:
TEE_Wait():
/mnt/disk/raspbian-tee/optee_os/lib/libutee/tee_api.c:238
    188e:	b510      	push	{r4, lr}
/mnt/disk/raspbian-tee/optee_os/lib/libutee/tee_api.c:239
    1890:	f7ff ed34 	blx	12fc <utee_wait>
/mnt/disk/raspbian-tee/optee_os/lib/libutee/tee_api.c:241
    1894:	4604      	mov	r4, r0
    1896:	b120      	cbz	r0, 18a2 <TEE_Wait+0x14>
/mnt/disk/raspbian-tee/optee_os/lib/libutee/tee_api.c:241 (discriminator 1)
    1898:	4b03      	ldr	r3, [pc, #12]	; (18a8 <TEE_Wait+0x1a>)
    189a:	4298      	cmp	r0, r3
    189c:	d001      	beq.n	18a2 <TEE_Wait+0x14>
/mnt/disk/raspbian-tee/optee_os/lib/libutee/tee_api.c:242
    189e:	f004 fc11 	bl	60c4 <TEE_Panic>
/mnt/disk/raspbian-tee/optee_os/lib/libutee/tee_api.c:245
    18a2:	4620      	mov	r0, r4
    18a4:	bd10      	pop	{r4, pc}
    18a6:	bf00      	nop
    18a8:	ffff0002 	.word	0xffff0002

000018ac <TEE_GetTAPersistentTime>:
TEE_GetTAPersistentTime():
/mnt/disk/raspbian-tee/optee_os/lib/libutee/tee_api.c:248
    18ac:	b538      	push	{r3, r4, r5, lr}
/mnt/disk/raspbian-tee/optee_os/lib/libutee/tee_api.c:251
    18ae:	4601      	mov	r1, r0
/mnt/disk/raspbian-tee/optee_os/lib/libutee/tee_api.c:248
    18b0:	4605      	mov	r5, r0
/mnt/disk/raspbian-tee/optee_os/lib/libutee/tee_api.c:251
    18b2:	2001      	movs	r0, #1
    18b4:	f7ff ed2c 	blx	1310 <utee_get_time>
/mnt/disk/raspbian-tee/optee_os/lib/libutee/tee_api.c:253
    18b8:	4604      	mov	r4, r0
    18ba:	b170      	cbz	r0, 18da <TEE_GetTAPersistentTime+0x2e>
/mnt/disk/raspbian-tee/optee_os/lib/libutee/tee_api.c:253 (discriminator 1)
    18bc:	4b08      	ldr	r3, [pc, #32]	; (18e0 <TEE_GetTAPersistentTime+0x34>)
    18be:	4298      	cmp	r0, r3
    18c0:	d00b      	beq.n	18da <TEE_GetTAPersistentTime+0x2e>
/mnt/disk/raspbian-tee/optee_os/lib/libutee/tee_api.c:254
    18c2:	2300      	movs	r3, #0
    18c4:	602b      	str	r3, [r5, #0]
/mnt/disk/raspbian-tee/optee_os/lib/libutee/tee_api.c:255
    18c6:	606b      	str	r3, [r5, #4]
/mnt/disk/raspbian-tee/optee_os/lib/libutee/tee_api.c:258
    18c8:	f500 4330 	add.w	r3, r0, #45056	; 0xb000
    18cc:	2b01      	cmp	r3, #1
    18ce:	d904      	bls.n	18da <TEE_GetTAPersistentTime+0x2e>
/mnt/disk/raspbian-tee/optee_os/lib/libutee/tee_api.c:261
    18d0:	4b04      	ldr	r3, [pc, #16]	; (18e4 <TEE_GetTAPersistentTime+0x38>)
    18d2:	4298      	cmp	r0, r3
    18d4:	d001      	beq.n	18da <TEE_GetTAPersistentTime+0x2e>
/mnt/disk/raspbian-tee/optee_os/lib/libutee/tee_api.c:263
    18d6:	f004 fbf5 	bl	60c4 <TEE_Panic>
/mnt/disk/raspbian-tee/optee_os/lib/libutee/tee_api.c:266
    18da:	4620      	mov	r0, r4
    18dc:	bd38      	pop	{r3, r4, r5, pc}
    18de:	bf00      	nop
    18e0:	ffff300f 	.word	0xffff300f
    18e4:	ffff000c 	.word	0xffff000c

000018e8 <TEE_SetTAPersistentTime>:
TEE_SetTAPersistentTime():
/mnt/disk/raspbian-tee/optee_os/lib/libutee/tee_api.c:269
    18e8:	b510      	push	{r4, lr}
/mnt/disk/raspbian-tee/optee_os/lib/libutee/tee_api.c:272
    18ea:	f7ff ed1c 	blx	1324 <utee_set_ta_time>
/mnt/disk/raspbian-tee/optee_os/lib/libutee/tee_api.c:274
    18ee:	4604      	mov	r4, r0
    18f0:	b138      	cbz	r0, 1902 <TEE_SetTAPersistentTime+0x1a>
/mnt/disk/raspbian-tee/optee_os/lib/libutee/tee_api.c:274 (discriminator 1)
    18f2:	4b05      	ldr	r3, [pc, #20]	; (1908 <TEE_SetTAPersistentTime+0x20>)
    18f4:	4298      	cmp	r0, r3
    18f6:	d004      	beq.n	1902 <TEE_SetTAPersistentTime+0x1a>
/mnt/disk/raspbian-tee/optee_os/lib/libutee/tee_api.c:275
    18f8:	4b04      	ldr	r3, [pc, #16]	; (190c <TEE_SetTAPersistentTime+0x24>)
    18fa:	4298      	cmp	r0, r3
    18fc:	d001      	beq.n	1902 <TEE_SetTAPersistentTime+0x1a>
/mnt/disk/raspbian-tee/optee_os/lib/libutee/tee_api.c:277
    18fe:	f004 fbe1 	bl	60c4 <TEE_Panic>
/mnt/disk/raspbian-tee/optee_os/lib/libutee/tee_api.c:280
    1902:	4620      	mov	r0, r4
    1904:	bd10      	pop	{r4, pc}
    1906:	bf00      	nop
    1908:	ffff000c 	.word	0xffff000c
    190c:	ffff3041 	.word	0xffff3041

00001910 <TEE_GetREETime>:
TEE_GetREETime():
/mnt/disk/raspbian-tee/optee_os/lib/libutee/tee_api.c:283
    1910:	b508      	push	{r3, lr}
/mnt/disk/raspbian-tee/optee_os/lib/libutee/tee_api.c:284
    1912:	4601      	mov	r1, r0
    1914:	2002      	movs	r0, #2
    1916:	f7ff ecfc 	blx	1310 <utee_get_time>
/mnt/disk/raspbian-tee/optee_os/lib/libutee/tee_api.c:286
    191a:	b118      	cbz	r0, 1924 <TEE_GetREETime+0x14>
/mnt/disk/raspbian-tee/optee_os/lib/libutee/tee_api.c:288
    191c:	e8bd 4008 	ldmia.w	sp!, {r3, lr}
/mnt/disk/raspbian-tee/optee_os/lib/libutee/tee_api.c:287
    1920:	f004 bbd0 	b.w	60c4 <TEE_Panic>
    1924:	bd08      	pop	{r3, pc}

00001926 <TEE_Malloc>:
TEE_Malloc():
/mnt/disk/raspbian-tee/optee_os/lib/libutee/tee_api.c:291
    1926:	b507      	push	{r0, r1, r2, lr}
/mnt/disk/raspbian-tee/optee_os/lib/libutee/tee_api.c:292
    1928:	b931      	cbnz	r1, 1938 <TEE_Malloc+0x12>
/mnt/disk/raspbian-tee/optee_os/lib/libutee/tee_api.c:293
    192a:	4601      	mov	r1, r0
    192c:	2001      	movs	r0, #1
/mnt/disk/raspbian-tee/optee_os/lib/libutee/tee_api.c:300
    192e:	b003      	add	sp, #12
    1930:	f85d eb04 	ldr.w	lr, [sp], #4
/mnt/disk/raspbian-tee/optee_os/lib/libutee/tee_api.c:293
    1934:	f003 bf8a 	b.w	584c <calloc>
/mnt/disk/raspbian-tee/optee_os/lib/libutee/tee_api.c:294
    1938:	f1b1 4f00 	cmp.w	r1, #2147483648	; 0x80000000
    193c:	d104      	bne.n	1948 <TEE_Malloc+0x22>
/mnt/disk/raspbian-tee/optee_os/lib/libutee/tee_api.c:300
    193e:	b003      	add	sp, #12
    1940:	f85d eb04 	ldr.w	lr, [sp], #4
/mnt/disk/raspbian-tee/optee_os/lib/libutee/tee_api.c:295
    1944:	f003 bf78 	b.w	5838 <malloc>
/mnt/disk/raspbian-tee/optee_os/lib/libutee/tee_api.c:297
    1948:	4b07      	ldr	r3, [pc, #28]	; (1968 <TEE_Malloc+0x42>)
    194a:	4808      	ldr	r0, [pc, #32]	; (196c <TEE_Malloc+0x46>)
    194c:	447b      	add	r3, pc
    194e:	9300      	str	r3, [sp, #0]
    1950:	2301      	movs	r3, #1
    1952:	9101      	str	r1, [sp, #4]
    1954:	461a      	mov	r2, r3
    1956:	f240 1129 	movw	r1, #297	; 0x129
    195a:	4478      	add	r0, pc
    195c:	f7ff f9b8 	bl	cd0 <trace_printf>
/mnt/disk/raspbian-tee/optee_os/lib/libutee/tee_api.c:300
    1960:	2000      	movs	r0, #0
    1962:	b003      	add	sp, #12
    1964:	f85d fb04 	ldr.w	pc, [sp], #4
    1968:	00004e3b 	.word	0x00004e3b
    196c:	00004e22 	.word	0x00004e22

00001970 <TEE_Realloc>:
TEE_Realloc():
/mnt/disk/raspbian-tee/optee_os/lib/libutee/tee_api.c:304
    1970:	f003 bf90 	b.w	5894 <realloc>

00001974 <TEE_Free>:
TEE_Free():
/mnt/disk/raspbian-tee/optee_os/lib/libutee/tee_api.c:309
    1974:	f003 bf61 	b.w	583a <free>

00001978 <TEE_CacheClean>:
TEE_CacheClean():
/mnt/disk/raspbian-tee/optee_os/lib/libutee/tee_api.c:315
    1978:	2200      	movs	r2, #0
    197a:	f004 bbe9 	b.w	6150 <__utee_cache_operation_from_thumb>

0000197e <TEE_CacheFlush>:
TEE_CacheFlush():
/mnt/disk/raspbian-tee/optee_os/lib/libutee/tee_api.c:319
    197e:	2201      	movs	r2, #1
    1980:	f004 bbe6 	b.w	6150 <__utee_cache_operation_from_thumb>

00001984 <TEE_CacheInvalidate>:
TEE_CacheInvalidate():
/mnt/disk/raspbian-tee/optee_os/lib/libutee/tee_api.c:324
    1984:	2202      	movs	r2, #2
    1986:	f004 bbe3 	b.w	6150 <__utee_cache_operation_from_thumb>
    198a:	bf00      	nop

0000198c <mpi_panic>:
mpi_panic():
/mnt/disk/raspbian-tee/optee_os/lib/libutee/tee_api_arith_mpi.c:29
    198c:	b508      	push	{r3, lr}
/mnt/disk/raspbian-tee/optee_os/lib/libutee/tee_api_arith_mpi.c:30
    198e:	4613      	mov	r3, r2
    1990:	460a      	mov	r2, r1
    1992:	4601      	mov	r1, r0
    1994:	4804      	ldr	r0, [pc, #16]	; (19a8 <mpi_panic+0x1c>)
    1996:	4478      	add	r0, pc
    1998:	f7ff fadd 	bl	f56 <printf>
/mnt/disk/raspbian-tee/optee_os/lib/libutee/tee_api_arith_mpi.c:31
    199c:	4801      	ldr	r0, [pc, #4]	; (19a4 <mpi_panic+0x18>)
    199e:	f004 fb91 	bl	60c4 <TEE_Panic>
    19a2:	e7fe      	b.n	19a2 <mpi_panic+0x16>
    19a4:	00b16127 	.word	0x00b16127
    19a8:	00004f65 	.word	0x00004f65

000019ac <get_const_mpi>:
get_const_mpi():
/mnt/disk/raspbian-tee/optee_os/lib/libutee/tee_api_arith_mpi.c:110
    19ac:	b530      	push	{r4, r5, lr}
init_static_mpi():
/mnt/disk/raspbian-tee/optee_os/lib/libutee/tee_api_arith_mpi.c:65
    19ae:	3108      	adds	r1, #8
    19b0:	f831 2c02 	ldrh.w	r2, [r1, #-2]
get_const_mpi():
/mnt/disk/raspbian-tee/optee_os/lib/libutee/tee_api_arith_mpi.c:110
    19b4:	b087      	sub	sp, #28
init_static_mpi():
/mnt/disk/raspbian-tee/optee_os/lib/libutee/tee_api_arith_mpi.c:65
    19b6:	f831 3c04 	ldrh.w	r3, [r1, #-4]
    19ba:	ac03      	add	r4, sp, #12
get_const_mpi():
/mnt/disk/raspbian-tee/optee_os/lib/libutee/tee_api_arith_mpi.c:110
    19bc:	4605      	mov	r5, r0
init_static_mpi():
/mnt/disk/raspbian-tee/optee_os/lib/libutee/tee_api_arith_mpi.c:65
    19be:	4620      	mov	r0, r4
    19c0:	9200      	str	r2, [sp, #0]
    19c2:	f851 2c08 	ldr.w	r2, [r1, #-8]
    19c6:	f001 facf 	bl	2f68 <mbedtls_mpi_init_static>
get_mpi():
/mnt/disk/raspbian-tee/optee_os/lib/libutee/tee_api_arith_mpi.c:99
    19ca:	4628      	mov	r0, r5
    19cc:	f001 fab9 	bl	2f42 <mbedtls_mpi_init_mempool>
get_const_mpi():
/mnt/disk/raspbian-tee/optee_os/lib/libutee/tee_api_arith_mpi.c:115
    19d0:	4621      	mov	r1, r4
    19d2:	4628      	mov	r0, r5
    19d4:	f001 fbb2 	bl	313c <mbedtls_mpi_copy>
    19d8:	4602      	mov	r2, r0
    19da:	b120      	cbz	r0, 19e6 <get_const_mpi+0x3a>
/mnt/disk/raspbian-tee/optee_os/lib/libutee/tee_api_arith_mpi.c:115 (discriminator 1)
    19dc:	4803      	ldr	r0, [pc, #12]	; (19ec <get_const_mpi+0x40>)
    19de:	2173      	movs	r1, #115	; 0x73
    19e0:	4478      	add	r0, pc
    19e2:	f7ff ffd3 	bl	198c <mpi_panic>
/mnt/disk/raspbian-tee/optee_os/lib/libutee/tee_api_arith_mpi.c:116
    19e6:	b007      	add	sp, #28
    19e8:	bd30      	pop	{r4, r5, pc}
    19ea:	bf00      	nop
    19ec:	00004db8 	.word	0x00004db8

000019f0 <mpi_is_odd>:
mpi_is_odd():
/mnt/disk/raspbian-tee/optee_os/lib/libutee/tee_api_arith_mpi.c:599
    19f0:	b508      	push	{r3, lr}
/mnt/disk/raspbian-tee/optee_os/lib/libutee/tee_api_arith_mpi.c:600
    19f2:	2100      	movs	r1, #0
    19f4:	f001 fc79 	bl	32ea <mbedtls_mpi_get_bit>
/mnt/disk/raspbian-tee/optee_os/lib/libutee/tee_api_arith_mpi.c:601
    19f8:	3000      	adds	r0, #0
    19fa:	bf18      	it	ne
    19fc:	2001      	movne	r0, #1
    19fe:	bd08      	pop	{r3, pc}

00001a00 <rng_read>:
rng_read():
/mnt/disk/raspbian-tee/optee_os/lib/libutee/tee_api_arith_mpi.c:763
    1a00:	b508      	push	{r3, lr}
    1a02:	4608      	mov	r0, r1
/mnt/disk/raspbian-tee/optee_os/lib/libutee/tee_api_arith_mpi.c:764
    1a04:	4611      	mov	r1, r2
    1a06:	f7ff ed54 	blx	14b0 <utee_cryp_random_number_generate>
    1a0a:	2800      	cmp	r0, #0
/mnt/disk/raspbian-tee/optee_os/lib/libutee/tee_api_arith_mpi.c:767
    1a0c:	f06f 0001 	mvn.w	r0, #1
    1a10:	bf08      	it	eq
    1a12:	2000      	moveq	r0, #0
    1a14:	bd08      	pop	{r3, pc}

00001a16 <put_mpi>:
put_mpi():
/mnt/disk/raspbian-tee/optee_os/lib/libutee/tee_api_arith_mpi.c:128
    1a16:	7842      	ldrb	r2, [r0, #1]
    1a18:	2a02      	cmp	r2, #2
    1a1a:	d108      	bne.n	1a2e <put_mpi+0x18>
/mnt/disk/raspbian-tee/optee_os/lib/libutee/tee_api_arith_mpi.c:129
    1a1c:	6882      	ldr	r2, [r0, #8]
/mnt/disk/raspbian-tee/optee_os/lib/libutee/tee_api_arith_mpi.c:131
    1a1e:	f990 1000 	ldrsb.w	r1, [r0]
/mnt/disk/raspbian-tee/optee_os/lib/libutee/tee_api_arith_mpi.c:132
    1a22:	8883      	ldrh	r3, [r0, #4]
/mnt/disk/raspbian-tee/optee_os/lib/libutee/tee_api_arith_mpi.c:131
    1a24:	f842 1c08 	str.w	r1, [r2, #-8]
/mnt/disk/raspbian-tee/optee_os/lib/libutee/tee_api_arith_mpi.c:132
    1a28:	f822 3c02 	strh.w	r3, [r2, #-2]
    1a2c:	4770      	bx	lr
/mnt/disk/raspbian-tee/optee_os/lib/libutee/tee_api_arith_mpi.c:134
    1a2e:	f001 baa4 	b.w	2f7a <mbedtls_mpi_free>

00001a32 <mpi_egcd>:
mpi_egcd():
/mnt/disk/raspbian-tee/optee_os/lib/libutee/tee_api_arith_mpi.c:614
    1a32:	e92d 4ff0 	stmdb	sp!, {r4, r5, r6, r7, r8, r9, sl, fp, lr}
    1a36:	4681      	mov	r9, r0
    1a38:	b09b      	sub	sp, #108	; 0x6c
get_mpi():
/mnt/disk/raspbian-tee/optee_os/lib/libutee/tee_api_arith_mpi.c:99
    1a3a:	f10d 0814 	add.w	r8, sp, #20
    1a3e:	af08      	add	r7, sp, #32
    1a40:	4640      	mov	r0, r8
    1a42:	ad0b      	add	r5, sp, #44	; 0x2c
mpi_egcd():
/mnt/disk/raspbian-tee/optee_os/lib/libutee/tee_api_arith_mpi.c:614
    1a44:	9102      	str	r1, [sp, #8]
get_mpi():
/mnt/disk/raspbian-tee/optee_os/lib/libutee/tee_api_arith_mpi.c:99
    1a46:	ac0e      	add	r4, sp, #56	; 0x38
mpi_egcd():
/mnt/disk/raspbian-tee/optee_os/lib/libutee/tee_api_arith_mpi.c:614
    1a48:	9203      	str	r2, [sp, #12]
get_mpi():
/mnt/disk/raspbian-tee/optee_os/lib/libutee/tee_api_arith_mpi.c:99
    1a4a:	f10d 0a44 	add.w	sl, sp, #68	; 0x44
mpi_egcd():
/mnt/disk/raspbian-tee/optee_os/lib/libutee/tee_api_arith_mpi.c:614
    1a4e:	9301      	str	r3, [sp, #4]
get_mpi():
/mnt/disk/raspbian-tee/optee_os/lib/libutee/tee_api_arith_mpi.c:99
    1a50:	f001 fa77 	bl	2f42 <mbedtls_mpi_init_mempool>
    1a54:	4638      	mov	r0, r7
    1a56:	f10d 0b50 	add.w	fp, sp, #80	; 0x50
    1a5a:	f001 fa72 	bl	2f42 <mbedtls_mpi_init_mempool>
    1a5e:	4628      	mov	r0, r5
    1a60:	f001 fa6f 	bl	2f42 <mbedtls_mpi_init_mempool>
    1a64:	4620      	mov	r0, r4
    1a66:	f001 fa6c 	bl	2f42 <mbedtls_mpi_init_mempool>
    1a6a:	4650      	mov	r0, sl
    1a6c:	f001 fa69 	bl	2f42 <mbedtls_mpi_init_mempool>
    1a70:	ae17      	add	r6, sp, #92	; 0x5c
    1a72:	4658      	mov	r0, fp
    1a74:	f001 fa65 	bl	2f42 <mbedtls_mpi_init_mempool>
    1a78:	4630      	mov	r0, r6
    1a7a:	f001 fa62 	bl	2f42 <mbedtls_mpi_init_mempool>
mpi_egcd():
/mnt/disk/raspbian-tee/optee_os/lib/libutee/tee_api_arith_mpi.c:633
    1a7e:	2100      	movs	r1, #0
    1a80:	9824      	ldr	r0, [sp, #144]	; 0x90
    1a82:	f001 fe08 	bl	3696 <mbedtls_mpi_cmp_int>
    1a86:	bb20      	cbnz	r0, 1ad2 <mpi_egcd+0xa0>
/mnt/disk/raspbian-tee/optee_os/lib/libutee/tee_api_arith_mpi.c:634
    1a88:	2101      	movs	r1, #1
    1a8a:	9802      	ldr	r0, [sp, #8]
    1a8c:	f001 fc11 	bl	32b2 <mbedtls_mpi_lset>
    1a90:	4602      	mov	r2, r0
    1a92:	b130      	cbz	r0, 1aa2 <mpi_egcd+0x70>
/mnt/disk/raspbian-tee/optee_os/lib/libutee/tee_api_arith_mpi.c:634 (discriminator 1)
    1a94:	48dd      	ldr	r0, [pc, #884]	; (1e0c <mpi_egcd+0x3da>)
    1a96:	f240 217a 	movw	r1, #634	; 0x27a
    1a9a:	4478      	add	r0, pc
/mnt/disk/raspbian-tee/optee_os/lib/libutee/tee_api_arith_mpi.c:635 (discriminator 1)
    1a9c:	300e      	adds	r0, #14
    1a9e:	f7ff ff75 	bl	198c <mpi_panic>
/mnt/disk/raspbian-tee/optee_os/lib/libutee/tee_api_arith_mpi.c:635
    1aa2:	4601      	mov	r1, r0
    1aa4:	9803      	ldr	r0, [sp, #12]
    1aa6:	f001 fc04 	bl	32b2 <mbedtls_mpi_lset>
    1aaa:	4602      	mov	r2, r0
    1aac:	b120      	cbz	r0, 1ab8 <mpi_egcd+0x86>
/mnt/disk/raspbian-tee/optee_os/lib/libutee/tee_api_arith_mpi.c:635 (discriminator 1)
    1aae:	48d8      	ldr	r0, [pc, #864]	; (1e10 <mpi_egcd+0x3de>)
    1ab0:	f240 217b 	movw	r1, #635	; 0x27b
    1ab4:	4478      	add	r0, pc
    1ab6:	e7f1      	b.n	1a9c <mpi_egcd+0x6a>
/mnt/disk/raspbian-tee/optee_os/lib/libutee/tee_api_arith_mpi.c:636
    1ab8:	9901      	ldr	r1, [sp, #4]
    1aba:	4648      	mov	r0, r9
    1abc:	f001 fb3e 	bl	313c <mbedtls_mpi_copy>
    1ac0:	4602      	mov	r2, r0
    1ac2:	2800      	cmp	r0, #0
    1ac4:	f000 818a 	beq.w	1ddc <mpi_egcd+0x3aa>
/mnt/disk/raspbian-tee/optee_os/lib/libutee/tee_api_arith_mpi.c:636 (discriminator 1)
    1ac8:	48d2      	ldr	r0, [pc, #840]	; (1e14 <mpi_egcd+0x3e2>)
    1aca:	f44f 711f 	mov.w	r1, #636	; 0x27c
    1ace:	4478      	add	r0, pc
    1ad0:	e7e4      	b.n	1a9c <mpi_egcd+0x6a>
/mnt/disk/raspbian-tee/optee_os/lib/libutee/tee_api_arith_mpi.c:640
    1ad2:	9901      	ldr	r1, [sp, #4]
    1ad4:	4650      	mov	r0, sl
    1ad6:	f001 fb31 	bl	313c <mbedtls_mpi_copy>
    1ada:	4602      	mov	r2, r0
    1adc:	b120      	cbz	r0, 1ae8 <mpi_egcd+0xb6>
/mnt/disk/raspbian-tee/optee_os/lib/libutee/tee_api_arith_mpi.c:640 (discriminator 1)
    1ade:	48ce      	ldr	r0, [pc, #824]	; (1e18 <mpi_egcd+0x3e6>)
    1ae0:	f44f 7120 	mov.w	r1, #640	; 0x280
    1ae4:	4478      	add	r0, pc
    1ae6:	e7d9      	b.n	1a9c <mpi_egcd+0x6a>
/mnt/disk/raspbian-tee/optee_os/lib/libutee/tee_api_arith_mpi.c:641
    1ae8:	9924      	ldr	r1, [sp, #144]	; 0x90
    1aea:	4658      	mov	r0, fp
    1aec:	f001 fb26 	bl	313c <mbedtls_mpi_copy>
    1af0:	4602      	mov	r2, r0
    1af2:	b178      	cbz	r0, 1b14 <mpi_egcd+0xe2>
/mnt/disk/raspbian-tee/optee_os/lib/libutee/tee_api_arith_mpi.c:641 (discriminator 1)
    1af4:	48c9      	ldr	r0, [pc, #804]	; (1e1c <mpi_egcd+0x3ea>)
    1af6:	f240 2181 	movw	r1, #641	; 0x281
    1afa:	4478      	add	r0, pc
    1afc:	e7ce      	b.n	1a9c <mpi_egcd+0x6a>
/mnt/disk/raspbian-tee/optee_os/lib/libutee/tee_api_arith_mpi.c:647
    1afe:	2101      	movs	r1, #1
    1b00:	4658      	mov	r0, fp
    1b02:	f001 fd0a 	bl	351a <mbedtls_mpi_shift_r>
    1b06:	4602      	mov	r2, r0
    1b08:	b128      	cbz	r0, 1b16 <mpi_egcd+0xe4>
/mnt/disk/raspbian-tee/optee_os/lib/libutee/tee_api_arith_mpi.c:647 (discriminator 1)
    1b0a:	48c5      	ldr	r0, [pc, #788]	; (1e20 <mpi_egcd+0x3ee>)
    1b0c:	f240 2187 	movw	r1, #647	; 0x287
    1b10:	4478      	add	r0, pc
    1b12:	e7c3      	b.n	1a9c <mpi_egcd+0x6a>
    1b14:	9001      	str	r0, [sp, #4]
mpi_is_even():
/mnt/disk/raspbian-tee/optee_os/lib/libutee/tee_api_arith_mpi.c:605
    1b16:	4650      	mov	r0, sl
    1b18:	f7ff ff6a 	bl	19f0 <mpi_is_odd>
mpi_egcd():
/mnt/disk/raspbian-tee/optee_os/lib/libutee/tee_api_arith_mpi.c:644
    1b1c:	b150      	cbz	r0, 1b34 <mpi_egcd+0x102>
/mnt/disk/raspbian-tee/optee_os/lib/libutee/tee_api_arith_mpi.c:650
    1b1e:	4651      	mov	r1, sl
    1b20:	4630      	mov	r0, r6
    1b22:	f001 fb0b 	bl	313c <mbedtls_mpi_copy>
    1b26:	4602      	mov	r2, r0
    1b28:	b1c0      	cbz	r0, 1b5c <mpi_egcd+0x12a>
/mnt/disk/raspbian-tee/optee_os/lib/libutee/tee_api_arith_mpi.c:650 (discriminator 1)
    1b2a:	48be      	ldr	r0, [pc, #760]	; (1e24 <mpi_egcd+0x3f2>)
    1b2c:	f240 218a 	movw	r1, #650	; 0x28a
    1b30:	4478      	add	r0, pc
    1b32:	e7b3      	b.n	1a9c <mpi_egcd+0x6a>
mpi_is_even():
/mnt/disk/raspbian-tee/optee_os/lib/libutee/tee_api_arith_mpi.c:605
    1b34:	4658      	mov	r0, fp
    1b36:	f7ff ff5b 	bl	19f0 <mpi_is_odd>
mpi_egcd():
/mnt/disk/raspbian-tee/optee_os/lib/libutee/tee_api_arith_mpi.c:644
    1b3a:	2800      	cmp	r0, #0
    1b3c:	d1ef      	bne.n	1b1e <mpi_egcd+0xec>
/mnt/disk/raspbian-tee/optee_os/lib/libutee/tee_api_arith_mpi.c:645
    1b3e:	9b01      	ldr	r3, [sp, #4]
/mnt/disk/raspbian-tee/optee_os/lib/libutee/tee_api_arith_mpi.c:646
    1b40:	2101      	movs	r1, #1
    1b42:	4650      	mov	r0, sl
/mnt/disk/raspbian-tee/optee_os/lib/libutee/tee_api_arith_mpi.c:645
    1b44:	3301      	adds	r3, #1
    1b46:	9301      	str	r3, [sp, #4]
/mnt/disk/raspbian-tee/optee_os/lib/libutee/tee_api_arith_mpi.c:646
    1b48:	f001 fce7 	bl	351a <mbedtls_mpi_shift_r>
    1b4c:	4602      	mov	r2, r0
    1b4e:	2800      	cmp	r0, #0
    1b50:	d0d5      	beq.n	1afe <mpi_egcd+0xcc>
/mnt/disk/raspbian-tee/optee_os/lib/libutee/tee_api_arith_mpi.c:646 (discriminator 1)
    1b52:	48b5      	ldr	r0, [pc, #724]	; (1e28 <mpi_egcd+0x3f6>)
    1b54:	f240 2186 	movw	r1, #646	; 0x286
    1b58:	4478      	add	r0, pc
    1b5a:	e79f      	b.n	1a9c <mpi_egcd+0x6a>
/mnt/disk/raspbian-tee/optee_os/lib/libutee/tee_api_arith_mpi.c:651
    1b5c:	4659      	mov	r1, fp
    1b5e:	4648      	mov	r0, r9
    1b60:	f001 faec 	bl	313c <mbedtls_mpi_copy>
    1b64:	4602      	mov	r2, r0
    1b66:	b120      	cbz	r0, 1b72 <mpi_egcd+0x140>
/mnt/disk/raspbian-tee/optee_os/lib/libutee/tee_api_arith_mpi.c:651 (discriminator 1)
    1b68:	48b0      	ldr	r0, [pc, #704]	; (1e2c <mpi_egcd+0x3fa>)
    1b6a:	f240 218b 	movw	r1, #651	; 0x28b
    1b6e:	4478      	add	r0, pc
    1b70:	e794      	b.n	1a9c <mpi_egcd+0x6a>
/mnt/disk/raspbian-tee/optee_os/lib/libutee/tee_api_arith_mpi.c:652
    1b72:	2101      	movs	r1, #1
    1b74:	4640      	mov	r0, r8
    1b76:	f001 fb9c 	bl	32b2 <mbedtls_mpi_lset>
    1b7a:	4602      	mov	r2, r0
    1b7c:	b120      	cbz	r0, 1b88 <mpi_egcd+0x156>
/mnt/disk/raspbian-tee/optee_os/lib/libutee/tee_api_arith_mpi.c:652 (discriminator 1)
    1b7e:	48ac      	ldr	r0, [pc, #688]	; (1e30 <mpi_egcd+0x3fe>)
    1b80:	f44f 7123 	mov.w	r1, #652	; 0x28c
    1b84:	4478      	add	r0, pc
    1b86:	e789      	b.n	1a9c <mpi_egcd+0x6a>
/mnt/disk/raspbian-tee/optee_os/lib/libutee/tee_api_arith_mpi.c:653
    1b88:	4601      	mov	r1, r0
    1b8a:	4638      	mov	r0, r7
    1b8c:	f001 fb91 	bl	32b2 <mbedtls_mpi_lset>
    1b90:	4602      	mov	r2, r0
    1b92:	b120      	cbz	r0, 1b9e <mpi_egcd+0x16c>
/mnt/disk/raspbian-tee/optee_os/lib/libutee/tee_api_arith_mpi.c:653 (discriminator 1)
    1b94:	48a7      	ldr	r0, [pc, #668]	; (1e34 <mpi_egcd+0x402>)
    1b96:	f240 218d 	movw	r1, #653	; 0x28d
    1b9a:	4478      	add	r0, pc
    1b9c:	e77e      	b.n	1a9c <mpi_egcd+0x6a>
/mnt/disk/raspbian-tee/optee_os/lib/libutee/tee_api_arith_mpi.c:654
    1b9e:	4601      	mov	r1, r0
    1ba0:	4628      	mov	r0, r5
    1ba2:	f001 fb86 	bl	32b2 <mbedtls_mpi_lset>
    1ba6:	4602      	mov	r2, r0
    1ba8:	b120      	cbz	r0, 1bb4 <mpi_egcd+0x182>
/mnt/disk/raspbian-tee/optee_os/lib/libutee/tee_api_arith_mpi.c:654 (discriminator 1)
    1baa:	48a3      	ldr	r0, [pc, #652]	; (1e38 <mpi_egcd+0x406>)
    1bac:	f240 218e 	movw	r1, #654	; 0x28e
    1bb0:	4478      	add	r0, pc
    1bb2:	e773      	b.n	1a9c <mpi_egcd+0x6a>
/mnt/disk/raspbian-tee/optee_os/lib/libutee/tee_api_arith_mpi.c:655
    1bb4:	2101      	movs	r1, #1
    1bb6:	4620      	mov	r0, r4
    1bb8:	f001 fb7b 	bl	32b2 <mbedtls_mpi_lset>
    1bbc:	4602      	mov	r2, r0
    1bbe:	2800      	cmp	r0, #0
    1bc0:	f000 80e4 	beq.w	1d8c <mpi_egcd+0x35a>
/mnt/disk/raspbian-tee/optee_os/lib/libutee/tee_api_arith_mpi.c:655 (discriminator 1)
    1bc4:	489d      	ldr	r0, [pc, #628]	; (1e3c <mpi_egcd+0x40a>)
    1bc6:	f240 218f 	movw	r1, #655	; 0x28f
    1bca:	4478      	add	r0, pc
    1bcc:	e766      	b.n	1a9c <mpi_egcd+0x6a>
/mnt/disk/raspbian-tee/optee_os/lib/libutee/tee_api_arith_mpi.c:659
    1bce:	2101      	movs	r1, #1
    1bd0:	4630      	mov	r0, r6
    1bd2:	f001 fca2 	bl	351a <mbedtls_mpi_shift_r>
    1bd6:	4602      	mov	r2, r0
    1bd8:	b120      	cbz	r0, 1be4 <mpi_egcd+0x1b2>
/mnt/disk/raspbian-tee/optee_os/lib/libutee/tee_api_arith_mpi.c:659 (discriminator 1)
    1bda:	4899      	ldr	r0, [pc, #612]	; (1e40 <mpi_egcd+0x40e>)
    1bdc:	f240 2193 	movw	r1, #659	; 0x293
    1be0:	4478      	add	r0, pc
    1be2:	e75b      	b.n	1a9c <mpi_egcd+0x6a>
/mnt/disk/raspbian-tee/optee_os/lib/libutee/tee_api_arith_mpi.c:660
    1be4:	4640      	mov	r0, r8
    1be6:	f7ff ff03 	bl	19f0 <mpi_is_odd>
    1bea:	b158      	cbz	r0, 1c04 <mpi_egcd+0x1d2>
/mnt/disk/raspbian-tee/optee_os/lib/libutee/tee_api_arith_mpi.c:661
    1bec:	465a      	mov	r2, fp
    1bee:	4641      	mov	r1, r8
    1bf0:	4640      	mov	r0, r8
    1bf2:	f001 fe06 	bl	3802 <mbedtls_mpi_add_mpi>
    1bf6:	4602      	mov	r2, r0
    1bf8:	b1a0      	cbz	r0, 1c24 <mpi_egcd+0x1f2>
/mnt/disk/raspbian-tee/optee_os/lib/libutee/tee_api_arith_mpi.c:661 (discriminator 1)
    1bfa:	4892      	ldr	r0, [pc, #584]	; (1e44 <mpi_egcd+0x412>)
    1bfc:	f240 2195 	movw	r1, #661	; 0x295
    1c00:	4478      	add	r0, pc
    1c02:	e74b      	b.n	1a9c <mpi_egcd+0x6a>
/mnt/disk/raspbian-tee/optee_os/lib/libutee/tee_api_arith_mpi.c:660 (discriminator 1)
    1c04:	4638      	mov	r0, r7
    1c06:	f7ff fef3 	bl	19f0 <mpi_is_odd>
    1c0a:	2800      	cmp	r0, #0
    1c0c:	d1ee      	bne.n	1bec <mpi_egcd+0x1ba>
/mnt/disk/raspbian-tee/optee_os/lib/libutee/tee_api_arith_mpi.c:664
    1c0e:	2101      	movs	r1, #1
    1c10:	4640      	mov	r0, r8
    1c12:	f001 fc82 	bl	351a <mbedtls_mpi_shift_r>
    1c16:	4602      	mov	r2, r0
    1c18:	b188      	cbz	r0, 1c3e <mpi_egcd+0x20c>
/mnt/disk/raspbian-tee/optee_os/lib/libutee/tee_api_arith_mpi.c:664 (discriminator 1)
    1c1a:	488b      	ldr	r0, [pc, #556]	; (1e48 <mpi_egcd+0x416>)
    1c1c:	f44f 7126 	mov.w	r1, #664	; 0x298
    1c20:	4478      	add	r0, pc
    1c22:	e73b      	b.n	1a9c <mpi_egcd+0x6a>
/mnt/disk/raspbian-tee/optee_os/lib/libutee/tee_api_arith_mpi.c:662
    1c24:	4652      	mov	r2, sl
    1c26:	4639      	mov	r1, r7
    1c28:	4638      	mov	r0, r7
    1c2a:	f001 fe0e 	bl	384a <mbedtls_mpi_sub_mpi>
    1c2e:	4602      	mov	r2, r0
    1c30:	2800      	cmp	r0, #0
    1c32:	d0ec      	beq.n	1c0e <mpi_egcd+0x1dc>
/mnt/disk/raspbian-tee/optee_os/lib/libutee/tee_api_arith_mpi.c:662 (discriminator 1)
    1c34:	4885      	ldr	r0, [pc, #532]	; (1e4c <mpi_egcd+0x41a>)
    1c36:	f240 2196 	movw	r1, #662	; 0x296
    1c3a:	4478      	add	r0, pc
    1c3c:	e72e      	b.n	1a9c <mpi_egcd+0x6a>
/mnt/disk/raspbian-tee/optee_os/lib/libutee/tee_api_arith_mpi.c:665
    1c3e:	2101      	movs	r1, #1
    1c40:	4638      	mov	r0, r7
    1c42:	f001 fc6a 	bl	351a <mbedtls_mpi_shift_r>
    1c46:	4602      	mov	r2, r0
    1c48:	b120      	cbz	r0, 1c54 <mpi_egcd+0x222>
/mnt/disk/raspbian-tee/optee_os/lib/libutee/tee_api_arith_mpi.c:665 (discriminator 1)
    1c4a:	4881      	ldr	r0, [pc, #516]	; (1e50 <mpi_egcd+0x41e>)
    1c4c:	f240 2199 	movw	r1, #665	; 0x299
    1c50:	4478      	add	r0, pc
    1c52:	e723      	b.n	1a9c <mpi_egcd+0x6a>
mpi_is_even():
/mnt/disk/raspbian-tee/optee_os/lib/libutee/tee_api_arith_mpi.c:605
    1c54:	4630      	mov	r0, r6
    1c56:	f7ff fecb 	bl	19f0 <mpi_is_odd>
mpi_egcd():
/mnt/disk/raspbian-tee/optee_os/lib/libutee/tee_api_arith_mpi.c:658
    1c5a:	2800      	cmp	r0, #0
    1c5c:	d0b7      	beq.n	1bce <mpi_egcd+0x19c>
mpi_is_even():
/mnt/disk/raspbian-tee/optee_os/lib/libutee/tee_api_arith_mpi.c:605
    1c5e:	4648      	mov	r0, r9
    1c60:	f7ff fec6 	bl	19f0 <mpi_is_odd>
mpi_egcd():
/mnt/disk/raspbian-tee/optee_os/lib/libutee/tee_api_arith_mpi.c:668
    1c64:	b190      	cbz	r0, 1c8c <mpi_egcd+0x25a>
/mnt/disk/raspbian-tee/optee_os/lib/libutee/tee_api_arith_mpi.c:679
    1c66:	4649      	mov	r1, r9
    1c68:	4630      	mov	r0, r6
    1c6a:	f001 fcc9 	bl	3600 <mbedtls_mpi_cmp_mpi>
    1c6e:	2800      	cmp	r0, #0
    1c70:	db68      	blt.n	1d44 <mpi_egcd+0x312>
/mnt/disk/raspbian-tee/optee_os/lib/libutee/tee_api_arith_mpi.c:680
    1c72:	464a      	mov	r2, r9
    1c74:	4631      	mov	r1, r6
    1c76:	4630      	mov	r0, r6
    1c78:	f001 fde7 	bl	384a <mbedtls_mpi_sub_mpi>
    1c7c:	4602      	mov	r2, r0
    1c7e:	2800      	cmp	r0, #0
    1c80:	d048      	beq.n	1d14 <mpi_egcd+0x2e2>
/mnt/disk/raspbian-tee/optee_os/lib/libutee/tee_api_arith_mpi.c:680 (discriminator 1)
    1c82:	4874      	ldr	r0, [pc, #464]	; (1e54 <mpi_egcd+0x422>)
    1c84:	f44f 712a 	mov.w	r1, #680	; 0x2a8
    1c88:	4478      	add	r0, pc
    1c8a:	e707      	b.n	1a9c <mpi_egcd+0x6a>
/mnt/disk/raspbian-tee/optee_os/lib/libutee/tee_api_arith_mpi.c:669
    1c8c:	2101      	movs	r1, #1
    1c8e:	4648      	mov	r0, r9
    1c90:	f001 fc43 	bl	351a <mbedtls_mpi_shift_r>
    1c94:	4602      	mov	r2, r0
    1c96:	b120      	cbz	r0, 1ca2 <mpi_egcd+0x270>
/mnt/disk/raspbian-tee/optee_os/lib/libutee/tee_api_arith_mpi.c:669 (discriminator 1)
    1c98:	486f      	ldr	r0, [pc, #444]	; (1e58 <mpi_egcd+0x426>)
    1c9a:	f240 219d 	movw	r1, #669	; 0x29d
    1c9e:	4478      	add	r0, pc
    1ca0:	e6fc      	b.n	1a9c <mpi_egcd+0x6a>
/mnt/disk/raspbian-tee/optee_os/lib/libutee/tee_api_arith_mpi.c:670
    1ca2:	4628      	mov	r0, r5
    1ca4:	f7ff fea4 	bl	19f0 <mpi_is_odd>
    1ca8:	b158      	cbz	r0, 1cc2 <mpi_egcd+0x290>
/mnt/disk/raspbian-tee/optee_os/lib/libutee/tee_api_arith_mpi.c:671
    1caa:	465a      	mov	r2, fp
    1cac:	4629      	mov	r1, r5
    1cae:	4628      	mov	r0, r5
    1cb0:	f001 fda7 	bl	3802 <mbedtls_mpi_add_mpi>
    1cb4:	4602      	mov	r2, r0
    1cb6:	b1a0      	cbz	r0, 1ce2 <mpi_egcd+0x2b0>
/mnt/disk/raspbian-tee/optee_os/lib/libutee/tee_api_arith_mpi.c:671 (discriminator 1)
    1cb8:	4868      	ldr	r0, [pc, #416]	; (1e5c <mpi_egcd+0x42a>)
    1cba:	f240 219f 	movw	r1, #671	; 0x29f
    1cbe:	4478      	add	r0, pc
    1cc0:	e6ec      	b.n	1a9c <mpi_egcd+0x6a>
/mnt/disk/raspbian-tee/optee_os/lib/libutee/tee_api_arith_mpi.c:670 (discriminator 1)
    1cc2:	4620      	mov	r0, r4
    1cc4:	f7ff fe94 	bl	19f0 <mpi_is_odd>
    1cc8:	2800      	cmp	r0, #0
    1cca:	d1ee      	bne.n	1caa <mpi_egcd+0x278>
/mnt/disk/raspbian-tee/optee_os/lib/libutee/tee_api_arith_mpi.c:674
    1ccc:	2101      	movs	r1, #1
    1cce:	4628      	mov	r0, r5
    1cd0:	f001 fc23 	bl	351a <mbedtls_mpi_shift_r>
    1cd4:	4602      	mov	r2, r0
    1cd6:	b188      	cbz	r0, 1cfc <mpi_egcd+0x2ca>
/mnt/disk/raspbian-tee/optee_os/lib/libutee/tee_api_arith_mpi.c:674 (discriminator 1)
    1cd8:	4861      	ldr	r0, [pc, #388]	; (1e60 <mpi_egcd+0x42e>)
    1cda:	f240 21a2 	movw	r1, #674	; 0x2a2
    1cde:	4478      	add	r0, pc
    1ce0:	e6dc      	b.n	1a9c <mpi_egcd+0x6a>
/mnt/disk/raspbian-tee/optee_os/lib/libutee/tee_api_arith_mpi.c:672
    1ce2:	4652      	mov	r2, sl
    1ce4:	4621      	mov	r1, r4
    1ce6:	4620      	mov	r0, r4
    1ce8:	f001 fdaf 	bl	384a <mbedtls_mpi_sub_mpi>
    1cec:	4602      	mov	r2, r0
    1cee:	2800      	cmp	r0, #0
    1cf0:	d0ec      	beq.n	1ccc <mpi_egcd+0x29a>
/mnt/disk/raspbian-tee/optee_os/lib/libutee/tee_api_arith_mpi.c:672 (discriminator 1)
    1cf2:	485c      	ldr	r0, [pc, #368]	; (1e64 <mpi_egcd+0x432>)
    1cf4:	f44f 7128 	mov.w	r1, #672	; 0x2a0
    1cf8:	4478      	add	r0, pc
    1cfa:	e6cf      	b.n	1a9c <mpi_egcd+0x6a>
/mnt/disk/raspbian-tee/optee_os/lib/libutee/tee_api_arith_mpi.c:675
    1cfc:	2101      	movs	r1, #1
    1cfe:	4620      	mov	r0, r4
    1d00:	f001 fc0b 	bl	351a <mbedtls_mpi_shift_r>
    1d04:	4602      	mov	r2, r0
    1d06:	2800      	cmp	r0, #0
    1d08:	d0a9      	beq.n	1c5e <mpi_egcd+0x22c>
/mnt/disk/raspbian-tee/optee_os/lib/libutee/tee_api_arith_mpi.c:675 (discriminator 1)
    1d0a:	4857      	ldr	r0, [pc, #348]	; (1e68 <mpi_egcd+0x436>)
    1d0c:	f240 21a3 	movw	r1, #675	; 0x2a3
    1d10:	4478      	add	r0, pc
    1d12:	e6c3      	b.n	1a9c <mpi_egcd+0x6a>
/mnt/disk/raspbian-tee/optee_os/lib/libutee/tee_api_arith_mpi.c:681
    1d14:	462a      	mov	r2, r5
    1d16:	4641      	mov	r1, r8
    1d18:	4640      	mov	r0, r8
    1d1a:	f001 fd96 	bl	384a <mbedtls_mpi_sub_mpi>
    1d1e:	4602      	mov	r2, r0
    1d20:	b120      	cbz	r0, 1d2c <mpi_egcd+0x2fa>
/mnt/disk/raspbian-tee/optee_os/lib/libutee/tee_api_arith_mpi.c:681 (discriminator 1)
    1d22:	4852      	ldr	r0, [pc, #328]	; (1e6c <mpi_egcd+0x43a>)
    1d24:	f240 21a9 	movw	r1, #681	; 0x2a9
    1d28:	4478      	add	r0, pc
    1d2a:	e6b7      	b.n	1a9c <mpi_egcd+0x6a>
/mnt/disk/raspbian-tee/optee_os/lib/libutee/tee_api_arith_mpi.c:682
    1d2c:	4622      	mov	r2, r4
    1d2e:	4639      	mov	r1, r7
    1d30:	4638      	mov	r0, r7
    1d32:	f001 fd8a 	bl	384a <mbedtls_mpi_sub_mpi>
    1d36:	4602      	mov	r2, r0
    1d38:	b340      	cbz	r0, 1d8c <mpi_egcd+0x35a>
/mnt/disk/raspbian-tee/optee_os/lib/libutee/tee_api_arith_mpi.c:682 (discriminator 1)
    1d3a:	484d      	ldr	r0, [pc, #308]	; (1e70 <mpi_egcd+0x43e>)
    1d3c:	f240 21aa 	movw	r1, #682	; 0x2aa
    1d40:	4478      	add	r0, pc
    1d42:	e6ab      	b.n	1a9c <mpi_egcd+0x6a>
/mnt/disk/raspbian-tee/optee_os/lib/libutee/tee_api_arith_mpi.c:684
    1d44:	4632      	mov	r2, r6
    1d46:	4649      	mov	r1, r9
    1d48:	4648      	mov	r0, r9
    1d4a:	f001 fd7e 	bl	384a <mbedtls_mpi_sub_mpi>
    1d4e:	4602      	mov	r2, r0
    1d50:	b120      	cbz	r0, 1d5c <mpi_egcd+0x32a>
/mnt/disk/raspbian-tee/optee_os/lib/libutee/tee_api_arith_mpi.c:684 (discriminator 1)
    1d52:	4848      	ldr	r0, [pc, #288]	; (1e74 <mpi_egcd+0x442>)
    1d54:	f44f 712b 	mov.w	r1, #684	; 0x2ac
    1d58:	4478      	add	r0, pc
    1d5a:	e69f      	b.n	1a9c <mpi_egcd+0x6a>
/mnt/disk/raspbian-tee/optee_os/lib/libutee/tee_api_arith_mpi.c:685
    1d5c:	4642      	mov	r2, r8
    1d5e:	4629      	mov	r1, r5
    1d60:	4628      	mov	r0, r5
    1d62:	f001 fd72 	bl	384a <mbedtls_mpi_sub_mpi>
    1d66:	4602      	mov	r2, r0
    1d68:	b120      	cbz	r0, 1d74 <mpi_egcd+0x342>
/mnt/disk/raspbian-tee/optee_os/lib/libutee/tee_api_arith_mpi.c:685 (discriminator 1)
    1d6a:	4843      	ldr	r0, [pc, #268]	; (1e78 <mpi_egcd+0x446>)
    1d6c:	f240 21ad 	movw	r1, #685	; 0x2ad
    1d70:	4478      	add	r0, pc
    1d72:	e693      	b.n	1a9c <mpi_egcd+0x6a>
/mnt/disk/raspbian-tee/optee_os/lib/libutee/tee_api_arith_mpi.c:686
    1d74:	463a      	mov	r2, r7
    1d76:	4621      	mov	r1, r4
    1d78:	4620      	mov	r0, r4
    1d7a:	f001 fd66 	bl	384a <mbedtls_mpi_sub_mpi>
    1d7e:	4602      	mov	r2, r0
    1d80:	b120      	cbz	r0, 1d8c <mpi_egcd+0x35a>
/mnt/disk/raspbian-tee/optee_os/lib/libutee/tee_api_arith_mpi.c:686 (discriminator 1)
    1d82:	483e      	ldr	r0, [pc, #248]	; (1e7c <mpi_egcd+0x44a>)
    1d84:	f240 21ae 	movw	r1, #686	; 0x2ae
    1d88:	4478      	add	r0, pc
    1d8a:	e687      	b.n	1a9c <mpi_egcd+0x6a>
/mnt/disk/raspbian-tee/optee_os/lib/libutee/tee_api_arith_mpi.c:657
    1d8c:	2100      	movs	r1, #0
    1d8e:	4630      	mov	r0, r6
    1d90:	f001 fc81 	bl	3696 <mbedtls_mpi_cmp_int>
    1d94:	2800      	cmp	r0, #0
    1d96:	f47f af5d 	bne.w	1c54 <mpi_egcd+0x222>
/mnt/disk/raspbian-tee/optee_os/lib/libutee/tee_api_arith_mpi.c:690
    1d9a:	4629      	mov	r1, r5
    1d9c:	9802      	ldr	r0, [sp, #8]
    1d9e:	f001 f9cd 	bl	313c <mbedtls_mpi_copy>
    1da2:	4602      	mov	r2, r0
    1da4:	b120      	cbz	r0, 1db0 <mpi_egcd+0x37e>
/mnt/disk/raspbian-tee/optee_os/lib/libutee/tee_api_arith_mpi.c:690 (discriminator 1)
    1da6:	4836      	ldr	r0, [pc, #216]	; (1e80 <mpi_egcd+0x44e>)
    1da8:	f240 21b2 	movw	r1, #690	; 0x2b2
    1dac:	4478      	add	r0, pc
    1dae:	e675      	b.n	1a9c <mpi_egcd+0x6a>
/mnt/disk/raspbian-tee/optee_os/lib/libutee/tee_api_arith_mpi.c:691
    1db0:	4621      	mov	r1, r4
    1db2:	9803      	ldr	r0, [sp, #12]
    1db4:	f001 f9c2 	bl	313c <mbedtls_mpi_copy>
    1db8:	4602      	mov	r2, r0
    1dba:	b120      	cbz	r0, 1dc6 <mpi_egcd+0x394>
/mnt/disk/raspbian-tee/optee_os/lib/libutee/tee_api_arith_mpi.c:691 (discriminator 1)
    1dbc:	4831      	ldr	r0, [pc, #196]	; (1e84 <mpi_egcd+0x452>)
    1dbe:	f240 21b3 	movw	r1, #691	; 0x2b3
    1dc2:	4478      	add	r0, pc
    1dc4:	e66a      	b.n	1a9c <mpi_egcd+0x6a>
/mnt/disk/raspbian-tee/optee_os/lib/libutee/tee_api_arith_mpi.c:692
    1dc6:	9901      	ldr	r1, [sp, #4]
    1dc8:	4648      	mov	r0, r9
    1dca:	f001 fb5a 	bl	3482 <mbedtls_mpi_shift_l>
    1dce:	4602      	mov	r2, r0
    1dd0:	b120      	cbz	r0, 1ddc <mpi_egcd+0x3aa>
/mnt/disk/raspbian-tee/optee_os/lib/libutee/tee_api_arith_mpi.c:692 (discriminator 1)
    1dd2:	482d      	ldr	r0, [pc, #180]	; (1e88 <mpi_egcd+0x456>)
    1dd4:	f44f 712d 	mov.w	r1, #692	; 0x2b4
    1dd8:	4478      	add	r0, pc
    1dda:	e65f      	b.n	1a9c <mpi_egcd+0x6a>
/mnt/disk/raspbian-tee/optee_os/lib/libutee/tee_api_arith_mpi.c:695
    1ddc:	4640      	mov	r0, r8
    1dde:	f7ff fe1a 	bl	1a16 <put_mpi>
/mnt/disk/raspbian-tee/optee_os/lib/libutee/tee_api_arith_mpi.c:696
    1de2:	4638      	mov	r0, r7
    1de4:	f7ff fe17 	bl	1a16 <put_mpi>
/mnt/disk/raspbian-tee/optee_os/lib/libutee/tee_api_arith_mpi.c:697
    1de8:	4628      	mov	r0, r5
    1dea:	f7ff fe14 	bl	1a16 <put_mpi>
/mnt/disk/raspbian-tee/optee_os/lib/libutee/tee_api_arith_mpi.c:698
    1dee:	4620      	mov	r0, r4
    1df0:	f7ff fe11 	bl	1a16 <put_mpi>
/mnt/disk/raspbian-tee/optee_os/lib/libutee/tee_api_arith_mpi.c:699
    1df4:	4650      	mov	r0, sl
    1df6:	f7ff fe0e 	bl	1a16 <put_mpi>
/mnt/disk/raspbian-tee/optee_os/lib/libutee/tee_api_arith_mpi.c:700
    1dfa:	4658      	mov	r0, fp
    1dfc:	f7ff fe0b 	bl	1a16 <put_mpi>
/mnt/disk/raspbian-tee/optee_os/lib/libutee/tee_api_arith_mpi.c:701
    1e00:	4630      	mov	r0, r6
    1e02:	f7ff fe08 	bl	1a16 <put_mpi>
/mnt/disk/raspbian-tee/optee_os/lib/libutee/tee_api_arith_mpi.c:702
    1e06:	b01b      	add	sp, #108	; 0x6c
    1e08:	e8bd 8ff0 	ldmia.w	sp!, {r4, r5, r6, r7, r8, r9, sl, fp, pc}
    1e0c:	00004cfe 	.word	0x00004cfe
    1e10:	00004ce4 	.word	0x00004ce4
    1e14:	00004cca 	.word	0x00004cca
    1e18:	00004cb4 	.word	0x00004cb4
    1e1c:	00004c9e 	.word	0x00004c9e
    1e20:	00004c88 	.word	0x00004c88
    1e24:	00004c68 	.word	0x00004c68
    1e28:	00004c40 	.word	0x00004c40
    1e2c:	00004c2a 	.word	0x00004c2a
    1e30:	00004c14 	.word	0x00004c14
    1e34:	00004bfe 	.word	0x00004bfe
    1e38:	00004be8 	.word	0x00004be8
    1e3c:	00004bce 	.word	0x00004bce
    1e40:	00004bb8 	.word	0x00004bb8
    1e44:	00004b98 	.word	0x00004b98
    1e48:	00004b78 	.word	0x00004b78
    1e4c:	00004b5e 	.word	0x00004b5e
    1e50:	00004b48 	.word	0x00004b48
    1e54:	00004b10 	.word	0x00004b10
    1e58:	00004afa 	.word	0x00004afa
    1e5c:	00004ada 	.word	0x00004ada
    1e60:	00004aba 	.word	0x00004aba
    1e64:	00004aa0 	.word	0x00004aa0
    1e68:	00004a88 	.word	0x00004a88
    1e6c:	00004a70 	.word	0x00004a70
    1e70:	00004a58 	.word	0x00004a58
    1e74:	00004a40 	.word	0x00004a40
    1e78:	00004a28 	.word	0x00004a28
    1e7c:	00004a10 	.word	0x00004a10
    1e80:	000049ec 	.word	0x000049ec
    1e84:	000049d6 	.word	0x000049d6
    1e88:	000049c0 	.word	0x000049c0

00001e8c <get_mpi>:
get_mpi():
/mnt/disk/raspbian-tee/optee_os/lib/libutee/tee_api_arith_mpi.c:81
    1e8c:	b507      	push	{r0, r1, r2, lr}
/mnt/disk/raspbian-tee/optee_os/lib/libutee/tee_api_arith_mpi.c:96
    1e8e:	b151      	cbz	r1, 1ea6 <get_mpi+0x1a>
init_static_mpi():
/mnt/disk/raspbian-tee/optee_os/lib/libutee/tee_api_arith_mpi.c:65
    1e90:	88ca      	ldrh	r2, [r1, #6]
    1e92:	888b      	ldrh	r3, [r1, #4]
    1e94:	3108      	adds	r1, #8
    1e96:	9200      	str	r2, [sp, #0]
    1e98:	f851 2c08 	ldr.w	r2, [r1, #-8]
    1e9c:	f001 f864 	bl	2f68 <mbedtls_mpi_init_static>
get_mpi():
/mnt/disk/raspbian-tee/optee_os/lib/libutee/tee_api_arith_mpi.c:100
    1ea0:	b003      	add	sp, #12
    1ea2:	f85d fb04 	ldr.w	pc, [sp], #4
    1ea6:	b003      	add	sp, #12
    1ea8:	f85d eb04 	ldr.w	lr, [sp], #4
/mnt/disk/raspbian-tee/optee_os/lib/libutee/tee_api_arith_mpi.c:99
    1eac:	f001 b849 	b.w	2f42 <mbedtls_mpi_init_mempool>

00001eb0 <bigint_binary>:
bigint_binary():
/mnt/disk/raspbian-tee/optee_os/lib/libutee/tee_api_arith_mpi.c:336
    1eb0:	e92d 47f0 	stmdb	sp!, {r4, r5, r6, r7, r8, r9, sl, lr}
    1eb4:	4607      	mov	r7, r0
    1eb6:	4689      	mov	r9, r1
    1eb8:	b08a      	sub	sp, #40	; 0x28
/mnt/disk/raspbian-tee/optee_os/lib/libutee/tee_api_arith_mpi.c:343
    1eba:	4601      	mov	r1, r0
    1ebc:	ae01      	add	r6, sp, #4
/mnt/disk/raspbian-tee/optee_os/lib/libutee/tee_api_arith_mpi.c:336
    1ebe:	4614      	mov	r4, r2
/mnt/disk/raspbian-tee/optee_os/lib/libutee/tee_api_arith_mpi.c:343
    1ec0:	4630      	mov	r0, r6
/mnt/disk/raspbian-tee/optee_os/lib/libutee/tee_api_arith_mpi.c:336
    1ec2:	469a      	mov	sl, r3
    1ec4:	f10d 0810 	add.w	r8, sp, #16
/mnt/disk/raspbian-tee/optee_os/lib/libutee/tee_api_arith_mpi.c:343
    1ec8:	f7ff ffe0 	bl	1e8c <get_mpi>
/mnt/disk/raspbian-tee/optee_os/lib/libutee/tee_api_arith_mpi.c:345
    1ecc:	454f      	cmp	r7, r9
    1ece:	d01b      	beq.n	1f08 <bigint_binary+0x58>
/mnt/disk/raspbian-tee/optee_os/lib/libutee/tee_api_arith_mpi.c:340
    1ed0:	4645      	mov	r5, r8
/mnt/disk/raspbian-tee/optee_os/lib/libutee/tee_api_arith_mpi.c:348
    1ed2:	4649      	mov	r1, r9
    1ed4:	4640      	mov	r0, r8
    1ed6:	f7ff fd69 	bl	19ac <get_const_mpi>
/mnt/disk/raspbian-tee/optee_os/lib/libutee/tee_api_arith_mpi.c:350
    1eda:	42a7      	cmp	r7, r4
    1edc:	af07      	add	r7, sp, #28
    1ede:	d015      	beq.n	1f0c <bigint_binary+0x5c>
/mnt/disk/raspbian-tee/optee_os/lib/libutee/tee_api_arith_mpi.c:352
    1ee0:	45a1      	cmp	r9, r4
    1ee2:	d015      	beq.n	1f10 <bigint_binary+0x60>
/mnt/disk/raspbian-tee/optee_os/lib/libutee/tee_api_arith_mpi.c:355
    1ee4:	4621      	mov	r1, r4
/mnt/disk/raspbian-tee/optee_os/lib/libutee/tee_api_arith_mpi.c:341
    1ee6:	463c      	mov	r4, r7
/mnt/disk/raspbian-tee/optee_os/lib/libutee/tee_api_arith_mpi.c:355
    1ee8:	4638      	mov	r0, r7
    1eea:	f7ff fd5f 	bl	19ac <get_const_mpi>
/mnt/disk/raspbian-tee/optee_os/lib/libutee/tee_api_arith_mpi.c:357
    1eee:	4622      	mov	r2, r4
    1ef0:	4629      	mov	r1, r5
    1ef2:	4630      	mov	r0, r6
    1ef4:	47d0      	blx	sl
    1ef6:	4602      	mov	r2, r0
    1ef8:	b160      	cbz	r0, 1f14 <bigint_binary+0x64>
/mnt/disk/raspbian-tee/optee_os/lib/libutee/tee_api_arith_mpi.c:357 (discriminator 1)
    1efa:	480e      	ldr	r0, [pc, #56]	; (1f34 <bigint_binary+0x84>)
    1efc:	f240 1165 	movw	r1, #357	; 0x165
    1f00:	4478      	add	r0, pc
    1f02:	3017      	adds	r0, #23
    1f04:	f7ff fd42 	bl	198c <mpi_panic>
/mnt/disk/raspbian-tee/optee_os/lib/libutee/tee_api_arith_mpi.c:346
    1f08:	4635      	mov	r5, r6
    1f0a:	e7e6      	b.n	1eda <bigint_binary+0x2a>
/mnt/disk/raspbian-tee/optee_os/lib/libutee/tee_api_arith_mpi.c:351
    1f0c:	4634      	mov	r4, r6
    1f0e:	e7ee      	b.n	1eee <bigint_binary+0x3e>
/mnt/disk/raspbian-tee/optee_os/lib/libutee/tee_api_arith_mpi.c:353
    1f10:	462c      	mov	r4, r5
    1f12:	e7ec      	b.n	1eee <bigint_binary+0x3e>
/mnt/disk/raspbian-tee/optee_os/lib/libutee/tee_api_arith_mpi.c:359
    1f14:	4630      	mov	r0, r6
    1f16:	f7ff fd7e 	bl	1a16 <put_mpi>
/mnt/disk/raspbian-tee/optee_os/lib/libutee/tee_api_arith_mpi.c:360
    1f1a:	4545      	cmp	r5, r8
    1f1c:	d102      	bne.n	1f24 <bigint_binary+0x74>
/mnt/disk/raspbian-tee/optee_os/lib/libutee/tee_api_arith_mpi.c:361
    1f1e:	4628      	mov	r0, r5
    1f20:	f7ff fd79 	bl	1a16 <put_mpi>
/mnt/disk/raspbian-tee/optee_os/lib/libutee/tee_api_arith_mpi.c:362
    1f24:	42bc      	cmp	r4, r7
    1f26:	d102      	bne.n	1f2e <bigint_binary+0x7e>
/mnt/disk/raspbian-tee/optee_os/lib/libutee/tee_api_arith_mpi.c:363
    1f28:	4620      	mov	r0, r4
    1f2a:	f7ff fd74 	bl	1a16 <put_mpi>
/mnt/disk/raspbian-tee/optee_os/lib/libutee/tee_api_arith_mpi.c:364
    1f2e:	b00a      	add	sp, #40	; 0x28
    1f30:	e8bd 87f0 	ldmia.w	sp!, {r4, r5, r6, r7, r8, r9, sl, pc}
    1f34:	00004898 	.word	0x00004898

00001f38 <_TEE_MathAPI_Init>:
_TEE_MathAPI_Init():
/mnt/disk/raspbian-tee/optee_os/lib/libutee/tee_api_arith_mpi.c:48
    1f38:	480b      	ldr	r0, [pc, #44]	; (1f68 <_TEE_MathAPI_Init+0x30>)
    1f3a:	2200      	movs	r2, #0
/mnt/disk/raspbian-tee/optee_os/lib/libutee/tee_api_arith_mpi.c:44
    1f3c:	b510      	push	{r4, lr}
/mnt/disk/raspbian-tee/optee_os/lib/libutee/tee_api_arith_mpi.c:48
    1f3e:	f44f 5100 	mov.w	r1, #8192	; 0x2000
/mnt/disk/raspbian-tee/optee_os/lib/libutee/tee_api_arith_mpi.c:44
    1f42:	4c0a      	ldr	r4, [pc, #40]	; (1f6c <_TEE_MathAPI_Init+0x34>)
/mnt/disk/raspbian-tee/optee_os/lib/libutee/tee_api_arith_mpi.c:48
    1f44:	4478      	add	r0, pc
    1f46:	f003 ff29 	bl	5d9c <mempool_alloc_pool>
    1f4a:	4b09      	ldr	r3, [pc, #36]	; (1f70 <_TEE_MathAPI_Init+0x38>)
/mnt/disk/raspbian-tee/optee_os/lib/libutee/tee_api_arith_mpi.c:44
    1f4c:	447c      	add	r4, pc
/mnt/disk/raspbian-tee/optee_os/lib/libutee/tee_api_arith_mpi.c:48
    1f4e:	58e3      	ldr	r3, [r4, r3]
    1f50:	6018      	str	r0, [r3, #0]
/mnt/disk/raspbian-tee/optee_os/lib/libutee/tee_api_arith_mpi.c:49
    1f52:	b938      	cbnz	r0, 1f64 <_TEE_MathAPI_Init+0x2c>
/mnt/disk/raspbian-tee/optee_os/lib/libutee/tee_api_arith_mpi.c:50
    1f54:	4807      	ldr	r0, [pc, #28]	; (1f74 <_TEE_MathAPI_Init+0x3c>)
    1f56:	2132      	movs	r1, #50	; 0x32
    1f58:	4a07      	ldr	r2, [pc, #28]	; (1f78 <_TEE_MathAPI_Init+0x40>)
    1f5a:	4478      	add	r0, pc
    1f5c:	447a      	add	r2, pc
    1f5e:	3025      	adds	r0, #37	; 0x25
    1f60:	f000 fd1e 	bl	29a0 <api_panic>
    1f64:	bd10      	pop	{r4, pc}
    1f66:	bf00      	nop
    1f68:	00006594 	.word	0x00006594
    1f6c:	00005a14 	.word	0x00005a14
    1f70:	00000030 	.word	0x00000030
    1f74:	0000483e 	.word	0x0000483e
    1f78:	000049c4 	.word	0x000049c4

00001f7c <TEE_BigIntInit>:
TEE_BigIntInit():
/mnt/disk/raspbian-tee/optee_os/lib/libutee/tee_api_arith_mpi.c:140
    1f7c:	f101 021f 	add.w	r2, r1, #31
/mnt/disk/raspbian-tee/optee_os/lib/libutee/tee_api_arith_mpi.c:139
    1f80:	b538      	push	{r3, r4, r5, lr}
/mnt/disk/raspbian-tee/optee_os/lib/libutee/tee_api_arith_mpi.c:140
    1f82:	0952      	lsrs	r2, r2, #5
/mnt/disk/raspbian-tee/optee_os/lib/libutee/tee_api_arith_mpi.c:139
    1f84:	4605      	mov	r5, r0
    1f86:	460c      	mov	r4, r1
/mnt/disk/raspbian-tee/optee_os/lib/libutee/tee_api_arith_mpi.c:140
    1f88:	3202      	adds	r2, #2
    1f8a:	2100      	movs	r1, #0
    1f8c:	0092      	lsls	r2, r2, #2
/mnt/disk/raspbian-tee/optee_os/lib/libutee/tee_api_arith_mpi.c:146
    1f8e:	3c02      	subs	r4, #2
/mnt/disk/raspbian-tee/optee_os/lib/libutee/tee_api_arith_mpi.c:140
    1f90:	f003 ffba 	bl	5f08 <memset>
/mnt/disk/raspbian-tee/optee_os/lib/libutee/tee_api_arith_mpi.c:145
    1f94:	2301      	movs	r3, #1
    1f96:	602b      	str	r3, [r5, #0]
/mnt/disk/raspbian-tee/optee_os/lib/libutee/tee_api_arith_mpi.c:146
    1f98:	f242 7310 	movw	r3, #10000	; 0x2710
    1f9c:	429c      	cmp	r4, r3
    1f9e:	d907      	bls.n	1fb0 <TEE_BigIntInit+0x34>
/mnt/disk/raspbian-tee/optee_os/lib/libutee/tee_api_arith_mpi.c:147
    1fa0:	4804      	ldr	r0, [pc, #16]	; (1fb4 <TEE_BigIntInit+0x38>)
    1fa2:	2193      	movs	r1, #147	; 0x93
    1fa4:	4a04      	ldr	r2, [pc, #16]	; (1fb8 <TEE_BigIntInit+0x3c>)
    1fa6:	4478      	add	r0, pc
    1fa8:	447a      	add	r2, pc
    1faa:	3037      	adds	r0, #55	; 0x37
    1fac:	f000 fcf8 	bl	29a0 <api_panic>
/mnt/disk/raspbian-tee/optee_os/lib/libutee/tee_api_arith_mpi.c:148
    1fb0:	80ac      	strh	r4, [r5, #4]
    1fb2:	bd38      	pop	{r3, r4, r5, pc}
    1fb4:	000047f2 	.word	0x000047f2
    1fb8:	00004999 	.word	0x00004999

00001fbc <TEE_BigIntConvertFromOctetString>:
TEE_BigIntConvertFromOctetString():
/mnt/disk/raspbian-tee/optee_os/lib/libutee/tee_api_arith_mpi.c:154
    1fbc:	b5f0      	push	{r4, r5, r6, r7, lr}
    1fbe:	460c      	mov	r4, r1
    1fc0:	4617      	mov	r7, r2
    1fc2:	b085      	sub	sp, #20
/mnt/disk/raspbian-tee/optee_os/lib/libutee/tee_api_arith_mpi.c:158
    1fc4:	4601      	mov	r1, r0
    1fc6:	ad01      	add	r5, sp, #4
/mnt/disk/raspbian-tee/optee_os/lib/libutee/tee_api_arith_mpi.c:154
    1fc8:	461e      	mov	r6, r3
/mnt/disk/raspbian-tee/optee_os/lib/libutee/tee_api_arith_mpi.c:158
    1fca:	4628      	mov	r0, r5
    1fcc:	f7ff ff5e 	bl	1e8c <get_mpi>
/mnt/disk/raspbian-tee/optee_os/lib/libutee/tee_api_arith_mpi.c:160
    1fd0:	4621      	mov	r1, r4
    1fd2:	463a      	mov	r2, r7
    1fd4:	4628      	mov	r0, r5
    1fd6:	f001 f9fe 	bl	33d6 <mbedtls_mpi_read_binary>
/mnt/disk/raspbian-tee/optee_os/lib/libutee/tee_api_arith_mpi.c:163
    1fda:	2800      	cmp	r0, #0
    1fdc:	4c06      	ldr	r4, [pc, #24]	; (1ff8 <TEE_BigIntConvertFromOctetString+0x3c>)
    1fde:	bf08      	it	eq
    1fe0:	2400      	moveq	r4, #0
/mnt/disk/raspbian-tee/optee_os/lib/libutee/tee_api_arith_mpi.c:165
    1fe2:	2e00      	cmp	r6, #0
    1fe4:	da02      	bge.n	1fec <TEE_BigIntConvertFromOctetString+0x30>
/mnt/disk/raspbian-tee/optee_os/lib/libutee/tee_api_arith_mpi.c:166
    1fe6:	23ff      	movs	r3, #255	; 0xff
    1fe8:	f88d 3004 	strb.w	r3, [sp, #4]
/mnt/disk/raspbian-tee/optee_os/lib/libutee/tee_api_arith_mpi.c:168
    1fec:	4628      	mov	r0, r5
    1fee:	f7ff fd12 	bl	1a16 <put_mpi>
/mnt/disk/raspbian-tee/optee_os/lib/libutee/tee_api_arith_mpi.c:171
    1ff2:	4620      	mov	r0, r4
    1ff4:	b005      	add	sp, #20
    1ff6:	bdf0      	pop	{r4, r5, r6, r7, pc}
    1ff8:	ffff300f 	.word	0xffff300f

00001ffc <TEE_BigIntConvertToOctetString>:
TEE_BigIntConvertToOctetString():
/mnt/disk/raspbian-tee/optee_os/lib/libutee/tee_api_arith_mpi.c:175
    1ffc:	b5f0      	push	{r4, r5, r6, r7, lr}
    1ffe:	460f      	mov	r7, r1
    2000:	4604      	mov	r4, r0
    2002:	b085      	sub	sp, #20
/mnt/disk/raspbian-tee/optee_os/lib/libutee/tee_api_arith_mpi.c:180
    2004:	4611      	mov	r1, r2
    2006:	ad01      	add	r5, sp, #4
    2008:	4628      	mov	r0, r5
    200a:	f7ff fccf 	bl	19ac <get_const_mpi>
/mnt/disk/raspbian-tee/optee_os/lib/libutee/tee_api_arith_mpi.c:182
    200e:	4628      	mov	r0, r5
    2010:	f001 f9db 	bl	33ca <mbedtls_mpi_size>
/mnt/disk/raspbian-tee/optee_os/lib/libutee/tee_api_arith_mpi.c:183
    2014:	683b      	ldr	r3, [r7, #0]
/mnt/disk/raspbian-tee/optee_os/lib/libutee/tee_api_arith_mpi.c:182
    2016:	4606      	mov	r6, r0
/mnt/disk/raspbian-tee/optee_os/lib/libutee/tee_api_arith_mpi.c:183
    2018:	4298      	cmp	r0, r3
    201a:	d80c      	bhi.n	2036 <TEE_BigIntConvertToOctetString+0x3a>
/mnt/disk/raspbian-tee/optee_os/lib/libutee/tee_api_arith_mpi.c:184
    201c:	4602      	mov	r2, r0
    201e:	4621      	mov	r1, r4
    2020:	4628      	mov	r0, r5
    2022:	f001 fa0b 	bl	343c <mbedtls_mpi_write_binary>
    2026:	b170      	cbz	r0, 2046 <TEE_BigIntConvertToOctetString+0x4a>
/mnt/disk/raspbian-tee/optee_os/lib/libutee/tee_api_arith_mpi.c:184 (discriminator 1)
    2028:	4602      	mov	r2, r0
    202a:	4809      	ldr	r0, [pc, #36]	; (2050 <TEE_BigIntConvertToOctetString+0x54>)
    202c:	21b8      	movs	r1, #184	; 0xb8
    202e:	4478      	add	r0, pc
    2030:	3046      	adds	r0, #70	; 0x46
    2032:	f7ff fcab 	bl	198c <mpi_panic>
/mnt/disk/raspbian-tee/optee_os/lib/libutee/tee_api_arith_mpi.c:186
    2036:	4c05      	ldr	r4, [pc, #20]	; (204c <TEE_BigIntConvertToOctetString+0x50>)
/mnt/disk/raspbian-tee/optee_os/lib/libutee/tee_api_arith_mpi.c:190
    2038:	4628      	mov	r0, r5
/mnt/disk/raspbian-tee/optee_os/lib/libutee/tee_api_arith_mpi.c:188
    203a:	603e      	str	r6, [r7, #0]
/mnt/disk/raspbian-tee/optee_os/lib/libutee/tee_api_arith_mpi.c:190
    203c:	f7ff fceb 	bl	1a16 <put_mpi>
/mnt/disk/raspbian-tee/optee_os/lib/libutee/tee_api_arith_mpi.c:193
    2040:	4620      	mov	r0, r4
    2042:	b005      	add	sp, #20
    2044:	bdf0      	pop	{r4, r5, r6, r7, pc}
/mnt/disk/raspbian-tee/optee_os/lib/libutee/tee_api_arith_mpi.c:176
    2046:	4604      	mov	r4, r0
    2048:	e7f6      	b.n	2038 <TEE_BigIntConvertToOctetString+0x3c>
    204a:	bf00      	nop
    204c:	ffff0010 	.word	0xffff0010
    2050:	0000476a 	.word	0x0000476a

00002054 <TEE_BigIntConvertFromS32>:
TEE_BigIntConvertFromS32():
/mnt/disk/raspbian-tee/optee_os/lib/libutee/tee_api_arith_mpi.c:196
    2054:	b530      	push	{r4, r5, lr}
    2056:	460d      	mov	r5, r1
/mnt/disk/raspbian-tee/optee_os/lib/libutee/tee_api_arith_mpi.c:199
    2058:	4601      	mov	r1, r0
/mnt/disk/raspbian-tee/optee_os/lib/libutee/tee_api_arith_mpi.c:196
    205a:	b085      	sub	sp, #20
/mnt/disk/raspbian-tee/optee_os/lib/libutee/tee_api_arith_mpi.c:199
    205c:	ac01      	add	r4, sp, #4
    205e:	4620      	mov	r0, r4
    2060:	f7ff ff14 	bl	1e8c <get_mpi>
/mnt/disk/raspbian-tee/optee_os/lib/libutee/tee_api_arith_mpi.c:201
    2064:	4629      	mov	r1, r5
    2066:	4620      	mov	r0, r4
    2068:	f001 f923 	bl	32b2 <mbedtls_mpi_lset>
    206c:	4602      	mov	r2, r0
    206e:	b128      	cbz	r0, 207c <TEE_BigIntConvertFromS32+0x28>
/mnt/disk/raspbian-tee/optee_os/lib/libutee/tee_api_arith_mpi.c:201 (discriminator 1)
    2070:	4805      	ldr	r0, [pc, #20]	; (2088 <TEE_BigIntConvertFromS32+0x34>)
    2072:	21c9      	movs	r1, #201	; 0xc9
    2074:	4478      	add	r0, pc
    2076:	3065      	adds	r0, #101	; 0x65
    2078:	f7ff fc88 	bl	198c <mpi_panic>
/mnt/disk/raspbian-tee/optee_os/lib/libutee/tee_api_arith_mpi.c:203
    207c:	4620      	mov	r0, r4
    207e:	f7ff fcca 	bl	1a16 <put_mpi>
/mnt/disk/raspbian-tee/optee_os/lib/libutee/tee_api_arith_mpi.c:204
    2082:	b005      	add	sp, #20
    2084:	bd30      	pop	{r4, r5, pc}
    2086:	bf00      	nop
    2088:	00004724 	.word	0x00004724

0000208c <TEE_BigIntConvertToS32>:
TEE_BigIntConvertToS32():
/mnt/disk/raspbian-tee/optee_os/lib/libutee/tee_api_arith_mpi.c:207
    208c:	b530      	push	{r4, r5, lr}
    208e:	4605      	mov	r5, r0
    2090:	b085      	sub	sp, #20
/mnt/disk/raspbian-tee/optee_os/lib/libutee/tee_api_arith_mpi.c:212
    2092:	ac01      	add	r4, sp, #4
    2094:	4620      	mov	r0, r4
    2096:	f7ff fc89 	bl	19ac <get_const_mpi>
/mnt/disk/raspbian-tee/optee_os/lib/libutee/tee_api_arith_mpi.c:214
    209a:	2204      	movs	r2, #4
    209c:	4669      	mov	r1, sp
    209e:	4620      	mov	r0, r4
    20a0:	f001 f9cc 	bl	343c <mbedtls_mpi_write_binary>
    20a4:	b9d0      	cbnz	r0, 20dc <TEE_BigIntConvertToS32+0x50>
/mnt/disk/raspbian-tee/optee_os/lib/libutee/tee_api_arith_mpi.c:219
    20a6:	f99d 3004 	ldrsb.w	r3, [sp, #4]
    20aa:	2b00      	cmp	r3, #0
    20ac:	9b00      	ldr	r3, [sp, #0]
/mnt/disk/raspbian-tee/optee_os/lib/libutee/tee_api_arith_mpi.c:220
    20ae:	ba1b      	rev	r3, r3
/mnt/disk/raspbian-tee/optee_os/lib/libutee/tee_api_arith_mpi.c:219
    20b0:	dd09      	ble.n	20c6 <TEE_BigIntConvertToS32+0x3a>
/mnt/disk/raspbian-tee/optee_os/lib/libutee/tee_api_arith_mpi.c:220
    20b2:	602b      	str	r3, [r5, #0]
    20b4:	2b00      	cmp	r3, #0
    20b6:	db11      	blt.n	20dc <TEE_BigIntConvertToS32+0x50>
/mnt/disk/raspbian-tee/optee_os/lib/libutee/tee_api_arith_mpi.c:208
    20b8:	2500      	movs	r5, #0
/mnt/disk/raspbian-tee/optee_os/lib/libutee/tee_api_arith_mpi.c:228
    20ba:	4620      	mov	r0, r4
    20bc:	f7ff fcab 	bl	1a16 <put_mpi>
/mnt/disk/raspbian-tee/optee_os/lib/libutee/tee_api_arith_mpi.c:231
    20c0:	4628      	mov	r0, r5
    20c2:	b005      	add	sp, #20
    20c4:	bd30      	pop	{r4, r5, pc}
/mnt/disk/raspbian-tee/optee_os/lib/libutee/tee_api_arith_mpi.c:223
    20c6:	425a      	negs	r2, r3
    20c8:	b11b      	cbz	r3, 20d2 <TEE_BigIntConvertToS32+0x46>
    20ca:	2a00      	cmp	r2, #0
    20cc:	db03      	blt.n	20d6 <TEE_BigIntConvertToS32+0x4a>
    20ce:	2001      	movs	r0, #1
    20d0:	e001      	b.n	20d6 <TEE_BigIntConvertToS32+0x4a>
    20d2:	2a00      	cmp	r2, #0
    20d4:	dbfb      	blt.n	20ce <TEE_BigIntConvertToS32+0x42>
    20d6:	602a      	str	r2, [r5, #0]
    20d8:	2800      	cmp	r0, #0
    20da:	d0ed      	beq.n	20b8 <TEE_BigIntConvertToS32+0x2c>
/mnt/disk/raspbian-tee/optee_os/lib/libutee/tee_api_arith_mpi.c:221
    20dc:	4d00      	ldr	r5, [pc, #0]	; (20e0 <TEE_BigIntConvertToS32+0x54>)
    20de:	e7ec      	b.n	20ba <TEE_BigIntConvertToS32+0x2e>
    20e0:	ffff300f 	.word	0xffff300f

000020e4 <TEE_BigIntCmp>:
TEE_BigIntCmp():
/mnt/disk/raspbian-tee/optee_os/lib/libutee/tee_api_arith_mpi.c:234
    20e4:	b570      	push	{r4, r5, r6, lr}
    20e6:	460c      	mov	r4, r1
/mnt/disk/raspbian-tee/optee_os/lib/libutee/tee_api_arith_mpi.c:239
    20e8:	4601      	mov	r1, r0
/mnt/disk/raspbian-tee/optee_os/lib/libutee/tee_api_arith_mpi.c:234
    20ea:	b086      	sub	sp, #24
/mnt/disk/raspbian-tee/optee_os/lib/libutee/tee_api_arith_mpi.c:239
    20ec:	4668      	mov	r0, sp
    20ee:	f7ff fc5d 	bl	19ac <get_const_mpi>
/mnt/disk/raspbian-tee/optee_os/lib/libutee/tee_api_arith_mpi.c:240
    20f2:	4621      	mov	r1, r4
    20f4:	ac03      	add	r4, sp, #12
    20f6:	4620      	mov	r0, r4
    20f8:	f7ff fc58 	bl	19ac <get_const_mpi>
/mnt/disk/raspbian-tee/optee_os/lib/libutee/tee_api_arith_mpi.c:242
    20fc:	4621      	mov	r1, r4
    20fe:	4668      	mov	r0, sp
    2100:	f001 fa7e 	bl	3600 <mbedtls_mpi_cmp_mpi>
    2104:	4606      	mov	r6, r0
/mnt/disk/raspbian-tee/optee_os/lib/libutee/tee_api_arith_mpi.c:244
    2106:	4668      	mov	r0, sp
    2108:	f7ff fc85 	bl	1a16 <put_mpi>
/mnt/disk/raspbian-tee/optee_os/lib/libutee/tee_api_arith_mpi.c:245
    210c:	4620      	mov	r0, r4
    210e:	f7ff fc82 	bl	1a16 <put_mpi>
/mnt/disk/raspbian-tee/optee_os/lib/libutee/tee_api_arith_mpi.c:248
    2112:	4630      	mov	r0, r6
    2114:	b006      	add	sp, #24
    2116:	bd70      	pop	{r4, r5, r6, pc}

00002118 <TEE_BigIntCmpS32>:
TEE_BigIntCmpS32():
/mnt/disk/raspbian-tee/optee_os/lib/libutee/tee_api_arith_mpi.c:251
    2118:	b530      	push	{r4, r5, lr}
    211a:	460d      	mov	r5, r1
/mnt/disk/raspbian-tee/optee_os/lib/libutee/tee_api_arith_mpi.c:255
    211c:	4601      	mov	r1, r0
/mnt/disk/raspbian-tee/optee_os/lib/libutee/tee_api_arith_mpi.c:251
    211e:	b085      	sub	sp, #20
/mnt/disk/raspbian-tee/optee_os/lib/libutee/tee_api_arith_mpi.c:255
    2120:	ac01      	add	r4, sp, #4
    2122:	4620      	mov	r0, r4
    2124:	f7ff fc42 	bl	19ac <get_const_mpi>
/mnt/disk/raspbian-tee/optee_os/lib/libutee/tee_api_arith_mpi.c:257
    2128:	4629      	mov	r1, r5
    212a:	4620      	mov	r0, r4
    212c:	f001 fab3 	bl	3696 <mbedtls_mpi_cmp_int>
    2130:	4605      	mov	r5, r0
/mnt/disk/raspbian-tee/optee_os/lib/libutee/tee_api_arith_mpi.c:259
    2132:	4620      	mov	r0, r4
    2134:	f7ff fc6f 	bl	1a16 <put_mpi>
/mnt/disk/raspbian-tee/optee_os/lib/libutee/tee_api_arith_mpi.c:262
    2138:	4628      	mov	r0, r5
    213a:	b005      	add	sp, #20
    213c:	bd30      	pop	{r4, r5, pc}

0000213e <bigint_binary_mod>:
bigint_binary_mod():
/mnt/disk/raspbian-tee/optee_os/lib/libutee/tee_api_arith_mpi.c:370
    213e:	e92d 47f0 	stmdb	sp!, {r4, r5, r6, r7, r8, r9, sl, lr}
    2142:	4680      	mov	r8, r0
    2144:	460f      	mov	r7, r1
    2146:	b090      	sub	sp, #64	; 0x40
/mnt/disk/raspbian-tee/optee_os/lib/libutee/tee_api_arith_mpi.c:371
    2148:	2102      	movs	r1, #2
    214a:	4618      	mov	r0, r3
/mnt/disk/raspbian-tee/optee_os/lib/libutee/tee_api_arith_mpi.c:370
    214c:	4614      	mov	r4, r2
    214e:	461d      	mov	r5, r3
/mnt/disk/raspbian-tee/optee_os/lib/libutee/tee_api_arith_mpi.c:371
    2150:	f7ff ffe2 	bl	2118 <TEE_BigIntCmpS32>
    2154:	2800      	cmp	r0, #0
    2156:	da08      	bge.n	216a <bigint_binary_mod+0x2c>
/mnt/disk/raspbian-tee/optee_os/lib/libutee/tee_api_arith_mpi.c:372
    2158:	482f      	ldr	r0, [pc, #188]	; (2218 <bigint_binary_mod+0xda>)
    215a:	f44f 71ba 	mov.w	r1, #372	; 0x174
    215e:	4a2f      	ldr	r2, [pc, #188]	; (221c <bigint_binary_mod+0xde>)
    2160:	4478      	add	r0, pc
    2162:	447a      	add	r2, pc
    2164:	307e      	adds	r0, #126	; 0x7e
    2166:	f000 fc1b 	bl	29a0 <api_panic>
/mnt/disk/raspbian-tee/optee_os/lib/libutee/tee_api_arith_mpi.c:382
    216a:	ae01      	add	r6, sp, #4
    216c:	4641      	mov	r1, r8
    216e:	4630      	mov	r0, r6
/mnt/disk/raspbian-tee/optee_os/lib/libutee/tee_api_arith_mpi.c:383
    2170:	f10d 0a28 	add.w	sl, sp, #40	; 0x28
/mnt/disk/raspbian-tee/optee_os/lib/libutee/tee_api_arith_mpi.c:382
    2174:	f7ff fe8a 	bl	1e8c <get_mpi>
/mnt/disk/raspbian-tee/optee_os/lib/libutee/tee_api_arith_mpi.c:383
    2178:	4629      	mov	r1, r5
    217a:	4650      	mov	r0, sl
    217c:	f10d 0910 	add.w	r9, sp, #16
    2180:	f7ff fc14 	bl	19ac <get_const_mpi>
/mnt/disk/raspbian-tee/optee_os/lib/libutee/tee_api_arith_mpi.c:385
    2184:	45b8      	cmp	r8, r7
    2186:	d021      	beq.n	21cc <bigint_binary_mod+0x8e>
/mnt/disk/raspbian-tee/optee_os/lib/libutee/tee_api_arith_mpi.c:378
    2188:	464d      	mov	r5, r9
/mnt/disk/raspbian-tee/optee_os/lib/libutee/tee_api_arith_mpi.c:388
    218a:	4639      	mov	r1, r7
    218c:	4648      	mov	r0, r9
    218e:	f7ff fc0d 	bl	19ac <get_const_mpi>
/mnt/disk/raspbian-tee/optee_os/lib/libutee/tee_api_arith_mpi.c:390
    2192:	45a0      	cmp	r8, r4
    2194:	f10d 081c 	add.w	r8, sp, #28
    2198:	d01a      	beq.n	21d0 <bigint_binary_mod+0x92>
/mnt/disk/raspbian-tee/optee_os/lib/libutee/tee_api_arith_mpi.c:392
    219a:	42a7      	cmp	r7, r4
    219c:	d01a      	beq.n	21d4 <bigint_binary_mod+0x96>
/mnt/disk/raspbian-tee/optee_os/lib/libutee/tee_api_arith_mpi.c:395
    219e:	4621      	mov	r1, r4
/mnt/disk/raspbian-tee/optee_os/lib/libutee/tee_api_arith_mpi.c:379
    21a0:	4644      	mov	r4, r8
/mnt/disk/raspbian-tee/optee_os/lib/libutee/tee_api_arith_mpi.c:395
    21a2:	4640      	mov	r0, r8
    21a4:	f7ff fc02 	bl	19ac <get_const_mpi>
get_mpi():
/mnt/disk/raspbian-tee/optee_os/lib/libutee/tee_api_arith_mpi.c:99
    21a8:	af0d      	add	r7, sp, #52	; 0x34
    21aa:	4638      	mov	r0, r7
    21ac:	f000 fec9 	bl	2f42 <mbedtls_mpi_init_mempool>
bigint_binary_mod():
/mnt/disk/raspbian-tee/optee_os/lib/libutee/tee_api_arith_mpi.c:399
    21b0:	4622      	mov	r2, r4
    21b2:	4629      	mov	r1, r5
    21b4:	4638      	mov	r0, r7
    21b6:	9b18      	ldr	r3, [sp, #96]	; 0x60
    21b8:	4798      	blx	r3
    21ba:	4602      	mov	r2, r0
    21bc:	b160      	cbz	r0, 21d8 <bigint_binary_mod+0x9a>
/mnt/disk/raspbian-tee/optee_os/lib/libutee/tee_api_arith_mpi.c:399 (discriminator 1)
    21be:	4818      	ldr	r0, [pc, #96]	; (2220 <bigint_binary_mod+0xe2>)
    21c0:	f240 118f 	movw	r1, #399	; 0x18f
    21c4:	4478      	add	r0, pc
/mnt/disk/raspbian-tee/optee_os/lib/libutee/tee_api_arith_mpi.c:400 (discriminator 1)
    21c6:	307e      	adds	r0, #126	; 0x7e
    21c8:	f7ff fbe0 	bl	198c <mpi_panic>
/mnt/disk/raspbian-tee/optee_os/lib/libutee/tee_api_arith_mpi.c:386
    21cc:	4635      	mov	r5, r6
    21ce:	e7e0      	b.n	2192 <bigint_binary_mod+0x54>
/mnt/disk/raspbian-tee/optee_os/lib/libutee/tee_api_arith_mpi.c:391
    21d0:	4634      	mov	r4, r6
    21d2:	e7e9      	b.n	21a8 <bigint_binary_mod+0x6a>
/mnt/disk/raspbian-tee/optee_os/lib/libutee/tee_api_arith_mpi.c:393
    21d4:	462c      	mov	r4, r5
    21d6:	e7e7      	b.n	21a8 <bigint_binary_mod+0x6a>
/mnt/disk/raspbian-tee/optee_os/lib/libutee/tee_api_arith_mpi.c:400
    21d8:	4652      	mov	r2, sl
    21da:	4639      	mov	r1, r7
    21dc:	4630      	mov	r0, r6
    21de:	f001 fe85 	bl	3eec <mbedtls_mpi_mod_mpi>
    21e2:	4602      	mov	r2, r0
    21e4:	b120      	cbz	r0, 21f0 <bigint_binary_mod+0xb2>
/mnt/disk/raspbian-tee/optee_os/lib/libutee/tee_api_arith_mpi.c:400 (discriminator 1)
    21e6:	480f      	ldr	r0, [pc, #60]	; (2224 <bigint_binary_mod+0xe6>)
    21e8:	f44f 71c8 	mov.w	r1, #400	; 0x190
    21ec:	4478      	add	r0, pc
    21ee:	e7ea      	b.n	21c6 <bigint_binary_mod+0x88>
/mnt/disk/raspbian-tee/optee_os/lib/libutee/tee_api_arith_mpi.c:402
    21f0:	4630      	mov	r0, r6
    21f2:	f7ff fc10 	bl	1a16 <put_mpi>
/mnt/disk/raspbian-tee/optee_os/lib/libutee/tee_api_arith_mpi.c:403
    21f6:	454d      	cmp	r5, r9
    21f8:	d102      	bne.n	2200 <bigint_binary_mod+0xc2>
/mnt/disk/raspbian-tee/optee_os/lib/libutee/tee_api_arith_mpi.c:404
    21fa:	4628      	mov	r0, r5
    21fc:	f7ff fc0b 	bl	1a16 <put_mpi>
/mnt/disk/raspbian-tee/optee_os/lib/libutee/tee_api_arith_mpi.c:405
    2200:	4544      	cmp	r4, r8
    2202:	d102      	bne.n	220a <bigint_binary_mod+0xcc>
/mnt/disk/raspbian-tee/optee_os/lib/libutee/tee_api_arith_mpi.c:406
    2204:	4620      	mov	r0, r4
    2206:	f7ff fc06 	bl	1a16 <put_mpi>
/mnt/disk/raspbian-tee/optee_os/lib/libutee/tee_api_arith_mpi.c:407
    220a:	4638      	mov	r0, r7
    220c:	f7ff fc03 	bl	1a16 <put_mpi>
/mnt/disk/raspbian-tee/optee_os/lib/libutee/tee_api_arith_mpi.c:408
    2210:	b010      	add	sp, #64	; 0x40
    2212:	e8bd 87f0 	ldmia.w	sp!, {r4, r5, r6, r7, r8, r9, sl, pc}
    2216:	bf00      	nop
    2218:	00004638 	.word	0x00004638
    221c:	000047f0 	.word	0x000047f0
    2220:	000045d4 	.word	0x000045d4
    2224:	000045ac 	.word	0x000045ac

00002228 <TEE_BigIntShiftRight>:
TEE_BigIntShiftRight():
/mnt/disk/raspbian-tee/optee_os/lib/libutee/tee_api_arith_mpi.c:265
    2228:	b5f0      	push	{r4, r5, r6, r7, lr}
    222a:	4605      	mov	r5, r0
    222c:	460e      	mov	r6, r1
    222e:	b08b      	sub	sp, #44	; 0x2c
/mnt/disk/raspbian-tee/optee_os/lib/libutee/tee_api_arith_mpi.c:269
    2230:	4601      	mov	r1, r0
    2232:	ac01      	add	r4, sp, #4
/mnt/disk/raspbian-tee/optee_os/lib/libutee/tee_api_arith_mpi.c:265
    2234:	4617      	mov	r7, r2
/mnt/disk/raspbian-tee/optee_os/lib/libutee/tee_api_arith_mpi.c:269
    2236:	4620      	mov	r0, r4
    2238:	f7ff fe28 	bl	1e8c <get_mpi>
/mnt/disk/raspbian-tee/optee_os/lib/libutee/tee_api_arith_mpi.c:271
    223c:	42b5      	cmp	r5, r6
    223e:	d10d      	bne.n	225c <TEE_BigIntShiftRight+0x34>
/mnt/disk/raspbian-tee/optee_os/lib/libutee/tee_api_arith_mpi.c:272
    2240:	4639      	mov	r1, r7
    2242:	4620      	mov	r0, r4
    2244:	f001 f969 	bl	351a <mbedtls_mpi_shift_r>
    2248:	4602      	mov	r2, r0
    224a:	2800      	cmp	r0, #0
    224c:	d055      	beq.n	22fa <TEE_BigIntShiftRight+0xd2>
/mnt/disk/raspbian-tee/optee_os/lib/libutee/tee_api_arith_mpi.c:272 (discriminator 1)
    224e:	482d      	ldr	r0, [pc, #180]	; (2304 <TEE_BigIntShiftRight+0xdc>)
    2250:	f44f 7188 	mov.w	r1, #272	; 0x110
    2254:	4478      	add	r0, pc
/mnt/disk/raspbian-tee/optee_os/lib/libutee/tee_api_arith_mpi.c:279 (discriminator 1)
    2256:	3090      	adds	r0, #144	; 0x90
    2258:	f7ff fb98 	bl	198c <mpi_panic>
/mnt/disk/raspbian-tee/optee_os/lib/libutee/tee_api_arith_mpi.c:276
    225c:	ad04      	add	r5, sp, #16
    225e:	4631      	mov	r1, r6
    2260:	4628      	mov	r0, r5
    2262:	f7ff fba3 	bl	19ac <get_const_mpi>
/mnt/disk/raspbian-tee/optee_os/lib/libutee/tee_api_arith_mpi.c:278
    2266:	4620      	mov	r0, r4
    2268:	f001 f8af 	bl	33ca <mbedtls_mpi_size>
    226c:	4606      	mov	r6, r0
    226e:	4628      	mov	r0, r5
    2270:	f001 f8ab 	bl	33ca <mbedtls_mpi_size>
    2274:	4286      	cmp	r6, r0
    2276:	d315      	bcc.n	22a4 <TEE_BigIntShiftRight+0x7c>
/mnt/disk/raspbian-tee/optee_os/lib/libutee/tee_api_arith_mpi.c:279
    2278:	4629      	mov	r1, r5
    227a:	4620      	mov	r0, r4
    227c:	f000 ff5e 	bl	313c <mbedtls_mpi_copy>
    2280:	4602      	mov	r2, r0
    2282:	b120      	cbz	r0, 228e <TEE_BigIntShiftRight+0x66>
/mnt/disk/raspbian-tee/optee_os/lib/libutee/tee_api_arith_mpi.c:279 (discriminator 1)
    2284:	4820      	ldr	r0, [pc, #128]	; (2308 <TEE_BigIntShiftRight+0xe0>)
    2286:	f240 1117 	movw	r1, #279	; 0x117
    228a:	4478      	add	r0, pc
    228c:	e7e3      	b.n	2256 <TEE_BigIntShiftRight+0x2e>
/mnt/disk/raspbian-tee/optee_os/lib/libutee/tee_api_arith_mpi.c:280
    228e:	4639      	mov	r1, r7
    2290:	4620      	mov	r0, r4
    2292:	f001 f942 	bl	351a <mbedtls_mpi_shift_r>
    2296:	4602      	mov	r2, r0
    2298:	b360      	cbz	r0, 22f4 <TEE_BigIntShiftRight+0xcc>
/mnt/disk/raspbian-tee/optee_os/lib/libutee/tee_api_arith_mpi.c:280 (discriminator 1)
    229a:	481c      	ldr	r0, [pc, #112]	; (230c <TEE_BigIntShiftRight+0xe4>)
    229c:	f44f 718c 	mov.w	r1, #280	; 0x118
    22a0:	4478      	add	r0, pc
    22a2:	e7d8      	b.n	2256 <TEE_BigIntShiftRight+0x2e>
get_mpi():
/mnt/disk/raspbian-tee/optee_os/lib/libutee/tee_api_arith_mpi.c:99
    22a4:	ae07      	add	r6, sp, #28
    22a6:	4630      	mov	r0, r6
    22a8:	f000 fe4b 	bl	2f42 <mbedtls_mpi_init_mempool>
TEE_BigIntShiftRight():
/mnt/disk/raspbian-tee/optee_os/lib/libutee/tee_api_arith_mpi.c:291
    22ac:	4629      	mov	r1, r5
    22ae:	4630      	mov	r0, r6
    22b0:	f000 ff44 	bl	313c <mbedtls_mpi_copy>
    22b4:	4602      	mov	r2, r0
    22b6:	b120      	cbz	r0, 22c2 <TEE_BigIntShiftRight+0x9a>
/mnt/disk/raspbian-tee/optee_os/lib/libutee/tee_api_arith_mpi.c:291 (discriminator 1)
    22b8:	4815      	ldr	r0, [pc, #84]	; (2310 <TEE_BigIntShiftRight+0xe8>)
    22ba:	f240 1123 	movw	r1, #291	; 0x123
    22be:	4478      	add	r0, pc
    22c0:	e7c9      	b.n	2256 <TEE_BigIntShiftRight+0x2e>
/mnt/disk/raspbian-tee/optee_os/lib/libutee/tee_api_arith_mpi.c:292
    22c2:	4639      	mov	r1, r7
    22c4:	4630      	mov	r0, r6
    22c6:	f001 f928 	bl	351a <mbedtls_mpi_shift_r>
    22ca:	4602      	mov	r2, r0
    22cc:	b120      	cbz	r0, 22d8 <TEE_BigIntShiftRight+0xb0>
/mnt/disk/raspbian-tee/optee_os/lib/libutee/tee_api_arith_mpi.c:292 (discriminator 1)
    22ce:	4811      	ldr	r0, [pc, #68]	; (2314 <TEE_BigIntShiftRight+0xec>)
    22d0:	f44f 7192 	mov.w	r1, #292	; 0x124
    22d4:	4478      	add	r0, pc
    22d6:	e7be      	b.n	2256 <TEE_BigIntShiftRight+0x2e>
/mnt/disk/raspbian-tee/optee_os/lib/libutee/tee_api_arith_mpi.c:293
    22d8:	4631      	mov	r1, r6
    22da:	4620      	mov	r0, r4
    22dc:	f000 ff2e 	bl	313c <mbedtls_mpi_copy>
    22e0:	4602      	mov	r2, r0
    22e2:	b120      	cbz	r0, 22ee <TEE_BigIntShiftRight+0xc6>
/mnt/disk/raspbian-tee/optee_os/lib/libutee/tee_api_arith_mpi.c:293 (discriminator 1)
    22e4:	480c      	ldr	r0, [pc, #48]	; (2318 <TEE_BigIntShiftRight+0xf0>)
    22e6:	f240 1125 	movw	r1, #293	; 0x125
    22ea:	4478      	add	r0, pc
    22ec:	e7b3      	b.n	2256 <TEE_BigIntShiftRight+0x2e>
/mnt/disk/raspbian-tee/optee_os/lib/libutee/tee_api_arith_mpi.c:295
    22ee:	4630      	mov	r0, r6
    22f0:	f7ff fb91 	bl	1a16 <put_mpi>
/mnt/disk/raspbian-tee/optee_os/lib/libutee/tee_api_arith_mpi.c:298
    22f4:	4628      	mov	r0, r5
    22f6:	f7ff fb8e 	bl	1a16 <put_mpi>
/mnt/disk/raspbian-tee/optee_os/lib/libutee/tee_api_arith_mpi.c:301
    22fa:	4620      	mov	r0, r4
    22fc:	f7ff fb8b 	bl	1a16 <put_mpi>
/mnt/disk/raspbian-tee/optee_os/lib/libutee/tee_api_arith_mpi.c:302
    2300:	b00b      	add	sp, #44	; 0x2c
    2302:	bdf0      	pop	{r4, r5, r6, r7, pc}
    2304:	00004544 	.word	0x00004544
    2308:	0000450e 	.word	0x0000450e
    230c:	000044f8 	.word	0x000044f8
    2310:	000044da 	.word	0x000044da
    2314:	000044c4 	.word	0x000044c4
    2318:	000044ae 	.word	0x000044ae

0000231c <TEE_BigIntGetBit>:
TEE_BigIntGetBit():
/mnt/disk/raspbian-tee/optee_os/lib/libutee/tee_api_arith_mpi.c:305
    231c:	b530      	push	{r4, r5, lr}
    231e:	460d      	mov	r5, r1
/mnt/disk/raspbian-tee/optee_os/lib/libutee/tee_api_arith_mpi.c:309
    2320:	4601      	mov	r1, r0
/mnt/disk/raspbian-tee/optee_os/lib/libutee/tee_api_arith_mpi.c:305
    2322:	b085      	sub	sp, #20
/mnt/disk/raspbian-tee/optee_os/lib/libutee/tee_api_arith_mpi.c:309
    2324:	ac01      	add	r4, sp, #4
    2326:	4620      	mov	r0, r4
    2328:	f7ff fb40 	bl	19ac <get_const_mpi>
/mnt/disk/raspbian-tee/optee_os/lib/libutee/tee_api_arith_mpi.c:311
    232c:	4629      	mov	r1, r5
    232e:	4620      	mov	r0, r4
    2330:	f000 ffdb 	bl	32ea <mbedtls_mpi_get_bit>
    2334:	4605      	mov	r5, r0
/mnt/disk/raspbian-tee/optee_os/lib/libutee/tee_api_arith_mpi.c:313
    2336:	4620      	mov	r0, r4
    2338:	f7ff fb6d 	bl	1a16 <put_mpi>
/mnt/disk/raspbian-tee/optee_os/lib/libutee/tee_api_arith_mpi.c:316
    233c:	1c28      	adds	r0, r5, #0
    233e:	bf18      	it	ne
    2340:	2001      	movne	r0, #1
    2342:	b005      	add	sp, #20
    2344:	bd30      	pop	{r4, r5, pc}

00002346 <TEE_BigIntGetBitCount>:
TEE_BigIntGetBitCount():
/mnt/disk/raspbian-tee/optee_os/lib/libutee/tee_api_arith_mpi.c:319
    2346:	b530      	push	{r4, r5, lr}
/mnt/disk/raspbian-tee/optee_os/lib/libutee/tee_api_arith_mpi.c:323
    2348:	4601      	mov	r1, r0
/mnt/disk/raspbian-tee/optee_os/lib/libutee/tee_api_arith_mpi.c:319
    234a:	b085      	sub	sp, #20
/mnt/disk/raspbian-tee/optee_os/lib/libutee/tee_api_arith_mpi.c:323
    234c:	ac01      	add	r4, sp, #4
    234e:	4620      	mov	r0, r4
    2350:	f7ff fb2c 	bl	19ac <get_const_mpi>
/mnt/disk/raspbian-tee/optee_os/lib/libutee/tee_api_arith_mpi.c:325
    2354:	4620      	mov	r0, r4
    2356:	f001 f817 	bl	3388 <mbedtls_mpi_bitlen>
    235a:	4605      	mov	r5, r0
/mnt/disk/raspbian-tee/optee_os/lib/libutee/tee_api_arith_mpi.c:327
    235c:	4620      	mov	r0, r4
    235e:	f7ff fb5a 	bl	1a16 <put_mpi>
/mnt/disk/raspbian-tee/optee_os/lib/libutee/tee_api_arith_mpi.c:330
    2362:	4628      	mov	r0, r5
    2364:	b005      	add	sp, #20
    2366:	bd30      	pop	{r4, r5, pc}

00002368 <TEE_BigIntAdd>:
TEE_BigIntAdd():
/mnt/disk/raspbian-tee/optee_os/lib/libutee/tee_api_arith_mpi.c:412
    2368:	4b04      	ldr	r3, [pc, #16]	; (237c <TEE_BigIntAdd+0x14>)
    236a:	b417      	push	{r0, r1, r2, r4}
/mnt/disk/raspbian-tee/optee_os/lib/libutee/tee_api_arith_mpi.c:413
    236c:	4c04      	ldr	r4, [pc, #16]	; (2380 <TEE_BigIntAdd+0x18>)
/mnt/disk/raspbian-tee/optee_os/lib/libutee/tee_api_arith_mpi.c:412
    236e:	447b      	add	r3, pc
/mnt/disk/raspbian-tee/optee_os/lib/libutee/tee_api_arith_mpi.c:413
    2370:	591b      	ldr	r3, [r3, r4]
    2372:	9301      	str	r3, [sp, #4]
/mnt/disk/raspbian-tee/optee_os/lib/libutee/tee_api_arith_mpi.c:414
    2374:	b003      	add	sp, #12
    2376:	f85d 4b04 	ldr.w	r4, [sp], #4
/mnt/disk/raspbian-tee/optee_os/lib/libutee/tee_api_arith_mpi.c:413
    237a:	e599      	b.n	1eb0 <bigint_binary>
    237c:	000055f2 	.word	0x000055f2
    2380:	0000001c 	.word	0x0000001c

00002384 <TEE_BigIntSub>:
TEE_BigIntSub():
/mnt/disk/raspbian-tee/optee_os/lib/libutee/tee_api_arith_mpi.c:418
    2384:	4b04      	ldr	r3, [pc, #16]	; (2398 <TEE_BigIntSub+0x14>)
    2386:	b417      	push	{r0, r1, r2, r4}
/mnt/disk/raspbian-tee/optee_os/lib/libutee/tee_api_arith_mpi.c:419
    2388:	4c04      	ldr	r4, [pc, #16]	; (239c <TEE_BigIntSub+0x18>)
/mnt/disk/raspbian-tee/optee_os/lib/libutee/tee_api_arith_mpi.c:418
    238a:	447b      	add	r3, pc
/mnt/disk/raspbian-tee/optee_os/lib/libutee/tee_api_arith_mpi.c:419
    238c:	591b      	ldr	r3, [r3, r4]
    238e:	9301      	str	r3, [sp, #4]
/mnt/disk/raspbian-tee/optee_os/lib/libutee/tee_api_arith_mpi.c:420
    2390:	b003      	add	sp, #12
    2392:	f85d 4b04 	ldr.w	r4, [sp], #4
/mnt/disk/raspbian-tee/optee_os/lib/libutee/tee_api_arith_mpi.c:419
    2396:	e58b      	b.n	1eb0 <bigint_binary>
    2398:	000055d6 	.word	0x000055d6
    239c:	00000024 	.word	0x00000024

000023a0 <TEE_BigIntNeg>:
TEE_BigIntNeg():
/mnt/disk/raspbian-tee/optee_os/lib/libutee/tee_api_arith_mpi.c:423
    23a0:	b570      	push	{r4, r5, r6, lr}
    23a2:	4605      	mov	r5, r0
    23a4:	460e      	mov	r6, r1
    23a6:	b086      	sub	sp, #24
/mnt/disk/raspbian-tee/optee_os/lib/libutee/tee_api_arith_mpi.c:426
    23a8:	4601      	mov	r1, r0
    23aa:	4668      	mov	r0, sp
    23ac:	466c      	mov	r4, sp
    23ae:	f7ff fd6d 	bl	1e8c <get_mpi>
/mnt/disk/raspbian-tee/optee_os/lib/libutee/tee_api_arith_mpi.c:428
    23b2:	42b5      	cmp	r5, r6
    23b4:	d014      	beq.n	23e0 <TEE_BigIntNeg+0x40>
/mnt/disk/raspbian-tee/optee_os/lib/libutee/tee_api_arith_mpi.c:431
    23b6:	ad03      	add	r5, sp, #12
    23b8:	4631      	mov	r1, r6
    23ba:	4628      	mov	r0, r5
    23bc:	f7ff faf6 	bl	19ac <get_const_mpi>
/mnt/disk/raspbian-tee/optee_os/lib/libutee/tee_api_arith_mpi.c:433
    23c0:	4629      	mov	r1, r5
    23c2:	4668      	mov	r0, sp
    23c4:	f000 feba 	bl	313c <mbedtls_mpi_copy>
    23c8:	4602      	mov	r2, r0
    23ca:	b130      	cbz	r0, 23da <TEE_BigIntNeg+0x3a>
/mnt/disk/raspbian-tee/optee_os/lib/libutee/tee_api_arith_mpi.c:433 (discriminator 1)
    23cc:	4809      	ldr	r0, [pc, #36]	; (23f4 <TEE_BigIntNeg+0x54>)
    23ce:	f240 11b1 	movw	r1, #433	; 0x1b1
    23d2:	4478      	add	r0, pc
    23d4:	30a5      	adds	r0, #165	; 0xa5
    23d6:	f7ff fad9 	bl	198c <mpi_panic>
/mnt/disk/raspbian-tee/optee_os/lib/libutee/tee_api_arith_mpi.c:435
    23da:	4628      	mov	r0, r5
    23dc:	f7ff fb1b 	bl	1a16 <put_mpi>
/mnt/disk/raspbian-tee/optee_os/lib/libutee/tee_api_arith_mpi.c:438
    23e0:	f89d 3000 	ldrb.w	r3, [sp]
/mnt/disk/raspbian-tee/optee_os/lib/libutee/tee_api_arith_mpi.c:440
    23e4:	4620      	mov	r0, r4
/mnt/disk/raspbian-tee/optee_os/lib/libutee/tee_api_arith_mpi.c:438
    23e6:	425b      	negs	r3, r3
    23e8:	f88d 3000 	strb.w	r3, [sp]
/mnt/disk/raspbian-tee/optee_os/lib/libutee/tee_api_arith_mpi.c:440
    23ec:	f7ff fb13 	bl	1a16 <put_mpi>
/mnt/disk/raspbian-tee/optee_os/lib/libutee/tee_api_arith_mpi.c:441
    23f0:	b006      	add	sp, #24
    23f2:	bd70      	pop	{r4, r5, r6, pc}
    23f4:	000043c6 	.word	0x000043c6

000023f8 <TEE_BigIntMul>:
TEE_BigIntMul():
/mnt/disk/raspbian-tee/optee_os/lib/libutee/tee_api_arith_mpi.c:445
    23f8:	e92d 4ff0 	stmdb	sp!, {r4, r5, r6, r7, r8, r9, sl, fp, lr}
    23fc:	4690      	mov	r8, r2
    23fe:	4681      	mov	r9, r0
    2400:	b087      	sub	sp, #28
/mnt/disk/raspbian-tee/optee_os/lib/libutee/tee_api_arith_mpi.c:446
    2402:	4608      	mov	r0, r1
/mnt/disk/raspbian-tee/optee_os/lib/libutee/tee_api_arith_mpi.c:445
    2404:	460f      	mov	r7, r1
/mnt/disk/raspbian-tee/optee_os/lib/libutee/tee_api_arith_mpi.c:449
    2406:	f10d 0a0c 	add.w	sl, sp, #12
/mnt/disk/raspbian-tee/optee_os/lib/libutee/tee_api_arith_mpi.c:446
    240a:	f7ff ff9c 	bl	2346 <TEE_BigIntGetBitCount>
    240e:	4604      	mov	r4, r0
/mnt/disk/raspbian-tee/optee_os/lib/libutee/tee_api_arith_mpi.c:447
    2410:	4640      	mov	r0, r8
/mnt/disk/raspbian-tee/optee_os/lib/libutee/tee_api_arith_mpi.c:445
    2412:	4e1f      	ldr	r6, [pc, #124]	; (2490 <TEE_BigIntMul+0x98>)
/mnt/disk/raspbian-tee/optee_os/lib/libutee/tee_api_arith_mpi.c:447
    2414:	f7ff ff97 	bl	2346 <TEE_BigIntGetBitCount>
/mnt/disk/raspbian-tee/optee_os/lib/libutee/tee_api_arith_mpi.c:448
    2418:	f104 031f 	add.w	r3, r4, #31
    241c:	f100 041f 	add.w	r4, r0, #31
/mnt/disk/raspbian-tee/optee_os/lib/libutee/tee_api_arith_mpi.c:445
    2420:	447e      	add	r6, pc
/mnt/disk/raspbian-tee/optee_os/lib/libutee/tee_api_arith_mpi.c:448
    2422:	0964      	lsrs	r4, r4, #5
    2424:	eb04 1453 	add.w	r4, r4, r3, lsr #5
/mnt/disk/raspbian-tee/optee_os/lib/libutee/tee_api_arith_mpi.c:449
    2428:	2300      	movs	r3, #0
    242a:	9303      	str	r3, [sp, #12]
/mnt/disk/raspbian-tee/optee_os/lib/libutee/tee_api_arith_mpi.c:448
    242c:	3404      	adds	r4, #4
/mnt/disk/raspbian-tee/optee_os/lib/libutee/tee_api_arith_mpi.c:449
    242e:	f8ca 3004 	str.w	r3, [sl, #4]
/mnt/disk/raspbian-tee/optee_os/lib/libutee/tee_api_arith_mpi.c:452
    2432:	00a1      	lsls	r1, r4, #2
/mnt/disk/raspbian-tee/optee_os/lib/libutee/tee_api_arith_mpi.c:449
    2434:	f8ca 3008 	str.w	r3, [sl, #8]
/mnt/disk/raspbian-tee/optee_os/lib/libutee/tee_api_arith_mpi.c:452
    2438:	4b16      	ldr	r3, [pc, #88]	; (2494 <TEE_BigIntMul+0x9c>)
    243a:	f856 b003 	ldr.w	fp, [r6, r3]
    243e:	f8db 0000 	ldr.w	r0, [fp]
    2442:	f003 fccd 	bl	5de0 <mempool_alloc>
/mnt/disk/raspbian-tee/optee_os/lib/libutee/tee_api_arith_mpi.c:453
    2446:	4605      	mov	r5, r0
    2448:	b910      	cbnz	r0, 2450 <TEE_BigIntMul+0x58>
/mnt/disk/raspbian-tee/optee_os/lib/libutee/tee_api_arith_mpi.c:454
    244a:	4810      	ldr	r0, [pc, #64]	; (248c <TEE_BigIntMul+0x94>)
    244c:	f003 fe3a 	bl	60c4 <TEE_Panic>
/mnt/disk/raspbian-tee/optee_os/lib/libutee/tee_api_arith_mpi.c:456
    2450:	4621      	mov	r1, r4
    2452:	4628      	mov	r0, r5
    2454:	f7ff fd92 	bl	1f7c <TEE_BigIntInit>
/mnt/disk/raspbian-tee/optee_os/lib/libutee/tee_api_arith_mpi.c:457
    2458:	4650      	mov	r0, sl
    245a:	2103      	movs	r1, #3
    245c:	f7ff fd8e 	bl	1f7c <TEE_BigIntInit>
/mnt/disk/raspbian-tee/optee_os/lib/libutee/tee_api_arith_mpi.c:459
    2460:	4b0d      	ldr	r3, [pc, #52]	; (2498 <TEE_BigIntMul+0xa0>)
    2462:	4642      	mov	r2, r8
    2464:	4639      	mov	r1, r7
    2466:	4628      	mov	r0, r5
    2468:	58f3      	ldr	r3, [r6, r3]
    246a:	9301      	str	r3, [sp, #4]
    246c:	f7ff fd20 	bl	1eb0 <bigint_binary>
/mnt/disk/raspbian-tee/optee_os/lib/libutee/tee_api_arith_mpi.c:461
    2470:	4652      	mov	r2, sl
    2472:	4629      	mov	r1, r5
    2474:	4648      	mov	r0, r9
    2476:	f7ff ff77 	bl	2368 <TEE_BigIntAdd>
/mnt/disk/raspbian-tee/optee_os/lib/libutee/tee_api_arith_mpi.c:463
    247a:	4629      	mov	r1, r5
    247c:	f8db 0000 	ldr.w	r0, [fp]
    2480:	f003 fcf6 	bl	5e70 <mempool_free>
/mnt/disk/raspbian-tee/optee_os/lib/libutee/tee_api_arith_mpi.c:464
    2484:	b007      	add	sp, #28
    2486:	e8bd 8ff0 	ldmia.w	sp!, {r4, r5, r6, r7, r8, r9, sl, fp, pc}
    248a:	bf00      	nop
    248c:	ffff000c 	.word	0xffff000c
    2490:	00005540 	.word	0x00005540
    2494:	00000030 	.word	0x00000030
    2498:	00000018 	.word	0x00000018

0000249c <TEE_BigIntSquare>:
TEE_BigIntSquare():
/mnt/disk/raspbian-tee/optee_os/lib/libutee/tee_api_arith_mpi.c:468
    249c:	460a      	mov	r2, r1
    249e:	f7ff bfab 	b.w	23f8 <TEE_BigIntMul>

000024a2 <TEE_BigIntDiv>:
TEE_BigIntDiv():
/mnt/disk/raspbian-tee/optee_os/lib/libutee/tee_api_arith_mpi.c:473
    24a2:	e92d 4ff0 	stmdb	sp!, {r4, r5, r6, r7, r8, r9, sl, fp, lr}
    24a6:	4681      	mov	r9, r0
    24a8:	468b      	mov	fp, r1
    24aa:	b08d      	sub	sp, #52	; 0x34
/mnt/disk/raspbian-tee/optee_os/lib/libutee/tee_api_arith_mpi.c:481
    24ac:	4601      	mov	r1, r0
/mnt/disk/raspbian-tee/optee_os/lib/libutee/tee_api_arith_mpi.c:482
    24ae:	ae03      	add	r6, sp, #12
/mnt/disk/raspbian-tee/optee_os/lib/libutee/tee_api_arith_mpi.c:481
    24b0:	4668      	mov	r0, sp
/mnt/disk/raspbian-tee/optee_os/lib/libutee/tee_api_arith_mpi.c:473
    24b2:	4690      	mov	r8, r2
    24b4:	461c      	mov	r4, r3
/mnt/disk/raspbian-tee/optee_os/lib/libutee/tee_api_arith_mpi.c:481
    24b6:	f7ff fce9 	bl	1e8c <get_mpi>
/mnt/disk/raspbian-tee/optee_os/lib/libutee/tee_api_arith_mpi.c:482
    24ba:	4659      	mov	r1, fp
    24bc:	4630      	mov	r0, r6
/mnt/disk/raspbian-tee/optee_os/lib/libutee/tee_api_arith_mpi.c:481
    24be:	466f      	mov	r7, sp
/mnt/disk/raspbian-tee/optee_os/lib/libutee/tee_api_arith_mpi.c:482
    24c0:	f7ff fce4 	bl	1e8c <get_mpi>
    24c4:	f10d 0a18 	add.w	sl, sp, #24
/mnt/disk/raspbian-tee/optee_os/lib/libutee/tee_api_arith_mpi.c:484
    24c8:	45c1      	cmp	r9, r8
    24ca:	d022      	beq.n	2512 <TEE_BigIntDiv+0x70>
/mnt/disk/raspbian-tee/optee_os/lib/libutee/tee_api_arith_mpi.c:486
    24cc:	45c3      	cmp	fp, r8
    24ce:	d022      	beq.n	2516 <TEE_BigIntDiv+0x74>
/mnt/disk/raspbian-tee/optee_os/lib/libutee/tee_api_arith_mpi.c:478
    24d0:	4655      	mov	r5, sl
/mnt/disk/raspbian-tee/optee_os/lib/libutee/tee_api_arith_mpi.c:489
    24d2:	4641      	mov	r1, r8
    24d4:	4650      	mov	r0, sl
    24d6:	f7ff fa69 	bl	19ac <get_const_mpi>
/mnt/disk/raspbian-tee/optee_os/lib/libutee/tee_api_arith_mpi.c:491
    24da:	45a1      	cmp	r9, r4
    24dc:	f10d 0924 	add.w	r9, sp, #36	; 0x24
    24e0:	d01b      	beq.n	251a <TEE_BigIntDiv+0x78>
/mnt/disk/raspbian-tee/optee_os/lib/libutee/tee_api_arith_mpi.c:493
    24e2:	45a3      	cmp	fp, r4
    24e4:	d01b      	beq.n	251e <TEE_BigIntDiv+0x7c>
/mnt/disk/raspbian-tee/optee_os/lib/libutee/tee_api_arith_mpi.c:495
    24e6:	45a0      	cmp	r8, r4
    24e8:	d01b      	beq.n	2522 <TEE_BigIntDiv+0x80>
/mnt/disk/raspbian-tee/optee_os/lib/libutee/tee_api_arith_mpi.c:498
    24ea:	4621      	mov	r1, r4
/mnt/disk/raspbian-tee/optee_os/lib/libutee/tee_api_arith_mpi.c:479
    24ec:	464c      	mov	r4, r9
/mnt/disk/raspbian-tee/optee_os/lib/libutee/tee_api_arith_mpi.c:498
    24ee:	4648      	mov	r0, r9
    24f0:	f7ff fa5c 	bl	19ac <get_const_mpi>
/mnt/disk/raspbian-tee/optee_os/lib/libutee/tee_api_arith_mpi.c:500
    24f4:	462a      	mov	r2, r5
    24f6:	4623      	mov	r3, r4
    24f8:	4631      	mov	r1, r6
    24fa:	4638      	mov	r0, r7
    24fc:	f001 fb0e 	bl	3b1c <mbedtls_mpi_div_mpi>
    2500:	4602      	mov	r2, r0
    2502:	b180      	cbz	r0, 2526 <TEE_BigIntDiv+0x84>
/mnt/disk/raspbian-tee/optee_os/lib/libutee/tee_api_arith_mpi.c:500 (discriminator 1)
    2504:	4811      	ldr	r0, [pc, #68]	; (254c <TEE_BigIntDiv+0xaa>)
    2506:	f44f 71fa 	mov.w	r1, #500	; 0x1f4
    250a:	4478      	add	r0, pc
    250c:	30b3      	adds	r0, #179	; 0xb3
    250e:	f7ff fa3d 	bl	198c <mpi_panic>
/mnt/disk/raspbian-tee/optee_os/lib/libutee/tee_api_arith_mpi.c:485
    2512:	466d      	mov	r5, sp
    2514:	e7e1      	b.n	24da <TEE_BigIntDiv+0x38>
/mnt/disk/raspbian-tee/optee_os/lib/libutee/tee_api_arith_mpi.c:487
    2516:	4635      	mov	r5, r6
    2518:	e7df      	b.n	24da <TEE_BigIntDiv+0x38>
/mnt/disk/raspbian-tee/optee_os/lib/libutee/tee_api_arith_mpi.c:492
    251a:	463c      	mov	r4, r7
    251c:	e7ea      	b.n	24f4 <TEE_BigIntDiv+0x52>
/mnt/disk/raspbian-tee/optee_os/lib/libutee/tee_api_arith_mpi.c:494
    251e:	4634      	mov	r4, r6
    2520:	e7e8      	b.n	24f4 <TEE_BigIntDiv+0x52>
/mnt/disk/raspbian-tee/optee_os/lib/libutee/tee_api_arith_mpi.c:496
    2522:	462c      	mov	r4, r5
    2524:	e7e6      	b.n	24f4 <TEE_BigIntDiv+0x52>
/mnt/disk/raspbian-tee/optee_os/lib/libutee/tee_api_arith_mpi.c:502
    2526:	4638      	mov	r0, r7
    2528:	f7ff fa75 	bl	1a16 <put_mpi>
/mnt/disk/raspbian-tee/optee_os/lib/libutee/tee_api_arith_mpi.c:503
    252c:	4630      	mov	r0, r6
    252e:	f7ff fa72 	bl	1a16 <put_mpi>
/mnt/disk/raspbian-tee/optee_os/lib/libutee/tee_api_arith_mpi.c:504
    2532:	4555      	cmp	r5, sl
    2534:	d102      	bne.n	253c <TEE_BigIntDiv+0x9a>
/mnt/disk/raspbian-tee/optee_os/lib/libutee/tee_api_arith_mpi.c:505
    2536:	4628      	mov	r0, r5
    2538:	f7ff fa6d 	bl	1a16 <put_mpi>
/mnt/disk/raspbian-tee/optee_os/lib/libutee/tee_api_arith_mpi.c:506
    253c:	454c      	cmp	r4, r9
    253e:	d102      	bne.n	2546 <TEE_BigIntDiv+0xa4>
/mnt/disk/raspbian-tee/optee_os/lib/libutee/tee_api_arith_mpi.c:507
    2540:	4620      	mov	r0, r4
    2542:	f7ff fa68 	bl	1a16 <put_mpi>
/mnt/disk/raspbian-tee/optee_os/lib/libutee/tee_api_arith_mpi.c:508
    2546:	b00d      	add	sp, #52	; 0x34
    2548:	e8bd 8ff0 	ldmia.w	sp!, {r4, r5, r6, r7, r8, r9, sl, fp, pc}
    254c:	0000428e 	.word	0x0000428e

00002550 <TEE_BigIntMod>:
TEE_BigIntMod():
/mnt/disk/raspbian-tee/optee_os/lib/libutee/tee_api_arith_mpi.c:511
    2550:	b5f7      	push	{r0, r1, r2, r4, r5, r6, r7, lr}
    2552:	4606      	mov	r6, r0
    2554:	4d0e      	ldr	r5, [pc, #56]	; (2590 <TEE_BigIntMod+0x40>)
    2556:	460f      	mov	r7, r1
/mnt/disk/raspbian-tee/optee_os/lib/libutee/tee_api_arith_mpi.c:512
    2558:	4610      	mov	r0, r2
    255a:	2102      	movs	r1, #2
/mnt/disk/raspbian-tee/optee_os/lib/libutee/tee_api_arith_mpi.c:511
    255c:	4614      	mov	r4, r2
    255e:	447d      	add	r5, pc
/mnt/disk/raspbian-tee/optee_os/lib/libutee/tee_api_arith_mpi.c:512
    2560:	f7ff fdda 	bl	2118 <TEE_BigIntCmpS32>
    2564:	2800      	cmp	r0, #0
    2566:	da08      	bge.n	257a <TEE_BigIntMod+0x2a>
/mnt/disk/raspbian-tee/optee_os/lib/libutee/tee_api_arith_mpi.c:513
    2568:	480a      	ldr	r0, [pc, #40]	; (2594 <TEE_BigIntMod+0x44>)
    256a:	f240 2101 	movw	r1, #513	; 0x201
    256e:	4a0a      	ldr	r2, [pc, #40]	; (2598 <TEE_BigIntMod+0x48>)
    2570:	4478      	add	r0, pc
    2572:	447a      	add	r2, pc
    2574:	30c1      	adds	r0, #193	; 0xc1
    2576:	f000 fa13 	bl	29a0 <api_panic>
/mnt/disk/raspbian-tee/optee_os/lib/libutee/tee_api_arith_mpi.c:515
    257a:	4b08      	ldr	r3, [pc, #32]	; (259c <TEE_BigIntMod+0x4c>)
    257c:	4622      	mov	r2, r4
    257e:	4639      	mov	r1, r7
    2580:	4630      	mov	r0, r6
    2582:	58eb      	ldr	r3, [r5, r3]
    2584:	9301      	str	r3, [sp, #4]
/mnt/disk/raspbian-tee/optee_os/lib/libutee/tee_api_arith_mpi.c:516
    2586:	b003      	add	sp, #12
    2588:	e8bd 40f0 	ldmia.w	sp!, {r4, r5, r6, r7, lr}
/mnt/disk/raspbian-tee/optee_os/lib/libutee/tee_api_arith_mpi.c:515
    258c:	e490      	b.n	1eb0 <bigint_binary>
    258e:	bf00      	nop
    2590:	00005402 	.word	0x00005402
    2594:	00004228 	.word	0x00004228
    2598:	000043e0 	.word	0x000043e0
    259c:	00000028 	.word	0x00000028

000025a0 <TEE_BigIntAddMod>:
TEE_BigIntAddMod():
/mnt/disk/raspbian-tee/optee_os/lib/libutee/tee_api_arith_mpi.c:520
    25a0:	b537      	push	{r0, r1, r2, r4, r5, lr}
    25a2:	4c04      	ldr	r4, [pc, #16]	; (25b4 <TEE_BigIntAddMod+0x14>)
/mnt/disk/raspbian-tee/optee_os/lib/libutee/tee_api_arith_mpi.c:521
    25a4:	4d04      	ldr	r5, [pc, #16]	; (25b8 <TEE_BigIntAddMod+0x18>)
/mnt/disk/raspbian-tee/optee_os/lib/libutee/tee_api_arith_mpi.c:520
    25a6:	447c      	add	r4, pc
/mnt/disk/raspbian-tee/optee_os/lib/libutee/tee_api_arith_mpi.c:521
    25a8:	5964      	ldr	r4, [r4, r5]
    25aa:	9400      	str	r4, [sp, #0]
    25ac:	f7ff fdc7 	bl	213e <bigint_binary_mod>
/mnt/disk/raspbian-tee/optee_os/lib/libutee/tee_api_arith_mpi.c:522
    25b0:	b003      	add	sp, #12
    25b2:	bd30      	pop	{r4, r5, pc}
    25b4:	000053ba 	.word	0x000053ba
    25b8:	0000001c 	.word	0x0000001c

000025bc <TEE_BigIntSubMod>:
TEE_BigIntSubMod():
/mnt/disk/raspbian-tee/optee_os/lib/libutee/tee_api_arith_mpi.c:526
    25bc:	b537      	push	{r0, r1, r2, r4, r5, lr}
    25be:	4c04      	ldr	r4, [pc, #16]	; (25d0 <TEE_BigIntSubMod+0x14>)
/mnt/disk/raspbian-tee/optee_os/lib/libutee/tee_api_arith_mpi.c:527
    25c0:	4d04      	ldr	r5, [pc, #16]	; (25d4 <TEE_BigIntSubMod+0x18>)
/mnt/disk/raspbian-tee/optee_os/lib/libutee/tee_api_arith_mpi.c:526
    25c2:	447c      	add	r4, pc
/mnt/disk/raspbian-tee/optee_os/lib/libutee/tee_api_arith_mpi.c:527
    25c4:	5964      	ldr	r4, [r4, r5]
    25c6:	9400      	str	r4, [sp, #0]
    25c8:	f7ff fdb9 	bl	213e <bigint_binary_mod>
/mnt/disk/raspbian-tee/optee_os/lib/libutee/tee_api_arith_mpi.c:528
    25cc:	b003      	add	sp, #12
    25ce:	bd30      	pop	{r4, r5, pc}
    25d0:	0000539e 	.word	0x0000539e
    25d4:	00000024 	.word	0x00000024

000025d8 <TEE_BigIntMulMod>:
TEE_BigIntMulMod():
/mnt/disk/raspbian-tee/optee_os/lib/libutee/tee_api_arith_mpi.c:532
    25d8:	b537      	push	{r0, r1, r2, r4, r5, lr}
    25da:	4c04      	ldr	r4, [pc, #16]	; (25ec <TEE_BigIntMulMod+0x14>)
/mnt/disk/raspbian-tee/optee_os/lib/libutee/tee_api_arith_mpi.c:533
    25dc:	4d04      	ldr	r5, [pc, #16]	; (25f0 <TEE_BigIntMulMod+0x18>)
/mnt/disk/raspbian-tee/optee_os/lib/libutee/tee_api_arith_mpi.c:532
    25de:	447c      	add	r4, pc
/mnt/disk/raspbian-tee/optee_os/lib/libutee/tee_api_arith_mpi.c:533
    25e0:	5964      	ldr	r4, [r4, r5]
    25e2:	9400      	str	r4, [sp, #0]
    25e4:	f7ff fdab 	bl	213e <bigint_binary_mod>
/mnt/disk/raspbian-tee/optee_os/lib/libutee/tee_api_arith_mpi.c:534
    25e8:	b003      	add	sp, #12
    25ea:	bd30      	pop	{r4, r5, pc}
    25ec:	00005382 	.word	0x00005382
    25f0:	00000018 	.word	0x00000018

000025f4 <TEE_BigIntSquareMod>:
TEE_BigIntSquareMod():
/mnt/disk/raspbian-tee/optee_os/lib/libutee/tee_api_arith_mpi.c:539
    25f4:	4613      	mov	r3, r2
    25f6:	460a      	mov	r2, r1
    25f8:	f7ff bfee 	b.w	25d8 <TEE_BigIntMulMod>

000025fc <TEE_BigIntInvMod>:
TEE_BigIntInvMod():
/mnt/disk/raspbian-tee/optee_os/lib/libutee/tee_api_arith_mpi.c:544
    25fc:	e92d 41f0 	stmdb	sp!, {r4, r5, r6, r7, r8, lr}
    2600:	4606      	mov	r6, r0
    2602:	460c      	mov	r4, r1
    2604:	b08a      	sub	sp, #40	; 0x28
/mnt/disk/raspbian-tee/optee_os/lib/libutee/tee_api_arith_mpi.c:545
    2606:	2102      	movs	r1, #2
    2608:	4610      	mov	r0, r2
/mnt/disk/raspbian-tee/optee_os/lib/libutee/tee_api_arith_mpi.c:544
    260a:	4690      	mov	r8, r2
/mnt/disk/raspbian-tee/optee_os/lib/libutee/tee_api_arith_mpi.c:545
    260c:	f7ff fd84 	bl	2118 <TEE_BigIntCmpS32>
    2610:	2800      	cmp	r0, #0
    2612:	da08      	bge.n	2626 <TEE_BigIntInvMod+0x2a>
/mnt/disk/raspbian-tee/optee_os/lib/libutee/tee_api_arith_mpi.c:546
    2614:	481f      	ldr	r0, [pc, #124]	; (2694 <TEE_BigIntInvMod+0x98>)
    2616:	f240 2122 	movw	r1, #546	; 0x222
    261a:	4a1f      	ldr	r2, [pc, #124]	; (2698 <TEE_BigIntInvMod+0x9c>)
    261c:	4478      	add	r0, pc
    261e:	447a      	add	r2, pc
    2620:	30cf      	adds	r0, #207	; 0xcf
    2622:	f000 f9bd 	bl	29a0 <api_panic>
/mnt/disk/raspbian-tee/optee_os/lib/libutee/tee_api_arith_mpi.c:545 (discriminator 1)
    2626:	2100      	movs	r1, #0
    2628:	4620      	mov	r0, r4
    262a:	f7ff fd75 	bl	2118 <TEE_BigIntCmpS32>
    262e:	2800      	cmp	r0, #0
    2630:	d0f0      	beq.n	2614 <TEE_BigIntInvMod+0x18>
/mnt/disk/raspbian-tee/optee_os/lib/libutee/tee_api_arith_mpi.c:553
    2632:	ad01      	add	r5, sp, #4
    2634:	4631      	mov	r1, r6
    2636:	4628      	mov	r0, r5
/mnt/disk/raspbian-tee/optee_os/lib/libutee/tee_api_arith_mpi.c:554
    2638:	af07      	add	r7, sp, #28
/mnt/disk/raspbian-tee/optee_os/lib/libutee/tee_api_arith_mpi.c:553
    263a:	f7ff fc27 	bl	1e8c <get_mpi>
/mnt/disk/raspbian-tee/optee_os/lib/libutee/tee_api_arith_mpi.c:554
    263e:	4641      	mov	r1, r8
    2640:	4638      	mov	r0, r7
    2642:	f7ff f9b3 	bl	19ac <get_const_mpi>
/mnt/disk/raspbian-tee/optee_os/lib/libutee/tee_api_arith_mpi.c:556
    2646:	42b4      	cmp	r4, r6
    2648:	ae04      	add	r6, sp, #16
    264a:	d012      	beq.n	2672 <TEE_BigIntInvMod+0x76>
/mnt/disk/raspbian-tee/optee_os/lib/libutee/tee_api_arith_mpi.c:559
    264c:	4621      	mov	r1, r4
/mnt/disk/raspbian-tee/optee_os/lib/libutee/tee_api_arith_mpi.c:551
    264e:	4634      	mov	r4, r6
/mnt/disk/raspbian-tee/optee_os/lib/libutee/tee_api_arith_mpi.c:559
    2650:	4630      	mov	r0, r6
    2652:	f7ff f9ab 	bl	19ac <get_const_mpi>
/mnt/disk/raspbian-tee/optee_os/lib/libutee/tee_api_arith_mpi.c:561
    2656:	463a      	mov	r2, r7
    2658:	4621      	mov	r1, r4
    265a:	4628      	mov	r0, r5
    265c:	f002 f9e9 	bl	4a32 <mbedtls_mpi_inv_mod>
    2660:	4602      	mov	r2, r0
    2662:	b140      	cbz	r0, 2676 <TEE_BigIntInvMod+0x7a>
/mnt/disk/raspbian-tee/optee_os/lib/libutee/tee_api_arith_mpi.c:561 (discriminator 1)
    2664:	480d      	ldr	r0, [pc, #52]	; (269c <TEE_BigIntInvMod+0xa0>)
    2666:	f240 2131 	movw	r1, #561	; 0x231
    266a:	4478      	add	r0, pc
    266c:	30cf      	adds	r0, #207	; 0xcf
    266e:	f7ff f98d 	bl	198c <mpi_panic>
/mnt/disk/raspbian-tee/optee_os/lib/libutee/tee_api_arith_mpi.c:557
    2672:	462c      	mov	r4, r5
    2674:	e7ef      	b.n	2656 <TEE_BigIntInvMod+0x5a>
/mnt/disk/raspbian-tee/optee_os/lib/libutee/tee_api_arith_mpi.c:563
    2676:	4628      	mov	r0, r5
    2678:	f7ff f9cd 	bl	1a16 <put_mpi>
/mnt/disk/raspbian-tee/optee_os/lib/libutee/tee_api_arith_mpi.c:564
    267c:	4638      	mov	r0, r7
    267e:	f7ff f9ca 	bl	1a16 <put_mpi>
/mnt/disk/raspbian-tee/optee_os/lib/libutee/tee_api_arith_mpi.c:565
    2682:	42b4      	cmp	r4, r6
    2684:	d102      	bne.n	268c <TEE_BigIntInvMod+0x90>
/mnt/disk/raspbian-tee/optee_os/lib/libutee/tee_api_arith_mpi.c:566
    2686:	4620      	mov	r0, r4
    2688:	f7ff f9c5 	bl	1a16 <put_mpi>
/mnt/disk/raspbian-tee/optee_os/lib/libutee/tee_api_arith_mpi.c:567
    268c:	b00a      	add	sp, #40	; 0x28
    268e:	e8bd 81f0 	ldmia.w	sp!, {r4, r5, r6, r7, r8, pc}
    2692:	bf00      	nop
    2694:	0000417c 	.word	0x0000417c
    2698:	00004349 	.word	0x00004349
    269c:	0000412e 	.word	0x0000412e

000026a0 <TEE_BigIntRelativePrime>:
TEE_BigIntRelativePrime():
/mnt/disk/raspbian-tee/optee_os/lib/libutee/tee_api_arith_mpi.c:570
    26a0:	e92d 41f0 	stmdb	sp!, {r4, r5, r6, r7, r8, lr}
    26a4:	4604      	mov	r4, r0
    26a6:	460e      	mov	r6, r1
    26a8:	b08a      	sub	sp, #40	; 0x28
/mnt/disk/raspbian-tee/optee_os/lib/libutee/tee_api_arith_mpi.c:577
    26aa:	4601      	mov	r1, r0
    26ac:	ad01      	add	r5, sp, #4
    26ae:	4628      	mov	r0, r5
    26b0:	f7ff f97c 	bl	19ac <get_const_mpi>
/mnt/disk/raspbian-tee/optee_os/lib/libutee/tee_api_arith_mpi.c:579
    26b4:	42b4      	cmp	r4, r6
    26b6:	ac04      	add	r4, sp, #16
    26b8:	d016      	beq.n	26e8 <TEE_BigIntRelativePrime+0x48>
/mnt/disk/raspbian-tee/optee_os/lib/libutee/tee_api_arith_mpi.c:574
    26ba:	46a0      	mov	r8, r4
/mnt/disk/raspbian-tee/optee_os/lib/libutee/tee_api_arith_mpi.c:582
    26bc:	4631      	mov	r1, r6
    26be:	4620      	mov	r0, r4
    26c0:	f7ff f974 	bl	19ac <get_const_mpi>
get_mpi():
/mnt/disk/raspbian-tee/optee_os/lib/libutee/tee_api_arith_mpi.c:99
    26c4:	ae07      	add	r6, sp, #28
    26c6:	4630      	mov	r0, r6
    26c8:	f000 fc3b 	bl	2f42 <mbedtls_mpi_init_mempool>
TEE_BigIntRelativePrime():
/mnt/disk/raspbian-tee/optee_os/lib/libutee/tee_api_arith_mpi.c:586
    26cc:	4622      	mov	r2, r4
    26ce:	4629      	mov	r1, r5
    26d0:	4630      	mov	r0, r6
    26d2:	f002 f800 	bl	46d6 <mbedtls_mpi_gcd>
    26d6:	4602      	mov	r2, r0
    26d8:	b140      	cbz	r0, 26ec <TEE_BigIntRelativePrime+0x4c>
/mnt/disk/raspbian-tee/optee_os/lib/libutee/tee_api_arith_mpi.c:586 (discriminator 1)
    26da:	480f      	ldr	r0, [pc, #60]	; (2718 <TEE_BigIntRelativePrime+0x78>)
    26dc:	f240 214a 	movw	r1, #586	; 0x24a
    26e0:	4478      	add	r0, pc
    26e2:	30e0      	adds	r0, #224	; 0xe0
    26e4:	f7ff f952 	bl	198c <mpi_panic>
/mnt/disk/raspbian-tee/optee_os/lib/libutee/tee_api_arith_mpi.c:580
    26e8:	46a8      	mov	r8, r5
    26ea:	e7eb      	b.n	26c4 <TEE_BigIntRelativePrime+0x24>
/mnt/disk/raspbian-tee/optee_os/lib/libutee/tee_api_arith_mpi.c:588
    26ec:	2101      	movs	r1, #1
    26ee:	4630      	mov	r0, r6
    26f0:	f000 ffd1 	bl	3696 <mbedtls_mpi_cmp_int>
    26f4:	fab0 f780 	clz	r7, r0
/mnt/disk/raspbian-tee/optee_os/lib/libutee/tee_api_arith_mpi.c:590
    26f8:	4630      	mov	r0, r6
/mnt/disk/raspbian-tee/optee_os/lib/libutee/tee_api_arith_mpi.c:588
    26fa:	097f      	lsrs	r7, r7, #5
/mnt/disk/raspbian-tee/optee_os/lib/libutee/tee_api_arith_mpi.c:590
    26fc:	f7ff f98b 	bl	1a16 <put_mpi>
/mnt/disk/raspbian-tee/optee_os/lib/libutee/tee_api_arith_mpi.c:591
    2700:	4628      	mov	r0, r5
    2702:	f7ff f988 	bl	1a16 <put_mpi>
/mnt/disk/raspbian-tee/optee_os/lib/libutee/tee_api_arith_mpi.c:592
    2706:	45a0      	cmp	r8, r4
    2708:	d102      	bne.n	2710 <TEE_BigIntRelativePrime+0x70>
/mnt/disk/raspbian-tee/optee_os/lib/libutee/tee_api_arith_mpi.c:593
    270a:	4640      	mov	r0, r8
    270c:	f7ff f983 	bl	1a16 <put_mpi>
/mnt/disk/raspbian-tee/optee_os/lib/libutee/tee_api_arith_mpi.c:596
    2710:	4638      	mov	r0, r7
    2712:	b00a      	add	sp, #40	; 0x28
    2714:	e8bd 81f0 	ldmia.w	sp!, {r4, r5, r6, r7, r8, pc}
    2718:	000040b8 	.word	0x000040b8

0000271c <TEE_BigIntComputeExtendedGcd>:
TEE_BigIntComputeExtendedGcd():
/mnt/disk/raspbian-tee/optee_os/lib/libutee/tee_api_arith_mpi.c:707
    271c:	e92d 4ff0 	stmdb	sp!, {r4, r5, r6, r7, r8, r9, sl, fp, lr}
    2720:	4699      	mov	r9, r3
    2722:	4680      	mov	r8, r0
    2724:	b095      	sub	sp, #84	; 0x54
    2726:	460f      	mov	r7, r1
/mnt/disk/raspbian-tee/optee_os/lib/libutee/tee_api_arith_mpi.c:713
    2728:	ae05      	add	r6, sp, #20
    272a:	4601      	mov	r1, r0
/mnt/disk/raspbian-tee/optee_os/lib/libutee/tee_api_arith_mpi.c:714
    272c:	ad08      	add	r5, sp, #32
/mnt/disk/raspbian-tee/optee_os/lib/libutee/tee_api_arith_mpi.c:713
    272e:	4630      	mov	r0, r6
/mnt/disk/raspbian-tee/optee_os/lib/libutee/tee_api_arith_mpi.c:707
    2730:	9c1e      	ldr	r4, [sp, #120]	; 0x78
    2732:	4692      	mov	sl, r2
/mnt/disk/raspbian-tee/optee_os/lib/libutee/tee_api_arith_mpi.c:713
    2734:	f7ff fbaa 	bl	1e8c <get_mpi>
/mnt/disk/raspbian-tee/optee_os/lib/libutee/tee_api_arith_mpi.c:714
    2738:	4649      	mov	r1, r9
    273a:	4628      	mov	r0, r5
    273c:	f7ff f936 	bl	19ac <get_const_mpi>
/mnt/disk/raspbian-tee/optee_os/lib/libutee/tee_api_arith_mpi.c:716
    2740:	45a1      	cmp	r9, r4
    2742:	f10d 092c 	add.w	r9, sp, #44	; 0x2c
    2746:	d01a      	beq.n	277e <TEE_BigIntComputeExtendedGcd+0x62>
/mnt/disk/raspbian-tee/optee_os/lib/libutee/tee_api_arith_mpi.c:719
    2748:	4621      	mov	r1, r4
/mnt/disk/raspbian-tee/optee_os/lib/libutee/tee_api_arith_mpi.c:711
    274a:	464c      	mov	r4, r9
/mnt/disk/raspbian-tee/optee_os/lib/libutee/tee_api_arith_mpi.c:719
    274c:	4648      	mov	r0, r9
    274e:	f7ff f92d 	bl	19ac <get_const_mpi>
/mnt/disk/raspbian-tee/optee_os/lib/libutee/tee_api_arith_mpi.c:721
    2752:	b9b7      	cbnz	r7, 2782 <TEE_BigIntComputeExtendedGcd+0x66>
/mnt/disk/raspbian-tee/optee_os/lib/libutee/tee_api_arith_mpi.c:721 (discriminator 1)
    2754:	f1ba 0f00 	cmp.w	sl, #0
    2758:	d113      	bne.n	2782 <TEE_BigIntComputeExtendedGcd+0x66>
/mnt/disk/raspbian-tee/optee_os/lib/libutee/tee_api_arith_mpi.c:722
    275a:	f1b8 0f00 	cmp.w	r8, #0
    275e:	d06c      	beq.n	283a <TEE_BigIntComputeExtendedGcd+0x11e>
/mnt/disk/raspbian-tee/optee_os/lib/libutee/tee_api_arith_mpi.c:723
    2760:	4622      	mov	r2, r4
    2762:	4629      	mov	r1, r5
    2764:	4630      	mov	r0, r6
    2766:	f001 ffb6 	bl	46d6 <mbedtls_mpi_gcd>
    276a:	4602      	mov	r2, r0
    276c:	2800      	cmp	r0, #0
    276e:	d064      	beq.n	283a <TEE_BigIntComputeExtendedGcd+0x11e>
/mnt/disk/raspbian-tee/optee_os/lib/libutee/tee_api_arith_mpi.c:723 (discriminator 1)
    2770:	483b      	ldr	r0, [pc, #236]	; (2860 <TEE_BigIntComputeExtendedGcd+0x144>)
    2772:	f44f 7135 	mov.w	r1, #724	; 0x2d4
    2776:	4478      	add	r0, pc
/mnt/disk/raspbian-tee/optee_os/lib/libutee/tee_api_arith_mpi.c:740 (discriminator 1)
    2778:	30f8      	adds	r0, #248	; 0xf8
    277a:	f7ff f907 	bl	198c <mpi_panic>
/mnt/disk/raspbian-tee/optee_os/lib/libutee/tee_api_arith_mpi.c:717
    277e:	462c      	mov	r4, r5
    2780:	e7e7      	b.n	2752 <TEE_BigIntComputeExtendedGcd+0x36>
/mnt/disk/raspbian-tee/optee_os/lib/libutee/tee_api_arith_mpi.c:728
    2782:	f99d 3020 	ldrsb.w	r3, [sp, #32]
/mnt/disk/raspbian-tee/optee_os/lib/libutee/tee_api_arith_mpi.c:735
    2786:	f10d 0838 	add.w	r8, sp, #56	; 0x38
    278a:	4639      	mov	r1, r7
/mnt/disk/raspbian-tee/optee_os/lib/libutee/tee_api_arith_mpi.c:728
    278c:	9302      	str	r3, [sp, #8]
/mnt/disk/raspbian-tee/optee_os/lib/libutee/tee_api_arith_mpi.c:732
    278e:	f04f 0b01 	mov.w	fp, #1
/mnt/disk/raspbian-tee/optee_os/lib/libutee/tee_api_arith_mpi.c:729
    2792:	f994 3000 	ldrsb.w	r3, [r4]
/mnt/disk/raspbian-tee/optee_os/lib/libutee/tee_api_arith_mpi.c:735
    2796:	4640      	mov	r0, r8
/mnt/disk/raspbian-tee/optee_os/lib/libutee/tee_api_arith_mpi.c:732
    2798:	f88d b020 	strb.w	fp, [sp, #32]
/mnt/disk/raspbian-tee/optee_os/lib/libutee/tee_api_arith_mpi.c:736
    279c:	af11      	add	r7, sp, #68	; 0x44
/mnt/disk/raspbian-tee/optee_os/lib/libutee/tee_api_arith_mpi.c:733
    279e:	f884 b000 	strb.w	fp, [r4]
/mnt/disk/raspbian-tee/optee_os/lib/libutee/tee_api_arith_mpi.c:729
    27a2:	9303      	str	r3, [sp, #12]
/mnt/disk/raspbian-tee/optee_os/lib/libutee/tee_api_arith_mpi.c:735
    27a4:	f7ff fb72 	bl	1e8c <get_mpi>
/mnt/disk/raspbian-tee/optee_os/lib/libutee/tee_api_arith_mpi.c:736
    27a8:	4651      	mov	r1, sl
    27aa:	4638      	mov	r0, r7
    27ac:	f7ff fb6e 	bl	1e8c <get_mpi>
/mnt/disk/raspbian-tee/optee_os/lib/libutee/tee_api_arith_mpi.c:738
    27b0:	4621      	mov	r1, r4
    27b2:	4628      	mov	r0, r5
    27b4:	f000 feed 	bl	3592 <mbedtls_mpi_cmp_abs>
/mnt/disk/raspbian-tee/optee_os/lib/libutee/tee_api_arith_mpi.c:739
    27b8:	2800      	cmp	r0, #0
    27ba:	d120      	bne.n	27fe <TEE_BigIntComputeExtendedGcd+0xe2>
/mnt/disk/raspbian-tee/optee_os/lib/libutee/tee_api_arith_mpi.c:740
    27bc:	4629      	mov	r1, r5
    27be:	4630      	mov	r0, r6
    27c0:	f000 fcbc 	bl	313c <mbedtls_mpi_copy>
    27c4:	4602      	mov	r2, r0
    27c6:	b120      	cbz	r0, 27d2 <TEE_BigIntComputeExtendedGcd+0xb6>
/mnt/disk/raspbian-tee/optee_os/lib/libutee/tee_api_arith_mpi.c:740 (discriminator 1)
    27c8:	4826      	ldr	r0, [pc, #152]	; (2864 <TEE_BigIntComputeExtendedGcd+0x148>)
    27ca:	f44f 7139 	mov.w	r1, #740	; 0x2e4
    27ce:	4478      	add	r0, pc
    27d0:	e7d2      	b.n	2778 <TEE_BigIntComputeExtendedGcd+0x5c>
/mnt/disk/raspbian-tee/optee_os/lib/libutee/tee_api_arith_mpi.c:741
    27d2:	4659      	mov	r1, fp
    27d4:	4640      	mov	r0, r8
    27d6:	f000 fd6c 	bl	32b2 <mbedtls_mpi_lset>
    27da:	4602      	mov	r2, r0
    27dc:	b120      	cbz	r0, 27e8 <TEE_BigIntComputeExtendedGcd+0xcc>
/mnt/disk/raspbian-tee/optee_os/lib/libutee/tee_api_arith_mpi.c:741 (discriminator 1)
    27de:	4822      	ldr	r0, [pc, #136]	; (2868 <TEE_BigIntComputeExtendedGcd+0x14c>)
    27e0:	f240 21e5 	movw	r1, #741	; 0x2e5
    27e4:	4478      	add	r0, pc
    27e6:	e7c7      	b.n	2778 <TEE_BigIntComputeExtendedGcd+0x5c>
/mnt/disk/raspbian-tee/optee_os/lib/libutee/tee_api_arith_mpi.c:742
    27e8:	4601      	mov	r1, r0
    27ea:	4638      	mov	r0, r7
    27ec:	f000 fd61 	bl	32b2 <mbedtls_mpi_lset>
    27f0:	4602      	mov	r2, r0
    27f2:	b160      	cbz	r0, 280e <TEE_BigIntComputeExtendedGcd+0xf2>
/mnt/disk/raspbian-tee/optee_os/lib/libutee/tee_api_arith_mpi.c:742 (discriminator 1)
    27f4:	481d      	ldr	r0, [pc, #116]	; (286c <TEE_BigIntComputeExtendedGcd+0x150>)
    27f6:	f240 21e6 	movw	r1, #742	; 0x2e6
    27fa:	4478      	add	r0, pc
    27fc:	e7bc      	b.n	2778 <TEE_BigIntComputeExtendedGcd+0x5c>
/mnt/disk/raspbian-tee/optee_os/lib/libutee/tee_api_arith_mpi.c:743
    27fe:	dd2a      	ble.n	2856 <TEE_BigIntComputeExtendedGcd+0x13a>
/mnt/disk/raspbian-tee/optee_os/lib/libutee/tee_api_arith_mpi.c:744
    2800:	462b      	mov	r3, r5
    2802:	463a      	mov	r2, r7
    2804:	4641      	mov	r1, r8
    2806:	9400      	str	r4, [sp, #0]
/mnt/disk/raspbian-tee/optee_os/lib/libutee/tee_api_arith_mpi.c:746
    2808:	4630      	mov	r0, r6
    280a:	f7ff f912 	bl	1a32 <mpi_egcd>
/mnt/disk/raspbian-tee/optee_os/lib/libutee/tee_api_arith_mpi.c:749 (discriminator 1)
    280e:	f89d 3038 	ldrb.w	r3, [sp, #56]	; 0x38
/mnt/disk/raspbian-tee/optee_os/lib/libutee/tee_api_arith_mpi.c:752 (discriminator 1)
    2812:	4640      	mov	r0, r8
/mnt/disk/raspbian-tee/optee_os/lib/libutee/tee_api_arith_mpi.c:749 (discriminator 1)
    2814:	f8bd 2008 	ldrh.w	r2, [sp, #8]
    2818:	fb13 fb02 	smulbb	fp, r3, r2
/mnt/disk/raspbian-tee/optee_os/lib/libutee/tee_api_arith_mpi.c:750 (discriminator 1)
    281c:	f89d 3044 	ldrb.w	r3, [sp, #68]	; 0x44
    2820:	f8bd 200c 	ldrh.w	r2, [sp, #12]
/mnt/disk/raspbian-tee/optee_os/lib/libutee/tee_api_arith_mpi.c:749 (discriminator 1)
    2824:	f88d b038 	strb.w	fp, [sp, #56]	; 0x38
/mnt/disk/raspbian-tee/optee_os/lib/libutee/tee_api_arith_mpi.c:750 (discriminator 1)
    2828:	fb13 f302 	smulbb	r3, r3, r2
    282c:	f88d 3044 	strb.w	r3, [sp, #68]	; 0x44
/mnt/disk/raspbian-tee/optee_os/lib/libutee/tee_api_arith_mpi.c:752 (discriminator 1)
    2830:	f7ff f8f1 	bl	1a16 <put_mpi>
/mnt/disk/raspbian-tee/optee_os/lib/libutee/tee_api_arith_mpi.c:753 (discriminator 1)
    2834:	4638      	mov	r0, r7
    2836:	f7ff f8ee 	bl	1a16 <put_mpi>
/mnt/disk/raspbian-tee/optee_os/lib/libutee/tee_api_arith_mpi.c:756
    283a:	4630      	mov	r0, r6
    283c:	f7ff f8eb 	bl	1a16 <put_mpi>
/mnt/disk/raspbian-tee/optee_os/lib/libutee/tee_api_arith_mpi.c:757
    2840:	4628      	mov	r0, r5
    2842:	f7ff f8e8 	bl	1a16 <put_mpi>
/mnt/disk/raspbian-tee/optee_os/lib/libutee/tee_api_arith_mpi.c:758
    2846:	454c      	cmp	r4, r9
    2848:	d102      	bne.n	2850 <TEE_BigIntComputeExtendedGcd+0x134>
/mnt/disk/raspbian-tee/optee_os/lib/libutee/tee_api_arith_mpi.c:759
    284a:	4620      	mov	r0, r4
    284c:	f7ff f8e3 	bl	1a16 <put_mpi>
/mnt/disk/raspbian-tee/optee_os/lib/libutee/tee_api_arith_mpi.c:760
    2850:	b015      	add	sp, #84	; 0x54
    2852:	e8bd 8ff0 	ldmia.w	sp!, {r4, r5, r6, r7, r8, r9, sl, fp, pc}
/mnt/disk/raspbian-tee/optee_os/lib/libutee/tee_api_arith_mpi.c:746
    2856:	9500      	str	r5, [sp, #0]
    2858:	4623      	mov	r3, r4
    285a:	4642      	mov	r2, r8
    285c:	4639      	mov	r1, r7
    285e:	e7d3      	b.n	2808 <TEE_BigIntComputeExtendedGcd+0xec>
    2860:	00004022 	.word	0x00004022
    2864:	00003fca 	.word	0x00003fca
    2868:	00003fb4 	.word	0x00003fb4
    286c:	00003f9e 	.word	0x00003f9e

00002870 <TEE_BigIntIsProbablePrime>:
TEE_BigIntIsProbablePrime():
/mnt/disk/raspbian-tee/optee_os/lib/libutee/tee_api_arith_mpi.c:771
    2870:	b530      	push	{r4, r5, lr}
/mnt/disk/raspbian-tee/optee_os/lib/libutee/tee_api_arith_mpi.c:775
    2872:	4601      	mov	r1, r0
/mnt/disk/raspbian-tee/optee_os/lib/libutee/tee_api_arith_mpi.c:771
    2874:	b085      	sub	sp, #20
/mnt/disk/raspbian-tee/optee_os/lib/libutee/tee_api_arith_mpi.c:775
    2876:	ac01      	add	r4, sp, #4
    2878:	4620      	mov	r0, r4
    287a:	f7ff f897 	bl	19ac <get_const_mpi>
/mnt/disk/raspbian-tee/optee_os/lib/libutee/tee_api_arith_mpi.c:777
    287e:	4907      	ldr	r1, [pc, #28]	; (289c <TEE_BigIntIsProbablePrime+0x2c>)
    2880:	2200      	movs	r2, #0
    2882:	4620      	mov	r0, r4
    2884:	4479      	add	r1, pc
    2886:	f002 fa3c 	bl	4d02 <mbedtls_mpi_is_prime>
    288a:	4605      	mov	r5, r0
/mnt/disk/raspbian-tee/optee_os/lib/libutee/tee_api_arith_mpi.c:779
    288c:	4620      	mov	r0, r4
    288e:	f7ff f8c2 	bl	1a16 <put_mpi>
/mnt/disk/raspbian-tee/optee_os/lib/libutee/tee_api_arith_mpi.c:785
    2892:	fab5 f085 	clz	r0, r5
    2896:	0940      	lsrs	r0, r0, #5
    2898:	b005      	add	sp, #20
    289a:	bd30      	pop	{r4, r5, pc}
    289c:	fffff179 	.word	0xfffff179

000028a0 <TEE_BigIntInitFMM>:
TEE_BigIntInitFMM():
/mnt/disk/raspbian-tee/optee_os/lib/libutee/tee_api_arith_mpi.c:797
    28a0:	f7ff bb6c 	b.w	1f7c <TEE_BigIntInit>

000028a4 <TEE_BigIntInitFMMContext>:
TEE_BigIntInitFMMContext():
/mnt/disk/raspbian-tee/optee_os/lib/libutee/tee_api_arith_mpi.c:803
    28a4:	4770      	bx	lr

000028a6 <TEE_BigIntFMMSizeInU32>:
TEE_BigIntFMMSizeInU32():
/mnt/disk/raspbian-tee/optee_os/lib/libutee/tee_api_arith_mpi.c:808
    28a6:	301f      	adds	r0, #31
    28a8:	0940      	lsrs	r0, r0, #5
/mnt/disk/raspbian-tee/optee_os/lib/libutee/tee_api_arith_mpi.c:809
    28aa:	3002      	adds	r0, #2
    28ac:	4770      	bx	lr

000028ae <TEE_BigIntFMMContextSizeInU32>:
TEE_BigIntFMMContextSizeInU32():
/mnt/disk/raspbian-tee/optee_os/lib/libutee/tee_api_arith_mpi.c:815
    28ae:	2001      	movs	r0, #1
    28b0:	4770      	bx	lr

000028b2 <TEE_BigIntConvertToFMM>:
TEE_BigIntConvertToFMM():
/mnt/disk/raspbian-tee/optee_os/lib/libutee/tee_api_arith_mpi.c:821
    28b2:	f7ff be4d 	b.w	2550 <TEE_BigIntMod>

000028b6 <TEE_BigIntConvertFromFMM>:
TEE_BigIntConvertFromFMM():
/mnt/disk/raspbian-tee/optee_os/lib/libutee/tee_api_arith_mpi.c:827
    28b6:	b570      	push	{r4, r5, r6, lr}
    28b8:	460e      	mov	r6, r1
/mnt/disk/raspbian-tee/optee_os/lib/libutee/tee_api_arith_mpi.c:831
    28ba:	4601      	mov	r1, r0
/mnt/disk/raspbian-tee/optee_os/lib/libutee/tee_api_arith_mpi.c:827
    28bc:	b086      	sub	sp, #24
/mnt/disk/raspbian-tee/optee_os/lib/libutee/tee_api_arith_mpi.c:831
    28be:	4668      	mov	r0, sp
/mnt/disk/raspbian-tee/optee_os/lib/libutee/tee_api_arith_mpi.c:832
    28c0:	ac03      	add	r4, sp, #12
/mnt/disk/raspbian-tee/optee_os/lib/libutee/tee_api_arith_mpi.c:831
    28c2:	f7ff fae3 	bl	1e8c <get_mpi>
/mnt/disk/raspbian-tee/optee_os/lib/libutee/tee_api_arith_mpi.c:832
    28c6:	4631      	mov	r1, r6
    28c8:	4620      	mov	r0, r4
    28ca:	f7ff f86f 	bl	19ac <get_const_mpi>
/mnt/disk/raspbian-tee/optee_os/lib/libutee/tee_api_arith_mpi.c:834
    28ce:	4621      	mov	r1, r4
    28d0:	4668      	mov	r0, sp
    28d2:	f000 fc33 	bl	313c <mbedtls_mpi_copy>
    28d6:	4602      	mov	r2, r0
    28d8:	b138      	cbz	r0, 28ea <TEE_BigIntConvertFromFMM+0x34>
/mnt/disk/raspbian-tee/optee_os/lib/libutee/tee_api_arith_mpi.c:834 (discriminator 1)
    28da:	4808      	ldr	r0, [pc, #32]	; (28fc <TEE_BigIntConvertFromFMM+0x46>)
    28dc:	f240 3142 	movw	r1, #834	; 0x342
    28e0:	4478      	add	r0, pc
    28e2:	f200 1015 	addw	r0, r0, #277	; 0x115
    28e6:	f7ff f851 	bl	198c <mpi_panic>
/mnt/disk/raspbian-tee/optee_os/lib/libutee/tee_api_arith_mpi.c:836
    28ea:	4668      	mov	r0, sp
    28ec:	f7ff f893 	bl	1a16 <put_mpi>
/mnt/disk/raspbian-tee/optee_os/lib/libutee/tee_api_arith_mpi.c:837
    28f0:	4620      	mov	r0, r4
    28f2:	f7ff f890 	bl	1a16 <put_mpi>
/mnt/disk/raspbian-tee/optee_os/lib/libutee/tee_api_arith_mpi.c:838
    28f6:	b006      	add	sp, #24
    28f8:	bd70      	pop	{r4, r5, r6, pc}
    28fa:	bf00      	nop
    28fc:	00003eb8 	.word	0x00003eb8

00002900 <TEE_BigIntComputeFMM>:
TEE_BigIntComputeFMM():
/mnt/disk/raspbian-tee/optee_os/lib/libutee/tee_api_arith_mpi.c:843
    2900:	e92d 41f0 	stmdb	sp!, {r4, r5, r6, r7, r8, lr}
    2904:	460f      	mov	r7, r1
/mnt/disk/raspbian-tee/optee_os/lib/libutee/tee_api_arith_mpi.c:850
    2906:	4601      	mov	r1, r0
/mnt/disk/raspbian-tee/optee_os/lib/libutee/tee_api_arith_mpi.c:843
    2908:	b090      	sub	sp, #64	; 0x40
    290a:	4690      	mov	r8, r2
/mnt/disk/raspbian-tee/optee_os/lib/libutee/tee_api_arith_mpi.c:850
    290c:	ad01      	add	r5, sp, #4
/mnt/disk/raspbian-tee/optee_os/lib/libutee/tee_api_arith_mpi.c:851
    290e:	ae04      	add	r6, sp, #16
/mnt/disk/raspbian-tee/optee_os/lib/libutee/tee_api_arith_mpi.c:850
    2910:	4628      	mov	r0, r5
/mnt/disk/raspbian-tee/optee_os/lib/libutee/tee_api_arith_mpi.c:843
    2912:	461c      	mov	r4, r3
/mnt/disk/raspbian-tee/optee_os/lib/libutee/tee_api_arith_mpi.c:850
    2914:	f7ff faba 	bl	1e8c <get_mpi>
/mnt/disk/raspbian-tee/optee_os/lib/libutee/tee_api_arith_mpi.c:851
    2918:	4639      	mov	r1, r7
    291a:	4630      	mov	r0, r6
/mnt/disk/raspbian-tee/optee_os/lib/libutee/tee_api_arith_mpi.c:852
    291c:	af07      	add	r7, sp, #28
/mnt/disk/raspbian-tee/optee_os/lib/libutee/tee_api_arith_mpi.c:851
    291e:	f7ff f845 	bl	19ac <get_const_mpi>
/mnt/disk/raspbian-tee/optee_os/lib/libutee/tee_api_arith_mpi.c:852
    2922:	4641      	mov	r1, r8
    2924:	4638      	mov	r0, r7
/mnt/disk/raspbian-tee/optee_os/lib/libutee/tee_api_arith_mpi.c:853
    2926:	f10d 0828 	add.w	r8, sp, #40	; 0x28
/mnt/disk/raspbian-tee/optee_os/lib/libutee/tee_api_arith_mpi.c:852
    292a:	f7ff f83f 	bl	19ac <get_const_mpi>
/mnt/disk/raspbian-tee/optee_os/lib/libutee/tee_api_arith_mpi.c:853
    292e:	4621      	mov	r1, r4
    2930:	4640      	mov	r0, r8
get_mpi():
/mnt/disk/raspbian-tee/optee_os/lib/libutee/tee_api_arith_mpi.c:99
    2932:	ac0d      	add	r4, sp, #52	; 0x34
TEE_BigIntComputeFMM():
/mnt/disk/raspbian-tee/optee_os/lib/libutee/tee_api_arith_mpi.c:853
    2934:	f7ff f83a 	bl	19ac <get_const_mpi>
get_mpi():
/mnt/disk/raspbian-tee/optee_os/lib/libutee/tee_api_arith_mpi.c:99
    2938:	4620      	mov	r0, r4
    293a:	f000 fb02 	bl	2f42 <mbedtls_mpi_init_mempool>
TEE_BigIntComputeFMM():
/mnt/disk/raspbian-tee/optee_os/lib/libutee/tee_api_arith_mpi.c:856
    293e:	463a      	mov	r2, r7
    2940:	4631      	mov	r1, r6
    2942:	4620      	mov	r0, r4
    2944:	f000 ffd7 	bl	38f6 <mbedtls_mpi_mul_mpi>
    2948:	4602      	mov	r2, r0
    294a:	b138      	cbz	r0, 295c <TEE_BigIntComputeFMM+0x5c>
/mnt/disk/raspbian-tee/optee_os/lib/libutee/tee_api_arith_mpi.c:856 (discriminator 1)
    294c:	4812      	ldr	r0, [pc, #72]	; (2998 <TEE_BigIntComputeFMM+0x98>)
    294e:	f44f 7156 	mov.w	r1, #856	; 0x358
    2952:	4478      	add	r0, pc
/mnt/disk/raspbian-tee/optee_os/lib/libutee/tee_api_arith_mpi.c:857 (discriminator 1)
    2954:	f500 7097 	add.w	r0, r0, #302	; 0x12e
    2958:	f7ff f818 	bl	198c <mpi_panic>
/mnt/disk/raspbian-tee/optee_os/lib/libutee/tee_api_arith_mpi.c:857
    295c:	4642      	mov	r2, r8
    295e:	4621      	mov	r1, r4
    2960:	4628      	mov	r0, r5
    2962:	f001 fac3 	bl	3eec <mbedtls_mpi_mod_mpi>
    2966:	4602      	mov	r2, r0
    2968:	b120      	cbz	r0, 2974 <TEE_BigIntComputeFMM+0x74>
/mnt/disk/raspbian-tee/optee_os/lib/libutee/tee_api_arith_mpi.c:857 (discriminator 1)
    296a:	480c      	ldr	r0, [pc, #48]	; (299c <TEE_BigIntComputeFMM+0x9c>)
    296c:	f240 3159 	movw	r1, #857	; 0x359
    2970:	4478      	add	r0, pc
    2972:	e7ef      	b.n	2954 <TEE_BigIntComputeFMM+0x54>
/mnt/disk/raspbian-tee/optee_os/lib/libutee/tee_api_arith_mpi.c:859
    2974:	4620      	mov	r0, r4
    2976:	f7ff f84e 	bl	1a16 <put_mpi>
/mnt/disk/raspbian-tee/optee_os/lib/libutee/tee_api_arith_mpi.c:860
    297a:	4640      	mov	r0, r8
    297c:	f7ff f84b 	bl	1a16 <put_mpi>
/mnt/disk/raspbian-tee/optee_os/lib/libutee/tee_api_arith_mpi.c:861
    2980:	4638      	mov	r0, r7
    2982:	f7ff f848 	bl	1a16 <put_mpi>
/mnt/disk/raspbian-tee/optee_os/lib/libutee/tee_api_arith_mpi.c:862
    2986:	4630      	mov	r0, r6
    2988:	f7ff f845 	bl	1a16 <put_mpi>
/mnt/disk/raspbian-tee/optee_os/lib/libutee/tee_api_arith_mpi.c:863
    298c:	4628      	mov	r0, r5
    298e:	f7ff f842 	bl	1a16 <put_mpi>
/mnt/disk/raspbian-tee/optee_os/lib/libutee/tee_api_arith_mpi.c:864
    2992:	b010      	add	sp, #64	; 0x40
    2994:	e8bd 81f0 	ldmia.w	sp!, {r4, r5, r6, r7, r8, pc}
    2998:	00003e46 	.word	0x00003e46
    299c:	00003e28 	.word	0x00003e28

000029a0 <api_panic>:
api_panic():
/mnt/disk/raspbian-tee/optee_os/lib/libutee/tee_api_arith_mpi.c:19
    29a0:	b508      	push	{r3, lr}
/mnt/disk/raspbian-tee/optee_os/lib/libutee/tee_api_arith_mpi.c:20
    29a2:	4613      	mov	r3, r2
    29a4:	460a      	mov	r2, r1
    29a6:	4601      	mov	r1, r0
    29a8:	4804      	ldr	r0, [pc, #16]	; (29bc <api_panic+0x1c>)
    29aa:	4478      	add	r0, pc
    29ac:	f7fe fad3 	bl	f56 <printf>
/mnt/disk/raspbian-tee/optee_os/lib/libutee/tee_api_arith_mpi.c:21
    29b0:	4801      	ldr	r0, [pc, #4]	; (29b8 <api_panic+0x18>)
    29b2:	f003 fb87 	bl	60c4 <TEE_Panic>
    29b6:	e7fe      	b.n	29b6 <api_panic+0x16>
    29b8:	00b16127 	.word	0x00b16127
    29bc:	00003f31 	.word	0x00003f31

000029c0 <mpi_get_digit>:
mpi_get_digit():
/mnt/disk/raspbian-tee/optee_os/lib/libmbedtls/mbedtls/library/bignum.c:488
    29c0:	f1a2 0330 	sub.w	r3, r2, #48	; 0x30
/mnt/disk/raspbian-tee/optee_os/lib/libmbedtls/mbedtls/library/bignum.c:485
    29c4:	b510      	push	{r4, lr}
/mnt/disk/raspbian-tee/optee_os/lib/libmbedtls/mbedtls/library/bignum.c:488
    29c6:	b2dc      	uxtb	r4, r3
    29c8:	2c09      	cmp	r4, #9
/mnt/disk/raspbian-tee/optee_os/lib/libmbedtls/mbedtls/library/bignum.c:486
    29ca:	bf88      	it	hi
    29cc:	23ff      	movhi	r3, #255	; 0xff
/mnt/disk/raspbian-tee/optee_os/lib/libmbedtls/mbedtls/library/bignum.c:488
    29ce:	6003      	str	r3, [r0, #0]
/mnt/disk/raspbian-tee/optee_os/lib/libmbedtls/mbedtls/library/bignum.c:489
    29d0:	f1a2 0341 	sub.w	r3, r2, #65	; 0x41
    29d4:	2b05      	cmp	r3, #5
    29d6:	d802      	bhi.n	29de <mpi_get_digit+0x1e>
/mnt/disk/raspbian-tee/optee_os/lib/libmbedtls/mbedtls/library/bignum.c:489 (discriminator 1)
    29d8:	f1a2 0337 	sub.w	r3, r2, #55	; 0x37
    29dc:	6003      	str	r3, [r0, #0]
/mnt/disk/raspbian-tee/optee_os/lib/libmbedtls/mbedtls/library/bignum.c:490
    29de:	f1a2 0361 	sub.w	r3, r2, #97	; 0x61
    29e2:	2b05      	cmp	r3, #5
    29e4:	d801      	bhi.n	29ea <mpi_get_digit+0x2a>
/mnt/disk/raspbian-tee/optee_os/lib/libmbedtls/mbedtls/library/bignum.c:490 (discriminator 1)
    29e6:	3a57      	subs	r2, #87	; 0x57
    29e8:	6002      	str	r2, [r0, #0]
/mnt/disk/raspbian-tee/optee_os/lib/libmbedtls/mbedtls/library/bignum.c:492
    29ea:	6803      	ldr	r3, [r0, #0]
/mnt/disk/raspbian-tee/optee_os/lib/libmbedtls/mbedtls/library/bignum.c:496
    29ec:	f06f 0005 	mvn.w	r0, #5
/mnt/disk/raspbian-tee/optee_os/lib/libmbedtls/mbedtls/library/bignum.c:492
    29f0:	428b      	cmp	r3, r1
/mnt/disk/raspbian-tee/optee_os/lib/libmbedtls/mbedtls/library/bignum.c:496
    29f2:	bf38      	it	cc
    29f4:	2000      	movcc	r0, #0
    29f6:	bd10      	pop	{r4, pc}

000029f8 <mpi_sub_hlp>:
mpi_sub_hlp():
/mnt/disk/raspbian-tee/optee_os/lib/libmbedtls/mbedtls/library/bignum.c:1025
    29f8:	2300      	movs	r3, #0
/mnt/disk/raspbian-tee/optee_os/lib/libmbedtls/mbedtls/library/bignum.c:1021
    29fa:	e92d 41f0 	stmdb	sp!, {r4, r5, r6, r7, r8, lr}
    29fe:	4688      	mov	r8, r1
/mnt/disk/raspbian-tee/optee_os/lib/libmbedtls/mbedtls/library/bignum.c:1025
    2a00:	4616      	mov	r6, r2
    2a02:	461c      	mov	r4, r3
/mnt/disk/raspbian-tee/optee_os/lib/libmbedtls/mbedtls/library/bignum.c:1025 (discriminator 1)
    2a04:	4284      	cmp	r4, r0
    2a06:	d104      	bne.n	2a12 <mpi_sub_hlp+0x1a>
    2a08:	eb02 0284 	add.w	r2, r2, r4, lsl #2
/mnt/disk/raspbian-tee/optee_os/lib/libmbedtls/mbedtls/library/bignum.c:1031
    2a0c:	b9c3      	cbnz	r3, 2a40 <mpi_sub_hlp+0x48>
/mnt/disk/raspbian-tee/optee_os/lib/libmbedtls/mbedtls/library/bignum.c:1036
    2a0e:	e8bd 81f0 	ldmia.w	sp!, {r4, r5, r6, r7, r8, pc}
/mnt/disk/raspbian-tee/optee_os/lib/libmbedtls/mbedtls/library/bignum.c:1027 (discriminator 3)
    2a12:	f8d6 c000 	ldr.w	ip, [r6]
    2a16:	ebac 0503 	sub.w	r5, ip, r3
    2a1a:	6035      	str	r5, [r6, #0]
/mnt/disk/raspbian-tee/optee_os/lib/libmbedtls/mbedtls/library/bignum.c:1028 (discriminator 3)
    2a1c:	f858 7024 	ldr.w	r7, [r8, r4, lsl #2]
/mnt/disk/raspbian-tee/optee_os/lib/libmbedtls/mbedtls/library/bignum.c:1025 (discriminator 3)
    2a20:	3401      	adds	r4, #1
/mnt/disk/raspbian-tee/optee_os/lib/libmbedtls/mbedtls/library/bignum.c:1028 (discriminator 3)
    2a22:	42bd      	cmp	r5, r7
    2a24:	eba5 0507 	sub.w	r5, r5, r7
    2a28:	bf28      	it	cs
    2a2a:	2100      	movcs	r1, #0
    2a2c:	bf38      	it	cc
    2a2e:	2101      	movcc	r1, #1
    2a30:	4563      	cmp	r3, ip
    2a32:	468e      	mov	lr, r1
    2a34:	bf88      	it	hi
    2a36:	3101      	addhi	r1, #1
    2a38:	f846 5b04 	str.w	r5, [r6], #4
    2a3c:	460b      	mov	r3, r1
    2a3e:	e7e1      	b.n	2a04 <mpi_sub_hlp+0xc>
/mnt/disk/raspbian-tee/optee_os/lib/libmbedtls/mbedtls/library/bignum.c:1033
    2a40:	6811      	ldr	r1, [r2, #0]
/mnt/disk/raspbian-tee/optee_os/lib/libmbedtls/mbedtls/library/bignum.c:1034
    2a42:	428b      	cmp	r3, r1
/mnt/disk/raspbian-tee/optee_os/lib/libmbedtls/mbedtls/library/bignum.c:1033
    2a44:	eba1 0003 	sub.w	r0, r1, r3
/mnt/disk/raspbian-tee/optee_os/lib/libmbedtls/mbedtls/library/bignum.c:1034
    2a48:	bf98      	it	ls
    2a4a:	2300      	movls	r3, #0
/mnt/disk/raspbian-tee/optee_os/lib/libmbedtls/mbedtls/library/bignum.c:1033
    2a4c:	f842 0b04 	str.w	r0, [r2], #4
/mnt/disk/raspbian-tee/optee_os/lib/libmbedtls/mbedtls/library/bignum.c:1034
    2a50:	bf88      	it	hi
    2a52:	2301      	movhi	r3, #1
    2a54:	e7da      	b.n	2a0c <mpi_sub_hlp+0x14>

00002a56 <mpi_mul_hlp>:
mpi_mul_hlp():
/mnt/disk/raspbian-tee/optee_os/lib/libmbedtls/mbedtls/library/bignum.c:1187
    2a56:	e92d 47f0 	stmdb	sp!, {r4, r5, r6, r7, r8, r9, sl, lr}
/mnt/disk/raspbian-tee/optee_os/lib/libmbedtls/mbedtls/library/bignum.c:1205
    2a5a:	4684      	mov	ip, r0
/mnt/disk/raspbian-tee/optee_os/lib/libmbedtls/mbedtls/library/bignum.c:1187
    2a5c:	468a      	mov	sl, r1
    2a5e:	460d      	mov	r5, r1
    2a60:	4614      	mov	r4, r2
/mnt/disk/raspbian-tee/optee_os/lib/libmbedtls/mbedtls/library/bignum.c:1188
    2a62:	f04f 0e00 	mov.w	lr, #0
    2a66:	3540      	adds	r5, #64	; 0x40
    2a68:	3440      	adds	r4, #64	; 0x40
/mnt/disk/raspbian-tee/optee_os/lib/libmbedtls/mbedtls/library/bignum.c:1205 (discriminator 1)
    2a6a:	f1bc 0f0f 	cmp.w	ip, #15
    2a6e:	f200 80b4 	bhi.w	2bda <mpi_mul_hlp+0x184>
    2a72:	ea4f 1c10 	mov.w	ip, r0, lsr #4
    2a76:	eba0 100c 	sub.w	r0, r0, ip, lsl #4
    2a7a:	ea4f 1c8c 	mov.w	ip, ip, lsl #6
    2a7e:	eb0a 050c 	add.w	r5, sl, ip
    2a82:	eb02 040c 	add.w	r4, r2, ip
/mnt/disk/raspbian-tee/optee_os/lib/libmbedtls/mbedtls/library/bignum.c:1220
    2a86:	2807      	cmp	r0, #7
    2a88:	f240 808e 	bls.w	2ba8 <mpi_mul_hlp+0x152>
/mnt/disk/raspbian-tee/optee_os/lib/libmbedtls/mbedtls/library/bignum.c:1223
    2a8c:	f85a 600c 	ldr.w	r6, [sl, ip]
    2a90:	2101      	movs	r1, #1
    2a92:	fba3 6706 	umull	r6, r7, r3, r6
    2a96:	eb1e 0e06 	adds.w	lr, lr, r6
    2a9a:	f852 600c 	ldr.w	r6, [r2, ip]
    2a9e:	bf38      	it	cc
    2aa0:	2100      	movcc	r1, #0
    2aa2:	eb1e 0606 	adds.w	r6, lr, r6
    2aa6:	f842 600c 	str.w	r6, [r2, ip]
    2aaa:	eb01 0807 	add.w	r8, r1, r7
    2aae:	f04f 0100 	mov.w	r1, #0
    2ab2:	686e      	ldr	r6, [r5, #4]
    2ab4:	bf28      	it	cs
    2ab6:	2101      	movcs	r1, #1
    2ab8:	eb01 0208 	add.w	r2, r1, r8
    2abc:	2101      	movs	r1, #1
    2abe:	f04f 0e00 	mov.w	lr, #0
    2ac2:	fba3 6706 	umull	r6, r7, r3, r6
    2ac6:	1992      	adds	r2, r2, r6
    2ac8:	6866      	ldr	r6, [r4, #4]
    2aca:	bf38      	it	cc
    2acc:	2100      	movcc	r1, #0
    2ace:	1992      	adds	r2, r2, r6
    2ad0:	6062      	str	r2, [r4, #4]
    2ad2:	eb01 0c07 	add.w	ip, r1, r7
    2ad6:	f04f 0100 	mov.w	r1, #0
/mnt/disk/raspbian-tee/optee_os/lib/libmbedtls/mbedtls/library/bignum.c:1224
    2ada:	68ae      	ldr	r6, [r5, #8]
    2adc:	bf28      	it	cs
    2ade:	2101      	movcs	r1, #1
/mnt/disk/raspbian-tee/optee_os/lib/libmbedtls/mbedtls/library/bignum.c:1223
    2ae0:	4461      	add	r1, ip
/mnt/disk/raspbian-tee/optee_os/lib/libmbedtls/mbedtls/library/bignum.c:1224
    2ae2:	2201      	movs	r2, #1
    2ae4:	fba3 6706 	umull	r6, r7, r3, r6
    2ae8:	1989      	adds	r1, r1, r6
    2aea:	68a6      	ldr	r6, [r4, #8]
    2aec:	bf38      	it	cc
    2aee:	2200      	movcc	r2, #0
    2af0:	1989      	adds	r1, r1, r6
    2af2:	60a1      	str	r1, [r4, #8]
    2af4:	eb02 0c07 	add.w	ip, r2, r7
    2af8:	f04f 0200 	mov.w	r2, #0
    2afc:	68ee      	ldr	r6, [r5, #12]
    2afe:	bf28      	it	cs
    2b00:	2201      	movcs	r2, #1
    2b02:	4462      	add	r2, ip
    2b04:	2101      	movs	r1, #1
    2b06:	fba3 6706 	umull	r6, r7, r3, r6
    2b0a:	1992      	adds	r2, r2, r6
    2b0c:	68e6      	ldr	r6, [r4, #12]
    2b0e:	bf38      	it	cc
    2b10:	2100      	movcc	r1, #0
    2b12:	1992      	adds	r2, r2, r6
    2b14:	60e2      	str	r2, [r4, #12]
    2b16:	eb01 0c07 	add.w	ip, r1, r7
    2b1a:	f04f 0100 	mov.w	r1, #0
/mnt/disk/raspbian-tee/optee_os/lib/libmbedtls/mbedtls/library/bignum.c:1226
    2b1e:	692e      	ldr	r6, [r5, #16]
    2b20:	bf28      	it	cs
    2b22:	2101      	movcs	r1, #1
/mnt/disk/raspbian-tee/optee_os/lib/libmbedtls/mbedtls/library/bignum.c:1224
    2b24:	4461      	add	r1, ip
/mnt/disk/raspbian-tee/optee_os/lib/libmbedtls/mbedtls/library/bignum.c:1226
    2b26:	2201      	movs	r2, #1
    2b28:	fba3 6706 	umull	r6, r7, r3, r6
    2b2c:	1989      	adds	r1, r1, r6
    2b2e:	6926      	ldr	r6, [r4, #16]
    2b30:	bf38      	it	cc
    2b32:	2200      	movcc	r2, #0
    2b34:	1989      	adds	r1, r1, r6
    2b36:	6121      	str	r1, [r4, #16]
    2b38:	eb02 0c07 	add.w	ip, r2, r7
    2b3c:	f04f 0200 	mov.w	r2, #0
    2b40:	696e      	ldr	r6, [r5, #20]
    2b42:	bf28      	it	cs
    2b44:	2201      	movcs	r2, #1
    2b46:	4462      	add	r2, ip
    2b48:	2101      	movs	r1, #1
    2b4a:	fba3 6706 	umull	r6, r7, r3, r6
    2b4e:	1992      	adds	r2, r2, r6
    2b50:	6966      	ldr	r6, [r4, #20]
    2b52:	bf38      	it	cc
    2b54:	2100      	movcc	r1, #0
    2b56:	1992      	adds	r2, r2, r6
    2b58:	6162      	str	r2, [r4, #20]
    2b5a:	eb01 0c07 	add.w	ip, r1, r7
    2b5e:	f04f 0100 	mov.w	r1, #0
/mnt/disk/raspbian-tee/optee_os/lib/libmbedtls/mbedtls/library/bignum.c:1227
    2b62:	69ae      	ldr	r6, [r5, #24]
    2b64:	bf28      	it	cs
    2b66:	2101      	movcs	r1, #1
/mnt/disk/raspbian-tee/optee_os/lib/libmbedtls/mbedtls/library/bignum.c:1226
    2b68:	4461      	add	r1, ip
/mnt/disk/raspbian-tee/optee_os/lib/libmbedtls/mbedtls/library/bignum.c:1227
    2b6a:	2201      	movs	r2, #1
    2b6c:	fba3 6706 	umull	r6, r7, r3, r6
    2b70:	1989      	adds	r1, r1, r6
    2b72:	69a6      	ldr	r6, [r4, #24]
    2b74:	bf38      	it	cc
    2b76:	2200      	movcc	r2, #0
    2b78:	1989      	adds	r1, r1, r6
    2b7a:	61a1      	str	r1, [r4, #24]
    2b7c:	eb02 0c07 	add.w	ip, r2, r7
    2b80:	f04f 0200 	mov.w	r2, #0
    2b84:	69ee      	ldr	r6, [r5, #28]
    2b86:	bf28      	it	cs
    2b88:	2201      	movcs	r2, #1
    2b8a:	4462      	add	r2, ip
    2b8c:	2101      	movs	r1, #1
    2b8e:	fba3 6706 	umull	r6, r7, r3, r6
    2b92:	1992      	adds	r2, r2, r6
    2b94:	69e6      	ldr	r6, [r4, #28]
    2b96:	bf38      	it	cc
    2b98:	2100      	movcc	r1, #0
    2b9a:	4439      	add	r1, r7
    2b9c:	1992      	adds	r2, r2, r6
    2b9e:	d301      	bcc.n	2ba4 <mpi_mul_hlp+0x14e>
    2ba0:	f04f 0e01 	mov.w	lr, #1
    2ba4:	448e      	add	lr, r1
    2ba6:	61e2      	str	r2, [r4, #28]
    2ba8:	08c2      	lsrs	r2, r0, #3
    2baa:	0151      	lsls	r1, r2, #5
    2bac:	eba0 00c2 	sub.w	r0, r0, r2, lsl #3
    2bb0:	440c      	add	r4, r1
    2bb2:	440d      	add	r5, r1
    2bb4:	eb04 0080 	add.w	r0, r4, r0, lsl #2
/mnt/disk/raspbian-tee/optee_os/lib/libmbedtls/mbedtls/library/bignum.c:1231 (discriminator 1)
    2bb8:	4284      	cmp	r4, r0
    2bba:	f040 8180 	bne.w	2ebe <mpi_mul_hlp+0x468>
    2bbe:	6803      	ldr	r3, [r0, #0]
    2bc0:	2200      	movs	r2, #0
    2bc2:	eb1e 0303 	adds.w	r3, lr, r3
/mnt/disk/raspbian-tee/optee_os/lib/libmbedtls/mbedtls/library/bignum.c:1242 (discriminator 1)
    2bc6:	f04f 0e01 	mov.w	lr, #1
    2bca:	bf28      	it	cs
    2bcc:	2201      	movcs	r2, #1
    2bce:	f840 3b04 	str.w	r3, [r0], #4
/mnt/disk/raspbian-tee/optee_os/lib/libmbedtls/mbedtls/library/bignum.c:1244 (discriminator 1)
    2bd2:	2a00      	cmp	r2, #0
    2bd4:	d1f3      	bne.n	2bbe <mpi_mul_hlp+0x168>
/mnt/disk/raspbian-tee/optee_os/lib/libmbedtls/mbedtls/library/bignum.c:1245
    2bd6:	e8bd 87f0 	ldmia.w	sp!, {r4, r5, r6, r7, r8, r9, sl, pc}
/mnt/disk/raspbian-tee/optee_os/lib/libmbedtls/mbedtls/library/bignum.c:1208 (discriminator 2)
    2bda:	f855 6c40 	ldr.w	r6, [r5, #-64]
    2bde:	2101      	movs	r1, #1
    2be0:	f04f 0800 	mov.w	r8, #0
    2be4:	fba3 6706 	umull	r6, r7, r3, r6
    2be8:	eb1e 0e06 	adds.w	lr, lr, r6
    2bec:	bf38      	it	cc
    2bee:	2100      	movcc	r1, #0
    2bf0:	eb01 0907 	add.w	r9, r1, r7
    2bf4:	f854 7c40 	ldr.w	r7, [r4, #-64]
    2bf8:	eb1e 0707 	adds.w	r7, lr, r7
    2bfc:	d301      	bcc.n	2c02 <mpi_mul_hlp+0x1ac>
    2bfe:	f04f 0801 	mov.w	r8, #1
    2c02:	f844 7c40 	str.w	r7, [r4, #-64]
    2c06:	44c8      	add	r8, r9
    2c08:	2101      	movs	r1, #1
    2c0a:	f04f 0e00 	mov.w	lr, #0
    2c0e:	f855 6c3c 	ldr.w	r6, [r5, #-60]
    2c12:	fba3 6706 	umull	r6, r7, r3, r6
    2c16:	eb18 0806 	adds.w	r8, r8, r6
    2c1a:	f854 6c3c 	ldr.w	r6, [r4, #-60]
    2c1e:	bf38      	it	cc
    2c20:	2100      	movcc	r1, #0
    2c22:	eb01 0907 	add.w	r9, r1, r7
    2c26:	eb18 0606 	adds.w	r6, r8, r6
    2c2a:	d301      	bcc.n	2c30 <mpi_mul_hlp+0x1da>
    2c2c:	f04f 0e01 	mov.w	lr, #1
    2c30:	f844 6c3c 	str.w	r6, [r4, #-60]
    2c34:	44ce      	add	lr, r9
/mnt/disk/raspbian-tee/optee_os/lib/libmbedtls/mbedtls/library/bignum.c:1209 (discriminator 2)
    2c36:	2101      	movs	r1, #1
    2c38:	f04f 0800 	mov.w	r8, #0
    2c3c:	f855 6c38 	ldr.w	r6, [r5, #-56]
    2c40:	fba3 6706 	umull	r6, r7, r3, r6
    2c44:	eb1e 0e06 	adds.w	lr, lr, r6
    2c48:	bf38      	it	cc
    2c4a:	2100      	movcc	r1, #0
    2c4c:	eb01 0907 	add.w	r9, r1, r7
    2c50:	f854 7c38 	ldr.w	r7, [r4, #-56]
    2c54:	eb1e 0707 	adds.w	r7, lr, r7
    2c58:	d301      	bcc.n	2c5e <mpi_mul_hlp+0x208>
    2c5a:	f04f 0801 	mov.w	r8, #1
    2c5e:	f844 7c38 	str.w	r7, [r4, #-56]
    2c62:	44c8      	add	r8, r9
    2c64:	2101      	movs	r1, #1
    2c66:	f04f 0e00 	mov.w	lr, #0
    2c6a:	f855 6c34 	ldr.w	r6, [r5, #-52]
    2c6e:	fba3 6706 	umull	r6, r7, r3, r6
    2c72:	eb18 0806 	adds.w	r8, r8, r6
    2c76:	f854 6c34 	ldr.w	r6, [r4, #-52]
    2c7a:	bf38      	it	cc
    2c7c:	2100      	movcc	r1, #0
    2c7e:	eb01 0907 	add.w	r9, r1, r7
    2c82:	eb18 0606 	adds.w	r6, r8, r6
    2c86:	d301      	bcc.n	2c8c <mpi_mul_hlp+0x236>
    2c88:	f04f 0e01 	mov.w	lr, #1
    2c8c:	f844 6c34 	str.w	r6, [r4, #-52]
    2c90:	44ce      	add	lr, r9
/mnt/disk/raspbian-tee/optee_os/lib/libmbedtls/mbedtls/library/bignum.c:1210 (discriminator 2)
    2c92:	2101      	movs	r1, #1
    2c94:	f04f 0800 	mov.w	r8, #0
    2c98:	f855 6c30 	ldr.w	r6, [r5, #-48]
    2c9c:	fba3 6706 	umull	r6, r7, r3, r6
    2ca0:	eb1e 0e06 	adds.w	lr, lr, r6
    2ca4:	bf38      	it	cc
    2ca6:	2100      	movcc	r1, #0
    2ca8:	eb01 0907 	add.w	r9, r1, r7
    2cac:	f854 7c30 	ldr.w	r7, [r4, #-48]
    2cb0:	eb1e 0707 	adds.w	r7, lr, r7
    2cb4:	d301      	bcc.n	2cba <mpi_mul_hlp+0x264>
    2cb6:	f04f 0801 	mov.w	r8, #1
    2cba:	f844 7c30 	str.w	r7, [r4, #-48]
    2cbe:	44c8      	add	r8, r9
    2cc0:	2101      	movs	r1, #1
    2cc2:	f04f 0e00 	mov.w	lr, #0
    2cc6:	f855 6c2c 	ldr.w	r6, [r5, #-44]
    2cca:	fba3 6706 	umull	r6, r7, r3, r6
    2cce:	eb18 0806 	adds.w	r8, r8, r6
    2cd2:	f854 6c2c 	ldr.w	r6, [r4, #-44]
    2cd6:	bf38      	it	cc
    2cd8:	2100      	movcc	r1, #0
    2cda:	eb01 0907 	add.w	r9, r1, r7
    2cde:	eb18 0606 	adds.w	r6, r8, r6
    2ce2:	d301      	bcc.n	2ce8 <mpi_mul_hlp+0x292>
    2ce4:	f04f 0e01 	mov.w	lr, #1
    2ce8:	f844 6c2c 	str.w	r6, [r4, #-44]
    2cec:	44ce      	add	lr, r9
/mnt/disk/raspbian-tee/optee_os/lib/libmbedtls/mbedtls/library/bignum.c:1211 (discriminator 2)
    2cee:	2101      	movs	r1, #1
    2cf0:	f04f 0800 	mov.w	r8, #0
    2cf4:	f855 6c28 	ldr.w	r6, [r5, #-40]
    2cf8:	fba3 6706 	umull	r6, r7, r3, r6
    2cfc:	eb1e 0e06 	adds.w	lr, lr, r6
    2d00:	bf38      	it	cc
    2d02:	2100      	movcc	r1, #0
    2d04:	eb01 0907 	add.w	r9, r1, r7
    2d08:	f854 7c28 	ldr.w	r7, [r4, #-40]
    2d0c:	eb1e 0707 	adds.w	r7, lr, r7
    2d10:	d301      	bcc.n	2d16 <mpi_mul_hlp+0x2c0>
    2d12:	f04f 0801 	mov.w	r8, #1
    2d16:	f844 7c28 	str.w	r7, [r4, #-40]
    2d1a:	44c8      	add	r8, r9
    2d1c:	2101      	movs	r1, #1
    2d1e:	f04f 0e00 	mov.w	lr, #0
    2d22:	f855 6c24 	ldr.w	r6, [r5, #-36]
    2d26:	fba3 6706 	umull	r6, r7, r3, r6
    2d2a:	eb18 0806 	adds.w	r8, r8, r6
    2d2e:	f854 6c24 	ldr.w	r6, [r4, #-36]
    2d32:	bf38      	it	cc
    2d34:	2100      	movcc	r1, #0
    2d36:	eb01 0907 	add.w	r9, r1, r7
    2d3a:	eb18 0606 	adds.w	r6, r8, r6
    2d3e:	d301      	bcc.n	2d44 <mpi_mul_hlp+0x2ee>
    2d40:	f04f 0e01 	mov.w	lr, #1
    2d44:	f844 6c24 	str.w	r6, [r4, #-36]
    2d48:	44ce      	add	lr, r9
/mnt/disk/raspbian-tee/optee_os/lib/libmbedtls/mbedtls/library/bignum.c:1213 (discriminator 2)
    2d4a:	2101      	movs	r1, #1
    2d4c:	f04f 0800 	mov.w	r8, #0
    2d50:	f855 6c20 	ldr.w	r6, [r5, #-32]
    2d54:	fba3 6706 	umull	r6, r7, r3, r6
    2d58:	eb1e 0e06 	adds.w	lr, lr, r6
    2d5c:	bf38      	it	cc
    2d5e:	2100      	movcc	r1, #0
    2d60:	eb01 0907 	add.w	r9, r1, r7
    2d64:	f854 7c20 	ldr.w	r7, [r4, #-32]
    2d68:	eb1e 0707 	adds.w	r7, lr, r7
    2d6c:	d301      	bcc.n	2d72 <mpi_mul_hlp+0x31c>
    2d6e:	f04f 0801 	mov.w	r8, #1
    2d72:	f844 7c20 	str.w	r7, [r4, #-32]
    2d76:	44c8      	add	r8, r9
    2d78:	2101      	movs	r1, #1
    2d7a:	f04f 0e00 	mov.w	lr, #0
    2d7e:	f855 6c1c 	ldr.w	r6, [r5, #-28]
    2d82:	fba3 6706 	umull	r6, r7, r3, r6
    2d86:	eb18 0806 	adds.w	r8, r8, r6
    2d8a:	f854 6c1c 	ldr.w	r6, [r4, #-28]
    2d8e:	bf38      	it	cc
    2d90:	2100      	movcc	r1, #0
    2d92:	eb01 0907 	add.w	r9, r1, r7
    2d96:	eb18 0606 	adds.w	r6, r8, r6
    2d9a:	d301      	bcc.n	2da0 <mpi_mul_hlp+0x34a>
    2d9c:	f04f 0e01 	mov.w	lr, #1
    2da0:	f844 6c1c 	str.w	r6, [r4, #-28]
    2da4:	44ce      	add	lr, r9
/mnt/disk/raspbian-tee/optee_os/lib/libmbedtls/mbedtls/library/bignum.c:1214 (discriminator 2)
    2da6:	2101      	movs	r1, #1
    2da8:	f04f 0800 	mov.w	r8, #0
    2dac:	f855 6c18 	ldr.w	r6, [r5, #-24]
    2db0:	fba3 6706 	umull	r6, r7, r3, r6
    2db4:	eb1e 0e06 	adds.w	lr, lr, r6
    2db8:	bf38      	it	cc
    2dba:	2100      	movcc	r1, #0
    2dbc:	eb01 0907 	add.w	r9, r1, r7
    2dc0:	f854 7c18 	ldr.w	r7, [r4, #-24]
    2dc4:	eb1e 0707 	adds.w	r7, lr, r7
    2dc8:	d301      	bcc.n	2dce <mpi_mul_hlp+0x378>
    2dca:	f04f 0801 	mov.w	r8, #1
    2dce:	f844 7c18 	str.w	r7, [r4, #-24]
    2dd2:	44c8      	add	r8, r9
    2dd4:	2101      	movs	r1, #1
    2dd6:	f04f 0e00 	mov.w	lr, #0
    2dda:	f855 6c14 	ldr.w	r6, [r5, #-20]
    2dde:	fba3 6706 	umull	r6, r7, r3, r6
    2de2:	eb18 0806 	adds.w	r8, r8, r6
    2de6:	f854 6c14 	ldr.w	r6, [r4, #-20]
    2dea:	bf38      	it	cc
    2dec:	2100      	movcc	r1, #0
    2dee:	eb01 0907 	add.w	r9, r1, r7
    2df2:	eb18 0606 	adds.w	r6, r8, r6
    2df6:	d301      	bcc.n	2dfc <mpi_mul_hlp+0x3a6>
    2df8:	f04f 0e01 	mov.w	lr, #1
    2dfc:	f844 6c14 	str.w	r6, [r4, #-20]
    2e00:	44ce      	add	lr, r9
/mnt/disk/raspbian-tee/optee_os/lib/libmbedtls/mbedtls/library/bignum.c:1215 (discriminator 2)
    2e02:	2101      	movs	r1, #1
    2e04:	f04f 0800 	mov.w	r8, #0
    2e08:	f855 6c10 	ldr.w	r6, [r5, #-16]
    2e0c:	fba3 6706 	umull	r6, r7, r3, r6
    2e10:	eb1e 0e06 	adds.w	lr, lr, r6
    2e14:	bf38      	it	cc
    2e16:	2100      	movcc	r1, #0
    2e18:	eb01 0907 	add.w	r9, r1, r7
    2e1c:	f854 7c10 	ldr.w	r7, [r4, #-16]
    2e20:	eb1e 0707 	adds.w	r7, lr, r7
    2e24:	d301      	bcc.n	2e2a <mpi_mul_hlp+0x3d4>
    2e26:	f04f 0801 	mov.w	r8, #1
    2e2a:	f844 7c10 	str.w	r7, [r4, #-16]
    2e2e:	44c8      	add	r8, r9
    2e30:	2101      	movs	r1, #1
    2e32:	f04f 0e00 	mov.w	lr, #0
    2e36:	f855 6c0c 	ldr.w	r6, [r5, #-12]
    2e3a:	fba3 6706 	umull	r6, r7, r3, r6
    2e3e:	eb18 0806 	adds.w	r8, r8, r6
    2e42:	f854 6c0c 	ldr.w	r6, [r4, #-12]
    2e46:	bf38      	it	cc
    2e48:	2100      	movcc	r1, #0
    2e4a:	eb01 0907 	add.w	r9, r1, r7
    2e4e:	eb18 0606 	adds.w	r6, r8, r6
    2e52:	d301      	bcc.n	2e58 <mpi_mul_hlp+0x402>
    2e54:	f04f 0e01 	mov.w	lr, #1
    2e58:	f844 6c0c 	str.w	r6, [r4, #-12]
    2e5c:	44ce      	add	lr, r9
/mnt/disk/raspbian-tee/optee_os/lib/libmbedtls/mbedtls/library/bignum.c:1216 (discriminator 2)
    2e5e:	2101      	movs	r1, #1
    2e60:	f04f 0800 	mov.w	r8, #0
    2e64:	f855 6c08 	ldr.w	r6, [r5, #-8]
    2e68:	fba3 6706 	umull	r6, r7, r3, r6
    2e6c:	eb1e 0e06 	adds.w	lr, lr, r6
    2e70:	bf38      	it	cc
    2e72:	2100      	movcc	r1, #0
    2e74:	eb01 0907 	add.w	r9, r1, r7
    2e78:	f854 7c08 	ldr.w	r7, [r4, #-8]
    2e7c:	eb1e 0707 	adds.w	r7, lr, r7
    2e80:	d301      	bcc.n	2e86 <mpi_mul_hlp+0x430>
    2e82:	f04f 0801 	mov.w	r8, #1
    2e86:	f844 7c08 	str.w	r7, [r4, #-8]
    2e8a:	44c8      	add	r8, r9
    2e8c:	2101      	movs	r1, #1
    2e8e:	f04f 0e00 	mov.w	lr, #0
    2e92:	f855 6c04 	ldr.w	r6, [r5, #-4]
    2e96:	fba3 6706 	umull	r6, r7, r3, r6
    2e9a:	eb18 0806 	adds.w	r8, r8, r6
    2e9e:	f854 6c04 	ldr.w	r6, [r4, #-4]
    2ea2:	bf38      	it	cc
    2ea4:	2100      	movcc	r1, #0
    2ea6:	440f      	add	r7, r1
    2ea8:	eb18 0606 	adds.w	r6, r8, r6
    2eac:	d301      	bcc.n	2eb2 <mpi_mul_hlp+0x45c>
    2eae:	f04f 0e01 	mov.w	lr, #1
    2eb2:	f844 6c04 	str.w	r6, [r4, #-4]
/mnt/disk/raspbian-tee/optee_os/lib/libmbedtls/mbedtls/library/bignum.c:1205 (discriminator 2)
    2eb6:	f1ac 0c10 	sub.w	ip, ip, #16
/mnt/disk/raspbian-tee/optee_os/lib/libmbedtls/mbedtls/library/bignum.c:1216 (discriminator 2)
    2eba:	44be      	add	lr, r7
    2ebc:	e5d3      	b.n	2a66 <mpi_mul_hlp+0x10>
/mnt/disk/raspbian-tee/optee_os/lib/libmbedtls/mbedtls/library/bignum.c:1234 (discriminator 2)
    2ebe:	f855 6b04 	ldr.w	r6, [r5], #4
    2ec2:	2101      	movs	r1, #1
    2ec4:	fba3 6706 	umull	r6, r7, r3, r6
    2ec8:	eb1e 0206 	adds.w	r2, lr, r6
    2ecc:	6826      	ldr	r6, [r4, #0]
    2ece:	bf38      	it	cc
    2ed0:	2100      	movcc	r1, #0
    2ed2:	f04f 0e00 	mov.w	lr, #0
    2ed6:	4439      	add	r1, r7
    2ed8:	1992      	adds	r2, r2, r6
    2eda:	d301      	bcc.n	2ee0 <mpi_mul_hlp+0x48a>
    2edc:	f04f 0e01 	mov.w	lr, #1
    2ee0:	f844 2b04 	str.w	r2, [r4], #4
    2ee4:	448e      	add	lr, r1
    2ee6:	e667      	b.n	2bb8 <mpi_mul_hlp+0x162>

00002ee8 <mbedtls_mpi_mod_int.part.1>:
mbedtls_mpi_mod_int():
/mnt/disk/raspbian-tee/optee_os/lib/libmbedtls/mbedtls/library/bignum.c:1554
    2ee8:	b5f0      	push	{r4, r5, r6, r7, lr}
/mnt/disk/raspbian-tee/optee_os/lib/libmbedtls/mbedtls/library/bignum.c:1583
    2eea:	2300      	movs	r3, #0
    2eec:	888f      	ldrh	r7, [r1, #4]
    2eee:	f107 4480 	add.w	r4, r7, #1073741824	; 0x40000000
    2ef2:	3c01      	subs	r4, #1
    2ef4:	00a4      	lsls	r4, r4, #2
    2ef6:	b947      	cbnz	r7, 2f0a <mbedtls_mpi_mod_int.part.1+0x22>
/mnt/disk/raspbian-tee/optee_os/lib/libmbedtls/mbedtls/library/bignum.c:1600
    2ef8:	f991 1000 	ldrsb.w	r1, [r1]
    2efc:	2900      	cmp	r1, #0
    2efe:	da01      	bge.n	2f04 <mbedtls_mpi_mod_int.part.1+0x1c>
    2f00:	b103      	cbz	r3, 2f04 <mbedtls_mpi_mod_int.part.1+0x1c>
/mnt/disk/raspbian-tee/optee_os/lib/libmbedtls/mbedtls/library/bignum.c:1601
    2f02:	1ad3      	subs	r3, r2, r3
/mnt/disk/raspbian-tee/optee_os/lib/libmbedtls/mbedtls/library/bignum.c:1603
    2f04:	6003      	str	r3, [r0, #0]
/mnt/disk/raspbian-tee/optee_os/lib/libmbedtls/mbedtls/library/bignum.c:1606
    2f06:	2000      	movs	r0, #0
    2f08:	bdf0      	pop	{r4, r5, r6, r7, pc}
/mnt/disk/raspbian-tee/optee_os/lib/libmbedtls/mbedtls/library/bignum.c:1585
    2f0a:	688d      	ldr	r5, [r1, #8]
/mnt/disk/raspbian-tee/optee_os/lib/libmbedtls/mbedtls/library/bignum.c:1583
    2f0c:	3f01      	subs	r7, #1
/mnt/disk/raspbian-tee/optee_os/lib/libmbedtls/mbedtls/library/bignum.c:1585
    2f0e:	592e      	ldr	r6, [r5, r4]
    2f10:	3c04      	subs	r4, #4
/mnt/disk/raspbian-tee/optee_os/lib/libmbedtls/mbedtls/library/bignum.c:1586
    2f12:	0c35      	lsrs	r5, r6, #16
    2f14:	ea45 4303 	orr.w	r3, r5, r3, lsl #16
/mnt/disk/raspbian-tee/optee_os/lib/libmbedtls/mbedtls/library/bignum.c:1591
    2f18:	fbb3 f5f2 	udiv	r5, r3, r2
    2f1c:	fb02 3315 	mls	r3, r2, r5, r3
    2f20:	b2b5      	uxth	r5, r6
    2f22:	ea45 4503 	orr.w	r5, r5, r3, lsl #16
    2f26:	fbb5 f3f2 	udiv	r3, r5, r2
    2f2a:	fb02 5313 	mls	r3, r2, r3, r5
    2f2e:	e7e2      	b.n	2ef6 <mbedtls_mpi_mod_int.part.1+0xe>

00002f30 <mbedtls_mpi_init>:
mpi_init():
/mnt/disk/raspbian-tee/optee_os/lib/libmbedtls/mbedtls/library/bignum.c:90
    2f30:	b130      	cbz	r0, 2f40 <mbedtls_mpi_init+0x10>
/mnt/disk/raspbian-tee/optee_os/lib/libmbedtls/mbedtls/library/bignum.c:93
    2f32:	2301      	movs	r3, #1
    2f34:	7003      	strb	r3, [r0, #0]
/mnt/disk/raspbian-tee/optee_os/lib/libmbedtls/mbedtls/library/bignum.c:94
    2f36:	2300      	movs	r3, #0
    2f38:	7043      	strb	r3, [r0, #1]
/mnt/disk/raspbian-tee/optee_os/lib/libmbedtls/mbedtls/library/bignum.c:95
    2f3a:	8043      	strh	r3, [r0, #2]
/mnt/disk/raspbian-tee/optee_os/lib/libmbedtls/mbedtls/library/bignum.c:96
    2f3c:	8083      	strh	r3, [r0, #4]
/mnt/disk/raspbian-tee/optee_os/lib/libmbedtls/mbedtls/library/bignum.c:97
    2f3e:	6083      	str	r3, [r0, #8]
    2f40:	4770      	bx	lr

00002f42 <mbedtls_mpi_init_mempool>:
mbedtls_mpi_init_mempool():
/mnt/disk/raspbian-tee/optee_os/lib/libmbedtls/mbedtls/library/bignum.c:107
    2f42:	4a08      	ldr	r2, [pc, #32]	; (2f64 <mbedtls_mpi_init_mempool+0x22>)
    2f44:	447a      	add	r2, pc
    2f46:	6812      	ldr	r2, [r2, #0]
    2f48:	b142      	cbz	r2, 2f5c <mbedtls_mpi_init_mempool+0x1a>
mpi_init():
/mnt/disk/raspbian-tee/optee_os/lib/libmbedtls/mbedtls/library/bignum.c:90
    2f4a:	b148      	cbz	r0, 2f60 <mbedtls_mpi_init_mempool+0x1e>
/mnt/disk/raspbian-tee/optee_os/lib/libmbedtls/mbedtls/library/bignum.c:93
    2f4c:	2201      	movs	r2, #1
    2f4e:	7002      	strb	r2, [r0, #0]
/mnt/disk/raspbian-tee/optee_os/lib/libmbedtls/mbedtls/library/bignum.c:94
    2f50:	7042      	strb	r2, [r0, #1]
/mnt/disk/raspbian-tee/optee_os/lib/libmbedtls/mbedtls/library/bignum.c:95
    2f52:	2200      	movs	r2, #0
    2f54:	8042      	strh	r2, [r0, #2]
/mnt/disk/raspbian-tee/optee_os/lib/libmbedtls/mbedtls/library/bignum.c:96
    2f56:	8082      	strh	r2, [r0, #4]
/mnt/disk/raspbian-tee/optee_os/lib/libmbedtls/mbedtls/library/bignum.c:97
    2f58:	6082      	str	r2, [r0, #8]
    2f5a:	4770      	bx	lr
mbedtls_mpi_init_mempool():
/mnt/disk/raspbian-tee/optee_os/lib/libmbedtls/mbedtls/library/bignum.c:110
    2f5c:	f7ff bfe8 	b.w	2f30 <mbedtls_mpi_init>
    2f60:	4770      	bx	lr
    2f62:	bf00      	nop
    2f64:	00007594 	.word	0x00007594

00002f68 <mbedtls_mpi_init_static>:
mpi_init():
/mnt/disk/raspbian-tee/optee_os/lib/libmbedtls/mbedtls/library/bignum.c:90
    2f68:	b130      	cbz	r0, 2f78 <mbedtls_mpi_init_static+0x10>
/mnt/disk/raspbian-tee/optee_os/lib/libmbedtls/mbedtls/library/bignum.c:95
    2f6a:	8043      	strh	r3, [r0, #2]
/mnt/disk/raspbian-tee/optee_os/lib/libmbedtls/mbedtls/library/bignum.c:96
    2f6c:	9b00      	ldr	r3, [sp, #0]
/mnt/disk/raspbian-tee/optee_os/lib/libmbedtls/mbedtls/library/bignum.c:93
    2f6e:	7002      	strb	r2, [r0, #0]
/mnt/disk/raspbian-tee/optee_os/lib/libmbedtls/mbedtls/library/bignum.c:94
    2f70:	2202      	movs	r2, #2
/mnt/disk/raspbian-tee/optee_os/lib/libmbedtls/mbedtls/library/bignum.c:96
    2f72:	8083      	strh	r3, [r0, #4]
/mnt/disk/raspbian-tee/optee_os/lib/libmbedtls/mbedtls/library/bignum.c:94
    2f74:	7042      	strb	r2, [r0, #1]
/mnt/disk/raspbian-tee/optee_os/lib/libmbedtls/mbedtls/library/bignum.c:97
    2f76:	6081      	str	r1, [r0, #8]
    2f78:	4770      	bx	lr

00002f7a <mbedtls_mpi_free>:
mbedtls_mpi_free():
/mnt/disk/raspbian-tee/optee_os/lib/libmbedtls/mbedtls/library/bignum.c:123
    2f7a:	b538      	push	{r3, r4, r5, lr}
/mnt/disk/raspbian-tee/optee_os/lib/libmbedtls/mbedtls/library/bignum.c:124
    2f7c:	4604      	mov	r4, r0
    2f7e:	b178      	cbz	r0, 2fa0 <mbedtls_mpi_free+0x26>
/mnt/disk/raspbian-tee/optee_os/lib/libmbedtls/mbedtls/library/bignum.c:127
    2f80:	6881      	ldr	r1, [r0, #8]
    2f82:	b149      	cbz	r1, 2f98 <mbedtls_mpi_free+0x1e>
/mnt/disk/raspbian-tee/optee_os/lib/libmbedtls/mbedtls/library/bignum.c:129
    2f84:	8883      	ldrh	r3, [r0, #4]
    2f86:	460a      	mov	r2, r1
mbedtls_mpi_zeroize():
/mnt/disk/raspbian-tee/optee_os/lib/libmbedtls/mbedtls/library/bignum.c:65
    2f88:	2000      	movs	r0, #0
    2f8a:	f113 33ff 	adds.w	r3, r3, #4294967295	; 0xffffffff
    2f8e:	d208      	bcs.n	2fa2 <mbedtls_mpi_free+0x28>
mbedtls_mpi_free():
/mnt/disk/raspbian-tee/optee_os/lib/libmbedtls/mbedtls/library/bignum.c:130
    2f90:	7865      	ldrb	r5, [r4, #1]
    2f92:	b14d      	cbz	r5, 2fa8 <mbedtls_mpi_free+0x2e>
    2f94:	2d01      	cmp	r5, #1
    2f96:	d00c      	beq.n	2fb2 <mbedtls_mpi_free+0x38>
/mnt/disk/raspbian-tee/optee_os/lib/libmbedtls/mbedtls/library/bignum.c:144
    2f98:	2301      	movs	r3, #1
    2f9a:	7023      	strb	r3, [r4, #0]
/mnt/disk/raspbian-tee/optee_os/lib/libmbedtls/mbedtls/library/bignum.c:145
    2f9c:	2300      	movs	r3, #0
    2f9e:	80a3      	strh	r3, [r4, #4]
    2fa0:	bd38      	pop	{r3, r4, r5, pc}
mbedtls_mpi_zeroize():
/mnt/disk/raspbian-tee/optee_os/lib/libmbedtls/mbedtls/library/bignum.c:65
    2fa2:	6010      	str	r0, [r2, #0]
    2fa4:	3204      	adds	r2, #4
    2fa6:	e7f0      	b.n	2f8a <mbedtls_mpi_free+0x10>
mbedtls_mpi_free():
/mnt/disk/raspbian-tee/optee_os/lib/libmbedtls/mbedtls/library/bignum.c:132
    2fa8:	4608      	mov	r0, r1
    2faa:	f002 fc46 	bl	583a <free>
/mnt/disk/raspbian-tee/optee_os/lib/libmbedtls/mbedtls/library/bignum.c:133
    2fae:	60a5      	str	r5, [r4, #8]
/mnt/disk/raspbian-tee/optee_os/lib/libmbedtls/mbedtls/library/bignum.c:134
    2fb0:	e7f2      	b.n	2f98 <mbedtls_mpi_free+0x1e>
/mnt/disk/raspbian-tee/optee_os/lib/libmbedtls/mbedtls/library/bignum.c:136
    2fb2:	4b04      	ldr	r3, [pc, #16]	; (2fc4 <mbedtls_mpi_free+0x4a>)
    2fb4:	447b      	add	r3, pc
    2fb6:	6818      	ldr	r0, [r3, #0]
    2fb8:	f002 ff5a 	bl	5e70 <mempool_free>
/mnt/disk/raspbian-tee/optee_os/lib/libmbedtls/mbedtls/library/bignum.c:137
    2fbc:	2300      	movs	r3, #0
    2fbe:	60a3      	str	r3, [r4, #8]
/mnt/disk/raspbian-tee/optee_os/lib/libmbedtls/mbedtls/library/bignum.c:138
    2fc0:	e7ea      	b.n	2f98 <mbedtls_mpi_free+0x1e>
    2fc2:	bf00      	nop
    2fc4:	00007524 	.word	0x00007524

00002fc8 <mbedtls_mpi_grow>:
mbedtls_mpi_grow():
/mnt/disk/raspbian-tee/optee_os/lib/libmbedtls/mbedtls/library/bignum.c:152
    2fc8:	b570      	push	{r4, r5, r6, lr}
/mnt/disk/raspbian-tee/optee_os/lib/libmbedtls/mbedtls/library/bignum.c:155
    2fca:	f242 7310 	movw	r3, #10000	; 0x2710
/mnt/disk/raspbian-tee/optee_os/lib/libmbedtls/mbedtls/library/bignum.c:152
    2fce:	4604      	mov	r4, r0
    2fd0:	460d      	mov	r5, r1
/mnt/disk/raspbian-tee/optee_os/lib/libmbedtls/mbedtls/library/bignum.c:155
    2fd2:	4299      	cmp	r1, r3
    2fd4:	d902      	bls.n	2fdc <mbedtls_mpi_grow+0x14>
/mnt/disk/raspbian-tee/optee_os/lib/libmbedtls/mbedtls/library/bignum.c:156
    2fd6:	f06f 000f 	mvn.w	r0, #15
    2fda:	bd70      	pop	{r4, r5, r6, pc}
/mnt/disk/raspbian-tee/optee_os/lib/libmbedtls/mbedtls/library/bignum.c:158
    2fdc:	8883      	ldrh	r3, [r0, #4]
    2fde:	4299      	cmp	r1, r3
    2fe0:	d92d      	bls.n	303e <mbedtls_mpi_grow+0x76>
/mnt/disk/raspbian-tee/optee_os/lib/libmbedtls/mbedtls/library/bignum.c:161
    2fe2:	7842      	ldrb	r2, [r0, #1]
    2fe4:	2a01      	cmp	r2, #1
    2fe6:	d017      	beq.n	3018 <mbedtls_mpi_grow+0x50>
    2fe8:	d304      	bcc.n	2ff4 <mbedtls_mpi_grow+0x2c>
    2fea:	2a02      	cmp	r2, #2
    2fec:	d01b      	beq.n	3026 <mbedtls_mpi_grow+0x5e>
/mnt/disk/raspbian-tee/optee_os/lib/libmbedtls/mbedtls/library/bignum.c:174
    2fee:	f06f 0003 	mvn.w	r0, #3
/mnt/disk/raspbian-tee/optee_os/lib/libmbedtls/mbedtls/library/bignum.c:196
    2ff2:	bd70      	pop	{r4, r5, r6, pc}
/mnt/disk/raspbian-tee/optee_os/lib/libmbedtls/mbedtls/library/bignum.c:163
    2ff4:	2104      	movs	r1, #4
    2ff6:	4628      	mov	r0, r5
    2ff8:	f002 fc28 	bl	584c <calloc>
/mnt/disk/raspbian-tee/optee_os/lib/libmbedtls/mbedtls/library/bignum.c:166
    2ffc:	4606      	mov	r6, r0
/mnt/disk/raspbian-tee/optee_os/lib/libmbedtls/mbedtls/library/bignum.c:177
    2ffe:	2800      	cmp	r0, #0
    3000:	d0e9      	beq.n	2fd6 <mbedtls_mpi_grow+0xe>
/mnt/disk/raspbian-tee/optee_os/lib/libmbedtls/mbedtls/library/bignum.c:180
    3002:	68a1      	ldr	r1, [r4, #8]
    3004:	b9e9      	cbnz	r1, 3042 <mbedtls_mpi_grow+0x7a>
/mnt/disk/raspbian-tee/optee_os/lib/libmbedtls/mbedtls/library/bignum.c:186
    3006:	7863      	ldrb	r3, [r4, #1]
    3008:	b343      	cbz	r3, 305c <mbedtls_mpi_grow+0x94>
/mnt/disk/raspbian-tee/optee_os/lib/libmbedtls/mbedtls/library/bignum.c:189
    300a:	4b17      	ldr	r3, [pc, #92]	; (3068 <mbedtls_mpi_grow+0xa0>)
    300c:	68a1      	ldr	r1, [r4, #8]
    300e:	447b      	add	r3, pc
    3010:	6818      	ldr	r0, [r3, #0]
    3012:	f002 ff2d 	bl	5e70 <mempool_free>
    3016:	e024      	b.n	3062 <mbedtls_mpi_grow+0x9a>
/mnt/disk/raspbian-tee/optee_os/lib/libmbedtls/mbedtls/library/bignum.c:166
    3018:	4b14      	ldr	r3, [pc, #80]	; (306c <mbedtls_mpi_grow+0xa4>)
    301a:	2204      	movs	r2, #4
    301c:	447b      	add	r3, pc
    301e:	6818      	ldr	r0, [r3, #0]
    3020:	f002 ff14 	bl	5e4c <mempool_calloc>
    3024:	e7ea      	b.n	2ffc <mbedtls_mpi_grow+0x34>
/mnt/disk/raspbian-tee/optee_os/lib/libmbedtls/mbedtls/library/bignum.c:169
    3026:	8842      	ldrh	r2, [r0, #2]
    3028:	4291      	cmp	r1, r2
    302a:	d8d4      	bhi.n	2fd6 <mbedtls_mpi_grow+0xe>
/mnt/disk/raspbian-tee/optee_os/lib/libmbedtls/mbedtls/library/bignum.c:171
    302c:	6880      	ldr	r0, [r0, #8]
    302e:	1aca      	subs	r2, r1, r3
    3030:	0092      	lsls	r2, r2, #2
    3032:	2100      	movs	r1, #0
    3034:	eb00 0083 	add.w	r0, r0, r3, lsl #2
    3038:	f002 ff66 	bl	5f08 <memset>
/mnt/disk/raspbian-tee/optee_os/lib/libmbedtls/mbedtls/library/bignum.c:193
    303c:	80a5      	strh	r5, [r4, #4]
/mnt/disk/raspbian-tee/optee_os/lib/libmbedtls/mbedtls/library/bignum.c:159
    303e:	2000      	movs	r0, #0
    3040:	bd70      	pop	{r4, r5, r6, pc}
/mnt/disk/raspbian-tee/optee_os/lib/libmbedtls/mbedtls/library/bignum.c:181
    3042:	88a2      	ldrh	r2, [r4, #4]
    3044:	0092      	lsls	r2, r2, #2
    3046:	f003 f84e 	bl	60e6 <memcpy>
/mnt/disk/raspbian-tee/optee_os/lib/libmbedtls/mbedtls/library/bignum.c:182
    304a:	88a3      	ldrh	r3, [r4, #4]
mbedtls_mpi_zeroize():
/mnt/disk/raspbian-tee/optee_os/lib/libmbedtls/mbedtls/library/bignum.c:65
    304c:	68a2      	ldr	r2, [r4, #8]
    304e:	2100      	movs	r1, #0
    3050:	f113 33ff 	adds.w	r3, r3, #4294967295	; 0xffffffff
    3054:	d3d7      	bcc.n	3006 <mbedtls_mpi_grow+0x3e>
    3056:	6011      	str	r1, [r2, #0]
    3058:	3204      	adds	r2, #4
    305a:	e7f9      	b.n	3050 <mbedtls_mpi_grow+0x88>
mbedtls_mpi_grow():
/mnt/disk/raspbian-tee/optee_os/lib/libmbedtls/mbedtls/library/bignum.c:187
    305c:	68a0      	ldr	r0, [r4, #8]
    305e:	f002 fbec 	bl	583a <free>
/mnt/disk/raspbian-tee/optee_os/lib/libmbedtls/mbedtls/library/bignum.c:191
    3062:	60a6      	str	r6, [r4, #8]
    3064:	e7ea      	b.n	303c <mbedtls_mpi_grow+0x74>
    3066:	bf00      	nop
    3068:	000074ca 	.word	0x000074ca
    306c:	000074bc 	.word	0x000074bc

00003070 <mbedtls_mpi_shrink>:
mbedtls_mpi_shrink():
/mnt/disk/raspbian-tee/optee_os/lib/libmbedtls/mbedtls/library/bignum.c:208
    3070:	8883      	ldrh	r3, [r0, #4]
/mnt/disk/raspbian-tee/optee_os/lib/libmbedtls/mbedtls/library/bignum.c:203
    3072:	b570      	push	{r4, r5, r6, lr}
    3074:	4604      	mov	r4, r0
    3076:	460e      	mov	r6, r1
/mnt/disk/raspbian-tee/optee_os/lib/libmbedtls/mbedtls/library/bignum.c:208
    3078:	428b      	cmp	r3, r1
    307a:	d803      	bhi.n	3084 <mbedtls_mpi_shrink+0x14>
/mnt/disk/raspbian-tee/optee_os/lib/libmbedtls/mbedtls/library/bignum.c:252
    307c:	e8bd 4070 	ldmia.w	sp!, {r4, r5, r6, lr}
/mnt/disk/raspbian-tee/optee_os/lib/libmbedtls/mbedtls/library/bignum.c:209
    3080:	f7ff bfa2 	b.w	2fc8 <mbedtls_mpi_grow>
/mnt/disk/raspbian-tee/optee_os/lib/libmbedtls/mbedtls/library/bignum.c:211
    3084:	1e5a      	subs	r2, r3, #1
    3086:	4619      	mov	r1, r3
    3088:	0092      	lsls	r2, r2, #2
    308a:	1e4d      	subs	r5, r1, #1
/mnt/disk/raspbian-tee/optee_os/lib/libmbedtls/mbedtls/library/bignum.c:211 (discriminator 1)
    308c:	2901      	cmp	r1, #1
    308e:	d101      	bne.n	3094 <mbedtls_mpi_shrink+0x24>
    3090:	2500      	movs	r5, #0
    3092:	e005      	b.n	30a0 <mbedtls_mpi_shrink+0x30>
/mnt/disk/raspbian-tee/optee_os/lib/libmbedtls/mbedtls/library/bignum.c:212
    3094:	68a1      	ldr	r1, [r4, #8]
    3096:	5888      	ldr	r0, [r1, r2]
    3098:	4629      	mov	r1, r5
    309a:	3a04      	subs	r2, #4
    309c:	2800      	cmp	r0, #0
    309e:	d0f4      	beq.n	308a <mbedtls_mpi_shrink+0x1a>
/mnt/disk/raspbian-tee/optee_os/lib/libmbedtls/mbedtls/library/bignum.c:214
    30a0:	3501      	adds	r5, #1
/mnt/disk/raspbian-tee/optee_os/lib/libmbedtls/mbedtls/library/bignum.c:219
    30a2:	7862      	ldrb	r2, [r4, #1]
    30a4:	42b5      	cmp	r5, r6
    30a6:	bf38      	it	cc
    30a8:	4635      	movcc	r5, r6
    30aa:	2a01      	cmp	r2, #1
    30ac:	d01d      	beq.n	30ea <mbedtls_mpi_shrink+0x7a>
    30ae:	d304      	bcc.n	30ba <mbedtls_mpi_shrink+0x4a>
    30b0:	2a02      	cmp	r2, #2
    30b2:	d022      	beq.n	30fa <mbedtls_mpi_shrink+0x8a>
/mnt/disk/raspbian-tee/optee_os/lib/libmbedtls/mbedtls/library/bignum.c:233
    30b4:	f06f 0003 	mvn.w	r0, #3
    30b8:	bd70      	pop	{r4, r5, r6, pc}
/mnt/disk/raspbian-tee/optee_os/lib/libmbedtls/mbedtls/library/bignum.c:221
    30ba:	2104      	movs	r1, #4
    30bc:	4630      	mov	r0, r6
    30be:	f002 fbc5 	bl	584c <calloc>
/mnt/disk/raspbian-tee/optee_os/lib/libmbedtls/mbedtls/library/bignum.c:237
    30c2:	68a1      	ldr	r1, [r4, #8]
/mnt/disk/raspbian-tee/optee_os/lib/libmbedtls/mbedtls/library/bignum.c:224
    30c4:	4606      	mov	r6, r0
/mnt/disk/raspbian-tee/optee_os/lib/libmbedtls/mbedtls/library/bignum.c:237
    30c6:	b171      	cbz	r1, 30e6 <mbedtls_mpi_shrink+0x76>
/mnt/disk/raspbian-tee/optee_os/lib/libmbedtls/mbedtls/library/bignum.c:239
    30c8:	00aa      	lsls	r2, r5, #2
    30ca:	f003 f80c 	bl	60e6 <memcpy>
/mnt/disk/raspbian-tee/optee_os/lib/libmbedtls/mbedtls/library/bignum.c:240
    30ce:	68a1      	ldr	r1, [r4, #8]
    30d0:	88a3      	ldrh	r3, [r4, #4]
mbedtls_mpi_zeroize():
/mnt/disk/raspbian-tee/optee_os/lib/libmbedtls/mbedtls/library/bignum.c:65
    30d2:	2000      	movs	r0, #0
    30d4:	460a      	mov	r2, r1
    30d6:	f113 33ff 	adds.w	r3, r3, #4294967295	; 0xffffffff
    30da:	d21f      	bcs.n	311c <mbedtls_mpi_shrink+0xac>
mbedtls_mpi_shrink():
/mnt/disk/raspbian-tee/optee_os/lib/libmbedtls/mbedtls/library/bignum.c:241
    30dc:	7863      	ldrb	r3, [r4, #1]
    30de:	bb03      	cbnz	r3, 3122 <mbedtls_mpi_shrink+0xb2>
/mnt/disk/raspbian-tee/optee_os/lib/libmbedtls/mbedtls/library/bignum.c:242
    30e0:	4608      	mov	r0, r1
    30e2:	f002 fbaa 	bl	583a <free>
/mnt/disk/raspbian-tee/optee_os/lib/libmbedtls/mbedtls/library/bignum.c:247
    30e6:	60a6      	str	r6, [r4, #8]
    30e8:	e012      	b.n	3110 <mbedtls_mpi_shrink+0xa0>
/mnt/disk/raspbian-tee/optee_os/lib/libmbedtls/mbedtls/library/bignum.c:224
    30ea:	4b12      	ldr	r3, [pc, #72]	; (3134 <mbedtls_mpi_shrink+0xc4>)
    30ec:	2204      	movs	r2, #4
    30ee:	4631      	mov	r1, r6
    30f0:	447b      	add	r3, pc
    30f2:	6818      	ldr	r0, [r3, #0]
    30f4:	f002 feaa 	bl	5e4c <mempool_calloc>
    30f8:	e7e3      	b.n	30c2 <mbedtls_mpi_shrink+0x52>
/mnt/disk/raspbian-tee/optee_os/lib/libmbedtls/mbedtls/library/bignum.c:227
    30fa:	8862      	ldrh	r2, [r4, #2]
    30fc:	4296      	cmp	r6, r2
    30fe:	d816      	bhi.n	312e <mbedtls_mpi_shrink+0xbe>
/mnt/disk/raspbian-tee/optee_os/lib/libmbedtls/mbedtls/library/bignum.c:229
    3100:	68a2      	ldr	r2, [r4, #8]
    3102:	1b5b      	subs	r3, r3, r5
mbedtls_mpi_zeroize():
/mnt/disk/raspbian-tee/optee_os/lib/libmbedtls/mbedtls/library/bignum.c:65
    3104:	2100      	movs	r1, #0
    3106:	eb02 0285 	add.w	r2, r2, r5, lsl #2
    310a:	f113 33ff 	adds.w	r3, r3, #4294967295	; 0xffffffff
    310e:	d202      	bcs.n	3116 <mbedtls_mpi_shrink+0xa6>
mbedtls_mpi_shrink():
/mnt/disk/raspbian-tee/optee_os/lib/libmbedtls/mbedtls/library/bignum.c:249
    3110:	80a5      	strh	r5, [r4, #4]
/mnt/disk/raspbian-tee/optee_os/lib/libmbedtls/mbedtls/library/bignum.c:251
    3112:	2000      	movs	r0, #0
    3114:	bd70      	pop	{r4, r5, r6, pc}
mbedtls_mpi_zeroize():
/mnt/disk/raspbian-tee/optee_os/lib/libmbedtls/mbedtls/library/bignum.c:65
    3116:	6011      	str	r1, [r2, #0]
    3118:	3204      	adds	r2, #4
    311a:	e7f6      	b.n	310a <mbedtls_mpi_shrink+0x9a>
    311c:	6010      	str	r0, [r2, #0]
    311e:	3204      	adds	r2, #4
    3120:	e7d9      	b.n	30d6 <mbedtls_mpi_shrink+0x66>
mbedtls_mpi_shrink():
/mnt/disk/raspbian-tee/optee_os/lib/libmbedtls/mbedtls/library/bignum.c:244
    3122:	4b05      	ldr	r3, [pc, #20]	; (3138 <mbedtls_mpi_shrink+0xc8>)
    3124:	447b      	add	r3, pc
    3126:	6818      	ldr	r0, [r3, #0]
    3128:	f002 fea2 	bl	5e70 <mempool_free>
    312c:	e7db      	b.n	30e6 <mbedtls_mpi_shrink+0x76>
/mnt/disk/raspbian-tee/optee_os/lib/libmbedtls/mbedtls/library/bignum.c:228
    312e:	f06f 000f 	mvn.w	r0, #15
/mnt/disk/raspbian-tee/optee_os/lib/libmbedtls/mbedtls/library/bignum.c:252
    3132:	bd70      	pop	{r4, r5, r6, pc}
    3134:	000073e8 	.word	0x000073e8
    3138:	000073b4 	.word	0x000073b4

0000313c <mbedtls_mpi_copy>:
mbedtls_mpi_copy():
/mnt/disk/raspbian-tee/optee_os/lib/libmbedtls/mbedtls/library/bignum.c:258
    313c:	b5f8      	push	{r3, r4, r5, r6, r7, lr}
/mnt/disk/raspbian-tee/optee_os/lib/libmbedtls/mbedtls/library/bignum.c:262
    313e:	4288      	cmp	r0, r1
/mnt/disk/raspbian-tee/optee_os/lib/libmbedtls/mbedtls/library/bignum.c:258
    3140:	4606      	mov	r6, r0
    3142:	460f      	mov	r7, r1
/mnt/disk/raspbian-tee/optee_os/lib/libmbedtls/mbedtls/library/bignum.c:262
    3144:	d023      	beq.n	318e <mbedtls_mpi_copy+0x52>
/mnt/disk/raspbian-tee/optee_os/lib/libmbedtls/mbedtls/library/bignum.c:265
    3146:	688d      	ldr	r5, [r1, #8]
    3148:	b91d      	cbnz	r5, 3152 <mbedtls_mpi_copy+0x16>
/mnt/disk/raspbian-tee/optee_os/lib/libmbedtls/mbedtls/library/bignum.c:267
    314a:	f7ff ff16 	bl	2f7a <mbedtls_mpi_free>
/mnt/disk/raspbian-tee/optee_os/lib/libmbedtls/mbedtls/library/bignum.c:286
    314e:	4628      	mov	r0, r5
    3150:	bdf8      	pop	{r3, r4, r5, r6, r7, pc}
/mnt/disk/raspbian-tee/optee_os/lib/libmbedtls/mbedtls/library/bignum.c:271
    3152:	888a      	ldrh	r2, [r1, #4]
/mnt/disk/raspbian-tee/optee_os/lib/libmbedtls/mbedtls/library/bignum.c:271 (discriminator 2)
    3154:	3a01      	subs	r2, #1
    3156:	b11a      	cbz	r2, 3160 <mbedtls_mpi_copy+0x24>
/mnt/disk/raspbian-tee/optee_os/lib/libmbedtls/mbedtls/library/bignum.c:272
    3158:	f855 3022 	ldr.w	r3, [r5, r2, lsl #2]
    315c:	2b00      	cmp	r3, #0
    315e:	d0f9      	beq.n	3154 <mbedtls_mpi_copy+0x18>
/mnt/disk/raspbian-tee/optee_os/lib/libmbedtls/mbedtls/library/bignum.c:274
    3160:	1c54      	adds	r4, r2, #1
/mnt/disk/raspbian-tee/optee_os/lib/libmbedtls/mbedtls/library/bignum.c:276
    3162:	f997 3000 	ldrsb.w	r3, [r7]
    3166:	7033      	strb	r3, [r6, #0]
/mnt/disk/raspbian-tee/optee_os/lib/libmbedtls/mbedtls/library/bignum.c:278
    3168:	4621      	mov	r1, r4
    316a:	4630      	mov	r0, r6
    316c:	f7ff ff2c 	bl	2fc8 <mbedtls_mpi_grow>
    3170:	4605      	mov	r5, r0
    3172:	2800      	cmp	r0, #0
    3174:	d1eb      	bne.n	314e <mbedtls_mpi_copy+0x12>
/mnt/disk/raspbian-tee/optee_os/lib/libmbedtls/mbedtls/library/bignum.c:280
    3176:	88b2      	ldrh	r2, [r6, #4]
    3178:	4601      	mov	r1, r0
    317a:	68b0      	ldr	r0, [r6, #8]
    317c:	0092      	lsls	r2, r2, #2
    317e:	f002 fec3 	bl	5f08 <memset>
/mnt/disk/raspbian-tee/optee_os/lib/libmbedtls/mbedtls/library/bignum.c:281
    3182:	00a2      	lsls	r2, r4, #2
    3184:	68b9      	ldr	r1, [r7, #8]
    3186:	68b0      	ldr	r0, [r6, #8]
    3188:	f002 ffad 	bl	60e6 <memcpy>
    318c:	e7df      	b.n	314e <mbedtls_mpi_copy+0x12>
/mnt/disk/raspbian-tee/optee_os/lib/libmbedtls/mbedtls/library/bignum.c:263
    318e:	2500      	movs	r5, #0
    3190:	e7dd      	b.n	314e <mbedtls_mpi_copy+0x12>

00003192 <mbedtls_mpi_swap>:
mbedtls_mpi_swap():
/mnt/disk/raspbian-tee/optee_os/lib/libmbedtls/mbedtls/library/bignum.c:292
    3192:	b5f0      	push	{r4, r5, r6, r7, lr}
/mnt/disk/raspbian-tee/optee_os/lib/libmbedtls/mbedtls/library/bignum.c:295
    3194:	250c      	movs	r5, #12
/mnt/disk/raspbian-tee/optee_os/lib/libmbedtls/mbedtls/library/bignum.c:292
    3196:	460e      	mov	r6, r1
    3198:	b085      	sub	sp, #20
    319a:	4607      	mov	r7, r0
/mnt/disk/raspbian-tee/optee_os/lib/libmbedtls/mbedtls/library/bignum.c:295
    319c:	ac01      	add	r4, sp, #4
    319e:	462a      	mov	r2, r5
    31a0:	4601      	mov	r1, r0
    31a2:	4620      	mov	r0, r4
    31a4:	f002 ff9f 	bl	60e6 <memcpy>
/mnt/disk/raspbian-tee/optee_os/lib/libmbedtls/mbedtls/library/bignum.c:296
    31a8:	462a      	mov	r2, r5
    31aa:	4631      	mov	r1, r6
    31ac:	4638      	mov	r0, r7
    31ae:	f002 ff9a 	bl	60e6 <memcpy>
/mnt/disk/raspbian-tee/optee_os/lib/libmbedtls/mbedtls/library/bignum.c:297
    31b2:	462a      	mov	r2, r5
    31b4:	4621      	mov	r1, r4
    31b6:	4630      	mov	r0, r6
    31b8:	f002 ff95 	bl	60e6 <memcpy>
/mnt/disk/raspbian-tee/optee_os/lib/libmbedtls/mbedtls/library/bignum.c:298
    31bc:	b005      	add	sp, #20
    31be:	bdf0      	pop	{r4, r5, r6, r7, pc}

000031c0 <mbedtls_mpi_safe_cond_assign>:
mbedtls_mpi_safe_cond_assign():
/mnt/disk/raspbian-tee/optee_os/lib/libmbedtls/mbedtls/library/bignum.c:306
    31c0:	e92d 41f0 	stmdb	sp!, {r4, r5, r6, r7, r8, lr}
    31c4:	460e      	mov	r6, r1
/mnt/disk/raspbian-tee/optee_os/lib/libmbedtls/mbedtls/library/bignum.c:313
    31c6:	8889      	ldrh	r1, [r1, #4]
/mnt/disk/raspbian-tee/optee_os/lib/libmbedtls/mbedtls/library/bignum.c:306
    31c8:	4605      	mov	r5, r0
    31ca:	4614      	mov	r4, r2
/mnt/disk/raspbian-tee/optee_os/lib/libmbedtls/mbedtls/library/bignum.c:313
    31cc:	f7ff fefc 	bl	2fc8 <mbedtls_mpi_grow>
    31d0:	b9a0      	cbnz	r0, 31fc <mbedtls_mpi_safe_cond_assign+0x3c>
/mnt/disk/raspbian-tee/optee_os/lib/libmbedtls/mbedtls/library/bignum.c:311
    31d2:	4262      	negs	r2, r4
/mnt/disk/raspbian-tee/optee_os/lib/libmbedtls/mbedtls/library/bignum.c:315
    31d4:	7831      	ldrb	r1, [r6, #0]
/mnt/disk/raspbian-tee/optee_os/lib/libmbedtls/mbedtls/library/bignum.c:311
    31d6:	4322      	orrs	r2, r4
/mnt/disk/raspbian-tee/optee_os/lib/libmbedtls/mbedtls/library/bignum.c:315
    31d8:	782b      	ldrb	r3, [r5, #0]
/mnt/disk/raspbian-tee/optee_os/lib/libmbedtls/mbedtls/library/bignum.c:311
    31da:	f3c2 12c0 	ubfx	r2, r2, #7, #1
/mnt/disk/raspbian-tee/optee_os/lib/libmbedtls/mbedtls/library/bignum.c:315
    31de:	f1c2 0401 	rsb	r4, r2, #1
    31e2:	fb11 f102 	smulbb	r1, r1, r2
    31e6:	fb03 1304 	mla	r3, r3, r4, r1
    31ea:	702b      	strb	r3, [r5, #0]
/mnt/disk/raspbian-tee/optee_os/lib/libmbedtls/mbedtls/library/bignum.c:317
    31ec:	4603      	mov	r3, r0
    31ee:	88b1      	ldrh	r1, [r6, #4]
/mnt/disk/raspbian-tee/optee_os/lib/libmbedtls/mbedtls/library/bignum.c:317 (discriminator 1)
    31f0:	428b      	cmp	r3, r1
    31f2:	d305      	bcc.n	3200 <mbedtls_mpi_safe_cond_assign+0x40>
/mnt/disk/raspbian-tee/optee_os/lib/libmbedtls/mbedtls/library/bignum.c:320
    31f4:	88af      	ldrh	r7, [r5, #4]
    31f6:	008b      	lsls	r3, r1, #2
/mnt/disk/raspbian-tee/optee_os/lib/libmbedtls/mbedtls/library/bignum.c:320 (discriminator 1)
    31f8:	42b9      	cmp	r1, r7
    31fa:	d310      	bcc.n	321e <mbedtls_mpi_safe_cond_assign+0x5e>
/mnt/disk/raspbian-tee/optee_os/lib/libmbedtls/mbedtls/library/bignum.c:325
    31fc:	e8bd 81f0 	ldmia.w	sp!, {r4, r5, r6, r7, r8, pc}
/mnt/disk/raspbian-tee/optee_os/lib/libmbedtls/mbedtls/library/bignum.c:318 (discriminator 3)
    3200:	68b7      	ldr	r7, [r6, #8]
    3202:	f8d5 e008 	ldr.w	lr, [r5, #8]
    3206:	f857 8023 	ldr.w	r8, [r7, r3, lsl #2]
    320a:	f85e 7023 	ldr.w	r7, [lr, r3, lsl #2]
    320e:	fb07 fc04 	mul.w	ip, r7, r4
    3212:	fb08 c702 	mla	r7, r8, r2, ip
    3216:	f84e 7023 	str.w	r7, [lr, r3, lsl #2]
/mnt/disk/raspbian-tee/optee_os/lib/libmbedtls/mbedtls/library/bignum.c:317 (discriminator 3)
    321a:	3301      	adds	r3, #1
    321c:	e7e8      	b.n	31f0 <mbedtls_mpi_safe_cond_assign+0x30>
/mnt/disk/raspbian-tee/optee_os/lib/libmbedtls/mbedtls/library/bignum.c:321 (discriminator 2)
    321e:	68ae      	ldr	r6, [r5, #8]
/mnt/disk/raspbian-tee/optee_os/lib/libmbedtls/mbedtls/library/bignum.c:320 (discriminator 2)
    3220:	3101      	adds	r1, #1
/mnt/disk/raspbian-tee/optee_os/lib/libmbedtls/mbedtls/library/bignum.c:321 (discriminator 2)
    3222:	58f2      	ldr	r2, [r6, r3]
    3224:	4362      	muls	r2, r4
    3226:	50f2      	str	r2, [r6, r3]
    3228:	3304      	adds	r3, #4
    322a:	e7e5      	b.n	31f8 <mbedtls_mpi_safe_cond_assign+0x38>

0000322c <mbedtls_mpi_safe_cond_swap>:
mbedtls_mpi_safe_cond_swap():
/mnt/disk/raspbian-tee/optee_os/lib/libmbedtls/mbedtls/library/bignum.c:334
    322c:	e92d 41f0 	stmdb	sp!, {r4, r5, r6, r7, r8, lr}
/mnt/disk/raspbian-tee/optee_os/lib/libmbedtls/mbedtls/library/bignum.c:339
    3230:	4288      	cmp	r0, r1
/mnt/disk/raspbian-tee/optee_os/lib/libmbedtls/mbedtls/library/bignum.c:334
    3232:	4605      	mov	r5, r0
    3234:	460c      	mov	r4, r1
    3236:	4616      	mov	r6, r2
/mnt/disk/raspbian-tee/optee_os/lib/libmbedtls/mbedtls/library/bignum.c:339
    3238:	d102      	bne.n	3240 <mbedtls_mpi_safe_cond_swap+0x14>
/mnt/disk/raspbian-tee/optee_os/lib/libmbedtls/mbedtls/library/bignum.c:340
    323a:	2000      	movs	r0, #0
    323c:	e8bd 81f0 	ldmia.w	sp!, {r4, r5, r6, r7, r8, pc}
/mnt/disk/raspbian-tee/optee_os/lib/libmbedtls/mbedtls/library/bignum.c:345
    3240:	8889      	ldrh	r1, [r1, #4]
    3242:	f7ff fec1 	bl	2fc8 <mbedtls_mpi_grow>
    3246:	bb90      	cbnz	r0, 32ae <mbedtls_mpi_safe_cond_swap+0x82>
/mnt/disk/raspbian-tee/optee_os/lib/libmbedtls/mbedtls/library/bignum.c:346
    3248:	88a9      	ldrh	r1, [r5, #4]
    324a:	4620      	mov	r0, r4
    324c:	f7ff febc 	bl	2fc8 <mbedtls_mpi_grow>
    3250:	bb68      	cbnz	r0, 32ae <mbedtls_mpi_safe_cond_swap+0x82>
/mnt/disk/raspbian-tee/optee_os/lib/libmbedtls/mbedtls/library/bignum.c:343
    3252:	4272      	negs	r2, r6
/mnt/disk/raspbian-tee/optee_os/lib/libmbedtls/mbedtls/library/bignum.c:349
    3254:	7829      	ldrb	r1, [r5, #0]
/mnt/disk/raspbian-tee/optee_os/lib/libmbedtls/mbedtls/library/bignum.c:343
    3256:	4332      	orrs	r2, r6
/mnt/disk/raspbian-tee/optee_os/lib/libmbedtls/mbedtls/library/bignum.c:349
    3258:	7827      	ldrb	r7, [r4, #0]
/mnt/disk/raspbian-tee/optee_os/lib/libmbedtls/mbedtls/library/bignum.c:343
    325a:	f3c2 12c0 	ubfx	r2, r2, #7, #1
/mnt/disk/raspbian-tee/optee_os/lib/libmbedtls/mbedtls/library/bignum.c:349
    325e:	f1c2 0601 	rsb	r6, r2, #1
    3262:	b2f3      	uxtb	r3, r6
    3264:	fb11 fc03 	smulbb	ip, r1, r3
    3268:	fb07 c702 	mla	r7, r7, r2, ip
    326c:	702f      	strb	r7, [r5, #0]
/mnt/disk/raspbian-tee/optee_os/lib/libmbedtls/mbedtls/library/bignum.c:350
    326e:	fb12 f101 	smulbb	r1, r2, r1
    3272:	7827      	ldrb	r7, [r4, #0]
    3274:	fb07 1303 	mla	r3, r7, r3, r1
    3278:	7023      	strb	r3, [r4, #0]
/mnt/disk/raspbian-tee/optee_os/lib/libmbedtls/mbedtls/library/bignum.c:353
    327a:	f8b5 c004 	ldrh.w	ip, [r5, #4]
/mnt/disk/raspbian-tee/optee_os/lib/libmbedtls/mbedtls/library/bignum.c:353 (discriminator 1)
    327e:	4560      	cmp	r0, ip
    3280:	d2db      	bcs.n	323a <mbedtls_mpi_safe_cond_swap+0xe>
/mnt/disk/raspbian-tee/optee_os/lib/libmbedtls/mbedtls/library/bignum.c:355 (discriminator 3)
    3282:	f8d5 e008 	ldr.w	lr, [r5, #8]
/mnt/disk/raspbian-tee/optee_os/lib/libmbedtls/mbedtls/library/bignum.c:356 (discriminator 3)
    3286:	68a7      	ldr	r7, [r4, #8]
/mnt/disk/raspbian-tee/optee_os/lib/libmbedtls/mbedtls/library/bignum.c:355 (discriminator 3)
    3288:	f85e 3020 	ldr.w	r3, [lr, r0, lsl #2]
/mnt/disk/raspbian-tee/optee_os/lib/libmbedtls/mbedtls/library/bignum.c:356 (discriminator 3)
    328c:	f857 1020 	ldr.w	r1, [r7, r0, lsl #2]
    3290:	fb06 f803 	mul.w	r8, r6, r3
    3294:	fb01 8102 	mla	r1, r1, r2, r8
    3298:	f84e 1020 	str.w	r1, [lr, r0, lsl #2]
/mnt/disk/raspbian-tee/optee_os/lib/libmbedtls/mbedtls/library/bignum.c:357 (discriminator 3)
    329c:	4353      	muls	r3, r2
    329e:	f857 1020 	ldr.w	r1, [r7, r0, lsl #2]
    32a2:	fb01 3306 	mla	r3, r1, r6, r3
    32a6:	f847 3020 	str.w	r3, [r7, r0, lsl #2]
/mnt/disk/raspbian-tee/optee_os/lib/libmbedtls/mbedtls/library/bignum.c:353 (discriminator 3)
    32aa:	3001      	adds	r0, #1
    32ac:	e7e7      	b.n	327e <mbedtls_mpi_safe_cond_swap+0x52>
/mnt/disk/raspbian-tee/optee_os/lib/libmbedtls/mbedtls/library/bignum.c:362
    32ae:	e8bd 81f0 	ldmia.w	sp!, {r4, r5, r6, r7, r8, pc}

000032b2 <mbedtls_mpi_lset>:
mbedtls_mpi_lset():
/mnt/disk/raspbian-tee/optee_os/lib/libmbedtls/mbedtls/library/bignum.c:368
    32b2:	b570      	push	{r4, r5, r6, lr}
    32b4:	460e      	mov	r6, r1
/mnt/disk/raspbian-tee/optee_os/lib/libmbedtls/mbedtls/library/bignum.c:371
    32b6:	2101      	movs	r1, #1
/mnt/disk/raspbian-tee/optee_os/lib/libmbedtls/mbedtls/library/bignum.c:368
    32b8:	4604      	mov	r4, r0
/mnt/disk/raspbian-tee/optee_os/lib/libmbedtls/mbedtls/library/bignum.c:371
    32ba:	f7ff fe85 	bl	2fc8 <mbedtls_mpi_grow>
    32be:	4605      	mov	r5, r0
    32c0:	b988      	cbnz	r0, 32e6 <mbedtls_mpi_lset+0x34>
/mnt/disk/raspbian-tee/optee_os/lib/libmbedtls/mbedtls/library/bignum.c:372
    32c2:	88a2      	ldrh	r2, [r4, #4]
    32c4:	4601      	mov	r1, r0
    32c6:	68a0      	ldr	r0, [r4, #8]
    32c8:	0092      	lsls	r2, r2, #2
    32ca:	f002 fe1d 	bl	5f08 <memset>
/mnt/disk/raspbian-tee/optee_os/lib/libmbedtls/mbedtls/library/bignum.c:374
    32ce:	68a3      	ldr	r3, [r4, #8]
    32d0:	ea86 72e6 	eor.w	r2, r6, r6, asr #31
/mnt/disk/raspbian-tee/optee_os/lib/libmbedtls/mbedtls/library/bignum.c:375
    32d4:	2e00      	cmp	r6, #0
/mnt/disk/raspbian-tee/optee_os/lib/libmbedtls/mbedtls/library/bignum.c:374
    32d6:	eba2 72e6 	sub.w	r2, r2, r6, asr #31
    32da:	601a      	str	r2, [r3, #0]
/mnt/disk/raspbian-tee/optee_os/lib/libmbedtls/mbedtls/library/bignum.c:375
    32dc:	f04f 33ff 	mov.w	r3, #4294967295	; 0xffffffff
    32e0:	bfa8      	it	ge
    32e2:	2301      	movge	r3, #1
    32e4:	7023      	strb	r3, [r4, #0]
/mnt/disk/raspbian-tee/optee_os/lib/libmbedtls/mbedtls/library/bignum.c:380
    32e6:	4628      	mov	r0, r5
    32e8:	bd70      	pop	{r4, r5, r6, pc}

000032ea <mbedtls_mpi_get_bit>:
mbedtls_mpi_get_bit():
/mnt/disk/raspbian-tee/optee_os/lib/libmbedtls/mbedtls/library/bignum.c:387
    32ea:	8883      	ldrh	r3, [r0, #4]
    32ec:	ebb1 1f43 	cmp.w	r1, r3, lsl #5
    32f0:	d209      	bcs.n	3306 <mbedtls_mpi_get_bit+0x1c>
/mnt/disk/raspbian-tee/optee_os/lib/libmbedtls/mbedtls/library/bignum.c:390
    32f2:	094a      	lsrs	r2, r1, #5
    32f4:	6883      	ldr	r3, [r0, #8]
    32f6:	f001 011f 	and.w	r1, r1, #31
    32fa:	f853 0022 	ldr.w	r0, [r3, r2, lsl #2]
    32fe:	40c8      	lsrs	r0, r1
    3300:	f000 0001 	and.w	r0, r0, #1
    3304:	4770      	bx	lr
/mnt/disk/raspbian-tee/optee_os/lib/libmbedtls/mbedtls/library/bignum.c:388
    3306:	2000      	movs	r0, #0
/mnt/disk/raspbian-tee/optee_os/lib/libmbedtls/mbedtls/library/bignum.c:391
    3308:	4770      	bx	lr

0000330a <mbedtls_mpi_set_bit>:
mbedtls_mpi_set_bit():
/mnt/disk/raspbian-tee/optee_os/lib/libmbedtls/mbedtls/library/bignum.c:397
    330a:	b5f8      	push	{r3, r4, r5, r6, r7, lr}
/mnt/disk/raspbian-tee/optee_os/lib/libmbedtls/mbedtls/library/bignum.c:402
    330c:	2a01      	cmp	r2, #1
/mnt/disk/raspbian-tee/optee_os/lib/libmbedtls/mbedtls/library/bignum.c:397
    330e:	4607      	mov	r7, r0
    3310:	460c      	mov	r4, r1
    3312:	4615      	mov	r5, r2
/mnt/disk/raspbian-tee/optee_os/lib/libmbedtls/mbedtls/library/bignum.c:399
    3314:	ea4f 1651 	mov.w	r6, r1, lsr #5
/mnt/disk/raspbian-tee/optee_os/lib/libmbedtls/mbedtls/library/bignum.c:402
    3318:	d81c      	bhi.n	3354 <mbedtls_mpi_set_bit+0x4a>
/mnt/disk/raspbian-tee/optee_os/lib/libmbedtls/mbedtls/library/bignum.c:405
    331a:	8883      	ldrh	r3, [r0, #4]
    331c:	ebb1 1f43 	cmp.w	r1, r3, lsl #5
    3320:	d210      	bcs.n	3344 <mbedtls_mpi_set_bit+0x3a>
/mnt/disk/raspbian-tee/optee_os/lib/libmbedtls/mbedtls/library/bignum.c:413
    3322:	68b9      	ldr	r1, [r7, #8]
/mnt/disk/raspbian-tee/optee_os/lib/libmbedtls/mbedtls/library/bignum.c:400
    3324:	f004 041f 	and.w	r4, r4, #31
/mnt/disk/raspbian-tee/optee_os/lib/libmbedtls/mbedtls/library/bignum.c:413
    3328:	2301      	movs	r3, #1
    332a:	fa03 f204 	lsl.w	r2, r3, r4
    332e:	f851 3026 	ldr.w	r3, [r1, r6, lsl #2]
/mnt/disk/raspbian-tee/optee_os/lib/libmbedtls/mbedtls/library/bignum.c:414
    3332:	fa05 f404 	lsl.w	r4, r5, r4
/mnt/disk/raspbian-tee/optee_os/lib/libmbedtls/mbedtls/library/bignum.c:413
    3336:	ea23 0302 	bic.w	r3, r3, r2
/mnt/disk/raspbian-tee/optee_os/lib/libmbedtls/mbedtls/library/bignum.c:414
    333a:	431c      	orrs	r4, r3
    333c:	f841 4026 	str.w	r4, [r1, r6, lsl #2]
    3340:	2000      	movs	r0, #0
    3342:	bdf8      	pop	{r3, r4, r5, r6, r7, pc}
/mnt/disk/raspbian-tee/optee_os/lib/libmbedtls/mbedtls/library/bignum.c:407
    3344:	2a00      	cmp	r2, #0
    3346:	d0fb      	beq.n	3340 <mbedtls_mpi_set_bit+0x36>
/mnt/disk/raspbian-tee/optee_os/lib/libmbedtls/mbedtls/library/bignum.c:410
    3348:	1c71      	adds	r1, r6, #1
    334a:	f7ff fe3d 	bl	2fc8 <mbedtls_mpi_grow>
    334e:	2800      	cmp	r0, #0
    3350:	d0e7      	beq.n	3322 <mbedtls_mpi_set_bit+0x18>
    3352:	bdf8      	pop	{r3, r4, r5, r6, r7, pc}
/mnt/disk/raspbian-tee/optee_os/lib/libmbedtls/mbedtls/library/bignum.c:403
    3354:	f06f 0003 	mvn.w	r0, #3
    3358:	bdf8      	pop	{r3, r4, r5, r6, r7, pc}

0000335a <mbedtls_mpi_lsb>:
mbedtls_mpi_lsb():
/mnt/disk/raspbian-tee/optee_os/lib/libmbedtls/mbedtls/library/bignum.c:425
    335a:	b570      	push	{r4, r5, r6, lr}
/mnt/disk/raspbian-tee/optee_os/lib/libmbedtls/mbedtls/library/bignum.c:426
    335c:	2300      	movs	r3, #0
/mnt/disk/raspbian-tee/optee_os/lib/libmbedtls/mbedtls/library/bignum.c:428
    335e:	8885      	ldrh	r5, [r0, #4]
    3360:	4619      	mov	r1, r3
/mnt/disk/raspbian-tee/optee_os/lib/libmbedtls/mbedtls/library/bignum.c:428 (discriminator 1)
    3362:	42a9      	cmp	r1, r5
    3364:	d20d      	bcs.n	3382 <mbedtls_mpi_lsb+0x28>
/mnt/disk/raspbian-tee/optee_os/lib/libmbedtls/mbedtls/library/bignum.c:430
    3366:	6882      	ldr	r2, [r0, #8]
    3368:	f852 4021 	ldr.w	r4, [r2, r1, lsl #2]
    336c:	2200      	movs	r2, #0
    336e:	fa24 f602 	lsr.w	r6, r4, r2
    3372:	07f6      	lsls	r6, r6, #31
    3374:	d406      	bmi.n	3384 <mbedtls_mpi_lsb+0x2a>
/mnt/disk/raspbian-tee/optee_os/lib/libmbedtls/mbedtls/library/bignum.c:429 (discriminator 2)
    3376:	3201      	adds	r2, #1
    3378:	3301      	adds	r3, #1
    337a:	2a20      	cmp	r2, #32
    337c:	d1f7      	bne.n	336e <mbedtls_mpi_lsb+0x14>
/mnt/disk/raspbian-tee/optee_os/lib/libmbedtls/mbedtls/library/bignum.c:428 (discriminator 2)
    337e:	3101      	adds	r1, #1
    3380:	e7ef      	b.n	3362 <mbedtls_mpi_lsb+0x8>
/mnt/disk/raspbian-tee/optee_os/lib/libmbedtls/mbedtls/library/bignum.c:433
    3382:	2300      	movs	r3, #0
/mnt/disk/raspbian-tee/optee_os/lib/libmbedtls/mbedtls/library/bignum.c:434
    3384:	4618      	mov	r0, r3
    3386:	bd70      	pop	{r4, r5, r6, pc}

00003388 <mbedtls_mpi_bitlen>:
mbedtls_mpi_bitlen():
/mnt/disk/raspbian-tee/optee_os/lib/libmbedtls/mbedtls/library/bignum.c:461
    3388:	8883      	ldrh	r3, [r0, #4]
/mnt/disk/raspbian-tee/optee_os/lib/libmbedtls/mbedtls/library/bignum.c:458
    338a:	b530      	push	{r4, r5, lr}
/mnt/disk/raspbian-tee/optee_os/lib/libmbedtls/mbedtls/library/bignum.c:461
    338c:	b1db      	cbz	r3, 33c6 <mbedtls_mpi_bitlen+0x3e>
/mnt/disk/raspbian-tee/optee_os/lib/libmbedtls/mbedtls/library/bignum.c:464
    338e:	1e5a      	subs	r2, r3, #1
    3390:	0092      	lsls	r2, r2, #2
    3392:	1e59      	subs	r1, r3, #1
/mnt/disk/raspbian-tee/optee_os/lib/libmbedtls/mbedtls/library/bignum.c:464 (discriminator 1)
    3394:	2b01      	cmp	r3, #1
    3396:	6884      	ldr	r4, [r0, #8]
    3398:	d101      	bne.n	339e <mbedtls_mpi_bitlen+0x16>
    339a:	2100      	movs	r1, #0
    339c:	e004      	b.n	33a8 <mbedtls_mpi_bitlen+0x20>
/mnt/disk/raspbian-tee/optee_os/lib/libmbedtls/mbedtls/library/bignum.c:465
    339e:	58a5      	ldr	r5, [r4, r2]
    33a0:	460b      	mov	r3, r1
    33a2:	3a04      	subs	r2, #4
    33a4:	2d00      	cmp	r5, #0
    33a6:	d0f4      	beq.n	3392 <mbedtls_mpi_bitlen+0xa>
/mnt/disk/raspbian-tee/optee_os/lib/libmbedtls/mbedtls/library/bignum.c:468
    33a8:	f854 2021 	ldr.w	r2, [r4, r1, lsl #2]
mbedtls_clz():
/mnt/disk/raspbian-tee/optee_os/lib/libmbedtls/mbedtls/library/bignum.c:444
    33ac:	2000      	movs	r0, #0
/mnt/disk/raspbian-tee/optee_os/lib/libmbedtls/mbedtls/library/bignum.c:442
    33ae:	f04f 4300 	mov.w	r3, #2147483648	; 0x80000000
/mnt/disk/raspbian-tee/optee_os/lib/libmbedtls/mbedtls/library/bignum.c:446
    33b2:	421a      	tst	r2, r3
    33b4:	d103      	bne.n	33be <mbedtls_mpi_bitlen+0x36>
/mnt/disk/raspbian-tee/optee_os/lib/libmbedtls/mbedtls/library/bignum.c:444
    33b6:	3001      	adds	r0, #1
/mnt/disk/raspbian-tee/optee_os/lib/libmbedtls/mbedtls/library/bignum.c:448
    33b8:	085b      	lsrs	r3, r3, #1
/mnt/disk/raspbian-tee/optee_os/lib/libmbedtls/mbedtls/library/bignum.c:444
    33ba:	2820      	cmp	r0, #32
    33bc:	d1f9      	bne.n	33b2 <mbedtls_mpi_bitlen+0x2a>
mbedtls_mpi_bitlen():
/mnt/disk/raspbian-tee/optee_os/lib/libmbedtls/mbedtls/library/bignum.c:470
    33be:	ebc0 1041 	rsb	r0, r0, r1, lsl #5
    33c2:	3020      	adds	r0, #32
    33c4:	bd30      	pop	{r4, r5, pc}
/mnt/disk/raspbian-tee/optee_os/lib/libmbedtls/mbedtls/library/bignum.c:462
    33c6:	4618      	mov	r0, r3
/mnt/disk/raspbian-tee/optee_os/lib/libmbedtls/mbedtls/library/bignum.c:471
    33c8:	bd30      	pop	{r4, r5, pc}

000033ca <mbedtls_mpi_size>:
mbedtls_mpi_size():
/mnt/disk/raspbian-tee/optee_os/lib/libmbedtls/mbedtls/library/bignum.c:477
    33ca:	b508      	push	{r3, lr}
/mnt/disk/raspbian-tee/optee_os/lib/libmbedtls/mbedtls/library/bignum.c:478
    33cc:	f7ff ffdc 	bl	3388 <mbedtls_mpi_bitlen>
    33d0:	3007      	adds	r0, #7
/mnt/disk/raspbian-tee/optee_os/lib/libmbedtls/mbedtls/library/bignum.c:479
    33d2:	08c0      	lsrs	r0, r0, #3
    33d4:	bd08      	pop	{r3, pc}

000033d6 <mbedtls_mpi_read_binary>:
mbedtls_mpi_read_binary():
/mnt/disk/raspbian-tee/optee_os/lib/libmbedtls/mbedtls/library/bignum.c:750
    33d6:	b5f8      	push	{r3, r4, r5, r6, r7, lr}
    33d8:	4606      	mov	r6, r0
    33da:	460f      	mov	r7, r1
    33dc:	4615      	mov	r5, r2
/mnt/disk/raspbian-tee/optee_os/lib/libmbedtls/mbedtls/library/bignum.c:754
    33de:	2400      	movs	r4, #0
/mnt/disk/raspbian-tee/optee_os/lib/libmbedtls/mbedtls/library/bignum.c:754 (discriminator 1)
    33e0:	42ac      	cmp	r4, r5
    33e2:	d001      	beq.n	33e8 <mbedtls_mpi_read_binary+0x12>
/mnt/disk/raspbian-tee/optee_os/lib/libmbedtls/mbedtls/library/bignum.c:755
    33e4:	5d3b      	ldrb	r3, [r7, r4]
    33e6:	b1b3      	cbz	r3, 3416 <mbedtls_mpi_read_binary+0x40>
/mnt/disk/raspbian-tee/optee_os/lib/libmbedtls/mbedtls/library/bignum.c:758
    33e8:	1b29      	subs	r1, r5, r4
    33ea:	4630      	mov	r0, r6
    33ec:	f011 0303 	ands.w	r3, r1, #3
    33f0:	bf18      	it	ne
    33f2:	2301      	movne	r3, #1
    33f4:	eb03 0191 	add.w	r1, r3, r1, lsr #2
    33f8:	f7ff fde6 	bl	2fc8 <mbedtls_mpi_grow>
    33fc:	b950      	cbnz	r0, 3414 <mbedtls_mpi_read_binary+0x3e>
/mnt/disk/raspbian-tee/optee_os/lib/libmbedtls/mbedtls/library/bignum.c:759
    33fe:	4601      	mov	r1, r0
    3400:	4630      	mov	r0, r6
    3402:	f7ff ff56 	bl	32b2 <mbedtls_mpi_lset>
    3406:	b928      	cbnz	r0, 3414 <mbedtls_mpi_read_binary+0x3e>
    3408:	eb07 0e05 	add.w	lr, r7, r5
    340c:	4603      	mov	r3, r0
/mnt/disk/raspbian-tee/optee_os/lib/libmbedtls/mbedtls/library/bignum.c:761 (discriminator 1)
    340e:	1aea      	subs	r2, r5, r3
    3410:	4294      	cmp	r4, r2
    3412:	d302      	bcc.n	341a <mbedtls_mpi_read_binary+0x44>
/mnt/disk/raspbian-tee/optee_os/lib/libmbedtls/mbedtls/library/bignum.c:767
    3414:	bdf8      	pop	{r3, r4, r5, r6, r7, pc}
/mnt/disk/raspbian-tee/optee_os/lib/libmbedtls/mbedtls/library/bignum.c:754 (discriminator 2)
    3416:	3401      	adds	r4, #1
    3418:	e7e2      	b.n	33e0 <mbedtls_mpi_read_binary+0xa>
/mnt/disk/raspbian-tee/optee_os/lib/libmbedtls/mbedtls/library/bignum.c:762 (discriminator 3)
    341a:	f023 0c03 	bic.w	ip, r3, #3
    341e:	f81e 2d01 	ldrb.w	r2, [lr, #-1]!
    3422:	68b1      	ldr	r1, [r6, #8]
    3424:	00df      	lsls	r7, r3, #3
    3426:	f007 0718 	and.w	r7, r7, #24
/mnt/disk/raspbian-tee/optee_os/lib/libmbedtls/mbedtls/library/bignum.c:761 (discriminator 3)
    342a:	3301      	adds	r3, #1
/mnt/disk/raspbian-tee/optee_os/lib/libmbedtls/mbedtls/library/bignum.c:762 (discriminator 3)
    342c:	fa02 f707 	lsl.w	r7, r2, r7
    3430:	f851 200c 	ldr.w	r2, [r1, ip]
    3434:	433a      	orrs	r2, r7
    3436:	f841 200c 	str.w	r2, [r1, ip]
    343a:	e7e8      	b.n	340e <mbedtls_mpi_read_binary+0x38>

0000343c <mbedtls_mpi_write_binary>:
mbedtls_mpi_write_binary():
/mnt/disk/raspbian-tee/optee_os/lib/libmbedtls/mbedtls/library/bignum.c:773
    343c:	b5f8      	push	{r3, r4, r5, r6, r7, lr}
    343e:	4617      	mov	r7, r2
    3440:	4605      	mov	r5, r0
    3442:	460c      	mov	r4, r1
/mnt/disk/raspbian-tee/optee_os/lib/libmbedtls/mbedtls/library/bignum.c:776
    3444:	f7ff ffc1 	bl	33ca <mbedtls_mpi_size>
    3448:	4606      	mov	r6, r0
/mnt/disk/raspbian-tee/optee_os/lib/libmbedtls/mbedtls/library/bignum.c:778
    344a:	42b8      	cmp	r0, r7
    344c:	d816      	bhi.n	347c <mbedtls_mpi_write_binary+0x40>
/mnt/disk/raspbian-tee/optee_os/lib/libmbedtls/mbedtls/library/bignum.c:781
    344e:	4620      	mov	r0, r4
    3450:	463a      	mov	r2, r7
    3452:	2100      	movs	r1, #0
    3454:	443c      	add	r4, r7
    3456:	f002 fd57 	bl	5f08 <memset>
/mnt/disk/raspbian-tee/optee_os/lib/libmbedtls/mbedtls/library/bignum.c:783
    345a:	2300      	movs	r3, #0
/mnt/disk/raspbian-tee/optee_os/lib/libmbedtls/mbedtls/library/bignum.c:783 (discriminator 1)
    345c:	42b3      	cmp	r3, r6
    345e:	d101      	bne.n	3464 <mbedtls_mpi_write_binary+0x28>
/mnt/disk/raspbian-tee/optee_os/lib/libmbedtls/mbedtls/library/bignum.c:786
    3460:	2000      	movs	r0, #0
    3462:	bdf8      	pop	{r3, r4, r5, r6, r7, pc}
/mnt/disk/raspbian-tee/optee_os/lib/libmbedtls/mbedtls/library/bignum.c:784 (discriminator 3)
    3464:	f023 0003 	bic.w	r0, r3, #3
    3468:	68af      	ldr	r7, [r5, #8]
    346a:	00da      	lsls	r2, r3, #3
/mnt/disk/raspbian-tee/optee_os/lib/libmbedtls/mbedtls/library/bignum.c:783 (discriminator 3)
    346c:	3301      	adds	r3, #1
/mnt/disk/raspbian-tee/optee_os/lib/libmbedtls/mbedtls/library/bignum.c:784 (discriminator 3)
    346e:	f002 0118 	and.w	r1, r2, #24
    3472:	583a      	ldr	r2, [r7, r0]
    3474:	40ca      	lsrs	r2, r1
    3476:	f804 2d01 	strb.w	r2, [r4, #-1]!
    347a:	e7ef      	b.n	345c <mbedtls_mpi_write_binary+0x20>
/mnt/disk/raspbian-tee/optee_os/lib/libmbedtls/mbedtls/library/bignum.c:779
    347c:	f06f 0007 	mvn.w	r0, #7
/mnt/disk/raspbian-tee/optee_os/lib/libmbedtls/mbedtls/library/bignum.c:787
    3480:	bdf8      	pop	{r3, r4, r5, r6, r7, pc}

00003482 <mbedtls_mpi_shift_l>:
mbedtls_mpi_shift_l():
/mnt/disk/raspbian-tee/optee_os/lib/libmbedtls/mbedtls/library/bignum.c:793
    3482:	b5f8      	push	{r3, r4, r5, r6, r7, lr}
    3484:	4606      	mov	r6, r0
    3486:	460c      	mov	r4, r1
/mnt/disk/raspbian-tee/optee_os/lib/libmbedtls/mbedtls/library/bignum.c:798
    3488:	094d      	lsrs	r5, r1, #5
/mnt/disk/raspbian-tee/optee_os/lib/libmbedtls/mbedtls/library/bignum.c:799
    348a:	f001 071f 	and.w	r7, r1, #31
/mnt/disk/raspbian-tee/optee_os/lib/libmbedtls/mbedtls/library/bignum.c:801
    348e:	f7ff ff7b 	bl	3388 <mbedtls_mpi_bitlen>
/mnt/disk/raspbian-tee/optee_os/lib/libmbedtls/mbedtls/library/bignum.c:803
    3492:	88b3      	ldrh	r3, [r6, #4]
/mnt/disk/raspbian-tee/optee_os/lib/libmbedtls/mbedtls/library/bignum.c:801
    3494:	4420      	add	r0, r4
/mnt/disk/raspbian-tee/optee_os/lib/libmbedtls/mbedtls/library/bignum.c:803
    3496:	ebb0 1f43 	cmp.w	r0, r3, lsl #5
    349a:	d803      	bhi.n	34a4 <mbedtls_mpi_shift_l+0x22>
/mnt/disk/raspbian-tee/optee_os/lib/libmbedtls/mbedtls/library/bignum.c:811
    349c:	b975      	cbnz	r5, 34bc <mbedtls_mpi_shift_l+0x3a>
/mnt/disk/raspbian-tee/optee_os/lib/libmbedtls/mbedtls/library/bignum.c:823
    349e:	bb4f      	cbnz	r7, 34f4 <mbedtls_mpi_shift_l+0x72>
/mnt/disk/raspbian-tee/optee_os/lib/libmbedtls/mbedtls/library/bignum.c:806
    34a0:	2000      	movs	r0, #0
    34a2:	bdf8      	pop	{r3, r4, r5, r6, r7, pc}
/mnt/disk/raspbian-tee/optee_os/lib/libmbedtls/mbedtls/library/bignum.c:804
    34a4:	f010 011f 	ands.w	r1, r0, #31
    34a8:	bf18      	it	ne
    34aa:	2101      	movne	r1, #1
    34ac:	eb01 1150 	add.w	r1, r1, r0, lsr #5
    34b0:	4630      	mov	r0, r6
    34b2:	f7ff fd89 	bl	2fc8 <mbedtls_mpi_grow>
    34b6:	2800      	cmp	r0, #0
    34b8:	d0f0      	beq.n	349c <mbedtls_mpi_shift_l+0x1a>
    34ba:	bdf8      	pop	{r3, r4, r5, r6, r7, pc}
/mnt/disk/raspbian-tee/optee_os/lib/libmbedtls/mbedtls/library/bignum.c:813
    34bc:	88b3      	ldrh	r3, [r6, #4]
    34be:	f06f 0103 	mvn.w	r1, #3
    34c2:	f103 4280 	add.w	r2, r3, #1073741824	; 0x40000000
    34c6:	3a01      	subs	r2, #1
    34c8:	4369      	muls	r1, r5
    34ca:	0092      	lsls	r2, r2, #2
/mnt/disk/raspbian-tee/optee_os/lib/libmbedtls/mbedtls/library/bignum.c:813 (discriminator 1)
    34cc:	42ab      	cmp	r3, r5
    34ce:	d80a      	bhi.n	34e6 <mbedtls_mpi_shift_l+0x64>
    34d0:	f103 4380 	add.w	r3, r3, #1073741824	; 0x40000000
/mnt/disk/raspbian-tee/optee_os/lib/libmbedtls/mbedtls/library/bignum.c:817
    34d4:	2200      	movs	r2, #0
    34d6:	3b01      	subs	r3, #1
    34d8:	009b      	lsls	r3, r3, #2
/mnt/disk/raspbian-tee/optee_os/lib/libmbedtls/mbedtls/library/bignum.c:816 (discriminator 1)
    34da:	1d19      	adds	r1, r3, #4
    34dc:	d0df      	beq.n	349e <mbedtls_mpi_shift_l+0x1c>
/mnt/disk/raspbian-tee/optee_os/lib/libmbedtls/mbedtls/library/bignum.c:817 (discriminator 2)
    34de:	68b1      	ldr	r1, [r6, #8]
    34e0:	50ca      	str	r2, [r1, r3]
    34e2:	3b04      	subs	r3, #4
    34e4:	e7f9      	b.n	34da <mbedtls_mpi_shift_l+0x58>
/mnt/disk/raspbian-tee/optee_os/lib/libmbedtls/mbedtls/library/bignum.c:814 (discriminator 3)
    34e6:	68b0      	ldr	r0, [r6, #8]
/mnt/disk/raspbian-tee/optee_os/lib/libmbedtls/mbedtls/library/bignum.c:813 (discriminator 3)
    34e8:	3b01      	subs	r3, #1
/mnt/disk/raspbian-tee/optee_os/lib/libmbedtls/mbedtls/library/bignum.c:814 (discriminator 3)
    34ea:	1884      	adds	r4, r0, r2
    34ec:	5864      	ldr	r4, [r4, r1]
    34ee:	5084      	str	r4, [r0, r2]
    34f0:	3a04      	subs	r2, #4
    34f2:	e7eb      	b.n	34cc <mbedtls_mpi_shift_l+0x4a>
/mnt/disk/raspbian-tee/optee_os/lib/libmbedtls/mbedtls/library/bignum.c:825
    34f4:	f8b6 c004 	ldrh.w	ip, [r6, #4]
    34f8:	00ab      	lsls	r3, r5, #2
    34fa:	2100      	movs	r1, #0
/mnt/disk/raspbian-tee/optee_os/lib/libmbedtls/mbedtls/library/bignum.c:827
    34fc:	f1c7 0e20 	rsb	lr, r7, #32
/mnt/disk/raspbian-tee/optee_os/lib/libmbedtls/mbedtls/library/bignum.c:825 (discriminator 1)
    3500:	4565      	cmp	r5, ip
    3502:	d2cd      	bcs.n	34a0 <mbedtls_mpi_shift_l+0x1e>
/mnt/disk/raspbian-tee/optee_os/lib/libmbedtls/mbedtls/library/bignum.c:827 (discriminator 3)
    3504:	68b4      	ldr	r4, [r6, #8]
/mnt/disk/raspbian-tee/optee_os/lib/libmbedtls/mbedtls/library/bignum.c:825 (discriminator 3)
    3506:	3501      	adds	r5, #1
/mnt/disk/raspbian-tee/optee_os/lib/libmbedtls/mbedtls/library/bignum.c:827 (discriminator 3)
    3508:	58e0      	ldr	r0, [r4, r3]
/mnt/disk/raspbian-tee/optee_os/lib/libmbedtls/mbedtls/library/bignum.c:828 (discriminator 3)
    350a:	fa00 f207 	lsl.w	r2, r0, r7
/mnt/disk/raspbian-tee/optee_os/lib/libmbedtls/mbedtls/library/bignum.c:829 (discriminator 3)
    350e:	430a      	orrs	r2, r1
/mnt/disk/raspbian-tee/optee_os/lib/libmbedtls/mbedtls/library/bignum.c:827 (discriminator 3)
    3510:	fa20 f10e 	lsr.w	r1, r0, lr
/mnt/disk/raspbian-tee/optee_os/lib/libmbedtls/mbedtls/library/bignum.c:829 (discriminator 3)
    3514:	50e2      	str	r2, [r4, r3]
    3516:	3304      	adds	r3, #4
    3518:	e7f2      	b.n	3500 <mbedtls_mpi_shift_l+0x7e>

0000351a <mbedtls_mpi_shift_r>:
mbedtls_mpi_shift_r():
/mnt/disk/raspbian-tee/optee_os/lib/libmbedtls/mbedtls/library/bignum.c:850
    351a:	8882      	ldrh	r2, [r0, #4]
/mnt/disk/raspbian-tee/optee_os/lib/libmbedtls/mbedtls/library/bignum.c:843
    351c:	b4f0      	push	{r4, r5, r6, r7}
/mnt/disk/raspbian-tee/optee_os/lib/libmbedtls/mbedtls/library/bignum.c:847
    351e:	094c      	lsrs	r4, r1, #5
/mnt/disk/raspbian-tee/optee_os/lib/libmbedtls/mbedtls/library/bignum.c:850
    3520:	4294      	cmp	r4, r2
/mnt/disk/raspbian-tee/optee_os/lib/libmbedtls/mbedtls/library/bignum.c:848
    3522:	f001 011f 	and.w	r1, r1, #31
/mnt/disk/raspbian-tee/optee_os/lib/libmbedtls/mbedtls/library/bignum.c:850
    3526:	d801      	bhi.n	352c <mbedtls_mpi_shift_r+0x12>
/mnt/disk/raspbian-tee/optee_os/lib/libmbedtls/mbedtls/library/bignum.c:850 (discriminator 1)
    3528:	d104      	bne.n	3534 <mbedtls_mpi_shift_r+0x1a>
/mnt/disk/raspbian-tee/optee_os/lib/libmbedtls/mbedtls/library/bignum.c:850 (discriminator 2)
    352a:	b371      	cbz	r1, 358a <mbedtls_mpi_shift_r+0x70>
/mnt/disk/raspbian-tee/optee_os/lib/libmbedtls/mbedtls/library/bignum.c:851
    352c:	2100      	movs	r1, #0
/mnt/disk/raspbian-tee/optee_os/lib/libmbedtls/mbedtls/library/bignum.c:880
    352e:	bcf0      	pop	{r4, r5, r6, r7}
/mnt/disk/raspbian-tee/optee_os/lib/libmbedtls/mbedtls/library/bignum.c:851
    3530:	f7ff bebf 	b.w	32b2 <mbedtls_mpi_lset>
/mnt/disk/raspbian-tee/optee_os/lib/libmbedtls/mbedtls/library/bignum.c:856
    3534:	bb5c      	cbnz	r4, 358e <mbedtls_mpi_shift_r+0x74>
/mnt/disk/raspbian-tee/optee_os/lib/libmbedtls/mbedtls/library/bignum.c:868
    3536:	b139      	cbz	r1, 3548 <mbedtls_mpi_shift_r+0x2e>
    3538:	f102 4380 	add.w	r3, r2, #1073741824	; 0x40000000
/mnt/disk/raspbian-tee/optee_os/lib/libmbedtls/mbedtls/library/bignum.c:868 (discriminator 1)
    353c:	2500      	movs	r5, #0
    353e:	3b01      	subs	r3, #1
/mnt/disk/raspbian-tee/optee_os/lib/libmbedtls/mbedtls/library/bignum.c:872 (discriminator 1)
    3540:	f1c1 0c20 	rsb	ip, r1, #32
    3544:	009b      	lsls	r3, r3, #2
/mnt/disk/raspbian-tee/optee_os/lib/libmbedtls/mbedtls/library/bignum.c:870 (discriminator 1)
    3546:	b9aa      	cbnz	r2, 3574 <mbedtls_mpi_shift_r+0x5a>
/mnt/disk/raspbian-tee/optee_os/lib/libmbedtls/mbedtls/library/bignum.c:880
    3548:	2000      	movs	r0, #0
    354a:	bcf0      	pop	{r4, r5, r6, r7}
    354c:	4770      	bx	lr
/mnt/disk/raspbian-tee/optee_os/lib/libmbedtls/mbedtls/library/bignum.c:859 (discriminator 3)
    354e:	6885      	ldr	r5, [r0, #8]
    3550:	191e      	adds	r6, r3, r4
    3552:	f855 6026 	ldr.w	r6, [r5, r6, lsl #2]
    3556:	f845 6023 	str.w	r6, [r5, r3, lsl #2]
/mnt/disk/raspbian-tee/optee_os/lib/libmbedtls/mbedtls/library/bignum.c:858 (discriminator 3)
    355a:	3301      	adds	r3, #1
/mnt/disk/raspbian-tee/optee_os/lib/libmbedtls/mbedtls/library/bignum.c:858 (discriminator 1)
    355c:	1b15      	subs	r5, r2, r4
    355e:	42ab      	cmp	r3, r5
    3560:	d3f5      	bcc.n	354e <mbedtls_mpi_shift_r+0x34>
    3562:	00ab      	lsls	r3, r5, #2
/mnt/disk/raspbian-tee/optee_os/lib/libmbedtls/mbedtls/library/bignum.c:862
    3564:	2400      	movs	r4, #0
/mnt/disk/raspbian-tee/optee_os/lib/libmbedtls/mbedtls/library/bignum.c:861 (discriminator 1)
    3566:	4295      	cmp	r5, r2
    3568:	d2e5      	bcs.n	3536 <mbedtls_mpi_shift_r+0x1c>
/mnt/disk/raspbian-tee/optee_os/lib/libmbedtls/mbedtls/library/bignum.c:862 (discriminator 2)
    356a:	6886      	ldr	r6, [r0, #8]
/mnt/disk/raspbian-tee/optee_os/lib/libmbedtls/mbedtls/library/bignum.c:861 (discriminator 2)
    356c:	3501      	adds	r5, #1
/mnt/disk/raspbian-tee/optee_os/lib/libmbedtls/mbedtls/library/bignum.c:862 (discriminator 2)
    356e:	50f4      	str	r4, [r6, r3]
    3570:	3304      	adds	r3, #4
    3572:	e7f8      	b.n	3566 <mbedtls_mpi_shift_r+0x4c>
/mnt/disk/raspbian-tee/optee_os/lib/libmbedtls/mbedtls/library/bignum.c:872 (discriminator 3)
    3574:	6887      	ldr	r7, [r0, #8]
/mnt/disk/raspbian-tee/optee_os/lib/libmbedtls/mbedtls/library/bignum.c:870 (discriminator 3)
    3576:	3a01      	subs	r2, #1
/mnt/disk/raspbian-tee/optee_os/lib/libmbedtls/mbedtls/library/bignum.c:872 (discriminator 3)
    3578:	58fe      	ldr	r6, [r7, r3]
/mnt/disk/raspbian-tee/optee_os/lib/libmbedtls/mbedtls/library/bignum.c:873 (discriminator 3)
    357a:	fa26 f401 	lsr.w	r4, r6, r1
/mnt/disk/raspbian-tee/optee_os/lib/libmbedtls/mbedtls/library/bignum.c:874 (discriminator 3)
    357e:	432c      	orrs	r4, r5
/mnt/disk/raspbian-tee/optee_os/lib/libmbedtls/mbedtls/library/bignum.c:872 (discriminator 3)
    3580:	fa06 f50c 	lsl.w	r5, r6, ip
/mnt/disk/raspbian-tee/optee_os/lib/libmbedtls/mbedtls/library/bignum.c:874 (discriminator 3)
    3584:	50fc      	str	r4, [r7, r3]
    3586:	3b04      	subs	r3, #4
    3588:	e7dd      	b.n	3546 <mbedtls_mpi_shift_r+0x2c>
/mnt/disk/raspbian-tee/optee_os/lib/libmbedtls/mbedtls/library/bignum.c:856
    358a:	2c00      	cmp	r4, #0
    358c:	d0dc      	beq.n	3548 <mbedtls_mpi_shift_r+0x2e>
    358e:	2300      	movs	r3, #0
    3590:	e7e4      	b.n	355c <mbedtls_mpi_shift_r+0x42>

00003592 <mbedtls_mpi_cmp_abs>:
mbedtls_mpi_cmp_abs():
/mnt/disk/raspbian-tee/optee_os/lib/libmbedtls/mbedtls/library/bignum.c:889
    3592:	8883      	ldrh	r3, [r0, #4]
/mnt/disk/raspbian-tee/optee_os/lib/libmbedtls/mbedtls/library/bignum.c:886
    3594:	b530      	push	{r4, r5, lr}
    3596:	f103 4280 	add.w	r2, r3, #1073741824	; 0x40000000
    359a:	3a01      	subs	r2, #1
    359c:	0092      	lsls	r2, r2, #2
/mnt/disk/raspbian-tee/optee_os/lib/libmbedtls/mbedtls/library/bignum.c:889 (discriminator 1)
    359e:	b99b      	cbnz	r3, 35c8 <mbedtls_mpi_cmp_abs+0x36>
/mnt/disk/raspbian-tee/optee_os/lib/libmbedtls/mbedtls/library/bignum.c:893
    35a0:	888c      	ldrh	r4, [r1, #4]
    35a2:	f104 4280 	add.w	r2, r4, #1073741824	; 0x40000000
    35a6:	3a01      	subs	r2, #1
    35a8:	0092      	lsls	r2, r2, #2
/mnt/disk/raspbian-tee/optee_os/lib/libmbedtls/mbedtls/library/bignum.c:893 (discriminator 1)
    35aa:	b9a4      	cbnz	r4, 35d6 <mbedtls_mpi_cmp_abs+0x44>
/mnt/disk/raspbian-tee/optee_os/lib/libmbedtls/mbedtls/library/bignum.c:897
    35ac:	ea53 0204 	orrs.w	r2, r3, r4
    35b0:	d008      	beq.n	35c4 <mbedtls_mpi_cmp_abs+0x32>
/mnt/disk/raspbian-tee/optee_os/lib/libmbedtls/mbedtls/library/bignum.c:900
    35b2:	42a3      	cmp	r3, r4
    35b4:	d822      	bhi.n	35fc <mbedtls_mpi_cmp_abs+0x6a>
/mnt/disk/raspbian-tee/optee_os/lib/libmbedtls/mbedtls/library/bignum.c:901
    35b6:	d31e      	bcc.n	35f6 <mbedtls_mpi_cmp_abs+0x64>
    35b8:	f103 4380 	add.w	r3, r3, #1073741824	; 0x40000000
    35bc:	3b01      	subs	r3, #1
    35be:	009b      	lsls	r3, r3, #2
/mnt/disk/raspbian-tee/optee_os/lib/libmbedtls/mbedtls/library/bignum.c:903 (discriminator 1)
    35c0:	1d1a      	adds	r2, r3, #4
    35c2:	d10f      	bne.n	35e4 <mbedtls_mpi_cmp_abs+0x52>
/mnt/disk/raspbian-tee/optee_os/lib/libmbedtls/mbedtls/library/bignum.c:898
    35c4:	2000      	movs	r0, #0
    35c6:	bd30      	pop	{r4, r5, pc}
/mnt/disk/raspbian-tee/optee_os/lib/libmbedtls/mbedtls/library/bignum.c:890
    35c8:	6884      	ldr	r4, [r0, #8]
    35ca:	58a4      	ldr	r4, [r4, r2]
    35cc:	3a04      	subs	r2, #4
    35ce:	2c00      	cmp	r4, #0
    35d0:	d1e6      	bne.n	35a0 <mbedtls_mpi_cmp_abs+0xe>
/mnt/disk/raspbian-tee/optee_os/lib/libmbedtls/mbedtls/library/bignum.c:889 (discriminator 2)
    35d2:	3b01      	subs	r3, #1
    35d4:	e7e3      	b.n	359e <mbedtls_mpi_cmp_abs+0xc>
/mnt/disk/raspbian-tee/optee_os/lib/libmbedtls/mbedtls/library/bignum.c:894
    35d6:	688d      	ldr	r5, [r1, #8]
    35d8:	58ad      	ldr	r5, [r5, r2]
    35da:	3a04      	subs	r2, #4
    35dc:	2d00      	cmp	r5, #0
    35de:	d1e5      	bne.n	35ac <mbedtls_mpi_cmp_abs+0x1a>
/mnt/disk/raspbian-tee/optee_os/lib/libmbedtls/mbedtls/library/bignum.c:893 (discriminator 2)
    35e0:	3c01      	subs	r4, #1
    35e2:	e7e2      	b.n	35aa <mbedtls_mpi_cmp_abs+0x18>
/mnt/disk/raspbian-tee/optee_os/lib/libmbedtls/mbedtls/library/bignum.c:905
    35e4:	6882      	ldr	r2, [r0, #8]
    35e6:	58d4      	ldr	r4, [r2, r3]
    35e8:	688a      	ldr	r2, [r1, #8]
    35ea:	58d2      	ldr	r2, [r2, r3]
    35ec:	4294      	cmp	r4, r2
    35ee:	d805      	bhi.n	35fc <mbedtls_mpi_cmp_abs+0x6a>
    35f0:	f1a3 0304 	sub.w	r3, r3, #4
/mnt/disk/raspbian-tee/optee_os/lib/libmbedtls/mbedtls/library/bignum.c:906
    35f4:	d2e4      	bcs.n	35c0 <mbedtls_mpi_cmp_abs+0x2e>
/mnt/disk/raspbian-tee/optee_os/lib/libmbedtls/mbedtls/library/bignum.c:901
    35f6:	f04f 30ff 	mov.w	r0, #4294967295	; 0xffffffff
/mnt/disk/raspbian-tee/optee_os/lib/libmbedtls/mbedtls/library/bignum.c:910
    35fa:	bd30      	pop	{r4, r5, pc}
/mnt/disk/raspbian-tee/optee_os/lib/libmbedtls/mbedtls/library/bignum.c:900
    35fc:	2001      	movs	r0, #1
    35fe:	bd30      	pop	{r4, r5, pc}

00003600 <mbedtls_mpi_cmp_mpi>:
mbedtls_mpi_cmp_mpi():
/mnt/disk/raspbian-tee/optee_os/lib/libmbedtls/mbedtls/library/bignum.c:919
    3600:	8883      	ldrh	r3, [r0, #4]
/mnt/disk/raspbian-tee/optee_os/lib/libmbedtls/mbedtls/library/bignum.c:916
    3602:	b530      	push	{r4, r5, lr}
    3604:	f103 4280 	add.w	r2, r3, #1073741824	; 0x40000000
    3608:	3a01      	subs	r2, #1
    360a:	0092      	lsls	r2, r2, #2
/mnt/disk/raspbian-tee/optee_os/lib/libmbedtls/mbedtls/library/bignum.c:919 (discriminator 1)
    360c:	b973      	cbnz	r3, 362c <mbedtls_mpi_cmp_mpi+0x2c>
/mnt/disk/raspbian-tee/optee_os/lib/libmbedtls/mbedtls/library/bignum.c:923
    360e:	888c      	ldrh	r4, [r1, #4]
    3610:	f104 4280 	add.w	r2, r4, #1073741824	; 0x40000000
    3614:	3a01      	subs	r2, #1
    3616:	0092      	lsls	r2, r2, #2
/mnt/disk/raspbian-tee/optee_os/lib/libmbedtls/mbedtls/library/bignum.c:923 (discriminator 1)
    3618:	b97c      	cbnz	r4, 363a <mbedtls_mpi_cmp_mpi+0x3a>
/mnt/disk/raspbian-tee/optee_os/lib/libmbedtls/mbedtls/library/bignum.c:927
    361a:	ea53 0204 	orrs.w	r2, r3, r4
    361e:	d003      	beq.n	3628 <mbedtls_mpi_cmp_mpi+0x28>
/mnt/disk/raspbian-tee/optee_os/lib/libmbedtls/mbedtls/library/bignum.c:930
    3620:	42a3      	cmp	r3, r4
    3622:	d911      	bls.n	3648 <mbedtls_mpi_cmp_mpi+0x48>
/mnt/disk/raspbian-tee/optee_os/lib/libmbedtls/mbedtls/library/bignum.c:930 (discriminator 1)
    3624:	f990 2000 	ldrsb.w	r2, [r0]
/mnt/disk/raspbian-tee/optee_os/lib/libmbedtls/mbedtls/library/bignum.c:943
    3628:	4610      	mov	r0, r2
    362a:	bd30      	pop	{r4, r5, pc}
/mnt/disk/raspbian-tee/optee_os/lib/libmbedtls/mbedtls/library/bignum.c:920
    362c:	6884      	ldr	r4, [r0, #8]
    362e:	58a4      	ldr	r4, [r4, r2]
    3630:	3a04      	subs	r2, #4
    3632:	2c00      	cmp	r4, #0
    3634:	d1eb      	bne.n	360e <mbedtls_mpi_cmp_mpi+0xe>
/mnt/disk/raspbian-tee/optee_os/lib/libmbedtls/mbedtls/library/bignum.c:919 (discriminator 2)
    3636:	3b01      	subs	r3, #1
    3638:	e7e8      	b.n	360c <mbedtls_mpi_cmp_mpi+0xc>
/mnt/disk/raspbian-tee/optee_os/lib/libmbedtls/mbedtls/library/bignum.c:924
    363a:	688d      	ldr	r5, [r1, #8]
    363c:	58ad      	ldr	r5, [r5, r2]
    363e:	3a04      	subs	r2, #4
    3640:	2d00      	cmp	r5, #0
    3642:	d1ea      	bne.n	361a <mbedtls_mpi_cmp_mpi+0x1a>
/mnt/disk/raspbian-tee/optee_os/lib/libmbedtls/mbedtls/library/bignum.c:923 (discriminator 2)
    3644:	3c01      	subs	r4, #1
    3646:	e7e7      	b.n	3618 <mbedtls_mpi_cmp_mpi+0x18>
    3648:	f991 4000 	ldrsb.w	r4, [r1]
/mnt/disk/raspbian-tee/optee_os/lib/libmbedtls/mbedtls/library/bignum.c:931
    364c:	d201      	bcs.n	3652 <mbedtls_mpi_cmp_mpi+0x52>
/mnt/disk/raspbian-tee/optee_os/lib/libmbedtls/mbedtls/library/bignum.c:931 (discriminator 1)
    364e:	4262      	negs	r2, r4
    3650:	e7ea      	b.n	3628 <mbedtls_mpi_cmp_mpi+0x28>
/mnt/disk/raspbian-tee/optee_os/lib/libmbedtls/mbedtls/library/bignum.c:933
    3652:	f990 2000 	ldrsb.w	r2, [r0]
    3656:	2a00      	cmp	r2, #0
    3658:	dd01      	ble.n	365e <mbedtls_mpi_cmp_mpi+0x5e>
/mnt/disk/raspbian-tee/optee_os/lib/libmbedtls/mbedtls/library/bignum.c:933 (discriminator 1)
    365a:	2c00      	cmp	r4, #0
    365c:	db16      	blt.n	368c <mbedtls_mpi_cmp_mpi+0x8c>
/mnt/disk/raspbian-tee/optee_os/lib/libmbedtls/mbedtls/library/bignum.c:934
    365e:	2c00      	cmp	r4, #0
    3660:	dd01      	ble.n	3666 <mbedtls_mpi_cmp_mpi+0x66>
/mnt/disk/raspbian-tee/optee_os/lib/libmbedtls/mbedtls/library/bignum.c:934 (discriminator 1)
    3662:	2a00      	cmp	r2, #0
    3664:	db14      	blt.n	3690 <mbedtls_mpi_cmp_mpi+0x90>
    3666:	f103 4380 	add.w	r3, r3, #1073741824	; 0x40000000
    366a:	3b01      	subs	r3, #1
    366c:	009b      	lsls	r3, r3, #2
/mnt/disk/raspbian-tee/optee_os/lib/libmbedtls/mbedtls/library/bignum.c:936 (discriminator 1)
    366e:	1d1c      	adds	r4, r3, #4
    3670:	d101      	bne.n	3676 <mbedtls_mpi_cmp_mpi+0x76>
/mnt/disk/raspbian-tee/optee_os/lib/libmbedtls/mbedtls/library/bignum.c:928
    3672:	2200      	movs	r2, #0
    3674:	e7d8      	b.n	3628 <mbedtls_mpi_cmp_mpi+0x28>
/mnt/disk/raspbian-tee/optee_os/lib/libmbedtls/mbedtls/library/bignum.c:938
    3676:	6884      	ldr	r4, [r0, #8]
    3678:	58e5      	ldr	r5, [r4, r3]
    367a:	688c      	ldr	r4, [r1, #8]
    367c:	58e4      	ldr	r4, [r4, r3]
    367e:	42a5      	cmp	r5, r4
    3680:	d8d2      	bhi.n	3628 <mbedtls_mpi_cmp_mpi+0x28>
    3682:	f1a3 0304 	sub.w	r3, r3, #4
/mnt/disk/raspbian-tee/optee_os/lib/libmbedtls/mbedtls/library/bignum.c:939
    3686:	d2f2      	bcs.n	366e <mbedtls_mpi_cmp_mpi+0x6e>
/mnt/disk/raspbian-tee/optee_os/lib/libmbedtls/mbedtls/library/bignum.c:939 (discriminator 1)
    3688:	4252      	negs	r2, r2
    368a:	e7cd      	b.n	3628 <mbedtls_mpi_cmp_mpi+0x28>
/mnt/disk/raspbian-tee/optee_os/lib/libmbedtls/mbedtls/library/bignum.c:933
    368c:	2201      	movs	r2, #1
    368e:	e7cb      	b.n	3628 <mbedtls_mpi_cmp_mpi+0x28>
/mnt/disk/raspbian-tee/optee_os/lib/libmbedtls/mbedtls/library/bignum.c:934
    3690:	f04f 32ff 	mov.w	r2, #4294967295	; 0xffffffff
    3694:	e7c8      	b.n	3628 <mbedtls_mpi_cmp_mpi+0x28>

00003696 <mbedtls_mpi_cmp_int>:
mbedtls_mpi_cmp_int():
/mnt/disk/raspbian-tee/optee_os/lib/libmbedtls/mbedtls/library/bignum.c:949
    3696:	b51f      	push	{r0, r1, r2, r3, r4, lr}
/mnt/disk/raspbian-tee/optee_os/lib/libmbedtls/mbedtls/library/bignum.c:953
    3698:	ea81 73e1 	eor.w	r3, r1, r1, asr #31
/mnt/disk/raspbian-tee/optee_os/lib/libmbedtls/mbedtls/library/bignum.c:954
    369c:	2900      	cmp	r1, #0
/mnt/disk/raspbian-tee/optee_os/lib/libmbedtls/mbedtls/library/bignum.c:953
    369e:	eba3 73e1 	sub.w	r3, r3, r1, asr #31
/mnt/disk/raspbian-tee/optee_os/lib/libmbedtls/mbedtls/library/bignum.c:958
    36a2:	a901      	add	r1, sp, #4
/mnt/disk/raspbian-tee/optee_os/lib/libmbedtls/mbedtls/library/bignum.c:953
    36a4:	9300      	str	r3, [sp, #0]
/mnt/disk/raspbian-tee/optee_os/lib/libmbedtls/mbedtls/library/bignum.c:954
    36a6:	f04f 33ff 	mov.w	r3, #4294967295	; 0xffffffff
/mnt/disk/raspbian-tee/optee_os/lib/libmbedtls/mbedtls/library/bignum.c:956
    36aa:	f8cd d00c 	str.w	sp, [sp, #12]
/mnt/disk/raspbian-tee/optee_os/lib/libmbedtls/mbedtls/library/bignum.c:954
    36ae:	bfa8      	it	ge
    36b0:	2301      	movge	r3, #1
    36b2:	f88d 3004 	strb.w	r3, [sp, #4]
/mnt/disk/raspbian-tee/optee_os/lib/libmbedtls/mbedtls/library/bignum.c:955
    36b6:	2301      	movs	r3, #1
    36b8:	f8ad 3008 	strh.w	r3, [sp, #8]
/mnt/disk/raspbian-tee/optee_os/lib/libmbedtls/mbedtls/library/bignum.c:958
    36bc:	f7ff ffa0 	bl	3600 <mbedtls_mpi_cmp_mpi>
/mnt/disk/raspbian-tee/optee_os/lib/libmbedtls/mbedtls/library/bignum.c:959
    36c0:	b005      	add	sp, #20
    36c2:	f85d fb04 	ldr.w	pc, [sp], #4

000036c6 <mbedtls_mpi_add_abs>:
mbedtls_mpi_add_abs():
/mnt/disk/raspbian-tee/optee_os/lib/libmbedtls/mbedtls/library/bignum.c:965
    36c6:	e92d 41f0 	stmdb	sp!, {r4, r5, r6, r7, r8, lr}
/mnt/disk/raspbian-tee/optee_os/lib/libmbedtls/mbedtls/library/bignum.c:970
    36ca:	4290      	cmp	r0, r2
/mnt/disk/raspbian-tee/optee_os/lib/libmbedtls/mbedtls/library/bignum.c:965
    36cc:	4606      	mov	r6, r0
    36ce:	460c      	mov	r4, r1
    36d0:	4615      	mov	r5, r2
/mnt/disk/raspbian-tee/optee_os/lib/libmbedtls/mbedtls/library/bignum.c:970
    36d2:	d002      	beq.n	36da <mbedtls_mpi_add_abs+0x14>
/mnt/disk/raspbian-tee/optee_os/lib/libmbedtls/mbedtls/library/bignum.c:975
    36d4:	4288      	cmp	r0, r1
    36d6:	d130      	bne.n	373a <mbedtls_mpi_add_abs+0x74>
/mnt/disk/raspbian-tee/optee_os/lib/libmbedtls/mbedtls/library/bignum.c:965
    36d8:	462c      	mov	r4, r5
/mnt/disk/raspbian-tee/optee_os/lib/libmbedtls/mbedtls/library/bignum.c:981
    36da:	2301      	movs	r3, #1
    36dc:	7033      	strb	r3, [r6, #0]
/mnt/disk/raspbian-tee/optee_os/lib/libmbedtls/mbedtls/library/bignum.c:983
    36de:	88a5      	ldrh	r5, [r4, #4]
    36e0:	f105 4380 	add.w	r3, r5, #1073741824	; 0x40000000
    36e4:	3b01      	subs	r3, #1
    36e6:	009b      	lsls	r3, r3, #2
/mnt/disk/raspbian-tee/optee_os/lib/libmbedtls/mbedtls/library/bignum.c:983 (discriminator 1)
    36e8:	bb7d      	cbnz	r5, 374a <mbedtls_mpi_add_abs+0x84>
/mnt/disk/raspbian-tee/optee_os/lib/libmbedtls/mbedtls/library/bignum.c:987
    36ea:	4629      	mov	r1, r5
    36ec:	4630      	mov	r0, r6
    36ee:	f7ff fc6b 	bl	2fc8 <mbedtls_mpi_grow>
    36f2:	4607      	mov	r7, r0
    36f4:	bb30      	cbnz	r0, 3744 <mbedtls_mpi_add_abs+0x7e>
    36f6:	68a0      	ldr	r0, [r4, #8]
    36f8:	ea4f 0885 	mov.w	r8, r5, lsl #2
/mnt/disk/raspbian-tee/optee_os/lib/libmbedtls/mbedtls/library/bignum.c:989
    36fc:	68b1      	ldr	r1, [r6, #8]
    36fe:	463c      	mov	r4, r7
    3700:	3804      	subs	r0, #4
    3702:	eb01 0308 	add.w	r3, r1, r8
/mnt/disk/raspbian-tee/optee_os/lib/libmbedtls/mbedtls/library/bignum.c:994 (discriminator 1)
    3706:	4299      	cmp	r1, r3
    3708:	d126      	bne.n	3758 <mbedtls_mpi_add_abs+0x92>
/mnt/disk/raspbian-tee/optee_os/lib/libmbedtls/mbedtls/library/bignum.c:1001
    370a:	b1dc      	cbz	r4, 3744 <mbedtls_mpi_add_abs+0x7e>
/mnt/disk/raspbian-tee/optee_os/lib/libmbedtls/mbedtls/library/bignum.c:1003
    370c:	88b2      	ldrh	r2, [r6, #4]
    370e:	4295      	cmp	r5, r2
    3710:	f105 0501 	add.w	r5, r5, #1
    3714:	d306      	bcc.n	3724 <mbedtls_mpi_add_abs+0x5e>
/mnt/disk/raspbian-tee/optee_os/lib/libmbedtls/mbedtls/library/bignum.c:1005
    3716:	4629      	mov	r1, r5
    3718:	4630      	mov	r0, r6
    371a:	f7ff fc55 	bl	2fc8 <mbedtls_mpi_grow>
    371e:	bb70      	cbnz	r0, 377e <mbedtls_mpi_add_abs+0xb8>
/mnt/disk/raspbian-tee/optee_os/lib/libmbedtls/mbedtls/library/bignum.c:1006
    3720:	68b3      	ldr	r3, [r6, #8]
    3722:	4443      	add	r3, r8
    3724:	681a      	ldr	r2, [r3, #0]
    3726:	2100      	movs	r1, #0
    3728:	f108 0804 	add.w	r8, r8, #4
    372c:	18a4      	adds	r4, r4, r2
/mnt/disk/raspbian-tee/optee_os/lib/libmbedtls/mbedtls/library/bignum.c:1009
    372e:	f843 4b04 	str.w	r4, [r3], #4
    3732:	bf28      	it	cs
    3734:	2101      	movcs	r1, #1
    3736:	460c      	mov	r4, r1
    3738:	e7e7      	b.n	370a <mbedtls_mpi_add_abs+0x44>
/mnt/disk/raspbian-tee/optee_os/lib/libmbedtls/mbedtls/library/bignum.c:976
    373a:	f7ff fcff 	bl	313c <mbedtls_mpi_copy>
    373e:	4607      	mov	r7, r0
    3740:	2800      	cmp	r0, #0
    3742:	d0c9      	beq.n	36d8 <mbedtls_mpi_add_abs+0x12>
/mnt/disk/raspbian-tee/optee_os/lib/libmbedtls/mbedtls/library/bignum.c:1015
    3744:	4638      	mov	r0, r7
    3746:	e8bd 81f0 	ldmia.w	sp!, {r4, r5, r6, r7, r8, pc}
/mnt/disk/raspbian-tee/optee_os/lib/libmbedtls/mbedtls/library/bignum.c:984
    374a:	68a2      	ldr	r2, [r4, #8]
    374c:	58d2      	ldr	r2, [r2, r3]
    374e:	3b04      	subs	r3, #4
    3750:	2a00      	cmp	r2, #0
    3752:	d1ca      	bne.n	36ea <mbedtls_mpi_add_abs+0x24>
/mnt/disk/raspbian-tee/optee_os/lib/libmbedtls/mbedtls/library/bignum.c:983 (discriminator 2)
    3754:	3d01      	subs	r5, #1
    3756:	e7c7      	b.n	36e8 <mbedtls_mpi_add_abs+0x22>
    3758:	680a      	ldr	r2, [r1, #0]
    375a:	3004      	adds	r0, #4
    375c:	f04f 0c00 	mov.w	ip, #0
    3760:	eb14 0e02 	adds.w	lr, r4, r2
    3764:	d301      	bcc.n	376a <mbedtls_mpi_add_abs+0xa4>
    3766:	f04f 0c01 	mov.w	ip, #1
    376a:	6802      	ldr	r2, [r0, #0]
    376c:	2400      	movs	r4, #0
    376e:	eb12 020e 	adds.w	r2, r2, lr
/mnt/disk/raspbian-tee/optee_os/lib/libmbedtls/mbedtls/library/bignum.c:998 (discriminator 3)
    3772:	f841 2b04 	str.w	r2, [r1], #4
    3776:	bf28      	it	cs
    3778:	2401      	movcs	r4, #1
    377a:	4464      	add	r4, ip
    377c:	e7c3      	b.n	3706 <mbedtls_mpi_add_abs+0x40>
/mnt/disk/raspbian-tee/optee_os/lib/libmbedtls/mbedtls/library/bignum.c:1005
    377e:	4607      	mov	r7, r0
/mnt/disk/raspbian-tee/optee_os/lib/libmbedtls/mbedtls/library/bignum.c:1014
    3780:	e7e0      	b.n	3744 <mbedtls_mpi_add_abs+0x7e>

00003782 <mbedtls_mpi_sub_abs>:
mbedtls_mpi_sub_abs():
/mnt/disk/raspbian-tee/optee_os/lib/libmbedtls/mbedtls/library/bignum.c:1042
    3782:	e92d 41ff 	stmdb	sp!, {r0, r1, r2, r3, r4, r5, r6, r7, r8, lr}
    3786:	4688      	mov	r8, r1
    3788:	4606      	mov	r6, r0
/mnt/disk/raspbian-tee/optee_os/lib/libmbedtls/mbedtls/library/bignum.c:1047
    378a:	4611      	mov	r1, r2
    378c:	4640      	mov	r0, r8
/mnt/disk/raspbian-tee/optee_os/lib/libmbedtls/mbedtls/library/bignum.c:1042
    378e:	4614      	mov	r4, r2
/mnt/disk/raspbian-tee/optee_os/lib/libmbedtls/mbedtls/library/bignum.c:1047
    3790:	f7ff feff 	bl	3592 <mbedtls_mpi_cmp_abs>
    3794:	2800      	cmp	r0, #0
    3796:	db31      	blt.n	37fc <mbedtls_mpi_sub_abs+0x7a>
/mnt/disk/raspbian-tee/optee_os/lib/libmbedtls/mbedtls/library/bignum.c:1050
    3798:	af01      	add	r7, sp, #4
    379a:	4638      	mov	r0, r7
    379c:	f7ff fbd1 	bl	2f42 <mbedtls_mpi_init_mempool>
/mnt/disk/raspbian-tee/optee_os/lib/libmbedtls/mbedtls/library/bignum.c:1052
    37a0:	42b4      	cmp	r4, r6
    37a2:	d106      	bne.n	37b2 <mbedtls_mpi_sub_abs+0x30>
/mnt/disk/raspbian-tee/optee_os/lib/libmbedtls/mbedtls/library/bignum.c:1054
    37a4:	4621      	mov	r1, r4
    37a6:	4638      	mov	r0, r7
    37a8:	f7ff fcc8 	bl	313c <mbedtls_mpi_copy>
    37ac:	4605      	mov	r5, r0
    37ae:	b9b8      	cbnz	r0, 37e0 <mbedtls_mpi_sub_abs+0x5e>
/mnt/disk/raspbian-tee/optee_os/lib/libmbedtls/mbedtls/library/bignum.c:1055
    37b0:	463c      	mov	r4, r7
/mnt/disk/raspbian-tee/optee_os/lib/libmbedtls/mbedtls/library/bignum.c:1058
    37b2:	45b0      	cmp	r8, r6
    37b4:	d10d      	bne.n	37d2 <mbedtls_mpi_sub_abs+0x50>
/mnt/disk/raspbian-tee/optee_os/lib/libmbedtls/mbedtls/library/bignum.c:1064
    37b6:	2301      	movs	r3, #1
    37b8:	7033      	strb	r3, [r6, #0]
/mnt/disk/raspbian-tee/optee_os/lib/libmbedtls/mbedtls/library/bignum.c:1068
    37ba:	88a0      	ldrh	r0, [r4, #4]
    37bc:	f100 4380 	add.w	r3, r0, #1073741824	; 0x40000000
    37c0:	3b01      	subs	r3, #1
    37c2:	009b      	lsls	r3, r3, #2
/mnt/disk/raspbian-tee/optee_os/lib/libmbedtls/mbedtls/library/bignum.c:1068 (discriminator 1)
    37c4:	b998      	cbnz	r0, 37ee <mbedtls_mpi_sub_abs+0x6c>
/mnt/disk/raspbian-tee/optee_os/lib/libmbedtls/mbedtls/library/bignum.c:1072
    37c6:	68b2      	ldr	r2, [r6, #8]
/mnt/disk/raspbian-tee/optee_os/lib/libmbedtls/mbedtls/library/bignum.c:1066
    37c8:	2500      	movs	r5, #0
/mnt/disk/raspbian-tee/optee_os/lib/libmbedtls/mbedtls/library/bignum.c:1072
    37ca:	68a1      	ldr	r1, [r4, #8]
    37cc:	f7ff f914 	bl	29f8 <mpi_sub_hlp>
    37d0:	e006      	b.n	37e0 <mbedtls_mpi_sub_abs+0x5e>
/mnt/disk/raspbian-tee/optee_os/lib/libmbedtls/mbedtls/library/bignum.c:1059
    37d2:	4641      	mov	r1, r8
    37d4:	4630      	mov	r0, r6
    37d6:	f7ff fcb1 	bl	313c <mbedtls_mpi_copy>
    37da:	4605      	mov	r5, r0
    37dc:	2800      	cmp	r0, #0
    37de:	d0ea      	beq.n	37b6 <mbedtls_mpi_sub_abs+0x34>
/mnt/disk/raspbian-tee/optee_os/lib/libmbedtls/mbedtls/library/bignum.c:1076
    37e0:	4638      	mov	r0, r7
    37e2:	f7ff fbca 	bl	2f7a <mbedtls_mpi_free>
/mnt/disk/raspbian-tee/optee_os/lib/libmbedtls/mbedtls/library/bignum.c:1079
    37e6:	4628      	mov	r0, r5
    37e8:	b004      	add	sp, #16
    37ea:	e8bd 81f0 	ldmia.w	sp!, {r4, r5, r6, r7, r8, pc}
/mnt/disk/raspbian-tee/optee_os/lib/libmbedtls/mbedtls/library/bignum.c:1069
    37ee:	68a2      	ldr	r2, [r4, #8]
    37f0:	58d2      	ldr	r2, [r2, r3]
    37f2:	3b04      	subs	r3, #4
    37f4:	2a00      	cmp	r2, #0
    37f6:	d1e6      	bne.n	37c6 <mbedtls_mpi_sub_abs+0x44>
/mnt/disk/raspbian-tee/optee_os/lib/libmbedtls/mbedtls/library/bignum.c:1068 (discriminator 2)
    37f8:	3801      	subs	r0, #1
    37fa:	e7e3      	b.n	37c4 <mbedtls_mpi_sub_abs+0x42>
/mnt/disk/raspbian-tee/optee_os/lib/libmbedtls/mbedtls/library/bignum.c:1048
    37fc:	f06f 0509 	mvn.w	r5, #9
    3800:	e7f1      	b.n	37e6 <mbedtls_mpi_sub_abs+0x64>

00003802 <mbedtls_mpi_add_mpi>:
mbedtls_mpi_add_mpi():
/mnt/disk/raspbian-tee/optee_os/lib/libmbedtls/mbedtls/library/bignum.c:1085
    3802:	b5f8      	push	{r3, r4, r5, r6, r7, lr}
    3804:	4605      	mov	r5, r0
    3806:	460f      	mov	r7, r1
/mnt/disk/raspbian-tee/optee_os/lib/libmbedtls/mbedtls/library/bignum.c:1086
    3808:	f991 4000 	ldrsb.w	r4, [r1]
/mnt/disk/raspbian-tee/optee_os/lib/libmbedtls/mbedtls/library/bignum.c:1085
    380c:	4616      	mov	r6, r2
/mnt/disk/raspbian-tee/optee_os/lib/libmbedtls/mbedtls/library/bignum.c:1088
    380e:	f992 3000 	ldrsb.w	r3, [r2]
    3812:	4363      	muls	r3, r4
    3814:	d516      	bpl.n	3844 <mbedtls_mpi_add_mpi+0x42>
/mnt/disk/raspbian-tee/optee_os/lib/libmbedtls/mbedtls/library/bignum.c:1090
    3816:	4611      	mov	r1, r2
    3818:	4638      	mov	r0, r7
    381a:	f7ff feba 	bl	3592 <mbedtls_mpi_cmp_abs>
    381e:	2800      	cmp	r0, #0
    3820:	db06      	blt.n	3830 <mbedtls_mpi_add_mpi+0x2e>
/mnt/disk/raspbian-tee/optee_os/lib/libmbedtls/mbedtls/library/bignum.c:1092
    3822:	4632      	mov	r2, r6
    3824:	4639      	mov	r1, r7
    3826:	4628      	mov	r0, r5
    3828:	f7ff ffab 	bl	3782 <mbedtls_mpi_sub_abs>
/mnt/disk/raspbian-tee/optee_os/lib/libmbedtls/mbedtls/library/bignum.c:1103
    382c:	b140      	cbz	r0, 3840 <mbedtls_mpi_add_mpi+0x3e>
/mnt/disk/raspbian-tee/optee_os/lib/libmbedtls/mbedtls/library/bignum.c:1110
    382e:	bdf8      	pop	{r3, r4, r5, r6, r7, pc}
/mnt/disk/raspbian-tee/optee_os/lib/libmbedtls/mbedtls/library/bignum.c:1097
    3830:	463a      	mov	r2, r7
    3832:	4631      	mov	r1, r6
    3834:	4628      	mov	r0, r5
    3836:	f7ff ffa4 	bl	3782 <mbedtls_mpi_sub_abs>
    383a:	2800      	cmp	r0, #0
    383c:	d1f7      	bne.n	382e <mbedtls_mpi_add_mpi+0x2c>
/mnt/disk/raspbian-tee/optee_os/lib/libmbedtls/mbedtls/library/bignum.c:1098
    383e:	4264      	negs	r4, r4
/mnt/disk/raspbian-tee/optee_os/lib/libmbedtls/mbedtls/library/bignum.c:1104
    3840:	702c      	strb	r4, [r5, #0]
/mnt/disk/raspbian-tee/optee_os/lib/libmbedtls/mbedtls/library/bignum.c:1109
    3842:	e7f4      	b.n	382e <mbedtls_mpi_add_mpi+0x2c>
/mnt/disk/raspbian-tee/optee_os/lib/libmbedtls/mbedtls/library/bignum.c:1103
    3844:	f7ff ff3f 	bl	36c6 <mbedtls_mpi_add_abs>
    3848:	e7f0      	b.n	382c <mbedtls_mpi_add_mpi+0x2a>

0000384a <mbedtls_mpi_sub_mpi>:
mbedtls_mpi_sub_mpi():
/mnt/disk/raspbian-tee/optee_os/lib/libmbedtls/mbedtls/library/bignum.c:1116
    384a:	b5f8      	push	{r3, r4, r5, r6, r7, lr}
    384c:	4605      	mov	r5, r0
    384e:	460f      	mov	r7, r1
/mnt/disk/raspbian-tee/optee_os/lib/libmbedtls/mbedtls/library/bignum.c:1117
    3850:	f991 4000 	ldrsb.w	r4, [r1]
/mnt/disk/raspbian-tee/optee_os/lib/libmbedtls/mbedtls/library/bignum.c:1116
    3854:	4616      	mov	r6, r2
/mnt/disk/raspbian-tee/optee_os/lib/libmbedtls/mbedtls/library/bignum.c:1119
    3856:	f992 3000 	ldrsb.w	r3, [r2]
    385a:	fb13 f304 	smulbb	r3, r3, r4
    385e:	2b00      	cmp	r3, #0
    3860:	dd16      	ble.n	3890 <mbedtls_mpi_sub_mpi+0x46>
/mnt/disk/raspbian-tee/optee_os/lib/libmbedtls/mbedtls/library/bignum.c:1121
    3862:	4611      	mov	r1, r2
    3864:	4638      	mov	r0, r7
    3866:	f7ff fe94 	bl	3592 <mbedtls_mpi_cmp_abs>
    386a:	2800      	cmp	r0, #0
    386c:	db06      	blt.n	387c <mbedtls_mpi_sub_mpi+0x32>
/mnt/disk/raspbian-tee/optee_os/lib/libmbedtls/mbedtls/library/bignum.c:1123
    386e:	4632      	mov	r2, r6
    3870:	4639      	mov	r1, r7
    3872:	4628      	mov	r0, r5
    3874:	f7ff ff85 	bl	3782 <mbedtls_mpi_sub_abs>
/mnt/disk/raspbian-tee/optee_os/lib/libmbedtls/mbedtls/library/bignum.c:1134
    3878:	b140      	cbz	r0, 388c <mbedtls_mpi_sub_mpi+0x42>
/mnt/disk/raspbian-tee/optee_os/lib/libmbedtls/mbedtls/library/bignum.c:1141
    387a:	bdf8      	pop	{r3, r4, r5, r6, r7, pc}
/mnt/disk/raspbian-tee/optee_os/lib/libmbedtls/mbedtls/library/bignum.c:1128
    387c:	463a      	mov	r2, r7
    387e:	4631      	mov	r1, r6
    3880:	4628      	mov	r0, r5
    3882:	f7ff ff7e 	bl	3782 <mbedtls_mpi_sub_abs>
    3886:	2800      	cmp	r0, #0
    3888:	d1f7      	bne.n	387a <mbedtls_mpi_sub_mpi+0x30>
/mnt/disk/raspbian-tee/optee_os/lib/libmbedtls/mbedtls/library/bignum.c:1129
    388a:	4264      	negs	r4, r4
/mnt/disk/raspbian-tee/optee_os/lib/libmbedtls/mbedtls/library/bignum.c:1135
    388c:	702c      	strb	r4, [r5, #0]
/mnt/disk/raspbian-tee/optee_os/lib/libmbedtls/mbedtls/library/bignum.c:1140
    388e:	e7f4      	b.n	387a <mbedtls_mpi_sub_mpi+0x30>
/mnt/disk/raspbian-tee/optee_os/lib/libmbedtls/mbedtls/library/bignum.c:1134
    3890:	f7ff ff19 	bl	36c6 <mbedtls_mpi_add_abs>
    3894:	e7f0      	b.n	3878 <mbedtls_mpi_sub_mpi+0x2e>

00003896 <mbedtls_mpi_add_int>:
mbedtls_mpi_add_int():
/mnt/disk/raspbian-tee/optee_os/lib/libmbedtls/mbedtls/library/bignum.c:1147
    3896:	b51f      	push	{r0, r1, r2, r3, r4, lr}
/mnt/disk/raspbian-tee/optee_os/lib/libmbedtls/mbedtls/library/bignum.c:1151
    3898:	ea82 73e2 	eor.w	r3, r2, r2, asr #31
/mnt/disk/raspbian-tee/optee_os/lib/libmbedtls/mbedtls/library/bignum.c:1152
    389c:	2a00      	cmp	r2, #0
/mnt/disk/raspbian-tee/optee_os/lib/libmbedtls/mbedtls/library/bignum.c:1151
    389e:	eba3 73e2 	sub.w	r3, r3, r2, asr #31
/mnt/disk/raspbian-tee/optee_os/lib/libmbedtls/mbedtls/library/bignum.c:1156
    38a2:	aa01      	add	r2, sp, #4
/mnt/disk/raspbian-tee/optee_os/lib/libmbedtls/mbedtls/library/bignum.c:1151
    38a4:	9300      	str	r3, [sp, #0]
/mnt/disk/raspbian-tee/optee_os/lib/libmbedtls/mbedtls/library/bignum.c:1152
    38a6:	f04f 33ff 	mov.w	r3, #4294967295	; 0xffffffff
/mnt/disk/raspbian-tee/optee_os/lib/libmbedtls/mbedtls/library/bignum.c:1154
    38aa:	f8cd d00c 	str.w	sp, [sp, #12]
/mnt/disk/raspbian-tee/optee_os/lib/libmbedtls/mbedtls/library/bignum.c:1152
    38ae:	bfa8      	it	ge
    38b0:	2301      	movge	r3, #1
    38b2:	f88d 3004 	strb.w	r3, [sp, #4]
/mnt/disk/raspbian-tee/optee_os/lib/libmbedtls/mbedtls/library/bignum.c:1153
    38b6:	2301      	movs	r3, #1
    38b8:	f8ad 3008 	strh.w	r3, [sp, #8]
/mnt/disk/raspbian-tee/optee_os/lib/libmbedtls/mbedtls/library/bignum.c:1156
    38bc:	f7ff ffa1 	bl	3802 <mbedtls_mpi_add_mpi>
/mnt/disk/raspbian-tee/optee_os/lib/libmbedtls/mbedtls/library/bignum.c:1157
    38c0:	b005      	add	sp, #20
    38c2:	f85d fb04 	ldr.w	pc, [sp], #4

000038c6 <mbedtls_mpi_sub_int>:
mbedtls_mpi_sub_int():
/mnt/disk/raspbian-tee/optee_os/lib/libmbedtls/mbedtls/library/bignum.c:1163
    38c6:	b51f      	push	{r0, r1, r2, r3, r4, lr}
/mnt/disk/raspbian-tee/optee_os/lib/libmbedtls/mbedtls/library/bignum.c:1167
    38c8:	ea82 73e2 	eor.w	r3, r2, r2, asr #31
/mnt/disk/raspbian-tee/optee_os/lib/libmbedtls/mbedtls/library/bignum.c:1168
    38cc:	2a00      	cmp	r2, #0
/mnt/disk/raspbian-tee/optee_os/lib/libmbedtls/mbedtls/library/bignum.c:1167
    38ce:	eba3 73e2 	sub.w	r3, r3, r2, asr #31
/mnt/disk/raspbian-tee/optee_os/lib/libmbedtls/mbedtls/library/bignum.c:1172
    38d2:	aa01      	add	r2, sp, #4
/mnt/disk/raspbian-tee/optee_os/lib/libmbedtls/mbedtls/library/bignum.c:1167
    38d4:	9300      	str	r3, [sp, #0]
/mnt/disk/raspbian-tee/optee_os/lib/libmbedtls/mbedtls/library/bignum.c:1168
    38d6:	f04f 33ff 	mov.w	r3, #4294967295	; 0xffffffff
/mnt/disk/raspbian-tee/optee_os/lib/libmbedtls/mbedtls/library/bignum.c:1170
    38da:	f8cd d00c 	str.w	sp, [sp, #12]
/mnt/disk/raspbian-tee/optee_os/lib/libmbedtls/mbedtls/library/bignum.c:1168
    38de:	bfa8      	it	ge
    38e0:	2301      	movge	r3, #1
    38e2:	f88d 3004 	strb.w	r3, [sp, #4]
/mnt/disk/raspbian-tee/optee_os/lib/libmbedtls/mbedtls/library/bignum.c:1169
    38e6:	2301      	movs	r3, #1
    38e8:	f8ad 3008 	strh.w	r3, [sp, #8]
/mnt/disk/raspbian-tee/optee_os/lib/libmbedtls/mbedtls/library/bignum.c:1172
    38ec:	f7ff ffad 	bl	384a <mbedtls_mpi_sub_mpi>
/mnt/disk/raspbian-tee/optee_os/lib/libmbedtls/mbedtls/library/bignum.c:1173
    38f0:	b005      	add	sp, #20
    38f2:	f85d fb04 	ldr.w	pc, [sp], #4

000038f6 <mbedtls_mpi_mul_mpi>:
mbedtls_mpi_mul_mpi():
/mnt/disk/raspbian-tee/optee_os/lib/libmbedtls/mbedtls/library/bignum.c:1251
    38f6:	e92d 4ff0 	stmdb	sp!, {r4, r5, r6, r7, r8, r9, sl, fp, lr}
    38fa:	4606      	mov	r6, r0
    38fc:	4688      	mov	r8, r1
    38fe:	b087      	sub	sp, #28
    3900:	4617      	mov	r7, r2
/mnt/disk/raspbian-tee/optee_os/lib/libmbedtls/mbedtls/library/bignum.c:1256
    3902:	4668      	mov	r0, sp
    3904:	f10d 0b0c 	add.w	fp, sp, #12
    3908:	f7ff fb1b 	bl	2f42 <mbedtls_mpi_init_mempool>
    390c:	4658      	mov	r0, fp
    390e:	f7ff fb18 	bl	2f42 <mbedtls_mpi_init_mempool>
    3912:	46ea      	mov	sl, sp
/mnt/disk/raspbian-tee/optee_os/lib/libmbedtls/mbedtls/library/bignum.c:1258
    3914:	428e      	cmp	r6, r1
    3916:	d106      	bne.n	3926 <mbedtls_mpi_mul_mpi+0x30>
/mnt/disk/raspbian-tee/optee_os/lib/libmbedtls/mbedtls/library/bignum.c:1258 (discriminator 1)
    3918:	4631      	mov	r1, r6
    391a:	4668      	mov	r0, sp
    391c:	f7ff fc0e 	bl	313c <mbedtls_mpi_copy>
    3920:	4605      	mov	r5, r0
    3922:	bb88      	cbnz	r0, 3988 <mbedtls_mpi_mul_mpi+0x92>
/mnt/disk/raspbian-tee/optee_os/lib/libmbedtls/mbedtls/library/bignum.c:1258
    3924:	46e8      	mov	r8, sp
/mnt/disk/raspbian-tee/optee_os/lib/libmbedtls/mbedtls/library/bignum.c:1259
    3926:	42be      	cmp	r6, r7
    3928:	d106      	bne.n	3938 <mbedtls_mpi_mul_mpi+0x42>
/mnt/disk/raspbian-tee/optee_os/lib/libmbedtls/mbedtls/library/bignum.c:1259 (discriminator 1)
    392a:	4631      	mov	r1, r6
    392c:	4658      	mov	r0, fp
    392e:	f7ff fc05 	bl	313c <mbedtls_mpi_copy>
    3932:	4605      	mov	r5, r0
    3934:	bb40      	cbnz	r0, 3988 <mbedtls_mpi_mul_mpi+0x92>
/mnt/disk/raspbian-tee/optee_os/lib/libmbedtls/mbedtls/library/bignum.c:1259
    3936:	465f      	mov	r7, fp
/mnt/disk/raspbian-tee/optee_os/lib/libmbedtls/mbedtls/library/bignum.c:1261
    3938:	f8b8 9004 	ldrh.w	r9, [r8, #4]
    393c:	f109 4380 	add.w	r3, r9, #1073741824	; 0x40000000
    3940:	3b01      	subs	r3, #1
    3942:	009b      	lsls	r3, r3, #2
/mnt/disk/raspbian-tee/optee_os/lib/libmbedtls/mbedtls/library/bignum.c:1261 (discriminator 1)
    3944:	f1b9 0f00 	cmp.w	r9, #0
    3948:	d128      	bne.n	399c <mbedtls_mpi_mul_mpi+0xa6>
/mnt/disk/raspbian-tee/optee_os/lib/libmbedtls/mbedtls/library/bignum.c:1265
    394a:	88bc      	ldrh	r4, [r7, #4]
    394c:	f104 4380 	add.w	r3, r4, #1073741824	; 0x40000000
    3950:	3b01      	subs	r3, #1
    3952:	009b      	lsls	r3, r3, #2
/mnt/disk/raspbian-tee/optee_os/lib/libmbedtls/mbedtls/library/bignum.c:1265 (discriminator 1)
    3954:	bb5c      	cbnz	r4, 39ae <mbedtls_mpi_mul_mpi+0xb8>
/mnt/disk/raspbian-tee/optee_os/lib/libmbedtls/mbedtls/library/bignum.c:1269
    3956:	eb09 0104 	add.w	r1, r9, r4
    395a:	4630      	mov	r0, r6
    395c:	f7ff fb34 	bl	2fc8 <mbedtls_mpi_grow>
    3960:	4605      	mov	r5, r0
    3962:	b988      	cbnz	r0, 3988 <mbedtls_mpi_mul_mpi+0x92>
/mnt/disk/raspbian-tee/optee_os/lib/libmbedtls/mbedtls/library/bignum.c:1270
    3964:	4601      	mov	r1, r0
    3966:	4630      	mov	r0, r6
    3968:	f7ff fca3 	bl	32b2 <mbedtls_mpi_lset>
    396c:	4605      	mov	r5, r0
    396e:	b958      	cbnz	r0, 3988 <mbedtls_mpi_mul_mpi+0x92>
    3970:	f104 4480 	add.w	r4, r4, #1073741824	; 0x40000000
    3974:	3c01      	subs	r4, #1
    3976:	00a4      	lsls	r4, r4, #2
/mnt/disk/raspbian-tee/optee_os/lib/libmbedtls/mbedtls/library/bignum.c:1272 (discriminator 1)
    3978:	1d23      	adds	r3, r4, #4
    397a:	d11f      	bne.n	39bc <mbedtls_mpi_mul_mpi+0xc6>
/mnt/disk/raspbian-tee/optee_os/lib/libmbedtls/mbedtls/library/bignum.c:1275
    397c:	f898 3000 	ldrb.w	r3, [r8]
    3980:	783a      	ldrb	r2, [r7, #0]
    3982:	fb13 f302 	smulbb	r3, r3, r2
    3986:	7033      	strb	r3, [r6, #0]
/mnt/disk/raspbian-tee/optee_os/lib/libmbedtls/mbedtls/library/bignum.c:1279
    3988:	4658      	mov	r0, fp
    398a:	f7ff faf6 	bl	2f7a <mbedtls_mpi_free>
    398e:	4650      	mov	r0, sl
    3990:	f7ff faf3 	bl	2f7a <mbedtls_mpi_free>
/mnt/disk/raspbian-tee/optee_os/lib/libmbedtls/mbedtls/library/bignum.c:1282
    3994:	4628      	mov	r0, r5
    3996:	b007      	add	sp, #28
    3998:	e8bd 8ff0 	ldmia.w	sp!, {r4, r5, r6, r7, r8, r9, sl, fp, pc}
/mnt/disk/raspbian-tee/optee_os/lib/libmbedtls/mbedtls/library/bignum.c:1262
    399c:	f8d8 2008 	ldr.w	r2, [r8, #8]
    39a0:	58d2      	ldr	r2, [r2, r3]
    39a2:	3b04      	subs	r3, #4
    39a4:	2a00      	cmp	r2, #0
    39a6:	d1d0      	bne.n	394a <mbedtls_mpi_mul_mpi+0x54>
/mnt/disk/raspbian-tee/optee_os/lib/libmbedtls/mbedtls/library/bignum.c:1261 (discriminator 2)
    39a8:	f109 39ff 	add.w	r9, r9, #4294967295	; 0xffffffff
    39ac:	e7ca      	b.n	3944 <mbedtls_mpi_mul_mpi+0x4e>
/mnt/disk/raspbian-tee/optee_os/lib/libmbedtls/mbedtls/library/bignum.c:1266
    39ae:	68ba      	ldr	r2, [r7, #8]
    39b0:	58d2      	ldr	r2, [r2, r3]
    39b2:	3b04      	subs	r3, #4
    39b4:	2a00      	cmp	r2, #0
    39b6:	d1ce      	bne.n	3956 <mbedtls_mpi_mul_mpi+0x60>
/mnt/disk/raspbian-tee/optee_os/lib/libmbedtls/mbedtls/library/bignum.c:1265 (discriminator 2)
    39b8:	3c01      	subs	r4, #1
    39ba:	e7cb      	b.n	3954 <mbedtls_mpi_mul_mpi+0x5e>
/mnt/disk/raspbian-tee/optee_os/lib/libmbedtls/mbedtls/library/bignum.c:1273 (discriminator 3)
    39bc:	68bb      	ldr	r3, [r7, #8]
    39be:	4648      	mov	r0, r9
    39c0:	68b2      	ldr	r2, [r6, #8]
    39c2:	f8d8 1008 	ldr.w	r1, [r8, #8]
    39c6:	591b      	ldr	r3, [r3, r4]
    39c8:	4422      	add	r2, r4
    39ca:	f7ff f844 	bl	2a56 <mpi_mul_hlp>
    39ce:	3c04      	subs	r4, #4
    39d0:	e7d2      	b.n	3978 <mbedtls_mpi_mul_mpi+0x82>

000039d2 <mbedtls_mpi_mul_int>:
mbedtls_mpi_mul_int():
/mnt/disk/raspbian-tee/optee_os/lib/libmbedtls/mbedtls/library/bignum.c:1288
    39d2:	b51f      	push	{r0, r1, r2, r3, r4, lr}
/mnt/disk/raspbian-tee/optee_os/lib/libmbedtls/mbedtls/library/bignum.c:1292
    39d4:	2301      	movs	r3, #1
/mnt/disk/raspbian-tee/optee_os/lib/libmbedtls/mbedtls/library/bignum.c:1295
    39d6:	9200      	str	r2, [sp, #0]
/mnt/disk/raspbian-tee/optee_os/lib/libmbedtls/mbedtls/library/bignum.c:1297
    39d8:	aa01      	add	r2, sp, #4
/mnt/disk/raspbian-tee/optee_os/lib/libmbedtls/mbedtls/library/bignum.c:1292
    39da:	f88d 3004 	strb.w	r3, [sp, #4]
/mnt/disk/raspbian-tee/optee_os/lib/libmbedtls/mbedtls/library/bignum.c:1293
    39de:	f8ad 3008 	strh.w	r3, [sp, #8]
/mnt/disk/raspbian-tee/optee_os/lib/libmbedtls/mbedtls/library/bignum.c:1294
    39e2:	f8cd d00c 	str.w	sp, [sp, #12]
/mnt/disk/raspbian-tee/optee_os/lib/libmbedtls/mbedtls/library/bignum.c:1297
    39e6:	f7ff ff86 	bl	38f6 <mbedtls_mpi_mul_mpi>
/mnt/disk/raspbian-tee/optee_os/lib/libmbedtls/mbedtls/library/bignum.c:1298
    39ea:	b005      	add	sp, #20
    39ec:	f85d fb04 	ldr.w	pc, [sp], #4

000039f0 <mbedtls_mpi_read_string>:
mbedtls_mpi_read_string():
/mnt/disk/raspbian-tee/optee_os/lib/libmbedtls/mbedtls/library/bignum.c:502
    39f0:	e92d 4ff0 	stmdb	sp!, {r4, r5, r6, r7, r8, r9, sl, fp, lr}
/mnt/disk/raspbian-tee/optee_os/lib/libmbedtls/mbedtls/library/bignum.c:508
    39f4:	1e8b      	subs	r3, r1, #2
/mnt/disk/raspbian-tee/optee_os/lib/libmbedtls/mbedtls/library/bignum.c:502
    39f6:	4605      	mov	r5, r0
    39f8:	b087      	sub	sp, #28
    39fa:	4689      	mov	r9, r1
    39fc:	4690      	mov	r8, r2
/mnt/disk/raspbian-tee/optee_os/lib/libmbedtls/mbedtls/library/bignum.c:508
    39fe:	2b0e      	cmp	r3, #14
    3a00:	d905      	bls.n	3a0e <mbedtls_mpi_read_string+0x1e>
/mnt/disk/raspbian-tee/optee_os/lib/libmbedtls/mbedtls/library/bignum.c:509
    3a02:	f06f 0a03 	mvn.w	sl, #3
/mnt/disk/raspbian-tee/optee_os/lib/libmbedtls/mbedtls/library/bignum.c:568
    3a06:	4650      	mov	r0, sl
    3a08:	b007      	add	sp, #28
    3a0a:	e8bd 8ff0 	ldmia.w	sp!, {r4, r5, r6, r7, r8, r9, sl, fp, pc}
/mnt/disk/raspbian-tee/optee_os/lib/libmbedtls/mbedtls/library/bignum.c:511
    3a0e:	ae03      	add	r6, sp, #12
    3a10:	4630      	mov	r0, r6
    3a12:	f7ff fa96 	bl	2f42 <mbedtls_mpi_init_mempool>
/mnt/disk/raspbian-tee/optee_os/lib/libmbedtls/mbedtls/library/bignum.c:513
    3a16:	4640      	mov	r0, r8
    3a18:	f002 fa9c 	bl	5f54 <strlen>
/mnt/disk/raspbian-tee/optee_os/lib/libmbedtls/mbedtls/library/bignum.c:515
    3a1c:	f1b9 0f10 	cmp.w	r9, #16
/mnt/disk/raspbian-tee/optee_os/lib/libmbedtls/mbedtls/library/bignum.c:513
    3a20:	4604      	mov	r4, r0
/mnt/disk/raspbian-tee/optee_os/lib/libmbedtls/mbedtls/library/bignum.c:515
    3a22:	d141      	bne.n	3aa8 <mbedtls_mpi_read_string+0xb8>
/mnt/disk/raspbian-tee/optee_os/lib/libmbedtls/mbedtls/library/bignum.c:517
    3a24:	f1b0 4f80 	cmp.w	r0, #1073741824	; 0x40000000
    3a28:	d2eb      	bcs.n	3a02 <mbedtls_mpi_read_string+0x12>
/mnt/disk/raspbian-tee/optee_os/lib/libmbedtls/mbedtls/library/bignum.c:520
    3a2a:	0083      	lsls	r3, r0, #2
    3a2c:	2101      	movs	r1, #1
    3a2e:	f013 0f1c 	tst.w	r3, #28
/mnt/disk/raspbian-tee/optee_os/lib/libmbedtls/mbedtls/library/bignum.c:522
    3a32:	4628      	mov	r0, r5
/mnt/disk/raspbian-tee/optee_os/lib/libmbedtls/mbedtls/library/bignum.c:520
    3a34:	bf08      	it	eq
    3a36:	2100      	moveq	r1, #0
/mnt/disk/raspbian-tee/optee_os/lib/libmbedtls/mbedtls/library/bignum.c:522
    3a38:	eb01 1153 	add.w	r1, r1, r3, lsr #5
    3a3c:	f7ff fac4 	bl	2fc8 <mbedtls_mpi_grow>
    3a40:	4682      	mov	sl, r0
    3a42:	b9a0      	cbnz	r0, 3a6e <mbedtls_mpi_read_string+0x7e>
/mnt/disk/raspbian-tee/optee_os/lib/libmbedtls/mbedtls/library/bignum.c:523
    3a44:	4601      	mov	r1, r0
    3a46:	4628      	mov	r0, r5
    3a48:	f7ff fc33 	bl	32b2 <mbedtls_mpi_lset>
    3a4c:	4682      	mov	sl, r0
    3a4e:	b970      	cbnz	r0, 3a6e <mbedtls_mpi_read_string+0x7e>
    3a50:	4607      	mov	r7, r0
/mnt/disk/raspbian-tee/optee_os/lib/libmbedtls/mbedtls/library/bignum.c:533 (discriminator 1)
    3a52:	f10d 0908 	add.w	r9, sp, #8
/mnt/disk/raspbian-tee/optee_os/lib/libmbedtls/mbedtls/library/bignum.c:525 (discriminator 1)
    3a56:	b914      	cbnz	r4, 3a5e <mbedtls_mpi_read_string+0x6e>
/mnt/disk/raspbian-tee/optee_os/lib/libmbedtls/mbedtls/library/bignum.c:533
    3a58:	f04f 0a00 	mov.w	sl, #0
    3a5c:	e007      	b.n	3a6e <mbedtls_mpi_read_string+0x7e>
/mnt/disk/raspbian-tee/optee_os/lib/libmbedtls/mbedtls/library/bignum.c:527
    3a5e:	2c01      	cmp	r4, #1
    3a60:	d109      	bne.n	3a76 <mbedtls_mpi_read_string+0x86>
/mnt/disk/raspbian-tee/optee_os/lib/libmbedtls/mbedtls/library/bignum.c:527 (discriminator 1)
    3a62:	f898 2000 	ldrb.w	r2, [r8]
    3a66:	2a2d      	cmp	r2, #45	; 0x2d
    3a68:	d105      	bne.n	3a76 <mbedtls_mpi_read_string+0x86>
/mnt/disk/raspbian-tee/optee_os/lib/libmbedtls/mbedtls/library/bignum.c:529
    3a6a:	22ff      	movs	r2, #255	; 0xff
    3a6c:	702a      	strb	r2, [r5, #0]
/mnt/disk/raspbian-tee/optee_os/lib/libmbedtls/mbedtls/library/bignum.c:565
    3a6e:	4630      	mov	r0, r6
    3a70:	f7ff fa83 	bl	2f7a <mbedtls_mpi_free>
/mnt/disk/raspbian-tee/optee_os/lib/libmbedtls/mbedtls/library/bignum.c:567
    3a74:	e7c7      	b.n	3a06 <mbedtls_mpi_read_string+0x16>
/mnt/disk/raspbian-tee/optee_os/lib/libmbedtls/mbedtls/library/bignum.c:533
    3a76:	3c01      	subs	r4, #1
    3a78:	2110      	movs	r1, #16
    3a7a:	4648      	mov	r0, r9
    3a7c:	f818 2004 	ldrb.w	r2, [r8, r4]
    3a80:	f7fe ff9e 	bl	29c0 <mpi_get_digit>
    3a84:	2800      	cmp	r0, #0
    3a86:	d147      	bne.n	3b18 <mbedtls_mpi_read_string+0x128>
/mnt/disk/raspbian-tee/optee_os/lib/libmbedtls/mbedtls/library/bignum.c:534 (discriminator 2)
    3a88:	ea4f 0cd7 	mov.w	ip, r7, lsr #3
    3a8c:	9a02      	ldr	r2, [sp, #8]
    3a8e:	68a8      	ldr	r0, [r5, #8]
    3a90:	00b9      	lsls	r1, r7, #2
    3a92:	f001 011c 	and.w	r1, r1, #28
/mnt/disk/raspbian-tee/optee_os/lib/libmbedtls/mbedtls/library/bignum.c:525 (discriminator 2)
    3a96:	3701      	adds	r7, #1
/mnt/disk/raspbian-tee/optee_os/lib/libmbedtls/mbedtls/library/bignum.c:534 (discriminator 2)
    3a98:	fa02 f101 	lsl.w	r1, r2, r1
    3a9c:	f850 202c 	ldr.w	r2, [r0, ip, lsl #2]
    3aa0:	430a      	orrs	r2, r1
    3aa2:	f840 202c 	str.w	r2, [r0, ip, lsl #2]
    3aa6:	e7d6      	b.n	3a56 <mbedtls_mpi_read_string+0x66>
/mnt/disk/raspbian-tee/optee_os/lib/libmbedtls/mbedtls/library/bignum.c:539
    3aa8:	2100      	movs	r1, #0
    3aaa:	4628      	mov	r0, r5
    3aac:	f7ff fc01 	bl	32b2 <mbedtls_mpi_lset>
    3ab0:	4682      	mov	sl, r0
    3ab2:	2800      	cmp	r0, #0
    3ab4:	d1db      	bne.n	3a6e <mbedtls_mpi_read_string+0x7e>
    3ab6:	4607      	mov	r7, r0
/mnt/disk/raspbian-tee/optee_os/lib/libmbedtls/mbedtls/library/bignum.c:545 (discriminator 1)
    3ab8:	f04f 0bff 	mov.w	fp, #255	; 0xff
/mnt/disk/raspbian-tee/optee_os/lib/libmbedtls/mbedtls/library/bignum.c:549 (discriminator 1)
    3abc:	ab02      	add	r3, sp, #8
    3abe:	9301      	str	r3, [sp, #4]
/mnt/disk/raspbian-tee/optee_os/lib/libmbedtls/mbedtls/library/bignum.c:541 (discriminator 1)
    3ac0:	42a7      	cmp	r7, r4
    3ac2:	d0c9      	beq.n	3a58 <mbedtls_mpi_read_string+0x68>
/mnt/disk/raspbian-tee/optee_os/lib/libmbedtls/mbedtls/library/bignum.c:543
    3ac4:	b93f      	cbnz	r7, 3ad6 <mbedtls_mpi_read_string+0xe6>
/mnt/disk/raspbian-tee/optee_os/lib/libmbedtls/mbedtls/library/bignum.c:543 (discriminator 1)
    3ac6:	f898 3000 	ldrb.w	r3, [r8]
    3aca:	2b2d      	cmp	r3, #45	; 0x2d
    3acc:	d103      	bne.n	3ad6 <mbedtls_mpi_read_string+0xe6>
/mnt/disk/raspbian-tee/optee_os/lib/libmbedtls/mbedtls/library/bignum.c:545
    3ace:	f885 b000 	strb.w	fp, [r5]
/mnt/disk/raspbian-tee/optee_os/lib/libmbedtls/mbedtls/library/bignum.c:541 (discriminator 2)
    3ad2:	3701      	adds	r7, #1
    3ad4:	e7f4      	b.n	3ac0 <mbedtls_mpi_read_string+0xd0>
/mnt/disk/raspbian-tee/optee_os/lib/libmbedtls/mbedtls/library/bignum.c:549
    3ad6:	f818 2007 	ldrb.w	r2, [r8, r7]
    3ada:	4649      	mov	r1, r9
    3adc:	9801      	ldr	r0, [sp, #4]
    3ade:	f7fe ff6f 	bl	29c0 <mpi_get_digit>
    3ae2:	4682      	mov	sl, r0
    3ae4:	2800      	cmp	r0, #0
    3ae6:	d1c2      	bne.n	3a6e <mbedtls_mpi_read_string+0x7e>
/mnt/disk/raspbian-tee/optee_os/lib/libmbedtls/mbedtls/library/bignum.c:550
    3ae8:	464a      	mov	r2, r9
    3aea:	4629      	mov	r1, r5
    3aec:	4630      	mov	r0, r6
    3aee:	f7ff ff70 	bl	39d2 <mbedtls_mpi_mul_int>
    3af2:	4682      	mov	sl, r0
    3af4:	2800      	cmp	r0, #0
    3af6:	d1ba      	bne.n	3a6e <mbedtls_mpi_read_string+0x7e>
/mnt/disk/raspbian-tee/optee_os/lib/libmbedtls/mbedtls/library/bignum.c:552
    3af8:	f995 3000 	ldrsb.w	r3, [r5]
/mnt/disk/raspbian-tee/optee_os/lib/libmbedtls/mbedtls/library/bignum.c:554
    3afc:	4631      	mov	r1, r6
    3afe:	9a02      	ldr	r2, [sp, #8]
    3b00:	4628      	mov	r0, r5
/mnt/disk/raspbian-tee/optee_os/lib/libmbedtls/mbedtls/library/bignum.c:552
    3b02:	2b01      	cmp	r3, #1
    3b04:	d105      	bne.n	3b12 <mbedtls_mpi_read_string+0x122>
/mnt/disk/raspbian-tee/optee_os/lib/libmbedtls/mbedtls/library/bignum.c:554
    3b06:	f7ff fec6 	bl	3896 <mbedtls_mpi_add_int>
/mnt/disk/raspbian-tee/optee_os/lib/libmbedtls/mbedtls/library/bignum.c:558
    3b0a:	4682      	mov	sl, r0
    3b0c:	2800      	cmp	r0, #0
    3b0e:	d0e0      	beq.n	3ad2 <mbedtls_mpi_read_string+0xe2>
    3b10:	e7ad      	b.n	3a6e <mbedtls_mpi_read_string+0x7e>
    3b12:	f7ff fed8 	bl	38c6 <mbedtls_mpi_sub_int>
    3b16:	e7f8      	b.n	3b0a <mbedtls_mpi_read_string+0x11a>
/mnt/disk/raspbian-tee/optee_os/lib/libmbedtls/mbedtls/library/bignum.c:533
    3b18:	4682      	mov	sl, r0
    3b1a:	e7a8      	b.n	3a6e <mbedtls_mpi_read_string+0x7e>

00003b1c <mbedtls_mpi_div_mpi>:
mbedtls_mpi_div_mpi():
/mnt/disk/raspbian-tee/optee_os/lib/libmbedtls/mbedtls/library/bignum.c:1400
    3b1c:	e92d 4ff0 	stmdb	sp!, {r4, r5, r6, r7, r8, r9, sl, fp, lr}
    3b20:	4691      	mov	r9, r2
    3b22:	b09d      	sub	sp, #116	; 0x74
    3b24:	9003      	str	r0, [sp, #12]
/mnt/disk/raspbian-tee/optee_os/lib/libmbedtls/mbedtls/library/bignum.c:1405
    3b26:	4618      	mov	r0, r3
/mnt/disk/raspbian-tee/optee_os/lib/libmbedtls/mbedtls/library/bignum.c:1400
    3b28:	9101      	str	r1, [sp, #4]
/mnt/disk/raspbian-tee/optee_os/lib/libmbedtls/mbedtls/library/bignum.c:1405
    3b2a:	2100      	movs	r1, #0
/mnt/disk/raspbian-tee/optee_os/lib/libmbedtls/mbedtls/library/bignum.c:1400
    3b2c:	9306      	str	r3, [sp, #24]
/mnt/disk/raspbian-tee/optee_os/lib/libmbedtls/mbedtls/library/bignum.c:1405
    3b2e:	f7ff fdb2 	bl	3696 <mbedtls_mpi_cmp_int>
    3b32:	2800      	cmp	r0, #0
    3b34:	f000 81c0 	beq.w	3eb8 <mbedtls_mpi_div_mpi+0x39c>
/mnt/disk/raspbian-tee/optee_os/lib/libmbedtls/mbedtls/library/bignum.c:1408
    3b38:	ae0d      	add	r6, sp, #52	; 0x34
    3b3a:	ad10      	add	r5, sp, #64	; 0x40
    3b3c:	4630      	mov	r0, r6
/mnt/disk/raspbian-tee/optee_os/lib/libmbedtls/mbedtls/library/bignum.c:1409
    3b3e:	af13      	add	r7, sp, #76	; 0x4c
/mnt/disk/raspbian-tee/optee_os/lib/libmbedtls/mbedtls/library/bignum.c:1408
    3b40:	f7ff f9ff 	bl	2f42 <mbedtls_mpi_init_mempool>
    3b44:	4628      	mov	r0, r5
    3b46:	f7ff f9fc 	bl	2f42 <mbedtls_mpi_init_mempool>
/mnt/disk/raspbian-tee/optee_os/lib/libmbedtls/mbedtls/library/bignum.c:1409
    3b4a:	f10d 0a58 	add.w	sl, sp, #88	; 0x58
    3b4e:	4638      	mov	r0, r7
/mnt/disk/raspbian-tee/optee_os/lib/libmbedtls/mbedtls/library/bignum.c:1410
    3b50:	f10d 0864 	add.w	r8, sp, #100	; 0x64
/mnt/disk/raspbian-tee/optee_os/lib/libmbedtls/mbedtls/library/bignum.c:1409
    3b54:	f7ff f9f5 	bl	2f42 <mbedtls_mpi_init_mempool>
    3b58:	4650      	mov	r0, sl
    3b5a:	f7ff f9f2 	bl	2f42 <mbedtls_mpi_init_mempool>
/mnt/disk/raspbian-tee/optee_os/lib/libmbedtls/mbedtls/library/bignum.c:1410
    3b5e:	4640      	mov	r0, r8
    3b60:	f7ff f9ef 	bl	2f42 <mbedtls_mpi_init_mempool>
/mnt/disk/raspbian-tee/optee_os/lib/libmbedtls/mbedtls/library/bignum.c:1412
    3b64:	9906      	ldr	r1, [sp, #24]
    3b66:	4648      	mov	r0, r9
    3b68:	f7ff fd13 	bl	3592 <mbedtls_mpi_cmp_abs>
    3b6c:	2800      	cmp	r0, #0
    3b6e:	da27      	bge.n	3bc0 <mbedtls_mpi_div_mpi+0xa4>
/mnt/disk/raspbian-tee/optee_os/lib/libmbedtls/mbedtls/library/bignum.c:1414
    3b70:	9b03      	ldr	r3, [sp, #12]
    3b72:	b933      	cbnz	r3, 3b82 <mbedtls_mpi_div_mpi+0x66>
/mnt/disk/raspbian-tee/optee_os/lib/libmbedtls/mbedtls/library/bignum.c:1415
    3b74:	9b01      	ldr	r3, [sp, #4]
    3b76:	b9db      	cbnz	r3, 3bb0 <mbedtls_mpi_div_mpi+0x94>
/mnt/disk/raspbian-tee/optee_os/lib/libmbedtls/mbedtls/library/bignum.c:1416
    3b78:	2400      	movs	r4, #0
/mnt/disk/raspbian-tee/optee_os/lib/libmbedtls/mbedtls/library/bignum.c:1510
    3b7a:	4620      	mov	r0, r4
    3b7c:	b01d      	add	sp, #116	; 0x74
    3b7e:	e8bd 8ff0 	ldmia.w	sp!, {r4, r5, r6, r7, r8, r9, sl, fp, pc}
/mnt/disk/raspbian-tee/optee_os/lib/libmbedtls/mbedtls/library/bignum.c:1414 (discriminator 1)
    3b82:	2100      	movs	r1, #0
    3b84:	9803      	ldr	r0, [sp, #12]
    3b86:	f7ff fb94 	bl	32b2 <mbedtls_mpi_lset>
    3b8a:	4604      	mov	r4, r0
    3b8c:	2800      	cmp	r0, #0
    3b8e:	d0f1      	beq.n	3b74 <mbedtls_mpi_div_mpi+0x58>
/mnt/disk/raspbian-tee/optee_os/lib/libmbedtls/mbedtls/library/bignum.c:1506
    3b90:	a80d      	add	r0, sp, #52	; 0x34
    3b92:	f7ff f9f2 	bl	2f7a <mbedtls_mpi_free>
    3b96:	a810      	add	r0, sp, #64	; 0x40
    3b98:	f7ff f9ef 	bl	2f7a <mbedtls_mpi_free>
    3b9c:	a813      	add	r0, sp, #76	; 0x4c
    3b9e:	f7ff f9ec 	bl	2f7a <mbedtls_mpi_free>
/mnt/disk/raspbian-tee/optee_os/lib/libmbedtls/mbedtls/library/bignum.c:1507
    3ba2:	a816      	add	r0, sp, #88	; 0x58
    3ba4:	f7ff f9e9 	bl	2f7a <mbedtls_mpi_free>
    3ba8:	a819      	add	r0, sp, #100	; 0x64
    3baa:	f7ff f9e6 	bl	2f7a <mbedtls_mpi_free>
/mnt/disk/raspbian-tee/optee_os/lib/libmbedtls/mbedtls/library/bignum.c:1509
    3bae:	e7e4      	b.n	3b7a <mbedtls_mpi_div_mpi+0x5e>
/mnt/disk/raspbian-tee/optee_os/lib/libmbedtls/mbedtls/library/bignum.c:1415 (discriminator 1)
    3bb0:	4649      	mov	r1, r9
    3bb2:	9801      	ldr	r0, [sp, #4]
    3bb4:	f7ff fac2 	bl	313c <mbedtls_mpi_copy>
    3bb8:	4604      	mov	r4, r0
    3bba:	2800      	cmp	r0, #0
    3bbc:	d1e8      	bne.n	3b90 <mbedtls_mpi_div_mpi+0x74>
    3bbe:	e7db      	b.n	3b78 <mbedtls_mpi_div_mpi+0x5c>
/mnt/disk/raspbian-tee/optee_os/lib/libmbedtls/mbedtls/library/bignum.c:1419
    3bc0:	4649      	mov	r1, r9
    3bc2:	4630      	mov	r0, r6
    3bc4:	f7ff faba 	bl	313c <mbedtls_mpi_copy>
    3bc8:	4604      	mov	r4, r0
    3bca:	2800      	cmp	r0, #0
    3bcc:	d1e0      	bne.n	3b90 <mbedtls_mpi_div_mpi+0x74>
/mnt/disk/raspbian-tee/optee_os/lib/libmbedtls/mbedtls/library/bignum.c:1420
    3bce:	9906      	ldr	r1, [sp, #24]
    3bd0:	4628      	mov	r0, r5
    3bd2:	f7ff fab3 	bl	313c <mbedtls_mpi_copy>
    3bd6:	4604      	mov	r4, r0
    3bd8:	2800      	cmp	r0, #0
    3bda:	d1d9      	bne.n	3b90 <mbedtls_mpi_div_mpi+0x74>
/mnt/disk/raspbian-tee/optee_os/lib/libmbedtls/mbedtls/library/bignum.c:1423
    3bdc:	f8b9 1004 	ldrh.w	r1, [r9, #4]
    3be0:	4638      	mov	r0, r7
/mnt/disk/raspbian-tee/optee_os/lib/libmbedtls/mbedtls/library/bignum.c:1421
    3be2:	2301      	movs	r3, #1
    3be4:	f88d 3040 	strb.w	r3, [sp, #64]	; 0x40
/mnt/disk/raspbian-tee/optee_os/lib/libmbedtls/mbedtls/library/bignum.c:1423
    3be8:	3102      	adds	r1, #2
/mnt/disk/raspbian-tee/optee_os/lib/libmbedtls/mbedtls/library/bignum.c:1421
    3bea:	f88d 3034 	strb.w	r3, [sp, #52]	; 0x34
/mnt/disk/raspbian-tee/optee_os/lib/libmbedtls/mbedtls/library/bignum.c:1423
    3bee:	f7ff f9eb 	bl	2fc8 <mbedtls_mpi_grow>
    3bf2:	4604      	mov	r4, r0
    3bf4:	2800      	cmp	r0, #0
    3bf6:	d1cb      	bne.n	3b90 <mbedtls_mpi_div_mpi+0x74>
/mnt/disk/raspbian-tee/optee_os/lib/libmbedtls/mbedtls/library/bignum.c:1424
    3bf8:	4601      	mov	r1, r0
    3bfa:	4638      	mov	r0, r7
    3bfc:	f7ff fb59 	bl	32b2 <mbedtls_mpi_lset>
    3c00:	4604      	mov	r4, r0
    3c02:	2800      	cmp	r0, #0
    3c04:	d1c4      	bne.n	3b90 <mbedtls_mpi_div_mpi+0x74>
/mnt/disk/raspbian-tee/optee_os/lib/libmbedtls/mbedtls/library/bignum.c:1425
    3c06:	2102      	movs	r1, #2
    3c08:	4650      	mov	r0, sl
    3c0a:	f7ff f9dd 	bl	2fc8 <mbedtls_mpi_grow>
    3c0e:	4604      	mov	r4, r0
    3c10:	2800      	cmp	r0, #0
    3c12:	d1bd      	bne.n	3b90 <mbedtls_mpi_div_mpi+0x74>
/mnt/disk/raspbian-tee/optee_os/lib/libmbedtls/mbedtls/library/bignum.c:1426
    3c14:	2103      	movs	r1, #3
    3c16:	4640      	mov	r0, r8
    3c18:	f7ff f9d6 	bl	2fc8 <mbedtls_mpi_grow>
    3c1c:	4604      	mov	r4, r0
    3c1e:	2800      	cmp	r0, #0
    3c20:	d1b6      	bne.n	3b90 <mbedtls_mpi_div_mpi+0x74>
/mnt/disk/raspbian-tee/optee_os/lib/libmbedtls/mbedtls/library/bignum.c:1428
    3c22:	4628      	mov	r0, r5
    3c24:	f7ff fbb0 	bl	3388 <mbedtls_mpi_bitlen>
    3c28:	f000 001f 	and.w	r0, r0, #31
/mnt/disk/raspbian-tee/optee_os/lib/libmbedtls/mbedtls/library/bignum.c:1429
    3c2c:	281f      	cmp	r0, #31
    3c2e:	d07f      	beq.n	3d30 <mbedtls_mpi_div_mpi+0x214>
/mnt/disk/raspbian-tee/optee_os/lib/libmbedtls/mbedtls/library/bignum.c:1431
    3c30:	f1c0 031f 	rsb	r3, r0, #31
/mnt/disk/raspbian-tee/optee_os/lib/libmbedtls/mbedtls/library/bignum.c:1432
    3c34:	4630      	mov	r0, r6
    3c36:	4619      	mov	r1, r3
/mnt/disk/raspbian-tee/optee_os/lib/libmbedtls/mbedtls/library/bignum.c:1431
    3c38:	9304      	str	r3, [sp, #16]
/mnt/disk/raspbian-tee/optee_os/lib/libmbedtls/mbedtls/library/bignum.c:1432
    3c3a:	f7ff fc22 	bl	3482 <mbedtls_mpi_shift_l>
    3c3e:	4604      	mov	r4, r0
    3c40:	2800      	cmp	r0, #0
    3c42:	d1a5      	bne.n	3b90 <mbedtls_mpi_div_mpi+0x74>
/mnt/disk/raspbian-tee/optee_os/lib/libmbedtls/mbedtls/library/bignum.c:1433
    3c44:	9904      	ldr	r1, [sp, #16]
    3c46:	4628      	mov	r0, r5
    3c48:	f7ff fc1b 	bl	3482 <mbedtls_mpi_shift_l>
    3c4c:	4604      	mov	r4, r0
    3c4e:	2800      	cmp	r0, #0
    3c50:	d19e      	bne.n	3b90 <mbedtls_mpi_div_mpi+0x74>
/mnt/disk/raspbian-tee/optee_os/lib/libmbedtls/mbedtls/library/bignum.c:1437
    3c52:	f8bd 6038 	ldrh.w	r6, [sp, #56]	; 0x38
/mnt/disk/raspbian-tee/optee_os/lib/libmbedtls/mbedtls/library/bignum.c:1439
    3c56:	4628      	mov	r0, r5
/mnt/disk/raspbian-tee/optee_os/lib/libmbedtls/mbedtls/library/bignum.c:1438
    3c58:	f8bd 7044 	ldrh.w	r7, [sp, #68]	; 0x44
/mnt/disk/raspbian-tee/optee_os/lib/libmbedtls/mbedtls/library/bignum.c:1437
    3c5c:	f106 38ff 	add.w	r8, r6, #4294967295	; 0xffffffff
/mnt/disk/raspbian-tee/optee_os/lib/libmbedtls/mbedtls/library/bignum.c:1438
    3c60:	1e7b      	subs	r3, r7, #1
    3c62:	9302      	str	r3, [sp, #8]
/mnt/disk/raspbian-tee/optee_os/lib/libmbedtls/mbedtls/library/bignum.c:1439
    3c64:	eba8 0b03 	sub.w	fp, r8, r3
    3c68:	ea4f 134b 	mov.w	r3, fp, lsl #5
    3c6c:	9305      	str	r3, [sp, #20]
    3c6e:	4619      	mov	r1, r3
    3c70:	f7ff fc07 	bl	3482 <mbedtls_mpi_shift_l>
    3c74:	4604      	mov	r4, r0
    3c76:	2800      	cmp	r0, #0
    3c78:	d18a      	bne.n	3b90 <mbedtls_mpi_div_mpi+0x74>
/mnt/disk/raspbian-tee/optee_os/lib/libmbedtls/mbedtls/library/bignum.c:1443
    3c7a:	ea4f 0b8b 	mov.w	fp, fp, lsl #2
/mnt/disk/raspbian-tee/optee_os/lib/libmbedtls/mbedtls/library/bignum.c:1441
    3c7e:	f10d 0a34 	add.w	sl, sp, #52	; 0x34
    3c82:	4629      	mov	r1, r5
    3c84:	4650      	mov	r0, sl
    3c86:	f7ff fcbb 	bl	3600 <mbedtls_mpi_cmp_mpi>
    3c8a:	2800      	cmp	r0, #0
    3c8c:	da52      	bge.n	3d34 <mbedtls_mpi_div_mpi+0x218>
/mnt/disk/raspbian-tee/optee_os/lib/libmbedtls/mbedtls/library/bignum.c:1446
    3c8e:	9905      	ldr	r1, [sp, #20]
    3c90:	4628      	mov	r0, r5
    3c92:	f7ff fc42 	bl	351a <mbedtls_mpi_shift_r>
    3c96:	4604      	mov	r4, r0
    3c98:	2800      	cmp	r0, #0
    3c9a:	f47f af79 	bne.w	3b90 <mbedtls_mpi_div_mpi+0x74>
/mnt/disk/raspbian-tee/optee_os/lib/libmbedtls/mbedtls/library/bignum.c:1450
    3c9e:	9b02      	ldr	r3, [sp, #8]
    3ca0:	f106 4580 	add.w	r5, r6, #1073741824	; 0x40000000
    3ca4:	3d01      	subs	r5, #1
    3ca6:	1bed      	subs	r5, r5, r7
    3ca8:	009b      	lsls	r3, r3, #2
    3caa:	9307      	str	r3, [sp, #28]
/mnt/disk/raspbian-tee/optee_os/lib/libmbedtls/mbedtls/library/bignum.c:1464
    3cac:	3b04      	subs	r3, #4
    3cae:	930b      	str	r3, [sp, #44]	; 0x2c
    3cb0:	f106 6300 	add.w	r3, r6, #134217728	; 0x8000000
    3cb4:	f106 4680 	add.w	r6, r6, #1073741824	; 0x40000000
    3cb8:	3b01      	subs	r3, #1
    3cba:	3e02      	subs	r6, #2
    3cbc:	1bdf      	subs	r7, r3, r7
    3cbe:	00ad      	lsls	r5, r5, #2
    3cc0:	00b6      	lsls	r6, r6, #2
    3cc2:	017b      	lsls	r3, r7, #5
    3cc4:	9305      	str	r3, [sp, #20]
/mnt/disk/raspbian-tee/optee_os/lib/libmbedtls/mbedtls/library/bignum.c:1468
    3cc6:	ab19      	add	r3, sp, #100	; 0x64
    3cc8:	930a      	str	r3, [sp, #40]	; 0x28
/mnt/disk/raspbian-tee/optee_os/lib/libmbedtls/mbedtls/library/bignum.c:1448 (discriminator 1)
    3cca:	9b02      	ldr	r3, [sp, #8]
    3ccc:	4598      	cmp	r8, r3
    3cce:	d840      	bhi.n	3d52 <mbedtls_mpi_div_mpi+0x236>
/mnt/disk/raspbian-tee/optee_os/lib/libmbedtls/mbedtls/library/bignum.c:1488
    3cd0:	9b03      	ldr	r3, [sp, #12]
    3cd2:	b163      	cbz	r3, 3cee <mbedtls_mpi_div_mpi+0x1d2>
/mnt/disk/raspbian-tee/optee_os/lib/libmbedtls/mbedtls/library/bignum.c:1490
    3cd4:	a913      	add	r1, sp, #76	; 0x4c
    3cd6:	4618      	mov	r0, r3
    3cd8:	f7ff fa30 	bl	313c <mbedtls_mpi_copy>
    3cdc:	bb30      	cbnz	r0, 3d2c <mbedtls_mpi_div_mpi+0x210>
/mnt/disk/raspbian-tee/optee_os/lib/libmbedtls/mbedtls/library/bignum.c:1491
    3cde:	9a06      	ldr	r2, [sp, #24]
    3ce0:	f899 3000 	ldrb.w	r3, [r9]
    3ce4:	7812      	ldrb	r2, [r2, #0]
    3ce6:	fb13 f302 	smulbb	r3, r3, r2
    3cea:	9a03      	ldr	r2, [sp, #12]
    3cec:	7013      	strb	r3, [r2, #0]
/mnt/disk/raspbian-tee/optee_os/lib/libmbedtls/mbedtls/library/bignum.c:1494
    3cee:	9b01      	ldr	r3, [sp, #4]
    3cf0:	2b00      	cmp	r3, #0
    3cf2:	f43f af4d 	beq.w	3b90 <mbedtls_mpi_div_mpi+0x74>
/mnt/disk/raspbian-tee/optee_os/lib/libmbedtls/mbedtls/library/bignum.c:1496
    3cf6:	ad0d      	add	r5, sp, #52	; 0x34
    3cf8:	9904      	ldr	r1, [sp, #16]
    3cfa:	4628      	mov	r0, r5
    3cfc:	f7ff fc0d 	bl	351a <mbedtls_mpi_shift_r>
    3d00:	b9a0      	cbnz	r0, 3d2c <mbedtls_mpi_div_mpi+0x210>
/mnt/disk/raspbian-tee/optee_os/lib/libmbedtls/mbedtls/library/bignum.c:1497
    3d02:	f899 3000 	ldrb.w	r3, [r9]
/mnt/disk/raspbian-tee/optee_os/lib/libmbedtls/mbedtls/library/bignum.c:1498
    3d06:	4629      	mov	r1, r5
    3d08:	9801      	ldr	r0, [sp, #4]
/mnt/disk/raspbian-tee/optee_os/lib/libmbedtls/mbedtls/library/bignum.c:1497
    3d0a:	f88d 3034 	strb.w	r3, [sp, #52]	; 0x34
/mnt/disk/raspbian-tee/optee_os/lib/libmbedtls/mbedtls/library/bignum.c:1498
    3d0e:	f7ff fa15 	bl	313c <mbedtls_mpi_copy>
    3d12:	4601      	mov	r1, r0
    3d14:	2800      	cmp	r0, #0
    3d16:	f040 80cd 	bne.w	3eb4 <mbedtls_mpi_div_mpi+0x398>
/mnt/disk/raspbian-tee/optee_os/lib/libmbedtls/mbedtls/library/bignum.c:1500
    3d1a:	9801      	ldr	r0, [sp, #4]
    3d1c:	f7ff fcbb 	bl	3696 <mbedtls_mpi_cmp_int>
    3d20:	2800      	cmp	r0, #0
    3d22:	f47f af35 	bne.w	3b90 <mbedtls_mpi_div_mpi+0x74>
/mnt/disk/raspbian-tee/optee_os/lib/libmbedtls/mbedtls/library/bignum.c:1501
    3d26:	9a01      	ldr	r2, [sp, #4]
    3d28:	2301      	movs	r3, #1
    3d2a:	7013      	strb	r3, [r2, #0]
    3d2c:	4604      	mov	r4, r0
    3d2e:	e72f      	b.n	3b90 <mbedtls_mpi_div_mpi+0x74>
/mnt/disk/raspbian-tee/optee_os/lib/libmbedtls/mbedtls/library/bignum.c:1435
    3d30:	9404      	str	r4, [sp, #16]
    3d32:	e78e      	b.n	3c52 <mbedtls_mpi_div_mpi+0x136>
/mnt/disk/raspbian-tee/optee_os/lib/libmbedtls/mbedtls/library/bignum.c:1443
    3d34:	9915      	ldr	r1, [sp, #84]	; 0x54
/mnt/disk/raspbian-tee/optee_os/lib/libmbedtls/mbedtls/library/bignum.c:1444
    3d36:	4650      	mov	r0, sl
/mnt/disk/raspbian-tee/optee_os/lib/libmbedtls/mbedtls/library/bignum.c:1443
    3d38:	f851 200b 	ldr.w	r2, [r1, fp]
    3d3c:	3201      	adds	r2, #1
    3d3e:	f841 200b 	str.w	r2, [r1, fp]
/mnt/disk/raspbian-tee/optee_os/lib/libmbedtls/mbedtls/library/bignum.c:1444
    3d42:	462a      	mov	r2, r5
    3d44:	4651      	mov	r1, sl
    3d46:	f7ff fd80 	bl	384a <mbedtls_mpi_sub_mpi>
    3d4a:	4604      	mov	r4, r0
    3d4c:	2800      	cmp	r0, #0
    3d4e:	d098      	beq.n	3c82 <mbedtls_mpi_div_mpi+0x166>
    3d50:	e71e      	b.n	3b90 <mbedtls_mpi_div_mpi+0x74>
/mnt/disk/raspbian-tee/optee_os/lib/libmbedtls/mbedtls/library/bignum.c:1450
    3d52:	990f      	ldr	r1, [sp, #60]	; 0x3c
    3d54:	f106 0a04 	add.w	sl, r6, #4
    3d58:	9a12      	ldr	r2, [sp, #72]	; 0x48
    3d5a:	9807      	ldr	r0, [sp, #28]
    3d5c:	f851 300a 	ldr.w	r3, [r1, sl]
    3d60:	9f15      	ldr	r7, [sp, #84]	; 0x54
    3d62:	5812      	ldr	r2, [r2, r0]
    3d64:	4293      	cmp	r3, r2
    3d66:	f0c0 8086 	bcc.w	3e76 <mbedtls_mpi_div_mpi+0x35a>
/mnt/disk/raspbian-tee/optee_os/lib/libmbedtls/mbedtls/library/bignum.c:1451
    3d6a:	f04f 33ff 	mov.w	r3, #4294967295	; 0xffffffff
    3d6e:	517b      	str	r3, [r7, r5]
/mnt/disk/raspbian-tee/optee_os/lib/libmbedtls/mbedtls/library/bignum.c:1458
    3d70:	9a15      	ldr	r2, [sp, #84]	; 0x54
/mnt/disk/raspbian-tee/optee_os/lib/libmbedtls/mbedtls/library/bignum.c:1469
    3d72:	f1a6 0b04 	sub.w	fp, r6, #4
/mnt/disk/raspbian-tee/optee_os/lib/libmbedtls/mbedtls/library/bignum.c:1463
    3d76:	af16      	add	r7, sp, #88	; 0x58
/mnt/disk/raspbian-tee/optee_os/lib/libmbedtls/mbedtls/library/bignum.c:1458
    3d78:	5953      	ldr	r3, [r2, r5]
    3d7a:	3301      	adds	r3, #1
    3d7c:	5153      	str	r3, [r2, r5]
/mnt/disk/raspbian-tee/optee_os/lib/libmbedtls/mbedtls/library/bignum.c:1461
    3d7e:	9a15      	ldr	r2, [sp, #84]	; 0x54
/mnt/disk/raspbian-tee/optee_os/lib/libmbedtls/mbedtls/library/bignum.c:1463
    3d80:	2100      	movs	r1, #0
    3d82:	4638      	mov	r0, r7
/mnt/disk/raspbian-tee/optee_os/lib/libmbedtls/mbedtls/library/bignum.c:1461
    3d84:	5953      	ldr	r3, [r2, r5]
    3d86:	3b01      	subs	r3, #1
    3d88:	5153      	str	r3, [r2, r5]
/mnt/disk/raspbian-tee/optee_os/lib/libmbedtls/mbedtls/library/bignum.c:1463
    3d8a:	f7ff fa92 	bl	32b2 <mbedtls_mpi_lset>
    3d8e:	2800      	cmp	r0, #0
    3d90:	d1cc      	bne.n	3d2c <mbedtls_mpi_div_mpi+0x210>
/mnt/disk/raspbian-tee/optee_os/lib/libmbedtls/mbedtls/library/bignum.c:1464
    3d92:	9902      	ldr	r1, [sp, #8]
    3d94:	9b18      	ldr	r3, [sp, #96]	; 0x60
    3d96:	9a12      	ldr	r2, [sp, #72]	; 0x48
    3d98:	2900      	cmp	r1, #0
    3d9a:	f000 8087 	beq.w	3eac <mbedtls_mpi_div_mpi+0x390>
/mnt/disk/raspbian-tee/optee_os/lib/libmbedtls/mbedtls/library/bignum.c:1464 (discriminator 1)
    3d9e:	990b      	ldr	r1, [sp, #44]	; 0x2c
    3da0:	5851      	ldr	r1, [r2, r1]
/mnt/disk/raspbian-tee/optee_os/lib/libmbedtls/mbedtls/library/bignum.c:1464 (discriminator 4)
    3da2:	6019      	str	r1, [r3, #0]
/mnt/disk/raspbian-tee/optee_os/lib/libmbedtls/mbedtls/library/bignum.c:1466 (discriminator 4)
    3da4:	4638      	mov	r0, r7
/mnt/disk/raspbian-tee/optee_os/lib/libmbedtls/mbedtls/library/bignum.c:1465 (discriminator 4)
    3da6:	9907      	ldr	r1, [sp, #28]
    3da8:	5852      	ldr	r2, [r2, r1]
/mnt/disk/raspbian-tee/optee_os/lib/libmbedtls/mbedtls/library/bignum.c:1466 (discriminator 4)
    3daa:	4639      	mov	r1, r7
/mnt/disk/raspbian-tee/optee_os/lib/libmbedtls/mbedtls/library/bignum.c:1465 (discriminator 4)
    3dac:	605a      	str	r2, [r3, #4]
/mnt/disk/raspbian-tee/optee_os/lib/libmbedtls/mbedtls/library/bignum.c:1466 (discriminator 4)
    3dae:	9b15      	ldr	r3, [sp, #84]	; 0x54
    3db0:	595a      	ldr	r2, [r3, r5]
    3db2:	f7ff fe0e 	bl	39d2 <mbedtls_mpi_mul_int>
    3db6:	4601      	mov	r1, r0
    3db8:	2800      	cmp	r0, #0
    3dba:	d17b      	bne.n	3eb4 <mbedtls_mpi_div_mpi+0x398>
/mnt/disk/raspbian-tee/optee_os/lib/libmbedtls/mbedtls/library/bignum.c:1468
    3dbc:	980a      	ldr	r0, [sp, #40]	; 0x28
    3dbe:	f7ff fa78 	bl	32b2 <mbedtls_mpi_lset>
    3dc2:	2800      	cmp	r0, #0
    3dc4:	d1b2      	bne.n	3d2c <mbedtls_mpi_div_mpi+0x210>
/mnt/disk/raspbian-tee/optee_os/lib/libmbedtls/mbedtls/library/bignum.c:1469
    3dc6:	9b1b      	ldr	r3, [sp, #108]	; 0x6c
    3dc8:	f1b8 0f01 	cmp.w	r8, #1
    3dcc:	d902      	bls.n	3dd4 <mbedtls_mpi_div_mpi+0x2b8>
/mnt/disk/raspbian-tee/optee_os/lib/libmbedtls/mbedtls/library/bignum.c:1469 (discriminator 1)
    3dce:	9a0f      	ldr	r2, [sp, #60]	; 0x3c
    3dd0:	f852 000b 	ldr.w	r0, [r2, fp]
/mnt/disk/raspbian-tee/optee_os/lib/libmbedtls/mbedtls/library/bignum.c:1469 (discriminator 4)
    3dd4:	6018      	str	r0, [r3, #0]
    3dd6:	9a0f      	ldr	r2, [sp, #60]	; 0x3c
/mnt/disk/raspbian-tee/optee_os/lib/libmbedtls/mbedtls/library/bignum.c:1470 (discriminator 4)
    3dd8:	f1b8 0f00 	cmp.w	r8, #0
    3ddc:	d068      	beq.n	3eb0 <mbedtls_mpi_div_mpi+0x394>
/mnt/disk/raspbian-tee/optee_os/lib/libmbedtls/mbedtls/library/bignum.c:1470 (discriminator 1)
    3dde:	5991      	ldr	r1, [r2, r6]
/mnt/disk/raspbian-tee/optee_os/lib/libmbedtls/mbedtls/library/bignum.c:1470 (discriminator 4)
    3de0:	6059      	str	r1, [r3, #4]
/mnt/disk/raspbian-tee/optee_os/lib/libmbedtls/mbedtls/library/bignum.c:1473 (discriminator 4)
    3de2:	4638      	mov	r0, r7
    3de4:	990a      	ldr	r1, [sp, #40]	; 0x28
/mnt/disk/raspbian-tee/optee_os/lib/libmbedtls/mbedtls/library/bignum.c:1471 (discriminator 4)
    3de6:	f852 200a 	ldr.w	r2, [r2, sl]
    3dea:	609a      	str	r2, [r3, #8]
/mnt/disk/raspbian-tee/optee_os/lib/libmbedtls/mbedtls/library/bignum.c:1473 (discriminator 4)
    3dec:	f7ff fc08 	bl	3600 <mbedtls_mpi_cmp_mpi>
    3df0:	2800      	cmp	r0, #0
    3df2:	dcc4      	bgt.n	3d7e <mbedtls_mpi_div_mpi+0x262>
/mnt/disk/raspbian-tee/optee_os/lib/libmbedtls/mbedtls/library/bignum.c:1475
    3df4:	9b15      	ldr	r3, [sp, #84]	; 0x54
    3df6:	f10d 0b40 	add.w	fp, sp, #64	; 0x40
    3dfa:	4659      	mov	r1, fp
    3dfc:	4638      	mov	r0, r7
    3dfe:	595a      	ldr	r2, [r3, r5]
    3e00:	f7ff fde7 	bl	39d2 <mbedtls_mpi_mul_int>
    3e04:	2800      	cmp	r0, #0
    3e06:	d191      	bne.n	3d2c <mbedtls_mpi_div_mpi+0x210>
/mnt/disk/raspbian-tee/optee_os/lib/libmbedtls/mbedtls/library/bignum.c:1476
    3e08:	9905      	ldr	r1, [sp, #20]
    3e0a:	4638      	mov	r0, r7
    3e0c:	f7ff fb39 	bl	3482 <mbedtls_mpi_shift_l>
    3e10:	2800      	cmp	r0, #0
    3e12:	d18b      	bne.n	3d2c <mbedtls_mpi_div_mpi+0x210>
/mnt/disk/raspbian-tee/optee_os/lib/libmbedtls/mbedtls/library/bignum.c:1477
    3e14:	f10d 0a34 	add.w	sl, sp, #52	; 0x34
    3e18:	463a      	mov	r2, r7
    3e1a:	4651      	mov	r1, sl
    3e1c:	4650      	mov	r0, sl
    3e1e:	f7ff fd14 	bl	384a <mbedtls_mpi_sub_mpi>
    3e22:	4601      	mov	r1, r0
    3e24:	2800      	cmp	r0, #0
    3e26:	d145      	bne.n	3eb4 <mbedtls_mpi_div_mpi+0x398>
/mnt/disk/raspbian-tee/optee_os/lib/libmbedtls/mbedtls/library/bignum.c:1479
    3e28:	4650      	mov	r0, sl
    3e2a:	f7ff fc34 	bl	3696 <mbedtls_mpi_cmp_int>
    3e2e:	2800      	cmp	r0, #0
    3e30:	da19      	bge.n	3e66 <mbedtls_mpi_div_mpi+0x34a>
/mnt/disk/raspbian-tee/optee_os/lib/libmbedtls/mbedtls/library/bignum.c:1481
    3e32:	4659      	mov	r1, fp
    3e34:	4638      	mov	r0, r7
    3e36:	f7ff f981 	bl	313c <mbedtls_mpi_copy>
    3e3a:	2800      	cmp	r0, #0
    3e3c:	f47f af76 	bne.w	3d2c <mbedtls_mpi_div_mpi+0x210>
/mnt/disk/raspbian-tee/optee_os/lib/libmbedtls/mbedtls/library/bignum.c:1482
    3e40:	9905      	ldr	r1, [sp, #20]
    3e42:	4638      	mov	r0, r7
    3e44:	f7ff fb1d 	bl	3482 <mbedtls_mpi_shift_l>
    3e48:	2800      	cmp	r0, #0
    3e4a:	f47f af6f 	bne.w	3d2c <mbedtls_mpi_div_mpi+0x210>
/mnt/disk/raspbian-tee/optee_os/lib/libmbedtls/mbedtls/library/bignum.c:1483
    3e4e:	463a      	mov	r2, r7
    3e50:	4651      	mov	r1, sl
    3e52:	4650      	mov	r0, sl
    3e54:	f7ff fcd5 	bl	3802 <mbedtls_mpi_add_mpi>
    3e58:	2800      	cmp	r0, #0
    3e5a:	f47f af67 	bne.w	3d2c <mbedtls_mpi_div_mpi+0x210>
/mnt/disk/raspbian-tee/optee_os/lib/libmbedtls/mbedtls/library/bignum.c:1484
    3e5e:	9a15      	ldr	r2, [sp, #84]	; 0x54
    3e60:	5953      	ldr	r3, [r2, r5]
    3e62:	3b01      	subs	r3, #1
    3e64:	5153      	str	r3, [r2, r5]
    3e66:	9b05      	ldr	r3, [sp, #20]
/mnt/disk/raspbian-tee/optee_os/lib/libmbedtls/mbedtls/library/bignum.c:1448 (discriminator 2)
    3e68:	f108 38ff 	add.w	r8, r8, #4294967295	; 0xffffffff
    3e6c:	3d04      	subs	r5, #4
    3e6e:	3e04      	subs	r6, #4
    3e70:	3b20      	subs	r3, #32
    3e72:	9305      	str	r3, [sp, #20]
    3e74:	e729      	b.n	3cca <mbedtls_mpi_div_mpi+0x1ae>
/mnt/disk/raspbian-tee/optee_os/lib/libmbedtls/mbedtls/library/bignum.c:1454
    3e76:	442f      	add	r7, r5
    3e78:	5988      	ldr	r0, [r1, r6]
mbedtls_int_div_int():
/mnt/disk/raspbian-tee/optee_os/lib/libmbedtls/mbedtls/library/bignum.c:1320
    3e7a:	b1a2      	cbz	r2, 3ea6 <mbedtls_mpi_div_mpi+0x38a>
/mnt/disk/raspbian-tee/optee_os/lib/libmbedtls/mbedtls/library/bignum.c:1328
    3e7c:	9309      	str	r3, [sp, #36]	; 0x24
    3e7e:	2300      	movs	r3, #0
    3e80:	9308      	str	r3, [sp, #32]
/mnt/disk/raspbian-tee/optee_os/lib/libmbedtls/mbedtls/library/bignum.c:1330
    3e82:	e9dd bc08 	ldrd	fp, ip, [sp, #32]
    3e86:	ea4b 0b00 	orr.w	fp, fp, r0
    3e8a:	4658      	mov	r0, fp
    3e8c:	4661      	mov	r1, ip
    3e8e:	f7fd e84a 	blx	f24 <__aeabi_uldivmod>
    3e92:	2300      	movs	r3, #0
    3e94:	f04f 32ff 	mov.w	r2, #4294967295	; 0xffffffff
    3e98:	428b      	cmp	r3, r1
    3e9a:	bf08      	it	eq
    3e9c:	4282      	cmpeq	r2, r0
    3e9e:	d200      	bcs.n	3ea2 <mbedtls_mpi_div_mpi+0x386>
    3ea0:	4610      	mov	r0, r2
mbedtls_mpi_div_mpi():
/mnt/disk/raspbian-tee/optee_os/lib/libmbedtls/mbedtls/library/bignum.c:1454
    3ea2:	6038      	str	r0, [r7, #0]
    3ea4:	e764      	b.n	3d70 <mbedtls_mpi_div_mpi+0x254>
mbedtls_int_div_int():
/mnt/disk/raspbian-tee/optee_os/lib/libmbedtls/mbedtls/library/bignum.c:1320
    3ea6:	f04f 30ff 	mov.w	r0, #4294967295	; 0xffffffff
    3eaa:	e7fa      	b.n	3ea2 <mbedtls_mpi_div_mpi+0x386>
mbedtls_mpi_div_mpi():
/mnt/disk/raspbian-tee/optee_os/lib/libmbedtls/mbedtls/library/bignum.c:1464
    3eac:	9902      	ldr	r1, [sp, #8]
    3eae:	e778      	b.n	3da2 <mbedtls_mpi_div_mpi+0x286>
/mnt/disk/raspbian-tee/optee_os/lib/libmbedtls/mbedtls/library/bignum.c:1470
    3eb0:	4641      	mov	r1, r8
    3eb2:	e795      	b.n	3de0 <mbedtls_mpi_div_mpi+0x2c4>
    3eb4:	460c      	mov	r4, r1
    3eb6:	e66b      	b.n	3b90 <mbedtls_mpi_div_mpi+0x74>
/mnt/disk/raspbian-tee/optee_os/lib/libmbedtls/mbedtls/library/bignum.c:1406
    3eb8:	f06f 040b 	mvn.w	r4, #11
    3ebc:	e65d      	b.n	3b7a <mbedtls_mpi_div_mpi+0x5e>

00003ebe <mbedtls_mpi_div_int>:
mbedtls_mpi_div_int():
/mnt/disk/raspbian-tee/optee_os/lib/libmbedtls/mbedtls/library/bignum.c:1516
    3ebe:	b51f      	push	{r0, r1, r2, r3, r4, lr}
/mnt/disk/raspbian-tee/optee_os/lib/libmbedtls/mbedtls/library/bignum.c:1521
    3ec0:	2b00      	cmp	r3, #0
/mnt/disk/raspbian-tee/optee_os/lib/libmbedtls/mbedtls/library/bignum.c:1520
    3ec2:	ea83 74e3 	eor.w	r4, r3, r3, asr #31
    3ec6:	eba4 74e3 	sub.w	r4, r4, r3, asr #31
/mnt/disk/raspbian-tee/optee_os/lib/libmbedtls/mbedtls/library/bignum.c:1521
    3eca:	f04f 33ff 	mov.w	r3, #4294967295	; 0xffffffff
    3ece:	bfa8      	it	ge
    3ed0:	2301      	movge	r3, #1
    3ed2:	f88d 3004 	strb.w	r3, [sp, #4]
/mnt/disk/raspbian-tee/optee_os/lib/libmbedtls/mbedtls/library/bignum.c:1522
    3ed6:	2301      	movs	r3, #1
    3ed8:	f8ad 3008 	strh.w	r3, [sp, #8]
/mnt/disk/raspbian-tee/optee_os/lib/libmbedtls/mbedtls/library/bignum.c:1525
    3edc:	ab01      	add	r3, sp, #4
/mnt/disk/raspbian-tee/optee_os/lib/libmbedtls/mbedtls/library/bignum.c:1520
    3ede:	9400      	str	r4, [sp, #0]
/mnt/disk/raspbian-tee/optee_os/lib/libmbedtls/mbedtls/library/bignum.c:1523
    3ee0:	f8cd d00c 	str.w	sp, [sp, #12]
/mnt/disk/raspbian-tee/optee_os/lib/libmbedtls/mbedtls/library/bignum.c:1525
    3ee4:	f7ff fe1a 	bl	3b1c <mbedtls_mpi_div_mpi>
/mnt/disk/raspbian-tee/optee_os/lib/libmbedtls/mbedtls/library/bignum.c:1526
    3ee8:	b004      	add	sp, #16
    3eea:	bd10      	pop	{r4, pc}

00003eec <mbedtls_mpi_mod_mpi>:
mbedtls_mpi_mod_mpi():
/mnt/disk/raspbian-tee/optee_os/lib/libmbedtls/mbedtls/library/bignum.c:1532
    3eec:	b570      	push	{r4, r5, r6, lr}
    3eee:	4604      	mov	r4, r0
    3ef0:	460d      	mov	r5, r1
/mnt/disk/raspbian-tee/optee_os/lib/libmbedtls/mbedtls/library/bignum.c:1535
    3ef2:	4610      	mov	r0, r2
    3ef4:	2100      	movs	r1, #0
/mnt/disk/raspbian-tee/optee_os/lib/libmbedtls/mbedtls/library/bignum.c:1532
    3ef6:	4616      	mov	r6, r2
/mnt/disk/raspbian-tee/optee_os/lib/libmbedtls/mbedtls/library/bignum.c:1535
    3ef8:	f7ff fbcd 	bl	3696 <mbedtls_mpi_cmp_int>
    3efc:	2800      	cmp	r0, #0
    3efe:	db24      	blt.n	3f4a <mbedtls_mpi_mod_mpi+0x5e>
/mnt/disk/raspbian-tee/optee_os/lib/libmbedtls/mbedtls/library/bignum.c:1538
    3f00:	462a      	mov	r2, r5
    3f02:	4633      	mov	r3, r6
    3f04:	4621      	mov	r1, r4
    3f06:	2000      	movs	r0, #0
    3f08:	f7ff fe08 	bl	3b1c <mbedtls_mpi_div_mpi>
    3f0c:	4605      	mov	r5, r0
    3f0e:	b138      	cbz	r0, 3f20 <mbedtls_mpi_mod_mpi+0x34>
/mnt/disk/raspbian-tee/optee_os/lib/libmbedtls/mbedtls/library/bignum.c:1549
    3f10:	4628      	mov	r0, r5
    3f12:	bd70      	pop	{r4, r5, r6, pc}
/mnt/disk/raspbian-tee/optee_os/lib/libmbedtls/mbedtls/library/bignum.c:1541
    3f14:	4632      	mov	r2, r6
    3f16:	4621      	mov	r1, r4
    3f18:	4620      	mov	r0, r4
    3f1a:	f7ff fc72 	bl	3802 <mbedtls_mpi_add_mpi>
    3f1e:	b990      	cbnz	r0, 3f46 <mbedtls_mpi_mod_mpi+0x5a>
/mnt/disk/raspbian-tee/optee_os/lib/libmbedtls/mbedtls/library/bignum.c:1540
    3f20:	2100      	movs	r1, #0
    3f22:	4620      	mov	r0, r4
    3f24:	f7ff fbb7 	bl	3696 <mbedtls_mpi_cmp_int>
    3f28:	2800      	cmp	r0, #0
    3f2a:	dbf3      	blt.n	3f14 <mbedtls_mpi_mod_mpi+0x28>
/mnt/disk/raspbian-tee/optee_os/lib/libmbedtls/mbedtls/library/bignum.c:1543
    3f2c:	4631      	mov	r1, r6
    3f2e:	4620      	mov	r0, r4
    3f30:	f7ff fb66 	bl	3600 <mbedtls_mpi_cmp_mpi>
    3f34:	2800      	cmp	r0, #0
    3f36:	dbeb      	blt.n	3f10 <mbedtls_mpi_mod_mpi+0x24>
/mnt/disk/raspbian-tee/optee_os/lib/libmbedtls/mbedtls/library/bignum.c:1544
    3f38:	4632      	mov	r2, r6
    3f3a:	4621      	mov	r1, r4
    3f3c:	4620      	mov	r0, r4
    3f3e:	f7ff fc84 	bl	384a <mbedtls_mpi_sub_mpi>
    3f42:	2800      	cmp	r0, #0
    3f44:	d0f2      	beq.n	3f2c <mbedtls_mpi_mod_mpi+0x40>
    3f46:	4605      	mov	r5, r0
    3f48:	e7e2      	b.n	3f10 <mbedtls_mpi_mod_mpi+0x24>
/mnt/disk/raspbian-tee/optee_os/lib/libmbedtls/mbedtls/library/bignum.c:1536
    3f4a:	f06f 0509 	mvn.w	r5, #9
    3f4e:	e7df      	b.n	3f10 <mbedtls_mpi_mod_mpi+0x24>

00003f50 <mbedtls_mpi_mod_int>:
mbedtls_mpi_mod_int():
/mnt/disk/raspbian-tee/optee_os/lib/libmbedtls/mbedtls/library/bignum.c:1555
    3f50:	b430      	push	{r4, r5}
/mnt/disk/raspbian-tee/optee_os/lib/libmbedtls/mbedtls/library/bignum.c:1559
    3f52:	1e13      	subs	r3, r2, #0
/mnt/disk/raspbian-tee/optee_os/lib/libmbedtls/mbedtls/library/bignum.c:1555
    3f54:	4604      	mov	r4, r0
/mnt/disk/raspbian-tee/optee_os/lib/libmbedtls/mbedtls/library/bignum.c:1559
    3f56:	d012      	beq.n	3f7e <mbedtls_mpi_mod_int+0x2e>
/mnt/disk/raspbian-tee/optee_os/lib/libmbedtls/mbedtls/library/bignum.c:1562
    3f58:	db14      	blt.n	3f84 <mbedtls_mpi_mod_int+0x34>
/mnt/disk/raspbian-tee/optee_os/lib/libmbedtls/mbedtls/library/bignum.c:1568
    3f5a:	2b01      	cmp	r3, #1
    3f5c:	d103      	bne.n	3f66 <mbedtls_mpi_mod_int+0x16>
/mnt/disk/raspbian-tee/optee_os/lib/libmbedtls/mbedtls/library/bignum.c:1570
    3f5e:	2000      	movs	r0, #0
    3f60:	6020      	str	r0, [r4, #0]
/mnt/disk/raspbian-tee/optee_os/lib/libmbedtls/mbedtls/library/bignum.c:1606
    3f62:	bc30      	pop	{r4, r5}
    3f64:	4770      	bx	lr
/mnt/disk/raspbian-tee/optee_os/lib/libmbedtls/mbedtls/library/bignum.c:1574
    3f66:	2b02      	cmp	r3, #2
    3f68:	d106      	bne.n	3f78 <mbedtls_mpi_mod_int+0x28>
/mnt/disk/raspbian-tee/optee_os/lib/libmbedtls/mbedtls/library/bignum.c:1576
    3f6a:	688b      	ldr	r3, [r1, #8]
    3f6c:	681b      	ldr	r3, [r3, #0]
    3f6e:	f003 0301 	and.w	r3, r3, #1
    3f72:	6003      	str	r3, [r0, #0]
/mnt/disk/raspbian-tee/optee_os/lib/libmbedtls/mbedtls/library/bignum.c:1577
    3f74:	2000      	movs	r0, #0
    3f76:	e7f4      	b.n	3f62 <mbedtls_mpi_mod_int+0x12>
/mnt/disk/raspbian-tee/optee_os/lib/libmbedtls/mbedtls/library/bignum.c:1606
    3f78:	bc30      	pop	{r4, r5}
    3f7a:	f7fe bfb5 	b.w	2ee8 <mbedtls_mpi_mod_int.part.1>
/mnt/disk/raspbian-tee/optee_os/lib/libmbedtls/mbedtls/library/bignum.c:1560
    3f7e:	f06f 000b 	mvn.w	r0, #11
    3f82:	e7ee      	b.n	3f62 <mbedtls_mpi_mod_int+0x12>
/mnt/disk/raspbian-tee/optee_os/lib/libmbedtls/mbedtls/library/bignum.c:1563
    3f84:	f06f 0009 	mvn.w	r0, #9
    3f88:	e7eb      	b.n	3f62 <mbedtls_mpi_mod_int+0x12>

00003f8a <mpi_write_hlp>:
mpi_write_hlp():
/mnt/disk/raspbian-tee/optee_os/lib/libmbedtls/mbedtls/library/bignum.c:578
    3f8a:	1e8b      	subs	r3, r1, #2
/mnt/disk/raspbian-tee/optee_os/lib/libmbedtls/mbedtls/library/bignum.c:574
    3f8c:	b5f7      	push	{r0, r1, r2, r4, r5, r6, r7, lr}
/mnt/disk/raspbian-tee/optee_os/lib/libmbedtls/mbedtls/library/bignum.c:578
    3f8e:	2b0e      	cmp	r3, #14
/mnt/disk/raspbian-tee/optee_os/lib/libmbedtls/mbedtls/library/bignum.c:574
    3f90:	4605      	mov	r5, r0
    3f92:	460f      	mov	r7, r1
    3f94:	4616      	mov	r6, r2
/mnt/disk/raspbian-tee/optee_os/lib/libmbedtls/mbedtls/library/bignum.c:578
    3f96:	d82b      	bhi.n	3ff0 <mpi_write_hlp+0x66>
/mnt/disk/raspbian-tee/optee_os/lib/libmbedtls/mbedtls/library/bignum.c:581
    3f98:	460a      	mov	r2, r1
    3f9a:	4601      	mov	r1, r0
    3f9c:	a801      	add	r0, sp, #4
    3f9e:	f7ff ffd7 	bl	3f50 <mbedtls_mpi_mod_int>
    3fa2:	4604      	mov	r4, r0
    3fa4:	b9a0      	cbnz	r0, 3fd0 <mpi_write_hlp+0x46>
/mnt/disk/raspbian-tee/optee_os/lib/libmbedtls/mbedtls/library/bignum.c:582
    3fa6:	4601      	mov	r1, r0
    3fa8:	463b      	mov	r3, r7
    3faa:	462a      	mov	r2, r5
    3fac:	4628      	mov	r0, r5
    3fae:	f7ff ff86 	bl	3ebe <mbedtls_mpi_div_int>
    3fb2:	4604      	mov	r4, r0
    3fb4:	b960      	cbnz	r0, 3fd0 <mpi_write_hlp+0x46>
/mnt/disk/raspbian-tee/optee_os/lib/libmbedtls/mbedtls/library/bignum.c:584
    3fb6:	4601      	mov	r1, r0
    3fb8:	4628      	mov	r0, r5
    3fba:	f7ff fb6c 	bl	3696 <mbedtls_mpi_cmp_int>
    3fbe:	b950      	cbnz	r0, 3fd6 <mpi_write_hlp+0x4c>
/mnt/disk/raspbian-tee/optee_os/lib/libmbedtls/mbedtls/library/bignum.c:587
    3fc0:	9b01      	ldr	r3, [sp, #4]
    3fc2:	6832      	ldr	r2, [r6, #0]
    3fc4:	2b09      	cmp	r3, #9
    3fc6:	d80f      	bhi.n	3fe8 <mpi_write_hlp+0x5e>
/mnt/disk/raspbian-tee/optee_os/lib/libmbedtls/mbedtls/library/bignum.c:588
    3fc8:	3330      	adds	r3, #48	; 0x30
    3fca:	1c51      	adds	r1, r2, #1
    3fcc:	6031      	str	r1, [r6, #0]
/mnt/disk/raspbian-tee/optee_os/lib/libmbedtls/mbedtls/library/bignum.c:590
    3fce:	7013      	strb	r3, [r2, #0]
/mnt/disk/raspbian-tee/optee_os/lib/libmbedtls/mbedtls/library/bignum.c:595
    3fd0:	4620      	mov	r0, r4
    3fd2:	b003      	add	sp, #12
    3fd4:	bdf0      	pop	{r4, r5, r6, r7, pc}
/mnt/disk/raspbian-tee/optee_os/lib/libmbedtls/mbedtls/library/bignum.c:585
    3fd6:	4632      	mov	r2, r6
    3fd8:	4639      	mov	r1, r7
    3fda:	4628      	mov	r0, r5
    3fdc:	f7ff ffd5 	bl	3f8a <mpi_write_hlp>
    3fe0:	2800      	cmp	r0, #0
    3fe2:	d0ed      	beq.n	3fc0 <mpi_write_hlp+0x36>
    3fe4:	4604      	mov	r4, r0
    3fe6:	e7f3      	b.n	3fd0 <mpi_write_hlp+0x46>
/mnt/disk/raspbian-tee/optee_os/lib/libmbedtls/mbedtls/library/bignum.c:590
    3fe8:	1c51      	adds	r1, r2, #1
    3fea:	3337      	adds	r3, #55	; 0x37
    3fec:	6031      	str	r1, [r6, #0]
    3fee:	e7ee      	b.n	3fce <mpi_write_hlp+0x44>
/mnt/disk/raspbian-tee/optee_os/lib/libmbedtls/mbedtls/library/bignum.c:579
    3ff0:	f06f 0403 	mvn.w	r4, #3
    3ff4:	e7ec      	b.n	3fd0 <mpi_write_hlp+0x46>

00003ff6 <mbedtls_mpi_write_string>:
mbedtls_mpi_write_string():
/mnt/disk/raspbian-tee/optee_os/lib/libmbedtls/mbedtls/library/bignum.c:602
    3ff6:	e92d 47ff 	stmdb	sp!, {r0, r1, r2, r3, r4, r5, r6, r7, r8, r9, sl, lr}
    3ffa:	461f      	mov	r7, r3
/mnt/disk/raspbian-tee/optee_os/lib/libmbedtls/mbedtls/library/bignum.c:608
    3ffc:	1e8b      	subs	r3, r1, #2
/mnt/disk/raspbian-tee/optee_os/lib/libmbedtls/mbedtls/library/bignum.c:602
    3ffe:	4604      	mov	r4, r0
    4000:	4688      	mov	r8, r1
    4002:	4615      	mov	r5, r2
    4004:	9e0c      	ldr	r6, [sp, #48]	; 0x30
/mnt/disk/raspbian-tee/optee_os/lib/libmbedtls/mbedtls/library/bignum.c:608
    4006:	2b0e      	cmp	r3, #14
    4008:	f200 808c 	bhi.w	4124 <mbedtls_mpi_write_string+0x12e>
/mnt/disk/raspbian-tee/optee_os/lib/libmbedtls/mbedtls/library/bignum.c:611
    400c:	f7ff f9bc 	bl	3388 <mbedtls_mpi_bitlen>
/mnt/disk/raspbian-tee/optee_os/lib/libmbedtls/mbedtls/library/bignum.c:612
    4010:	f1b8 0f03 	cmp.w	r8, #3
    4014:	dd05      	ble.n	4022 <mbedtls_mpi_write_string+0x2c>
/mnt/disk/raspbian-tee/optee_os/lib/libmbedtls/mbedtls/library/bignum.c:613 (discriminator 1)
    4016:	f1b8 0f10 	cmp.w	r8, #16
/mnt/disk/raspbian-tee/optee_os/lib/libmbedtls/mbedtls/library/bignum.c:612 (discriminator 1)
    401a:	bf18      	it	ne
    401c:	0840      	lsrne	r0, r0, #1
/mnt/disk/raspbian-tee/optee_os/lib/libmbedtls/mbedtls/library/bignum.c:613 (discriminator 1)
    401e:	bf08      	it	eq
    4020:	0880      	lsreq	r0, r0, #2
/mnt/disk/raspbian-tee/optee_os/lib/libmbedtls/mbedtls/library/bignum.c:619
    4022:	1c42      	adds	r2, r0, #1
    4024:	3003      	adds	r0, #3
    4026:	f002 0201 	and.w	r2, r2, #1
    402a:	4410      	add	r0, r2
/mnt/disk/raspbian-tee/optee_os/lib/libmbedtls/mbedtls/library/bignum.c:621
    402c:	42b8      	cmp	r0, r7
    402e:	d906      	bls.n	403e <mbedtls_mpi_write_string+0x48>
/mnt/disk/raspbian-tee/optee_os/lib/libmbedtls/mbedtls/library/bignum.c:624
    4030:	f06f 0407 	mvn.w	r4, #7
/mnt/disk/raspbian-tee/optee_os/lib/libmbedtls/mbedtls/library/bignum.c:623
    4034:	6030      	str	r0, [r6, #0]
/mnt/disk/raspbian-tee/optee_os/lib/libmbedtls/mbedtls/library/bignum.c:671
    4036:	4620      	mov	r0, r4
    4038:	b004      	add	sp, #16
    403a:	e8bd 87f0 	ldmia.w	sp!, {r4, r5, r6, r7, r8, r9, sl, pc}
/mnt/disk/raspbian-tee/optee_os/lib/libmbedtls/mbedtls/library/bignum.c:628
    403e:	af01      	add	r7, sp, #4
/mnt/disk/raspbian-tee/optee_os/lib/libmbedtls/mbedtls/library/bignum.c:627
    4040:	9500      	str	r5, [sp, #0]
/mnt/disk/raspbian-tee/optee_os/lib/libmbedtls/mbedtls/library/bignum.c:628
    4042:	4638      	mov	r0, r7
    4044:	f7fe ff7d 	bl	2f42 <mbedtls_mpi_init_mempool>
/mnt/disk/raspbian-tee/optee_os/lib/libmbedtls/mbedtls/library/bignum.c:630
    4048:	f994 3000 	ldrsb.w	r3, [r4]
    404c:	3301      	adds	r3, #1
    404e:	d104      	bne.n	405a <mbedtls_mpi_write_string+0x64>
/mnt/disk/raspbian-tee/optee_os/lib/libmbedtls/mbedtls/library/bignum.c:631
    4050:	9b00      	ldr	r3, [sp, #0]
    4052:	1c5a      	adds	r2, r3, #1
    4054:	9200      	str	r2, [sp, #0]
    4056:	222d      	movs	r2, #45	; 0x2d
    4058:	701a      	strb	r2, [r3, #0]
/mnt/disk/raspbian-tee/optee_os/lib/libmbedtls/mbedtls/library/bignum.c:633
    405a:	f1b8 0f10 	cmp.w	r8, #16
    405e:	d14a      	bne.n	40f6 <mbedtls_mpi_write_string+0x100>
/mnt/disk/raspbian-tee/optee_os/lib/libmbedtls/mbedtls/library/bignum.c:638
    4060:	f8b4 e004 	ldrh.w	lr, [r4, #4]
    4064:	f04f 0900 	mov.w	r9, #0
/mnt/disk/raspbian-tee/optee_os/lib/libmbedtls/mbedtls/library/bignum.c:647
    4068:	f8df 80c0 	ldr.w	r8, [pc, #192]	; 412c <mbedtls_mpi_write_string+0x136>
    406c:	f10e 4380 	add.w	r3, lr, #1073741824	; 0x40000000
    4070:	3b01      	subs	r3, #1
    4072:	44f8      	add	r8, pc
    4074:	009b      	lsls	r3, r3, #2
/mnt/disk/raspbian-tee/optee_os/lib/libmbedtls/mbedtls/library/bignum.c:638 (discriminator 1)
    4076:	f1be 0f00 	cmp.w	lr, #0
    407a:	d10b      	bne.n	4094 <mbedtls_mpi_write_string+0x9e>
/mnt/disk/raspbian-tee/optee_os/lib/libmbedtls/mbedtls/library/bignum.c:663
    407c:	9b00      	ldr	r3, [sp, #0]
    407e:	2400      	movs	r4, #0
    4080:	1c5a      	adds	r2, r3, #1
    4082:	9200      	str	r2, [sp, #0]
    4084:	701c      	strb	r4, [r3, #0]
/mnt/disk/raspbian-tee/optee_os/lib/libmbedtls/mbedtls/library/bignum.c:664
    4086:	9b00      	ldr	r3, [sp, #0]
    4088:	1b5d      	subs	r5, r3, r5
    408a:	6035      	str	r5, [r6, #0]
/mnt/disk/raspbian-tee/optee_os/lib/libmbedtls/mbedtls/library/bignum.c:668
    408c:	4638      	mov	r0, r7
    408e:	f7fe ff74 	bl	2f7a <mbedtls_mpi_free>
/mnt/disk/raspbian-tee/optee_os/lib/libmbedtls/mbedtls/library/bignum.c:670
    4092:	e7d0      	b.n	4036 <mbedtls_mpi_write_string+0x40>
    4094:	f10e 0004 	add.w	r0, lr, #4
/mnt/disk/raspbian-tee/optee_os/lib/libmbedtls/mbedtls/library/bignum.c:638
    4098:	2118      	movs	r1, #24
/mnt/disk/raspbian-tee/optee_os/lib/libmbedtls/mbedtls/library/bignum.c:642
    409a:	68a2      	ldr	r2, [r4, #8]
    409c:	58d2      	ldr	r2, [r2, r3]
    409e:	40ca      	lsrs	r2, r1
/mnt/disk/raspbian-tee/optee_os/lib/libmbedtls/mbedtls/library/bignum.c:644
    40a0:	f012 0cff 	ands.w	ip, r2, #255	; 0xff
    40a4:	d104      	bne.n	40b0 <mbedtls_mpi_write_string+0xba>
/mnt/disk/raspbian-tee/optee_os/lib/libmbedtls/mbedtls/library/bignum.c:644 (discriminator 1)
    40a6:	f1b9 0f00 	cmp.w	r9, #0
    40aa:	d101      	bne.n	40b0 <mbedtls_mpi_write_string+0xba>
/mnt/disk/raspbian-tee/optee_os/lib/libmbedtls/mbedtls/library/bignum.c:644 (discriminator 2)
    40ac:	2802      	cmp	r0, #2
    40ae:	d119      	bne.n	40e4 <mbedtls_mpi_write_string+0xee>
/mnt/disk/raspbian-tee/optee_os/lib/libmbedtls/mbedtls/library/bignum.c:647
    40b0:	ea4f 1c2c 	mov.w	ip, ip, asr #4
    40b4:	f8dd 9000 	ldr.w	r9, [sp]
/mnt/disk/raspbian-tee/optee_os/lib/libmbedtls/mbedtls/library/bignum.c:648
    40b8:	f002 020f 	and.w	r2, r2, #15
/mnt/disk/raspbian-tee/optee_os/lib/libmbedtls/mbedtls/library/bignum.c:647
    40bc:	f109 0a01 	add.w	sl, r9, #1
    40c0:	f8cd a000 	str.w	sl, [sp]
    40c4:	f818 c00c 	ldrb.w	ip, [r8, ip]
    40c8:	f889 c000 	strb.w	ip, [r9]
/mnt/disk/raspbian-tee/optee_os/lib/libmbedtls/mbedtls/library/bignum.c:648
    40cc:	f8dd c000 	ldr.w	ip, [sp]
    40d0:	f818 2002 	ldrb.w	r2, [r8, r2]
    40d4:	f10c 0901 	add.w	r9, ip, #1
    40d8:	f8cd 9000 	str.w	r9, [sp]
/mnt/disk/raspbian-tee/optee_os/lib/libmbedtls/mbedtls/library/bignum.c:649
    40dc:	f04f 0901 	mov.w	r9, #1
/mnt/disk/raspbian-tee/optee_os/lib/libmbedtls/mbedtls/library/bignum.c:648
    40e0:	f88c 2000 	strb.w	r2, [ip]
    40e4:	3908      	subs	r1, #8
    40e6:	3801      	subs	r0, #1
/mnt/disk/raspbian-tee/optee_os/lib/libmbedtls/mbedtls/library/bignum.c:640 (discriminator 1)
    40e8:	f111 0f08 	cmn.w	r1, #8
    40ec:	d1d5      	bne.n	409a <mbedtls_mpi_write_string+0xa4>
/mnt/disk/raspbian-tee/optee_os/lib/libmbedtls/mbedtls/library/bignum.c:638 (discriminator 2)
    40ee:	f10e 3eff 	add.w	lr, lr, #4294967295	; 0xffffffff
    40f2:	3b04      	subs	r3, #4
    40f4:	e7bf      	b.n	4076 <mbedtls_mpi_write_string+0x80>
/mnt/disk/raspbian-tee/optee_os/lib/libmbedtls/mbedtls/library/bignum.c:655
    40f6:	4621      	mov	r1, r4
    40f8:	4638      	mov	r0, r7
    40fa:	f7ff f81f 	bl	313c <mbedtls_mpi_copy>
    40fe:	4604      	mov	r4, r0
    4100:	2800      	cmp	r0, #0
    4102:	d1c3      	bne.n	408c <mbedtls_mpi_write_string+0x96>
/mnt/disk/raspbian-tee/optee_os/lib/libmbedtls/mbedtls/library/bignum.c:657
    4104:	f99d 3004 	ldrsb.w	r3, [sp, #4]
    4108:	3301      	adds	r3, #1
    410a:	d102      	bne.n	4112 <mbedtls_mpi_write_string+0x11c>
/mnt/disk/raspbian-tee/optee_os/lib/libmbedtls/mbedtls/library/bignum.c:658
    410c:	2301      	movs	r3, #1
    410e:	f88d 3004 	strb.w	r3, [sp, #4]
/mnt/disk/raspbian-tee/optee_os/lib/libmbedtls/mbedtls/library/bignum.c:660
    4112:	466a      	mov	r2, sp
    4114:	4641      	mov	r1, r8
    4116:	4638      	mov	r0, r7
    4118:	f7ff ff37 	bl	3f8a <mpi_write_hlp>
    411c:	4604      	mov	r4, r0
    411e:	2800      	cmp	r0, #0
    4120:	d0ac      	beq.n	407c <mbedtls_mpi_write_string+0x86>
    4122:	e7b3      	b.n	408c <mbedtls_mpi_write_string+0x96>
/mnt/disk/raspbian-tee/optee_os/lib/libmbedtls/mbedtls/library/bignum.c:609
    4124:	f06f 0403 	mvn.w	r4, #3
    4128:	e785      	b.n	4036 <mbedtls_mpi_write_string+0x40>
    412a:	bf00      	nop
    412c:	00002920 	.word	0x00002920

00004130 <mpi_check_small_factors>:
mpi_check_small_factors():
/mnt/disk/raspbian-tee/optee_os/lib/libmbedtls/mbedtls/library/bignum.c:2108
    4130:	6883      	ldr	r3, [r0, #8]
/mnt/disk/raspbian-tee/optee_os/lib/libmbedtls/mbedtls/library/bignum.c:2103
    4132:	b5f7      	push	{r0, r1, r2, r4, r5, r6, r7, lr}
    4134:	4606      	mov	r6, r0
/mnt/disk/raspbian-tee/optee_os/lib/libmbedtls/mbedtls/library/bignum.c:2108
    4136:	681b      	ldr	r3, [r3, #0]
    4138:	07db      	lsls	r3, r3, #31
    413a:	d518      	bpl.n	416e <mpi_check_small_factors+0x3e>
    413c:	4c0f      	ldr	r4, [pc, #60]	; (417c <mpi_check_small_factors+0x4c>)
/mnt/disk/raspbian-tee/optee_os/lib/libmbedtls/mbedtls/library/bignum.c:2116
    413e:	af01      	add	r7, sp, #4
    4140:	447c      	add	r4, pc
    4142:	3c04      	subs	r4, #4
/mnt/disk/raspbian-tee/optee_os/lib/libmbedtls/mbedtls/library/bignum.c:2111 (discriminator 1)
    4144:	f854 5f04 	ldr.w	r5, [r4, #4]!
    4148:	2d00      	cmp	r5, #0
    414a:	dc01      	bgt.n	4150 <mpi_check_small_factors+0x20>
    414c:	2000      	movs	r0, #0
    414e:	e010      	b.n	4172 <mpi_check_small_factors+0x42>
/mnt/disk/raspbian-tee/optee_os/lib/libmbedtls/mbedtls/library/bignum.c:2113
    4150:	4629      	mov	r1, r5
    4152:	4630      	mov	r0, r6
    4154:	f7ff fa9f 	bl	3696 <mbedtls_mpi_cmp_int>
    4158:	2800      	cmp	r0, #0
    415a:	dd0c      	ble.n	4176 <mpi_check_small_factors+0x46>
/mnt/disk/raspbian-tee/optee_os/lib/libmbedtls/mbedtls/library/bignum.c:2116
    415c:	462a      	mov	r2, r5
    415e:	4631      	mov	r1, r6
    4160:	4638      	mov	r0, r7
    4162:	f7ff fef5 	bl	3f50 <mbedtls_mpi_mod_int>
    4166:	b920      	cbnz	r0, 4172 <mpi_check_small_factors+0x42>
/mnt/disk/raspbian-tee/optee_os/lib/libmbedtls/mbedtls/library/bignum.c:2118
    4168:	9b01      	ldr	r3, [sp, #4]
    416a:	2b00      	cmp	r3, #0
    416c:	d1ea      	bne.n	4144 <mpi_check_small_factors+0x14>
/mnt/disk/raspbian-tee/optee_os/lib/libmbedtls/mbedtls/library/bignum.c:2109
    416e:	f06f 000d 	mvn.w	r0, #13
/mnt/disk/raspbian-tee/optee_os/lib/libmbedtls/mbedtls/library/bignum.c:2124
    4172:	b003      	add	sp, #12
    4174:	bdf0      	pop	{r4, r5, r6, r7, pc}
/mnt/disk/raspbian-tee/optee_os/lib/libmbedtls/mbedtls/library/bignum.c:2114
    4176:	2001      	movs	r0, #1
    4178:	e7fb      	b.n	4172 <mpi_check_small_factors+0x42>
    417a:	bf00      	nop
    417c:	00002048 	.word	0x00002048

00004180 <mbedtls_mpi_montg_init>:
mbedtls_mpi_montg_init():
/mnt/disk/raspbian-tee/optee_os/lib/libmbedtls/mbedtls/library/bignum.c:1613
    4180:	688b      	ldr	r3, [r1, #8]
/mnt/disk/raspbian-tee/optee_os/lib/libmbedtls/mbedtls/library/bignum.c:1617
    4182:	2203      	movs	r2, #3
/mnt/disk/raspbian-tee/optee_os/lib/libmbedtls/mbedtls/library/bignum.c:1612
    4184:	b510      	push	{r4, lr}
/mnt/disk/raspbian-tee/optee_os/lib/libmbedtls/mbedtls/library/bignum.c:1613
    4186:	681c      	ldr	r4, [r3, #0]
/mnt/disk/raspbian-tee/optee_os/lib/libmbedtls/mbedtls/library/bignum.c:1617
    4188:	1ca3      	adds	r3, r4, #2
    418a:	005b      	lsls	r3, r3, #1
    418c:	f003 0308 	and.w	r3, r3, #8
    4190:	4423      	add	r3, r4
/mnt/disk/raspbian-tee/optee_os/lib/libmbedtls/mbedtls/library/bignum.c:1620 (discriminator 3)
    4192:	fb03 f104 	mul.w	r1, r3, r4
/mnt/disk/raspbian-tee/optee_os/lib/libmbedtls/mbedtls/library/bignum.c:1619 (discriminator 3)
    4196:	3a01      	subs	r2, #1
/mnt/disk/raspbian-tee/optee_os/lib/libmbedtls/mbedtls/library/bignum.c:1620 (discriminator 3)
    4198:	f1c1 0102 	rsb	r1, r1, #2
    419c:	fb01 f303 	mul.w	r3, r1, r3
/mnt/disk/raspbian-tee/optee_os/lib/libmbedtls/mbedtls/library/bignum.c:1619 (discriminator 3)
    41a0:	d1f7      	bne.n	4192 <mbedtls_mpi_montg_init+0x12>
/mnt/disk/raspbian-tee/optee_os/lib/libmbedtls/mbedtls/library/bignum.c:1622
    41a2:	425b      	negs	r3, r3
    41a4:	6003      	str	r3, [r0, #0]
    41a6:	bd10      	pop	{r4, pc}

000041a8 <mbedtls_mpi_montmul>:
mbedtls_mpi_montmul():
/mnt/disk/raspbian-tee/optee_os/lib/libmbedtls/mbedtls/library/bignum.c:1631
    41a8:	e92d 4ff0 	stmdb	sp!, {r4, r5, r6, r7, r8, r9, sl, fp, lr}
    41ac:	4616      	mov	r6, r2
    41ae:	4681      	mov	r9, r0
    41b0:	b085      	sub	sp, #20
    41b2:	468b      	mov	fp, r1
    41b4:	9303      	str	r3, [sp, #12]
/mnt/disk/raspbian-tee/optee_os/lib/libmbedtls/mbedtls/library/bignum.c:1635
    41b6:	9b0e      	ldr	r3, [sp, #56]	; 0x38
    41b8:	889a      	ldrh	r2, [r3, #4]
    41ba:	88b3      	ldrh	r3, [r6, #4]
    41bc:	4293      	cmp	r3, r2
    41be:	da52      	bge.n	4266 <mbedtls_mpi_montmul+0xbe>
/mnt/disk/raspbian-tee/optee_os/lib/libmbedtls/mbedtls/library/bignum.c:1635 (discriminator 1)
    41c0:	9b0e      	ldr	r3, [sp, #56]	; 0x38
    41c2:	6898      	ldr	r0, [r3, #8]
    41c4:	2800      	cmp	r0, #0
    41c6:	d04e      	beq.n	4266 <mbedtls_mpi_montmul+0xbe>
/mnt/disk/raspbian-tee/optee_os/lib/libmbedtls/mbedtls/library/bignum.c:1638
    41c8:	0092      	lsls	r2, r2, #2
    41ca:	2100      	movs	r1, #0
    41cc:	f001 fe9c 	bl	5f08 <memset>
/mnt/disk/raspbian-tee/optee_os/lib/libmbedtls/mbedtls/library/bignum.c:1640
    41d0:	9b0e      	ldr	r3, [sp, #56]	; 0x38
/mnt/disk/raspbian-tee/optee_os/lib/libmbedtls/mbedtls/library/bignum.c:1641
    41d2:	88b4      	ldrh	r4, [r6, #4]
/mnt/disk/raspbian-tee/optee_os/lib/libmbedtls/mbedtls/library/bignum.c:1644
    41d4:	2700      	movs	r7, #0
/mnt/disk/raspbian-tee/optee_os/lib/libmbedtls/mbedtls/library/bignum.c:1640
    41d6:	689b      	ldr	r3, [r3, #8]
    41d8:	9300      	str	r3, [sp, #0]
/mnt/disk/raspbian-tee/optee_os/lib/libmbedtls/mbedtls/library/bignum.c:1642
    41da:	f8bb 3004 	ldrh.w	r3, [fp, #4]
/mnt/disk/raspbian-tee/optee_os/lib/libmbedtls/mbedtls/library/bignum.c:1640
    41de:	9d00      	ldr	r5, [sp, #0]
/mnt/disk/raspbian-tee/optee_os/lib/libmbedtls/mbedtls/library/bignum.c:1642
    41e0:	42a3      	cmp	r3, r4
    41e2:	bf28      	it	cs
    41e4:	4623      	movcs	r3, r4
    41e6:	9301      	str	r3, [sp, #4]
/mnt/disk/raspbian-tee/optee_os/lib/libmbedtls/mbedtls/library/bignum.c:1655
    41e8:	1c63      	adds	r3, r4, #1
    41ea:	ea4f 0883 	mov.w	r8, r3, lsl #2
/mnt/disk/raspbian-tee/optee_os/lib/libmbedtls/mbedtls/library/bignum.c:1644 (discriminator 1)
    41ee:	42a7      	cmp	r7, r4
    41f0:	f8d9 0008 	ldr.w	r0, [r9, #8]
    41f4:	d315      	bcc.n	4222 <mbedtls_mpi_montmul+0x7a>
/mnt/disk/raspbian-tee/optee_os/lib/libmbedtls/mbedtls/library/bignum.c:1658
    41f6:	9b00      	ldr	r3, [sp, #0]
    41f8:	4642      	mov	r2, r8
    41fa:	eb03 0184 	add.w	r1, r3, r4, lsl #2
    41fe:	f001 ff72 	bl	60e6 <memcpy>
/mnt/disk/raspbian-tee/optee_os/lib/libmbedtls/mbedtls/library/bignum.c:1660
    4202:	4631      	mov	r1, r6
    4204:	4648      	mov	r0, r9
    4206:	f7ff f9c4 	bl	3592 <mbedtls_mpi_cmp_abs>
    420a:	2800      	cmp	r0, #0
    420c:	db26      	blt.n	425c <mbedtls_mpi_montmul+0xb4>
/mnt/disk/raspbian-tee/optee_os/lib/libmbedtls/mbedtls/library/bignum.c:1661
    420e:	f8d9 2008 	ldr.w	r2, [r9, #8]
    4212:	68b1      	ldr	r1, [r6, #8]
/mnt/disk/raspbian-tee/optee_os/lib/libmbedtls/mbedtls/library/bignum.c:1664
    4214:	4620      	mov	r0, r4
    4216:	f7fe fbef 	bl	29f8 <mpi_sub_hlp>
/mnt/disk/raspbian-tee/optee_os/lib/libmbedtls/mbedtls/library/bignum.c:1666
    421a:	2000      	movs	r0, #0
/mnt/disk/raspbian-tee/optee_os/lib/libmbedtls/mbedtls/library/bignum.c:1667
    421c:	b005      	add	sp, #20
    421e:	e8bd 8ff0 	ldmia.w	sp!, {r4, r5, r6, r7, r8, r9, sl, fp, pc}
/mnt/disk/raspbian-tee/optee_os/lib/libmbedtls/mbedtls/library/bignum.c:1650 (discriminator 3)
    4222:	f8db 1008 	ldr.w	r1, [fp, #8]
/mnt/disk/raspbian-tee/optee_os/lib/libmbedtls/mbedtls/library/bignum.c:1649 (discriminator 3)
    4226:	f850 a027 	ldr.w	sl, [r0, r7, lsl #2]
/mnt/disk/raspbian-tee/optee_os/lib/libmbedtls/mbedtls/library/bignum.c:1644 (discriminator 3)
    422a:	3701      	adds	r7, #1
/mnt/disk/raspbian-tee/optee_os/lib/libmbedtls/mbedtls/library/bignum.c:1650 (discriminator 3)
    422c:	682a      	ldr	r2, [r5, #0]
    422e:	680b      	ldr	r3, [r1, #0]
/mnt/disk/raspbian-tee/optee_os/lib/libmbedtls/mbedtls/library/bignum.c:1652 (discriminator 3)
    4230:	9801      	ldr	r0, [sp, #4]
/mnt/disk/raspbian-tee/optee_os/lib/libmbedtls/mbedtls/library/bignum.c:1650 (discriminator 3)
    4232:	fb03 230a 	mla	r3, r3, sl, r2
    4236:	9a03      	ldr	r2, [sp, #12]
    4238:	4353      	muls	r3, r2
/mnt/disk/raspbian-tee/optee_os/lib/libmbedtls/mbedtls/library/bignum.c:1652 (discriminator 3)
    423a:	462a      	mov	r2, r5
/mnt/disk/raspbian-tee/optee_os/lib/libmbedtls/mbedtls/library/bignum.c:1650 (discriminator 3)
    423c:	9302      	str	r3, [sp, #8]
/mnt/disk/raspbian-tee/optee_os/lib/libmbedtls/mbedtls/library/bignum.c:1652 (discriminator 3)
    423e:	4653      	mov	r3, sl
    4240:	f7fe fc09 	bl	2a56 <mpi_mul_hlp>
/mnt/disk/raspbian-tee/optee_os/lib/libmbedtls/mbedtls/library/bignum.c:1653 (discriminator 3)
    4244:	9b02      	ldr	r3, [sp, #8]
    4246:	462a      	mov	r2, r5
    4248:	68b1      	ldr	r1, [r6, #8]
    424a:	4620      	mov	r0, r4
    424c:	f7fe fc03 	bl	2a56 <mpi_mul_hlp>
/mnt/disk/raspbian-tee/optee_os/lib/libmbedtls/mbedtls/library/bignum.c:1655 (discriminator 3)
    4250:	f845 ab04 	str.w	sl, [r5], #4
    4254:	2300      	movs	r3, #0
    4256:	f845 3008 	str.w	r3, [r5, r8]
    425a:	e7c8      	b.n	41ee <mbedtls_mpi_montmul+0x46>
/mnt/disk/raspbian-tee/optee_os/lib/libmbedtls/mbedtls/library/bignum.c:1664
    425c:	9b0e      	ldr	r3, [sp, #56]	; 0x38
    425e:	f8d9 1008 	ldr.w	r1, [r9, #8]
    4262:	689a      	ldr	r2, [r3, #8]
    4264:	e7d6      	b.n	4214 <mbedtls_mpi_montmul+0x6c>
/mnt/disk/raspbian-tee/optee_os/lib/libmbedtls/mbedtls/library/bignum.c:1636
    4266:	f06f 0003 	mvn.w	r0, #3
    426a:	e7d7      	b.n	421c <mbedtls_mpi_montmul+0x74>

0000426c <mbedtls_mpi_montred>:
mbedtls_mpi_montred():
/mnt/disk/raspbian-tee/optee_os/lib/libmbedtls/mbedtls/library/bignum.c:1674
    426c:	b510      	push	{r4, lr}
/mnt/disk/raspbian-tee/optee_os/lib/libmbedtls/mbedtls/library/bignum.c:1675
    426e:	2401      	movs	r4, #1
/mnt/disk/raspbian-tee/optee_os/lib/libmbedtls/mbedtls/library/bignum.c:1674
    4270:	b086      	sub	sp, #24
/mnt/disk/raspbian-tee/optee_os/lib/libmbedtls/mbedtls/library/bignum.c:1681
    4272:	9300      	str	r3, [sp, #0]
    4274:	4613      	mov	r3, r2
    4276:	460a      	mov	r2, r1
    4278:	a903      	add	r1, sp, #12
/mnt/disk/raspbian-tee/optee_os/lib/libmbedtls/mbedtls/library/bignum.c:1675
    427a:	9402      	str	r4, [sp, #8]
/mnt/disk/raspbian-tee/optee_os/lib/libmbedtls/mbedtls/library/bignum.c:1678
    427c:	f88d 400c 	strb.w	r4, [sp, #12]
    4280:	f8ad 4010 	strh.w	r4, [sp, #16]
/mnt/disk/raspbian-tee/optee_os/lib/libmbedtls/mbedtls/library/bignum.c:1679
    4284:	ac02      	add	r4, sp, #8
    4286:	9405      	str	r4, [sp, #20]
/mnt/disk/raspbian-tee/optee_os/lib/libmbedtls/mbedtls/library/bignum.c:1681
    4288:	f7ff ff8e 	bl	41a8 <mbedtls_mpi_montmul>
/mnt/disk/raspbian-tee/optee_os/lib/libmbedtls/mbedtls/library/bignum.c:1682
    428c:	b006      	add	sp, #24
    428e:	bd10      	pop	{r4, pc}

00004290 <mbedtls_mpi_exp_mod>:
mbedtls_mpi_exp_mod():
/mnt/disk/raspbian-tee/optee_os/lib/libmbedtls/mbedtls/library/bignum.c:1688
    4290:	e92d 4ff0 	stmdb	sp!, {r4, r5, r6, r7, r8, r9, sl, fp, lr}
    4294:	4683      	mov	fp, r0
    4296:	460e      	mov	r6, r1
    4298:	f2ad 6d4c 	subw	sp, sp, #1612	; 0x64c
/mnt/disk/raspbian-tee/optee_os/lib/libmbedtls/mbedtls/library/bignum.c:1697
    429c:	2100      	movs	r1, #0
    429e:	4618      	mov	r0, r3
/mnt/disk/raspbian-tee/optee_os/lib/libmbedtls/mbedtls/library/bignum.c:1688
    42a0:	461c      	mov	r4, r3
    42a2:	9203      	str	r2, [sp, #12]
/mnt/disk/raspbian-tee/optee_os/lib/libmbedtls/mbedtls/library/bignum.c:1697
    42a4:	f7ff f9f7 	bl	3696 <mbedtls_mpi_cmp_int>
    42a8:	2800      	cmp	r0, #0
    42aa:	f2c0 8211 	blt.w	46d0 <mbedtls_mpi_exp_mod+0x440>
/mnt/disk/raspbian-tee/optee_os/lib/libmbedtls/mbedtls/library/bignum.c:1697 (discriminator 1)
    42ae:	68a3      	ldr	r3, [r4, #8]
    42b0:	681b      	ldr	r3, [r3, #0]
    42b2:	07d9      	lsls	r1, r3, #31
    42b4:	f140 820c 	bpl.w	46d0 <mbedtls_mpi_exp_mod+0x440>
/mnt/disk/raspbian-tee/optee_os/lib/libmbedtls/mbedtls/library/bignum.c:1700
    42b8:	2100      	movs	r1, #0
    42ba:	9803      	ldr	r0, [sp, #12]
    42bc:	f7ff f9eb 	bl	3696 <mbedtls_mpi_cmp_int>
    42c0:	2800      	cmp	r0, #0
    42c2:	f2c0 8205 	blt.w	46d0 <mbedtls_mpi_exp_mod+0x440>
/mnt/disk/raspbian-tee/optee_os/lib/libmbedtls/mbedtls/library/bignum.c:1706
    42c6:	f10d 0920 	add.w	r9, sp, #32
    42ca:	4621      	mov	r1, r4
    42cc:	4648      	mov	r0, r9
/mnt/disk/raspbian-tee/optee_os/lib/libmbedtls/mbedtls/library/bignum.c:1707
    42ce:	ad09      	add	r5, sp, #36	; 0x24
/mnt/disk/raspbian-tee/optee_os/lib/libmbedtls/mbedtls/library/bignum.c:1706
    42d0:	f7ff ff56 	bl	4180 <mbedtls_mpi_montg_init>
/mnt/disk/raspbian-tee/optee_os/lib/libmbedtls/mbedtls/library/bignum.c:1707
    42d4:	4628      	mov	r0, r5
    42d6:	f7fe fe34 	bl	2f42 <mbedtls_mpi_init_mempool>
    42da:	ab0c      	add	r3, sp, #48	; 0x30
    42dc:	4618      	mov	r0, r3
/mnt/disk/raspbian-tee/optee_os/lib/libmbedtls/mbedtls/library/bignum.c:1708
    42de:	f10d 083c 	add.w	r8, sp, #60	; 0x3c
/mnt/disk/raspbian-tee/optee_os/lib/libmbedtls/mbedtls/library/bignum.c:1707
    42e2:	9304      	str	r3, [sp, #16]
    42e4:	f7fe fe2d 	bl	2f42 <mbedtls_mpi_init_mempool>
/mnt/disk/raspbian-tee/optee_os/lib/libmbedtls/mbedtls/library/bignum.c:1708
    42e8:	4640      	mov	r0, r8
    42ea:	f7fe fe2a 	bl	2f42 <mbedtls_mpi_init_mempool>
/mnt/disk/raspbian-tee/optee_os/lib/libmbedtls/mbedtls/library/bignum.c:1709
    42ee:	ab12      	add	r3, sp, #72	; 0x48
    42f0:	f44f 62c0 	mov.w	r2, #1536	; 0x600
    42f4:	2100      	movs	r1, #0
    42f6:	4618      	mov	r0, r3
    42f8:	9306      	str	r3, [sp, #24]
    42fa:	f001 fe05 	bl	5f08 <memset>
/mnt/disk/raspbian-tee/optee_os/lib/libmbedtls/mbedtls/library/bignum.c:1711
    42fe:	9803      	ldr	r0, [sp, #12]
    4300:	f7ff f842 	bl	3388 <mbedtls_mpi_bitlen>
/mnt/disk/raspbian-tee/optee_os/lib/libmbedtls/mbedtls/library/bignum.c:1713
    4304:	f5b0 7f28 	cmp.w	r0, #672	; 0x2a0
    4308:	f080 80db 	bcs.w	44c2 <mbedtls_mpi_exp_mod+0x232>
/mnt/disk/raspbian-tee/optee_os/lib/libmbedtls/mbedtls/library/bignum.c:1713 (discriminator 1)
    430c:	28ef      	cmp	r0, #239	; 0xef
    430e:	f200 80da 	bhi.w	44c6 <mbedtls_mpi_exp_mod+0x236>
/mnt/disk/raspbian-tee/optee_os/lib/libmbedtls/mbedtls/library/bignum.c:1713 (discriminator 3)
    4312:	284f      	cmp	r0, #79	; 0x4f
    4314:	f200 80d9 	bhi.w	44ca <mbedtls_mpi_exp_mod+0x23a>
/mnt/disk/raspbian-tee/optee_os/lib/libmbedtls/mbedtls/library/bignum.c:1713 (discriminator 5)
    4318:	2817      	cmp	r0, #23
    431a:	f04f 0303 	mov.w	r3, #3
    431e:	bf98      	it	ls
    4320:	2301      	movls	r3, #1
/mnt/disk/raspbian-tee/optee_os/lib/libmbedtls/mbedtls/library/bignum.c:1719
    4322:	88a2      	ldrh	r2, [r4, #4]
/mnt/disk/raspbian-tee/optee_os/lib/libmbedtls/mbedtls/library/bignum.c:1720
    4324:	4658      	mov	r0, fp
/mnt/disk/raspbian-tee/optee_os/lib/libmbedtls/mbedtls/library/bignum.c:1713
    4326:	9302      	str	r3, [sp, #8]
/mnt/disk/raspbian-tee/optee_os/lib/libmbedtls/mbedtls/library/bignum.c:1719
    4328:	1c57      	adds	r7, r2, #1
/mnt/disk/raspbian-tee/optee_os/lib/libmbedtls/mbedtls/library/bignum.c:1720
    432a:	4639      	mov	r1, r7
    432c:	f7fe fe4c 	bl	2fc8 <mbedtls_mpi_grow>
    4330:	4603      	mov	r3, r0
    4332:	2800      	cmp	r0, #0
    4334:	f040 819f 	bne.w	4676 <mbedtls_mpi_exp_mod+0x3e6>
/mnt/disk/raspbian-tee/optee_os/lib/libmbedtls/mbedtls/library/bignum.c:1721
    4338:	f10d 0a54 	add.w	sl, sp, #84	; 0x54
    433c:	4639      	mov	r1, r7
    433e:	4650      	mov	r0, sl
    4340:	f7fe fe42 	bl	2fc8 <mbedtls_mpi_grow>
    4344:	4603      	mov	r3, r0
    4346:	2800      	cmp	r0, #0
    4348:	f040 8195 	bne.w	4676 <mbedtls_mpi_exp_mod+0x3e6>
/mnt/disk/raspbian-tee/optee_os/lib/libmbedtls/mbedtls/library/bignum.c:1722
    434c:	0079      	lsls	r1, r7, #1
    434e:	9804      	ldr	r0, [sp, #16]
    4350:	f7fe fe3a 	bl	2fc8 <mbedtls_mpi_grow>
    4354:	4603      	mov	r3, r0
    4356:	2800      	cmp	r0, #0
    4358:	f040 818d 	bne.w	4676 <mbedtls_mpi_exp_mod+0x3e6>
/mnt/disk/raspbian-tee/optee_os/lib/libmbedtls/mbedtls/library/bignum.c:1727
    435c:	f996 3000 	ldrsb.w	r3, [r6]
    4360:	9305      	str	r3, [sp, #20]
/mnt/disk/raspbian-tee/optee_os/lib/libmbedtls/mbedtls/library/bignum.c:1728
    4362:	3301      	adds	r3, #1
    4364:	d10b      	bne.n	437e <mbedtls_mpi_exp_mod+0xee>
/mnt/disk/raspbian-tee/optee_os/lib/libmbedtls/mbedtls/library/bignum.c:1730
    4366:	4631      	mov	r1, r6
    4368:	4640      	mov	r0, r8
    436a:	f7fe fee7 	bl	313c <mbedtls_mpi_copy>
    436e:	4603      	mov	r3, r0
    4370:	2800      	cmp	r0, #0
    4372:	f040 8180 	bne.w	4676 <mbedtls_mpi_exp_mod+0x3e6>
/mnt/disk/raspbian-tee/optee_os/lib/libmbedtls/mbedtls/library/bignum.c:1732
    4376:	4646      	mov	r6, r8
/mnt/disk/raspbian-tee/optee_os/lib/libmbedtls/mbedtls/library/bignum.c:1731
    4378:	2301      	movs	r3, #1
    437a:	f888 3000 	strb.w	r3, [r8]
/mnt/disk/raspbian-tee/optee_os/lib/libmbedtls/mbedtls/library/bignum.c:1738
    437e:	f8dd 3670 	ldr.w	r3, [sp, #1648]	; 0x670
    4382:	b11b      	cbz	r3, 438c <mbedtls_mpi_exp_mod+0xfc>
/mnt/disk/raspbian-tee/optee_os/lib/libmbedtls/mbedtls/library/bignum.c:1738 (discriminator 1)
    4384:	689b      	ldr	r3, [r3, #8]
    4386:	2b00      	cmp	r3, #0
    4388:	f040 80a1 	bne.w	44ce <mbedtls_mpi_exp_mod+0x23e>
/mnt/disk/raspbian-tee/optee_os/lib/libmbedtls/mbedtls/library/bignum.c:1740
    438c:	2101      	movs	r1, #1
    438e:	4628      	mov	r0, r5
    4390:	f7fe ff8f 	bl	32b2 <mbedtls_mpi_lset>
    4394:	4603      	mov	r3, r0
    4396:	2800      	cmp	r0, #0
    4398:	f040 816d 	bne.w	4676 <mbedtls_mpi_exp_mod+0x3e6>
/mnt/disk/raspbian-tee/optee_os/lib/libmbedtls/mbedtls/library/bignum.c:1741
    439c:	88a1      	ldrh	r1, [r4, #4]
    439e:	4628      	mov	r0, r5
    43a0:	0189      	lsls	r1, r1, #6
    43a2:	f7ff f86e 	bl	3482 <mbedtls_mpi_shift_l>
    43a6:	4603      	mov	r3, r0
    43a8:	2800      	cmp	r0, #0
    43aa:	f040 8164 	bne.w	4676 <mbedtls_mpi_exp_mod+0x3e6>
/mnt/disk/raspbian-tee/optee_os/lib/libmbedtls/mbedtls/library/bignum.c:1742
    43ae:	4622      	mov	r2, r4
    43b0:	4629      	mov	r1, r5
    43b2:	4628      	mov	r0, r5
    43b4:	f7ff fd9a 	bl	3eec <mbedtls_mpi_mod_mpi>
    43b8:	4603      	mov	r3, r0
    43ba:	2800      	cmp	r0, #0
    43bc:	f040 815b 	bne.w	4676 <mbedtls_mpi_exp_mod+0x3e6>
/mnt/disk/raspbian-tee/optee_os/lib/libmbedtls/mbedtls/library/bignum.c:1744
    43c0:	f8dd 3670 	ldr.w	r3, [sp, #1648]	; 0x670
    43c4:	b123      	cbz	r3, 43d0 <mbedtls_mpi_exp_mod+0x140>
/mnt/disk/raspbian-tee/optee_os/lib/libmbedtls/mbedtls/library/bignum.c:1745
    43c6:	220c      	movs	r2, #12
    43c8:	4629      	mov	r1, r5
    43ca:	4618      	mov	r0, r3
/mnt/disk/raspbian-tee/optee_os/lib/libmbedtls/mbedtls/library/bignum.c:1748
    43cc:	f001 fe8b 	bl	60e6 <memcpy>
/mnt/disk/raspbian-tee/optee_os/lib/libmbedtls/mbedtls/library/bignum.c:1753
    43d0:	4621      	mov	r1, r4
    43d2:	4630      	mov	r0, r6
    43d4:	f7ff f914 	bl	3600 <mbedtls_mpi_cmp_mpi>
    43d8:	2800      	cmp	r0, #0
    43da:	db7d      	blt.n	44d8 <mbedtls_mpi_exp_mod+0x248>
/mnt/disk/raspbian-tee/optee_os/lib/libmbedtls/mbedtls/library/bignum.c:1754
    43dc:	4622      	mov	r2, r4
    43de:	4631      	mov	r1, r6
    43e0:	4650      	mov	r0, sl
    43e2:	f7ff fd83 	bl	3eec <mbedtls_mpi_mod_mpi>
    43e6:	4603      	mov	r3, r0
    43e8:	2800      	cmp	r0, #0
    43ea:	f040 8144 	bne.w	4676 <mbedtls_mpi_exp_mod+0x3e6>
/mnt/disk/raspbian-tee/optee_os/lib/libmbedtls/mbedtls/library/bignum.c:1758
    43ee:	ab0c      	add	r3, sp, #48	; 0x30
    43f0:	9300      	str	r3, [sp, #0]
    43f2:	f10d 0854 	add.w	r8, sp, #84	; 0x54
    43f6:	9304      	str	r3, [sp, #16]
    43f8:	4622      	mov	r2, r4
    43fa:	f8d9 3000 	ldr.w	r3, [r9]
    43fe:	4629      	mov	r1, r5
    4400:	4640      	mov	r0, r8
    4402:	f7ff fed1 	bl	41a8 <mbedtls_mpi_montmul>
    4406:	4603      	mov	r3, r0
    4408:	2800      	cmp	r0, #0
    440a:	f040 8134 	bne.w	4676 <mbedtls_mpi_exp_mod+0x3e6>
/mnt/disk/raspbian-tee/optee_os/lib/libmbedtls/mbedtls/library/bignum.c:1763
    440e:	4629      	mov	r1, r5
    4410:	4658      	mov	r0, fp
    4412:	f7fe fe93 	bl	313c <mbedtls_mpi_copy>
    4416:	4603      	mov	r3, r0
    4418:	2800      	cmp	r0, #0
    441a:	f040 812c 	bne.w	4676 <mbedtls_mpi_exp_mod+0x3e6>
/mnt/disk/raspbian-tee/optee_os/lib/libmbedtls/mbedtls/library/bignum.c:1764
    441e:	9b04      	ldr	r3, [sp, #16]
    4420:	4621      	mov	r1, r4
    4422:	f8d9 2000 	ldr.w	r2, [r9]
    4426:	4658      	mov	r0, fp
    4428:	f7ff ff20 	bl	426c <mbedtls_mpi_montred>
    442c:	4603      	mov	r3, r0
    442e:	2800      	cmp	r0, #0
    4430:	f040 8121 	bne.w	4676 <mbedtls_mpi_exp_mod+0x3e6>
/mnt/disk/raspbian-tee/optee_os/lib/libmbedtls/mbedtls/library/bignum.c:1766
    4434:	9b02      	ldr	r3, [sp, #8]
    4436:	2b01      	cmp	r3, #1
    4438:	d153      	bne.n	44e2 <mbedtls_mpi_exp_mod+0x252>
/mnt/disk/raspbian-tee/optee_os/lib/libmbedtls/mbedtls/library/bignum.c:1791
    443a:	9b03      	ldr	r3, [sp, #12]
/mnt/disk/raspbian-tee/optee_os/lib/libmbedtls/mbedtls/library/bignum.c:1795
    443c:	2600      	movs	r6, #0
/mnt/disk/raspbian-tee/optee_os/lib/libmbedtls/mbedtls/library/bignum.c:1793
    443e:	46b2      	mov	sl, r6
/mnt/disk/raspbian-tee/optee_os/lib/libmbedtls/mbedtls/library/bignum.c:1792
    4440:	4637      	mov	r7, r6
/mnt/disk/raspbian-tee/optee_os/lib/libmbedtls/mbedtls/library/bignum.c:1794
    4442:	4635      	mov	r5, r6
/mnt/disk/raspbian-tee/optee_os/lib/libmbedtls/mbedtls/library/bignum.c:1842
    4444:	f10d 0920 	add.w	r9, sp, #32
/mnt/disk/raspbian-tee/optee_os/lib/libmbedtls/mbedtls/library/bignum.c:1791
    4448:	f8b3 8004 	ldrh.w	r8, [r3, #4]
/mnt/disk/raspbian-tee/optee_os/lib/libmbedtls/mbedtls/library/bignum.c:1842
    444c:	ab0c      	add	r3, sp, #48	; 0x30
    444e:	9306      	str	r3, [sp, #24]
/mnt/disk/raspbian-tee/optee_os/lib/libmbedtls/mbedtls/library/bignum.c:1847
    4450:	ab12      	add	r3, sp, #72	; 0x48
    4452:	9307      	str	r3, [sp, #28]
/mnt/disk/raspbian-tee/optee_os/lib/libmbedtls/mbedtls/library/bignum.c:1799
    4454:	2f00      	cmp	r7, #0
    4456:	f040 80ac 	bne.w	45b2 <mbedtls_mpi_exp_mod+0x322>
/mnt/disk/raspbian-tee/optee_os/lib/libmbedtls/mbedtls/library/bignum.c:1801
    445a:	f1b8 0f00 	cmp.w	r8, #0
    445e:	f040 80a5 	bne.w	45ac <mbedtls_mpi_exp_mod+0x31c>
/mnt/disk/raspbian-tee/optee_os/lib/libmbedtls/mbedtls/library/bignum.c:1864
    4462:	9b02      	ldr	r3, [sp, #8]
    4464:	2701      	movs	r7, #1
    4466:	ae08      	add	r6, sp, #32
/mnt/disk/raspbian-tee/optee_os/lib/libmbedtls/mbedtls/library/bignum.c:1865
    4468:	f10d 0954 	add.w	r9, sp, #84	; 0x54
/mnt/disk/raspbian-tee/optee_os/lib/libmbedtls/mbedtls/library/bignum.c:1864
    446c:	fa07 f303 	lsl.w	r3, r7, r3
/mnt/disk/raspbian-tee/optee_os/lib/libmbedtls/mbedtls/library/bignum.c:1860
    4470:	af0c      	add	r7, sp, #48	; 0x30
/mnt/disk/raspbian-tee/optee_os/lib/libmbedtls/mbedtls/library/bignum.c:1864
    4472:	9306      	str	r3, [sp, #24]
/mnt/disk/raspbian-tee/optee_os/lib/libmbedtls/mbedtls/library/bignum.c:1858 (discriminator 1)
    4474:	45d0      	cmp	r8, sl
    4476:	f040 80e4 	bne.w	4642 <mbedtls_mpi_exp_mod+0x3b2>
/mnt/disk/raspbian-tee/optee_os/lib/libmbedtls/mbedtls/library/bignum.c:1871
    447a:	9b04      	ldr	r3, [sp, #16]
    447c:	4621      	mov	r1, r4
    447e:	6832      	ldr	r2, [r6, #0]
    4480:	4658      	mov	r0, fp
    4482:	f7ff fef3 	bl	426c <mbedtls_mpi_montred>
    4486:	4603      	mov	r3, r0
    4488:	2800      	cmp	r0, #0
    448a:	f040 80f4 	bne.w	4676 <mbedtls_mpi_exp_mod+0x3e6>
/mnt/disk/raspbian-tee/optee_os/lib/libmbedtls/mbedtls/library/bignum.c:1873
    448e:	9a05      	ldr	r2, [sp, #20]
    4490:	3201      	adds	r2, #1
    4492:	f040 80f0 	bne.w	4676 <mbedtls_mpi_exp_mod+0x3e6>
/mnt/disk/raspbian-tee/optee_os/lib/libmbedtls/mbedtls/library/bignum.c:1873 (discriminator 1)
    4496:	9a03      	ldr	r2, [sp, #12]
    4498:	8892      	ldrh	r2, [r2, #4]
    449a:	2a00      	cmp	r2, #0
    449c:	f000 80eb 	beq.w	4676 <mbedtls_mpi_exp_mod+0x3e6>
/mnt/disk/raspbian-tee/optee_os/lib/libmbedtls/mbedtls/library/bignum.c:1873 (discriminator 2)
    44a0:	9a03      	ldr	r2, [sp, #12]
    44a2:	6892      	ldr	r2, [r2, #8]
    44a4:	6812      	ldr	r2, [r2, #0]
    44a6:	07d2      	lsls	r2, r2, #31
    44a8:	f140 80e5 	bpl.w	4676 <mbedtls_mpi_exp_mod+0x3e6>
/mnt/disk/raspbian-tee/optee_os/lib/libmbedtls/mbedtls/library/bignum.c:1875
    44ac:	f89d 3014 	ldrb.w	r3, [sp, #20]
/mnt/disk/raspbian-tee/optee_os/lib/libmbedtls/mbedtls/library/bignum.c:1876
    44b0:	465a      	mov	r2, fp
/mnt/disk/raspbian-tee/optee_os/lib/libmbedtls/mbedtls/library/bignum.c:1875
    44b2:	f88b 3000 	strb.w	r3, [fp]
/mnt/disk/raspbian-tee/optee_os/lib/libmbedtls/mbedtls/library/bignum.c:1876
    44b6:	4621      	mov	r1, r4
    44b8:	4658      	mov	r0, fp
    44ba:	f7ff f9a2 	bl	3802 <mbedtls_mpi_add_mpi>
    44be:	4603      	mov	r3, r0
    44c0:	e0d9      	b.n	4676 <mbedtls_mpi_exp_mod+0x3e6>
/mnt/disk/raspbian-tee/optee_os/lib/libmbedtls/mbedtls/library/bignum.c:1713
    44c2:	2306      	movs	r3, #6
    44c4:	e72d      	b.n	4322 <mbedtls_mpi_exp_mod+0x92>
    44c6:	2305      	movs	r3, #5
    44c8:	e72b      	b.n	4322 <mbedtls_mpi_exp_mod+0x92>
    44ca:	2304      	movs	r3, #4
    44cc:	e729      	b.n	4322 <mbedtls_mpi_exp_mod+0x92>
/mnt/disk/raspbian-tee/optee_os/lib/libmbedtls/mbedtls/library/bignum.c:1748
    44ce:	220c      	movs	r2, #12
    44d0:	f8dd 1670 	ldr.w	r1, [sp, #1648]	; 0x670
    44d4:	4628      	mov	r0, r5
    44d6:	e779      	b.n	43cc <mbedtls_mpi_exp_mod+0x13c>
/mnt/disk/raspbian-tee/optee_os/lib/libmbedtls/mbedtls/library/bignum.c:1756
    44d8:	4631      	mov	r1, r6
    44da:	4650      	mov	r0, sl
    44dc:	f7fe fe2e 	bl	313c <mbedtls_mpi_copy>
    44e0:	e781      	b.n	43e6 <mbedtls_mpi_exp_mod+0x156>
/mnt/disk/raspbian-tee/optee_os/lib/libmbedtls/mbedtls/library/bignum.c:1771
    44e2:	9b02      	ldr	r3, [sp, #8]
    44e4:	250c      	movs	r5, #12
/mnt/disk/raspbian-tee/optee_os/lib/libmbedtls/mbedtls/library/bignum.c:1773
    44e6:	88a1      	ldrh	r1, [r4, #4]
/mnt/disk/raspbian-tee/optee_os/lib/libmbedtls/mbedtls/library/bignum.c:1771
    44e8:	2601      	movs	r6, #1
    44ea:	f103 39ff 	add.w	r9, r3, #4294967295	; 0xffffffff
/mnt/disk/raspbian-tee/optee_os/lib/libmbedtls/mbedtls/library/bignum.c:1773
    44ee:	9b06      	ldr	r3, [sp, #24]
    44f0:	3101      	adds	r1, #1
    44f2:	fa05 f509 	lsl.w	r5, r5, r9
    44f6:	442b      	add	r3, r5
/mnt/disk/raspbian-tee/optee_os/lib/libmbedtls/mbedtls/library/bignum.c:1771
    44f8:	fa06 f609 	lsl.w	r6, r6, r9
/mnt/disk/raspbian-tee/optee_os/lib/libmbedtls/mbedtls/library/bignum.c:1773
    44fc:	4618      	mov	r0, r3
    44fe:	461f      	mov	r7, r3
    4500:	f7fe fd62 	bl	2fc8 <mbedtls_mpi_grow>
    4504:	4603      	mov	r3, r0
    4506:	2800      	cmp	r0, #0
    4508:	f040 80b5 	bne.w	4676 <mbedtls_mpi_exp_mod+0x3e6>
/mnt/disk/raspbian-tee/optee_os/lib/libmbedtls/mbedtls/library/bignum.c:1774
    450c:	4641      	mov	r1, r8
    450e:	4638      	mov	r0, r7
    4510:	f7fe fe14 	bl	313c <mbedtls_mpi_copy>
    4514:	4603      	mov	r3, r0
    4516:	2800      	cmp	r0, #0
    4518:	f040 80ad 	bne.w	4676 <mbedtls_mpi_exp_mod+0x3e6>
/mnt/disk/raspbian-tee/optee_os/lib/libmbedtls/mbedtls/library/bignum.c:1777
    451c:	9b04      	ldr	r3, [sp, #16]
    451e:	4680      	mov	r8, r0
    4520:	f10d 0a20 	add.w	sl, sp, #32
    4524:	9306      	str	r3, [sp, #24]
    4526:	9b06      	ldr	r3, [sp, #24]
    4528:	4622      	mov	r2, r4
    452a:	9300      	str	r3, [sp, #0]
    452c:	4639      	mov	r1, r7
    452e:	4638      	mov	r0, r7
    4530:	f8da 3000 	ldr.w	r3, [sl]
    4534:	f7ff fe38 	bl	41a8 <mbedtls_mpi_montmul>
    4538:	4603      	mov	r3, r0
    453a:	2800      	cmp	r0, #0
    453c:	f040 809b 	bne.w	4676 <mbedtls_mpi_exp_mod+0x3e6>
/mnt/disk/raspbian-tee/optee_os/lib/libmbedtls/mbedtls/library/bignum.c:1776 (discriminator 2)
    4540:	f108 0801 	add.w	r8, r8, #1
    4544:	45c1      	cmp	r9, r8
    4546:	d8ee      	bhi.n	4526 <mbedtls_mpi_exp_mod+0x296>
/mnt/disk/raspbian-tee/optee_os/lib/libmbedtls/mbedtls/library/bignum.c:1782
    4548:	9b02      	ldr	r3, [sp, #8]
    454a:	2701      	movs	r7, #1
    454c:	3601      	adds	r6, #1
/mnt/disk/raspbian-tee/optee_os/lib/libmbedtls/mbedtls/library/bignum.c:1787
    454e:	f10d 0820 	add.w	r8, sp, #32
    4552:	f10d 0954 	add.w	r9, sp, #84	; 0x54
/mnt/disk/raspbian-tee/optee_os/lib/libmbedtls/mbedtls/library/bignum.c:1782
    4556:	409f      	lsls	r7, r3
    4558:	f50d 63c9 	add.w	r3, sp, #1608	; 0x648
    455c:	441d      	add	r5, r3
    455e:	f2a5 55f4 	subw	r5, r5, #1524	; 0x5f4
/mnt/disk/raspbian-tee/optee_os/lib/libmbedtls/mbedtls/library/bignum.c:1782 (discriminator 1)
    4562:	42be      	cmp	r6, r7
    4564:	f4bf af69 	bcs.w	443a <mbedtls_mpi_exp_mod+0x1aa>
/mnt/disk/raspbian-tee/optee_os/lib/libmbedtls/mbedtls/library/bignum.c:1784
    4568:	88a1      	ldrh	r1, [r4, #4]
    456a:	4628      	mov	r0, r5
    456c:	3101      	adds	r1, #1
    456e:	f7fe fd2b 	bl	2fc8 <mbedtls_mpi_grow>
    4572:	4603      	mov	r3, r0
    4574:	2800      	cmp	r0, #0
    4576:	d17e      	bne.n	4676 <mbedtls_mpi_exp_mod+0x3e6>
/mnt/disk/raspbian-tee/optee_os/lib/libmbedtls/mbedtls/library/bignum.c:1785
    4578:	f1a5 010c 	sub.w	r1, r5, #12
    457c:	4628      	mov	r0, r5
    457e:	f7fe fddd 	bl	313c <mbedtls_mpi_copy>
    4582:	4603      	mov	r3, r0
    4584:	2800      	cmp	r0, #0
    4586:	d176      	bne.n	4676 <mbedtls_mpi_exp_mod+0x3e6>
/mnt/disk/raspbian-tee/optee_os/lib/libmbedtls/mbedtls/library/bignum.c:1787
    4588:	9b04      	ldr	r3, [sp, #16]
    458a:	4628      	mov	r0, r5
    458c:	9300      	str	r3, [sp, #0]
    458e:	4622      	mov	r2, r4
    4590:	4649      	mov	r1, r9
    4592:	350c      	adds	r5, #12
    4594:	f8d8 3000 	ldr.w	r3, [r8]
    4598:	f7ff fe06 	bl	41a8 <mbedtls_mpi_montmul>
    459c:	4603      	mov	r3, r0
    459e:	2800      	cmp	r0, #0
    45a0:	d169      	bne.n	4676 <mbedtls_mpi_exp_mod+0x3e6>
/mnt/disk/raspbian-tee/optee_os/lib/libmbedtls/mbedtls/library/bignum.c:1782 (discriminator 2)
    45a2:	3601      	adds	r6, #1
    45a4:	e7dd      	b.n	4562 <mbedtls_mpi_exp_mod+0x2d2>
/mnt/disk/raspbian-tee/optee_os/lib/libmbedtls/mbedtls/library/bignum.c:1831
    45a6:	2202      	movs	r2, #2
/mnt/disk/raspbian-tee/optee_os/lib/libmbedtls/mbedtls/library/bignum.c:1851
    45a8:	4616      	mov	r6, r2
    45aa:	e753      	b.n	4454 <mbedtls_mpi_exp_mod+0x1c4>
/mnt/disk/raspbian-tee/optee_os/lib/libmbedtls/mbedtls/library/bignum.c:1804
    45ac:	f108 38ff 	add.w	r8, r8, #4294967295	; 0xffffffff
/mnt/disk/raspbian-tee/optee_os/lib/libmbedtls/mbedtls/library/bignum.c:1806
    45b0:	2720      	movs	r7, #32
/mnt/disk/raspbian-tee/optee_os/lib/libmbedtls/mbedtls/library/bignum.c:1811
    45b2:	9b03      	ldr	r3, [sp, #12]
/mnt/disk/raspbian-tee/optee_os/lib/libmbedtls/mbedtls/library/bignum.c:1809
    45b4:	3f01      	subs	r7, #1
/mnt/disk/raspbian-tee/optee_os/lib/libmbedtls/mbedtls/library/bignum.c:1811
    45b6:	689b      	ldr	r3, [r3, #8]
    45b8:	f853 3028 	ldr.w	r3, [r3, r8, lsl #2]
    45bc:	40fb      	lsrs	r3, r7
    45be:	f003 0301 	and.w	r3, r3, #1
/mnt/disk/raspbian-tee/optee_os/lib/libmbedtls/mbedtls/library/bignum.c:1816
    45c2:	ea56 0203 	orrs.w	r2, r6, r3
    45c6:	d0ef      	beq.n	45a8 <mbedtls_mpi_exp_mod+0x318>
/mnt/disk/raspbian-tee/optee_os/lib/libmbedtls/mbedtls/library/bignum.c:1819
    45c8:	b97b      	cbnz	r3, 45ea <mbedtls_mpi_exp_mod+0x35a>
/mnt/disk/raspbian-tee/optee_os/lib/libmbedtls/mbedtls/library/bignum.c:1819 (discriminator 1)
    45ca:	2e01      	cmp	r6, #1
    45cc:	d10d      	bne.n	45ea <mbedtls_mpi_exp_mod+0x35a>
/mnt/disk/raspbian-tee/optee_os/lib/libmbedtls/mbedtls/library/bignum.c:1824
    45ce:	9b06      	ldr	r3, [sp, #24]
    45d0:	4622      	mov	r2, r4
    45d2:	9300      	str	r3, [sp, #0]
    45d4:	4659      	mov	r1, fp
    45d6:	4658      	mov	r0, fp
    45d8:	f8d9 3000 	ldr.w	r3, [r9]
    45dc:	f7ff fde4 	bl	41a8 <mbedtls_mpi_montmul>
    45e0:	4603      	mov	r3, r0
    45e2:	2800      	cmp	r0, #0
    45e4:	d147      	bne.n	4676 <mbedtls_mpi_exp_mod+0x3e6>
    45e6:	4632      	mov	r2, r6
    45e8:	e7de      	b.n	45a8 <mbedtls_mpi_exp_mod+0x318>
/mnt/disk/raspbian-tee/optee_os/lib/libmbedtls/mbedtls/library/bignum.c:1834
    45ea:	9a02      	ldr	r2, [sp, #8]
/mnt/disk/raspbian-tee/optee_os/lib/libmbedtls/mbedtls/library/bignum.c:1833
    45ec:	f10a 0a01 	add.w	sl, sl, #1
/mnt/disk/raspbian-tee/optee_os/lib/libmbedtls/mbedtls/library/bignum.c:1834
    45f0:	eba2 020a 	sub.w	r2, r2, sl
    45f4:	4093      	lsls	r3, r2
    45f6:	431d      	orrs	r5, r3
/mnt/disk/raspbian-tee/optee_os/lib/libmbedtls/mbedtls/library/bignum.c:1836
    45f8:	9b02      	ldr	r3, [sp, #8]
    45fa:	4553      	cmp	r3, sl
    45fc:	d1d3      	bne.n	45a6 <mbedtls_mpi_exp_mod+0x316>
    45fe:	2600      	movs	r6, #0
/mnt/disk/raspbian-tee/optee_os/lib/libmbedtls/mbedtls/library/bignum.c:1842
    4600:	9b06      	ldr	r3, [sp, #24]
    4602:	4622      	mov	r2, r4
    4604:	9300      	str	r3, [sp, #0]
    4606:	4659      	mov	r1, fp
    4608:	4658      	mov	r0, fp
    460a:	f8d9 3000 	ldr.w	r3, [r9]
    460e:	f7ff fdcb 	bl	41a8 <mbedtls_mpi_montmul>
    4612:	4603      	mov	r3, r0
    4614:	bb78      	cbnz	r0, 4676 <mbedtls_mpi_exp_mod+0x3e6>
/mnt/disk/raspbian-tee/optee_os/lib/libmbedtls/mbedtls/library/bignum.c:1841 (discriminator 2)
    4616:	9b02      	ldr	r3, [sp, #8]
    4618:	3601      	adds	r6, #1
    461a:	42b3      	cmp	r3, r6
    461c:	d8f0      	bhi.n	4600 <mbedtls_mpi_exp_mod+0x370>
/mnt/disk/raspbian-tee/optee_os/lib/libmbedtls/mbedtls/library/bignum.c:1847
    461e:	9807      	ldr	r0, [sp, #28]
    4620:	210c      	movs	r1, #12
    4622:	9b06      	ldr	r3, [sp, #24]
    4624:	4622      	mov	r2, r4
    4626:	9300      	str	r3, [sp, #0]
    4628:	fb01 0105 	mla	r1, r1, r5, r0
    462c:	f8d9 3000 	ldr.w	r3, [r9]
    4630:	4658      	mov	r0, fp
    4632:	f7ff fdb9 	bl	41a8 <mbedtls_mpi_montmul>
    4636:	4603      	mov	r3, r0
    4638:	b9e8      	cbnz	r0, 4676 <mbedtls_mpi_exp_mod+0x3e6>
/mnt/disk/raspbian-tee/optee_os/lib/libmbedtls/mbedtls/library/bignum.c:1849
    463a:	2201      	movs	r2, #1
/mnt/disk/raspbian-tee/optee_os/lib/libmbedtls/mbedtls/library/bignum.c:1850
    463c:	4605      	mov	r5, r0
/mnt/disk/raspbian-tee/optee_os/lib/libmbedtls/mbedtls/library/bignum.c:1851
    463e:	4682      	mov	sl, r0
    4640:	e7b2      	b.n	45a8 <mbedtls_mpi_exp_mod+0x318>
/mnt/disk/raspbian-tee/optee_os/lib/libmbedtls/mbedtls/library/bignum.c:1860
    4642:	9700      	str	r7, [sp, #0]
    4644:	4622      	mov	r2, r4
    4646:	4659      	mov	r1, fp
    4648:	4658      	mov	r0, fp
    464a:	6833      	ldr	r3, [r6, #0]
    464c:	f7ff fdac 	bl	41a8 <mbedtls_mpi_montmul>
    4650:	4603      	mov	r3, r0
    4652:	b980      	cbnz	r0, 4676 <mbedtls_mpi_exp_mod+0x3e6>
/mnt/disk/raspbian-tee/optee_os/lib/libmbedtls/mbedtls/library/bignum.c:1864
    4654:	9b06      	ldr	r3, [sp, #24]
/mnt/disk/raspbian-tee/optee_os/lib/libmbedtls/mbedtls/library/bignum.c:1862
    4656:	006d      	lsls	r5, r5, #1
/mnt/disk/raspbian-tee/optee_os/lib/libmbedtls/mbedtls/library/bignum.c:1864
    4658:	421d      	tst	r5, r3
    465a:	d102      	bne.n	4662 <mbedtls_mpi_exp_mod+0x3d2>
/mnt/disk/raspbian-tee/optee_os/lib/libmbedtls/mbedtls/library/bignum.c:1858
    465c:	f108 0801 	add.w	r8, r8, #1
    4660:	e708      	b.n	4474 <mbedtls_mpi_exp_mod+0x1e4>
/mnt/disk/raspbian-tee/optee_os/lib/libmbedtls/mbedtls/library/bignum.c:1865
    4662:	9700      	str	r7, [sp, #0]
    4664:	4622      	mov	r2, r4
    4666:	4649      	mov	r1, r9
    4668:	4658      	mov	r0, fp
    466a:	6833      	ldr	r3, [r6, #0]
    466c:	f7ff fd9c 	bl	41a8 <mbedtls_mpi_montmul>
    4670:	4603      	mov	r3, r0
    4672:	2800      	cmp	r0, #0
    4674:	d0f2      	beq.n	465c <mbedtls_mpi_exp_mod+0x3cc>
/mnt/disk/raspbian-tee/optee_os/lib/libmbedtls/mbedtls/library/bignum.c:1881
    4676:	9a02      	ldr	r2, [sp, #8]
/mnt/disk/raspbian-tee/optee_os/lib/libmbedtls/mbedtls/library/bignum.c:1882
    4678:	ae12      	add	r6, sp, #72	; 0x48
/mnt/disk/raspbian-tee/optee_os/lib/libmbedtls/mbedtls/library/bignum.c:1881
    467a:	9902      	ldr	r1, [sp, #8]
/mnt/disk/raspbian-tee/optee_os/lib/libmbedtls/mbedtls/library/bignum.c:1882
    467c:	270c      	movs	r7, #12
/mnt/disk/raspbian-tee/optee_os/lib/libmbedtls/mbedtls/library/bignum.c:1881
    467e:	1e54      	subs	r4, r2, #1
    4680:	2201      	movs	r2, #1
    4682:	fa02 f404 	lsl.w	r4, r2, r4
    4686:	fa02 f501 	lsl.w	r5, r2, r1
    468a:	9302      	str	r3, [sp, #8]
/mnt/disk/raspbian-tee/optee_os/lib/libmbedtls/mbedtls/library/bignum.c:1881 (discriminator 1)
    468c:	42ac      	cmp	r4, r5
    468e:	d318      	bcc.n	46c2 <mbedtls_mpi_exp_mod+0x432>
/mnt/disk/raspbian-tee/optee_os/lib/libmbedtls/mbedtls/library/bignum.c:1884
    4690:	a815      	add	r0, sp, #84	; 0x54
    4692:	f7fe fc72 	bl	2f7a <mbedtls_mpi_free>
    4696:	a80c      	add	r0, sp, #48	; 0x30
    4698:	f7fe fc6f 	bl	2f7a <mbedtls_mpi_free>
    469c:	a80f      	add	r0, sp, #60	; 0x3c
    469e:	f7fe fc6c 	bl	2f7a <mbedtls_mpi_free>
/mnt/disk/raspbian-tee/optee_os/lib/libmbedtls/mbedtls/library/bignum.c:1886
    46a2:	f8dd 2670 	ldr.w	r2, [sp, #1648]	; 0x670
    46a6:	9b02      	ldr	r3, [sp, #8]
    46a8:	b10a      	cbz	r2, 46ae <mbedtls_mpi_exp_mod+0x41e>
/mnt/disk/raspbian-tee/optee_os/lib/libmbedtls/mbedtls/library/bignum.c:1886 (discriminator 1)
    46aa:	6892      	ldr	r2, [r2, #8]
    46ac:	b922      	cbnz	r2, 46b8 <mbedtls_mpi_exp_mod+0x428>
/mnt/disk/raspbian-tee/optee_os/lib/libmbedtls/mbedtls/library/bignum.c:1887
    46ae:	a809      	add	r0, sp, #36	; 0x24
    46b0:	9302      	str	r3, [sp, #8]
    46b2:	f7fe fc62 	bl	2f7a <mbedtls_mpi_free>
    46b6:	9b02      	ldr	r3, [sp, #8]
/mnt/disk/raspbian-tee/optee_os/lib/libmbedtls/mbedtls/library/bignum.c:1890
    46b8:	4618      	mov	r0, r3
    46ba:	f20d 6d4c 	addw	sp, sp, #1612	; 0x64c
    46be:	e8bd 8ff0 	ldmia.w	sp!, {r4, r5, r6, r7, r8, r9, sl, fp, pc}
/mnt/disk/raspbian-tee/optee_os/lib/libmbedtls/mbedtls/library/bignum.c:1882 (discriminator 3)
    46c2:	fb07 6004 	mla	r0, r7, r4, r6
/mnt/disk/raspbian-tee/optee_os/lib/libmbedtls/mbedtls/library/bignum.c:1881 (discriminator 3)
    46c6:	3401      	adds	r4, #1
/mnt/disk/raspbian-tee/optee_os/lib/libmbedtls/mbedtls/library/bignum.c:1882 (discriminator 3)
    46c8:	f7fe fc57 	bl	2f7a <mbedtls_mpi_free>
/mnt/disk/raspbian-tee/optee_os/lib/libmbedtls/mbedtls/library/bignum.c:1881 (discriminator 3)
    46cc:	9b02      	ldr	r3, [sp, #8]
    46ce:	e7dc      	b.n	468a <mbedtls_mpi_exp_mod+0x3fa>
/mnt/disk/raspbian-tee/optee_os/lib/libmbedtls/mbedtls/library/bignum.c:1698
    46d0:	f06f 0303 	mvn.w	r3, #3
    46d4:	e7f0      	b.n	46b8 <mbedtls_mpi_exp_mod+0x428>

000046d6 <mbedtls_mpi_gcd>:
mbedtls_mpi_gcd():
/mnt/disk/raspbian-tee/optee_os/lib/libmbedtls/mbedtls/library/bignum.c:1896
    46d6:	e92d 43f0 	stmdb	sp!, {r4, r5, r6, r7, r8, r9, lr}
    46da:	4681      	mov	r9, r0
    46dc:	4617      	mov	r7, r2
    46de:	b08b      	sub	sp, #44	; 0x2c
/mnt/disk/raspbian-tee/optee_os/lib/libmbedtls/mbedtls/library/bignum.c:1901
    46e0:	f10d 0804 	add.w	r8, sp, #4
    46e4:	ae04      	add	r6, sp, #16
    46e6:	4640      	mov	r0, r8
/mnt/disk/raspbian-tee/optee_os/lib/libmbedtls/mbedtls/library/bignum.c:1902
    46e8:	ad07      	add	r5, sp, #28
/mnt/disk/raspbian-tee/optee_os/lib/libmbedtls/mbedtls/library/bignum.c:1901
    46ea:	f7fe fc2a 	bl	2f42 <mbedtls_mpi_init_mempool>
    46ee:	4630      	mov	r0, r6
    46f0:	f7fe fc27 	bl	2f42 <mbedtls_mpi_init_mempool>
/mnt/disk/raspbian-tee/optee_os/lib/libmbedtls/mbedtls/library/bignum.c:1902
    46f4:	4628      	mov	r0, r5
    46f6:	f7fe fc24 	bl	2f42 <mbedtls_mpi_init_mempool>
/mnt/disk/raspbian-tee/optee_os/lib/libmbedtls/mbedtls/library/bignum.c:1904
    46fa:	4630      	mov	r0, r6
    46fc:	f7fe fd1e 	bl	313c <mbedtls_mpi_copy>
    4700:	4604      	mov	r4, r0
    4702:	2800      	cmp	r0, #0
    4704:	d159      	bne.n	47ba <mbedtls_mpi_gcd+0xe4>
/mnt/disk/raspbian-tee/optee_os/lib/libmbedtls/mbedtls/library/bignum.c:1905
    4706:	4639      	mov	r1, r7
    4708:	4628      	mov	r0, r5
    470a:	f7fe fd17 	bl	313c <mbedtls_mpi_copy>
    470e:	4604      	mov	r4, r0
    4710:	2800      	cmp	r0, #0
    4712:	d152      	bne.n	47ba <mbedtls_mpi_gcd+0xe4>
/mnt/disk/raspbian-tee/optee_os/lib/libmbedtls/mbedtls/library/bignum.c:1907
    4714:	4630      	mov	r0, r6
    4716:	f7fe fe20 	bl	335a <mbedtls_mpi_lsb>
    471a:	4607      	mov	r7, r0
/mnt/disk/raspbian-tee/optee_os/lib/libmbedtls/mbedtls/library/bignum.c:1908
    471c:	4628      	mov	r0, r5
    471e:	f7fe fe1c 	bl	335a <mbedtls_mpi_lsb>
    4722:	4287      	cmp	r7, r0
    4724:	bf28      	it	cs
    4726:	4607      	movcs	r7, r0
/mnt/disk/raspbian-tee/optee_os/lib/libmbedtls/mbedtls/library/bignum.c:1913
    4728:	4630      	mov	r0, r6
    472a:	4639      	mov	r1, r7
    472c:	f7fe fef5 	bl	351a <mbedtls_mpi_shift_r>
    4730:	4604      	mov	r4, r0
    4732:	2800      	cmp	r0, #0
    4734:	d141      	bne.n	47ba <mbedtls_mpi_gcd+0xe4>
/mnt/disk/raspbian-tee/optee_os/lib/libmbedtls/mbedtls/library/bignum.c:1914
    4736:	4639      	mov	r1, r7
    4738:	4628      	mov	r0, r5
    473a:	f7fe feee 	bl	351a <mbedtls_mpi_shift_r>
    473e:	4604      	mov	r4, r0
    4740:	bbd8      	cbnz	r0, 47ba <mbedtls_mpi_gcd+0xe4>
/mnt/disk/raspbian-tee/optee_os/lib/libmbedtls/mbedtls/library/bignum.c:1916
    4742:	2301      	movs	r3, #1
    4744:	f88d 301c 	strb.w	r3, [sp, #28]
    4748:	f88d 3010 	strb.w	r3, [sp, #16]
/mnt/disk/raspbian-tee/optee_os/lib/libmbedtls/mbedtls/library/bignum.c:1918
    474c:	2100      	movs	r1, #0
    474e:	4630      	mov	r0, r6
    4750:	f7fe ffa1 	bl	3696 <mbedtls_mpi_cmp_int>
    4754:	b958      	cbnz	r0, 476e <mbedtls_mpi_gcd+0x98>
/mnt/disk/raspbian-tee/optee_os/lib/libmbedtls/mbedtls/library/bignum.c:1935
    4756:	4639      	mov	r1, r7
    4758:	4628      	mov	r0, r5
    475a:	f7fe fe92 	bl	3482 <mbedtls_mpi_shift_l>
    475e:	4604      	mov	r4, r0
    4760:	bb58      	cbnz	r0, 47ba <mbedtls_mpi_gcd+0xe4>
/mnt/disk/raspbian-tee/optee_os/lib/libmbedtls/mbedtls/library/bignum.c:1936
    4762:	4629      	mov	r1, r5
    4764:	4648      	mov	r0, r9
    4766:	f7fe fce9 	bl	313c <mbedtls_mpi_copy>
    476a:	4604      	mov	r4, r0
    476c:	e025      	b.n	47ba <mbedtls_mpi_gcd+0xe4>
/mnt/disk/raspbian-tee/optee_os/lib/libmbedtls/mbedtls/library/bignum.c:1920
    476e:	4630      	mov	r0, r6
    4770:	f7fe fdf3 	bl	335a <mbedtls_mpi_lsb>
    4774:	4601      	mov	r1, r0
    4776:	4630      	mov	r0, r6
    4778:	f7fe fecf 	bl	351a <mbedtls_mpi_shift_r>
    477c:	4604      	mov	r4, r0
    477e:	b9e0      	cbnz	r0, 47ba <mbedtls_mpi_gcd+0xe4>
/mnt/disk/raspbian-tee/optee_os/lib/libmbedtls/mbedtls/library/bignum.c:1921
    4780:	4628      	mov	r0, r5
    4782:	f7fe fdea 	bl	335a <mbedtls_mpi_lsb>
    4786:	4601      	mov	r1, r0
    4788:	4628      	mov	r0, r5
    478a:	f7fe fec6 	bl	351a <mbedtls_mpi_shift_r>
    478e:	4604      	mov	r4, r0
    4790:	b998      	cbnz	r0, 47ba <mbedtls_mpi_gcd+0xe4>
/mnt/disk/raspbian-tee/optee_os/lib/libmbedtls/mbedtls/library/bignum.c:1923
    4792:	4629      	mov	r1, r5
    4794:	4630      	mov	r0, r6
    4796:	f7fe ff33 	bl	3600 <mbedtls_mpi_cmp_mpi>
    479a:	2800      	cmp	r0, #0
    479c:	db1a      	blt.n	47d4 <mbedtls_mpi_gcd+0xfe>
/mnt/disk/raspbian-tee/optee_os/lib/libmbedtls/mbedtls/library/bignum.c:1925
    479e:	462a      	mov	r2, r5
    47a0:	4631      	mov	r1, r6
    47a2:	4630      	mov	r0, r6
    47a4:	f7fe ffed 	bl	3782 <mbedtls_mpi_sub_abs>
    47a8:	4604      	mov	r4, r0
    47aa:	b930      	cbnz	r0, 47ba <mbedtls_mpi_gcd+0xe4>
/mnt/disk/raspbian-tee/optee_os/lib/libmbedtls/mbedtls/library/bignum.c:1926
    47ac:	2101      	movs	r1, #1
    47ae:	4630      	mov	r0, r6
/mnt/disk/raspbian-tee/optee_os/lib/libmbedtls/mbedtls/library/bignum.c:1931
    47b0:	f7fe feb3 	bl	351a <mbedtls_mpi_shift_r>
    47b4:	4604      	mov	r4, r0
    47b6:	2800      	cmp	r0, #0
    47b8:	d0c8      	beq.n	474c <mbedtls_mpi_gcd+0x76>
/mnt/disk/raspbian-tee/optee_os/lib/libmbedtls/mbedtls/library/bignum.c:1940
    47ba:	4640      	mov	r0, r8
    47bc:	f7fe fbdd 	bl	2f7a <mbedtls_mpi_free>
    47c0:	4630      	mov	r0, r6
    47c2:	f7fe fbda 	bl	2f7a <mbedtls_mpi_free>
    47c6:	4628      	mov	r0, r5
    47c8:	f7fe fbd7 	bl	2f7a <mbedtls_mpi_free>
/mnt/disk/raspbian-tee/optee_os/lib/libmbedtls/mbedtls/library/bignum.c:1943
    47cc:	4620      	mov	r0, r4
    47ce:	b00b      	add	sp, #44	; 0x2c
    47d0:	e8bd 83f0 	ldmia.w	sp!, {r4, r5, r6, r7, r8, r9, pc}
/mnt/disk/raspbian-tee/optee_os/lib/libmbedtls/mbedtls/library/bignum.c:1930
    47d4:	4632      	mov	r2, r6
    47d6:	4629      	mov	r1, r5
    47d8:	4628      	mov	r0, r5
    47da:	f7fe ffd2 	bl	3782 <mbedtls_mpi_sub_abs>
    47de:	4604      	mov	r4, r0
    47e0:	2800      	cmp	r0, #0
    47e2:	d1ea      	bne.n	47ba <mbedtls_mpi_gcd+0xe4>
/mnt/disk/raspbian-tee/optee_os/lib/libmbedtls/mbedtls/library/bignum.c:1931
    47e4:	2101      	movs	r1, #1
    47e6:	4628      	mov	r0, r5
    47e8:	e7e2      	b.n	47b0 <mbedtls_mpi_gcd+0xda>

000047ea <mbedtls_mpi_fill_random>:
mbedtls_mpi_fill_random():
/mnt/disk/raspbian-tee/optee_os/lib/libmbedtls/mbedtls/library/bignum.c:1955
    47ea:	b5f0      	push	{r4, r5, r6, r7, lr}
/mnt/disk/raspbian-tee/optee_os/lib/libmbedtls/mbedtls/library/bignum.c:1959
    47ec:	f5b1 6f80 	cmp.w	r1, #1024	; 0x400
/mnt/disk/raspbian-tee/optee_os/lib/libmbedtls/mbedtls/library/bignum.c:1955
    47f0:	4606      	mov	r6, r0
    47f2:	f2ad 4d04 	subw	sp, sp, #1028	; 0x404
    47f6:	460c      	mov	r4, r1
    47f8:	4617      	mov	r7, r2
/mnt/disk/raspbian-tee/optee_os/lib/libmbedtls/mbedtls/library/bignum.c:1959
    47fa:	d80c      	bhi.n	4816 <mbedtls_mpi_fill_random+0x2c>
/mnt/disk/raspbian-tee/optee_os/lib/libmbedtls/mbedtls/library/bignum.c:1962
    47fc:	460a      	mov	r2, r1
    47fe:	4618      	mov	r0, r3
    4800:	4669      	mov	r1, sp
    4802:	47b8      	blx	r7
    4804:	b920      	cbnz	r0, 4810 <mbedtls_mpi_fill_random+0x26>
/mnt/disk/raspbian-tee/optee_os/lib/libmbedtls/mbedtls/library/bignum.c:1963
    4806:	4622      	mov	r2, r4
    4808:	4669      	mov	r1, sp
    480a:	4630      	mov	r0, r6
    480c:	f7fe fde3 	bl	33d6 <mbedtls_mpi_read_binary>
/mnt/disk/raspbian-tee/optee_os/lib/libmbedtls/mbedtls/library/bignum.c:1967
    4810:	f20d 4d04 	addw	sp, sp, #1028	; 0x404
    4814:	bdf0      	pop	{r4, r5, r6, r7, pc}
/mnt/disk/raspbian-tee/optee_os/lib/libmbedtls/mbedtls/library/bignum.c:1960
    4816:	f06f 0003 	mvn.w	r0, #3
    481a:	e7f9      	b.n	4810 <mbedtls_mpi_fill_random+0x26>

0000481c <mpi_miller_rabin>:
mpi_miller_rabin():
/mnt/disk/raspbian-tee/optee_os/lib/libmbedtls/mbedtls/library/bignum.c:2132
    481c:	e92d 4ff0 	stmdb	sp!, {r4, r5, r6, r7, r8, r9, sl, fp, lr}
    4820:	4607      	mov	r7, r0
    4822:	b097      	sub	sp, #92	; 0x5c
/mnt/disk/raspbian-tee/optee_os/lib/libmbedtls/mbedtls/library/bignum.c:2137
    4824:	ad07      	add	r5, sp, #28
    4826:	f10d 0828 	add.w	r8, sp, #40	; 0x28
    482a:	4628      	mov	r0, r5
/mnt/disk/raspbian-tee/optee_os/lib/libmbedtls/mbedtls/library/bignum.c:2132
    482c:	9103      	str	r1, [sp, #12]
    482e:	9204      	str	r2, [sp, #16]
/mnt/disk/raspbian-tee/optee_os/lib/libmbedtls/mbedtls/library/bignum.c:2137
    4830:	f7fe fb87 	bl	2f42 <mbedtls_mpi_init_mempool>
    4834:	4640      	mov	r0, r8
    4836:	f7fe fb84 	bl	2f42 <mbedtls_mpi_init_mempool>
/mnt/disk/raspbian-tee/optee_os/lib/libmbedtls/mbedtls/library/bignum.c:2138
    483a:	a80d      	add	r0, sp, #52	; 0x34
    483c:	f7fe fb81 	bl	2f42 <mbedtls_mpi_init_mempool>
    4840:	a810      	add	r0, sp, #64	; 0x40
    4842:	f7fe fb7e 	bl	2f42 <mbedtls_mpi_init_mempool>
/mnt/disk/raspbian-tee/optee_os/lib/libmbedtls/mbedtls/library/bignum.c:2139
    4846:	a813      	add	r0, sp, #76	; 0x4c
    4848:	f7fe fb7b 	bl	2f42 <mbedtls_mpi_init_mempool>
/mnt/disk/raspbian-tee/optee_os/lib/libmbedtls/mbedtls/library/bignum.c:2145
    484c:	2201      	movs	r2, #1
    484e:	4639      	mov	r1, r7
    4850:	4628      	mov	r0, r5
    4852:	f7ff f838 	bl	38c6 <mbedtls_mpi_sub_int>
    4856:	4683      	mov	fp, r0
    4858:	2800      	cmp	r0, #0
    485a:	d178      	bne.n	494e <mpi_miller_rabin+0x132>
/mnt/disk/raspbian-tee/optee_os/lib/libmbedtls/mbedtls/library/bignum.c:2146
    485c:	4628      	mov	r0, r5
    485e:	f7fe fd7c 	bl	335a <mbedtls_mpi_lsb>
/mnt/disk/raspbian-tee/optee_os/lib/libmbedtls/mbedtls/library/bignum.c:2147
    4862:	4629      	mov	r1, r5
/mnt/disk/raspbian-tee/optee_os/lib/libmbedtls/mbedtls/library/bignum.c:2146
    4864:	9002      	str	r0, [sp, #8]
/mnt/disk/raspbian-tee/optee_os/lib/libmbedtls/mbedtls/library/bignum.c:2147
    4866:	4640      	mov	r0, r8
    4868:	f7fe fc68 	bl	313c <mbedtls_mpi_copy>
    486c:	4683      	mov	fp, r0
    486e:	2800      	cmp	r0, #0
    4870:	d16d      	bne.n	494e <mpi_miller_rabin+0x132>
/mnt/disk/raspbian-tee/optee_os/lib/libmbedtls/mbedtls/library/bignum.c:2148
    4872:	9902      	ldr	r1, [sp, #8]
    4874:	4640      	mov	r0, r8
    4876:	f7fe fe50 	bl	351a <mbedtls_mpi_shift_r>
    487a:	4683      	mov	fp, r0
    487c:	2800      	cmp	r0, #0
    487e:	d166      	bne.n	494e <mpi_miller_rabin+0x132>
/mnt/disk/raspbian-tee/optee_os/lib/libmbedtls/mbedtls/library/bignum.c:2150
    4880:	4638      	mov	r0, r7
    4882:	f7fe fd81 	bl	3388 <mbedtls_mpi_bitlen>
/mnt/disk/raspbian-tee/optee_os/lib/libmbedtls/mbedtls/library/bignum.c:2154
    4886:	f240 5313 	movw	r3, #1299	; 0x513
    488a:	4298      	cmp	r0, r3
    488c:	d845      	bhi.n	491a <mpi_miller_rabin+0xfe>
/mnt/disk/raspbian-tee/optee_os/lib/libmbedtls/mbedtls/library/bignum.c:2154 (discriminator 1)
    488e:	f240 3351 	movw	r3, #849	; 0x351
    4892:	4298      	cmp	r0, r3
    4894:	d843      	bhi.n	491e <mpi_miller_rabin+0x102>
/mnt/disk/raspbian-tee/optee_os/lib/libmbedtls/mbedtls/library/bignum.c:2154 (discriminator 3)
    4896:	f240 2389 	movw	r3, #649	; 0x289
    489a:	4298      	cmp	r0, r3
    489c:	d841      	bhi.n	4922 <mpi_miller_rabin+0x106>
/mnt/disk/raspbian-tee/optee_os/lib/libmbedtls/mbedtls/library/bignum.c:2154 (discriminator 5)
    489e:	f5b0 7faf 	cmp.w	r0, #350	; 0x15e
    48a2:	d240      	bcs.n	4926 <mpi_miller_rabin+0x10a>
/mnt/disk/raspbian-tee/optee_os/lib/libmbedtls/mbedtls/library/bignum.c:2154 (discriminator 7)
    48a4:	28f9      	cmp	r0, #249	; 0xf9
    48a6:	d840      	bhi.n	492a <mpi_miller_rabin+0x10e>
/mnt/disk/raspbian-tee/optee_os/lib/libmbedtls/mbedtls/library/bignum.c:2154 (discriminator 9)
    48a8:	2896      	cmp	r0, #150	; 0x96
    48aa:	f04f 061b 	mov.w	r6, #27
    48ae:	bf28      	it	cs
    48b0:	2612      	movcs	r6, #18
/mnt/disk/raspbian-tee/optee_os/lib/libmbedtls/mbedtls/library/bignum.c:2158 (discriminator 24)
    48b2:	f04f 0900 	mov.w	r9, #0
/mnt/disk/raspbian-tee/optee_os/lib/libmbedtls/mbedtls/library/bignum.c:2163 (discriminator 24)
    48b6:	ac10      	add	r4, sp, #64	; 0x40
/mnt/disk/raspbian-tee/optee_os/lib/libmbedtls/mbedtls/library/bignum.c:2205 (discriminator 24)
    48b8:	ab0d      	add	r3, sp, #52	; 0x34
    48ba:	9305      	str	r3, [sp, #20]
/mnt/disk/raspbian-tee/optee_os/lib/libmbedtls/mbedtls/library/bignum.c:2163
    48bc:	88b9      	ldrh	r1, [r7, #4]
    48be:	4620      	mov	r0, r4
    48c0:	9b04      	ldr	r3, [sp, #16]
    48c2:	9a03      	ldr	r2, [sp, #12]
    48c4:	0089      	lsls	r1, r1, #2
    48c6:	f7ff ff90 	bl	47ea <mbedtls_mpi_fill_random>
    48ca:	4683      	mov	fp, r0
    48cc:	2800      	cmp	r0, #0
    48ce:	d13e      	bne.n	494e <mpi_miller_rabin+0x132>
/mnt/disk/raspbian-tee/optee_os/lib/libmbedtls/mbedtls/library/bignum.c:2165
    48d0:	4629      	mov	r1, r5
    48d2:	4620      	mov	r0, r4
    48d4:	f7fe fe94 	bl	3600 <mbedtls_mpi_cmp_mpi>
    48d8:	2800      	cmp	r0, #0
    48da:	da28      	bge.n	492e <mpi_miller_rabin+0x112>
/mnt/disk/raspbian-tee/optee_os/lib/libmbedtls/mbedtls/library/bignum.c:2170
    48dc:	9a12      	ldr	r2, [sp, #72]	; 0x48
    48de:	f44f 7a97 	mov.w	sl, #302	; 0x12e
    48e2:	6813      	ldr	r3, [r2, #0]
    48e4:	f043 0303 	orr.w	r3, r3, #3
    48e8:	6013      	str	r3, [r2, #0]
/mnt/disk/raspbian-tee/optee_os/lib/libmbedtls/mbedtls/library/bignum.c:2174
    48ea:	88b9      	ldrh	r1, [r7, #4]
    48ec:	4620      	mov	r0, r4
    48ee:	9b04      	ldr	r3, [sp, #16]
    48f0:	9a03      	ldr	r2, [sp, #12]
    48f2:	0089      	lsls	r1, r1, #2
    48f4:	f7ff ff79 	bl	47ea <mbedtls_mpi_fill_random>
    48f8:	4683      	mov	fp, r0
    48fa:	bb40      	cbnz	r0, 494e <mpi_miller_rabin+0x132>
/mnt/disk/raspbian-tee/optee_os/lib/libmbedtls/mbedtls/library/bignum.c:2176
    48fc:	4620      	mov	r0, r4
    48fe:	f7fe fd43 	bl	3388 <mbedtls_mpi_bitlen>
    4902:	4683      	mov	fp, r0
/mnt/disk/raspbian-tee/optee_os/lib/libmbedtls/mbedtls/library/bignum.c:2177
    4904:	4628      	mov	r0, r5
    4906:	f7fe fd3f 	bl	3388 <mbedtls_mpi_bitlen>
/mnt/disk/raspbian-tee/optee_os/lib/libmbedtls/mbedtls/library/bignum.c:2178
    490a:	4583      	cmp	fp, r0
    490c:	d832      	bhi.n	4974 <mpi_miller_rabin+0x158>
/mnt/disk/raspbian-tee/optee_os/lib/libmbedtls/mbedtls/library/bignum.c:2182
    490e:	f1ba 0a01 	subs.w	sl, sl, #1
    4912:	d138      	bne.n	4986 <mpi_miller_rabin+0x16a>
/mnt/disk/raspbian-tee/optee_os/lib/libmbedtls/mbedtls/library/bignum.c:2183
    4914:	f06f 0b0d 	mvn.w	fp, #13
    4918:	e019      	b.n	494e <mpi_miller_rabin+0x132>
/mnt/disk/raspbian-tee/optee_os/lib/libmbedtls/mbedtls/library/bignum.c:2154
    491a:	2602      	movs	r6, #2
    491c:	e7c9      	b.n	48b2 <mpi_miller_rabin+0x96>
    491e:	2603      	movs	r6, #3
    4920:	e7c7      	b.n	48b2 <mpi_miller_rabin+0x96>
    4922:	2604      	movs	r6, #4
    4924:	e7c5      	b.n	48b2 <mpi_miller_rabin+0x96>
    4926:	2608      	movs	r6, #8
    4928:	e7c3      	b.n	48b2 <mpi_miller_rabin+0x96>
    492a:	260c      	movs	r6, #12
    492c:	e7c1      	b.n	48b2 <mpi_miller_rabin+0x96>
/mnt/disk/raspbian-tee/optee_os/lib/libmbedtls/mbedtls/library/bignum.c:2167
    492e:	4620      	mov	r0, r4
    4930:	f7fe fd2a 	bl	3388 <mbedtls_mpi_bitlen>
    4934:	4682      	mov	sl, r0
    4936:	4628      	mov	r0, r5
    4938:	f7fe fd26 	bl	3388 <mbedtls_mpi_bitlen>
/mnt/disk/raspbian-tee/optee_os/lib/libmbedtls/mbedtls/library/bignum.c:2168
    493c:	f10a 0101 	add.w	r1, sl, #1
    4940:	1a09      	subs	r1, r1, r0
    4942:	4620      	mov	r0, r4
    4944:	f7fe fde9 	bl	351a <mbedtls_mpi_shift_r>
    4948:	4683      	mov	fp, r0
    494a:	2800      	cmp	r0, #0
    494c:	d0c6      	beq.n	48dc <mpi_miller_rabin+0xc0>
/mnt/disk/raspbian-tee/optee_os/lib/libmbedtls/mbedtls/library/bignum.c:2226
    494e:	4628      	mov	r0, r5
    4950:	f7fe fb13 	bl	2f7a <mbedtls_mpi_free>
    4954:	4640      	mov	r0, r8
    4956:	f7fe fb10 	bl	2f7a <mbedtls_mpi_free>
    495a:	a80d      	add	r0, sp, #52	; 0x34
    495c:	f7fe fb0d 	bl	2f7a <mbedtls_mpi_free>
    4960:	a810      	add	r0, sp, #64	; 0x40
    4962:	f7fe fb0a 	bl	2f7a <mbedtls_mpi_free>
/mnt/disk/raspbian-tee/optee_os/lib/libmbedtls/mbedtls/library/bignum.c:2227
    4966:	a813      	add	r0, sp, #76	; 0x4c
    4968:	f7fe fb07 	bl	2f7a <mbedtls_mpi_free>
/mnt/disk/raspbian-tee/optee_os/lib/libmbedtls/mbedtls/library/bignum.c:2230
    496c:	4658      	mov	r0, fp
    496e:	b017      	add	sp, #92	; 0x5c
    4970:	e8bd 8ff0 	ldmia.w	sp!, {r4, r5, r6, r7, r8, r9, sl, fp, pc}
/mnt/disk/raspbian-tee/optee_os/lib/libmbedtls/mbedtls/library/bignum.c:2179
    4974:	ebab 0100 	sub.w	r1, fp, r0
    4978:	4620      	mov	r0, r4
    497a:	f7fe fdce 	bl	351a <mbedtls_mpi_shift_r>
    497e:	4683      	mov	fp, r0
    4980:	2800      	cmp	r0, #0
    4982:	d0c4      	beq.n	490e <mpi_miller_rabin+0xf2>
    4984:	e7e3      	b.n	494e <mpi_miller_rabin+0x132>
/mnt/disk/raspbian-tee/optee_os/lib/libmbedtls/mbedtls/library/bignum.c:2187
    4986:	4629      	mov	r1, r5
    4988:	4620      	mov	r0, r4
    498a:	f7fe fe39 	bl	3600 <mbedtls_mpi_cmp_mpi>
/mnt/disk/raspbian-tee/optee_os/lib/libmbedtls/mbedtls/library/bignum.c:2188
    498e:	2800      	cmp	r0, #0
    4990:	daab      	bge.n	48ea <mpi_miller_rabin+0xce>
/mnt/disk/raspbian-tee/optee_os/lib/libmbedtls/mbedtls/library/bignum.c:2188 (discriminator 1)
    4992:	2101      	movs	r1, #1
    4994:	4620      	mov	r0, r4
    4996:	f7fe fe7e 	bl	3696 <mbedtls_mpi_cmp_int>
/mnt/disk/raspbian-tee/optee_os/lib/libmbedtls/mbedtls/library/bignum.c:2187 (discriminator 1)
    499a:	2800      	cmp	r0, #0
    499c:	dda5      	ble.n	48ea <mpi_miller_rabin+0xce>
/mnt/disk/raspbian-tee/optee_os/lib/libmbedtls/mbedtls/library/bignum.c:2193
    499e:	ab13      	add	r3, sp, #76	; 0x4c
    49a0:	4642      	mov	r2, r8
    49a2:	9300      	str	r3, [sp, #0]
    49a4:	4621      	mov	r1, r4
    49a6:	463b      	mov	r3, r7
    49a8:	4620      	mov	r0, r4
    49aa:	f7ff fc71 	bl	4290 <mbedtls_mpi_exp_mod>
    49ae:	4683      	mov	fp, r0
    49b0:	2800      	cmp	r0, #0
    49b2:	d1cc      	bne.n	494e <mpi_miller_rabin+0x132>
/mnt/disk/raspbian-tee/optee_os/lib/libmbedtls/mbedtls/library/bignum.c:2195
    49b4:	4629      	mov	r1, r5
    49b6:	4620      	mov	r0, r4
    49b8:	f7fe fe22 	bl	3600 <mbedtls_mpi_cmp_mpi>
    49bc:	b928      	cbnz	r0, 49ca <mpi_miller_rabin+0x1ae>
/mnt/disk/raspbian-tee/optee_os/lib/libmbedtls/mbedtls/library/bignum.c:2158
    49be:	f109 0901 	add.w	r9, r9, #1
    49c2:	454e      	cmp	r6, r9
    49c4:	f47f af7a 	bne.w	48bc <mpi_miller_rabin+0xa0>
    49c8:	e7c1      	b.n	494e <mpi_miller_rabin+0x132>
/mnt/disk/raspbian-tee/optee_os/lib/libmbedtls/mbedtls/library/bignum.c:2196 (discriminator 1)
    49ca:	2101      	movs	r1, #1
    49cc:	4620      	mov	r0, r4
    49ce:	f7fe fe62 	bl	3696 <mbedtls_mpi_cmp_int>
/mnt/disk/raspbian-tee/optee_os/lib/libmbedtls/mbedtls/library/bignum.c:2195 (discriminator 1)
    49d2:	2800      	cmp	r0, #0
    49d4:	d0f3      	beq.n	49be <mpi_miller_rabin+0x1a2>
    49d6:	f04f 0a01 	mov.w	sl, #1
/mnt/disk/raspbian-tee/optee_os/lib/libmbedtls/mbedtls/library/bignum.c:2200
    49da:	9b02      	ldr	r3, [sp, #8]
    49dc:	459a      	cmp	sl, r3
    49de:	d215      	bcs.n	4a0c <mpi_miller_rabin+0x1f0>
/mnt/disk/raspbian-tee/optee_os/lib/libmbedtls/mbedtls/library/bignum.c:2200 (discriminator 1)
    49e0:	4629      	mov	r1, r5
    49e2:	4620      	mov	r0, r4
    49e4:	f7fe fe0c 	bl	3600 <mbedtls_mpi_cmp_mpi>
    49e8:	b180      	cbz	r0, 4a0c <mpi_miller_rabin+0x1f0>
/mnt/disk/raspbian-tee/optee_os/lib/libmbedtls/mbedtls/library/bignum.c:2205
    49ea:	4622      	mov	r2, r4
    49ec:	4621      	mov	r1, r4
    49ee:	9805      	ldr	r0, [sp, #20]
    49f0:	f7fe ff81 	bl	38f6 <mbedtls_mpi_mul_mpi>
    49f4:	b9d8      	cbnz	r0, 4a2e <mpi_miller_rabin+0x212>
/mnt/disk/raspbian-tee/optee_os/lib/libmbedtls/mbedtls/library/bignum.c:2206
    49f6:	463a      	mov	r2, r7
    49f8:	9905      	ldr	r1, [sp, #20]
    49fa:	4620      	mov	r0, r4
    49fc:	f7ff fa76 	bl	3eec <mbedtls_mpi_mod_mpi>
    4a00:	b9a8      	cbnz	r0, 4a2e <mpi_miller_rabin+0x212>
/mnt/disk/raspbian-tee/optee_os/lib/libmbedtls/mbedtls/library/bignum.c:2208
    4a02:	2101      	movs	r1, #1
    4a04:	4620      	mov	r0, r4
    4a06:	f7fe fe46 	bl	3696 <mbedtls_mpi_cmp_int>
    4a0a:	b968      	cbnz	r0, 4a28 <mpi_miller_rabin+0x20c>
/mnt/disk/raspbian-tee/optee_os/lib/libmbedtls/mbedtls/library/bignum.c:2217
    4a0c:	4629      	mov	r1, r5
    4a0e:	4620      	mov	r0, r4
    4a10:	f7fe fdf6 	bl	3600 <mbedtls_mpi_cmp_mpi>
    4a14:	2800      	cmp	r0, #0
    4a16:	f47f af7d 	bne.w	4914 <mpi_miller_rabin+0xf8>
/mnt/disk/raspbian-tee/optee_os/lib/libmbedtls/mbedtls/library/bignum.c:2218 (discriminator 1)
    4a1a:	2101      	movs	r1, #1
    4a1c:	4620      	mov	r0, r4
    4a1e:	f7fe fe3a 	bl	3696 <mbedtls_mpi_cmp_int>
/mnt/disk/raspbian-tee/optee_os/lib/libmbedtls/mbedtls/library/bignum.c:2217 (discriminator 1)
    4a22:	2800      	cmp	r0, #0
    4a24:	d1cb      	bne.n	49be <mpi_miller_rabin+0x1a2>
    4a26:	e775      	b.n	4914 <mpi_miller_rabin+0xf8>
/mnt/disk/raspbian-tee/optee_os/lib/libmbedtls/mbedtls/library/bignum.c:2211
    4a28:	f10a 0a01 	add.w	sl, sl, #1
    4a2c:	e7d5      	b.n	49da <mpi_miller_rabin+0x1be>
/mnt/disk/raspbian-tee/optee_os/lib/libmbedtls/mbedtls/library/bignum.c:2206
    4a2e:	4683      	mov	fp, r0
    4a30:	e78d      	b.n	494e <mpi_miller_rabin+0x132>

00004a32 <mbedtls_mpi_inv_mod>:
mbedtls_mpi_inv_mod():
/mnt/disk/raspbian-tee/optee_os/lib/libmbedtls/mbedtls/library/bignum.c:1973
    4a32:	e92d 4ff0 	stmdb	sp!, {r4, r5, r6, r7, r8, r9, sl, fp, lr}
    4a36:	460e      	mov	r6, r1
/mnt/disk/raspbian-tee/optee_os/lib/libmbedtls/mbedtls/library/bignum.c:1977
    4a38:	2101      	movs	r1, #1
/mnt/disk/raspbian-tee/optee_os/lib/libmbedtls/mbedtls/library/bignum.c:1973
    4a3a:	b0a3      	sub	sp, #140	; 0x8c
    4a3c:	4615      	mov	r5, r2
    4a3e:	9005      	str	r0, [sp, #20]
/mnt/disk/raspbian-tee/optee_os/lib/libmbedtls/mbedtls/library/bignum.c:1977
    4a40:	4610      	mov	r0, r2
    4a42:	f7fe fe28 	bl	3696 <mbedtls_mpi_cmp_int>
    4a46:	2800      	cmp	r0, #0
    4a48:	f340 8158 	ble.w	4cfc <mbedtls_mpi_inv_mod+0x2ca>
/mnt/disk/raspbian-tee/optee_os/lib/libmbedtls/mbedtls/library/bignum.c:1980
    4a4c:	af0a      	add	r7, sp, #40	; 0x28
    4a4e:	ac0d      	add	r4, sp, #52	; 0x34
    4a50:	4638      	mov	r0, r7
/mnt/disk/raspbian-tee/optee_os/lib/libmbedtls/mbedtls/library/bignum.c:1981
    4a52:	f10d 0b40 	add.w	fp, sp, #64	; 0x40
/mnt/disk/raspbian-tee/optee_os/lib/libmbedtls/mbedtls/library/bignum.c:1980
    4a56:	f7fe fa74 	bl	2f42 <mbedtls_mpi_init_mempool>
    4a5a:	4620      	mov	r0, r4
    4a5c:	f7fe fa71 	bl	2f42 <mbedtls_mpi_init_mempool>
/mnt/disk/raspbian-tee/optee_os/lib/libmbedtls/mbedtls/library/bignum.c:1981
    4a60:	f10d 0a4c 	add.w	sl, sp, #76	; 0x4c
    4a64:	4658      	mov	r0, fp
/mnt/disk/raspbian-tee/optee_os/lib/libmbedtls/mbedtls/library/bignum.c:1982
    4a66:	f10d 091c 	add.w	r9, sp, #28
/mnt/disk/raspbian-tee/optee_os/lib/libmbedtls/mbedtls/library/bignum.c:1981
    4a6a:	f7fe fa6a 	bl	2f42 <mbedtls_mpi_init_mempool>
    4a6e:	4650      	mov	r0, sl
    4a70:	f7fe fa67 	bl	2f42 <mbedtls_mpi_init_mempool>
/mnt/disk/raspbian-tee/optee_os/lib/libmbedtls/mbedtls/library/bignum.c:1982
    4a74:	4648      	mov	r0, r9
    4a76:	f7fe fa64 	bl	2f42 <mbedtls_mpi_init_mempool>
    4a7a:	ab16      	add	r3, sp, #88	; 0x58
    4a7c:	4618      	mov	r0, r3
    4a7e:	9301      	str	r3, [sp, #4]
    4a80:	f7fe fa5f 	bl	2f42 <mbedtls_mpi_init_mempool>
/mnt/disk/raspbian-tee/optee_os/lib/libmbedtls/mbedtls/library/bignum.c:1983
    4a84:	ab19      	add	r3, sp, #100	; 0x64
    4a86:	4618      	mov	r0, r3
    4a88:	9302      	str	r3, [sp, #8]
    4a8a:	f7fe fa5a 	bl	2f42 <mbedtls_mpi_init_mempool>
    4a8e:	ab1c      	add	r3, sp, #112	; 0x70
    4a90:	4618      	mov	r0, r3
    4a92:	9303      	str	r3, [sp, #12]
    4a94:	f7fe fa55 	bl	2f42 <mbedtls_mpi_init_mempool>
/mnt/disk/raspbian-tee/optee_os/lib/libmbedtls/mbedtls/library/bignum.c:1984
    4a98:	a81f      	add	r0, sp, #124	; 0x7c
    4a9a:	f7fe fa52 	bl	2f42 <mbedtls_mpi_init_mempool>
/mnt/disk/raspbian-tee/optee_os/lib/libmbedtls/mbedtls/library/bignum.c:1986
    4a9e:	4631      	mov	r1, r6
    4aa0:	462a      	mov	r2, r5
    4aa2:	4648      	mov	r0, r9
    4aa4:	f7ff fe17 	bl	46d6 <mbedtls_mpi_gcd>
    4aa8:	4601      	mov	r1, r0
    4aaa:	2800      	cmp	r0, #0
    4aac:	d156      	bne.n	4b5c <mbedtls_mpi_inv_mod+0x12a>
/mnt/disk/raspbian-tee/optee_os/lib/libmbedtls/mbedtls/library/bignum.c:1988
    4aae:	2101      	movs	r1, #1
    4ab0:	4648      	mov	r0, r9
    4ab2:	f7fe fdf0 	bl	3696 <mbedtls_mpi_cmp_int>
    4ab6:	2800      	cmp	r0, #0
    4ab8:	f040 811d 	bne.w	4cf6 <mbedtls_mpi_inv_mod+0x2c4>
/mnt/disk/raspbian-tee/optee_os/lib/libmbedtls/mbedtls/library/bignum.c:1994
    4abc:	4631      	mov	r1, r6
    4abe:	462a      	mov	r2, r5
    4ac0:	4638      	mov	r0, r7
    4ac2:	f7ff fa13 	bl	3eec <mbedtls_mpi_mod_mpi>
    4ac6:	4601      	mov	r1, r0
    4ac8:	2800      	cmp	r0, #0
    4aca:	d147      	bne.n	4b5c <mbedtls_mpi_inv_mod+0x12a>
/mnt/disk/raspbian-tee/optee_os/lib/libmbedtls/mbedtls/library/bignum.c:1995
    4acc:	4639      	mov	r1, r7
    4ace:	4620      	mov	r0, r4
    4ad0:	f7fe fb34 	bl	313c <mbedtls_mpi_copy>
    4ad4:	4601      	mov	r1, r0
    4ad6:	2800      	cmp	r0, #0
    4ad8:	d140      	bne.n	4b5c <mbedtls_mpi_inv_mod+0x12a>
/mnt/disk/raspbian-tee/optee_os/lib/libmbedtls/mbedtls/library/bignum.c:1996
    4ada:	4629      	mov	r1, r5
    4adc:	9801      	ldr	r0, [sp, #4]
    4ade:	f7fe fb2d 	bl	313c <mbedtls_mpi_copy>
    4ae2:	4601      	mov	r1, r0
    4ae4:	2800      	cmp	r0, #0
    4ae6:	d139      	bne.n	4b5c <mbedtls_mpi_inv_mod+0x12a>
/mnt/disk/raspbian-tee/optee_os/lib/libmbedtls/mbedtls/library/bignum.c:1997
    4ae8:	4629      	mov	r1, r5
    4aea:	9802      	ldr	r0, [sp, #8]
    4aec:	f7fe fb26 	bl	313c <mbedtls_mpi_copy>
    4af0:	4601      	mov	r1, r0
    4af2:	2800      	cmp	r0, #0
    4af4:	d132      	bne.n	4b5c <mbedtls_mpi_inv_mod+0x12a>
/mnt/disk/raspbian-tee/optee_os/lib/libmbedtls/mbedtls/library/bignum.c:1999
    4af6:	2101      	movs	r1, #1
    4af8:	4658      	mov	r0, fp
    4afa:	f7fe fbda 	bl	32b2 <mbedtls_mpi_lset>
    4afe:	4601      	mov	r1, r0
    4b00:	bb60      	cbnz	r0, 4b5c <mbedtls_mpi_inv_mod+0x12a>
/mnt/disk/raspbian-tee/optee_os/lib/libmbedtls/mbedtls/library/bignum.c:2000
    4b02:	4650      	mov	r0, sl
    4b04:	f7fe fbd5 	bl	32b2 <mbedtls_mpi_lset>
    4b08:	4601      	mov	r1, r0
    4b0a:	bb38      	cbnz	r0, 4b5c <mbedtls_mpi_inv_mod+0x12a>
/mnt/disk/raspbian-tee/optee_os/lib/libmbedtls/mbedtls/library/bignum.c:2001
    4b0c:	9803      	ldr	r0, [sp, #12]
    4b0e:	f7fe fbd0 	bl	32b2 <mbedtls_mpi_lset>
    4b12:	4601      	mov	r1, r0
    4b14:	bb10      	cbnz	r0, 4b5c <mbedtls_mpi_inv_mod+0x12a>
/mnt/disk/raspbian-tee/optee_os/lib/libmbedtls/mbedtls/library/bignum.c:2002
    4b16:	ae1f      	add	r6, sp, #124	; 0x7c
    4b18:	2101      	movs	r1, #1
    4b1a:	4630      	mov	r0, r6
    4b1c:	f7fe fbc9 	bl	32b2 <mbedtls_mpi_lset>
    4b20:	4601      	mov	r1, r0
    4b22:	b9d8      	cbnz	r0, 4b5c <mbedtls_mpi_inv_mod+0x12a>
    4b24:	f10d 0864 	add.w	r8, sp, #100	; 0x64
/mnt/disk/raspbian-tee/optee_os/lib/libmbedtls/mbedtls/library/bignum.c:2026
    4b28:	ab16      	add	r3, sp, #88	; 0x58
    4b2a:	9304      	str	r3, [sp, #16]
/mnt/disk/raspbian-tee/optee_os/lib/libmbedtls/mbedtls/library/bignum.c:2006
    4b2c:	9b0f      	ldr	r3, [sp, #60]	; 0x3c
    4b2e:	681b      	ldr	r3, [r3, #0]
    4b30:	07d8      	lsls	r0, r3, #31
    4b32:	d46a      	bmi.n	4c0a <mbedtls_mpi_inv_mod+0x1d8>
/mnt/disk/raspbian-tee/optee_os/lib/libmbedtls/mbedtls/library/bignum.c:2008
    4b34:	2101      	movs	r1, #1
    4b36:	4620      	mov	r0, r4
    4b38:	f7fe fcef 	bl	351a <mbedtls_mpi_shift_r>
    4b3c:	4601      	mov	r1, r0
    4b3e:	b968      	cbnz	r0, 4b5c <mbedtls_mpi_inv_mod+0x12a>
/mnt/disk/raspbian-tee/optee_os/lib/libmbedtls/mbedtls/library/bignum.c:2010
    4b40:	9b12      	ldr	r3, [sp, #72]	; 0x48
    4b42:	681b      	ldr	r3, [r3, #0]
    4b44:	07da      	lsls	r2, r3, #31
    4b46:	d42a      	bmi.n	4b9e <mbedtls_mpi_inv_mod+0x16c>
/mnt/disk/raspbian-tee/optee_os/lib/libmbedtls/mbedtls/library/bignum.c:2010 (discriminator 1)
    4b48:	9b15      	ldr	r3, [sp, #84]	; 0x54
    4b4a:	681b      	ldr	r3, [r3, #0]
    4b4c:	07db      	lsls	r3, r3, #31
    4b4e:	d426      	bmi.n	4b9e <mbedtls_mpi_inv_mod+0x16c>
/mnt/disk/raspbian-tee/optee_os/lib/libmbedtls/mbedtls/library/bignum.c:2016
    4b50:	2101      	movs	r1, #1
    4b52:	a810      	add	r0, sp, #64	; 0x40
    4b54:	f7fe fce1 	bl	351a <mbedtls_mpi_shift_r>
    4b58:	4601      	mov	r1, r0
    4b5a:	b388      	cbz	r0, 4bc0 <mbedtls_mpi_inv_mod+0x18e>
/mnt/disk/raspbian-tee/optee_os/lib/libmbedtls/mbedtls/library/bignum.c:2059
    4b5c:	4638      	mov	r0, r7
    4b5e:	9104      	str	r1, [sp, #16]
    4b60:	f7fe fa0b 	bl	2f7a <mbedtls_mpi_free>
    4b64:	4620      	mov	r0, r4
    4b66:	f7fe fa08 	bl	2f7a <mbedtls_mpi_free>
    4b6a:	4658      	mov	r0, fp
    4b6c:	f7fe fa05 	bl	2f7a <mbedtls_mpi_free>
    4b70:	4650      	mov	r0, sl
    4b72:	f7fe fa02 	bl	2f7a <mbedtls_mpi_free>
/mnt/disk/raspbian-tee/optee_os/lib/libmbedtls/mbedtls/library/bignum.c:2060
    4b76:	4648      	mov	r0, r9
    4b78:	f7fe f9ff 	bl	2f7a <mbedtls_mpi_free>
    4b7c:	9801      	ldr	r0, [sp, #4]
    4b7e:	f7fe f9fc 	bl	2f7a <mbedtls_mpi_free>
    4b82:	9802      	ldr	r0, [sp, #8]
    4b84:	f7fe f9f9 	bl	2f7a <mbedtls_mpi_free>
/mnt/disk/raspbian-tee/optee_os/lib/libmbedtls/mbedtls/library/bignum.c:2061
    4b88:	9803      	ldr	r0, [sp, #12]
    4b8a:	f7fe f9f6 	bl	2f7a <mbedtls_mpi_free>
    4b8e:	a81f      	add	r0, sp, #124	; 0x7c
    4b90:	f7fe f9f3 	bl	2f7a <mbedtls_mpi_free>
/mnt/disk/raspbian-tee/optee_os/lib/libmbedtls/mbedtls/library/bignum.c:2063
    4b94:	9904      	ldr	r1, [sp, #16]
/mnt/disk/raspbian-tee/optee_os/lib/libmbedtls/mbedtls/library/bignum.c:2064
    4b96:	4608      	mov	r0, r1
    4b98:	b023      	add	sp, #140	; 0x8c
    4b9a:	e8bd 8ff0 	ldmia.w	sp!, {r4, r5, r6, r7, r8, r9, sl, fp, pc}
/mnt/disk/raspbian-tee/optee_os/lib/libmbedtls/mbedtls/library/bignum.c:2012
    4b9e:	a910      	add	r1, sp, #64	; 0x40
    4ba0:	9a04      	ldr	r2, [sp, #16]
    4ba2:	4608      	mov	r0, r1
    4ba4:	f7fe fe2d 	bl	3802 <mbedtls_mpi_add_mpi>
    4ba8:	4601      	mov	r1, r0
    4baa:	2800      	cmp	r0, #0
    4bac:	d1d6      	bne.n	4b5c <mbedtls_mpi_inv_mod+0x12a>
/mnt/disk/raspbian-tee/optee_os/lib/libmbedtls/mbedtls/library/bignum.c:2013
    4bae:	a913      	add	r1, sp, #76	; 0x4c
    4bb0:	463a      	mov	r2, r7
    4bb2:	4608      	mov	r0, r1
    4bb4:	f7fe fe49 	bl	384a <mbedtls_mpi_sub_mpi>
    4bb8:	4601      	mov	r1, r0
    4bba:	2800      	cmp	r0, #0
    4bbc:	d0c8      	beq.n	4b50 <mbedtls_mpi_inv_mod+0x11e>
    4bbe:	e7cd      	b.n	4b5c <mbedtls_mpi_inv_mod+0x12a>
/mnt/disk/raspbian-tee/optee_os/lib/libmbedtls/mbedtls/library/bignum.c:2017
    4bc0:	2101      	movs	r1, #1
    4bc2:	a813      	add	r0, sp, #76	; 0x4c
    4bc4:	f7fe fca9 	bl	351a <mbedtls_mpi_shift_r>
    4bc8:	4601      	mov	r1, r0
    4bca:	2800      	cmp	r0, #0
    4bcc:	d0ae      	beq.n	4b2c <mbedtls_mpi_inv_mod+0xfa>
    4bce:	e7c5      	b.n	4b5c <mbedtls_mpi_inv_mod+0x12a>
/mnt/disk/raspbian-tee/optee_os/lib/libmbedtls/mbedtls/library/bignum.c:2022
    4bd0:	2101      	movs	r1, #1
    4bd2:	4640      	mov	r0, r8
    4bd4:	f7fe fca1 	bl	351a <mbedtls_mpi_shift_r>
    4bd8:	4601      	mov	r1, r0
    4bda:	2800      	cmp	r0, #0
    4bdc:	d1be      	bne.n	4b5c <mbedtls_mpi_inv_mod+0x12a>
/mnt/disk/raspbian-tee/optee_os/lib/libmbedtls/mbedtls/library/bignum.c:2024
    4bde:	9b1e      	ldr	r3, [sp, #120]	; 0x78
    4be0:	681b      	ldr	r3, [r3, #0]
    4be2:	07d9      	lsls	r1, r3, #31
    4be4:	d44d      	bmi.n	4c82 <mbedtls_mpi_inv_mod+0x250>
/mnt/disk/raspbian-tee/optee_os/lib/libmbedtls/mbedtls/library/bignum.c:2024 (discriminator 1)
    4be6:	9b21      	ldr	r3, [sp, #132]	; 0x84
    4be8:	681b      	ldr	r3, [r3, #0]
    4bea:	07da      	lsls	r2, r3, #31
    4bec:	d449      	bmi.n	4c82 <mbedtls_mpi_inv_mod+0x250>
/mnt/disk/raspbian-tee/optee_os/lib/libmbedtls/mbedtls/library/bignum.c:2030
    4bee:	2101      	movs	r1, #1
    4bf0:	a81c      	add	r0, sp, #112	; 0x70
    4bf2:	f7fe fc92 	bl	351a <mbedtls_mpi_shift_r>
    4bf6:	4601      	mov	r1, r0
    4bf8:	2800      	cmp	r0, #0
    4bfa:	d1af      	bne.n	4b5c <mbedtls_mpi_inv_mod+0x12a>
/mnt/disk/raspbian-tee/optee_os/lib/libmbedtls/mbedtls/library/bignum.c:2031
    4bfc:	2101      	movs	r1, #1
    4bfe:	4630      	mov	r0, r6
    4c00:	f7fe fc8b 	bl	351a <mbedtls_mpi_shift_r>
    4c04:	4601      	mov	r1, r0
    4c06:	2800      	cmp	r0, #0
    4c08:	d1a8      	bne.n	4b5c <mbedtls_mpi_inv_mod+0x12a>
/mnt/disk/raspbian-tee/optee_os/lib/libmbedtls/mbedtls/library/bignum.c:2020
    4c0a:	9b1b      	ldr	r3, [sp, #108]	; 0x6c
    4c0c:	681b      	ldr	r3, [r3, #0]
    4c0e:	07db      	lsls	r3, r3, #31
    4c10:	d5de      	bpl.n	4bd0 <mbedtls_mpi_inv_mod+0x19e>
/mnt/disk/raspbian-tee/optee_os/lib/libmbedtls/mbedtls/library/bignum.c:2034
    4c12:	4641      	mov	r1, r8
    4c14:	4620      	mov	r0, r4
    4c16:	f7fe fcf3 	bl	3600 <mbedtls_mpi_cmp_mpi>
    4c1a:	2800      	cmp	r0, #0
    4c1c:	db43      	blt.n	4ca6 <mbedtls_mpi_inv_mod+0x274>
/mnt/disk/raspbian-tee/optee_os/lib/libmbedtls/mbedtls/library/bignum.c:2036
    4c1e:	4621      	mov	r1, r4
    4c20:	4642      	mov	r2, r8
    4c22:	4620      	mov	r0, r4
    4c24:	f7fe fe11 	bl	384a <mbedtls_mpi_sub_mpi>
    4c28:	4601      	mov	r1, r0
    4c2a:	2800      	cmp	r0, #0
    4c2c:	d196      	bne.n	4b5c <mbedtls_mpi_inv_mod+0x12a>
/mnt/disk/raspbian-tee/optee_os/lib/libmbedtls/mbedtls/library/bignum.c:2037
    4c2e:	a910      	add	r1, sp, #64	; 0x40
    4c30:	aa1c      	add	r2, sp, #112	; 0x70
    4c32:	4608      	mov	r0, r1
    4c34:	f7fe fe09 	bl	384a <mbedtls_mpi_sub_mpi>
    4c38:	4601      	mov	r1, r0
    4c3a:	2800      	cmp	r0, #0
    4c3c:	d18e      	bne.n	4b5c <mbedtls_mpi_inv_mod+0x12a>
/mnt/disk/raspbian-tee/optee_os/lib/libmbedtls/mbedtls/library/bignum.c:2038
    4c3e:	a913      	add	r1, sp, #76	; 0x4c
    4c40:	4632      	mov	r2, r6
    4c42:	4608      	mov	r0, r1
    4c44:	f7fe fe01 	bl	384a <mbedtls_mpi_sub_mpi>
    4c48:	4601      	mov	r1, r0
    4c4a:	2800      	cmp	r0, #0
    4c4c:	d186      	bne.n	4b5c <mbedtls_mpi_inv_mod+0x12a>
/mnt/disk/raspbian-tee/optee_os/lib/libmbedtls/mbedtls/library/bignum.c:2047
    4c4e:	2100      	movs	r1, #0
    4c50:	4620      	mov	r0, r4
    4c52:	f7fe fd20 	bl	3696 <mbedtls_mpi_cmp_int>
    4c56:	2800      	cmp	r0, #0
    4c58:	f47f af68 	bne.w	4b2c <mbedtls_mpi_inv_mod+0xfa>
/mnt/disk/raspbian-tee/optee_os/lib/libmbedtls/mbedtls/library/bignum.c:2049
    4c5c:	ae1c      	add	r6, sp, #112	; 0x70
    4c5e:	2100      	movs	r1, #0
    4c60:	4630      	mov	r0, r6
    4c62:	f7fe fd18 	bl	3696 <mbedtls_mpi_cmp_int>
    4c66:	2800      	cmp	r0, #0
    4c68:	db33      	blt.n	4cd2 <mbedtls_mpi_inv_mod+0x2a0>
/mnt/disk/raspbian-tee/optee_os/lib/libmbedtls/mbedtls/library/bignum.c:2052
    4c6a:	4629      	mov	r1, r5
    4c6c:	4630      	mov	r0, r6
    4c6e:	f7fe fcc7 	bl	3600 <mbedtls_mpi_cmp_mpi>
    4c72:	2800      	cmp	r0, #0
    4c74:	da36      	bge.n	4ce4 <mbedtls_mpi_inv_mod+0x2b2>
/mnt/disk/raspbian-tee/optee_os/lib/libmbedtls/mbedtls/library/bignum.c:2055
    4c76:	4631      	mov	r1, r6
    4c78:	9805      	ldr	r0, [sp, #20]
    4c7a:	f7fe fa5f 	bl	313c <mbedtls_mpi_copy>
    4c7e:	4601      	mov	r1, r0
    4c80:	e76c      	b.n	4b5c <mbedtls_mpi_inv_mod+0x12a>
/mnt/disk/raspbian-tee/optee_os/lib/libmbedtls/mbedtls/library/bignum.c:2026
    4c82:	a91c      	add	r1, sp, #112	; 0x70
    4c84:	9a04      	ldr	r2, [sp, #16]
    4c86:	4608      	mov	r0, r1
    4c88:	f7fe fdbb 	bl	3802 <mbedtls_mpi_add_mpi>
    4c8c:	4601      	mov	r1, r0
    4c8e:	2800      	cmp	r0, #0
    4c90:	f47f af64 	bne.w	4b5c <mbedtls_mpi_inv_mod+0x12a>
/mnt/disk/raspbian-tee/optee_os/lib/libmbedtls/mbedtls/library/bignum.c:2027
    4c94:	4631      	mov	r1, r6
    4c96:	463a      	mov	r2, r7
    4c98:	4630      	mov	r0, r6
    4c9a:	f7fe fdd6 	bl	384a <mbedtls_mpi_sub_mpi>
    4c9e:	4601      	mov	r1, r0
    4ca0:	2800      	cmp	r0, #0
    4ca2:	d0a4      	beq.n	4bee <mbedtls_mpi_inv_mod+0x1bc>
    4ca4:	e75a      	b.n	4b5c <mbedtls_mpi_inv_mod+0x12a>
/mnt/disk/raspbian-tee/optee_os/lib/libmbedtls/mbedtls/library/bignum.c:2042
    4ca6:	4641      	mov	r1, r8
    4ca8:	4622      	mov	r2, r4
    4caa:	4640      	mov	r0, r8
    4cac:	f7fe fdcd 	bl	384a <mbedtls_mpi_sub_mpi>
    4cb0:	4601      	mov	r1, r0
    4cb2:	2800      	cmp	r0, #0
    4cb4:	f47f af52 	bne.w	4b5c <mbedtls_mpi_inv_mod+0x12a>
/mnt/disk/raspbian-tee/optee_os/lib/libmbedtls/mbedtls/library/bignum.c:2043
    4cb8:	a91c      	add	r1, sp, #112	; 0x70
    4cba:	aa10      	add	r2, sp, #64	; 0x40
    4cbc:	4608      	mov	r0, r1
    4cbe:	f7fe fdc4 	bl	384a <mbedtls_mpi_sub_mpi>
    4cc2:	4601      	mov	r1, r0
    4cc4:	2800      	cmp	r0, #0
    4cc6:	f47f af49 	bne.w	4b5c <mbedtls_mpi_inv_mod+0x12a>
/mnt/disk/raspbian-tee/optee_os/lib/libmbedtls/mbedtls/library/bignum.c:2044
    4cca:	aa13      	add	r2, sp, #76	; 0x4c
    4ccc:	4631      	mov	r1, r6
    4cce:	4630      	mov	r0, r6
    4cd0:	e7b8      	b.n	4c44 <mbedtls_mpi_inv_mod+0x212>
/mnt/disk/raspbian-tee/optee_os/lib/libmbedtls/mbedtls/library/bignum.c:2050
    4cd2:	4631      	mov	r1, r6
    4cd4:	462a      	mov	r2, r5
    4cd6:	4630      	mov	r0, r6
    4cd8:	f7fe fd93 	bl	3802 <mbedtls_mpi_add_mpi>
    4cdc:	4601      	mov	r1, r0
    4cde:	2800      	cmp	r0, #0
    4ce0:	d0bd      	beq.n	4c5e <mbedtls_mpi_inv_mod+0x22c>
    4ce2:	e73b      	b.n	4b5c <mbedtls_mpi_inv_mod+0x12a>
/mnt/disk/raspbian-tee/optee_os/lib/libmbedtls/mbedtls/library/bignum.c:2053
    4ce4:	4631      	mov	r1, r6
    4ce6:	462a      	mov	r2, r5
    4ce8:	4630      	mov	r0, r6
    4cea:	f7fe fdae 	bl	384a <mbedtls_mpi_sub_mpi>
    4cee:	4601      	mov	r1, r0
    4cf0:	2800      	cmp	r0, #0
    4cf2:	d0ba      	beq.n	4c6a <mbedtls_mpi_inv_mod+0x238>
    4cf4:	e732      	b.n	4b5c <mbedtls_mpi_inv_mod+0x12a>
/mnt/disk/raspbian-tee/optee_os/lib/libmbedtls/mbedtls/library/bignum.c:1990
    4cf6:	f06f 010d 	mvn.w	r1, #13
    4cfa:	e72f      	b.n	4b5c <mbedtls_mpi_inv_mod+0x12a>
/mnt/disk/raspbian-tee/optee_os/lib/libmbedtls/mbedtls/library/bignum.c:1978
    4cfc:	f06f 0103 	mvn.w	r1, #3
    4d00:	e749      	b.n	4b96 <mbedtls_mpi_inv_mod+0x164>

00004d02 <mbedtls_mpi_is_prime>:
mbedtls_mpi_is_prime():
/mnt/disk/raspbian-tee/optee_os/lib/libmbedtls/mbedtls/library/bignum.c:2238
    4d02:	b5f0      	push	{r4, r5, r6, r7, lr}
    4d04:	460e      	mov	r6, r1
/mnt/disk/raspbian-tee/optee_os/lib/libmbedtls/mbedtls/library/bignum.c:2243
    4d06:	8883      	ldrh	r3, [r0, #4]
/mnt/disk/raspbian-tee/optee_os/lib/libmbedtls/mbedtls/library/bignum.c:2238
    4d08:	b085      	sub	sp, #20
/mnt/disk/raspbian-tee/optee_os/lib/libmbedtls/mbedtls/library/bignum.c:2246
    4d0a:	2100      	movs	r1, #0
    4d0c:	ac01      	add	r4, sp, #4
/mnt/disk/raspbian-tee/optee_os/lib/libmbedtls/mbedtls/library/bignum.c:2242
    4d0e:	2501      	movs	r5, #1
/mnt/disk/raspbian-tee/optee_os/lib/libmbedtls/mbedtls/library/bignum.c:2238
    4d10:	4617      	mov	r7, r2
/mnt/disk/raspbian-tee/optee_os/lib/libmbedtls/mbedtls/library/bignum.c:2243
    4d12:	f8ad 3008 	strh.w	r3, [sp, #8]
/mnt/disk/raspbian-tee/optee_os/lib/libmbedtls/mbedtls/library/bignum.c:2244
    4d16:	6883      	ldr	r3, [r0, #8]
/mnt/disk/raspbian-tee/optee_os/lib/libmbedtls/mbedtls/library/bignum.c:2246
    4d18:	4620      	mov	r0, r4
/mnt/disk/raspbian-tee/optee_os/lib/libmbedtls/mbedtls/library/bignum.c:2242
    4d1a:	f88d 5004 	strb.w	r5, [sp, #4]
/mnt/disk/raspbian-tee/optee_os/lib/libmbedtls/mbedtls/library/bignum.c:2244
    4d1e:	9303      	str	r3, [sp, #12]
/mnt/disk/raspbian-tee/optee_os/lib/libmbedtls/mbedtls/library/bignum.c:2246
    4d20:	f7fe fcb9 	bl	3696 <mbedtls_mpi_cmp_int>
    4d24:	b1c0      	cbz	r0, 4d58 <mbedtls_mpi_is_prime+0x56>
/mnt/disk/raspbian-tee/optee_os/lib/libmbedtls/mbedtls/library/bignum.c:2247 (discriminator 1)
    4d26:	4629      	mov	r1, r5
    4d28:	4620      	mov	r0, r4
    4d2a:	f7fe fcb4 	bl	3696 <mbedtls_mpi_cmp_int>
/mnt/disk/raspbian-tee/optee_os/lib/libmbedtls/mbedtls/library/bignum.c:2246 (discriminator 1)
    4d2e:	b198      	cbz	r0, 4d58 <mbedtls_mpi_is_prime+0x56>
/mnt/disk/raspbian-tee/optee_os/lib/libmbedtls/mbedtls/library/bignum.c:2250
    4d30:	2102      	movs	r1, #2
    4d32:	4620      	mov	r0, r4
    4d34:	f7fe fcaf 	bl	3696 <mbedtls_mpi_cmp_int>
    4d38:	b128      	cbz	r0, 4d46 <mbedtls_mpi_is_prime+0x44>
/mnt/disk/raspbian-tee/optee_os/lib/libmbedtls/mbedtls/library/bignum.c:2253
    4d3a:	4620      	mov	r0, r4
    4d3c:	f7ff f9f8 	bl	4130 <mpi_check_small_factors>
    4d40:	b120      	cbz	r0, 4d4c <mbedtls_mpi_is_prime+0x4a>
/mnt/disk/raspbian-tee/optee_os/lib/libmbedtls/mbedtls/library/bignum.c:2255
    4d42:	42a8      	cmp	r0, r5
    4d44:	d100      	bne.n	4d48 <mbedtls_mpi_is_prime+0x46>
/mnt/disk/raspbian-tee/optee_os/lib/libmbedtls/mbedtls/library/bignum.c:2256
    4d46:	2000      	movs	r0, #0
/mnt/disk/raspbian-tee/optee_os/lib/libmbedtls/mbedtls/library/bignum.c:2262
    4d48:	b005      	add	sp, #20
    4d4a:	bdf0      	pop	{r4, r5, r6, r7, pc}
/mnt/disk/raspbian-tee/optee_os/lib/libmbedtls/mbedtls/library/bignum.c:2261
    4d4c:	463a      	mov	r2, r7
    4d4e:	4631      	mov	r1, r6
    4d50:	4620      	mov	r0, r4
    4d52:	f7ff fd63 	bl	481c <mpi_miller_rabin>
    4d56:	e7f7      	b.n	4d48 <mbedtls_mpi_is_prime+0x46>
/mnt/disk/raspbian-tee/optee_os/lib/libmbedtls/mbedtls/library/bignum.c:2248
    4d58:	f06f 000d 	mvn.w	r0, #13
    4d5c:	e7f4      	b.n	4d48 <mbedtls_mpi_is_prime+0x46>

00004d5e <mbedtls_mpi_gen_prime>:
mbedtls_mpi_gen_prime():
/mnt/disk/raspbian-tee/optee_os/lib/libmbedtls/mbedtls/library/bignum.c:2270
    4d5e:	e92d 43f0 	stmdb	sp!, {r4, r5, r6, r7, r8, r9, lr}
    4d62:	4691      	mov	r9, r2
/mnt/disk/raspbian-tee/optee_os/lib/libmbedtls/mbedtls/library/bignum.c:2276
    4d64:	1eca      	subs	r2, r1, #3
/mnt/disk/raspbian-tee/optee_os/lib/libmbedtls/mbedtls/library/bignum.c:2270
    4d66:	4698      	mov	r8, r3
    4d68:	b085      	sub	sp, #20
/mnt/disk/raspbian-tee/optee_os/lib/libmbedtls/mbedtls/library/bignum.c:2276
    4d6a:	f641 73fd 	movw	r3, #8189	; 0x1ffd
/mnt/disk/raspbian-tee/optee_os/lib/libmbedtls/mbedtls/library/bignum.c:2270
    4d6e:	4604      	mov	r4, r0
    4d70:	460f      	mov	r7, r1
/mnt/disk/raspbian-tee/optee_os/lib/libmbedtls/mbedtls/library/bignum.c:2276
    4d72:	429a      	cmp	r2, r3
    4d74:	f200 808b 	bhi.w	4e8e <mbedtls_mpi_gen_prime+0x130>
/mnt/disk/raspbian-tee/optee_os/lib/libmbedtls/mbedtls/library/bignum.c:2279
    4d78:	ae01      	add	r6, sp, #4
    4d7a:	4630      	mov	r0, r6
    4d7c:	f7fe f8e1 	bl	2f42 <mbedtls_mpi_init_mempool>
/mnt/disk/raspbian-tee/optee_os/lib/libmbedtls/mbedtls/library/bignum.c:2281
    4d80:	f011 011f 	ands.w	r1, r1, #31
    4d84:	bf18      	it	ne
    4d86:	2101      	movne	r1, #1
/mnt/disk/raspbian-tee/optee_os/lib/libmbedtls/mbedtls/library/bignum.c:2283
    4d88:	9b0c      	ldr	r3, [sp, #48]	; 0x30
/mnt/disk/raspbian-tee/optee_os/lib/libmbedtls/mbedtls/library/bignum.c:2281
    4d8a:	eb01 1157 	add.w	r1, r1, r7, lsr #5
/mnt/disk/raspbian-tee/optee_os/lib/libmbedtls/mbedtls/library/bignum.c:2283
    4d8e:	4642      	mov	r2, r8
    4d90:	0089      	lsls	r1, r1, #2
    4d92:	4620      	mov	r0, r4
    4d94:	f7ff fd29 	bl	47ea <mbedtls_mpi_fill_random>
    4d98:	4605      	mov	r5, r0
    4d9a:	2800      	cmp	r0, #0
    4d9c:	d161      	bne.n	4e62 <mbedtls_mpi_gen_prime+0x104>
/mnt/disk/raspbian-tee/optee_os/lib/libmbedtls/mbedtls/library/bignum.c:2285
    4d9e:	4620      	mov	r0, r4
    4da0:	f7fe faf2 	bl	3388 <mbedtls_mpi_bitlen>
/mnt/disk/raspbian-tee/optee_os/lib/libmbedtls/mbedtls/library/bignum.c:2286
    4da4:	4287      	cmp	r7, r0
    4da6:	d349      	bcc.n	4e3c <mbedtls_mpi_gen_prime+0xde>
/mnt/disk/raspbian-tee/optee_os/lib/libmbedtls/mbedtls/library/bignum.c:2288
    4da8:	2201      	movs	r2, #1
    4daa:	1e79      	subs	r1, r7, #1
    4dac:	4620      	mov	r0, r4
    4dae:	f7fe faac 	bl	330a <mbedtls_mpi_set_bit>
/mnt/disk/raspbian-tee/optee_os/lib/libmbedtls/mbedtls/library/bignum.c:2290
    4db2:	68a2      	ldr	r2, [r4, #8]
    4db4:	6813      	ldr	r3, [r2, #0]
/mnt/disk/raspbian-tee/optee_os/lib/libmbedtls/mbedtls/library/bignum.c:2292
    4db6:	f1b9 0f00 	cmp.w	r9, #0
    4dba:	d049      	beq.n	4e50 <mbedtls_mpi_gen_prime+0xf2>
/mnt/disk/raspbian-tee/optee_os/lib/libmbedtls/mbedtls/library/bignum.c:2310
    4dbc:	f043 0303 	orr.w	r3, r3, #3
mbedtls_mpi_mod_int():
/mnt/disk/raspbian-tee/optee_os/lib/libmbedtls/mbedtls/library/bignum.c:2310
    4dc0:	4621      	mov	r1, r4
mbedtls_mpi_gen_prime():
/mnt/disk/raspbian-tee/optee_os/lib/libmbedtls/mbedtls/library/bignum.c:2310
    4dc2:	6013      	str	r3, [r2, #0]
mbedtls_mpi_mod_int():
/mnt/disk/raspbian-tee/optee_os/lib/libmbedtls/mbedtls/library/bignum.c:2310
    4dc4:	4668      	mov	r0, sp
    4dc6:	2203      	movs	r2, #3
    4dc8:	f7fe f88e 	bl	2ee8 <mbedtls_mpi_mod_int.part.1>
mbedtls_mpi_gen_prime():
/mnt/disk/raspbian-tee/optee_os/lib/libmbedtls/mbedtls/library/bignum.c:2312
    4dcc:	2800      	cmp	r0, #0
    4dce:	d13d      	bne.n	4e4c <mbedtls_mpi_gen_prime+0xee>
/mnt/disk/raspbian-tee/optee_os/lib/libmbedtls/mbedtls/library/bignum.c:2313
    4dd0:	9b00      	ldr	r3, [sp, #0]
    4dd2:	2b00      	cmp	r3, #0
    4dd4:	d157      	bne.n	4e86 <mbedtls_mpi_gen_prime+0x128>
/mnt/disk/raspbian-tee/optee_os/lib/libmbedtls/mbedtls/library/bignum.c:2314
    4dd6:	2208      	movs	r2, #8
/mnt/disk/raspbian-tee/optee_os/lib/libmbedtls/mbedtls/library/bignum.c:2316
    4dd8:	4621      	mov	r1, r4
    4dda:	4620      	mov	r0, r4
    4ddc:	f7fe fd5b 	bl	3896 <mbedtls_mpi_add_int>
    4de0:	bba0      	cbnz	r0, 4e4c <mbedtls_mpi_gen_prime+0xee>
/mnt/disk/raspbian-tee/optee_os/lib/libmbedtls/mbedtls/library/bignum.c:2319
    4de2:	4621      	mov	r1, r4
    4de4:	4630      	mov	r0, r6
    4de6:	f7fe f9a9 	bl	313c <mbedtls_mpi_copy>
    4dea:	bb78      	cbnz	r0, 4e4c <mbedtls_mpi_gen_prime+0xee>
/mnt/disk/raspbian-tee/optee_os/lib/libmbedtls/mbedtls/library/bignum.c:2320
    4dec:	2101      	movs	r1, #1
    4dee:	4630      	mov	r0, r6
    4df0:	f7fe fb93 	bl	351a <mbedtls_mpi_shift_r>
    4df4:	bb50      	cbnz	r0, 4e4c <mbedtls_mpi_gen_prime+0xee>
/mnt/disk/raspbian-tee/optee_os/lib/libmbedtls/mbedtls/library/bignum.c:2328
    4df6:	4620      	mov	r0, r4
    4df8:	f7ff f99a 	bl	4130 <mpi_check_small_factors>
    4dfc:	b978      	cbnz	r0, 4e1e <mbedtls_mpi_gen_prime+0xc0>
/mnt/disk/raspbian-tee/optee_os/lib/libmbedtls/mbedtls/library/bignum.c:2328 (discriminator 1)
    4dfe:	4630      	mov	r0, r6
    4e00:	f7ff f996 	bl	4130 <mpi_check_small_factors>
    4e04:	b958      	cbnz	r0, 4e1e <mbedtls_mpi_gen_prime+0xc0>
/mnt/disk/raspbian-tee/optee_os/lib/libmbedtls/mbedtls/library/bignum.c:2329
    4e06:	9a0c      	ldr	r2, [sp, #48]	; 0x30
    4e08:	4641      	mov	r1, r8
    4e0a:	4620      	mov	r0, r4
    4e0c:	f7ff fd06 	bl	481c <mpi_miller_rabin>
    4e10:	b928      	cbnz	r0, 4e1e <mbedtls_mpi_gen_prime+0xc0>
/mnt/disk/raspbian-tee/optee_os/lib/libmbedtls/mbedtls/library/bignum.c:2330
    4e12:	9a0c      	ldr	r2, [sp, #48]	; 0x30
    4e14:	4641      	mov	r1, r8
    4e16:	4630      	mov	r0, r6
    4e18:	f7ff fd00 	bl	481c <mpi_miller_rabin>
    4e1c:	b308      	cbz	r0, 4e62 <mbedtls_mpi_gen_prime+0x104>
/mnt/disk/raspbian-tee/optee_os/lib/libmbedtls/mbedtls/library/bignum.c:2336
    4e1e:	f110 0f0e 	cmn.w	r0, #14
    4e22:	d113      	bne.n	4e4c <mbedtls_mpi_gen_prime+0xee>
/mnt/disk/raspbian-tee/optee_os/lib/libmbedtls/mbedtls/library/bignum.c:2344
    4e24:	220c      	movs	r2, #12
    4e26:	4621      	mov	r1, r4
    4e28:	4620      	mov	r0, r4
    4e2a:	f7fe fd34 	bl	3896 <mbedtls_mpi_add_int>
    4e2e:	b968      	cbnz	r0, 4e4c <mbedtls_mpi_gen_prime+0xee>
/mnt/disk/raspbian-tee/optee_os/lib/libmbedtls/mbedtls/library/bignum.c:2345
    4e30:	2206      	movs	r2, #6
    4e32:	4631      	mov	r1, r6
    4e34:	4630      	mov	r0, r6
    4e36:	f7fe fd2e 	bl	3896 <mbedtls_mpi_add_int>
    4e3a:	e7db      	b.n	4df4 <mbedtls_mpi_gen_prime+0x96>
/mnt/disk/raspbian-tee/optee_os/lib/libmbedtls/mbedtls/library/bignum.c:2286 (discriminator 1)
    4e3c:	f1c7 0101 	rsb	r1, r7, #1
    4e40:	4401      	add	r1, r0
    4e42:	4620      	mov	r0, r4
    4e44:	f7fe fb69 	bl	351a <mbedtls_mpi_shift_r>
    4e48:	2800      	cmp	r0, #0
    4e4a:	d0ad      	beq.n	4da8 <mbedtls_mpi_gen_prime+0x4a>
/mnt/disk/raspbian-tee/optee_os/lib/libmbedtls/mbedtls/library/bignum.c:2344
    4e4c:	4605      	mov	r5, r0
    4e4e:	e008      	b.n	4e62 <mbedtls_mpi_gen_prime+0x104>
/mnt/disk/raspbian-tee/optee_os/lib/libmbedtls/mbedtls/library/bignum.c:2290
    4e50:	f043 0301 	orr.w	r3, r3, #1
    4e54:	6013      	str	r3, [r2, #0]
/mnt/disk/raspbian-tee/optee_os/lib/libmbedtls/mbedtls/library/bignum.c:2294
    4e56:	9a0c      	ldr	r2, [sp, #48]	; 0x30
    4e58:	4641      	mov	r1, r8
    4e5a:	4620      	mov	r0, r4
    4e5c:	f7ff ff51 	bl	4d02 <mbedtls_mpi_is_prime>
    4e60:	b930      	cbnz	r0, 4e70 <mbedtls_mpi_gen_prime+0x112>
/mnt/disk/raspbian-tee/optee_os/lib/libmbedtls/mbedtls/library/bignum.c:2351
    4e62:	4630      	mov	r0, r6
    4e64:	f7fe f889 	bl	2f7a <mbedtls_mpi_free>
/mnt/disk/raspbian-tee/optee_os/lib/libmbedtls/mbedtls/library/bignum.c:2354
    4e68:	4628      	mov	r0, r5
    4e6a:	b005      	add	sp, #20
    4e6c:	e8bd 83f0 	ldmia.w	sp!, {r4, r5, r6, r7, r8, r9, pc}
/mnt/disk/raspbian-tee/optee_os/lib/libmbedtls/mbedtls/library/bignum.c:2296
    4e70:	f110 0f0e 	cmn.w	r0, #14
    4e74:	d1ea      	bne.n	4e4c <mbedtls_mpi_gen_prime+0xee>
/mnt/disk/raspbian-tee/optee_os/lib/libmbedtls/mbedtls/library/bignum.c:2299
    4e76:	2202      	movs	r2, #2
    4e78:	4621      	mov	r1, r4
    4e7a:	4620      	mov	r0, r4
    4e7c:	f7fe fd0b 	bl	3896 <mbedtls_mpi_add_int>
    4e80:	2800      	cmp	r0, #0
    4e82:	d0e8      	beq.n	4e56 <mbedtls_mpi_gen_prime+0xf8>
    4e84:	e7e2      	b.n	4e4c <mbedtls_mpi_gen_prime+0xee>
/mnt/disk/raspbian-tee/optee_os/lib/libmbedtls/mbedtls/library/bignum.c:2315
    4e86:	2b01      	cmp	r3, #1
    4e88:	d1ab      	bne.n	4de2 <mbedtls_mpi_gen_prime+0x84>
/mnt/disk/raspbian-tee/optee_os/lib/libmbedtls/mbedtls/library/bignum.c:2316
    4e8a:	2204      	movs	r2, #4
    4e8c:	e7a4      	b.n	4dd8 <mbedtls_mpi_gen_prime+0x7a>
/mnt/disk/raspbian-tee/optee_os/lib/libmbedtls/mbedtls/library/bignum.c:2277
    4e8e:	f06f 0503 	mvn.w	r5, #3
    4e92:	e7e9      	b.n	4e68 <mbedtls_mpi_gen_prime+0x10a>

00004e94 <mbedtls_mpi_self_test>:
mbedtls_mpi_self_test():
/mnt/disk/raspbian-tee/optee_os/lib/libmbedtls/mbedtls/library/bignum.c:2373
    4e94:	e92d 4ff0 	stmdb	sp!, {r4, r5, r6, r7, r8, r9, sl, fp, lr}
    4e98:	4604      	mov	r4, r0
    4e9a:	b09b      	sub	sp, #108	; 0x6c
/mnt/disk/raspbian-tee/optee_os/lib/libmbedtls/mbedtls/library/bignum.c:2377
    4e9c:	af05      	add	r7, sp, #20
    4e9e:	f10d 0b20 	add.w	fp, sp, #32
    4ea2:	4638      	mov	r0, r7
/mnt/disk/raspbian-tee/optee_os/lib/libmbedtls/mbedtls/library/bignum.c:2378
    4ea4:	f10d 082c 	add.w	r8, sp, #44	; 0x2c
/mnt/disk/raspbian-tee/optee_os/lib/libmbedtls/mbedtls/library/bignum.c:2377
    4ea8:	f7fe f84b 	bl	2f42 <mbedtls_mpi_init_mempool>
    4eac:	4658      	mov	r0, fp
    4eae:	f7fe f848 	bl	2f42 <mbedtls_mpi_init_mempool>
/mnt/disk/raspbian-tee/optee_os/lib/libmbedtls/mbedtls/library/bignum.c:2378
    4eb2:	ad0e      	add	r5, sp, #56	; 0x38
    4eb4:	4640      	mov	r0, r8
/mnt/disk/raspbian-tee/optee_os/lib/libmbedtls/mbedtls/library/bignum.c:2379
    4eb6:	f10d 0944 	add.w	r9, sp, #68	; 0x44
/mnt/disk/raspbian-tee/optee_os/lib/libmbedtls/mbedtls/library/bignum.c:2378
    4eba:	f7fe f842 	bl	2f42 <mbedtls_mpi_init_mempool>
    4ebe:	4628      	mov	r0, r5
    4ec0:	f7fe f83f 	bl	2f42 <mbedtls_mpi_init_mempool>
/mnt/disk/raspbian-tee/optee_os/lib/libmbedtls/mbedtls/library/bignum.c:2379
    4ec4:	ae14      	add	r6, sp, #80	; 0x50
    4ec6:	4648      	mov	r0, r9
    4ec8:	f7fe f83b 	bl	2f42 <mbedtls_mpi_init_mempool>
    4ecc:	4630      	mov	r0, r6
    4ece:	f7fe f838 	bl	2f42 <mbedtls_mpi_init_mempool>
/mnt/disk/raspbian-tee/optee_os/lib/libmbedtls/mbedtls/library/bignum.c:2380
    4ed2:	a817      	add	r0, sp, #92	; 0x5c
    4ed4:	f7fe f835 	bl	2f42 <mbedtls_mpi_init_mempool>
/mnt/disk/raspbian-tee/optee_os/lib/libmbedtls/mbedtls/library/bignum.c:2382
    4ed8:	4aa3      	ldr	r2, [pc, #652]	; (5168 <mbedtls_mpi_self_test+0x2d4>)
    4eda:	2110      	movs	r1, #16
    4edc:	4638      	mov	r0, r7
    4ede:	447a      	add	r2, pc
    4ee0:	f7fe fd86 	bl	39f0 <mbedtls_mpi_read_string>
    4ee4:	4603      	mov	r3, r0
    4ee6:	2800      	cmp	r0, #0
    4ee8:	f040 811d 	bne.w	5126 <mbedtls_mpi_self_test+0x292>
/mnt/disk/raspbian-tee/optee_os/lib/libmbedtls/mbedtls/library/bignum.c:2388
    4eec:	4a9f      	ldr	r2, [pc, #636]	; (516c <mbedtls_mpi_self_test+0x2d8>)
    4eee:	2110      	movs	r1, #16
    4ef0:	4658      	mov	r0, fp
    4ef2:	447a      	add	r2, pc
    4ef4:	f7fe fd7c 	bl	39f0 <mbedtls_mpi_read_string>
    4ef8:	4603      	mov	r3, r0
    4efa:	2800      	cmp	r0, #0
    4efc:	f040 8113 	bne.w	5126 <mbedtls_mpi_self_test+0x292>
/mnt/disk/raspbian-tee/optee_os/lib/libmbedtls/mbedtls/library/bignum.c:2394
    4f00:	4a9b      	ldr	r2, [pc, #620]	; (5170 <mbedtls_mpi_self_test+0x2dc>)
    4f02:	2110      	movs	r1, #16
    4f04:	4640      	mov	r0, r8
    4f06:	447a      	add	r2, pc
    4f08:	f7fe fd72 	bl	39f0 <mbedtls_mpi_read_string>
    4f0c:	4603      	mov	r3, r0
    4f0e:	2800      	cmp	r0, #0
    4f10:	f040 8109 	bne.w	5126 <mbedtls_mpi_self_test+0x292>
/mnt/disk/raspbian-tee/optee_os/lib/libmbedtls/mbedtls/library/bignum.c:2399
    4f14:	4642      	mov	r2, r8
    4f16:	4639      	mov	r1, r7
    4f18:	4628      	mov	r0, r5
    4f1a:	f7fe fcec 	bl	38f6 <mbedtls_mpi_mul_mpi>
    4f1e:	4603      	mov	r3, r0
    4f20:	2800      	cmp	r0, #0
    4f22:	f040 8100 	bne.w	5126 <mbedtls_mpi_self_test+0x292>
/mnt/disk/raspbian-tee/optee_os/lib/libmbedtls/mbedtls/library/bignum.c:2401
    4f26:	4a93      	ldr	r2, [pc, #588]	; (5174 <mbedtls_mpi_self_test+0x2e0>)
    4f28:	2110      	movs	r1, #16
    4f2a:	4630      	mov	r0, r6
    4f2c:	447a      	add	r2, pc
    4f2e:	f7fe fd5f 	bl	39f0 <mbedtls_mpi_read_string>
    4f32:	4603      	mov	r3, r0
    4f34:	2800      	cmp	r0, #0
    4f36:	f040 80f6 	bne.w	5126 <mbedtls_mpi_self_test+0x292>
/mnt/disk/raspbian-tee/optee_os/lib/libmbedtls/mbedtls/library/bignum.c:2410
    4f3a:	b11c      	cbz	r4, 4f44 <mbedtls_mpi_self_test+0xb0>
/mnt/disk/raspbian-tee/optee_os/lib/libmbedtls/mbedtls/library/bignum.c:2411
    4f3c:	488e      	ldr	r0, [pc, #568]	; (5178 <mbedtls_mpi_self_test+0x2e4>)
    4f3e:	4478      	add	r0, pc
    4f40:	f7fc f809 	bl	f56 <printf>
/mnt/disk/raspbian-tee/optee_os/lib/libmbedtls/mbedtls/library/bignum.c:2413
    4f44:	4631      	mov	r1, r6
    4f46:	4628      	mov	r0, r5
    4f48:	f7fe fb5a 	bl	3600 <mbedtls_mpi_cmp_mpi>
    4f4c:	ab17      	add	r3, sp, #92	; 0x5c
    4f4e:	9303      	str	r3, [sp, #12]
    4f50:	b140      	cbz	r0, 4f64 <mbedtls_mpi_self_test+0xd0>
/mnt/disk/raspbian-tee/optee_os/lib/libmbedtls/mbedtls/library/bignum.c:2415
    4f52:	2c00      	cmp	r4, #0
    4f54:	f000 80f0 	beq.w	5138 <mbedtls_mpi_self_test+0x2a4>
/mnt/disk/raspbian-tee/optee_os/lib/libmbedtls/mbedtls/library/bignum.c:2416
    4f58:	4888      	ldr	r0, [pc, #544]	; (517c <mbedtls_mpi_self_test+0x2e8>)
    4f5a:	4478      	add	r0, pc
    4f5c:	f7fc f818 	bl	f90 <puts>
/mnt/disk/raspbian-tee/optee_os/lib/libmbedtls/mbedtls/library/bignum.c:2373
    4f60:	2301      	movs	r3, #1
    4f62:	e0e2      	b.n	512a <mbedtls_mpi_self_test+0x296>
/mnt/disk/raspbian-tee/optee_os/lib/libmbedtls/mbedtls/library/bignum.c:2422
    4f64:	b11c      	cbz	r4, 4f6e <mbedtls_mpi_self_test+0xda>
/mnt/disk/raspbian-tee/optee_os/lib/libmbedtls/mbedtls/library/bignum.c:2423
    4f66:	4886      	ldr	r0, [pc, #536]	; (5180 <mbedtls_mpi_self_test+0x2ec>)
    4f68:	4478      	add	r0, pc
    4f6a:	f7fc f811 	bl	f90 <puts>
/mnt/disk/raspbian-tee/optee_os/lib/libmbedtls/mbedtls/library/bignum.c:2425
    4f6e:	4643      	mov	r3, r8
    4f70:	463a      	mov	r2, r7
    4f72:	4649      	mov	r1, r9
    4f74:	4628      	mov	r0, r5
    4f76:	f7fe fdd1 	bl	3b1c <mbedtls_mpi_div_mpi>
    4f7a:	4603      	mov	r3, r0
    4f7c:	2800      	cmp	r0, #0
    4f7e:	f040 80d2 	bne.w	5126 <mbedtls_mpi_self_test+0x292>
/mnt/disk/raspbian-tee/optee_os/lib/libmbedtls/mbedtls/library/bignum.c:2427
    4f82:	4a80      	ldr	r2, [pc, #512]	; (5184 <mbedtls_mpi_self_test+0x2f0>)
    4f84:	2110      	movs	r1, #16
    4f86:	4630      	mov	r0, r6
    4f88:	447a      	add	r2, pc
    4f8a:	f7fe fd31 	bl	39f0 <mbedtls_mpi_read_string>
    4f8e:	4603      	mov	r3, r0
    4f90:	2800      	cmp	r0, #0
    4f92:	f040 80c8 	bne.w	5126 <mbedtls_mpi_self_test+0x292>
/mnt/disk/raspbian-tee/optee_os/lib/libmbedtls/mbedtls/library/bignum.c:2430
    4f96:	4a7c      	ldr	r2, [pc, #496]	; (5188 <mbedtls_mpi_self_test+0x2f4>)
    4f98:	2110      	movs	r1, #16
    4f9a:	9803      	ldr	r0, [sp, #12]
    4f9c:	447a      	add	r2, pc
    4f9e:	f7fe fd27 	bl	39f0 <mbedtls_mpi_read_string>
    4fa2:	4603      	mov	r3, r0
    4fa4:	2800      	cmp	r0, #0
    4fa6:	f040 80be 	bne.w	5126 <mbedtls_mpi_self_test+0x292>
/mnt/disk/raspbian-tee/optee_os/lib/libmbedtls/mbedtls/library/bignum.c:2435
    4faa:	b11c      	cbz	r4, 4fb4 <mbedtls_mpi_self_test+0x120>
/mnt/disk/raspbian-tee/optee_os/lib/libmbedtls/mbedtls/library/bignum.c:2436
    4fac:	4877      	ldr	r0, [pc, #476]	; (518c <mbedtls_mpi_self_test+0x2f8>)
    4fae:	4478      	add	r0, pc
    4fb0:	f7fb ffd1 	bl	f56 <printf>
/mnt/disk/raspbian-tee/optee_os/lib/libmbedtls/mbedtls/library/bignum.c:2438
    4fb4:	4631      	mov	r1, r6
    4fb6:	4628      	mov	r0, r5
    4fb8:	f7fe fb22 	bl	3600 <mbedtls_mpi_cmp_mpi>
    4fbc:	2800      	cmp	r0, #0
    4fbe:	d1c8      	bne.n	4f52 <mbedtls_mpi_self_test+0xbe>
/mnt/disk/raspbian-tee/optee_os/lib/libmbedtls/mbedtls/library/bignum.c:2439 (discriminator 1)
    4fc0:	9903      	ldr	r1, [sp, #12]
    4fc2:	4648      	mov	r0, r9
    4fc4:	f7fe fb1c 	bl	3600 <mbedtls_mpi_cmp_mpi>
/mnt/disk/raspbian-tee/optee_os/lib/libmbedtls/mbedtls/library/bignum.c:2438 (discriminator 1)
    4fc8:	2800      	cmp	r0, #0
    4fca:	d1c2      	bne.n	4f52 <mbedtls_mpi_self_test+0xbe>
/mnt/disk/raspbian-tee/optee_os/lib/libmbedtls/mbedtls/library/bignum.c:2448
    4fcc:	b11c      	cbz	r4, 4fd6 <mbedtls_mpi_self_test+0x142>
/mnt/disk/raspbian-tee/optee_os/lib/libmbedtls/mbedtls/library/bignum.c:2449
    4fce:	4870      	ldr	r0, [pc, #448]	; (5190 <mbedtls_mpi_self_test+0x2fc>)
    4fd0:	4478      	add	r0, pc
    4fd2:	f7fb ffdd 	bl	f90 <puts>
/mnt/disk/raspbian-tee/optee_os/lib/libmbedtls/mbedtls/library/bignum.c:2451
    4fd6:	2300      	movs	r3, #0
    4fd8:	465a      	mov	r2, fp
    4fda:	9300      	str	r3, [sp, #0]
    4fdc:	4639      	mov	r1, r7
    4fde:	4643      	mov	r3, r8
    4fe0:	4628      	mov	r0, r5
    4fe2:	f7ff f955 	bl	4290 <mbedtls_mpi_exp_mod>
    4fe6:	4603      	mov	r3, r0
    4fe8:	2800      	cmp	r0, #0
    4fea:	f040 809c 	bne.w	5126 <mbedtls_mpi_self_test+0x292>
/mnt/disk/raspbian-tee/optee_os/lib/libmbedtls/mbedtls/library/bignum.c:2453
    4fee:	4a69      	ldr	r2, [pc, #420]	; (5194 <mbedtls_mpi_self_test+0x300>)
    4ff0:	2110      	movs	r1, #16
    4ff2:	4630      	mov	r0, r6
    4ff4:	447a      	add	r2, pc
    4ff6:	f7fe fcfb 	bl	39f0 <mbedtls_mpi_read_string>
    4ffa:	4603      	mov	r3, r0
    4ffc:	2800      	cmp	r0, #0
    4ffe:	f040 8092 	bne.w	5126 <mbedtls_mpi_self_test+0x292>
/mnt/disk/raspbian-tee/optee_os/lib/libmbedtls/mbedtls/library/bignum.c:2458
    5002:	b11c      	cbz	r4, 500c <mbedtls_mpi_self_test+0x178>
/mnt/disk/raspbian-tee/optee_os/lib/libmbedtls/mbedtls/library/bignum.c:2459
    5004:	4864      	ldr	r0, [pc, #400]	; (5198 <mbedtls_mpi_self_test+0x304>)
    5006:	4478      	add	r0, pc
    5008:	f7fb ffa5 	bl	f56 <printf>
/mnt/disk/raspbian-tee/optee_os/lib/libmbedtls/mbedtls/library/bignum.c:2461
    500c:	4631      	mov	r1, r6
    500e:	4628      	mov	r0, r5
    5010:	f7fe faf6 	bl	3600 <mbedtls_mpi_cmp_mpi>
    5014:	2800      	cmp	r0, #0
    5016:	d19c      	bne.n	4f52 <mbedtls_mpi_self_test+0xbe>
/mnt/disk/raspbian-tee/optee_os/lib/libmbedtls/mbedtls/library/bignum.c:2470
    5018:	b11c      	cbz	r4, 5022 <mbedtls_mpi_self_test+0x18e>
/mnt/disk/raspbian-tee/optee_os/lib/libmbedtls/mbedtls/library/bignum.c:2471
    501a:	4860      	ldr	r0, [pc, #384]	; (519c <mbedtls_mpi_self_test+0x308>)
    501c:	4478      	add	r0, pc
    501e:	f7fb ffb7 	bl	f90 <puts>
/mnt/disk/raspbian-tee/optee_os/lib/libmbedtls/mbedtls/library/bignum.c:2473
    5022:	4642      	mov	r2, r8
    5024:	4639      	mov	r1, r7
    5026:	4628      	mov	r0, r5
    5028:	f7ff fd03 	bl	4a32 <mbedtls_mpi_inv_mod>
    502c:	4603      	mov	r3, r0
    502e:	2800      	cmp	r0, #0
    5030:	d179      	bne.n	5126 <mbedtls_mpi_self_test+0x292>
/mnt/disk/raspbian-tee/optee_os/lib/libmbedtls/mbedtls/library/bignum.c:2475
    5032:	4a5b      	ldr	r2, [pc, #364]	; (51a0 <mbedtls_mpi_self_test+0x30c>)
    5034:	2110      	movs	r1, #16
    5036:	4630      	mov	r0, r6
    5038:	447a      	add	r2, pc
    503a:	f7fe fcd9 	bl	39f0 <mbedtls_mpi_read_string>
    503e:	4603      	mov	r3, r0
    5040:	2800      	cmp	r0, #0
    5042:	d170      	bne.n	5126 <mbedtls_mpi_self_test+0x292>
/mnt/disk/raspbian-tee/optee_os/lib/libmbedtls/mbedtls/library/bignum.c:2480
    5044:	b11c      	cbz	r4, 504e <mbedtls_mpi_self_test+0x1ba>
/mnt/disk/raspbian-tee/optee_os/lib/libmbedtls/mbedtls/library/bignum.c:2481
    5046:	4857      	ldr	r0, [pc, #348]	; (51a4 <mbedtls_mpi_self_test+0x310>)
    5048:	4478      	add	r0, pc
    504a:	f7fb ff84 	bl	f56 <printf>
/mnt/disk/raspbian-tee/optee_os/lib/libmbedtls/mbedtls/library/bignum.c:2483
    504e:	4631      	mov	r1, r6
    5050:	4628      	mov	r0, r5
    5052:	f7fe fad5 	bl	3600 <mbedtls_mpi_cmp_mpi>
    5056:	9002      	str	r0, [sp, #8]
    5058:	2800      	cmp	r0, #0
    505a:	f47f af7a 	bne.w	4f52 <mbedtls_mpi_self_test+0xbe>
/mnt/disk/raspbian-tee/optee_os/lib/libmbedtls/mbedtls/library/bignum.c:2492
    505e:	b13c      	cbz	r4, 5070 <mbedtls_mpi_self_test+0x1dc>
/mnt/disk/raspbian-tee/optee_os/lib/libmbedtls/mbedtls/library/bignum.c:2493
    5060:	4851      	ldr	r0, [pc, #324]	; (51a8 <mbedtls_mpi_self_test+0x314>)
    5062:	4478      	add	r0, pc
    5064:	f7fb ff94 	bl	f90 <puts>
/mnt/disk/raspbian-tee/optee_os/lib/libmbedtls/mbedtls/library/bignum.c:2496
    5068:	4850      	ldr	r0, [pc, #320]	; (51ac <mbedtls_mpi_self_test+0x318>)
    506a:	4478      	add	r0, pc
    506c:	f7fb ff73 	bl	f56 <printf>
    5070:	f8df a13c 	ldr.w	sl, [pc, #316]	; 51b0 <mbedtls_mpi_self_test+0x31c>
    5074:	44fa      	add	sl, pc
    5076:	f50a 7a28 	add.w	sl, sl, #672	; 0x2a0
/mnt/disk/raspbian-tee/optee_os/lib/libmbedtls/mbedtls/library/bignum.c:2500
    507a:	f8da 1000 	ldr.w	r1, [sl]
    507e:	4628      	mov	r0, r5
    5080:	f7fe f917 	bl	32b2 <mbedtls_mpi_lset>
    5084:	4603      	mov	r3, r0
    5086:	2800      	cmp	r0, #0
    5088:	d14d      	bne.n	5126 <mbedtls_mpi_self_test+0x292>
/mnt/disk/raspbian-tee/optee_os/lib/libmbedtls/mbedtls/library/bignum.c:2501
    508a:	f8da 1004 	ldr.w	r1, [sl, #4]
    508e:	4648      	mov	r0, r9
    5090:	f7fe f90f 	bl	32b2 <mbedtls_mpi_lset>
    5094:	4603      	mov	r3, r0
    5096:	2800      	cmp	r0, #0
    5098:	d145      	bne.n	5126 <mbedtls_mpi_self_test+0x292>
/mnt/disk/raspbian-tee/optee_os/lib/libmbedtls/mbedtls/library/bignum.c:2503
    509a:	464a      	mov	r2, r9
    509c:	4629      	mov	r1, r5
    509e:	4638      	mov	r0, r7
    50a0:	f7ff fb19 	bl	46d6 <mbedtls_mpi_gcd>
    50a4:	4603      	mov	r3, r0
    50a6:	2800      	cmp	r0, #0
    50a8:	d13d      	bne.n	5126 <mbedtls_mpi_self_test+0x292>
/mnt/disk/raspbian-tee/optee_os/lib/libmbedtls/mbedtls/library/bignum.c:2505
    50aa:	f8da 1008 	ldr.w	r1, [sl, #8]
    50ae:	4638      	mov	r0, r7
    50b0:	f7fe faf1 	bl	3696 <mbedtls_mpi_cmp_int>
    50b4:	b138      	cbz	r0, 50c6 <mbedtls_mpi_self_test+0x232>
/mnt/disk/raspbian-tee/optee_os/lib/libmbedtls/mbedtls/library/bignum.c:2507
    50b6:	2c00      	cmp	r4, #0
    50b8:	d03e      	beq.n	5138 <mbedtls_mpi_self_test+0x2a4>
/mnt/disk/raspbian-tee/optee_os/lib/libmbedtls/mbedtls/library/bignum.c:2508
    50ba:	483e      	ldr	r0, [pc, #248]	; (51b4 <mbedtls_mpi_self_test+0x320>)
    50bc:	9902      	ldr	r1, [sp, #8]
    50be:	4478      	add	r0, pc
    50c0:	f7fb ff49 	bl	f56 <printf>
    50c4:	e74c      	b.n	4f60 <mbedtls_mpi_self_test+0xcc>
/mnt/disk/raspbian-tee/optee_os/lib/libmbedtls/mbedtls/library/bignum.c:2498 (discriminator 2)
    50c6:	9a02      	ldr	r2, [sp, #8]
    50c8:	f10a 0a0c 	add.w	sl, sl, #12
    50cc:	3201      	adds	r2, #1
    50ce:	9202      	str	r2, [sp, #8]
    50d0:	2a03      	cmp	r2, #3
    50d2:	d1d2      	bne.n	507a <mbedtls_mpi_self_test+0x1e6>
/mnt/disk/raspbian-tee/optee_os/lib/libmbedtls/mbedtls/library/bignum.c:2515
    50d4:	b32c      	cbz	r4, 5122 <mbedtls_mpi_self_test+0x28e>
    50d6:	9002      	str	r0, [sp, #8]
/mnt/disk/raspbian-tee/optee_os/lib/libmbedtls/mbedtls/library/bignum.c:2516
    50d8:	4837      	ldr	r0, [pc, #220]	; (51b8 <mbedtls_mpi_self_test+0x324>)
    50da:	4478      	add	r0, pc
    50dc:	f7fb ff58 	bl	f90 <puts>
    50e0:	9b02      	ldr	r3, [sp, #8]
/mnt/disk/raspbian-tee/optee_os/lib/libmbedtls/mbedtls/library/bignum.c:2523
    50e2:	4638      	mov	r0, r7
    50e4:	9302      	str	r3, [sp, #8]
    50e6:	f7fd ff48 	bl	2f7a <mbedtls_mpi_free>
    50ea:	4658      	mov	r0, fp
    50ec:	f7fd ff45 	bl	2f7a <mbedtls_mpi_free>
    50f0:	4640      	mov	r0, r8
    50f2:	f7fd ff42 	bl	2f7a <mbedtls_mpi_free>
    50f6:	4628      	mov	r0, r5
    50f8:	f7fd ff3f 	bl	2f7a <mbedtls_mpi_free>
/mnt/disk/raspbian-tee/optee_os/lib/libmbedtls/mbedtls/library/bignum.c:2524
    50fc:	4648      	mov	r0, r9
    50fe:	f7fd ff3c 	bl	2f7a <mbedtls_mpi_free>
    5102:	4630      	mov	r0, r6
    5104:	f7fd ff39 	bl	2f7a <mbedtls_mpi_free>
    5108:	a817      	add	r0, sp, #92	; 0x5c
    510a:	f7fd ff36 	bl	2f7a <mbedtls_mpi_free>
/mnt/disk/raspbian-tee/optee_os/lib/libmbedtls/mbedtls/library/bignum.c:2526
    510e:	9b02      	ldr	r3, [sp, #8]
    5110:	b11c      	cbz	r4, 511a <mbedtls_mpi_self_test+0x286>
/mnt/disk/raspbian-tee/optee_os/lib/libmbedtls/mbedtls/library/bignum.c:2527
    5112:	200a      	movs	r0, #10
    5114:	f7fb ff4e 	bl	fb4 <putchar>
/mnt/disk/raspbian-tee/optee_os/lib/libmbedtls/mbedtls/library/bignum.c:2529
    5118:	9b02      	ldr	r3, [sp, #8]
/mnt/disk/raspbian-tee/optee_os/lib/libmbedtls/mbedtls/library/bignum.c:2530
    511a:	4618      	mov	r0, r3
    511c:	b01b      	add	sp, #108	; 0x6c
    511e:	e8bd 8ff0 	ldmia.w	sp!, {r4, r5, r6, r7, r8, r9, sl, fp, pc}
    5122:	4623      	mov	r3, r4
    5124:	e7dd      	b.n	50e2 <mbedtls_mpi_self_test+0x24e>
/mnt/disk/raspbian-tee/optee_os/lib/libmbedtls/mbedtls/library/bignum.c:2520
    5126:	2c00      	cmp	r4, #0
    5128:	d0db      	beq.n	50e2 <mbedtls_mpi_self_test+0x24e>
/mnt/disk/raspbian-tee/optee_os/lib/libmbedtls/mbedtls/library/bignum.c:2521
    512a:	4824      	ldr	r0, [pc, #144]	; (51bc <mbedtls_mpi_self_test+0x328>)
    512c:	4619      	mov	r1, r3
    512e:	9302      	str	r3, [sp, #8]
    5130:	4478      	add	r0, pc
    5132:	f7fb ff10 	bl	f56 <printf>
    5136:	e7d3      	b.n	50e0 <mbedtls_mpi_self_test+0x24c>
/mnt/disk/raspbian-tee/optee_os/lib/libmbedtls/mbedtls/library/bignum.c:2523
    5138:	4638      	mov	r0, r7
    513a:	f7fd ff1e 	bl	2f7a <mbedtls_mpi_free>
    513e:	4658      	mov	r0, fp
    5140:	f7fd ff1b 	bl	2f7a <mbedtls_mpi_free>
    5144:	4640      	mov	r0, r8
    5146:	f7fd ff18 	bl	2f7a <mbedtls_mpi_free>
    514a:	4628      	mov	r0, r5
    514c:	f7fd ff15 	bl	2f7a <mbedtls_mpi_free>
/mnt/disk/raspbian-tee/optee_os/lib/libmbedtls/mbedtls/library/bignum.c:2524
    5150:	4648      	mov	r0, r9
    5152:	f7fd ff12 	bl	2f7a <mbedtls_mpi_free>
    5156:	4630      	mov	r0, r6
    5158:	f7fd ff0f 	bl	2f7a <mbedtls_mpi_free>
    515c:	9803      	ldr	r0, [sp, #12]
    515e:	f7fd ff0c 	bl	2f7a <mbedtls_mpi_free>
    5162:	2301      	movs	r3, #1
    5164:	e7d9      	b.n	511a <mbedtls_mpi_self_test+0x286>
    5166:	bf00      	nop
    5168:	00001ac5 	.word	0x00001ac5
    516c:	00001b32 	.word	0x00001b32
    5170:	00001b9f 	.word	0x00001b9f
    5174:	00001bda 	.word	0x00001bda
    5178:	00001ca7 	.word	0x00001ca7
    517c:	00001ca5 	.word	0x00001ca5
    5180:	00001c9e 	.word	0x00001c9e
    5184:	00001c85 	.word	0x00001c85
    5188:	00001c95 	.word	0x00001c95
    518c:	00001ce2 	.word	0x00001ce2
    5190:	00001c36 	.word	0x00001c36
    5194:	00001cb6 	.word	0x00001cb6
    5198:	00001d03 	.word	0x00001d03
    519c:	00001bea 	.word	0x00001bea
    51a0:	00001ceb 	.word	0x00001ceb
    51a4:	00001d3c 	.word	0x00001d3c
    51a8:	00001ba4 	.word	0x00001ba4
    51ac:	00001d34 	.word	0x00001d34
    51b0:	00001114 	.word	0x00001114
    51b4:	00001cfd 	.word	0x00001cfd
    51b8:	00001b2c 	.word	0x00001b2c
    51bc:	00001c99 	.word	0x00001c99

000051c0 <raw_malloc_return_hook.isra.3>:
raw_malloc_return_hook():
/mnt/disk/raspbian-tee/optee_os/lib/libutils/isoc/bget_malloc.c:167
    51c0:	4b09      	ldr	r3, [pc, #36]	; (51e8 <raw_malloc_return_hook.isra.3+0x28>)
/mnt/disk/raspbian-tee/optee_os/lib/libutils/isoc/bget_malloc.c:164
    51c2:	b510      	push	{r4, lr}
/mnt/disk/raspbian-tee/optee_os/lib/libutils/isoc/bget_malloc.c:167
    51c4:	447b      	add	r3, pc
    51c6:	6a5c      	ldr	r4, [r3, #36]	; 0x24
    51c8:	42a2      	cmp	r2, r4
    51ca:	d900      	bls.n	51ce <raw_malloc_return_hook.isra.3+0xe>
/mnt/disk/raspbian-tee/optee_os/lib/libutils/isoc/bget_malloc.c:168
    51cc:	625a      	str	r2, [r3, #36]	; 0x24
/mnt/disk/raspbian-tee/optee_os/lib/libutils/isoc/bget_malloc.c:170
    51ce:	b948      	cbnz	r0, 51e4 <raw_malloc_return_hook.isra.3+0x24>
/mnt/disk/raspbian-tee/optee_os/lib/libutils/isoc/bget_malloc.c:171
    51d0:	4b06      	ldr	r3, [pc, #24]	; (51ec <raw_malloc_return_hook.isra.3+0x2c>)
    51d2:	447b      	add	r3, pc
    51d4:	6ad8      	ldr	r0, [r3, #44]	; 0x2c
    51d6:	3001      	adds	r0, #1
    51d8:	62d8      	str	r0, [r3, #44]	; 0x2c
/mnt/disk/raspbian-tee/optee_os/lib/libutils/isoc/bget_malloc.c:172
    51da:	6b18      	ldr	r0, [r3, #48]	; 0x30
    51dc:	4288      	cmp	r0, r1
    51de:	d201      	bcs.n	51e4 <raw_malloc_return_hook.isra.3+0x24>
/mnt/disk/raspbian-tee/optee_os/lib/libutils/isoc/bget_malloc.c:173
    51e0:	6319      	str	r1, [r3, #48]	; 0x30
/mnt/disk/raspbian-tee/optee_os/lib/libutils/isoc/bget_malloc.c:174
    51e2:	635a      	str	r2, [r3, #52]	; 0x34
    51e4:	bd10      	pop	{r4, pc}
    51e6:	bf00      	nop
    51e8:	00005318 	.word	0x00005318
    51ec:	0000530a 	.word	0x0000530a

000051f0 <create_free_block.constprop.11>:
create_free_block():
/mnt/disk/raspbian-tee/optee_os/lib/libutils/isoc/bget_malloc.c:380
    51f0:	b508      	push	{r3, lr}
/mnt/disk/raspbian-tee/optee_os/lib/libutils/isoc/bget_malloc.c:383
    51f2:	1843      	adds	r3, r0, r1
    51f4:	4293      	cmp	r3, r2
    51f6:	d00b      	beq.n	5210 <create_free_block.constprop.11+0x20>
    51f8:	4b23      	ldr	r3, [pc, #140]	; (5288 <create_free_block.constprop.11+0x98>)
    51fa:	f240 127f 	movw	r2, #383	; 0x17f
    51fe:	4923      	ldr	r1, [pc, #140]	; (528c <create_free_block.constprop.11+0x9c>)
    5200:	4823      	ldr	r0, [pc, #140]	; (5290 <create_free_block.constprop.11+0xa0>)
    5202:	447b      	add	r3, pc
    5204:	4479      	add	r1, pc
    5206:	4478      	add	r0, pc
/mnt/disk/raspbian-tee/optee_os/lib/libutils/isoc/bget_malloc.c:384
    5208:	f000 fe4a 	bl	5ea0 <_assert_log>
    520c:	f000 fe5c 	bl	5ec8 <_assert_break>
    5210:	685b      	ldr	r3, [r3, #4]
    5212:	2b00      	cmp	r3, #0
    5214:	db08      	blt.n	5228 <create_free_block.constprop.11+0x38>
    5216:	4b1f      	ldr	r3, [pc, #124]	; (5294 <create_free_block.constprop.11+0xa4>)
    5218:	f44f 72c0 	mov.w	r2, #384	; 0x180
    521c:	491e      	ldr	r1, [pc, #120]	; (5298 <create_free_block.constprop.11+0xa8>)
    521e:	481f      	ldr	r0, [pc, #124]	; (529c <create_free_block.constprop.11+0xac>)
    5220:	447b      	add	r3, pc
    5222:	4479      	add	r1, pc
    5224:	4478      	add	r0, pc
    5226:	e7ef      	b.n	5208 <create_free_block.constprop.11+0x18>
/mnt/disk/raspbian-tee/optee_os/lib/libutils/isoc/bget_malloc.c:386
    5228:	5843      	ldr	r3, [r0, r1]
    522a:	b143      	cbz	r3, 523e <create_free_block.constprop.11+0x4e>
    522c:	4b1c      	ldr	r3, [pc, #112]	; (52a0 <create_free_block.constprop.11+0xb0>)
    522e:	f44f 72c1 	mov.w	r2, #386	; 0x182
    5232:	491c      	ldr	r1, [pc, #112]	; (52a4 <create_free_block.constprop.11+0xb4>)
    5234:	481c      	ldr	r0, [pc, #112]	; (52a8 <create_free_block.constprop.11+0xb8>)
    5236:	447b      	add	r3, pc
    5238:	4479      	add	r1, pc
    523a:	4478      	add	r0, pc
    523c:	e7e4      	b.n	5208 <create_free_block.constprop.11+0x18>
/mnt/disk/raspbian-tee/optee_os/lib/libutils/isoc/bget_malloc.c:390
    523e:	6003      	str	r3, [r0, #0]
/mnt/disk/raspbian-tee/optee_os/lib/libutils/isoc/bget_malloc.c:396
    5240:	4b1a      	ldr	r3, [pc, #104]	; (52ac <create_free_block.constprop.11+0xbc>)
/mnt/disk/raspbian-tee/optee_os/lib/libutils/isoc/bget_malloc.c:389
    5242:	6041      	str	r1, [r0, #4]
/mnt/disk/raspbian-tee/optee_os/lib/libutils/isoc/bget_malloc.c:396
    5244:	447b      	add	r3, pc
/mnt/disk/raspbian-tee/optee_os/lib/libutils/isoc/bget_malloc.c:393
    5246:	5041      	str	r1, [r0, r1]
/mnt/disk/raspbian-tee/optee_os/lib/libutils/isoc/bget_malloc.c:396
    5248:	68d9      	ldr	r1, [r3, #12]
    524a:	688a      	ldr	r2, [r1, #8]
    524c:	429a      	cmp	r2, r3
    524e:	d008      	beq.n	5262 <create_free_block.constprop.11+0x72>
    5250:	4b17      	ldr	r3, [pc, #92]	; (52b0 <create_free_block.constprop.11+0xc0>)
    5252:	f44f 72c6 	mov.w	r2, #396	; 0x18c
    5256:	4917      	ldr	r1, [pc, #92]	; (52b4 <create_free_block.constprop.11+0xc4>)
    5258:	4817      	ldr	r0, [pc, #92]	; (52b8 <create_free_block.constprop.11+0xc8>)
    525a:	447b      	add	r3, pc
    525c:	4479      	add	r1, pc
    525e:	4478      	add	r0, pc
    5260:	e7d2      	b.n	5208 <create_free_block.constprop.11+0x18>
/mnt/disk/raspbian-tee/optee_os/lib/libutils/isoc/bget_malloc.c:397
    5262:	6893      	ldr	r3, [r2, #8]
    5264:	68db      	ldr	r3, [r3, #12]
    5266:	4293      	cmp	r3, r2
    5268:	d008      	beq.n	527c <create_free_block.constprop.11+0x8c>
    526a:	4b14      	ldr	r3, [pc, #80]	; (52bc <create_free_block.constprop.11+0xcc>)
    526c:	f240 128d 	movw	r2, #397	; 0x18d
    5270:	4913      	ldr	r1, [pc, #76]	; (52c0 <create_free_block.constprop.11+0xd0>)
    5272:	4814      	ldr	r0, [pc, #80]	; (52c4 <create_free_block.constprop.11+0xd4>)
    5274:	447b      	add	r3, pc
    5276:	4479      	add	r1, pc
    5278:	4478      	add	r0, pc
    527a:	e7c5      	b.n	5208 <create_free_block.constprop.11+0x18>
/mnt/disk/raspbian-tee/optee_os/lib/libutils/isoc/bget_malloc.c:398
    527c:	6083      	str	r3, [r0, #8]
/mnt/disk/raspbian-tee/optee_os/lib/libutils/isoc/bget_malloc.c:399
    527e:	60c1      	str	r1, [r0, #12]
/mnt/disk/raspbian-tee/optee_os/lib/libutils/isoc/bget_malloc.c:400
    5280:	60d8      	str	r0, [r3, #12]
/mnt/disk/raspbian-tee/optee_os/lib/libutils/isoc/bget_malloc.c:401
    5282:	68c3      	ldr	r3, [r0, #12]
    5284:	6098      	str	r0, [r3, #8]
    5286:	bd08      	pop	{r3, pc}
    5288:	00001bed 	.word	0x00001bed
    528c:	00001c75 	.word	0x00001c75
    5290:	00001c93 	.word	0x00001c93
    5294:	00001bcf 	.word	0x00001bcf
    5298:	00001c57 	.word	0x00001c57
    529c:	00001c91 	.word	0x00001c91
    52a0:	00001bb9 	.word	0x00001bb9
    52a4:	00001c41 	.word	0x00001c41
    52a8:	00001c89 	.word	0x00001c89
    52ac:	00002f18 	.word	0x00002f18
    52b0:	00001b95 	.word	0x00001b95
    52b4:	00001c1d 	.word	0x00001c1d
    52b8:	00001c77 	.word	0x00001c77
    52bc:	00001b7b 	.word	0x00001b7b
    52c0:	00001c03 	.word	0x00001c03
    52c4:	00001c98 	.word	0x00001c98

000052c8 <bget>:
bget():
/mnt/disk/raspbian-tee/optee_os/lib/libutils/isoc/bget.c:582
    52c8:	b570      	push	{r4, r5, r6, lr}
/mnt/disk/raspbian-tee/optee_os/lib/libutils/isoc/bget.c:593
    52ca:	1e03      	subs	r3, r0, #0
    52cc:	dc0c      	bgt.n	52e8 <bget+0x20>
/mnt/disk/raspbian-tee/optee_os/lib/libutils/isoc/bget.c:593 (discriminator 1)
    52ce:	4b3c      	ldr	r3, [pc, #240]	; (53c0 <bget+0xf8>)
    52d0:	f240 2251 	movw	r2, #593	; 0x251
    52d4:	493b      	ldr	r1, [pc, #236]	; (53c4 <bget+0xfc>)
    52d6:	483c      	ldr	r0, [pc, #240]	; (53c8 <bget+0x100>)
    52d8:	447b      	add	r3, pc
    52da:	3312      	adds	r3, #18
    52dc:	4479      	add	r1, pc
    52de:	4478      	add	r0, pc
/mnt/disk/raspbian-tee/optee_os/lib/libutils/isoc/bget.c:653 (discriminator 1)
    52e0:	f000 fdde 	bl	5ea0 <_assert_log>
    52e4:	f000 fdf0 	bl	5ec8 <_assert_break>
/mnt/disk/raspbian-tee/optee_os/lib/libutils/isoc/bget.c:600
    52e8:	2b08      	cmp	r3, #8
/mnt/disk/raspbian-tee/optee_os/lib/libutils/isoc/bget.c:614
    52ea:	6888      	ldr	r0, [r1, #8]
/mnt/disk/raspbian-tee/optee_os/lib/libutils/isoc/bget.c:600
    52ec:	bfb8      	it	lt
    52ee:	2308      	movlt	r3, #8
    52f0:	3307      	adds	r3, #7
    52f2:	f023 0307 	bic.w	r3, r3, #7
/mnt/disk/raspbian-tee/optee_os/lib/libutils/isoc/bget.c:604
    52f6:	3308      	adds	r3, #8
/mnt/disk/raspbian-tee/optee_os/lib/libutils/isoc/bget.c:636
    52f8:	4288      	cmp	r0, r1
    52fa:	d101      	bne.n	5300 <bget+0x38>
/mnt/disk/raspbian-tee/optee_os/lib/libutils/isoc/bget.c:764
    52fc:	2000      	movs	r0, #0
/mnt/disk/raspbian-tee/optee_os/lib/libutils/isoc/bget.c:765
    52fe:	bd70      	pop	{r4, r5, r6, pc}
/mnt/disk/raspbian-tee/optee_os/lib/libutils/isoc/bget.c:637
    5300:	6842      	ldr	r2, [r0, #4]
    5302:	4293      	cmp	r3, r2
    5304:	dc59      	bgt.n	53ba <bget+0xf2>
/mnt/disk/raspbian-tee/optee_os/lib/libutils/isoc/bget.c:648
    5306:	1ad4      	subs	r4, r2, r3
    5308:	2c10      	cmp	r4, #16
    530a:	dd1c      	ble.n	5346 <bget+0x7e>
/mnt/disk/raspbian-tee/optee_os/lib/libutils/isoc/bget.c:651
    530c:	1905      	adds	r5, r0, r4
/mnt/disk/raspbian-tee/optee_os/lib/libutils/isoc/bget.c:653
    530e:	58ee      	ldr	r6, [r5, r3]
    5310:	42b2      	cmp	r2, r6
    5312:	d009      	beq.n	5328 <bget+0x60>
/mnt/disk/raspbian-tee/optee_os/lib/libutils/isoc/bget.c:653 (discriminator 1)
    5314:	4b2d      	ldr	r3, [pc, #180]	; (53cc <bget+0x104>)
    5316:	f240 228d 	movw	r2, #653	; 0x28d
    531a:	492d      	ldr	r1, [pc, #180]	; (53d0 <bget+0x108>)
    531c:	482d      	ldr	r0, [pc, #180]	; (53d4 <bget+0x10c>)
    531e:	447b      	add	r3, pc
    5320:	3312      	adds	r3, #18
    5322:	4479      	add	r1, pc
    5324:	4478      	add	r0, pc
    5326:	e7db      	b.n	52e0 <bget+0x18>
/mnt/disk/raspbian-tee/optee_os/lib/libutils/isoc/bget.c:655
    5328:	6044      	str	r4, [r0, #4]
/mnt/disk/raspbian-tee/optee_os/lib/libutils/isoc/bget.c:659
    532a:	425a      	negs	r2, r3
/mnt/disk/raspbian-tee/optee_os/lib/libutils/isoc/bget.c:657
    532c:	5104      	str	r4, [r0, r4]
/mnt/disk/raspbian-tee/optee_os/lib/libutils/isoc/bget.c:667
    532e:	f105 0008 	add.w	r0, r5, #8
/mnt/disk/raspbian-tee/optee_os/lib/libutils/isoc/bget.c:659
    5332:	606a      	str	r2, [r5, #4]
/mnt/disk/raspbian-tee/optee_os/lib/libutils/isoc/bget.c:661
    5334:	2200      	movs	r2, #0
    5336:	50ea      	str	r2, [r5, r3]
/mnt/disk/raspbian-tee/optee_os/lib/libutils/isoc/bget.c:664
    5338:	690a      	ldr	r2, [r1, #16]
    533a:	4413      	add	r3, r2
    533c:	610b      	str	r3, [r1, #16]
/mnt/disk/raspbian-tee/optee_os/lib/libutils/isoc/bget.c:665
    533e:	694b      	ldr	r3, [r1, #20]
    5340:	3301      	adds	r3, #1
    5342:	614b      	str	r3, [r1, #20]
/mnt/disk/raspbian-tee/optee_os/lib/libutils/isoc/bget.c:669
    5344:	bd70      	pop	{r4, r5, r6, pc}
/mnt/disk/raspbian-tee/optee_os/lib/libutils/isoc/bget.c:674
    5346:	5883      	ldr	r3, [r0, r2]
/mnt/disk/raspbian-tee/optee_os/lib/libutils/isoc/bget.c:673
    5348:	1885      	adds	r5, r0, r2
/mnt/disk/raspbian-tee/optee_os/lib/libutils/isoc/bget.c:674
    534a:	429a      	cmp	r2, r3
    534c:	d009      	beq.n	5362 <bget+0x9a>
/mnt/disk/raspbian-tee/optee_os/lib/libutils/isoc/bget.c:674 (discriminator 1)
    534e:	4b22      	ldr	r3, [pc, #136]	; (53d8 <bget+0x110>)
    5350:	f240 22a2 	movw	r2, #674	; 0x2a2
    5354:	4921      	ldr	r1, [pc, #132]	; (53dc <bget+0x114>)
    5356:	4822      	ldr	r0, [pc, #136]	; (53e0 <bget+0x118>)
    5358:	447b      	add	r3, pc
    535a:	3312      	adds	r3, #18
    535c:	4479      	add	r1, pc
    535e:	4478      	add	r0, pc
    5360:	e7be      	b.n	52e0 <bget+0x18>
/mnt/disk/raspbian-tee/optee_os/lib/libutils/isoc/bget.c:679
    5362:	68c3      	ldr	r3, [r0, #12]
    5364:	689c      	ldr	r4, [r3, #8]
    5366:	42a0      	cmp	r0, r4
    5368:	d009      	beq.n	537e <bget+0xb6>
/mnt/disk/raspbian-tee/optee_os/lib/libutils/isoc/bget.c:679 (discriminator 1)
    536a:	4b1e      	ldr	r3, [pc, #120]	; (53e4 <bget+0x11c>)
    536c:	f240 22a7 	movw	r2, #679	; 0x2a7
    5370:	491d      	ldr	r1, [pc, #116]	; (53e8 <bget+0x120>)
    5372:	481e      	ldr	r0, [pc, #120]	; (53ec <bget+0x124>)
    5374:	447b      	add	r3, pc
    5376:	3312      	adds	r3, #18
    5378:	4479      	add	r1, pc
    537a:	4478      	add	r0, pc
    537c:	e7b0      	b.n	52e0 <bget+0x18>
/mnt/disk/raspbian-tee/optee_os/lib/libutils/isoc/bget.c:680
    537e:	6884      	ldr	r4, [r0, #8]
    5380:	68e6      	ldr	r6, [r4, #12]
    5382:	42b0      	cmp	r0, r6
    5384:	d009      	beq.n	539a <bget+0xd2>
/mnt/disk/raspbian-tee/optee_os/lib/libutils/isoc/bget.c:680 (discriminator 1)
    5386:	4b1a      	ldr	r3, [pc, #104]	; (53f0 <bget+0x128>)
    5388:	f44f 722a 	mov.w	r2, #680	; 0x2a8
    538c:	4919      	ldr	r1, [pc, #100]	; (53f4 <bget+0x12c>)
    538e:	481a      	ldr	r0, [pc, #104]	; (53f8 <bget+0x130>)
    5390:	447b      	add	r3, pc
    5392:	3312      	adds	r3, #18
    5394:	4479      	add	r1, pc
    5396:	4478      	add	r0, pc
    5398:	e7a2      	b.n	52e0 <bget+0x18>
/mnt/disk/raspbian-tee/optee_os/lib/libutils/isoc/bget.c:681
    539a:	609c      	str	r4, [r3, #8]
/mnt/disk/raspbian-tee/optee_os/lib/libutils/isoc/bget.c:696
    539c:	3008      	adds	r0, #8
/mnt/disk/raspbian-tee/optee_os/lib/libutils/isoc/bget.c:682
    539e:	6804      	ldr	r4, [r0, #0]
    53a0:	60e3      	str	r3, [r4, #12]
/mnt/disk/raspbian-tee/optee_os/lib/libutils/isoc/bget.c:685
    53a2:	690b      	ldr	r3, [r1, #16]
    53a4:	4413      	add	r3, r2
    53a6:	610b      	str	r3, [r1, #16]
/mnt/disk/raspbian-tee/optee_os/lib/libutils/isoc/bget.c:686
    53a8:	694b      	ldr	r3, [r1, #20]
/mnt/disk/raspbian-tee/optee_os/lib/libutils/isoc/bget.c:689
    53aa:	4252      	negs	r2, r2
/mnt/disk/raspbian-tee/optee_os/lib/libutils/isoc/bget.c:686
    53ac:	3301      	adds	r3, #1
    53ae:	614b      	str	r3, [r1, #20]
/mnt/disk/raspbian-tee/optee_os/lib/libutils/isoc/bget.c:689
    53b0:	f840 2c04 	str.w	r2, [r0, #-4]
/mnt/disk/raspbian-tee/optee_os/lib/libutils/isoc/bget.c:693
    53b4:	2300      	movs	r3, #0
    53b6:	602b      	str	r3, [r5, #0]
/mnt/disk/raspbian-tee/optee_os/lib/libutils/isoc/bget.c:698
    53b8:	bd70      	pop	{r4, r5, r6, pc}
/mnt/disk/raspbian-tee/optee_os/lib/libutils/isoc/bget.c:701
    53ba:	6880      	ldr	r0, [r0, #8]
    53bc:	e79c      	b.n	52f8 <bget+0x30>
    53be:	bf00      	nop
    53c0:	00001b17 	.word	0x00001b17
    53c4:	00001c6f 	.word	0x00001c6f
    53c8:	00001e64 	.word	0x00001e64
    53cc:	00001ad1 	.word	0x00001ad1
    53d0:	00001c29 	.word	0x00001c29
    53d4:	00001c40 	.word	0x00001c40
    53d8:	00001a97 	.word	0x00001a97
    53dc:	00001bef 	.word	0x00001bef
    53e0:	00001c22 	.word	0x00001c22
    53e4:	00001a7b 	.word	0x00001a7b
    53e8:	00001bd3 	.word	0x00001bd3
    53ec:	00001c22 	.word	0x00001c22
    53f0:	00001a5f 	.word	0x00001a5f
    53f4:	00001bb7 	.word	0x00001bb7
    53f8:	00001c21 	.word	0x00001c21

000053fc <raw_malloc.constprop.15>:
raw_malloc():
/mnt/disk/raspbian-tee/optee_os/lib/libutils/isoc/bget_malloc.c:288
    53fc:	b538      	push	{r3, r4, r5, lr}
/mnt/disk/raspbian-tee/optee_os/lib/libutils/isoc/bget_malloc.c:304
    53fe:	1e05      	subs	r5, r0, #0
    5400:	db12      	blt.n	5428 <raw_malloc.constprop.15+0x2c>
/mnt/disk/raspbian-tee/optee_os/lib/libutils/isoc/bget_malloc.c:313
    5402:	490a      	ldr	r1, [pc, #40]	; (542c <raw_malloc.constprop.15+0x30>)
    5404:	4628      	mov	r0, r5
    5406:	bf18      	it	ne
    5408:	4628      	movne	r0, r5
    540a:	bf08      	it	eq
    540c:	2001      	moveq	r0, #1
    540e:	4479      	add	r1, pc
    5410:	f7ff ff5a 	bl	52c8 <bget>
    5414:	4604      	mov	r4, r0
/mnt/disk/raspbian-tee/optee_os/lib/libutils/isoc/bget_malloc.c:315
    5416:	4b06      	ldr	r3, [pc, #24]	; (5430 <raw_malloc.constprop.15+0x34>)
    5418:	4620      	mov	r0, r4
    541a:	4629      	mov	r1, r5
    541c:	447b      	add	r3, pc
    541e:	691a      	ldr	r2, [r3, #16]
    5420:	f7ff fece 	bl	51c0 <raw_malloc_return_hook.isra.3>
/mnt/disk/raspbian-tee/optee_os/lib/libutils/isoc/bget_malloc.c:318
    5424:	4620      	mov	r0, r4
    5426:	bd38      	pop	{r3, r4, r5, pc}
/mnt/disk/raspbian-tee/optee_os/lib/libutils/isoc/bget_malloc.c:291
    5428:	2400      	movs	r4, #0
    542a:	e7f4      	b.n	5416 <raw_malloc.constprop.15+0x1a>
    542c:	00002d4e 	.word	0x00002d4e
    5430:	00002d40 	.word	0x00002d40

00005434 <bgetz>:
bgetz():
/mnt/disk/raspbian-tee/optee_os/lib/libutils/isoc/bget.c:774
    5434:	b538      	push	{r3, r4, r5, lr}
    5436:	4605      	mov	r5, r0
/mnt/disk/raspbian-tee/optee_os/lib/libutils/isoc/bget.c:775
    5438:	f7ff ff46 	bl	52c8 <bget>
/mnt/disk/raspbian-tee/optee_os/lib/libutils/isoc/bget.c:777
    543c:	4604      	mov	r4, r0
    543e:	b1f0      	cbz	r0, 547e <bgetz+0x4a>
/mnt/disk/raspbian-tee/optee_os/lib/libutils/isoc/bget.c:782
    5440:	f850 2c04 	ldr.w	r2, [r0, #-4]
/mnt/disk/raspbian-tee/optee_os/lib/libutils/isoc/bget.c:783
    5444:	b98a      	cbnz	r2, 546a <bgetz+0x36>
/mnt/disk/raspbian-tee/optee_os/lib/libutils/isoc/bget.c:787
    5446:	f850 2c0c 	ldr.w	r2, [r0, #-12]
    544a:	3a0c      	subs	r2, #12
/mnt/disk/raspbian-tee/optee_os/lib/libutils/isoc/bget.c:791
    544c:	42aa      	cmp	r2, r5
    544e:	da12      	bge.n	5476 <bgetz+0x42>
    5450:	4b0c      	ldr	r3, [pc, #48]	; (5484 <bgetz+0x50>)
    5452:	f240 3217 	movw	r2, #791	; 0x317
    5456:	490c      	ldr	r1, [pc, #48]	; (5488 <bgetz+0x54>)
    5458:	480c      	ldr	r0, [pc, #48]	; (548c <bgetz+0x58>)
    545a:	447b      	add	r3, pc
    545c:	3317      	adds	r3, #23
    545e:	4479      	add	r1, pc
    5460:	4478      	add	r0, pc
    5462:	f000 fd1d 	bl	5ea0 <_assert_log>
    5466:	f000 fd2f 	bl	5ec8 <_assert_break>
/mnt/disk/raspbian-tee/optee_os/lib/libutils/isoc/bget.c:789
    546a:	f1c2 22ff 	rsb	r2, r2, #4278255360	; 0xff00ff00
    546e:	f502 027f 	add.w	r2, r2, #16711680	; 0xff0000
    5472:	32f8      	adds	r2, #248	; 0xf8
    5474:	e7ea      	b.n	544c <bgetz+0x18>
memset_unchecked():
/mnt/disk/raspbian-tee/optee_os/lib/libutils/isoc/bget_malloc.c:141
    5476:	2100      	movs	r1, #0
    5478:	4620      	mov	r0, r4
    547a:	f000 fd45 	bl	5f08 <memset>
bgetz():
/mnt/disk/raspbian-tee/optee_os/lib/libutils/isoc/bget.c:795
    547e:	4620      	mov	r0, r4
    5480:	bd38      	pop	{r3, r4, r5, pc}
    5482:	bf00      	nop
    5484:	00001995 	.word	0x00001995
    5488:	00001aed 	.word	0x00001aed
    548c:	00001b72 	.word	0x00001b72

00005490 <brel>:
brel():
/mnt/disk/raspbian-tee/optee_os/lib/libutils/isoc/bget.c:852
    5490:	698a      	ldr	r2, [r1, #24]
/mnt/disk/raspbian-tee/optee_os/lib/libutils/isoc/bget.c:850
    5492:	f1a0 0308 	sub.w	r3, r0, #8
/mnt/disk/raspbian-tee/optee_os/lib/libutils/isoc/bget.c:846
    5496:	b570      	push	{r4, r5, r6, lr}
/mnt/disk/raspbian-tee/optee_os/lib/libutils/isoc/bget.c:852
    5498:	3201      	adds	r2, #1
    549a:	618a      	str	r2, [r1, #24]
/mnt/disk/raspbian-tee/optee_os/lib/libutils/isoc/bget.c:854
    549c:	b960      	cbnz	r0, 54b8 <brel+0x28>
/mnt/disk/raspbian-tee/optee_os/lib/libutils/isoc/bget.c:854 (discriminator 1)
    549e:	4b59      	ldr	r3, [pc, #356]	; (5604 <brel+0x174>)
    54a0:	f240 3256 	movw	r2, #854	; 0x356
    54a4:	4958      	ldr	r1, [pc, #352]	; (5608 <brel+0x178>)
    54a6:	4859      	ldr	r0, [pc, #356]	; (560c <brel+0x17c>)
    54a8:	447b      	add	r3, pc
    54aa:	331d      	adds	r3, #29
    54ac:	4479      	add	r1, pc
    54ae:	4478      	add	r0, pc
/mnt/disk/raspbian-tee/optee_os/lib/libutils/isoc/bget.c:885 (discriminator 1)
    54b0:	f000 fcf6 	bl	5ea0 <_assert_log>
    54b4:	f000 fd08 	bl	5ec8 <_assert_break>
/mnt/disk/raspbian-tee/optee_os/lib/libutils/isoc/bget.c:882
    54b8:	f850 2c04 	ldr.w	r2, [r0, #-4]
/mnt/disk/raspbian-tee/optee_os/lib/libutils/isoc/bget.c:885
    54bc:	2a00      	cmp	r2, #0
    54be:	db09      	blt.n	54d4 <brel+0x44>
/mnt/disk/raspbian-tee/optee_os/lib/libutils/isoc/bget.c:885 (discriminator 1)
    54c0:	4b53      	ldr	r3, [pc, #332]	; (5610 <brel+0x180>)
    54c2:	f240 3275 	movw	r2, #885	; 0x375
    54c6:	4953      	ldr	r1, [pc, #332]	; (5614 <brel+0x184>)
    54c8:	4853      	ldr	r0, [pc, #332]	; (5618 <brel+0x188>)
    54ca:	447b      	add	r3, pc
    54cc:	331d      	adds	r3, #29
    54ce:	4479      	add	r1, pc
    54d0:	4478      	add	r0, pc
    54d2:	e7ed      	b.n	54b0 <brel+0x20>
/mnt/disk/raspbian-tee/optee_os/lib/libutils/isoc/bget.c:891
    54d4:	1a9c      	subs	r4, r3, r2
    54d6:	6824      	ldr	r4, [r4, #0]
    54d8:	b14c      	cbz	r4, 54ee <brel+0x5e>
/mnt/disk/raspbian-tee/optee_os/lib/libutils/isoc/bget.c:891 (discriminator 1)
    54da:	4b50      	ldr	r3, [pc, #320]	; (561c <brel+0x18c>)
    54dc:	f240 327b 	movw	r2, #891	; 0x37b
    54e0:	494f      	ldr	r1, [pc, #316]	; (5620 <brel+0x190>)
    54e2:	4850      	ldr	r0, [pc, #320]	; (5624 <brel+0x194>)
    54e4:	447b      	add	r3, pc
    54e6:	331d      	adds	r3, #29
    54e8:	4479      	add	r1, pc
    54ea:	4478      	add	r0, pc
    54ec:	e7e0      	b.n	54b0 <brel+0x20>
/mnt/disk/raspbian-tee/optee_os/lib/libutils/isoc/bget.c:894
    54ee:	690c      	ldr	r4, [r1, #16]
    54f0:	4414      	add	r4, r2
    54f2:	610c      	str	r4, [r1, #16]
/mnt/disk/raspbian-tee/optee_os/lib/libutils/isoc/bget.c:895
    54f4:	2c00      	cmp	r4, #0
    54f6:	da09      	bge.n	550c <brel+0x7c>
/mnt/disk/raspbian-tee/optee_os/lib/libutils/isoc/bget.c:895 (discriminator 1)
    54f8:	4b4b      	ldr	r3, [pc, #300]	; (5628 <brel+0x198>)
    54fa:	f240 327f 	movw	r2, #895	; 0x37f
    54fe:	494b      	ldr	r1, [pc, #300]	; (562c <brel+0x19c>)
    5500:	484b      	ldr	r0, [pc, #300]	; (5630 <brel+0x1a0>)
    5502:	447b      	add	r3, pc
    5504:	331d      	adds	r3, #29
    5506:	4479      	add	r1, pc
    5508:	4478      	add	r0, pc
    550a:	e7d1      	b.n	54b0 <brel+0x20>
/mnt/disk/raspbian-tee/optee_os/lib/libutils/isoc/bget.c:900
    550c:	f850 4c08 	ldr.w	r4, [r0, #-8]
    5510:	b30c      	cbz	r4, 5556 <brel+0xc6>
/mnt/disk/raspbian-tee/optee_os/lib/libutils/isoc/bget.c:911
    5512:	1b1b      	subs	r3, r3, r4
    5514:	6859      	ldr	r1, [r3, #4]
    5516:	428c      	cmp	r4, r1
    5518:	d009      	beq.n	552e <brel+0x9e>
/mnt/disk/raspbian-tee/optee_os/lib/libutils/isoc/bget.c:911 (discriminator 1)
    551a:	4b46      	ldr	r3, [pc, #280]	; (5634 <brel+0x1a4>)
    551c:	f240 328f 	movw	r2, #911	; 0x38f
    5520:	4945      	ldr	r1, [pc, #276]	; (5638 <brel+0x1a8>)
    5522:	4846      	ldr	r0, [pc, #280]	; (563c <brel+0x1ac>)
    5524:	447b      	add	r3, pc
    5526:	331d      	adds	r3, #29
    5528:	4479      	add	r1, pc
    552a:	4478      	add	r0, pc
    552c:	e7c0      	b.n	54b0 <brel+0x20>
/mnt/disk/raspbian-tee/optee_os/lib/libutils/isoc/bget.c:913
    552e:	1aa2      	subs	r2, r4, r2
    5530:	605a      	str	r2, [r3, #4]
/mnt/disk/raspbian-tee/optee_os/lib/libutils/isoc/bget.c:933
    5532:	6859      	ldr	r1, [r3, #4]
    5534:	185a      	adds	r2, r3, r1
/mnt/disk/raspbian-tee/optee_os/lib/libutils/isoc/bget.c:934
    5536:	6850      	ldr	r0, [r2, #4]
    5538:	2800      	cmp	r0, #0
    553a:	dd53      	ble.n	55e4 <brel+0x154>
/mnt/disk/raspbian-tee/optee_os/lib/libutils/isoc/bget.c:939
    553c:	5814      	ldr	r4, [r2, r0]
    553e:	42a0      	cmp	r0, r4
    5540:	d02e      	beq.n	55a0 <brel+0x110>
/mnt/disk/raspbian-tee/optee_os/lib/libutils/isoc/bget.c:939 (discriminator 1)
    5542:	4b3f      	ldr	r3, [pc, #252]	; (5640 <brel+0x1b0>)
    5544:	f240 32ab 	movw	r2, #939	; 0x3ab
    5548:	493e      	ldr	r1, [pc, #248]	; (5644 <brel+0x1b4>)
    554a:	483f      	ldr	r0, [pc, #252]	; (5648 <brel+0x1b8>)
    554c:	447b      	add	r3, pc
    554e:	331d      	adds	r3, #29
    5550:	4479      	add	r1, pc
    5552:	4478      	add	r0, pc
    5554:	e7ac      	b.n	54b0 <brel+0x20>
/mnt/disk/raspbian-tee/optee_os/lib/libutils/isoc/bget.c:919
    5556:	68cd      	ldr	r5, [r1, #12]
    5558:	68ac      	ldr	r4, [r5, #8]
    555a:	428c      	cmp	r4, r1
    555c:	d009      	beq.n	5572 <brel+0xe2>
/mnt/disk/raspbian-tee/optee_os/lib/libutils/isoc/bget.c:919 (discriminator 1)
    555e:	4b3b      	ldr	r3, [pc, #236]	; (564c <brel+0x1bc>)
    5560:	f240 3297 	movw	r2, #919	; 0x397
    5564:	493a      	ldr	r1, [pc, #232]	; (5650 <brel+0x1c0>)
    5566:	483b      	ldr	r0, [pc, #236]	; (5654 <brel+0x1c4>)
    5568:	447b      	add	r3, pc
    556a:	331d      	adds	r3, #29
    556c:	4479      	add	r1, pc
    556e:	4478      	add	r0, pc
    5570:	e79e      	b.n	54b0 <brel+0x20>
/mnt/disk/raspbian-tee/optee_os/lib/libutils/isoc/bget.c:920
    5572:	68a1      	ldr	r1, [r4, #8]
    5574:	68c9      	ldr	r1, [r1, #12]
    5576:	428c      	cmp	r4, r1
    5578:	d009      	beq.n	558e <brel+0xfe>
/mnt/disk/raspbian-tee/optee_os/lib/libutils/isoc/bget.c:920 (discriminator 1)
    557a:	4b37      	ldr	r3, [pc, #220]	; (5658 <brel+0x1c8>)
    557c:	f44f 7266 	mov.w	r2, #920	; 0x398
    5580:	4936      	ldr	r1, [pc, #216]	; (565c <brel+0x1cc>)
    5582:	4837      	ldr	r0, [pc, #220]	; (5660 <brel+0x1d0>)
    5584:	447b      	add	r3, pc
    5586:	331d      	adds	r3, #29
    5588:	4479      	add	r1, pc
    558a:	4478      	add	r0, pc
    558c:	e790      	b.n	54b0 <brel+0x20>
/mnt/disk/raspbian-tee/optee_os/lib/libutils/isoc/bget.c:922
    558e:	e880 0030 	stmia.w	r0, {r4, r5}
/mnt/disk/raspbian-tee/optee_os/lib/libutils/isoc/bget.c:886
    5592:	4252      	negs	r2, r2
/mnt/disk/raspbian-tee/optee_os/lib/libutils/isoc/bget.c:923
    5594:	60e3      	str	r3, [r4, #12]
/mnt/disk/raspbian-tee/optee_os/lib/libutils/isoc/bget.c:924
    5596:	6841      	ldr	r1, [r0, #4]
    5598:	608b      	str	r3, [r1, #8]
/mnt/disk/raspbian-tee/optee_os/lib/libutils/isoc/bget.c:925
    559a:	f840 2c04 	str.w	r2, [r0, #-4]
    559e:	e7c8      	b.n	5532 <brel+0xa2>
/mnt/disk/raspbian-tee/optee_os/lib/libutils/isoc/bget.c:940
    55a0:	68d4      	ldr	r4, [r2, #12]
    55a2:	68a5      	ldr	r5, [r4, #8]
    55a4:	42aa      	cmp	r2, r5
    55a6:	d009      	beq.n	55bc <brel+0x12c>
/mnt/disk/raspbian-tee/optee_os/lib/libutils/isoc/bget.c:940 (discriminator 1)
    55a8:	4b2e      	ldr	r3, [pc, #184]	; (5664 <brel+0x1d4>)
    55aa:	f44f 726b 	mov.w	r2, #940	; 0x3ac
    55ae:	492e      	ldr	r1, [pc, #184]	; (5668 <brel+0x1d8>)
    55b0:	482e      	ldr	r0, [pc, #184]	; (566c <brel+0x1dc>)
    55b2:	447b      	add	r3, pc
    55b4:	331d      	adds	r3, #29
    55b6:	4479      	add	r1, pc
    55b8:	4478      	add	r0, pc
    55ba:	e779      	b.n	54b0 <brel+0x20>
/mnt/disk/raspbian-tee/optee_os/lib/libutils/isoc/bget.c:941
    55bc:	6895      	ldr	r5, [r2, #8]
    55be:	68ee      	ldr	r6, [r5, #12]
    55c0:	42b2      	cmp	r2, r6
    55c2:	d009      	beq.n	55d8 <brel+0x148>
/mnt/disk/raspbian-tee/optee_os/lib/libutils/isoc/bget.c:941 (discriminator 1)
    55c4:	4b2a      	ldr	r3, [pc, #168]	; (5670 <brel+0x1e0>)
    55c6:	f240 32ad 	movw	r2, #941	; 0x3ad
    55ca:	492a      	ldr	r1, [pc, #168]	; (5674 <brel+0x1e4>)
    55cc:	482a      	ldr	r0, [pc, #168]	; (5678 <brel+0x1e8>)
    55ce:	447b      	add	r3, pc
    55d0:	331d      	adds	r3, #29
    55d2:	4479      	add	r1, pc
    55d4:	4478      	add	r0, pc
    55d6:	e76b      	b.n	54b0 <brel+0x20>
/mnt/disk/raspbian-tee/optee_os/lib/libutils/isoc/bget.c:942
    55d8:	60a5      	str	r5, [r4, #8]
/mnt/disk/raspbian-tee/optee_os/lib/libutils/isoc/bget.c:943
    55da:	6892      	ldr	r2, [r2, #8]
    55dc:	60d4      	str	r4, [r2, #12]
/mnt/disk/raspbian-tee/optee_os/lib/libutils/isoc/bget.c:944
    55de:	180a      	adds	r2, r1, r0
    55e0:	605a      	str	r2, [r3, #4]
/mnt/disk/raspbian-tee/optee_os/lib/libutils/isoc/bget.c:953
    55e2:	441a      	add	r2, r3
/mnt/disk/raspbian-tee/optee_os/lib/libutils/isoc/bget.c:959
    55e4:	6851      	ldr	r1, [r2, #4]
    55e6:	2900      	cmp	r1, #0
    55e8:	db09      	blt.n	55fe <brel+0x16e>
/mnt/disk/raspbian-tee/optee_os/lib/libutils/isoc/bget.c:959 (discriminator 1)
    55ea:	4b24      	ldr	r3, [pc, #144]	; (567c <brel+0x1ec>)
    55ec:	f240 32bf 	movw	r2, #959	; 0x3bf
    55f0:	4923      	ldr	r1, [pc, #140]	; (5680 <brel+0x1f0>)
    55f2:	4824      	ldr	r0, [pc, #144]	; (5684 <brel+0x1f4>)
    55f4:	447b      	add	r3, pc
    55f6:	331d      	adds	r3, #29
    55f8:	4479      	add	r1, pc
    55fa:	4478      	add	r0, pc
    55fc:	e758      	b.n	54b0 <brel+0x20>
/mnt/disk/raspbian-tee/optee_os/lib/libutils/isoc/bget.c:964
    55fe:	685b      	ldr	r3, [r3, #4]
    5600:	6013      	str	r3, [r2, #0]
    5602:	bd70      	pop	{r4, r5, r6, pc}
    5604:	00001947 	.word	0x00001947
    5608:	00001a9f 	.word	0x00001a9f
    560c:	00001b32 	.word	0x00001b32
    5610:	00001925 	.word	0x00001925
    5614:	00001a7d 	.word	0x00001a7d
    5618:	00001b1c 	.word	0x00001b1c
    561c:	0000190b 	.word	0x0000190b
    5620:	00001a63 	.word	0x00001a63
    5624:	00001b12 	.word	0x00001b12
    5628:	000018ed 	.word	0x000018ed
    562c:	00001a45 	.word	0x00001a45
    5630:	00001b20 	.word	0x00001b20
    5634:	000018cb 	.word	0x000018cb
    5638:	00001a23 	.word	0x00001a23
    563c:	00001b15 	.word	0x00001b15
    5640:	000018a3 	.word	0x000018a3
    5644:	000019fb 	.word	0x000019fb
    5648:	00001b26 	.word	0x00001b26
    564c:	00001887 	.word	0x00001887
    5650:	000019df 	.word	0x000019df
    5654:	00001967 	.word	0x00001967
    5658:	0000186b 	.word	0x0000186b
    565c:	000019c3 	.word	0x000019c3
    5660:	00001986 	.word	0x00001986
    5664:	0000183d 	.word	0x0000183d
    5668:	00001995 	.word	0x00001995
    566c:	00001af9 	.word	0x00001af9
    5670:	00001821 	.word	0x00001821
    5674:	00001979 	.word	0x00001979
    5678:	00001afa 	.word	0x00001afa
    567c:	000017fb 	.word	0x000017fb
    5680:	00001953 	.word	0x00001953
    5684:	00001af1 	.word	0x00001af1

00005688 <bgetr>:
bgetr():
/mnt/disk/raspbian-tee/optee_os/lib/libutils/isoc/bget.c:806
    5688:	e92d 41f0 	stmdb	sp!, {r4, r5, r6, r7, r8, lr}
    568c:	460e      	mov	r6, r1
    568e:	4605      	mov	r5, r0
/mnt/disk/raspbian-tee/optee_os/lib/libutils/isoc/bget.c:811
    5690:	4611      	mov	r1, r2
    5692:	4630      	mov	r0, r6
/mnt/disk/raspbian-tee/optee_os/lib/libutils/isoc/bget.c:806
    5694:	4690      	mov	r8, r2
/mnt/disk/raspbian-tee/optee_os/lib/libutils/isoc/bget.c:811
    5696:	f7ff fe17 	bl	52c8 <bget>
    569a:	4607      	mov	r7, r0
    569c:	b340      	cbz	r0, 56f0 <bgetr+0x68>
/mnt/disk/raspbian-tee/optee_os/lib/libutils/isoc/bget.c:814
    569e:	b33d      	cbz	r5, 56f0 <bgetr+0x68>
    56a0:	f855 4c04 	ldr.w	r4, [r5, #-4]
    56a4:	f1c4 24ff 	rsb	r4, r4, #4278255360	; 0xff00ff00
    56a8:	f504 047f 	add.w	r4, r4, #16711680	; 0xff0000
    56ac:	34f8      	adds	r4, #248	; 0xf8
/mnt/disk/raspbian-tee/optee_os/lib/libutils/isoc/bget.c:829
    56ae:	2c00      	cmp	r4, #0
    56b0:	dc0c      	bgt.n	56cc <bgetr+0x44>
    56b2:	4b11      	ldr	r3, [pc, #68]	; (56f8 <bgetr+0x70>)
    56b4:	f240 323d 	movw	r2, #829	; 0x33d
    56b8:	4910      	ldr	r1, [pc, #64]	; (56fc <bgetr+0x74>)
    56ba:	4811      	ldr	r0, [pc, #68]	; (5700 <bgetr+0x78>)
    56bc:	447b      	add	r3, pc
    56be:	3322      	adds	r3, #34	; 0x22
    56c0:	4479      	add	r1, pc
    56c2:	4478      	add	r0, pc
    56c4:	f000 fbec 	bl	5ea0 <_assert_log>
    56c8:	f000 fbfe 	bl	5ec8 <_assert_break>
/mnt/disk/raspbian-tee/optee_os/lib/libutils/isoc/bget.c:830
    56cc:	42a6      	cmp	r6, r4
    56ce:	4632      	mov	r2, r6
    56d0:	4629      	mov	r1, r5
    56d2:	bfa8      	it	ge
    56d4:	4622      	movge	r2, r4
    56d6:	f000 fd06 	bl	60e6 <memcpy>
/mnt/disk/raspbian-tee/optee_os/lib/libutils/isoc/bget.c:834
    56da:	42a6      	cmp	r6, r4
    56dc:	dd04      	ble.n	56e8 <bgetr+0x60>
/mnt/disk/raspbian-tee/optee_os/lib/libutils/isoc/bget.c:835
    56de:	1b32      	subs	r2, r6, r4
    56e0:	2100      	movs	r1, #0
    56e2:	1938      	adds	r0, r7, r4
    56e4:	f000 fc10 	bl	5f08 <memset>
/mnt/disk/raspbian-tee/optee_os/lib/libutils/isoc/bget.c:837
    56e8:	4641      	mov	r1, r8
    56ea:	4628      	mov	r0, r5
    56ec:	f7ff fed0 	bl	5490 <brel>
/mnt/disk/raspbian-tee/optee_os/lib/libutils/isoc/bget.c:839
    56f0:	4638      	mov	r0, r7
    56f2:	e8bd 81f0 	ldmia.w	sp!, {r4, r5, r6, r7, r8, pc}
    56f6:	bf00      	nop
    56f8:	00001733 	.word	0x00001733
    56fc:	0000188b 	.word	0x0000188b
    5700:	00001a3a 	.word	0x00001a3a

00005704 <bpool>:
bpool():
/mnt/disk/raspbian-tee/optee_os/lib/libutils/isoc/bget.c:1023
    5704:	f021 0107 	bic.w	r1, r1, #7
/mnt/disk/raspbian-tee/optee_os/lib/libutils/isoc/bget.c:1018
    5708:	b510      	push	{r4, lr}
/mnt/disk/raspbian-tee/optee_os/lib/libutils/isoc/bget.c:1042
    570a:	3908      	subs	r1, #8
    570c:	d50c      	bpl.n	5728 <bpool+0x24>
    570e:	4b1b      	ldr	r3, [pc, #108]	; (577c <bpool+0x78>)
    5710:	f240 4212 	movw	r2, #1042	; 0x412
    5714:	491a      	ldr	r1, [pc, #104]	; (5780 <bpool+0x7c>)
    5716:	481b      	ldr	r0, [pc, #108]	; (5784 <bpool+0x80>)
    5718:	447b      	add	r3, pc
    571a:	3328      	adds	r3, #40	; 0x28
    571c:	4479      	add	r1, pc
    571e:	4478      	add	r0, pc
/mnt/disk/raspbian-tee/optee_os/lib/libutils/isoc/bget.c:1052 (discriminator 1)
    5720:	f000 fbbe 	bl	5ea0 <_assert_log>
    5724:	f000 fbd0 	bl	5ec8 <_assert_break>
/mnt/disk/raspbian-tee/optee_os/lib/libutils/isoc/bget.c:1052
    5728:	68d4      	ldr	r4, [r2, #12]
/mnt/disk/raspbian-tee/optee_os/lib/libutils/isoc/bget.c:1048
    572a:	2300      	movs	r3, #0
    572c:	6003      	str	r3, [r0, #0]
/mnt/disk/raspbian-tee/optee_os/lib/libutils/isoc/bget.c:1052
    572e:	68a3      	ldr	r3, [r4, #8]
    5730:	4293      	cmp	r3, r2
    5732:	d009      	beq.n	5748 <bpool+0x44>
/mnt/disk/raspbian-tee/optee_os/lib/libutils/isoc/bget.c:1052 (discriminator 1)
    5734:	4b14      	ldr	r3, [pc, #80]	; (5788 <bpool+0x84>)
    5736:	f240 421c 	movw	r2, #1052	; 0x41c
    573a:	4914      	ldr	r1, [pc, #80]	; (578c <bpool+0x88>)
    573c:	4814      	ldr	r0, [pc, #80]	; (5790 <bpool+0x8c>)
    573e:	447b      	add	r3, pc
    5740:	3328      	adds	r3, #40	; 0x28
    5742:	4479      	add	r1, pc
    5744:	4478      	add	r0, pc
    5746:	e7eb      	b.n	5720 <bpool+0x1c>
/mnt/disk/raspbian-tee/optee_os/lib/libutils/isoc/bget.c:1053
    5748:	689a      	ldr	r2, [r3, #8]
    574a:	68d2      	ldr	r2, [r2, #12]
    574c:	4293      	cmp	r3, r2
    574e:	d009      	beq.n	5764 <bpool+0x60>
/mnt/disk/raspbian-tee/optee_os/lib/libutils/isoc/bget.c:1053 (discriminator 1)
    5750:	4b10      	ldr	r3, [pc, #64]	; (5794 <bpool+0x90>)
    5752:	f240 421d 	movw	r2, #1053	; 0x41d
    5756:	4910      	ldr	r1, [pc, #64]	; (5798 <bpool+0x94>)
    5758:	4810      	ldr	r0, [pc, #64]	; (579c <bpool+0x98>)
    575a:	447b      	add	r3, pc
    575c:	3328      	adds	r3, #40	; 0x28
    575e:	4479      	add	r1, pc
    5760:	4478      	add	r0, pc
    5762:	e7dd      	b.n	5720 <bpool+0x1c>
/mnt/disk/raspbian-tee/optee_os/lib/libutils/isoc/bget.c:1054
    5764:	6083      	str	r3, [r0, #8]
/mnt/disk/raspbian-tee/optee_os/lib/libutils/isoc/bget.c:1077
    5766:	f04f 4200 	mov.w	r2, #2147483648	; 0x80000000
/mnt/disk/raspbian-tee/optee_os/lib/libutils/isoc/bget.c:1055
    576a:	60c4      	str	r4, [r0, #12]
/mnt/disk/raspbian-tee/optee_os/lib/libutils/isoc/bget.c:1056
    576c:	60d8      	str	r0, [r3, #12]
/mnt/disk/raspbian-tee/optee_os/lib/libutils/isoc/bget.c:1057
    576e:	68c3      	ldr	r3, [r0, #12]
    5770:	6098      	str	r0, [r3, #8]
/mnt/disk/raspbian-tee/optee_os/lib/libutils/isoc/bget.c:1073
    5772:	1843      	adds	r3, r0, r1
/mnt/disk/raspbian-tee/optee_os/lib/libutils/isoc/bget.c:1068
    5774:	6041      	str	r1, [r0, #4]
/mnt/disk/raspbian-tee/optee_os/lib/libutils/isoc/bget.c:1074
    5776:	5041      	str	r1, [r0, r1]
/mnt/disk/raspbian-tee/optee_os/lib/libutils/isoc/bget.c:1077
    5778:	605a      	str	r2, [r3, #4]
    577a:	bd10      	pop	{r4, pc}
    577c:	000016d7 	.word	0x000016d7
    5780:	0000182f 	.word	0x0000182f
    5784:	000019e8 	.word	0x000019e8
    5788:	000016b1 	.word	0x000016b1
    578c:	00001809 	.word	0x00001809
    5790:	00001791 	.word	0x00001791
    5794:	00001695 	.word	0x00001695
    5798:	000017ed 	.word	0x000017ed
    579c:	000017b0 	.word	0x000017b0

000057a0 <bstats>:
bstats():
/mnt/disk/raspbian-tee/optee_os/lib/libutils/isoc/bget.c:1088
    57a0:	b570      	push	{r4, r5, r6, lr}
    57a2:	9c05      	ldr	r4, [sp, #20]
/mnt/disk/raspbian-tee/optee_os/lib/libutils/isoc/bget.c:1091
    57a4:	6966      	ldr	r6, [r4, #20]
/mnt/disk/raspbian-tee/optee_os/lib/libutils/isoc/bget.c:1089
    57a6:	68a5      	ldr	r5, [r4, #8]
/mnt/disk/raspbian-tee/optee_os/lib/libutils/isoc/bget.c:1091
    57a8:	601e      	str	r6, [r3, #0]
/mnt/disk/raspbian-tee/optee_os/lib/libutils/isoc/bget.c:1092
    57aa:	9b04      	ldr	r3, [sp, #16]
    57ac:	69a6      	ldr	r6, [r4, #24]
    57ae:	601e      	str	r6, [r3, #0]
/mnt/disk/raspbian-tee/optee_os/lib/libutils/isoc/bget.c:1093
    57b0:	6923      	ldr	r3, [r4, #16]
    57b2:	6003      	str	r3, [r0, #0]
/mnt/disk/raspbian-tee/optee_os/lib/libutils/isoc/bget.c:1094
    57b4:	2300      	movs	r3, #0
    57b6:	600b      	str	r3, [r1, #0]
/mnt/disk/raspbian-tee/optee_os/lib/libutils/isoc/bget.c:1095
    57b8:	f04f 33ff 	mov.w	r3, #4294967295	; 0xffffffff
    57bc:	6013      	str	r3, [r2, #0]
/mnt/disk/raspbian-tee/optee_os/lib/libutils/isoc/bget.c:1096
    57be:	42a5      	cmp	r5, r4
    57c0:	d100      	bne.n	57c4 <bstats+0x24>
/mnt/disk/raspbian-tee/optee_os/lib/libutils/isoc/bget.c:1104
    57c2:	bd70      	pop	{r4, r5, r6, pc}
/mnt/disk/raspbian-tee/optee_os/lib/libutils/isoc/bget.c:1097
    57c4:	6868      	ldr	r0, [r5, #4]
    57c6:	2800      	cmp	r0, #0
    57c8:	dc0c      	bgt.n	57e4 <bstats+0x44>
/mnt/disk/raspbian-tee/optee_os/lib/libutils/isoc/bget.c:1097 (discriminator 1)
    57ca:	4b0b      	ldr	r3, [pc, #44]	; (57f8 <bstats+0x58>)
    57cc:	f240 4249 	movw	r2, #1097	; 0x449
    57d0:	490a      	ldr	r1, [pc, #40]	; (57fc <bstats+0x5c>)
    57d2:	480b      	ldr	r0, [pc, #44]	; (5800 <bstats+0x60>)
    57d4:	447b      	add	r3, pc
    57d6:	332e      	adds	r3, #46	; 0x2e
    57d8:	4479      	add	r1, pc
    57da:	4478      	add	r0, pc
    57dc:	f000 fb60 	bl	5ea0 <_assert_log>
    57e0:	f000 fb72 	bl	5ec8 <_assert_break>
/mnt/disk/raspbian-tee/optee_os/lib/libutils/isoc/bget.c:1098
    57e4:	680b      	ldr	r3, [r1, #0]
    57e6:	4403      	add	r3, r0
    57e8:	600b      	str	r3, [r1, #0]
/mnt/disk/raspbian-tee/optee_os/lib/libutils/isoc/bget.c:1099
    57ea:	686b      	ldr	r3, [r5, #4]
    57ec:	6810      	ldr	r0, [r2, #0]
    57ee:	4283      	cmp	r3, r0
    57f0:	dd00      	ble.n	57f4 <bstats+0x54>
/mnt/disk/raspbian-tee/optee_os/lib/libutils/isoc/bget.c:1100
    57f2:	6013      	str	r3, [r2, #0]
/mnt/disk/raspbian-tee/optee_os/lib/libutils/isoc/bget.c:1102
    57f4:	68ad      	ldr	r5, [r5, #8]
    57f6:	e7e2      	b.n	57be <bstats+0x1e>
    57f8:	0000161b 	.word	0x0000161b
    57fc:	00001773 	.word	0x00001773
    5800:	00001961 	.word	0x00001961

00005804 <malloc_reset_stats>:
malloc_reset_stats():
/mnt/disk/raspbian-tee/optee_os/lib/libutils/isoc/bget_malloc.c:183
    5804:	4b03      	ldr	r3, [pc, #12]	; (5814 <malloc_reset_stats+0x10>)
    5806:	2200      	movs	r2, #0
    5808:	447b      	add	r3, pc
    580a:	625a      	str	r2, [r3, #36]	; 0x24
/mnt/disk/raspbian-tee/optee_os/lib/libutils/isoc/bget_malloc.c:184
    580c:	62da      	str	r2, [r3, #44]	; 0x2c
/mnt/disk/raspbian-tee/optee_os/lib/libutils/isoc/bget_malloc.c:185
    580e:	631a      	str	r2, [r3, #48]	; 0x30
/mnt/disk/raspbian-tee/optee_os/lib/libutils/isoc/bget_malloc.c:186
    5810:	635a      	str	r2, [r3, #52]	; 0x34
    5812:	4770      	bx	lr
    5814:	00004cd4 	.word	0x00004cd4

00005818 <malloc_get_stats>:
malloc_get_stats():
/mnt/disk/raspbian-tee/optee_os/lib/libutils/isoc/bget_malloc.c:194
    5818:	4905      	ldr	r1, [pc, #20]	; (5830 <malloc_get_stats+0x18>)
    581a:	2238      	movs	r2, #56	; 0x38
/mnt/disk/raspbian-tee/optee_os/lib/libutils/isoc/bget_malloc.c:191
    581c:	b508      	push	{r3, lr}
/mnt/disk/raspbian-tee/optee_os/lib/libutils/isoc/bget_malloc.c:194
    581e:	4479      	add	r1, pc
    5820:	f000 fc61 	bl	60e6 <memcpy>
/mnt/disk/raspbian-tee/optee_os/lib/libutils/isoc/bget_malloc.c:195
    5824:	4a03      	ldr	r2, [pc, #12]	; (5834 <malloc_get_stats+0x1c>)
    5826:	447a      	add	r2, pc
    5828:	6912      	ldr	r2, [r2, #16]
    582a:	6202      	str	r2, [r0, #32]
    582c:	bd08      	pop	{r3, pc}
    582e:	bf00      	nop
    5830:	00004cbe 	.word	0x00004cbe
    5834:	00002936 	.word	0x00002936

00005838 <malloc>:
malloc():
/mnt/disk/raspbian-tee/optee_os/lib/libutils/isoc/bget_malloc.c:821
    5838:	e5e0      	b.n	53fc <raw_malloc.constprop.15>

0000583a <free>:
raw_free():
/mnt/disk/raspbian-tee/optee_os/lib/libutils/isoc/bget_malloc.c:324
    583a:	b118      	cbz	r0, 5844 <free+0xa>
/mnt/disk/raspbian-tee/optee_os/lib/libutils/isoc/bget_malloc.c:325
    583c:	4902      	ldr	r1, [pc, #8]	; (5848 <free+0xe>)
    583e:	4479      	add	r1, pc
    5840:	f7ff be26 	b.w	5490 <brel>
    5844:	4770      	bx	lr
    5846:	bf00      	nop
    5848:	0000291e 	.word	0x0000291e

0000584c <calloc>:
raw_calloc():
/mnt/disk/raspbian-tee/optee_os/lib/libutils/isoc/bget_malloc.c:337
    584c:	fba0 2301 	umull	r2, r3, r0, r1
calloc():
/mnt/disk/raspbian-tee/optee_os/lib/libutils/isoc/bget_malloc.c:835
    5850:	b570      	push	{r4, r5, r6, lr}
    5852:	4605      	mov	r5, r0
    5854:	460e      	mov	r6, r1
raw_calloc():
/mnt/disk/raspbian-tee/optee_os/lib/libutils/isoc/bget_malloc.c:337
    5856:	4610      	mov	r0, r2
    5858:	2a00      	cmp	r2, #0
    585a:	bfa8      	it	ge
    585c:	2b00      	cmpge	r3, #0
    585e:	d113      	bne.n	5888 <calloc+0x3c>
/mnt/disk/raspbian-tee/optee_os/lib/libutils/isoc/bget_malloc.c:348
    5860:	490a      	ldr	r1, [pc, #40]	; (588c <calloc+0x40>)
/mnt/disk/raspbian-tee/optee_os/lib/libutils/isoc/bget_malloc.c:345
    5862:	2a00      	cmp	r2, #0
/mnt/disk/raspbian-tee/optee_os/lib/libutils/isoc/bget_malloc.c:348
    5864:	bf18      	it	ne
    5866:	4610      	movne	r0, r2
    5868:	bf08      	it	eq
    586a:	2001      	moveq	r0, #1
    586c:	4479      	add	r1, pc
    586e:	f7ff fde1 	bl	5434 <bgetz>
    5872:	4604      	mov	r4, r0
/mnt/disk/raspbian-tee/optee_os/lib/libutils/isoc/bget_malloc.c:350
    5874:	4b06      	ldr	r3, [pc, #24]	; (5890 <calloc+0x44>)
    5876:	4620      	mov	r0, r4
    5878:	fb06 f105 	mul.w	r1, r6, r5
    587c:	447b      	add	r3, pc
    587e:	691a      	ldr	r2, [r3, #16]
    5880:	f7ff fc9e 	bl	51c0 <raw_malloc_return_hook.isra.3>
calloc():
/mnt/disk/raspbian-tee/optee_os/lib/libutils/isoc/bget_malloc.c:842
    5884:	4620      	mov	r0, r4
    5886:	bd70      	pop	{r4, r5, r6, pc}
raw_calloc():
/mnt/disk/raspbian-tee/optee_os/lib/libutils/isoc/bget_malloc.c:331
    5888:	2400      	movs	r4, #0
    588a:	e7f3      	b.n	5874 <calloc+0x28>
    588c:	000028f0 	.word	0x000028f0
    5890:	000028e0 	.word	0x000028e0

00005894 <realloc>:
realloc():
/mnt/disk/raspbian-tee/optee_os/lib/libutils/isoc/bget_malloc.c:850
    5894:	b538      	push	{r3, r4, r5, lr}
raw_realloc():
/mnt/disk/raspbian-tee/optee_os/lib/libutils/isoc/bget_malloc.c:362
    5896:	1e0d      	subs	r5, r1, #0
    5898:	db12      	blt.n	58c0 <realloc+0x2c>
/mnt/disk/raspbian-tee/optee_os/lib/libutils/isoc/bget_malloc.c:373
    589a:	4a0a      	ldr	r2, [pc, #40]	; (58c4 <realloc+0x30>)
    589c:	4629      	mov	r1, r5
    589e:	bf18      	it	ne
    58a0:	4629      	movne	r1, r5
    58a2:	bf08      	it	eq
    58a4:	2101      	moveq	r1, #1
    58a6:	447a      	add	r2, pc
    58a8:	f7ff feee 	bl	5688 <bgetr>
    58ac:	4604      	mov	r4, r0
/mnt/disk/raspbian-tee/optee_os/lib/libutils/isoc/bget_malloc.c:375
    58ae:	4b06      	ldr	r3, [pc, #24]	; (58c8 <realloc+0x34>)
    58b0:	4620      	mov	r0, r4
    58b2:	4629      	mov	r1, r5
    58b4:	447b      	add	r3, pc
    58b6:	691a      	ldr	r2, [r3, #16]
    58b8:	f7ff fc82 	bl	51c0 <raw_malloc_return_hook.isra.3>
realloc():
/mnt/disk/raspbian-tee/optee_os/lib/libutils/isoc/bget_malloc.c:857
    58bc:	4620      	mov	r0, r4
    58be:	bd38      	pop	{r3, r4, r5, pc}
raw_realloc():
/mnt/disk/raspbian-tee/optee_os/lib/libutils/isoc/bget_malloc.c:358
    58c0:	2400      	movs	r4, #0
    58c2:	e7f4      	b.n	58ae <realloc+0x1a>
    58c4:	000028b6 	.word	0x000028b6
    58c8:	000028a8 	.word	0x000028a8

000058cc <memalign>:
memalign():
/mnt/disk/raspbian-tee/optee_os/lib/libutils/isoc/bget_malloc.c:860
    58cc:	b5f8      	push	{r3, r4, r5, r6, r7, lr}
    58ce:	460f      	mov	r7, r1
raw_memalign():
/mnt/disk/raspbian-tee/optee_os/lib/libutils/isoc/bget_malloc.c:535
    58d0:	4605      	mov	r5, r0
    58d2:	b178      	cbz	r0, 58f4 <memalign+0x28>
    58d4:	4244      	negs	r4, r0
    58d6:	ea30 0304 	bics.w	r3, r0, r4
    58da:	d10b      	bne.n	58f4 <memalign+0x28>
/mnt/disk/raspbian-tee/optee_os/lib/libutils/isoc/bget_malloc.c:542
    58dc:	2808      	cmp	r0, #8
    58de:	d803      	bhi.n	58e8 <memalign+0x1c>
/mnt/disk/raspbian-tee/optee_os/lib/libutils/isoc/bget_malloc.c:543
    58e0:	4608      	mov	r0, r1
memalign():
/mnt/disk/raspbian-tee/optee_os/lib/libutils/isoc/bget_malloc.c:867
    58e2:	e8bd 40f8 	ldmia.w	sp!, {r3, r4, r5, r6, r7, lr}
raw_memalign():
/mnt/disk/raspbian-tee/optee_os/lib/libutils/isoc/bget_malloc.c:543
    58e6:	e589      	b.n	53fc <raw_malloc.constprop.15>
    58e8:	f101 0610 	add.w	r6, r1, #16
    58ec:	1986      	adds	r6, r0, r6
    58ee:	d201      	bcs.n	58f4 <memalign+0x28>
/mnt/disk/raspbian-tee/optee_os/lib/libutils/isoc/bget_malloc.c:549
    58f0:	42b1      	cmp	r1, r6
    58f2:	d901      	bls.n	58f8 <memalign+0x2c>
/mnt/disk/raspbian-tee/optee_os/lib/libutils/isoc/bget_malloc.c:536
    58f4:	2400      	movs	r4, #0
memalign():
/mnt/disk/raspbian-tee/optee_os/lib/libutils/isoc/bget_malloc.c:866
    58f6:	e0f5      	b.n	5ae4 <memalign+0x218>
raw_memalign():
/mnt/disk/raspbian-tee/optee_os/lib/libutils/isoc/bget_malloc.c:552
    58f8:	497b      	ldr	r1, [pc, #492]	; (5ae8 <memalign+0x21c>)
    58fa:	4630      	mov	r0, r6
    58fc:	4479      	add	r1, pc
    58fe:	f7ff fce3 	bl	52c8 <bget>
/mnt/disk/raspbian-tee/optee_os/lib/libutils/isoc/bget_malloc.c:553
    5902:	4603      	mov	r3, r0
    5904:	2800      	cmp	r0, #0
    5906:	f000 80e5 	beq.w	5ad4 <memalign+0x208>
/mnt/disk/raspbian-tee/optee_os/lib/libutils/isoc/bget_malloc.c:556
    590a:	1e6a      	subs	r2, r5, #1
    590c:	4210      	tst	r0, r2
    590e:	d063      	beq.n	59d8 <memalign+0x10c>
/mnt/disk/raspbian-tee/optee_os/lib/libutils/isoc/bget_malloc.c:569
    5910:	182a      	adds	r2, r5, r0
/mnt/disk/raspbian-tee/optee_os/lib/libutils/isoc/bget_malloc.c:574
    5912:	4406      	add	r6, r0
/mnt/disk/raspbian-tee/optee_os/lib/libutils/isoc/bget_malloc.c:570
    5914:	4014      	ands	r4, r2
/mnt/disk/raspbian-tee/optee_os/lib/libutils/isoc/bget_malloc.c:572
    5916:	1a22      	subs	r2, r4, r0
    5918:	2a0f      	cmp	r2, #15
/mnt/disk/raspbian-tee/optee_os/lib/libutils/isoc/bget_malloc.c:573
    591a:	bf98      	it	ls
    591c:	1964      	addls	r4, r4, r5
/mnt/disk/raspbian-tee/optee_os/lib/libutils/isoc/bget_malloc.c:574
    591e:	193a      	adds	r2, r7, r4
    5920:	42b2      	cmp	r2, r6
    5922:	d90c      	bls.n	593e <memalign+0x72>
    5924:	4b71      	ldr	r3, [pc, #452]	; (5aec <memalign+0x220>)
    5926:	f240 223e 	movw	r2, #574	; 0x23e
    592a:	4971      	ldr	r1, [pc, #452]	; (5af0 <memalign+0x224>)
    592c:	4871      	ldr	r0, [pc, #452]	; (5af4 <memalign+0x228>)
    592e:	447b      	add	r3, pc
    5930:	3335      	adds	r3, #53	; 0x35
    5932:	4479      	add	r1, pc
    5934:	4478      	add	r0, pc
brel_before():
/mnt/disk/raspbian-tee/optee_os/lib/libutils/isoc/bget_malloc.c:411
    5936:	f000 fab3 	bl	5ea0 <_assert_log>
    593a:	f000 fac5 	bl	5ec8 <_assert_break>
    593e:	42a0      	cmp	r0, r4
    5940:	d309      	bcc.n	5956 <memalign+0x8a>
    5942:	4b6d      	ldr	r3, [pc, #436]	; (5af8 <memalign+0x22c>)
    5944:	f240 129b 	movw	r2, #411	; 0x19b
    5948:	496c      	ldr	r1, [pc, #432]	; (5afc <memalign+0x230>)
    594a:	486d      	ldr	r0, [pc, #436]	; (5b00 <memalign+0x234>)
    594c:	447b      	add	r3, pc
    594e:	3342      	adds	r3, #66	; 0x42
    5950:	4479      	add	r1, pc
    5952:	4478      	add	r0, pc
    5954:	e7ef      	b.n	5936 <memalign+0x6a>
/mnt/disk/raspbian-tee/optee_os/lib/libutils/isoc/bget_malloc.c:413
    5956:	1a25      	subs	r5, r4, r0
/mnt/disk/raspbian-tee/optee_os/lib/libutils/isoc/bget_malloc.c:414
    5958:	2d0f      	cmp	r5, #15
    595a:	d809      	bhi.n	5970 <memalign+0xa4>
    595c:	4b69      	ldr	r3, [pc, #420]	; (5b04 <memalign+0x238>)
    595e:	f44f 72cf 	mov.w	r2, #414	; 0x19e
    5962:	4969      	ldr	r1, [pc, #420]	; (5b08 <memalign+0x23c>)
    5964:	4869      	ldr	r0, [pc, #420]	; (5b0c <memalign+0x240>)
    5966:	447b      	add	r3, pc
    5968:	3342      	adds	r3, #66	; 0x42
    596a:	4479      	add	r1, pc
    596c:	4478      	add	r0, pc
    596e:	e7e2      	b.n	5936 <memalign+0x6a>
/mnt/disk/raspbian-tee/optee_os/lib/libutils/isoc/bget_malloc.c:418
    5970:	f853 2c04 	ldr.w	r2, [r3, #-4]
/mnt/disk/raspbian-tee/optee_os/lib/libutils/isoc/bget_malloc.c:417
    5974:	3808      	subs	r0, #8
/mnt/disk/raspbian-tee/optee_os/lib/libutils/isoc/bget_malloc.c:423
    5976:	f853 3c08 	ldr.w	r3, [r3, #-8]
    597a:	442a      	add	r2, r5
    597c:	b323      	cbz	r3, 59c8 <memalign+0xfc>
/mnt/disk/raspbian-tee/optee_os/lib/libutils/isoc/bget_malloc.c:428
    597e:	1ac0      	subs	r0, r0, r3
/mnt/disk/raspbian-tee/optee_os/lib/libutils/isoc/bget_malloc.c:429
    5980:	6841      	ldr	r1, [r0, #4]
    5982:	428b      	cmp	r3, r1
    5984:	d009      	beq.n	599a <memalign+0xce>
    5986:	4b62      	ldr	r3, [pc, #392]	; (5b10 <memalign+0x244>)
    5988:	f240 12ad 	movw	r2, #429	; 0x1ad
    598c:	4961      	ldr	r1, [pc, #388]	; (5b14 <memalign+0x248>)
    598e:	4862      	ldr	r0, [pc, #392]	; (5b18 <memalign+0x24c>)
    5990:	447b      	add	r3, pc
    5992:	3342      	adds	r3, #66	; 0x42
    5994:	4479      	add	r1, pc
    5996:	4478      	add	r0, pc
    5998:	e7cd      	b.n	5936 <memalign+0x6a>
/mnt/disk/raspbian-tee/optee_os/lib/libutils/isoc/bget_malloc.c:430
    599a:	442b      	add	r3, r5
    599c:	6043      	str	r3, [r0, #4]
/mnt/disk/raspbian-tee/optee_os/lib/libutils/isoc/bget_malloc.c:433
    599e:	f844 3c08 	str.w	r3, [r4, #-8]
/mnt/disk/raspbian-tee/optee_os/lib/libutils/isoc/bget_malloc.c:435
    59a2:	f844 2c04 	str.w	r2, [r4, #-4]
/mnt/disk/raspbian-tee/optee_os/lib/libutils/isoc/bget_malloc.c:449
    59a6:	4a5d      	ldr	r2, [pc, #372]	; (5b1c <memalign+0x250>)
    59a8:	447a      	add	r2, pc
    59aa:	6913      	ldr	r3, [r2, #16]
    59ac:	1b5d      	subs	r5, r3, r5
    59ae:	6115      	str	r5, [r2, #16]
/mnt/disk/raspbian-tee/optee_os/lib/libutils/isoc/bget_malloc.c:450
    59b0:	2d00      	cmp	r5, #0
    59b2:	da12      	bge.n	59da <memalign+0x10e>
    59b4:	4b5a      	ldr	r3, [pc, #360]	; (5b20 <memalign+0x254>)
    59b6:	f44f 72e1 	mov.w	r2, #450	; 0x1c2
    59ba:	495a      	ldr	r1, [pc, #360]	; (5b24 <memalign+0x258>)
    59bc:	485a      	ldr	r0, [pc, #360]	; (5b28 <memalign+0x25c>)
    59be:	447b      	add	r3, pc
    59c0:	3342      	adds	r3, #66	; 0x42
    59c2:	4479      	add	r1, pc
    59c4:	4478      	add	r0, pc
    59c6:	e7b6      	b.n	5936 <memalign+0x6a>
/mnt/disk/raspbian-tee/optee_os/lib/libutils/isoc/bget_malloc.c:443
    59c8:	f844 2c04 	str.w	r2, [r4, #-4]
/mnt/disk/raspbian-tee/optee_os/lib/libutils/isoc/bget_malloc.c:445
    59cc:	4629      	mov	r1, r5
    59ce:	f1a4 0208 	sub.w	r2, r4, #8
    59d2:	f7ff fc0d 	bl	51f0 <create_free_block.constprop.11>
    59d6:	e7e6      	b.n	59a6 <memalign+0xda>
raw_memalign():
/mnt/disk/raspbian-tee/optee_os/lib/libutils/isoc/bget_malloc.c:556
    59d8:	4604      	mov	r4, r0
brel_after():
/mnt/disk/raspbian-tee/optee_os/lib/libutils/isoc/bget_malloc.c:466
    59da:	2f08      	cmp	r7, #8
    59dc:	4638      	mov	r0, r7
    59de:	bf38      	it	cc
    59e0:	2008      	movcc	r0, #8
/mnt/disk/raspbian-tee/optee_os/lib/libutils/isoc/bget_malloc.c:470
    59e2:	f854 1c04 	ldr.w	r1, [r4, #-4]
/mnt/disk/raspbian-tee/optee_os/lib/libutils/isoc/bget_malloc.c:466
    59e6:	3007      	adds	r0, #7
    59e8:	f020 0007 	bic.w	r0, r0, #7
/mnt/disk/raspbian-tee/optee_os/lib/libutils/isoc/bget_malloc.c:470
    59ec:	424d      	negs	r5, r1
/mnt/disk/raspbian-tee/optee_os/lib/libutils/isoc/bget_malloc.c:469
    59ee:	f100 0308 	add.w	r3, r0, #8
/mnt/disk/raspbian-tee/optee_os/lib/libutils/isoc/bget_malloc.c:470
    59f2:	42ab      	cmp	r3, r5
    59f4:	dd09      	ble.n	5a0a <memalign+0x13e>
    59f6:	4b4d      	ldr	r3, [pc, #308]	; (5b2c <memalign+0x260>)
    59f8:	f44f 72eb 	mov.w	r2, #470	; 0x1d6
    59fc:	494c      	ldr	r1, [pc, #304]	; (5b30 <memalign+0x264>)
    59fe:	484d      	ldr	r0, [pc, #308]	; (5b34 <memalign+0x268>)
    5a00:	447b      	add	r3, pc
    5a02:	334e      	adds	r3, #78	; 0x4e
    5a04:	4479      	add	r1, pc
    5a06:	4478      	add	r0, pc
    5a08:	e795      	b.n	5936 <memalign+0x6a>
/mnt/disk/raspbian-tee/optee_os/lib/libutils/isoc/bget_malloc.c:476
    5a0a:	1aed      	subs	r5, r5, r3
/mnt/disk/raspbian-tee/optee_os/lib/libutils/isoc/bget_malloc.c:477
    5a0c:	2d0f      	cmp	r5, #15
    5a0e:	dd62      	ble.n	5ad6 <memalign+0x20a>
/mnt/disk/raspbian-tee/optee_os/lib/libutils/isoc/bget_malloc.c:480
    5a10:	f1c1 21ff 	rsb	r1, r1, #4278255360	; 0xff00ff00
/mnt/disk/raspbian-tee/optee_os/lib/libutils/isoc/bget_malloc.c:484
    5a14:	425b      	negs	r3, r3
/mnt/disk/raspbian-tee/optee_os/lib/libutils/isoc/bget_malloc.c:480
    5a16:	f501 017f 	add.w	r1, r1, #16711680	; 0xff0000
/mnt/disk/raspbian-tee/optee_os/lib/libutils/isoc/bget_malloc.c:484
    5a1a:	f844 3c04 	str.w	r3, [r4, #-4]
/mnt/disk/raspbian-tee/optee_os/lib/libutils/isoc/bget_malloc.c:480
    5a1e:	31f8      	adds	r1, #248	; 0xf8
    5a20:	4420      	add	r0, r4
    5a22:	1862      	adds	r2, r4, r1
/mnt/disk/raspbian-tee/optee_os/lib/libutils/isoc/bget_malloc.c:485
    5a24:	6853      	ldr	r3, [r2, #4]
    5a26:	2b00      	cmp	r3, #0
    5a28:	dd50      	ble.n	5acc <memalign+0x200>
/mnt/disk/raspbian-tee/optee_os/lib/libutils/isoc/bget_malloc.c:491
    5a2a:	5861      	ldr	r1, [r4, r1]
    5a2c:	b149      	cbz	r1, 5a42 <memalign+0x176>
    5a2e:	4b42      	ldr	r3, [pc, #264]	; (5b38 <memalign+0x26c>)
    5a30:	f240 12eb 	movw	r2, #491	; 0x1eb
    5a34:	4941      	ldr	r1, [pc, #260]	; (5b3c <memalign+0x270>)
    5a36:	4842      	ldr	r0, [pc, #264]	; (5b40 <memalign+0x274>)
    5a38:	447b      	add	r3, pc
    5a3a:	334e      	adds	r3, #78	; 0x4e
    5a3c:	4479      	add	r1, pc
    5a3e:	4478      	add	r0, pc
    5a40:	e779      	b.n	5936 <memalign+0x6a>
/mnt/disk/raspbian-tee/optee_os/lib/libutils/isoc/bget_malloc.c:492
    5a42:	58d6      	ldr	r6, [r2, r3]
    5a44:	42b3      	cmp	r3, r6
    5a46:	d009      	beq.n	5a5c <memalign+0x190>
    5a48:	4b3e      	ldr	r3, [pc, #248]	; (5b44 <memalign+0x278>)
    5a4a:	f44f 72f6 	mov.w	r2, #492	; 0x1ec
    5a4e:	493e      	ldr	r1, [pc, #248]	; (5b48 <memalign+0x27c>)
    5a50:	483e      	ldr	r0, [pc, #248]	; (5b4c <memalign+0x280>)
    5a52:	447b      	add	r3, pc
    5a54:	334e      	adds	r3, #78	; 0x4e
    5a56:	4479      	add	r1, pc
    5a58:	4478      	add	r0, pc
    5a5a:	e76c      	b.n	5936 <memalign+0x6a>
/mnt/disk/raspbian-tee/optee_os/lib/libutils/isoc/bget_malloc.c:495
    5a5c:	6001      	str	r1, [r0, #0]
/mnt/disk/raspbian-tee/optee_os/lib/libutils/isoc/bget_malloc.c:496
    5a5e:	18e9      	adds	r1, r5, r3
    5a60:	6041      	str	r1, [r0, #4]
/mnt/disk/raspbian-tee/optee_os/lib/libutils/isoc/bget_malloc.c:499
    5a62:	58d1      	ldr	r1, [r2, r3]
    5a64:	4429      	add	r1, r5
    5a66:	50d1      	str	r1, [r2, r3]
/mnt/disk/raspbian-tee/optee_os/lib/libutils/isoc/bget_malloc.c:505
    5a68:	68d3      	ldr	r3, [r2, #12]
    5a6a:	6899      	ldr	r1, [r3, #8]
    5a6c:	428a      	cmp	r2, r1
    5a6e:	d009      	beq.n	5a84 <memalign+0x1b8>
    5a70:	4b37      	ldr	r3, [pc, #220]	; (5b50 <memalign+0x284>)
    5a72:	f240 12f9 	movw	r2, #505	; 0x1f9
    5a76:	4937      	ldr	r1, [pc, #220]	; (5b54 <memalign+0x288>)
    5a78:	4837      	ldr	r0, [pc, #220]	; (5b58 <memalign+0x28c>)
    5a7a:	447b      	add	r3, pc
    5a7c:	334e      	adds	r3, #78	; 0x4e
    5a7e:	4479      	add	r1, pc
    5a80:	4478      	add	r0, pc
    5a82:	e758      	b.n	5936 <memalign+0x6a>
/mnt/disk/raspbian-tee/optee_os/lib/libutils/isoc/bget_malloc.c:506
    5a84:	6891      	ldr	r1, [r2, #8]
    5a86:	68ce      	ldr	r6, [r1, #12]
    5a88:	42b2      	cmp	r2, r6
    5a8a:	d009      	beq.n	5aa0 <memalign+0x1d4>
    5a8c:	4b33      	ldr	r3, [pc, #204]	; (5b5c <memalign+0x290>)
    5a8e:	f44f 72fd 	mov.w	r2, #506	; 0x1fa
    5a92:	4933      	ldr	r1, [pc, #204]	; (5b60 <memalign+0x294>)
    5a94:	4833      	ldr	r0, [pc, #204]	; (5b64 <memalign+0x298>)
    5a96:	447b      	add	r3, pc
    5a98:	334e      	adds	r3, #78	; 0x4e
    5a9a:	4479      	add	r1, pc
    5a9c:	4478      	add	r0, pc
    5a9e:	e74a      	b.n	5936 <memalign+0x6a>
/mnt/disk/raspbian-tee/optee_os/lib/libutils/isoc/bget_malloc.c:509
    5aa0:	60c3      	str	r3, [r0, #12]
/mnt/disk/raspbian-tee/optee_os/lib/libutils/isoc/bget_malloc.c:510
    5aa2:	6081      	str	r1, [r0, #8]
/mnt/disk/raspbian-tee/optee_os/lib/libutils/isoc/bget_malloc.c:513
    5aa4:	6098      	str	r0, [r3, #8]
/mnt/disk/raspbian-tee/optee_os/lib/libutils/isoc/bget_malloc.c:514
    5aa6:	6883      	ldr	r3, [r0, #8]
    5aa8:	60d8      	str	r0, [r3, #12]
/mnt/disk/raspbian-tee/optee_os/lib/libutils/isoc/bget_malloc.c:521
    5aaa:	4a2f      	ldr	r2, [pc, #188]	; (5b68 <memalign+0x29c>)
    5aac:	447a      	add	r2, pc
    5aae:	6913      	ldr	r3, [r2, #16]
    5ab0:	1b5d      	subs	r5, r3, r5
    5ab2:	6115      	str	r5, [r2, #16]
/mnt/disk/raspbian-tee/optee_os/lib/libutils/isoc/bget_malloc.c:522
    5ab4:	2d00      	cmp	r5, #0
    5ab6:	da0e      	bge.n	5ad6 <memalign+0x20a>
    5ab8:	4b2c      	ldr	r3, [pc, #176]	; (5b6c <memalign+0x2a0>)
    5aba:	f240 220a 	movw	r2, #522	; 0x20a
    5abe:	492c      	ldr	r1, [pc, #176]	; (5b70 <memalign+0x2a4>)
    5ac0:	482c      	ldr	r0, [pc, #176]	; (5b74 <memalign+0x2a8>)
    5ac2:	447b      	add	r3, pc
    5ac4:	334e      	adds	r3, #78	; 0x4e
    5ac6:	4479      	add	r1, pc
    5ac8:	4478      	add	r0, pc
    5aca:	e734      	b.n	5936 <memalign+0x6a>
/mnt/disk/raspbian-tee/optee_os/lib/libutils/isoc/bget_malloc.c:517
    5acc:	4629      	mov	r1, r5
    5ace:	f7ff fb8f 	bl	51f0 <create_free_block.constprop.11>
    5ad2:	e7ea      	b.n	5aaa <memalign+0x1de>
raw_memalign():
/mnt/disk/raspbian-tee/optee_os/lib/libutils/isoc/bget_malloc.c:553
    5ad4:	4604      	mov	r4, r0
/mnt/disk/raspbian-tee/optee_os/lib/libutils/isoc/bget_malloc.c:589
    5ad6:	4b28      	ldr	r3, [pc, #160]	; (5b78 <memalign+0x2ac>)
    5ad8:	4639      	mov	r1, r7
    5ada:	4620      	mov	r0, r4
    5adc:	447b      	add	r3, pc
    5ade:	691a      	ldr	r2, [r3, #16]
    5ae0:	f7ff fb6e 	bl	51c0 <raw_malloc_return_hook.isra.3>
memalign():
/mnt/disk/raspbian-tee/optee_os/lib/libutils/isoc/bget_malloc.c:867
    5ae4:	4620      	mov	r0, r4
    5ae6:	bdf8      	pop	{r3, r4, r5, r6, r7, pc}
    5ae8:	00002860 	.word	0x00002860
    5aec:	000014c1 	.word	0x000014c1
    5af0:	00001547 	.word	0x00001547
    5af4:	00001817 	.word	0x00001817
    5af8:	000014a3 	.word	0x000014a3
    5afc:	00001529 	.word	0x00001529
    5b00:	00001825 	.word	0x00001825
    5b04:	00001489 	.word	0x00001489
    5b08:	0000150f 	.word	0x0000150f
    5b0c:	0000181e 	.word	0x0000181e
    5b10:	0000145f 	.word	0x0000145f
    5b14:	000014e5 	.word	0x000014e5
    5b18:	0000181b 	.word	0x0000181b
    5b1c:	000027b4 	.word	0x000027b4
    5b20:	00001431 	.word	0x00001431
    5b24:	000014b7 	.word	0x000014b7
    5b28:	00001664 	.word	0x00001664
    5b2c:	000013ef 	.word	0x000013ef
    5b30:	00001475 	.word	0x00001475
    5b34:	000017cc 	.word	0x000017cc
    5b38:	000013b7 	.word	0x000013b7
    5b3c:	0000143d 	.word	0x0000143d
    5b40:	000017aa 	.word	0x000017aa
    5b44:	0000139d 	.word	0x0000139d
    5b48:	00001423 	.word	0x00001423
    5b4c:	000017a6 	.word	0x000017a6
    5b50:	00001375 	.word	0x00001375
    5b54:	000013fb 	.word	0x000013fb
    5b58:	0000179d 	.word	0x0000179d
    5b5c:	00001359 	.word	0x00001359
    5b60:	000013df 	.word	0x000013df
    5b64:	000017a0 	.word	0x000017a0
    5b68:	000026b0 	.word	0x000026b0
    5b6c:	0000132d 	.word	0x0000132d
    5b70:	000013b3 	.word	0x000013b3
    5b74:	00001560 	.word	0x00001560
    5b78:	00002680 	.word	0x00002680

00005b7c <malloc_add_pool>:
malloc_add_pool():
/mnt/disk/raspbian-tee/optee_os/lib/libutils/isoc/bget_malloc.c:878
    5b7c:	e92d 41f3 	stmdb	sp!, {r0, r1, r4, r5, r6, r7, r8, lr}
/mnt/disk/raspbian-tee/optee_os/lib/libutils/isoc/bget_malloc.c:883
    5b80:	1844      	adds	r4, r0, r1
/mnt/disk/raspbian-tee/optee_os/lib/libutils/isoc/bget_malloc.c:889
    5b82:	3007      	adds	r0, #7
    5b84:	f020 0607 	bic.w	r6, r0, #7
/mnt/disk/raspbian-tee/optee_os/lib/libutils/isoc/bget_malloc.c:890
    5b88:	f024 0407 	bic.w	r4, r4, #7
/mnt/disk/raspbian-tee/optee_os/lib/libutils/isoc/bget_malloc.c:891
    5b8c:	42a6      	cmp	r6, r4
    5b8e:	d30c      	bcc.n	5baa <malloc_add_pool+0x2e>
/mnt/disk/raspbian-tee/optee_os/lib/libutils/isoc/bget_malloc.c:891 (discriminator 1)
    5b90:	4b2c      	ldr	r3, [pc, #176]	; (5c44 <malloc_add_pool+0xc8>)
    5b92:	f240 327b 	movw	r2, #891	; 0x37b
    5b96:	492c      	ldr	r1, [pc, #176]	; (5c48 <malloc_add_pool+0xcc>)
    5b98:	482c      	ldr	r0, [pc, #176]	; (5c4c <malloc_add_pool+0xd0>)
    5b9a:	447b      	add	r3, pc
    5b9c:	3359      	adds	r3, #89	; 0x59
    5b9e:	4479      	add	r1, pc
    5ba0:	4478      	add	r0, pc
/mnt/disk/raspbian-tee/optee_os/lib/libutils/isoc/bget_malloc.c:904 (discriminator 1)
    5ba2:	f000 f97d 	bl	5ea0 <_assert_log>
    5ba6:	f000 f98f 	bl	5ec8 <_assert_break>
/mnt/disk/raspbian-tee/optee_os/lib/libutils/isoc/bget_malloc.c:893
    5baa:	1ba4      	subs	r4, r4, r6
    5bac:	2c17      	cmp	r4, #23
    5bae:	d80e      	bhi.n	5bce <malloc_add_pool+0x52>
/mnt/disk/raspbian-tee/optee_os/lib/libutils/isoc/bget_malloc.c:894
    5bb0:	4827      	ldr	r0, [pc, #156]	; (5c50 <malloc_add_pool+0xd4>)
    5bb2:	2203      	movs	r2, #3
    5bb4:	4b27      	ldr	r3, [pc, #156]	; (5c54 <malloc_add_pool+0xd8>)
    5bb6:	f240 317e 	movw	r1, #894	; 0x37e
    5bba:	4478      	add	r0, pc
    5bbc:	447b      	add	r3, pc
    5bbe:	3059      	adds	r0, #89	; 0x59
    5bc0:	9300      	str	r3, [sp, #0]
    5bc2:	2301      	movs	r3, #1
    5bc4:	f7fb f884 	bl	cd0 <trace_printf>
/mnt/disk/raspbian-tee/optee_os/lib/libutils/isoc/bget_malloc.c:913
    5bc8:	b002      	add	sp, #8
    5bca:	e8bd 81f0 	ldmia.w	sp!, {r4, r5, r6, r7, r8, pc}
/mnt/disk/raspbian-tee/optee_os/lib/libutils/isoc/bget_malloc.c:901
    5bce:	4d22      	ldr	r5, [pc, #136]	; (5c58 <malloc_add_pool+0xdc>)
    5bd0:	4621      	mov	r1, r4
    5bd2:	4630      	mov	r0, r6
    5bd4:	447d      	add	r5, pc
    5bd6:	462a      	mov	r2, r5
    5bd8:	f7ff fd94 	bl	5704 <bpool>
/mnt/disk/raspbian-tee/optee_os/lib/libutils/isoc/bget_malloc.c:902
    5bdc:	4b1f      	ldr	r3, [pc, #124]	; (5c5c <malloc_add_pool+0xe0>)
    5bde:	447b      	add	r3, pc
    5be0:	6b9f      	ldr	r7, [r3, #56]	; 0x38
    5be2:	3701      	adds	r7, #1
raw_realloc():
/mnt/disk/raspbian-tee/optee_os/lib/libutils/isoc/bget_malloc.c:362
    5be4:	ea5f 08c7 	movs.w	r8, r7, lsl #3
    5be8:	d41b      	bmi.n	5c22 <malloc_add_pool+0xa6>
/mnt/disk/raspbian-tee/optee_os/lib/libutils/isoc/bget_malloc.c:371
    5bea:	f1b8 0f00 	cmp.w	r8, #0
/mnt/disk/raspbian-tee/optee_os/lib/libutils/isoc/bget_malloc.c:373
    5bee:	462a      	mov	r2, r5
    5bf0:	4641      	mov	r1, r8
    5bf2:	6bd8      	ldr	r0, [r3, #60]	; 0x3c
    5bf4:	bf08      	it	eq
    5bf6:	2101      	moveq	r1, #1
    5bf8:	f7ff fd46 	bl	5688 <bgetr>
    5bfc:	4605      	mov	r5, r0
/mnt/disk/raspbian-tee/optee_os/lib/libutils/isoc/bget_malloc.c:375
    5bfe:	4b18      	ldr	r3, [pc, #96]	; (5c60 <malloc_add_pool+0xe4>)
    5c00:	4641      	mov	r1, r8
    5c02:	4628      	mov	r0, r5
    5c04:	447b      	add	r3, pc
    5c06:	691a      	ldr	r2, [r3, #16]
    5c08:	f7ff fada 	bl	51c0 <raw_malloc_return_hook.isra.3>
malloc_add_pool():
/mnt/disk/raspbian-tee/optee_os/lib/libutils/isoc/bget_malloc.c:904
    5c0c:	b95d      	cbnz	r5, 5c26 <malloc_add_pool+0xaa>
/mnt/disk/raspbian-tee/optee_os/lib/libutils/isoc/bget_malloc.c:904 (discriminator 1)
    5c0e:	4b15      	ldr	r3, [pc, #84]	; (5c64 <malloc_add_pool+0xe8>)
    5c10:	f44f 7262 	mov.w	r2, #904	; 0x388
    5c14:	4914      	ldr	r1, [pc, #80]	; (5c68 <malloc_add_pool+0xec>)
    5c16:	4815      	ldr	r0, [pc, #84]	; (5c6c <malloc_add_pool+0xf0>)
    5c18:	447b      	add	r3, pc
    5c1a:	3359      	adds	r3, #89	; 0x59
    5c1c:	4479      	add	r1, pc
    5c1e:	4478      	add	r0, pc
    5c20:	e7bf      	b.n	5ba2 <malloc_add_pool+0x26>
raw_realloc():
/mnt/disk/raspbian-tee/optee_os/lib/libutils/isoc/bget_malloc.c:358
    5c22:	2500      	movs	r5, #0
    5c24:	e7eb      	b.n	5bfe <malloc_add_pool+0x82>
malloc_add_pool():
/mnt/disk/raspbian-tee/optee_os/lib/libutils/isoc/bget_malloc.c:905
    5c26:	4b12      	ldr	r3, [pc, #72]	; (5c70 <malloc_add_pool+0xf4>)
    5c28:	447b      	add	r3, pc
/mnt/disk/raspbian-tee/optee_os/lib/libutils/isoc/bget_malloc.c:906
    5c2a:	6b9a      	ldr	r2, [r3, #56]	; 0x38
/mnt/disk/raspbian-tee/optee_os/lib/libutils/isoc/bget_malloc.c:905
    5c2c:	63dd      	str	r5, [r3, #60]	; 0x3c
/mnt/disk/raspbian-tee/optee_os/lib/libutils/isoc/bget_malloc.c:911
    5c2e:	639f      	str	r7, [r3, #56]	; 0x38
/mnt/disk/raspbian-tee/optee_os/lib/libutils/isoc/bget_malloc.c:906
    5c30:	eb05 01c2 	add.w	r1, r5, r2, lsl #3
    5c34:	f845 6032 	str.w	r6, [r5, r2, lsl #3]
/mnt/disk/raspbian-tee/optee_os/lib/libutils/isoc/bget_malloc.c:907
    5c38:	604c      	str	r4, [r1, #4]
/mnt/disk/raspbian-tee/optee_os/lib/libutils/isoc/bget_malloc.c:909
    5c3a:	6a99      	ldr	r1, [r3, #40]	; 0x28
    5c3c:	440c      	add	r4, r1
    5c3e:	629c      	str	r4, [r3, #40]	; 0x28
    5c40:	e7c2      	b.n	5bc8 <malloc_add_pool+0x4c>
    5c42:	bf00      	nop
    5c44:	00001255 	.word	0x00001255
    5c48:	000012db 	.word	0x000012db
    5c4c:	000016bb 	.word	0x000016bb
    5c50:	00001235 	.word	0x00001235
    5c54:	000016ab 	.word	0x000016ab
    5c58:	00002588 	.word	0x00002588
    5c5c:	000048fe 	.word	0x000048fe
    5c60:	00002558 	.word	0x00002558
    5c64:	000011d7 	.word	0x000011d7
    5c68:	0000125d 	.word	0x0000125d
    5c6c:	00001661 	.word	0x00001661
    5c70:	000048b4 	.word	0x000048b4

00005c74 <malloc_buffer_is_within_alloced>:
malloc_buffer_is_within_alloced():
/mnt/disk/raspbian-tee/optee_os/lib/libutils/isoc/bget_malloc.c:916
    5c74:	b5f8      	push	{r3, r4, r5, r6, r7, lr}
/mnt/disk/raspbian-tee/optee_os/lib/libutils/isoc/bget_malloc.c:927
    5c76:	1841      	adds	r1, r0, r1
    5c78:	d253      	bcs.n	5d22 <malloc_buffer_is_within_alloced+0xae>
bpool_foreach_iterator_init():
/mnt/disk/raspbian-tee/optee_os/lib/libutils/isoc/bget_malloc.c:230
    5c7a:	4b2b      	ldr	r3, [pc, #172]	; (5d28 <malloc_buffer_is_within_alloced+0xb4>)
/mnt/disk/raspbian-tee/optee_os/lib/libutils/isoc/bget_malloc.c:229
    5c7c:	2500      	movs	r5, #0
    5c7e:	f06f 0707 	mvn.w	r7, #7
/mnt/disk/raspbian-tee/optee_os/lib/libutils/isoc/bget_malloc.c:230
    5c82:	447b      	add	r3, pc
    5c84:	6bde      	ldr	r6, [r3, #60]	; 0x3c
bpool_foreach():
/mnt/disk/raspbian-tee/optee_os/lib/libutils/isoc/bget_malloc.c:275
    5c86:	f8d3 c038 	ldr.w	ip, [r3, #56]	; 0x38
bpool_foreach_iterator_init():
/mnt/disk/raspbian-tee/optee_os/lib/libutils/isoc/bget_malloc.c:230
    5c8a:	6833      	ldr	r3, [r6, #0]
bpool_foreach_pool():
/mnt/disk/raspbian-tee/optee_os/lib/libutils/isoc/bget_malloc.c:237
    5c8c:	685a      	ldr	r2, [r3, #4]
/mnt/disk/raspbian-tee/optee_os/lib/libutils/isoc/bget_malloc.c:239
    5c8e:	f1b2 4f00 	cmp.w	r2, #2147483648	; 0x80000000
    5c92:	d043      	beq.n	5d1c <malloc_buffer_is_within_alloced+0xa8>
/mnt/disk/raspbian-tee/optee_os/lib/libutils/isoc/bget_malloc.c:242
    5c94:	2a00      	cmp	r2, #0
    5c96:	da1e      	bge.n	5cd6 <malloc_buffer_is_within_alloced+0x62>
/mnt/disk/raspbian-tee/optee_os/lib/libutils/isoc/bget_malloc.c:244
    5c98:	4254      	negs	r4, r2
/mnt/disk/raspbian-tee/optee_os/lib/libutils/isoc/bget_malloc.c:246
    5c9a:	f04f 0e00 	mov.w	lr, #0
/mnt/disk/raspbian-tee/optee_os/lib/libutils/isoc/bget_malloc.c:259
    5c9e:	441c      	add	r4, r3
bpool_foreach():
/mnt/disk/raspbian-tee/optee_os/lib/libutils/isoc/bget_malloc.c:270
    5ca0:	f1be 0f00 	cmp.w	lr, #0
    5ca4:	d115      	bne.n	5cd2 <malloc_buffer_is_within_alloced+0x5e>
    5ca6:	1aba      	subs	r2, r7, r2
bget_buf_size():
/mnt/disk/raspbian-tee/optee_os/lib/libutils/isoc/bget_malloc.c:612
    5ca8:	2a00      	cmp	r2, #0
    5caa:	dc0c      	bgt.n	5cc6 <malloc_buffer_is_within_alloced+0x52>
    5cac:	4b1f      	ldr	r3, [pc, #124]	; (5d2c <malloc_buffer_is_within_alloced+0xb8>)
    5cae:	f44f 7219 	mov.w	r2, #612	; 0x264
    5cb2:	491f      	ldr	r1, [pc, #124]	; (5d30 <malloc_buffer_is_within_alloced+0xbc>)
    5cb4:	481f      	ldr	r0, [pc, #124]	; (5d34 <malloc_buffer_is_within_alloced+0xc0>)
    5cb6:	447b      	add	r3, pc
    5cb8:	3369      	adds	r3, #105	; 0x69
    5cba:	4479      	add	r1, pc
    5cbc:	4478      	add	r0, pc
bpool_foreach_pool():
/mnt/disk/raspbian-tee/optee_os/lib/libutils/isoc/bget_malloc.c:252
    5cbe:	f000 f8ef 	bl	5ea0 <_assert_log>
    5cc2:	f000 f901 	bl	5ec8 <_assert_break>
/mnt/disk/raspbian-tee/optee_os/lib/libutils/isoc/bget_malloc.c:256
    5cc6:	3308      	adds	r3, #8
malloc_buffer_is_within_alloced():
/mnt/disk/raspbian-tee/optee_os/lib/libutils/isoc/bget_malloc.c:938
    5cc8:	4298      	cmp	r0, r3
    5cca:	d302      	bcc.n	5cd2 <malloc_buffer_is_within_alloced+0x5e>
/mnt/disk/raspbian-tee/optee_os/lib/libutils/isoc/bget_malloc.c:936 (discriminator 1)
    5ccc:	441a      	add	r2, r3
/mnt/disk/raspbian-tee/optee_os/lib/libutils/isoc/bget_malloc.c:938 (discriminator 1)
    5cce:	4291      	cmp	r1, r2
    5cd0:	d922      	bls.n	5d18 <malloc_buffer_is_within_alloced+0xa4>
bpool_foreach():
/mnt/disk/raspbian-tee/optee_os/lib/libutils/isoc/bget_malloc.c:279
    5cd2:	4623      	mov	r3, r4
    5cd4:	e7da      	b.n	5c8c <malloc_buffer_is_within_alloced+0x18>
bpool_foreach_pool():
/mnt/disk/raspbian-tee/optee_os/lib/libutils/isoc/bget_malloc.c:252
    5cd6:	68dc      	ldr	r4, [r3, #12]
    5cd8:	68a4      	ldr	r4, [r4, #8]
    5cda:	429c      	cmp	r4, r3
    5cdc:	d008      	beq.n	5cf0 <malloc_buffer_is_within_alloced+0x7c>
    5cde:	4b16      	ldr	r3, [pc, #88]	; (5d38 <malloc_buffer_is_within_alloced+0xc4>)
    5ce0:	22fc      	movs	r2, #252	; 0xfc
    5ce2:	4916      	ldr	r1, [pc, #88]	; (5d3c <malloc_buffer_is_within_alloced+0xc8>)
    5ce4:	4816      	ldr	r0, [pc, #88]	; (5d40 <malloc_buffer_is_within_alloced+0xcc>)
    5ce6:	447b      	add	r3, pc
    5ce8:	3377      	adds	r3, #119	; 0x77
    5cea:	4479      	add	r1, pc
    5cec:	4478      	add	r0, pc
    5cee:	e7e6      	b.n	5cbe <malloc_buffer_is_within_alloced+0x4a>
/mnt/disk/raspbian-tee/optee_os/lib/libutils/isoc/bget_malloc.c:253
    5cf0:	689c      	ldr	r4, [r3, #8]
    5cf2:	68e4      	ldr	r4, [r4, #12]
    5cf4:	429c      	cmp	r4, r3
    5cf6:	d008      	beq.n	5d0a <malloc_buffer_is_within_alloced+0x96>
    5cf8:	4b12      	ldr	r3, [pc, #72]	; (5d44 <malloc_buffer_is_within_alloced+0xd0>)
    5cfa:	22fd      	movs	r2, #253	; 0xfd
    5cfc:	4912      	ldr	r1, [pc, #72]	; (5d48 <malloc_buffer_is_within_alloced+0xd4>)
    5cfe:	4813      	ldr	r0, [pc, #76]	; (5d4c <malloc_buffer_is_within_alloced+0xd8>)
    5d00:	447b      	add	r3, pc
    5d02:	3377      	adds	r3, #119	; 0x77
    5d04:	4479      	add	r1, pc
    5d06:	4478      	add	r0, pc
    5d08:	e7d9      	b.n	5cbe <malloc_buffer_is_within_alloced+0x4a>
    5d0a:	4614      	mov	r4, r2
/mnt/disk/raspbian-tee/optee_os/lib/libutils/isoc/bget_malloc.c:249
    5d0c:	f04f 0e01 	mov.w	lr, #1
    5d10:	e7c5      	b.n	5c9e <malloc_buffer_is_within_alloced+0x2a>
bpool_foreach():
/mnt/disk/raspbian-tee/optee_os/lib/libutils/isoc/bget_malloc.c:279
    5d12:	f856 4035 	ldr.w	r4, [r6, r5, lsl #3]
    5d16:	e7dc      	b.n	5cd2 <malloc_buffer_is_within_alloced+0x5e>
malloc_buffer_is_within_alloced():
/mnt/disk/raspbian-tee/optee_os/lib/libutils/isoc/bget_malloc.c:939
    5d18:	2001      	movs	r0, #1
/mnt/disk/raspbian-tee/optee_os/lib/libutils/isoc/bget_malloc.c:947
    5d1a:	bdf8      	pop	{r3, r4, r5, r6, r7, pc}
bpool_foreach():
/mnt/disk/raspbian-tee/optee_os/lib/libutils/isoc/bget_malloc.c:275
    5d1c:	3501      	adds	r5, #1
    5d1e:	4565      	cmp	r5, ip
    5d20:	d3f7      	bcc.n	5d12 <malloc_buffer_is_within_alloced+0x9e>
malloc_buffer_is_within_alloced():
/mnt/disk/raspbian-tee/optee_os/lib/libutils/isoc/bget_malloc.c:921
    5d22:	2000      	movs	r0, #0
    5d24:	bdf8      	pop	{r3, r4, r5, r6, r7, pc}
    5d26:	bf00      	nop
    5d28:	0000485a 	.word	0x0000485a
    5d2c:	00001139 	.word	0x00001139
    5d30:	000011bf 	.word	0x000011bf
    5d34:	00001440 	.word	0x00001440
    5d38:	00001109 	.word	0x00001109
    5d3c:	0000118f 	.word	0x0000118f
    5d40:	000012b0 	.word	0x000012b0
    5d44:	000010ef 	.word	0x000010ef
    5d48:	00001175 	.word	0x00001175
    5d4c:	000012b1 	.word	0x000012b1

00005d50 <malloc_buffer_overlaps_heap>:
malloc_buffer_overlaps_heap():
/mnt/disk/raspbian-tee/optee_os/lib/libutils/isoc/bget_malloc.c:960
    5d50:	4b11      	ldr	r3, [pc, #68]	; (5d98 <malloc_buffer_overlaps_heap+0x48>)
    5d52:	eb10 0c01 	adds.w	ip, r0, r1
/mnt/disk/raspbian-tee/optee_os/lib/libutils/isoc/bget_malloc.c:951
    5d56:	b5f0      	push	{r4, r5, r6, r7, lr}
    5d58:	f04f 0101 	mov.w	r1, #1
/mnt/disk/raspbian-tee/optee_os/lib/libutils/isoc/bget_malloc.c:960
    5d5c:	447b      	add	r3, pc
    5d5e:	bf38      	it	cc
    5d60:	2100      	movcc	r1, #0
    5d62:	6b9f      	ldr	r7, [r3, #56]	; 0x38
/mnt/disk/raspbian-tee/optee_os/lib/libutils/isoc/bget_malloc.c:961
    5d64:	6bdd      	ldr	r5, [r3, #60]	; 0x3c
/mnt/disk/raspbian-tee/optee_os/lib/libutils/isoc/bget_malloc.c:960
    5d66:	2300      	movs	r3, #0
/mnt/disk/raspbian-tee/optee_os/lib/libutils/isoc/bget_malloc.c:960 (discriminator 1)
    5d68:	42bb      	cmp	r3, r7
    5d6a:	d101      	bne.n	5d70 <malloc_buffer_overlaps_heap+0x20>
/mnt/disk/raspbian-tee/optee_os/lib/libutils/isoc/bget_malloc.c:955
    5d6c:	2000      	movs	r0, #0
    5d6e:	bdf0      	pop	{r4, r5, r6, r7, pc}
/mnt/disk/raspbian-tee/optee_os/lib/libutils/isoc/bget_malloc.c:962
    5d70:	eb05 02c3 	add.w	r2, r5, r3, lsl #3
/mnt/disk/raspbian-tee/optee_os/lib/libutils/isoc/bget_malloc.c:961
    5d74:	f855 4033 	ldr.w	r4, [r5, r3, lsl #3]
    5d78:	2600      	movs	r6, #0
    5d7a:	6852      	ldr	r2, [r2, #4]
    5d7c:	18a2      	adds	r2, r4, r2
    5d7e:	bf28      	it	cs
    5d80:	2601      	movcs	r6, #1
/mnt/disk/raspbian-tee/optee_os/lib/libutils/isoc/bget_malloc.c:964
    5d82:	b931      	cbnz	r1, 5d92 <malloc_buffer_overlaps_heap+0x42>
/mnt/disk/raspbian-tee/optee_os/lib/libutils/isoc/bget_malloc.c:964 (discriminator 1)
    5d84:	b92e      	cbnz	r6, 5d92 <malloc_buffer_overlaps_heap+0x42>
/mnt/disk/raspbian-tee/optee_os/lib/libutils/isoc/bget_malloc.c:969
    5d86:	45a4      	cmp	ip, r4
    5d88:	d803      	bhi.n	5d92 <malloc_buffer_overlaps_heap+0x42>
/mnt/disk/raspbian-tee/optee_os/lib/libutils/isoc/bget_malloc.c:969 (discriminator 1)
    5d8a:	4290      	cmp	r0, r2
    5d8c:	d301      	bcc.n	5d92 <malloc_buffer_overlaps_heap+0x42>
/mnt/disk/raspbian-tee/optee_os/lib/libutils/isoc/bget_malloc.c:960 (discriminator 2)
    5d8e:	3301      	adds	r3, #1
    5d90:	e7ea      	b.n	5d68 <malloc_buffer_overlaps_heap+0x18>
/mnt/disk/raspbian-tee/optee_os/lib/libutils/isoc/bget_malloc.c:965
    5d92:	2001      	movs	r0, #1
/mnt/disk/raspbian-tee/optee_os/lib/libutils/isoc/bget_malloc.c:978
    5d94:	bdf0      	pop	{r4, r5, r6, r7, pc}
    5d96:	bf00      	nop
    5d98:	00004780 	.word	0x00004780

00005d9c <mempool_alloc_pool>:
mempool_alloc_pool():
/mnt/disk/raspbian-tee/optee_os/lib/libutils/ext/mempool.c:130
    5d9c:	b538      	push	{r3, r4, r5, lr}
    5d9e:	4604      	mov	r4, r0
    5da0:	460d      	mov	r5, r1
/mnt/disk/raspbian-tee/optee_os/lib/libutils/ext/mempool.c:131
    5da2:	2001      	movs	r0, #1
    5da4:	210c      	movs	r1, #12
    5da6:	f7ff fd51 	bl	584c <calloc>
/mnt/disk/raspbian-tee/optee_os/lib/libutils/ext/mempool.c:134
    5daa:	07a3      	lsls	r3, r4, #30
    5dac:	d00a      	beq.n	5dc4 <mempool_alloc_pool+0x28>
/mnt/disk/raspbian-tee/optee_os/lib/libutils/ext/mempool.c:134 (discriminator 1)
    5dae:	4b09      	ldr	r3, [pc, #36]	; (5dd4 <mempool_alloc_pool+0x38>)
    5db0:	2286      	movs	r2, #134	; 0x86
    5db2:	4909      	ldr	r1, [pc, #36]	; (5dd8 <mempool_alloc_pool+0x3c>)
    5db4:	4809      	ldr	r0, [pc, #36]	; (5ddc <mempool_alloc_pool+0x40>)
    5db6:	447b      	add	r3, pc
    5db8:	4479      	add	r1, pc
    5dba:	4478      	add	r0, pc
    5dbc:	f000 f870 	bl	5ea0 <_assert_log>
    5dc0:	f000 f882 	bl	5ec8 <_assert_break>
/mnt/disk/raspbian-tee/optee_os/lib/libutils/ext/mempool.c:136
    5dc4:	b120      	cbz	r0, 5dd0 <mempool_alloc_pool+0x34>
/mnt/disk/raspbian-tee/optee_os/lib/libutils/ext/mempool.c:139
    5dc6:	f04f 33ff 	mov.w	r3, #4294967295	; 0xffffffff
/mnt/disk/raspbian-tee/optee_os/lib/libutils/ext/mempool.c:137
    5dca:	6005      	str	r5, [r0, #0]
/mnt/disk/raspbian-tee/optee_os/lib/libutils/ext/mempool.c:138
    5dcc:	6084      	str	r4, [r0, #8]
/mnt/disk/raspbian-tee/optee_os/lib/libutils/ext/mempool.c:139
    5dce:	6043      	str	r3, [r0, #4]
/mnt/disk/raspbian-tee/optee_os/lib/libutils/ext/mempool.c:149
    5dd0:	bd38      	pop	{r3, r4, r5, pc}
    5dd2:	bf00      	nop
    5dd4:	000014cb 	.word	0x000014cb
    5dd8:	000014ea 	.word	0x000014ea
    5ddc:	00001503 	.word	0x00001503

00005de0 <mempool_alloc>:
mempool_alloc():
/mnt/disk/raspbian-tee/optee_os/lib/libutils/ext/mempool.c:152
    5de0:	b573      	push	{r0, r1, r4, r5, r6, lr}
/mnt/disk/raspbian-tee/optee_os/lib/libutils/ext/mempool.c:159
    5de2:	6844      	ldr	r4, [r0, #4]
    5de4:	6802      	ldr	r2, [r0, #0]
    5de6:	2c00      	cmp	r4, #0
    5de8:	db16      	blt.n	5e18 <mempool_alloc+0x38>
/mnt/disk/raspbian-tee/optee_os/lib/libutils/ext/mempool.c:162
    5dea:	6886      	ldr	r6, [r0, #8]
/mnt/disk/raspbian-tee/optee_os/lib/libutils/ext/mempool.c:166
    5dec:	1ce3      	adds	r3, r4, #3
/mnt/disk/raspbian-tee/optee_os/lib/libutils/ext/mempool.c:162
    5dee:	19a5      	adds	r5, r4, r6
/mnt/disk/raspbian-tee/optee_os/lib/libutils/ext/mempool.c:166
    5df0:	59a6      	ldr	r6, [r4, r6]
    5df2:	4433      	add	r3, r6
    5df4:	f023 0303 	bic.w	r3, r3, #3
/mnt/disk/raspbian-tee/optee_os/lib/libutils/ext/mempool.c:167
    5df8:	4293      	cmp	r3, r2
    5dfa:	d90f      	bls.n	5e1c <mempool_alloc+0x3c>
/mnt/disk/raspbian-tee/optee_os/lib/libutils/ext/mempool.c:194
    5dfc:	4b11      	ldr	r3, [pc, #68]	; (5e44 <mempool_alloc+0x64>)
    5dfe:	4812      	ldr	r0, [pc, #72]	; (5e48 <mempool_alloc+0x68>)
    5e00:	447b      	add	r3, pc
    5e02:	9300      	str	r3, [sp, #0]
    5e04:	4478      	add	r0, pc
    5e06:	2301      	movs	r3, #1
    5e08:	9101      	str	r1, [sp, #4]
    5e0a:	3013      	adds	r0, #19
    5e0c:	461a      	mov	r2, r3
    5e0e:	21c2      	movs	r1, #194	; 0xc2
    5e10:	f7fa ff5e 	bl	cd0 <trace_printf>
/mnt/disk/raspbian-tee/optee_os/lib/libutils/ext/mempool.c:196
    5e14:	2000      	movs	r0, #0
    5e16:	e013      	b.n	5e40 <mempool_alloc+0x60>
/mnt/disk/raspbian-tee/optee_os/lib/libutils/ext/mempool.c:155
    5e18:	2500      	movs	r5, #0
/mnt/disk/raspbian-tee/optee_os/lib/libutils/ext/mempool.c:160
    5e1a:	462b      	mov	r3, r5
/mnt/disk/raspbian-tee/optee_os/lib/libutils/ext/mempool.c:172
    5e1c:	310f      	adds	r1, #15
    5e1e:	f021 0103 	bic.w	r1, r1, #3
/mnt/disk/raspbian-tee/optee_os/lib/libutils/ext/mempool.c:173
    5e22:	185e      	adds	r6, r3, r1
    5e24:	4296      	cmp	r6, r2
    5e26:	d8e9      	bhi.n	5dfc <mempool_alloc+0x1c>
/mnt/disk/raspbian-tee/optee_os/lib/libutils/ext/mempool.c:176
    5e28:	6886      	ldr	r6, [r0, #8]
    5e2a:	199a      	adds	r2, r3, r6
/mnt/disk/raspbian-tee/optee_os/lib/libutils/ext/mempool.c:177
    5e2c:	5199      	str	r1, [r3, r6]
/mnt/disk/raspbian-tee/optee_os/lib/libutils/ext/mempool.c:178
    5e2e:	6054      	str	r4, [r2, #4]
/mnt/disk/raspbian-tee/optee_os/lib/libutils/ext/mempool.c:179
    5e30:	b105      	cbz	r5, 5e34 <mempool_alloc+0x54>
/mnt/disk/raspbian-tee/optee_os/lib/libutils/ext/mempool.c:180
    5e32:	60ab      	str	r3, [r5, #8]
/mnt/disk/raspbian-tee/optee_os/lib/libutils/ext/mempool.c:181
    5e34:	f04f 31ff 	mov.w	r1, #4294967295	; 0xffffffff
    5e38:	6091      	str	r1, [r2, #8]
/mnt/disk/raspbian-tee/optee_os/lib/libutils/ext/mempool.c:182
    5e3a:	6043      	str	r3, [r0, #4]
/mnt/disk/raspbian-tee/optee_os/lib/libutils/ext/mempool.c:191
    5e3c:	f102 000c 	add.w	r0, r2, #12
/mnt/disk/raspbian-tee/optee_os/lib/libutils/ext/mempool.c:197
    5e40:	b002      	add	sp, #8
    5e42:	bd70      	pop	{r4, r5, r6, pc}
    5e44:	000014e1 	.word	0x000014e1
    5e48:	0000147d 	.word	0x0000147d

00005e4c <mempool_calloc>:
mempool_calloc():
/mnt/disk/raspbian-tee/optee_os/lib/libutils/ext/mempool.c:200
    5e4c:	b570      	push	{r4, r5, r6, lr}
/mnt/disk/raspbian-tee/optee_os/lib/libutils/ext/mempool.c:204
    5e4e:	fba1 4502 	umull	r4, r5, r1, r2
    5e52:	b935      	cbnz	r5, 5e62 <mempool_calloc+0x16>
/mnt/disk/raspbian-tee/optee_os/lib/libutils/ext/mempool.c:207
    5e54:	4621      	mov	r1, r4
    5e56:	f7ff ffc3 	bl	5de0 <mempool_alloc>
/mnt/disk/raspbian-tee/optee_os/lib/libutils/ext/mempool.c:208
    5e5a:	4606      	mov	r6, r0
    5e5c:	b918      	cbnz	r0, 5e66 <mempool_calloc+0x1a>
/mnt/disk/raspbian-tee/optee_os/lib/libutils/ext/mempool.c:212
    5e5e:	4630      	mov	r0, r6
    5e60:	bd70      	pop	{r4, r5, r6, pc}
/mnt/disk/raspbian-tee/optee_os/lib/libutils/ext/mempool.c:205
    5e62:	2600      	movs	r6, #0
    5e64:	e7fb      	b.n	5e5e <mempool_calloc+0x12>
/mnt/disk/raspbian-tee/optee_os/lib/libutils/ext/mempool.c:209
    5e66:	4622      	mov	r2, r4
    5e68:	4629      	mov	r1, r5
    5e6a:	f000 f84d 	bl	5f08 <memset>
    5e6e:	e7f6      	b.n	5e5e <mempool_calloc+0x12>

00005e70 <mempool_free>:
mempool_free():
/mnt/disk/raspbian-tee/optee_os/lib/libutils/ext/mempool.c:215
    5e70:	b510      	push	{r4, lr}
/mnt/disk/raspbian-tee/optee_os/lib/libutils/ext/mempool.c:221
    5e72:	b181      	cbz	r1, 5e96 <mempool_free+0x26>
/mnt/disk/raspbian-tee/optee_os/lib/libutils/ext/mempool.c:224
    5e74:	390c      	subs	r1, #12
/mnt/disk/raspbian-tee/optee_os/lib/libutils/ext/mempool.c:226
    5e76:	684b      	ldr	r3, [r1, #4]
    5e78:	2b00      	cmp	r3, #0
    5e7a:	db0d      	blt.n	5e98 <mempool_free+0x28>
/mnt/disk/raspbian-tee/optee_os/lib/libutils/ext/mempool.c:229
    5e7c:	6882      	ldr	r2, [r0, #8]
    5e7e:	688c      	ldr	r4, [r1, #8]
    5e80:	441a      	add	r2, r3
    5e82:	6094      	str	r4, [r2, #8]
    5e84:	461a      	mov	r2, r3
/mnt/disk/raspbian-tee/optee_os/lib/libutils/ext/mempool.c:233
    5e86:	6889      	ldr	r1, [r1, #8]
    5e88:	2900      	cmp	r1, #0
    5e8a:	db03      	blt.n	5e94 <mempool_free+0x24>
/mnt/disk/raspbian-tee/optee_os/lib/libutils/ext/mempool.c:236
    5e8c:	6882      	ldr	r2, [r0, #8]
    5e8e:	440a      	add	r2, r1
    5e90:	6053      	str	r3, [r2, #4]
/mnt/disk/raspbian-tee/optee_os/lib/libutils/ext/mempool.c:237
    5e92:	6842      	ldr	r2, [r0, #4]
/mnt/disk/raspbian-tee/optee_os/lib/libutils/ext/mempool.c:240
    5e94:	6042      	str	r2, [r0, #4]
    5e96:	bd10      	pop	{r4, pc}
/mnt/disk/raspbian-tee/optee_os/lib/libutils/ext/mempool.c:219
    5e98:	f04f 32ff 	mov.w	r2, #4294967295	; 0xffffffff
    5e9c:	e7f3      	b.n	5e86 <mempool_free+0x16>
    5e9e:	bf00      	nop

00005ea0 <_assert_log>:
_assert_log():
/mnt/disk/raspbian-tee/optee_os/lib/libutee/assert.c:17
    5ea0:	b57f      	push	{r0, r1, r2, r3, r4, r5, r6, lr}
/mnt/disk/raspbian-tee/optee_os/lib/libutee/assert.c:18
    5ea2:	9304      	str	r3, [sp, #16]
    5ea4:	4b07      	ldr	r3, [pc, #28]	; (5ec4 <_assert_log+0x24>)
    5ea6:	9102      	str	r1, [sp, #8]
    5ea8:	2100      	movs	r1, #0
    5eaa:	447b      	add	r3, pc
    5eac:	9300      	str	r3, [sp, #0]
    5eae:	2301      	movs	r3, #1
    5eb0:	9203      	str	r2, [sp, #12]
    5eb2:	9001      	str	r0, [sp, #4]
    5eb4:	461a      	mov	r2, r3
    5eb6:	4608      	mov	r0, r1
    5eb8:	f7fa ff0a 	bl	cd0 <trace_printf>
/mnt/disk/raspbian-tee/optee_os/lib/libutee/assert.c:20
    5ebc:	b007      	add	sp, #28
    5ebe:	f85d fb04 	ldr.w	pc, [sp], #4
    5ec2:	bf00      	nop
    5ec4:	0000146f 	.word	0x0000146f

00005ec8 <_assert_break>:
_assert_break():
/mnt/disk/raspbian-tee/optee_os/lib/libutee/assert.c:23
    5ec8:	b508      	push	{r3, lr}
/mnt/disk/raspbian-tee/optee_os/lib/libutee/assert.c:24
    5eca:	4802      	ldr	r0, [pc, #8]	; (5ed4 <_assert_break+0xc>)
    5ecc:	f7fb e98e 	blx	11ec <utee_panic>
    5ed0:	e7fe      	b.n	5ed0 <_assert_break+0x8>
    5ed2:	bf00      	nop
    5ed4:	ffff0000 	.word	0xffff0000

00005ed8 <tahead_get_trace_level>:
tahead_get_trace_level():
/workspace/optee_os/out/arm/export-ta_arm32/src/user_ta_header.c:107
    5ed8:	2004      	movs	r0, #4
    5eda:	4770      	bx	lr

00005edc <snprintf>:
snprintf():
/mnt/disk/raspbian-tee/optee_os/lib/libutils/isoc/snprintf.c:10
    5edc:	b40c      	push	{r2, r3}
    5ede:	b51f      	push	{r0, r1, r2, r3, r4, lr}
/mnt/disk/raspbian-tee/optee_os/lib/libutils/isoc/snprintf.c:15
    5ee0:	2400      	movs	r4, #0
/mnt/disk/raspbian-tee/optee_os/lib/libutils/isoc/snprintf.c:10
    5ee2:	ab06      	add	r3, sp, #24
    5ee4:	f853 2b04 	ldr.w	r2, [r3], #4
/mnt/disk/raspbian-tee/optee_os/lib/libutils/isoc/snprintf.c:15
    5ee8:	9400      	str	r4, [sp, #0]
/mnt/disk/raspbian-tee/optee_os/lib/libutils/isoc/snprintf.c:14
    5eea:	9303      	str	r3, [sp, #12]
/mnt/disk/raspbian-tee/optee_os/lib/libutils/isoc/snprintf.c:15
    5eec:	f7fa fb02 	bl	4f4 <__vsnprintf>
/mnt/disk/raspbian-tee/optee_os/lib/libutils/isoc/snprintf.c:19
    5ef0:	b004      	add	sp, #16
    5ef2:	e8bd 4010 	ldmia.w	sp!, {r4, lr}
    5ef6:	b002      	add	sp, #8
    5ef8:	4770      	bx	lr

00005efa <vsnprintf>:
vsnprintf():
/mnt/disk/raspbian-tee/optee_os/lib/libutils/isoc/snprintf.c:22
    5efa:	b513      	push	{r0, r1, r4, lr}
/mnt/disk/raspbian-tee/optee_os/lib/libutils/isoc/snprintf.c:23
    5efc:	2400      	movs	r4, #0
    5efe:	9400      	str	r4, [sp, #0]
    5f00:	f7fa faf8 	bl	4f4 <__vsnprintf>
/mnt/disk/raspbian-tee/optee_os/lib/libutils/isoc/snprintf.c:24
    5f04:	b002      	add	sp, #8
    5f06:	bd10      	pop	{r4, pc}

00005f08 <memset>:
memset():
/mnt/disk/raspbian-tee/optee_os/lib/libutils/isoc/newlib/memset.c:76
    5f08:	4402      	add	r2, r0
/mnt/disk/raspbian-tee/optee_os/lib/libutils/isoc/newlib/memset.c:77
    5f0a:	4603      	mov	r3, r0
/mnt/disk/raspbian-tee/optee_os/lib/libutils/isoc/newlib/memset.c:125
    5f0c:	4293      	cmp	r3, r2
    5f0e:	d100      	bne.n	5f12 <memset+0xa>
/mnt/disk/raspbian-tee/optee_os/lib/libutils/isoc/newlib/memset.c:129
    5f10:	4770      	bx	lr
/mnt/disk/raspbian-tee/optee_os/lib/libutils/isoc/newlib/memset.c:126
    5f12:	f803 1b01 	strb.w	r1, [r3], #1
    5f16:	e7f9      	b.n	5f0c <memset+0x4>

00005f18 <strcmp>:
strcmp():
/mnt/disk/raspbian-tee/optee_os/lib/libutils/isoc/newlib/strcmp.c:97
    5f18:	3801      	subs	r0, #1
    5f1a:	b510      	push	{r4, lr}
/mnt/disk/raspbian-tee/optee_os/lib/libutils/isoc/newlib/strcmp.c:99
    5f1c:	f810 3f01 	ldrb.w	r3, [r0, #1]!
    5f20:	460a      	mov	r2, r1
    5f22:	b11b      	cbz	r3, 5f2c <strcmp+0x14>
/mnt/disk/raspbian-tee/optee_os/lib/libutils/isoc/newlib/strcmp.c:99 (discriminator 1)
    5f24:	7814      	ldrb	r4, [r2, #0]
    5f26:	3101      	adds	r1, #1
    5f28:	429c      	cmp	r4, r3
    5f2a:	d0f7      	beq.n	5f1c <strcmp+0x4>
/mnt/disk/raspbian-tee/optee_os/lib/libutils/isoc/newlib/strcmp.c:104
    5f2c:	7810      	ldrb	r0, [r2, #0]
/mnt/disk/raspbian-tee/optee_os/lib/libutils/isoc/newlib/strcmp.c:142
    5f2e:	1a18      	subs	r0, r3, r0
    5f30:	bd10      	pop	{r4, pc}

00005f32 <__aeabi_unwind_cpp_pr0>:
__aeabi_unwind_cpp_pr0():
    5f32:	4770      	bx	lr

00005f34 <__aeabi_unwind_cpp_pr1>:
__aeabi_unwind_cpp_pr1():
    5f34:	4770      	bx	lr

00005f36 <__aeabi_unwind_cpp_pr2>:
__aeabi_unwind_cpp_pr2():
/mnt/disk/raspbian-tee/optee_os/lib/libutils/ext/arch/arm/aeabi_unwind.c:18
    5f36:	4770      	bx	lr

00005f38 <memchr>:
memchr():
/mnt/disk/raspbian-tee/optee_os/lib/libutils/isoc/newlib/memchr.c:109
    5f38:	b2c9      	uxtb	r1, r1
    5f3a:	4402      	add	r2, r0
/mnt/disk/raspbian-tee/optee_os/lib/libutils/isoc/newlib/memchr.c:107
    5f3c:	b510      	push	{r4, lr}
    5f3e:	4603      	mov	r3, r0
/mnt/disk/raspbian-tee/optee_os/lib/libutils/isoc/newlib/memchr.c:153
    5f40:	4290      	cmp	r0, r2
    5f42:	d101      	bne.n	5f48 <memchr+0x10>
/mnt/disk/raspbian-tee/optee_os/lib/libutils/isoc/newlib/memchr.c:159
    5f44:	2000      	movs	r0, #0
    5f46:	bd10      	pop	{r4, pc}
/mnt/disk/raspbian-tee/optee_os/lib/libutils/isoc/newlib/memchr.c:154
    5f48:	781c      	ldrb	r4, [r3, #0]
    5f4a:	3001      	adds	r0, #1
    5f4c:	428c      	cmp	r4, r1
    5f4e:	d1f6      	bne.n	5f3e <memchr+0x6>
    5f50:	4618      	mov	r0, r3
/mnt/disk/raspbian-tee/optee_os/lib/libutils/isoc/newlib/memchr.c:160
    5f52:	bd10      	pop	{r4, pc}

00005f54 <strlen>:
strlen():
/mnt/disk/raspbian-tee/optee_os/lib/libutils/isoc/newlib/strlen.c:92
    5f54:	4603      	mov	r3, r0
/mnt/disk/raspbian-tee/optee_os/lib/libutils/isoc/newlib/strlen.c:117
    5f56:	781a      	ldrb	r2, [r3, #0]
    5f58:	1c59      	adds	r1, r3, #1
    5f5a:	b90a      	cbnz	r2, 5f60 <strlen+0xc>
/mnt/disk/raspbian-tee/optee_os/lib/libutils/isoc/newlib/strlen.c:120
    5f5c:	1a18      	subs	r0, r3, r0
    5f5e:	4770      	bx	lr
    5f60:	460b      	mov	r3, r1
    5f62:	e7f8      	b.n	5f56 <strlen+0x2>

00005f64 <__ul_divmod>:
__ul_divmod():
/mnt/disk/raspbian-tee/optee_os/lib/libutils/isoc/arch/arm/arm32_aeabi_ldivmod.c:68
    5f64:	e9d0 2302 	ldrd	r2, r3, [r0, #8]
/mnt/disk/raspbian-tee/optee_os/lib/libutils/isoc/arch/arm/arm32_aeabi_ldivmod.c:66
    5f68:	e92d 43f0 	stmdb	sp!, {r4, r5, r6, r7, r8, r9, lr}
division_lqr():
/mnt/disk/raspbian-tee/optee_os/lib/libutils/isoc/arch/arm/arm32_aeabi_ldivmod.c:22
    5f6c:	ea52 0103 	orrs.w	r1, r2, r3
__ul_divmod():
/mnt/disk/raspbian-tee/optee_os/lib/libutils/isoc/arch/arm/arm32_aeabi_ldivmod.c:67
    5f70:	e9d0 8900 	ldrd	r8, r9, [r0]
division_lqr():
/mnt/disk/raspbian-tee/optee_os/lib/libutils/isoc/arch/arm/arm32_aeabi_ldivmod.c:22
    5f74:	d02b      	beq.n	5fce <__ul_divmod+0x6a>
    5f76:	2601      	movs	r6, #1
    5f78:	2700      	movs	r7, #0
    5f7a:	4614      	mov	r4, r2
    5f7c:	461d      	mov	r5, r3
/mnt/disk/raspbian-tee/optee_os/lib/libutils/isoc/arch/arm/arm32_aeabi_ldivmod.c:27
    5f7e:	2c00      	cmp	r4, #0
    5f80:	f175 0300 	sbcs.w	r3, r5, #0
    5f84:	da0a      	bge.n	5f9c <__ul_divmod+0x38>
    5f86:	2200      	movs	r2, #0
    5f88:	2300      	movs	r3, #0
/mnt/disk/raspbian-tee/optee_os/lib/libutils/isoc/arch/arm/arm32_aeabi_ldivmod.c:32
    5f8a:	ea56 0107 	orrs.w	r1, r6, r7
    5f8e:	d10a      	bne.n	5fa6 <__ul_divmod+0x42>
__ul_divmod():
/mnt/disk/raspbian-tee/optee_os/lib/libutils/isoc/arch/arm/arm32_aeabi_ldivmod.c:73
    5f90:	e9c0 2300 	strd	r2, r3, [r0]
/mnt/disk/raspbian-tee/optee_os/lib/libutils/isoc/arch/arm/arm32_aeabi_ldivmod.c:74
    5f94:	e9c0 8902 	strd	r8, r9, [r0, #8]
    5f98:	e8bd 83f0 	ldmia.w	sp!, {r4, r5, r6, r7, r8, r9, pc}
division_lqr():
/mnt/disk/raspbian-tee/optee_os/lib/libutils/isoc/arch/arm/arm32_aeabi_ldivmod.c:28
    5f9c:	19b6      	adds	r6, r6, r6
    5f9e:	417f      	adcs	r7, r7
/mnt/disk/raspbian-tee/optee_os/lib/libutils/isoc/arch/arm/arm32_aeabi_ldivmod.c:29
    5fa0:	1924      	adds	r4, r4, r4
    5fa2:	416d      	adcs	r5, r5
    5fa4:	e7eb      	b.n	5f7e <__ul_divmod+0x1a>
/mnt/disk/raspbian-tee/optee_os/lib/libutils/isoc/arch/arm/arm32_aeabi_ldivmod.c:33
    5fa6:	1892      	adds	r2, r2, r2
    5fa8:	415b      	adcs	r3, r3
/mnt/disk/raspbian-tee/optee_os/lib/libutils/isoc/arch/arm/arm32_aeabi_ldivmod.c:34
    5faa:	45a9      	cmp	r9, r5
    5fac:	bf08      	it	eq
    5fae:	45a0      	cmpeq	r8, r4
    5fb0:	d306      	bcc.n	5fc0 <__ul_divmod+0x5c>
/mnt/disk/raspbian-tee/optee_os/lib/libutils/isoc/arch/arm/arm32_aeabi_ldivmod.c:35
    5fb2:	ebb8 0804 	subs.w	r8, r8, r4
    5fb6:	eb69 0905 	sbc.w	r9, r9, r5
/mnt/disk/raspbian-tee/optee_os/lib/libutils/isoc/arch/arm/arm32_aeabi_ldivmod.c:36
    5fba:	3201      	adds	r2, #1
    5fbc:	f143 0300 	adc.w	r3, r3, #0
/mnt/disk/raspbian-tee/optee_os/lib/libutils/isoc/arch/arm/arm32_aeabi_ldivmod.c:38
    5fc0:	086d      	lsrs	r5, r5, #1
    5fc2:	ea4f 0434 	mov.w	r4, r4, rrx
/mnt/disk/raspbian-tee/optee_os/lib/libutils/isoc/arch/arm/arm32_aeabi_ldivmod.c:39
    5fc6:	087f      	lsrs	r7, r7, #1
    5fc8:	ea4f 0636 	mov.w	r6, r6, rrx
    5fcc:	e7dd      	b.n	5f8a <__ul_divmod+0x26>
/mnt/disk/raspbian-tee/optee_os/lib/libutils/isoc/arch/arm/arm32_aeabi_ldivmod.c:23
    5fce:	f04f 38ff 	mov.w	r8, #4294967295	; 0xffffffff
    5fd2:	f04f 39ff 	mov.w	r9, #4294967295	; 0xffffffff
    5fd6:	e7db      	b.n	5f90 <__ul_divmod+0x2c>

00005fd8 <__l_divmod>:
__l_divmod():
/mnt/disk/raspbian-tee/optee_os/lib/libutils/isoc/arch/arm/arm32_aeabi_ldivmod.c:85
    5fd8:	e92d 43f0 	stmdb	sp!, {r4, r5, r6, r7, r8, r9, lr}
/mnt/disk/raspbian-tee/optee_os/lib/libutils/isoc/arch/arm/arm32_aeabi_ldivmod.c:86
    5fdc:	e9d0 4500 	ldrd	r4, r5, [r0]
/mnt/disk/raspbian-tee/optee_os/lib/libutils/isoc/arch/arm/arm32_aeabi_ldivmod.c:87
    5fe0:	e9d0 2302 	ldrd	r2, r3, [r0, #8]
/mnt/disk/raspbian-tee/optee_os/lib/libutils/isoc/arch/arm/arm32_aeabi_ldivmod.c:90
    5fe4:	2c00      	cmp	r4, #0
    5fe6:	f175 0100 	sbcs.w	r1, r5, #0
    5fea:	da35      	bge.n	6058 <__l_divmod+0x80>
/mnt/disk/raspbian-tee/optee_os/lib/libutils/isoc/arch/arm/arm32_aeabi_ldivmod.c:90 (discriminator 1)
    5fec:	2a01      	cmp	r2, #1
    5fee:	f173 0100 	sbcs.w	r1, r3, #0
    5ff2:	f04f 0101 	mov.w	r1, #1
    5ff6:	bfb8      	it	lt
    5ff8:	2100      	movlt	r1, #0
/mnt/disk/raspbian-tee/optee_os/lib/libutils/isoc/arch/arm/arm32_aeabi_ldivmod.c:94 (discriminator 1)
    5ffa:	4264      	negs	r4, r4
/mnt/disk/raspbian-tee/optee_os/lib/libutils/isoc/arch/arm/arm32_aeabi_ldivmod.c:90 (discriminator 1)
    5ffc:	468c      	mov	ip, r1
/mnt/disk/raspbian-tee/optee_os/lib/libutils/isoc/arch/arm/arm32_aeabi_ldivmod.c:94 (discriminator 1)
    5ffe:	eb65 0545 	sbc.w	r5, r5, r5, lsl #1
division_lqr():
/mnt/disk/raspbian-tee/optee_os/lib/libutils/isoc/arch/arm/arm32_aeabi_ldivmod.c:22 (discriminator 1)
    6002:	ea52 0103 	orrs.w	r1, r2, r3
__l_divmod():
/mnt/disk/raspbian-tee/optee_os/lib/libutils/isoc/arch/arm/arm32_aeabi_ldivmod.c:95 (discriminator 1)
    6006:	f04f 0101 	mov.w	r1, #1
division_lqr():
/mnt/disk/raspbian-tee/optee_os/lib/libutils/isoc/arch/arm/arm32_aeabi_ldivmod.c:22 (discriminator 1)
    600a:	d04b      	beq.n	60a4 <__l_divmod+0xcc>
__l_divmod():
/mnt/disk/raspbian-tee/optee_os/lib/libutils/isoc/arch/arm/arm32_aeabi_ldivmod.c:100
    600c:	2a00      	cmp	r2, #0
    600e:	f173 0600 	sbcs.w	r6, r3, #0
    6012:	da02      	bge.n	601a <__l_divmod+0x42>
    6014:	4252      	negs	r2, r2
    6016:	eb63 0343 	sbc.w	r3, r3, r3, lsl #1
    601a:	4616      	mov	r6, r2
    601c:	461f      	mov	r7, r3
    601e:	f04f 0801 	mov.w	r8, #1
    6022:	f04f 0900 	mov.w	r9, #0
division_lqr():
/mnt/disk/raspbian-tee/optee_os/lib/libutils/isoc/arch/arm/arm32_aeabi_ldivmod.c:27
    6026:	2e00      	cmp	r6, #0
    6028:	f177 0300 	sbcs.w	r3, r7, #0
    602c:	da1f      	bge.n	606e <__l_divmod+0x96>
__l_divmod():
/mnt/disk/raspbian-tee/optee_os/lib/libutils/isoc/arch/arm/arm32_aeabi_ldivmod.c:100
    602e:	2200      	movs	r2, #0
    6030:	2300      	movs	r3, #0
division_lqr():
/mnt/disk/raspbian-tee/optee_os/lib/libutils/isoc/arch/arm/arm32_aeabi_ldivmod.c:32
    6032:	ea58 0e09 	orrs.w	lr, r8, r9
    6036:	d121      	bne.n	607c <__l_divmod+0xa4>
ul_div_qr():
/mnt/disk/raspbian-tee/optee_os/lib/libutils/isoc/arch/arm/arm32_aeabi_ldivmod.c:52
    6038:	f1bc 0f00 	cmp.w	ip, #0
    603c:	d002      	beq.n	6044 <__l_divmod+0x6c>
/mnt/disk/raspbian-tee/optee_os/lib/libutils/isoc/arch/arm/arm32_aeabi_ldivmod.c:53
    603e:	4252      	negs	r2, r2
    6040:	eb63 0343 	sbc.w	r3, r3, r3, lsl #1
/mnt/disk/raspbian-tee/optee_os/lib/libutils/isoc/arch/arm/arm32_aeabi_ldivmod.c:54
    6044:	b111      	cbz	r1, 604c <__l_divmod+0x74>
/mnt/disk/raspbian-tee/optee_os/lib/libutils/isoc/arch/arm/arm32_aeabi_ldivmod.c:55
    6046:	4264      	negs	r4, r4
    6048:	eb65 0545 	sbc.w	r5, r5, r5, lsl #1
__l_divmod():
/mnt/disk/raspbian-tee/optee_os/lib/libutils/isoc/arch/arm/arm32_aeabi_ldivmod.c:102
    604c:	e9c0 2300 	strd	r2, r3, [r0]
/mnt/disk/raspbian-tee/optee_os/lib/libutils/isoc/arch/arm/arm32_aeabi_ldivmod.c:103
    6050:	e9c0 4502 	strd	r4, r5, [r0, #8]
/mnt/disk/raspbian-tee/optee_os/lib/libutils/isoc/arch/arm/arm32_aeabi_ldivmod.c:104
    6054:	e8bd 83f0 	ldmia.w	sp!, {r4, r5, r6, r7, r8, r9, pc}
/mnt/disk/raspbian-tee/optee_os/lib/libutils/isoc/arch/arm/arm32_aeabi_ldivmod.c:90 (discriminator 3)
    6058:	ea54 0105 	orrs.w	r1, r4, r5
    605c:	d02c      	beq.n	60b8 <__l_divmod+0xe0>
/mnt/disk/raspbian-tee/optee_os/lib/libutils/isoc/arch/arm/arm32_aeabi_ldivmod.c:91
    605e:	2a00      	cmp	r2, #0
    6060:	f173 0100 	sbcs.w	r1, r3, #0
    6064:	da28      	bge.n	60b8 <__l_divmod+0xe0>
/mnt/disk/raspbian-tee/optee_os/lib/libutils/isoc/arch/arm/arm32_aeabi_ldivmod.c:88
    6066:	2100      	movs	r1, #0
/mnt/disk/raspbian-tee/optee_os/lib/libutils/isoc/arch/arm/arm32_aeabi_ldivmod.c:92
    6068:	f04f 0c01 	mov.w	ip, #1
    606c:	e7ce      	b.n	600c <__l_divmod+0x34>
division_lqr():
/mnt/disk/raspbian-tee/optee_os/lib/libutils/isoc/arch/arm/arm32_aeabi_ldivmod.c:28
    606e:	eb18 0808 	adds.w	r8, r8, r8
    6072:	eb49 0909 	adc.w	r9, r9, r9
/mnt/disk/raspbian-tee/optee_os/lib/libutils/isoc/arch/arm/arm32_aeabi_ldivmod.c:29
    6076:	19b6      	adds	r6, r6, r6
    6078:	417f      	adcs	r7, r7
    607a:	e7d4      	b.n	6026 <__l_divmod+0x4e>
/mnt/disk/raspbian-tee/optee_os/lib/libutils/isoc/arch/arm/arm32_aeabi_ldivmod.c:33
    607c:	1892      	adds	r2, r2, r2
    607e:	415b      	adcs	r3, r3
/mnt/disk/raspbian-tee/optee_os/lib/libutils/isoc/arch/arm/arm32_aeabi_ldivmod.c:34
    6080:	42bd      	cmp	r5, r7
    6082:	bf08      	it	eq
    6084:	42b4      	cmpeq	r4, r6
    6086:	d305      	bcc.n	6094 <__l_divmod+0xbc>
/mnt/disk/raspbian-tee/optee_os/lib/libutils/isoc/arch/arm/arm32_aeabi_ldivmod.c:35
    6088:	1ba4      	subs	r4, r4, r6
    608a:	eb65 0507 	sbc.w	r5, r5, r7
/mnt/disk/raspbian-tee/optee_os/lib/libutils/isoc/arch/arm/arm32_aeabi_ldivmod.c:36
    608e:	3201      	adds	r2, #1
    6090:	f143 0300 	adc.w	r3, r3, #0
/mnt/disk/raspbian-tee/optee_os/lib/libutils/isoc/arch/arm/arm32_aeabi_ldivmod.c:38
    6094:	087f      	lsrs	r7, r7, #1
    6096:	ea4f 0636 	mov.w	r6, r6, rrx
/mnt/disk/raspbian-tee/optee_os/lib/libutils/isoc/arch/arm/arm32_aeabi_ldivmod.c:39
    609a:	ea5f 0959 	movs.w	r9, r9, lsr #1
    609e:	ea4f 0838 	mov.w	r8, r8, rrx
    60a2:	e7c6      	b.n	6032 <__l_divmod+0x5a>
/mnt/disk/raspbian-tee/optee_os/lib/libutils/isoc/arch/arm/arm32_aeabi_ldivmod.c:23
    60a4:	f04f 34ff 	mov.w	r4, #4294967295	; 0xffffffff
    60a8:	f04f 35ff 	mov.w	r5, #4294967295	; 0xffffffff
    60ac:	e7c4      	b.n	6038 <__l_divmod+0x60>
    60ae:	f04f 34ff 	mov.w	r4, #4294967295	; 0xffffffff
    60b2:	f04f 35ff 	mov.w	r5, #4294967295	; 0xffffffff
    60b6:	e7c9      	b.n	604c <__l_divmod+0x74>
/mnt/disk/raspbian-tee/optee_os/lib/libutils/isoc/arch/arm/arm32_aeabi_ldivmod.c:22
    60b8:	ea52 0103 	orrs.w	r1, r2, r3
    60bc:	d0f7      	beq.n	60ae <__l_divmod+0xd6>
    60be:	2100      	movs	r1, #0
    60c0:	468c      	mov	ip, r1
    60c2:	e7a3      	b.n	600c <__l_divmod+0x34>

000060c4 <TEE_Panic>:
TEE_Panic():
/mnt/disk/raspbian-tee/optee_os/lib/libutee/tee_api_panic.c:12
    60c4:	f000 b83c 	b.w	6140 <__utee_panic_from_thumb>

000060c8 <memcmp>:
memcmp():
/mnt/disk/raspbian-tee/optee_os/lib/libutils/isoc/newlib/memcmp.c:85
    60c8:	3901      	subs	r1, #1
    60ca:	4402      	add	r2, r0
    60cc:	b510      	push	{r4, lr}
/mnt/disk/raspbian-tee/optee_os/lib/libutils/isoc/newlib/memcmp.c:90
    60ce:	4290      	cmp	r0, r2
    60d0:	d101      	bne.n	60d6 <memcmp+0xe>
/mnt/disk/raspbian-tee/optee_os/lib/libutils/isoc/newlib/memcmp.c:96
    60d2:	2000      	movs	r0, #0
/mnt/disk/raspbian-tee/optee_os/lib/libutils/isoc/newlib/memcmp.c:136
    60d4:	bd10      	pop	{r4, pc}
/mnt/disk/raspbian-tee/optee_os/lib/libutils/isoc/newlib/memcmp.c:91
    60d6:	f810 3b01 	ldrb.w	r3, [r0], #1
    60da:	f811 4f01 	ldrb.w	r4, [r1, #1]!
    60de:	42a3      	cmp	r3, r4
    60e0:	d0f5      	beq.n	60ce <memcmp+0x6>
/mnt/disk/raspbian-tee/optee_os/lib/libutils/isoc/newlib/memcmp.c:92
    60e2:	1b18      	subs	r0, r3, r4
    60e4:	bd10      	pop	{r4, pc}

000060e6 <memcpy>:
memcpy():
/mnt/disk/raspbian-tee/optee_os/lib/libutils/isoc/newlib/memcpy.c:87
    60e6:	1e43      	subs	r3, r0, #1
    60e8:	440a      	add	r2, r1
    60ea:	b510      	push	{r4, lr}
/mnt/disk/raspbian-tee/optee_os/lib/libutils/isoc/newlib/memcpy.c:94
    60ec:	4291      	cmp	r1, r2
    60ee:	d100      	bne.n	60f2 <memcpy+0xc>
/mnt/disk/raspbian-tee/optee_os/lib/libutils/isoc/newlib/memcpy.c:135
    60f0:	bd10      	pop	{r4, pc}
/mnt/disk/raspbian-tee/optee_os/lib/libutils/isoc/newlib/memcpy.c:95
    60f2:	f811 4b01 	ldrb.w	r4, [r1], #1
    60f6:	f803 4f01 	strb.w	r4, [r3, #1]!
    60fa:	e7f7      	b.n	60ec <memcpy+0x6>

000060fc <memmove>:
memmove():
/mnt/disk/raspbian-tee/optee_os/lib/libutils/isoc/newlib/memmove.c:91
    60fc:	b510      	push	{r4, lr}
/mnt/disk/raspbian-tee/optee_os/lib/libutils/isoc/newlib/memmove.c:96
    60fe:	4288      	cmp	r0, r1
    6100:	eb01 0302 	add.w	r3, r1, r2
    6104:	d803      	bhi.n	610e <memmove+0x12>
    6106:	1e42      	subs	r2, r0, #1
/mnt/disk/raspbian-tee/optee_os/lib/libutils/isoc/newlib/memmove.c:103
    6108:	4299      	cmp	r1, r3
    610a:	d10c      	bne.n	6126 <memmove+0x2a>
/mnt/disk/raspbian-tee/optee_os/lib/libutils/isoc/newlib/memmove.c:157
    610c:	bd10      	pop	{r4, pc}
/mnt/disk/raspbian-tee/optee_os/lib/libutils/isoc/newlib/memmove.c:96 (discriminator 1)
    610e:	4298      	cmp	r0, r3
    6110:	d2f9      	bcs.n	6106 <memmove+0xa>
/mnt/disk/raspbian-tee/optee_os/lib/libutils/isoc/newlib/memmove.c:99
    6112:	1881      	adds	r1, r0, r2
    6114:	1ad2      	subs	r2, r2, r3
/mnt/disk/raspbian-tee/optee_os/lib/libutils/isoc/newlib/memmove.c:100
    6116:	42d3      	cmn	r3, r2
    6118:	d100      	bne.n	611c <memmove+0x20>
    611a:	bd10      	pop	{r4, pc}
/mnt/disk/raspbian-tee/optee_os/lib/libutils/isoc/newlib/memmove.c:101
    611c:	f813 4d01 	ldrb.w	r4, [r3, #-1]!
    6120:	f801 4d01 	strb.w	r4, [r1, #-1]!
    6124:	e7f7      	b.n	6116 <memmove+0x1a>
/mnt/disk/raspbian-tee/optee_os/lib/libutils/isoc/newlib/memmove.c:104
    6126:	f811 4b01 	ldrb.w	r4, [r1], #1
    612a:	f802 4f01 	strb.w	r4, [r2, #1]!
    612e:	e7eb      	b.n	6108 <memmove+0xc>

00006130 <__utee_check_access_rights_from_thumb>:
__utee_check_access_rights_from_thumb():
    6130:	4778      	bx	pc
    6132:	e7fd      	b.n	6130 <__utee_check_access_rights_from_thumb>
    6134:	e59fc000 	ldr	ip, [pc]	; 613c <__utee_check_access_rights_from_thumb+0xc>
    6138:	e08cf00f 	add	pc, ip, pc
    613c:	ffffb180 	.word	0xffffb180

00006140 <__utee_panic_from_thumb>:
__utee_panic_from_thumb():
    6140:	4778      	bx	pc
    6142:	e7fd      	b.n	6140 <__utee_panic_from_thumb>
    6144:	e59fc000 	ldr	ip, [pc]	; 614c <__utee_panic_from_thumb+0xc>
    6148:	e08cf00f 	add	pc, ip, pc
    614c:	ffffb09c 	.word	0xffffb09c

00006150 <__utee_cache_operation_from_thumb>:
__utee_cache_operation_from_thumb():
    6150:	4778      	bx	pc
    6152:	e7fd      	b.n	6150 <__utee_cache_operation_from_thumb>
    6154:	e59fc000 	ldr	ip, [pc]	; 615c <__utee_cache_operation_from_thumb+0xc>
    6158:	e08cf00f 	add	pc, ip, pc
    615c:	ffffb528 	.word	0xffffb528

00006160 <__utee_log_from_thumb>:
__utee_log_from_thumb():
    6160:	4778      	bx	pc
    6162:	e7fd      	b.n	6160 <__utee_log_from_thumb>
    6164:	e59fc000 	ldr	ip, [pc]	; 616c <__utee_log_from_thumb+0xc>
    6168:	e08cf00f 	add	pc, ip, pc
    616c:	ffffb0a4 	.word	0xffffb0a4
