
b9aa5f00-d229-11e4-925c0002a5d5c51b.elf:     file format elf32-littlearm
b9aa5f00-d229-11e4-925c0002a5d5c51b.elf
architecture: armv8-a, flags 0x00000150:
HAS_SYMS, DYNAMIC, D_PAGED
start address 0x00000020

Program Header:
0x70000001 off    0x00017464 vaddr 0x00007464 paddr 0x00007464 align 2**2
         filesz 0x00000500 memsz 0x00000500 flags r--
    LOAD off    0x00010000 vaddr 0x00000000 paddr 0x00000000 align 2**16
         filesz 0x00006170 memsz 0x00006170 flags r-x
    LOAD off    0x00016170 vaddr 0x00006170 paddr 0x00006170 align 2**16
         filesz 0x00001a34 memsz 0x00001a34 flags r--
    LOAD off    0x00018000 vaddr 0x00008000 paddr 0x00008000 align 2**16
         filesz 0x0000017c memsz 0x0000a520 flags rw-
 DYNAMIC off    0x00017ad0 vaddr 0x00007ad0 paddr 0x00007ad0 align 2**2
         filesz 0x00000088 memsz 0x00000088 flags rw-

Dynamic Section:
  HASH                 0x00007b8c
  GNU_HASH             0x0000741c
  STRTAB               0x00007b88
  SYMTAB               0x00007b58
  STRSZ                0x00000001
  SYMENT               0x00000010
  DEBUG                0x00000000
  REL                  0x00007998
  RELSZ                0x00000138
  RELENT               0x00000008
  FLAGS_1              0x08000000
  RELCOUNT             0x0000001d
private flags = 0x5000400: [Version5 EABI] [hard-float ABI]

Sections:
Idx Name          Size      VMA       LMA       File off  Algn
  0 .ta_head      00000020  00000000  00000000  00010000  2**3
                  CONTENTS, ALLOC, LOAD, DATA
  1 .text         00006150  00000020  00000020  00010020  2**3
                  CONTENTS, ALLOC, LOAD, READONLY, CODE
  2 .rodata       000011d4  00006170  00006170  00016170  2**2
                  CONTENTS, ALLOC, LOAD, READONLY, DATA
  3 .ARM.extab    000000d8  00007344  00007344  00017344  2**2
                  CONTENTS, ALLOC, LOAD, READONLY, DATA
  4 .gnu.hash     00000018  0000741c  0000741c  0001741c  2**2
                  CONTENTS, ALLOC, LOAD, READONLY, DATA
  5 .ARM.extab.text.__aeabi_ldivmod 0000000c  00007434  00007434  00017434  2**2
                  CONTENTS, ALLOC, LOAD, READONLY, DATA
  6 .ARM.extab.text.__aeabi_uldivmod 0000000c  00007440  00007440  00017440  2**2
                  CONTENTS, ALLOC, LOAD, READONLY, DATA
  7 .ARM.extab.text.utee_panic 0000000c  0000744c  0000744c  0001744c  2**2
                  CONTENTS, ALLOC, LOAD, READONLY, DATA
  8 .ARM.extab.text.unlikely 0000000c  00007458  00007458  00017458  2**2
                  CONTENTS, ALLOC, LOAD, READONLY, DATA
  9 .ARM.exidx    00000500  00007464  00007464  00017464  2**2
                  CONTENTS, ALLOC, LOAD, READONLY, DATA
 10 .got          00000034  00007964  00007964  00017964  2**2
                  CONTENTS, ALLOC, LOAD, DATA
 11 .dynsym       00000030  00007b58  00007b58  00017b58  2**2
                  CONTENTS, ALLOC, LOAD, READONLY, DATA
 12 .rel.got      00000050  00007a80  00007a80  00017a80  2**2
                  CONTENTS, ALLOC, LOAD, READONLY, DATA
 13 .dynamic      00000088  00007ad0  00007ad0  00017ad0  2**2
                  CONTENTS, ALLOC, LOAD, DATA
 14 .dynstr       00000001  00007b88  00007b88  00017b88  2**0
                  CONTENTS, ALLOC, LOAD, READONLY, DATA
 15 .hash         00000018  00007b8c  00007b8c  00017b8c  2**2
                  CONTENTS, ALLOC, LOAD, READONLY, DATA
 16 .data         0000017c  00008000  00008000  00018000  2**2
                  CONTENTS, ALLOC, LOAD, DATA
 17 .bss          0000a3a0  00008180  00008180  0001817c  2**3
                  ALLOC
 18 .debug_info   0000e17b  00000000  00000000  0001817c  2**0
                  CONTENTS, READONLY, DEBUGGING, OCTETS
 19 .debug_abbrev 00002997  00000000  00000000  000262f7  2**0
                  CONTENTS, READONLY, DEBUGGING, OCTETS
 20 .debug_loclists 00000722  00000000  00000000  00028c8e  2**0
                  CONTENTS, READONLY, DEBUGGING, OCTETS
 21 .debug_aranges 00000530  00000000  00000000  000293b0  2**3
                  CONTENTS, READONLY, DEBUGGING, OCTETS
 22 .debug_rnglists 0000004a  00000000  00000000  000298e0  2**0
                  CONTENTS, READONLY, DEBUGGING, OCTETS
 23 .debug_macro  000116ae  00000000  00000000  0002992a  2**0
                  CONTENTS, READONLY, DEBUGGING, OCTETS
 24 .debug_line   00005146  00000000  00000000  0003afd8  2**0
                  CONTENTS, READONLY, DEBUGGING, OCTETS
 25 .debug_str    00011805  00000000  00000000  0004011e  2**0
                  CONTENTS, READONLY, DEBUGGING, OCTETS
 26 .comment      0000004f  00000000  00000000  00051923  2**0
                  CONTENTS, READONLY
 27 .ARM.attributes 00000031  00000000  00000000  00051972  2**0
                  CONTENTS, READONLY
 28 .debug_frame  00001848  00000000  00000000  000519a4  2**2
                  CONTENTS, READONLY, DEBUGGING, OCTETS
 29 .rel.dyn      000000e8  00007998  00007998  00017998  2**2
                  CONTENTS, ALLOC, LOAD, READONLY, DATA
 30 .debug_loc    0000cd72  00000000  00000000  000531ec  2**0
                  CONTENTS, READONLY, DEBUGGING, OCTETS
 31 .debug_ranges 00000758  00000000  00000000  0005ff60  2**3
                  CONTENTS, READONLY, DEBUGGING, OCTETS
SYMBOL TABLE:
00000000 l    d  .ta_head	00000000 .ta_head
00000020 l    d  .text	00000000 .text
00006170 l    d  .rodata	00000000 .rodata
00007344 l    d  .ARM.extab	00000000 .ARM.extab
0000741c l    d  .gnu.hash	00000000 .gnu.hash
00007434 l    d  .ARM.extab.text.__aeabi_ldivmod	00000000 .ARM.extab.text.__aeabi_ldivmod
00007440 l    d  .ARM.extab.text.__aeabi_uldivmod	00000000 .ARM.extab.text.__aeabi_uldivmod
0000744c l    d  .ARM.extab.text.utee_panic	00000000 .ARM.extab.text.utee_panic
00007458 l    d  .ARM.extab.text.unlikely	00000000 .ARM.extab.text.unlikely
00007464 l    d  .ARM.exidx	00000000 .ARM.exidx
00007964 l    d  .got	00000000 .got
00007a80 l    d  .rel.got	00000000 .rel.got
00007ad0 l    d  .dynamic	00000000 .dynamic
00007b58 l    d  .dynsym	00000000 .dynsym
00007b88 l    d  .dynstr	00000000 .dynstr
00007b8c l    d  .hash	00000000 .hash
00008000 l    d  .data	00000000 .data
00008180 l    d  .bss	00000000 .bss
00000000 l    d  .debug_info	00000000 .debug_info
00000000 l    d  .debug_abbrev	00000000 .debug_abbrev
00000000 l    d  .debug_loclists	00000000 .debug_loclists
00000000 l    d  .debug_aranges	00000000 .debug_aranges
00000000 l    d  .debug_rnglists	00000000 .debug_rnglists
00000000 l    d  .debug_macro	00000000 .debug_macro
00000000 l    d  .debug_line	00000000 .debug_line
00000000 l    d  .debug_str	00000000 .debug_str
00000000 l    d  .comment	00000000 .comment
00000000 l    d  .ARM.attributes	00000000 .ARM.attributes
00000000 l    d  .debug_frame	00000000 .debug_frame
00007998 l    d  .rel.dyn	00000000 .rel.dyn
00000000 l    d  .debug_loc	00000000 .debug_loc
00000000 l    d  .debug_ranges	00000000 .debug_ranges
00000000 l    df *ABS*	00000000 user_ta_header.c
00006174 l     O .rodata	00000004 __compound_literal.5
00006178 l     O .rodata	00000004 __compound_literal.4
0000617c l     O .rodata	00000004 __compound_literal.3
00006180 l     O .rodata	00000001 __compound_literal.2
00006181 l     O .rodata	00000001 __compound_literal.1
00006182 l     O .rodata	00000001 __compound_literal.0
00000000 l    df *ABS*	00000000 sdp_ta.c
000064a6 l     O .rodata	0000001a __func__.1
000064c0 l     O .rodata	0000000e __func__.0
00000000 l    df *ABS*	00000000 stub.c
00000168 l     F .text	00000010 delta_inc_refcount
00000178 l     F .text	00000010 delta_dec_refcount
00000188 l     F .text	00000010 bdisp_inc_refcount
00000198 l     F .text	00000010 bdisp_dec_refcount
000001a8 l     F .text	00000010 sti_inc_refcount
000001b8 l     F .text	00000010 sti_dec_refcount
000065e0 l     O .rodata	0000001b __func__.0
00008180 l     O .bss	00000004 delta_refcount
00008184 l     O .bss	00000004 bdisp_refcount
00008188 l     O .bss	00000004 sti_refcount
00008190 l     O .bss	00000320 regions
00000000 l    df *ABS*	00000000 snprintk.c
000066dd l     O .rodata	00000011 HEXDIGITS
000066ee l     O .rodata	00000011 hexdigits
00000000 l    df *ABS*	00000000 trace.c
00000c50 l     F .text	0000004e append
00006737 l     O .rodata	00000005 lvl_strs.5561
0000673c l     O .rodata	0000000a __func__.5615
00000000 l    df *ABS*	00000000 arm32_aeabi_ldivmod_a32.o
00000000 l    df *ABS*	00000000 trace_ext.c
00000000 l    df *ABS*	00000000 user_ta_entry.c
00000fd8 l     F .text	0000001c ta_header_get_session
00000ff4 l     F .text	00000068 ta_header_remove_session
000084b0 l     O .bss	00000001 init_done
00008158 l     O .data	00000008 ta_sessions
00000000 l    df *ABS*	00000000 utee_syscalls_a32.o
00000000 l    df *ABS*	00000000 gprof_a32.o
00000000 l    df *ABS*	00000000 tee_api.c
00006780 l     O .rodata	0000000b __func__.6728
000084d8 l     O .bss	00000004 tee_api_instance_data
00000000 l    df *ABS*	00000000 tee_api_arith_mpi.c
000029a0 l     F .text	00000020 api_panic
0000198c l     F .text	00000020 mpi_panic
000019ac l     F .text	00000044 get_const_mpi
000019f0 l     F .text	00000010 mpi_is_odd
00001a00 l     F .text	00000016 rng_read
00001a16 l     F .text	0000001c put_mpi
00001a32 l     F .text	0000045a mpi_egcd
00001e8c l     F .text	00000024 get_mpi
00001eb0 l     F .text	00000088 bigint_binary
000084dc l     O .bss	00002000 data.6728
0000213e l     F .text	000000ea bigint_binary_mod
0000679c l     O .rodata	0000000e __func__.6757
000067aa l     O .rodata	00000009 __func__.6996
000067b3 l     O .rodata	0000000e __func__.6856
000067c1 l     O .rodata	00000012 __func__.6729
000067d3 l     O .rodata	0000000f __func__.6767
000067e2 l     O .rodata	0000001f __func__.6785
00006801 l     O .rodata	00000019 __func__.6792
0000681a l     O .rodata	00000012 __func__.6867
0000682c l     O .rodata	00000015 __func__.6822
00006841 l     O .rodata	0000000e __func__.6894
0000684f l     O .rodata	0000000e __func__.6922
0000685d l     O .rodata	0000000e __func__.6928
0000686b l     O .rodata	00000011 __func__.6957
0000687c l     O .rodata	00000018 __func__.6973
00006894 l     O .rodata	0000001d __func__.7053
000068b1 l     O .rodata	00000019 __func__.7103
000068ca l     O .rodata	00000015 __func__.7117
00000000 l    df *ABS*	00000000 bignum.c
000029c0 l     F .text	00000038 mpi_get_digit
000029f8 l     F .text	0000005e mpi_sub_hlp
00002a56 l     F .text	00000492 mpi_mul_hlp
00002ee8 l     F .text	00000048 mbedtls_mpi_mod_int.part.1
00003f8a l     F .text	0000006c mpi_write_hlp
00004130 l     F .text	00000050 mpi_check_small_factors
0000481c l     F .text	00000216 mpi_miller_rabin
0000618c l     O .rodata	000002a0 small_prime
0000642c l     O .rodata	00000024 gcd_pairs
00000000 l    df *ABS*	00000000 bget_malloc.c
000051c0 l     F .text	00000030 raw_malloc_return_hook.isra.3
000051f0 l     F .text	000000d8 create_free_block.constprop.11
000053fc l     F .text	00000038 raw_malloc.constprop.15
00006df3 l     O .rodata	00000012 __func__.5854
00006e05 l     O .rodata	00000005 __func__.5710
00006e0a l     O .rodata	00000006 __func__.5725
00006e10 l     O .rodata	00000005 __func__.5742
00006e15 l     O .rodata	00000006 __func__.5734
00006e1b l     O .rodata	00000006 __func__.5751
00006e21 l     O .rodata	00000007 __func__.5761
00006e28 l     O .rodata	0000000d __func__.5890
00006e35 l     O .rodata	0000000c __func__.5864
00006e41 l     O .rodata	0000000b __func__.5875
00006e4c l     O .rodata	00000010 __func__.5942
00006e5c l     O .rodata	0000000e __func__.5896
00006e6a l     O .rodata	00000013 __func__.5802
0000a4e0 l     O .bss	00000038 mstats
0000a518 l     O .bss	00000004 malloc_pool_len
0000a51c l     O .bss	00000004 malloc_pool
00008160 l     O .data	0000001c malloc_poolset
00000000 l    df *ABS*	00000000 mempool.c
00007285 l     O .rodata	00000013 __func__.5618
00007298 l     O .rodata	0000000e __func__.5627
00000000 l    df *ABS*	00000000 assert.c
00000000 l    df *ABS*	00000000 snprintf.c
00000000 l    df *ABS*	00000000 memset.c
00000000 l    df *ABS*	00000000 strcmp.c
00000000 l    df *ABS*	00000000 aeabi_unwind.c
00000000 l    df *ABS*	00000000 memchr.c
00000000 l    df *ABS*	00000000 strlen.c
00000000 l    df *ABS*	00000000 arm32_aeabi_ldivmod.c
00000000 l    df *ABS*	00000000 tee_api_panic.c
00000000 l    df *ABS*	00000000 memcmp.c
00000000 l    df *ABS*	00000000 memcpy.c
00000000 l    df *ABS*	00000000 memmove.c
00000000 l    df *ABS*	00000000 
00007ad0 l     O *ABS*	00000000 _DYNAMIC
00007964 l     O *ABS*	00000000 _GLOBAL_OFFSET_TABLE_
00006130 l     F .text	00000010 __utee_check_access_rights_from_thumb
00006140 l     F .text	00000010 __utee_panic_from_thumb
00006150 l     F .text	00000010 __utee_cache_operation_from_thumb
00006160 l     F .text	00000010 __utee_log_from_thumb
00000fb4 g     F .text	00000022 putchar
000001c8 g     F .text	00000028 platform_init
000028b2 g     F .text	00000004 TEE_BigIntConvertToFMM
000025f4 g     F .text	00000008 TEE_BigIntSquareMod
00002228 g     F .text	000000f4 TEE_BigIntShiftRight
00001580 g     F .text	00000018 utee_storage_obj_create
00002fc8 g     F .text	000000a8 mbedtls_mpi_grow
00005fd8 g     F .text	000000ec __l_divmod
00001200 g     F .text	00000014 utee_return
00001970 g     F .text	00000004 TEE_Realloc
00000f56 g     F .text	0000003a printf
00001214 g     F .text	00000014 utee_log
0000178e g     F .text	00000066 TEE_InvokeTACommand
00002f42 g     F .text	00000026 mbedtls_mpi_init_mempool
0000343c g     F .text	00000046 mbedtls_mpi_write_binary
00000c28 g     F .text	0000000e vsnprintk
000038c6 g     F .text	00000030 mbedtls_mpi_sub_int
000060fc g     F .text	00000034 memmove
00005edc g     F .text	0000001e snprintf
00002118 g     F .text	00000026 TEE_BigIntCmpS32
00003070 g     F .text	000000cc mbedtls_mpi_shrink
00005f32 g     F .text	00000002 __aeabi_unwind_cpp_pr0
00002368 g     F .text	0000001c TEE_BigIntAdd
00001254 g     F .text	00000014 utee_get_property_name_to_index
00006184 g     O .rodata	00000004 ta_heap_size
00001338 g     F .text	00000018 utee_cryp_state_alloc
00001508 g     F .text	00000018 utee_authenc_enc_final
000039f0 g     F .text	0000012c mbedtls_mpi_read_string
000023a0 g     F .text	00000058 TEE_BigIntNeg
00000020 g       .text	00000000 __text_start
0000351a g     F .text	00000078 mbedtls_mpi_shift_r
00005d50 g     F .text	0000004c malloc_buffer_overlaps_heap
000025bc g     F .text	0000001c TEE_BigIntSubMod
00004d5e g     F .text	00000136 mbedtls_mpi_gen_prime
000032ea g     F .text	00000020 mbedtls_mpi_get_bit
000033d6 g     F .text	00000066 mbedtls_mpi_read_binary
00000cd0 g     F .text	0000013c trace_printf
000041a8 g     F .text	000000c4 mbedtls_mpi_montmul
000060e6 g     F .text	00000016 memcpy
00001364 g     F .text	00000014 utee_cryp_state_free
000028b6 g     F .text	0000004a TEE_BigIntConvertFromFMM
000060c4 g     F .text	00000004 TEE_Panic
00000f24 g     F .text	00000018 __aeabi_uldivmod
00000f90 g     F .text	00000024 puts
00002900 g     F .text	000000a0 TEE_BigIntComputeFMM
00005818 g     F .text	00000020 malloc_get_stats
000013e4 g     F .text	00000018 utee_cipher_final
00001910 g     F .text	00000016 TEE_GetREETime
000080e8 g     O .data	0000006c ta_props
00005838 g     F .text	00000002 malloc
0000144c g     F .text	00000014 utee_cryp_obj_close
000004a4 g     F .text	00000050 platform_dump_device
00005efa g     F .text	0000000e vsnprintf
000080e4 g     O .data	00000004 trace_level
00000298 g     F .text	0000007c platform_check_permissions
000020e4 g     F .text	00000034 TEE_BigIntCmp
00006170 g     O .rodata	00000004 ta_num_props
00005688 g     F .text	0000007c bgetr
00008000 g     O .data	000000e4 stm_devices
000014f0 g     F .text	00000018 utee_authenc_update_payload
00005e70 g     F .text	0000002e mempool_free
00001ffc g     F .text	00000058 TEE_BigIntConvertToOctetString
00001688 g     F .text	00000014 utee_cache_operation
00003388 g     F .text	00000042 mbedtls_mpi_bitlen
000014c4 g     F .text	00000018 utee_authenc_init
0000231c g     F .text	0000002a TEE_BigIntGetBit
00006188 g     O .rodata	00000003 trace_ext_prefix
00005434 g     F .text	0000005c bgetz
00001860 g     F .text	0000000c TEE_GetInstanceData
0000188e g     F .text	0000001e TEE_Wait
00001638 g     F .text	00000014 utee_storage_obj_write
000038f6 g     F .text	000000dc mbedtls_mpi_mul_mpi
00005f36 g     F .text	00000002 __aeabi_unwind_cpp_pr2
0000197e g     F .text	00000006 TEE_CacheFlush
0000002a g     F .text	00000002 TA_DestroyEntryPoint
00002f30 g     F .text	00000012 mbedtls_mpi_init
0000335a g     F .text	0000002e mbedtls_mpi_lsb
00005ea0 g     F .text	00000028 _assert_log
000028ae g     F .text	00000004 TEE_BigIntFMMContextSizeInU32
00001f38 g     F .text	00000044 _TEE_MathAPI_Init
00003802 g     F .text	00000048 mbedtls_mpi_add_mpi
00001610 g     F .text	00000014 utee_storage_next_enum
0000a520 g     O .bss	00008000 ta_heap
000025fc g     F .text	000000a4 TEE_BigIntInvMod
0000003c g     F .text	00000024 TA_CloseSessionEntryPoint
00000314 g     F .text	00000034 platform_add_device_to_region
00000270 g     F .text	00000028 platform_find_device_by_name
0000384a g     F .text	0000004c mbedtls_mpi_sub_mpi
00001228 g     F .text	00000014 __utee_panic
00001350 g     F .text	00000014 utee_cryp_state_copy
00000060 g     F .text	00000108 TA_InvokeCommandEntryPoint
00005de0 g     F .text	0000006c mempool_alloc
00001438 g     F .text	00000014 utee_cryp_obj_alloc
00001324 g     F .text	00000014 utee_set_ta_time
00001424 g     F .text	00000014 utee_cryp_obj_get_attr
00005e4c g     F .text	00000024 mempool_calloc
0000584c g     F .text	00000048 calloc
00001926 g     F .text	0000004a TEE_Malloc
000012e8 g     F .text	00000014 utee_mask_cancellation
00001460 g     F .text	00000014 utee_cryp_obj_reset
00001848 g     F .text	0000000a TEE_CheckMemoryAccessRights
00012520 g       .bss	00000000 __gprof_buf_end
00005f64 g     F .text	00000074 __ul_divmod
000032b2 g     F .text	00000038 mbedtls_mpi_lset
00000348 g     F .text	00000036 platform_remove_device_from_region
0000002c g     F .text	00000010 TA_OpenSessionEntryPoint
000015fc g     F .text	00000014 utee_storage_start_enum
000015ac g     F .text	00000014 utee_storage_obj_rename
000084b4 g     O .bss	00000004 ta_param_types
00003ebe g     F .text	0000002e mbedtls_mpi_div_int
00002870 g     F .text	00000030 TEE_BigIntIsProbablePrime
000039d2 g     F .text	0000001e mbedtls_mpi_mul_int
00004290 g     F .text	00000446 mbedtls_mpi_exp_mod
000031c0 g     F .text	0000006c mbedtls_mpi_safe_cond_assign
0000123c g     F .text	00000018 utee_get_property
00001f7c g     F .text	00000040 TEE_BigIntInit
0000186c g     F .text	00000004 TEE_MemMove
00001fbc g     F .text	00000040 TEE_BigIntConvertFromOctetString
00008154 g     O .data	00000004 _ref__utee_mcount
00003592 g     F .text	0000006e mbedtls_mpi_cmp_abs
00005f38 g     F .text	0000001c memchr
00001810 g     F .text	0000001c TEE_UnmaskCancellation
00004e94 g     F .text	0000032c mbedtls_mpi_self_test
00001598 g     F .text	00000014 utee_storage_obj_del
00001660 g     F .text	00000014 utee_storage_obj_seek
00003696 g     F .text	00000030 mbedtls_mpi_cmp_int
0000138c g     F .text	00000014 utee_hash_update
0000169c  w    F .text	0000000c __utee_mcount
00002550 g     F .text	00000050 TEE_BigIntMod
00003f50 g     F .text	0000003a mbedtls_mpi_mod_int
00001280 g     F .text	00000014 utee_close_ta_session
000024a2 g     F .text	000000ae TEE_BigIntDiv
0000313c g     F .text	00000056 mbedtls_mpi_copy
00005804 g     F .text	00000014 malloc_reset_stats
000013cc g     F .text	00000018 utee_cipher_update
00005894 g     F .text	00000038 realloc
00003192 g     F .text	0000002e mbedtls_mpi_swap
00005d9c g     F .text	00000044 mempool_alloc_pool
00001550 g     F .text	00000018 utee_asymm_verify
000023f8 g     F .text	000000a4 TEE_BigIntMul
00003482 g     F .text	00000098 mbedtls_mpi_shift_l
00003600 g     F .text	00000096 mbedtls_mpi_cmp_mpi
00001874 g     F .text	00000004 TEE_MemFill
000060c8 g     F .text	0000001e memcmp
00005b7c g     F .text	000000f8 malloc_add_pool
00000cbc g     F .text	00000014 trace_get_level
000036c6 g     F .text	000000bc mbedtls_mpi_add_abs
000014b0 g     F .text	00000014 utee_cryp_random_number_generate
000028a6 g     F .text	00000008 TEE_BigIntFMMSizeInU32
000028a0 g     F .text	00000004 TEE_BigIntInitFMM
00001538 g     F .text	00000018 utee_asymm_operate
0000105c g     F .text	00000190 __utee_entry
00006170 g       .text	00000000 __text_end
000026a0 g     F .text	0000007c TEE_BigIntRelativePrime
00003eec g     F .text	00000064 mbedtls_mpi_mod_mpi
00005704 g     F .text	0000009c bpool
000017f4 g     F .text	0000001c TEE_GetCancellationFlag
000046d6 g     F .text	00000114 mbedtls_mpi_gcd
000018e8 g     F .text	00000028 TEE_SetTAPersistentTime
00005f08 g     F .text	00000010 memset
00000254 g     F .text	0000001c platform_find_region_by_id
000018ac g     F .text	0000003c TEE_GetTAPersistentTime
00000e0c g     F .text	00000100 dhex_dump
0000182c g     F .text	0000001c TEE_MaskCancellation
00001624 g     F .text	00000014 utee_storage_obj_read
00001474 g     F .text	00000014 utee_cryp_obj_populate
00000c9e g     F .text	0000001e trace_set_level
000013fc g     F .text	00000014 utee_cryp_obj_get_info
000015c0 g     F .text	00000014 utee_storage_alloc_enum
000015e8 g     F .text	00000014 utee_storage_reset_enum
0000164c g     F .text	00000014 utee_storage_obj_trunc
00005f18 g     F .text	0000001a strcmp
0000208c g     F .text	00000058 TEE_BigIntConvertToS32
00002384 g     F .text	0000001c TEE_BigIntSub
000012ac g     F .text	00000014 utee_get_cancellation_flag
00001378 g     F .text	00000014 utee_hash_init
00005ed8 g     F .text	00000004 tahead_get_trace_level
000016a8 g     F .text	00000050 __utee_from_param
000016f8 g     F .text	0000003e __utee_to_param
0000426c g     F .text	00000024 mbedtls_mpi_montred
000058cc g     F .text	000002b0 memalign
00002054 g     F .text	00000038 TEE_BigIntConvertFromS32
00003896 g     F .text	00000030 mbedtls_mpi_add_int
00001410 g     F .text	00000014 utee_cryp_obj_restrict_usage
00005c74 g     F .text	000000dc malloc_buffer_is_within_alloced
00001488 g     F .text	00000014 utee_cryp_obj_copy
000028a4 g     F .text	00000002 TEE_BigIntInitFMMContext
0000149c g     F .text	00000014 utee_cryp_derive_key
00001520 g     F .text	00000018 utee_authenc_dec_final
0000249c g     F .text	00000006 TEE_BigIntSquare
00000020 g     F .text	0000000a TA_CreateEntryPoint
00004180 g     F .text	00000028 mbedtls_mpi_montg_init
00000c36 g     F .text	0000001a snprintk
00002346 g     F .text	00000022 TEE_BigIntGetBitCount
000025d8 g     F .text	0000001c TEE_BigIntMulMod
00004a32 g     F .text	000002d0 mbedtls_mpi_inv_mod
0000037e g     F .text	00000126 platform_dump_status
000084b8 g     O .bss	00000020 ta_params
00003b1c g     F .text	000003a2 mbedtls_mpi_div_mpi
000033ca g     F .text	0000000c mbedtls_mpi_size
000052c8 g     F .text	00000134 bget
0000330a g     F .text	00000050 mbedtls_mpi_set_bit
00002f68 g     F .text	00000012 mbedtls_mpi_init_static
00001974 g     F .text	00000004 TEE_Free
00004d02 g     F .text	0000005c mbedtls_mpi_is_prime
00001984 g     F .text	00000006 TEE_CacheInvalidate
000013b8 g     F .text	00000014 utee_cipher_init
00005ec8 g     F .text	00000010 _assert_break
000025a0 g     F .text	0000001c TEE_BigIntAddMod
000015d4 g     F .text	00000014 utee_storage_free_enum
000014dc g     F .text	00000014 utee_authenc_update_aad
0000022c g     F .text	00000028 platform_destroy_region
00001870 g     F .text	00000004 TEE_MemCompare
000004f4 g     F .text	00000734 __vsnprintf
00001736 g     F .text	00000044 TEE_OpenTASession
000011ec g     F .text	00000014 utee_panic
00000f3c g     F .text	00000014 trace_ext_puts
00000f50 g     F .text	00000006 trace_ext_get_thread_id
00002f7a g     F .text	0000004e mbedtls_mpi_free
00001978 g     F .text	00000006 TEE_CacheClean
00001268 g     F .text	00000018 utee_open_ta_session
0000322c g     F .text	00000086 mbedtls_mpi_safe_cond_swap
000013a0 g     F .text	00000018 utee_hash_final
000001f0 g     F .text	0000003c platform_create_region
00005f54 g     F .text	00000010 strlen
0000271c g     F .text	00000154 TEE_BigIntComputeExtendedGcd
00005f34 g     F .text	00000002 __aeabi_unwind_cpp_pr1
00001568 g     F .text	00000018 utee_storage_obj_open
00001294 g     F .text	00000018 utee_invoke_ta_command
000012fc g     F .text	00000014 utee_wait
00001878 g     F .text	00000016 TEE_GetSystemTime
00000000 g     O .ta_head	00000020 ta_head
00005490 g     F .text	000001f8 brel
00003782 g     F .text	00000080 mbedtls_mpi_sub_abs
00001310 g     F .text	00000014 utee_get_time
000047ea g     F .text	00000032 mbedtls_mpi_fill_random
00001852 g     F .text	0000000e TEE_SetInstanceData
000012d4 g     F .text	00000014 utee_unmask_cancellation
00000f0c g     F .text	00000018 __aeabi_ldivmod
000012c0 g     F .text	00000014 utee_check_access_rights
00003ff6 g     F .text	0000013a mbedtls_mpi_write_string
00001674 g     F .text	00000014 utee_cryp_obj_generate_key
0000177a g     F .text	00000014 TEE_CloseTASession
00012520 g       .bss	00000000 __gprof_buf_start
0000583a g     F .text	00000012 free
000057a0 g     F .text	00000064 bstats
0000a4dc g     O .bss	00000004 mbedtls_mpi_mempool



Disassembly of section .text:

00000020 <TA_CreateEntryPoint>:
TA_CreateEntryPoint():
/workspace/benchmark/optee-sdp/ta/sdp_ta.c:24
      20:	b508      	push	{r3, lr}
/workspace/benchmark/optee-sdp/ta/sdp_ta.c:25
      22:	f000 f8d1 	bl	1c8 <platform_init>
/workspace/benchmark/optee-sdp/ta/sdp_ta.c:27
      26:	2000      	movs	r0, #0
      28:	bd08      	pop	{r3, pc}

0000002a <TA_DestroyEntryPoint>:
TA_DestroyEntryPoint():
/workspace/benchmark/optee-sdp/ta/sdp_ta.c:35
      2a:	4770      	bx	lr

0000002c <TA_OpenSessionEntryPoint>:
TA_OpenSessionEntryPoint():
/workspace/benchmark/optee-sdp/ta/sdp_ta.c:59
      2c:	4b02      	ldr	r3, [pc, #8]	; (38 <TA_OpenSessionEntryPoint+0xc>)
/workspace/benchmark/optee-sdp/ta/sdp_ta.c:51
      2e:	2800      	cmp	r0, #0
/workspace/benchmark/optee-sdp/ta/sdp_ta.c:59
      30:	bf18      	it	ne
      32:	4618      	movne	r0, r3
      34:	4770      	bx	lr
      36:	bf00      	nop
      38:	ffff0006 	.word	0xffff0006

0000003c <TA_CloseSessionEntryPoint>:
TA_CloseSessionEntryPoint():
/workspace/benchmark/optee-sdp/ta/sdp_ta.c:66
      3c:	b507      	push	{r0, r1, r2, lr}
/workspace/benchmark/optee-sdp/ta/sdp_ta.c:68
      3e:	2202      	movs	r2, #2
      40:	4b05      	ldr	r3, [pc, #20]	; (58 <TA_CloseSessionEntryPoint+0x1c>)
      42:	4806      	ldr	r0, [pc, #24]	; (5c <TA_CloseSessionEntryPoint+0x20>)
      44:	2144      	movs	r1, #68	; 0x44
      46:	447b      	add	r3, pc
      48:	9300      	str	r3, [sp, #0]
      4a:	4478      	add	r0, pc
      4c:	2301      	movs	r3, #1
      4e:	f000 fe3f 	bl	cd0 <trace_printf>
/workspace/benchmark/optee-sdp/ta/sdp_ta.c:69
      52:	b003      	add	sp, #12
      54:	f85d fb04 	ldr.w	pc, [sp], #4
      58:	00006406 	.word	0x00006406
      5c:	00006458 	.word	0x00006458

00000060 <TA_InvokeCommandEntryPoint>:
TA_InvokeCommandEntryPoint():
/workspace/benchmark/optee-sdp/ta/sdp_ta.c:186
      60:	e92d 41f3 	stmdb	sp!, {r0, r1, r4, r5, r6, r7, r8, lr}
      64:	460c      	mov	r4, r1
      66:	461d      	mov	r5, r3
/workspace/benchmark/optee-sdp/ta/sdp_ta.c:190
      68:	2c03      	cmp	r4, #3
      6a:	d807      	bhi.n	7c <TA_InvokeCommandEntryPoint+0x1c>
      6c:	e8df f004 	tbb	[pc, r4]
      70:	631b1402 	.word	0x631b1402
create_region():
/workspace/benchmark/optee-sdp/ta/sdp_ta.c:80
      74:	f240 2311 	movw	r3, #529	; 0x211
      78:	429a      	cmp	r2, r3
      7a:	d001      	beq.n	80 <TA_InvokeCommandEntryPoint+0x20>
TA_InvokeCommandEntryPoint():
/workspace/benchmark/optee-sdp/ta/sdp_ta.c:190
      7c:	4c33      	ldr	r4, [pc, #204]	; (14c <TA_InvokeCommandEntryPoint+0xec>)
      7e:	e007      	b.n	90 <TA_InvokeCommandEntryPoint+0x30>
create_region():
/workspace/benchmark/optee-sdp/ta/sdp_ta.c:86
      80:	68aa      	ldr	r2, [r5, #8]
      82:	2100      	movs	r1, #0
      84:	6868      	ldr	r0, [r5, #4]
      86:	f000 f8b3 	bl	1f0 <platform_create_region>
/workspace/benchmark/optee-sdp/ta/sdp_ta.c:87
      8a:	2800      	cmp	r0, #0
      8c:	dbf6      	blt.n	7c <TA_InvokeCommandEntryPoint+0x1c>
/workspace/benchmark/optee-sdp/ta/sdp_ta.c:90
      8e:	6128      	str	r0, [r5, #16]
TA_InvokeCommandEntryPoint():
/workspace/benchmark/optee-sdp/ta/sdp_ta.c:202
      90:	4620      	mov	r0, r4
      92:	b002      	add	sp, #8
      94:	e8bd 81f0 	ldmia.w	sp!, {r4, r5, r6, r7, r8, pc}
destroy_region():
/workspace/benchmark/optee-sdp/ta/sdp_ta.c:103
      98:	2a01      	cmp	r2, #1
      9a:	d1ef      	bne.n	7c <TA_InvokeCommandEntryPoint+0x1c>
/workspace/benchmark/optee-sdp/ta/sdp_ta.c:108
      9c:	6828      	ldr	r0, [r5, #0]
      9e:	f000 f8c5 	bl	22c <platform_destroy_region>
dump_status():
/workspace/benchmark/optee-sdp/ta/sdp_ta.c:176
      a2:	2400      	movs	r4, #0
      a4:	e7f4      	b.n	90 <TA_InvokeCommandEntryPoint+0x30>
update_region():
/workspace/benchmark/optee-sdp/ta/sdp_ta.c:126
      a6:	f240 1351 	movw	r3, #337	; 0x151
      aa:	429a      	cmp	r2, r3
      ac:	d1e6      	bne.n	7c <TA_InvokeCommandEntryPoint+0x1c>
/workspace/benchmark/optee-sdp/ta/sdp_ta.c:133
      ae:	68ae      	ldr	r6, [r5, #8]
/workspace/benchmark/optee-sdp/ta/sdp_ta.c:130
      b0:	f8d5 8000 	ldr.w	r8, [r5]
/workspace/benchmark/optee-sdp/ta/sdp_ta.c:137
      b4:	4630      	mov	r0, r6
/workspace/benchmark/optee-sdp/ta/sdp_ta.c:131
      b6:	686c      	ldr	r4, [r5, #4]
/workspace/benchmark/optee-sdp/ta/sdp_ta.c:135
      b8:	692f      	ldr	r7, [r5, #16]
/workspace/benchmark/optee-sdp/ta/sdp_ta.c:137
      ba:	f000 f8d9 	bl	270 <platform_find_device_by_name>
/workspace/benchmark/optee-sdp/ta/sdp_ta.c:138
      be:	4605      	mov	r5, r0
      c0:	b960      	cbnz	r0, dc <TA_InvokeCommandEntryPoint+0x7c>
/workspace/benchmark/optee-sdp/ta/sdp_ta.c:139
      c2:	4b23      	ldr	r3, [pc, #140]	; (150 <TA_InvokeCommandEntryPoint+0xf0>)
      c4:	2202      	movs	r2, #2
      c6:	4823      	ldr	r0, [pc, #140]	; (154 <TA_InvokeCommandEntryPoint+0xf4>)
      c8:	218b      	movs	r1, #139	; 0x8b
      ca:	447b      	add	r3, pc
      cc:	9300      	str	r3, [sp, #0]
      ce:	4478      	add	r0, pc
      d0:	2301      	movs	r3, #1
      d2:	9601      	str	r6, [sp, #4]
/workspace/benchmark/optee-sdp/ta/sdp_ta.c:145
      d4:	301a      	adds	r0, #26
      d6:	f000 fdfb 	bl	cd0 <trace_printf>
/workspace/benchmark/optee-sdp/ta/sdp_ta.c:146
      da:	e7cf      	b.n	7c <TA_InvokeCommandEntryPoint+0x1c>
/workspace/benchmark/optee-sdp/ta/sdp_ta.c:143
      dc:	4640      	mov	r0, r8
      de:	f000 f8b9 	bl	254 <platform_find_region_by_id>
/workspace/benchmark/optee-sdp/ta/sdp_ta.c:144
      e2:	4606      	mov	r6, r0
      e4:	b950      	cbnz	r0, fc <TA_InvokeCommandEntryPoint+0x9c>
/workspace/benchmark/optee-sdp/ta/sdp_ta.c:145
      e6:	4b1c      	ldr	r3, [pc, #112]	; (158 <TA_InvokeCommandEntryPoint+0xf8>)
      e8:	2202      	movs	r2, #2
      ea:	481c      	ldr	r0, [pc, #112]	; (15c <TA_InvokeCommandEntryPoint+0xfc>)
      ec:	2191      	movs	r1, #145	; 0x91
      ee:	447b      	add	r3, pc
      f0:	f8cd 8004 	str.w	r8, [sp, #4]
      f4:	9300      	str	r3, [sp, #0]
      f6:	4478      	add	r0, pc
      f8:	2301      	movs	r3, #1
      fa:	e7eb      	b.n	d4 <TA_InvokeCommandEntryPoint+0x74>
/workspace/benchmark/optee-sdp/ta/sdp_ta.c:149
      fc:	b1bc      	cbz	r4, 12e <TA_InvokeCommandEntryPoint+0xce>
/workspace/benchmark/optee-sdp/ta/sdp_ta.c:150
      fe:	463a      	mov	r2, r7
     100:	4629      	mov	r1, r5
     102:	f000 f8c9 	bl	298 <platform_check_permissions>
     106:	4604      	mov	r4, r0
     108:	b158      	cbz	r0, 122 <TA_InvokeCommandEntryPoint+0xc2>
/workspace/benchmark/optee-sdp/ta/sdp_ta.c:151
     10a:	4815      	ldr	r0, [pc, #84]	; (160 <TA_InvokeCommandEntryPoint+0x100>)
     10c:	2202      	movs	r2, #2
     10e:	4b15      	ldr	r3, [pc, #84]	; (164 <TA_InvokeCommandEntryPoint+0x104>)
     110:	2197      	movs	r1, #151	; 0x97
     112:	4478      	add	r0, pc
     114:	447b      	add	r3, pc
     116:	301a      	adds	r0, #26
     118:	9300      	str	r3, [sp, #0]
     11a:	2301      	movs	r3, #1
     11c:	f000 fdd8 	bl	cd0 <trace_printf>
/workspace/benchmark/optee-sdp/ta/sdp_ta.c:152
     120:	e7ac      	b.n	7c <TA_InvokeCommandEntryPoint+0x1c>
/workspace/benchmark/optee-sdp/ta/sdp_ta.c:155
     122:	463a      	mov	r2, r7
     124:	4629      	mov	r1, r5
     126:	4630      	mov	r0, r6
     128:	f000 f8f4 	bl	314 <platform_add_device_to_region>
     12c:	e7b0      	b.n	90 <TA_InvokeCommandEntryPoint+0x30>
/workspace/benchmark/optee-sdp/ta/sdp_ta.c:157
     12e:	4629      	mov	r1, r5
     130:	f000 f90a 	bl	348 <platform_remove_device_from_region>
     134:	e7ac      	b.n	90 <TA_InvokeCommandEntryPoint+0x30>
dump_status():
/workspace/benchmark/optee-sdp/ta/sdp_ta.c:169
     136:	2a06      	cmp	r2, #6
     138:	d1a0      	bne.n	7c <TA_InvokeCommandEntryPoint+0x1c>
/workspace/benchmark/optee-sdp/ta/sdp_ta.c:173
     13a:	6869      	ldr	r1, [r5, #4]
     13c:	4628      	mov	r0, r5
     13e:	f000 f91e 	bl	37e <platform_dump_status>
/workspace/benchmark/optee-sdp/ta/sdp_ta.c:174
     142:	e9d5 0100 	ldrd	r0, r1, [r5]
     146:	f000 f9ad 	bl	4a4 <platform_dump_device>
     14a:	e7aa      	b.n	a2 <TA_InvokeCommandEntryPoint+0x42>
     14c:	ffff0006 	.word	0xffff0006
     150:	0000638f 	.word	0x0000638f
     154:	000063d4 	.word	0x000063d4
     158:	00006381 	.word	0x00006381
     15c:	000063ac 	.word	0x000063ac
     160:	00006390 	.word	0x00006390
     164:	00006374 	.word	0x00006374

00000168 <delta_inc_refcount>:
delta_inc_refcount():
/workspace/benchmark/optee-sdp/ta/platform/stub.c:27
     168:	4a02      	ldr	r2, [pc, #8]	; (174 <delta_inc_refcount+0xc>)
     16a:	447a      	add	r2, pc
     16c:	6813      	ldr	r3, [r2, #0]
     16e:	3301      	adds	r3, #1
     170:	6013      	str	r3, [r2, #0]
/workspace/benchmark/optee-sdp/ta/platform/stub.c:28
     172:	4770      	bx	lr
     174:	00008012 	.word	0x00008012

00000178 <delta_dec_refcount>:
delta_dec_refcount():
/workspace/benchmark/optee-sdp/ta/platform/stub.c:32
     178:	4a02      	ldr	r2, [pc, #8]	; (184 <delta_dec_refcount+0xc>)
     17a:	447a      	add	r2, pc
     17c:	6813      	ldr	r3, [r2, #0]
     17e:	3b01      	subs	r3, #1
     180:	6013      	str	r3, [r2, #0]
/workspace/benchmark/optee-sdp/ta/platform/stub.c:33
     182:	4770      	bx	lr
     184:	00008002 	.word	0x00008002

00000188 <bdisp_inc_refcount>:
bdisp_inc_refcount():
/workspace/benchmark/optee-sdp/ta/platform/stub.c:37
     188:	4a02      	ldr	r2, [pc, #8]	; (194 <bdisp_inc_refcount+0xc>)
     18a:	447a      	add	r2, pc
     18c:	6853      	ldr	r3, [r2, #4]
     18e:	3301      	adds	r3, #1
     190:	6053      	str	r3, [r2, #4]
/workspace/benchmark/optee-sdp/ta/platform/stub.c:38
     192:	4770      	bx	lr
     194:	00007ff2 	.word	0x00007ff2

00000198 <bdisp_dec_refcount>:
bdisp_dec_refcount():
/workspace/benchmark/optee-sdp/ta/platform/stub.c:42
     198:	4a02      	ldr	r2, [pc, #8]	; (1a4 <bdisp_dec_refcount+0xc>)
     19a:	447a      	add	r2, pc
     19c:	6853      	ldr	r3, [r2, #4]
     19e:	3b01      	subs	r3, #1
     1a0:	6053      	str	r3, [r2, #4]
/workspace/benchmark/optee-sdp/ta/platform/stub.c:43
     1a2:	4770      	bx	lr
     1a4:	00007fe2 	.word	0x00007fe2

000001a8 <sti_inc_refcount>:
sti_inc_refcount():
/workspace/benchmark/optee-sdp/ta/platform/stub.c:47
     1a8:	4a02      	ldr	r2, [pc, #8]	; (1b4 <sti_inc_refcount+0xc>)
     1aa:	447a      	add	r2, pc
     1ac:	6893      	ldr	r3, [r2, #8]
     1ae:	3301      	adds	r3, #1
     1b0:	6093      	str	r3, [r2, #8]
/workspace/benchmark/optee-sdp/ta/platform/stub.c:48
     1b2:	4770      	bx	lr
     1b4:	00007fd2 	.word	0x00007fd2

000001b8 <sti_dec_refcount>:
sti_dec_refcount():
/workspace/benchmark/optee-sdp/ta/platform/stub.c:52
     1b8:	4a02      	ldr	r2, [pc, #8]	; (1c4 <sti_dec_refcount+0xc>)
     1ba:	447a      	add	r2, pc
     1bc:	6893      	ldr	r3, [r2, #8]
     1be:	3b01      	subs	r3, #1
     1c0:	6093      	str	r3, [r2, #8]
/workspace/benchmark/optee-sdp/ta/platform/stub.c:53
     1c2:	4770      	bx	lr
     1c4:	00007fc2 	.word	0x00007fc2

000001c8 <platform_init>:
platform_init():
/workspace/benchmark/optee-sdp/ta/platform/stub.c:85
     1c8:	4808      	ldr	r0, [pc, #32]	; (1ec <platform_init+0x24>)
/workspace/benchmark/optee-sdp/ta/platform/stub.c:89
     1ca:	f44f 7248 	mov.w	r2, #800	; 0x320
/workspace/benchmark/optee-sdp/ta/platform/stub.c:84
     1ce:	b510      	push	{r4, lr}
/workspace/benchmark/optee-sdp/ta/platform/stub.c:85
     1d0:	2400      	movs	r4, #0
     1d2:	4478      	add	r0, pc
/workspace/benchmark/optee-sdp/ta/platform/stub.c:89
     1d4:	4621      	mov	r1, r4
     1d6:	3010      	adds	r0, #16
/workspace/benchmark/optee-sdp/ta/platform/stub.c:85
     1d8:	f840 4c10 	str.w	r4, [r0, #-16]
/workspace/benchmark/optee-sdp/ta/platform/stub.c:86
     1dc:	f840 4c0c 	str.w	r4, [r0, #-12]
/workspace/benchmark/optee-sdp/ta/platform/stub.c:87
     1e0:	f840 4c08 	str.w	r4, [r0, #-8]
/workspace/benchmark/optee-sdp/ta/platform/stub.c:89
     1e4:	f005 fe90 	bl	5f08 <memset>
/workspace/benchmark/optee-sdp/ta/platform/stub.c:92
     1e8:	4620      	mov	r0, r4
     1ea:	bd10      	pop	{r4, pc}
     1ec:	00007faa 	.word	0x00007faa

000001f0 <platform_create_region>:
find_free_region():
/workspace/benchmark/optee-sdp/ta/platform/stub.c:76
     1f0:	4b0c      	ldr	r3, [pc, #48]	; (224 <platform_create_region+0x34>)
platform_create_region():
/workspace/benchmark/optee-sdp/ta/platform/stub.c:95
     1f2:	b570      	push	{r4, r5, r6, lr}
     1f4:	4604      	mov	r4, r0
     1f6:	447b      	add	r3, pc
     1f8:	3310      	adds	r3, #16
find_free_region():
/workspace/benchmark/optee-sdp/ta/platform/stub.c:76
     1fa:	2000      	movs	r0, #0
/workspace/benchmark/optee-sdp/ta/platform/stub.c:77
     1fc:	e9d3 5600 	ldrd	r5, r6, [r3]
     200:	4335      	orrs	r5, r6
     202:	d006      	beq.n	212 <platform_create_region+0x22>
/workspace/benchmark/optee-sdp/ta/platform/stub.c:76
     204:	3001      	adds	r0, #1
     206:	3328      	adds	r3, #40	; 0x28
     208:	2814      	cmp	r0, #20
     20a:	d1f7      	bne.n	1fc <platform_create_region+0xc>
/workspace/benchmark/optee-sdp/ta/platform/stub.c:80
     20c:	f04f 30ff 	mov.w	r0, #4294967295	; 0xffffffff
platform_create_region():
/workspace/benchmark/optee-sdp/ta/platform/stub.c:105
     210:	bd70      	pop	{r4, r5, r6, pc}
/workspace/benchmark/optee-sdp/ta/platform/stub.c:101
     212:	4b05      	ldr	r3, [pc, #20]	; (228 <platform_create_region+0x38>)
     214:	2528      	movs	r5, #40	; 0x28
     216:	447b      	add	r3, pc
     218:	fb05 3300 	mla	r3, r5, r0, r3
     21c:	e9c3 4104 	strd	r4, r1, [r3, #16]
/workspace/benchmark/optee-sdp/ta/platform/stub.c:102
     220:	619a      	str	r2, [r3, #24]
/workspace/benchmark/optee-sdp/ta/platform/stub.c:104
     222:	e7f5      	b.n	210 <platform_create_region+0x20>
     224:	00007f86 	.word	0x00007f86
     228:	00007f66 	.word	0x00007f66

0000022c <platform_destroy_region>:
platform_destroy_region():
/workspace/benchmark/optee-sdp/ta/platform/stub.c:109
     22c:	2814      	cmp	r0, #20
/workspace/benchmark/optee-sdp/ta/platform/stub.c:108
     22e:	b508      	push	{r3, lr}
/workspace/benchmark/optee-sdp/ta/platform/stub.c:109
     230:	dc0a      	bgt.n	248 <platform_destroy_region+0x1c>
/workspace/benchmark/optee-sdp/ta/platform/stub.c:112
     232:	4b07      	ldr	r3, [pc, #28]	; (250 <platform_destroy_region+0x24>)
     234:	2228      	movs	r2, #40	; 0x28
     236:	2100      	movs	r1, #0
     238:	447b      	add	r3, pc
     23a:	3310      	adds	r3, #16
     23c:	fb02 3000 	mla	r0, r2, r0, r3
     240:	f005 fe62 	bl	5f08 <memset>
/workspace/benchmark/optee-sdp/ta/platform/stub.c:114
     244:	2000      	movs	r0, #0
/workspace/benchmark/optee-sdp/ta/platform/stub.c:115
     246:	bd08      	pop	{r3, pc}
/workspace/benchmark/optee-sdp/ta/platform/stub.c:110
     248:	f04f 30ff 	mov.w	r0, #4294967295	; 0xffffffff
     24c:	e7fb      	b.n	246 <platform_destroy_region+0x1a>
     24e:	bf00      	nop
     250:	00007f44 	.word	0x00007f44

00000254 <platform_find_region_by_id>:
platform_find_region_by_id():
/workspace/benchmark/optee-sdp/ta/platform/stub.c:119
     254:	2814      	cmp	r0, #20
     256:	dc06      	bgt.n	266 <platform_find_region_by_id+0x12>
/workspace/benchmark/optee-sdp/ta/platform/stub.c:122
     258:	4b04      	ldr	r3, [pc, #16]	; (26c <platform_find_region_by_id+0x18>)
     25a:	2228      	movs	r2, #40	; 0x28
     25c:	447b      	add	r3, pc
     25e:	3310      	adds	r3, #16
     260:	fb02 3000 	mla	r0, r2, r0, r3
     264:	4770      	bx	lr
/workspace/benchmark/optee-sdp/ta/platform/stub.c:120
     266:	2000      	movs	r0, #0
/workspace/benchmark/optee-sdp/ta/platform/stub.c:123
     268:	4770      	bx	lr
     26a:	bf00      	nop
     26c:	00007f20 	.word	0x00007f20

00000270 <platform_find_device_by_name>:
platform_find_device_by_name():
/workspace/benchmark/optee-sdp/ta/platform/stub.c:126
     270:	b570      	push	{r4, r5, r6, lr}
     272:	4606      	mov	r6, r0
     274:	4c07      	ldr	r4, [pc, #28]	; (294 <platform_find_device_by_name+0x24>)
/workspace/benchmark/optee-sdp/ta/platform/stub.c:129
     276:	2500      	movs	r5, #0
     278:	447c      	add	r4, pc
/workspace/benchmark/optee-sdp/ta/platform/stub.c:130
     27a:	4631      	mov	r1, r6
     27c:	4620      	mov	r0, r4
     27e:	f005 fe4b 	bl	5f18 <strcmp>
     282:	b120      	cbz	r0, 28e <platform_find_device_by_name+0x1e>
/workspace/benchmark/optee-sdp/ta/platform/stub.c:129 (discriminator 2)
     284:	3501      	adds	r5, #1
     286:	344c      	adds	r4, #76	; 0x4c
     288:	2d03      	cmp	r5, #3
     28a:	d1f6      	bne.n	27a <platform_find_device_by_name+0xa>
/workspace/benchmark/optee-sdp/ta/platform/stub.c:134
     28c:	2400      	movs	r4, #0
/workspace/benchmark/optee-sdp/ta/platform/stub.c:135
     28e:	4620      	mov	r0, r4
     290:	bd70      	pop	{r4, r5, r6, pc}
     292:	bf00      	nop
     294:	00007d84 	.word	0x00007d84

00000298 <platform_check_permissions>:
platform_check_permissions():
/workspace/benchmark/optee-sdp/ta/platform/stub.c:139
     298:	b51f      	push	{r0, r1, r2, r3, r4, lr}
/workspace/benchmark/optee-sdp/ta/platform/stub.c:140
     29a:	68c3      	ldr	r3, [r0, #12]
     29c:	b90b      	cbnz	r3, 2a2 <platform_check_permissions+0xa>
/workspace/benchmark/optee-sdp/ta/platform/stub.c:140 (discriminator 1)
     29e:	2a02      	cmp	r2, #2
     2a0:	d031      	beq.n	306 <platform_check_permissions+0x6e>
/workspace/benchmark/optee-sdp/ta/platform/stub.c:143
     2a2:	6c09      	ldr	r1, [r1, #64]	; 0x40
     2a4:	428b      	cmp	r3, r1
     2a6:	d101      	bne.n	2ac <platform_check_permissions+0x14>
/workspace/benchmark/optee-sdp/ta/platform/stub.c:143 (discriminator 1)
     2a8:	2a02      	cmp	r2, #2
     2aa:	d02c      	beq.n	306 <platform_check_permissions+0x6e>
/workspace/benchmark/optee-sdp/ta/platform/stub.c:146
     2ac:	f003 407f 	and.w	r0, r3, #4278190080	; 0xff000000
     2b0:	f1b0 7f40 	cmp.w	r0, #50331648	; 0x3000000
     2b4:	d10e      	bne.n	2d4 <platform_check_permissions+0x3c>
/workspace/benchmark/optee-sdp/ta/platform/stub.c:146 (discriminator 1)
     2b6:	2a02      	cmp	r2, #2
     2b8:	d016      	beq.n	2e8 <platform_check_permissions+0x50>
/workspace/benchmark/optee-sdp/ta/platform/stub.c:146 (discriminator 2)
     2ba:	f001 407f 	and.w	r0, r1, #4278190080	; 0xff000000
     2be:	f1b0 6f80 	cmp.w	r0, #67108864	; 0x4000000
     2c2:	d10e      	bne.n	2e2 <platform_check_permissions+0x4a>
/workspace/benchmark/optee-sdp/ta/platform/stub.c:155
     2c4:	ea83 0001 	eor.w	r0, r3, r1
     2c8:	f410 007f 	ands.w	r0, r0, #16711680	; 0xff0000
     2cc:	d10c      	bne.n	2e8 <platform_check_permissions+0x50>
/workspace/benchmark/optee-sdp/ta/platform/stub.c:160
     2ce:	b005      	add	sp, #20
     2d0:	f85d fb04 	ldr.w	pc, [sp], #4
/workspace/benchmark/optee-sdp/ta/platform/stub.c:154
     2d4:	f1b0 6f80 	cmp.w	r0, #67108864	; 0x4000000
     2d8:	d106      	bne.n	2e8 <platform_check_permissions+0x50>
/workspace/benchmark/optee-sdp/ta/platform/stub.c:154 (discriminator 1)
     2da:	2a02      	cmp	r2, #2
     2dc:	d004      	beq.n	2e8 <platform_check_permissions+0x50>
/workspace/benchmark/optee-sdp/ta/platform/stub.c:154 (discriminator 2)
     2de:	f001 407f 	and.w	r0, r1, #4278190080	; 0xff000000
     2e2:	f1b0 6fa0 	cmp.w	r0, #83886080	; 0x5000000
     2e6:	d0ed      	beq.n	2c4 <platform_check_permissions+0x2c>
/workspace/benchmark/optee-sdp/ta/platform/stub.c:158
     2e8:	9301      	str	r3, [sp, #4]
     2ea:	4808      	ldr	r0, [pc, #32]	; (30c <platform_check_permissions+0x74>)
     2ec:	4b08      	ldr	r3, [pc, #32]	; (310 <platform_check_permissions+0x78>)
     2ee:	4478      	add	r0, pc
     2f0:	9103      	str	r1, [sp, #12]
     2f2:	447b      	add	r3, pc
     2f4:	9202      	str	r2, [sp, #8]
     2f6:	9300      	str	r3, [sp, #0]
     2f8:	2202      	movs	r2, #2
     2fa:	2301      	movs	r3, #1
     2fc:	219e      	movs	r1, #158	; 0x9e
     2fe:	f000 fce7 	bl	cd0 <trace_printf>
/workspace/benchmark/optee-sdp/ta/platform/stub.c:159
     302:	2001      	movs	r0, #1
     304:	e7e3      	b.n	2ce <platform_check_permissions+0x36>
/workspace/benchmark/optee-sdp/ta/platform/stub.c:141
     306:	2000      	movs	r0, #0
     308:	e7e1      	b.n	2ce <platform_check_permissions+0x36>
     30a:	bf00      	nop
     30c:	000062ee 	.word	0x000062ee
     310:	000061d8 	.word	0x000061d8

00000314 <platform_add_device_to_region>:
platform_add_device_to_region():
/workspace/benchmark/optee-sdp/ta/platform/stub.c:163
     314:	b570      	push	{r4, r5, r6, lr}
/workspace/benchmark/optee-sdp/ta/platform/stub.c:170
     316:	2300      	movs	r3, #0
/workspace/benchmark/optee-sdp/ta/platform/stub.c:167
     318:	6c0c      	ldr	r4, [r1, #64]	; 0x40
     31a:	f100 050c 	add.w	r5, r0, #12
/workspace/benchmark/optee-sdp/ta/platform/stub.c:166
     31e:	2a02      	cmp	r2, #2
/workspace/benchmark/optee-sdp/ta/platform/stub.c:167
     320:	bf08      	it	eq
     322:	60c4      	streq	r4, [r0, #12]
/workspace/benchmark/optee-sdp/ta/platform/stub.c:171
     324:	f855 6f04 	ldr.w	r6, [r5, #4]!
     328:	b10e      	cbz	r6, 32e <platform_add_device_to_region+0x1a>
/workspace/benchmark/optee-sdp/ta/platform/stub.c:171 (discriminator 1)
     32a:	42a6      	cmp	r6, r4
     32c:	d107      	bne.n	33e <platform_add_device_to_region+0x2a>
/workspace/benchmark/optee-sdp/ta/platform/stub.c:172
     32e:	eb00 0083 	add.w	r0, r0, r3, lsl #2
/workspace/benchmark/optee-sdp/ta/platform/stub.c:181
     332:	6c4b      	ldr	r3, [r1, #68]	; 0x44
/workspace/benchmark/optee-sdp/ta/platform/stub.c:172
     334:	6104      	str	r4, [r0, #16]
/workspace/benchmark/optee-sdp/ta/platform/stub.c:173
     336:	61c2      	str	r2, [r0, #28]
/workspace/benchmark/optee-sdp/ta/platform/stub.c:181
     338:	4798      	blx	r3
/workspace/benchmark/optee-sdp/ta/platform/stub.c:183
     33a:	2000      	movs	r0, #0
/workspace/benchmark/optee-sdp/ta/platform/stub.c:184
     33c:	bd70      	pop	{r4, r5, r6, pc}
/workspace/benchmark/optee-sdp/ta/platform/stub.c:170 (discriminator 2)
     33e:	3301      	adds	r3, #1
     340:	2b03      	cmp	r3, #3
     342:	d1ef      	bne.n	324 <platform_add_device_to_region+0x10>
/workspace/benchmark/optee-sdp/ta/platform/stub.c:178
     344:	2001      	movs	r0, #1
     346:	e7f9      	b.n	33c <platform_add_device_to_region+0x28>

00000348 <platform_remove_device_from_region>:
platform_remove_device_from_region():
/workspace/benchmark/optee-sdp/ta/platform/stub.c:191
     348:	6c0b      	ldr	r3, [r1, #64]	; 0x40
     34a:	6902      	ldr	r2, [r0, #16]
/workspace/benchmark/optee-sdp/ta/platform/stub.c:187
     34c:	b510      	push	{r4, lr}
/workspace/benchmark/optee-sdp/ta/platform/stub.c:191
     34e:	4293      	cmp	r3, r2
     350:	d00f      	beq.n	372 <platform_remove_device_from_region+0x2a>
     352:	6942      	ldr	r2, [r0, #20]
     354:	4293      	cmp	r3, r2
     356:	d00e      	beq.n	376 <platform_remove_device_from_region+0x2e>
     358:	6982      	ldr	r2, [r0, #24]
     35a:	429a      	cmp	r2, r3
     35c:	d10d      	bne.n	37a <platform_remove_device_from_region+0x32>
/workspace/benchmark/optee-sdp/ta/platform/stub.c:190
     35e:	2302      	movs	r3, #2
/workspace/benchmark/optee-sdp/ta/platform/stub.c:192
     360:	eb00 0383 	add.w	r3, r0, r3, lsl #2
     364:	2400      	movs	r4, #0
     366:	611c      	str	r4, [r3, #16]
/workspace/benchmark/optee-sdp/ta/platform/stub.c:193
     368:	61dc      	str	r4, [r3, #28]
/workspace/benchmark/optee-sdp/ta/platform/stub.c:201
     36a:	6c8b      	ldr	r3, [r1, #72]	; 0x48
     36c:	4798      	blx	r3
/workspace/benchmark/optee-sdp/ta/platform/stub.c:202
     36e:	4620      	mov	r0, r4
/workspace/benchmark/optee-sdp/ta/platform/stub.c:203
     370:	bd10      	pop	{r4, pc}
/workspace/benchmark/optee-sdp/ta/platform/stub.c:190
     372:	2300      	movs	r3, #0
     374:	e7f4      	b.n	360 <platform_remove_device_from_region+0x18>
     376:	2301      	movs	r3, #1
     378:	e7f2      	b.n	360 <platform_remove_device_from_region+0x18>
/workspace/benchmark/optee-sdp/ta/platform/stub.c:198
     37a:	2001      	movs	r0, #1
     37c:	e7f8      	b.n	370 <platform_remove_device_from_region+0x28>

0000037e <platform_dump_status>:
platform_dump_status():
/workspace/benchmark/optee-sdp/ta/platform/stub.c:206
     37e:	e92d 4ff7 	stmdb	sp!, {r0, r1, r2, r4, r5, r6, r7, r8, r9, sl, fp, lr}
     382:	4605      	mov	r5, r0
/workspace/benchmark/optee-sdp/ta/platform/stub.c:210
     384:	4a3e      	ldr	r2, [pc, #248]	; (480 <platform_dump_status+0x102>)
     386:	4e3f      	ldr	r6, [pc, #252]	; (484 <platform_dump_status+0x106>)
/workspace/benchmark/optee-sdp/ta/platform/stub.c:206
     388:	460c      	mov	r4, r1
/workspace/benchmark/optee-sdp/ta/platform/stub.c:210
     38a:	6800      	ldr	r0, [r0, #0]
     38c:	447a      	add	r2, pc
/workspace/benchmark/optee-sdp/ta/platform/stub.c:215
     38e:	f8df 80f8 	ldr.w	r8, [pc, #248]	; 488 <platform_dump_status+0x10a>
/workspace/benchmark/optee-sdp/ta/platform/stub.c:210
     392:	f005 fda3 	bl	5edc <snprintf>
/workspace/benchmark/optee-sdp/ta/platform/stub.c:211
     396:	447e      	add	r6, pc
     398:	682b      	ldr	r3, [r5, #0]
/workspace/benchmark/optee-sdp/ta/platform/stub.c:212
     39a:	1a24      	subs	r4, r4, r0
     39c:	f106 07e4 	add.w	r7, r6, #228	; 0xe4
/workspace/benchmark/optee-sdp/ta/platform/stub.c:215
     3a0:	44f8      	add	r8, pc
/workspace/benchmark/optee-sdp/ta/platform/stub.c:211
     3a2:	4403      	add	r3, r0
     3a4:	602b      	str	r3, [r5, #0]
/workspace/benchmark/optee-sdp/ta/platform/stub.c:215 (discriminator 3)
     3a6:	6c33      	ldr	r3, [r6, #64]	; 0x40
     3a8:	4621      	mov	r1, r4
     3aa:	9300      	str	r3, [sp, #0]
     3ac:	4642      	mov	r2, r8
     3ae:	4633      	mov	r3, r6
     3b0:	6828      	ldr	r0, [r5, #0]
     3b2:	f005 fd93 	bl	5edc <snprintf>
/workspace/benchmark/optee-sdp/ta/platform/stub.c:216 (discriminator 3)
     3b6:	682b      	ldr	r3, [r5, #0]
/workspace/benchmark/optee-sdp/ta/platform/stub.c:215 (discriminator 3)
     3b8:	4601      	mov	r1, r0
/workspace/benchmark/optee-sdp/ta/platform/stub.c:214 (discriminator 3)
     3ba:	364c      	adds	r6, #76	; 0x4c
/workspace/benchmark/optee-sdp/ta/platform/stub.c:216 (discriminator 3)
     3bc:	1818      	adds	r0, r3, r0
/workspace/benchmark/optee-sdp/ta/platform/stub.c:217 (discriminator 3)
     3be:	1a64      	subs	r4, r4, r1
/workspace/benchmark/optee-sdp/ta/platform/stub.c:214 (discriminator 3)
     3c0:	42be      	cmp	r6, r7
/workspace/benchmark/optee-sdp/ta/platform/stub.c:216 (discriminator 3)
     3c2:	6028      	str	r0, [r5, #0]
/workspace/benchmark/optee-sdp/ta/platform/stub.c:214 (discriminator 3)
     3c4:	d1ef      	bne.n	3a6 <platform_dump_status+0x28>
/workspace/benchmark/optee-sdp/ta/platform/stub.c:220
     3c6:	4f31      	ldr	r7, [pc, #196]	; (48c <platform_dump_status+0x10e>)
     3c8:	4621      	mov	r1, r4
     3ca:	4a31      	ldr	r2, [pc, #196]	; (490 <platform_dump_status+0x112>)
     3cc:	447f      	add	r7, pc
/workspace/benchmark/optee-sdp/ta/platform/stub.c:235
     3ce:	f8df a0c4 	ldr.w	sl, [pc, #196]	; 494 <platform_dump_status+0x116>
/workspace/benchmark/optee-sdp/ta/platform/stub.c:220
     3d2:	447a      	add	r2, pc
/workspace/benchmark/optee-sdp/ta/platform/stub.c:241
     3d4:	f8df b0c0 	ldr.w	fp, [pc, #192]	; 498 <platform_dump_status+0x11a>
     3d8:	f107 0610 	add.w	r6, r7, #16
/workspace/benchmark/optee-sdp/ta/platform/stub.c:235
     3dc:	44fa      	add	sl, pc
/workspace/benchmark/optee-sdp/ta/platform/stub.c:220
     3de:	683b      	ldr	r3, [r7, #0]
/workspace/benchmark/optee-sdp/ta/platform/stub.c:241
     3e0:	44fb      	add	fp, pc
/workspace/benchmark/optee-sdp/ta/platform/stub.c:220
     3e2:	f005 fd7b 	bl	5edc <snprintf>
     3e6:	4602      	mov	r2, r0
/workspace/benchmark/optee-sdp/ta/platform/stub.c:221
     3e8:	682b      	ldr	r3, [r5, #0]
/workspace/benchmark/optee-sdp/ta/platform/stub.c:222
     3ea:	1aa4      	subs	r4, r4, r2
/workspace/benchmark/optee-sdp/ta/platform/stub.c:224
     3ec:	4a2b      	ldr	r2, [pc, #172]	; (49c <platform_dump_status+0x11e>)
     3ee:	4621      	mov	r1, r4
/workspace/benchmark/optee-sdp/ta/platform/stub.c:221
     3f0:	1818      	adds	r0, r3, r0
/workspace/benchmark/optee-sdp/ta/platform/stub.c:224
     3f2:	687b      	ldr	r3, [r7, #4]
     3f4:	447a      	add	r2, pc
/workspace/benchmark/optee-sdp/ta/platform/stub.c:221
     3f6:	6028      	str	r0, [r5, #0]
/workspace/benchmark/optee-sdp/ta/platform/stub.c:224
     3f8:	f005 fd70 	bl	5edc <snprintf>
     3fc:	4602      	mov	r2, r0
/workspace/benchmark/optee-sdp/ta/platform/stub.c:225
     3fe:	682b      	ldr	r3, [r5, #0]
/workspace/benchmark/optee-sdp/ta/platform/stub.c:226
     400:	1aa4      	subs	r4, r4, r2
/workspace/benchmark/optee-sdp/ta/platform/stub.c:228
     402:	4a27      	ldr	r2, [pc, #156]	; (4a0 <platform_dump_status+0x122>)
     404:	4621      	mov	r1, r4
/workspace/benchmark/optee-sdp/ta/platform/stub.c:225
     406:	1818      	adds	r0, r3, r0
/workspace/benchmark/optee-sdp/ta/platform/stub.c:228
     408:	68bb      	ldr	r3, [r7, #8]
     40a:	447a      	add	r2, pc
/workspace/benchmark/optee-sdp/ta/platform/stub.c:225
     40c:	6028      	str	r0, [r5, #0]
/workspace/benchmark/optee-sdp/ta/platform/stub.c:228
     40e:	f005 fd65 	bl	5edc <snprintf>
/workspace/benchmark/optee-sdp/ta/platform/stub.c:229
     412:	682b      	ldr	r3, [r5, #0]
/workspace/benchmark/optee-sdp/ta/platform/stub.c:230
     414:	1a24      	subs	r4, r4, r0
     416:	f507 774c 	add.w	r7, r7, #816	; 0x330
/workspace/benchmark/optee-sdp/ta/platform/stub.c:229
     41a:	4403      	add	r3, r0
     41c:	602b      	str	r3, [r5, #0]
/workspace/benchmark/optee-sdp/ta/platform/stub.c:233
     41e:	e9d6 3200 	ldrd	r3, r2, [r6]
     422:	431a      	orrs	r2, r3
     424:	d024      	beq.n	470 <platform_dump_status+0xf2>
/workspace/benchmark/optee-sdp/ta/platform/stub.c:235
     426:	68f2      	ldr	r2, [r6, #12]
     428:	4621      	mov	r1, r4
     42a:	9201      	str	r2, [sp, #4]
     42c:	f106 090c 	add.w	r9, r6, #12
     430:	6828      	ldr	r0, [r5, #0]
/workspace/benchmark/optee-sdp/ta/platform/stub.c:239
     432:	f04f 0800 	mov.w	r8, #0
/workspace/benchmark/optee-sdp/ta/platform/stub.c:235
     436:	68b2      	ldr	r2, [r6, #8]
     438:	9200      	str	r2, [sp, #0]
     43a:	4652      	mov	r2, sl
     43c:	f005 fd4e 	bl	5edc <snprintf>
/workspace/benchmark/optee-sdp/ta/platform/stub.c:236
     440:	682b      	ldr	r3, [r5, #0]
/workspace/benchmark/optee-sdp/ta/platform/stub.c:237
     442:	1a24      	subs	r4, r4, r0
/workspace/benchmark/optee-sdp/ta/platform/stub.c:236
     444:	4403      	add	r3, r0
     446:	602b      	str	r3, [r5, #0]
/workspace/benchmark/optee-sdp/ta/platform/stub.c:240
     448:	f859 3f04 	ldr.w	r3, [r9, #4]!
     44c:	b15b      	cbz	r3, 466 <platform_dump_status+0xe8>
/workspace/benchmark/optee-sdp/ta/platform/stub.c:241
     44e:	f8d9 200c 	ldr.w	r2, [r9, #12]
     452:	4621      	mov	r1, r4
     454:	9200      	str	r2, [sp, #0]
     456:	465a      	mov	r2, fp
     458:	6828      	ldr	r0, [r5, #0]
     45a:	f005 fd3f 	bl	5edc <snprintf>
/workspace/benchmark/optee-sdp/ta/platform/stub.c:242
     45e:	682b      	ldr	r3, [r5, #0]
/workspace/benchmark/optee-sdp/ta/platform/stub.c:243
     460:	1a24      	subs	r4, r4, r0
/workspace/benchmark/optee-sdp/ta/platform/stub.c:242
     462:	4403      	add	r3, r0
     464:	602b      	str	r3, [r5, #0]
/workspace/benchmark/optee-sdp/ta/platform/stub.c:239 (discriminator 2)
     466:	f108 0801 	add.w	r8, r8, #1
     46a:	f1b8 0f03 	cmp.w	r8, #3
     46e:	d1eb      	bne.n	448 <platform_dump_status+0xca>
/workspace/benchmark/optee-sdp/ta/platform/stub.c:232 (discriminator 2)
     470:	3628      	adds	r6, #40	; 0x28
     472:	42be      	cmp	r6, r7
     474:	d1d3      	bne.n	41e <platform_dump_status+0xa0>
/workspace/benchmark/optee-sdp/ta/platform/stub.c:249
     476:	2000      	movs	r0, #0
     478:	b003      	add	sp, #12
     47a:	e8bd 8ff0 	ldmia.w	sp!, {r4, r5, r6, r7, r8, r9, sl, fp, pc}
     47e:	bf00      	nop
     480:	0000618c 	.word	0x0000618c
     484:	00007c66 	.word	0x00007c66
     488:	0000618b 	.word	0x0000618b
     48c:	00007db0 	.word	0x00007db0
     490:	00006171 	.word	0x00006171
     494:	000061be 	.word	0x000061be
     498:	000061e0 	.word	0x000061e0
     49c:	0000616c 	.word	0x0000616c
     4a0:	00006175 	.word	0x00006175

000004a4 <platform_dump_device>:
platform_dump_device():
/workspace/benchmark/optee-sdp/ta/platform/stub.c:256
     4a4:	4a10      	ldr	r2, [pc, #64]	; (4e8 <platform_dump_device+0x44>)
/workspace/benchmark/optee-sdp/ta/platform/stub.c:252
     4a6:	e92d 41f3 	stmdb	sp!, {r0, r1, r4, r5, r6, r7, r8, lr}
     4aa:	4605      	mov	r5, r0
/workspace/benchmark/optee-sdp/ta/platform/stub.c:256
     4ac:	4f0f      	ldr	r7, [pc, #60]	; (4ec <platform_dump_device+0x48>)
/workspace/benchmark/optee-sdp/ta/platform/stub.c:261
     4ae:	f8df 8040 	ldr.w	r8, [pc, #64]	; 4f0 <platform_dump_device+0x4c>
/workspace/benchmark/optee-sdp/ta/platform/stub.c:252
     4b2:	460c      	mov	r4, r1
/workspace/benchmark/optee-sdp/ta/platform/stub.c:256
     4b4:	447a      	add	r2, pc
     4b6:	447f      	add	r7, pc
     4b8:	f005 fd10 	bl	5edc <snprintf>
/workspace/benchmark/optee-sdp/ta/platform/stub.c:258
     4bc:	2603      	movs	r6, #3
/workspace/benchmark/optee-sdp/ta/platform/stub.c:257
     4be:	4405      	add	r5, r0
/workspace/benchmark/optee-sdp/ta/platform/stub.c:258
     4c0:	1a24      	subs	r4, r4, r0
/workspace/benchmark/optee-sdp/ta/platform/stub.c:261
     4c2:	44f8      	add	r8, pc
/workspace/benchmark/optee-sdp/ta/platform/stub.c:261 (discriminator 3)
     4c4:	6c3b      	ldr	r3, [r7, #64]	; 0x40
     4c6:	4621      	mov	r1, r4
     4c8:	4628      	mov	r0, r5
     4ca:	9300      	str	r3, [sp, #0]
     4cc:	4642      	mov	r2, r8
     4ce:	463b      	mov	r3, r7
     4d0:	f005 fd04 	bl	5edc <snprintf>
/workspace/benchmark/optee-sdp/ta/platform/stub.c:260 (discriminator 3)
     4d4:	374c      	adds	r7, #76	; 0x4c
/workspace/benchmark/optee-sdp/ta/platform/stub.c:262 (discriminator 3)
     4d6:	4405      	add	r5, r0
/workspace/benchmark/optee-sdp/ta/platform/stub.c:263 (discriminator 3)
     4d8:	1a24      	subs	r4, r4, r0
/workspace/benchmark/optee-sdp/ta/platform/stub.c:260 (discriminator 3)
     4da:	3e01      	subs	r6, #1
     4dc:	d1f2      	bne.n	4c4 <platform_dump_device+0x20>
/workspace/benchmark/optee-sdp/ta/platform/stub.c:266
     4de:	4630      	mov	r0, r6
     4e0:	b002      	add	sp, #8
     4e2:	e8bd 81f0 	ldmia.w	sp!, {r4, r5, r6, r7, r8, pc}
     4e6:	bf00      	nop
     4e8:	00006064 	.word	0x00006064
     4ec:	00007b46 	.word	0x00007b46
     4f0:	00006069 	.word	0x00006069

000004f4 <__vsnprintf>:
__vsnprintf():
/mnt/disk/raspbian-tee/optee_os/lib/libutils/ext/snprintk.c:137
     4f4:	e92d 4ff0 	stmdb	sp!, {r4, r5, r6, r7, r8, r9, sl, fp, lr}
/mnt/disk/raspbian-tee/optee_os/lib/libutils/ext/snprintk.c:141
     4f8:	4680      	mov	r8, r0
     4fa:	461f      	mov	r7, r3
/mnt/disk/raspbian-tee/optee_os/lib/libutils/ext/snprintk.c:137
     4fc:	b09f      	sub	sp, #124	; 0x7c
kprintf():
/mnt/disk/raspbian-tee/optee_os/lib/libutils/ext/snprintk.c:269
     4fe:	2300      	movs	r3, #0
__vsnprintf():
/mnt/disk/raspbian-tee/optee_os/lib/libutils/ext/snprintk.c:137
     500:	920b      	str	r2, [sp, #44]	; 0x2c
     502:	f89d 20a0 	ldrb.w	r2, [sp, #160]	; 0xa0
     506:	9213      	str	r2, [sp, #76]	; 0x4c
/mnt/disk/raspbian-tee/optee_os/lib/libutils/ext/snprintk.c:141
     508:	4602      	mov	r2, r0
     50a:	440a      	add	r2, r1
/mnt/disk/raspbian-tee/optee_os/lib/libutils/ext/snprintk.c:137
     50c:	9010      	str	r0, [sp, #64]	; 0x40
     50e:	9112      	str	r1, [sp, #72]	; 0x48
/mnt/disk/raspbian-tee/optee_os/lib/libutils/ext/snprintk.c:141
     510:	920e      	str	r2, [sp, #56]	; 0x38
kprintf():
/mnt/disk/raspbian-tee/optee_os/lib/libutils/ext/snprintk.c:269
     512:	930f      	str	r3, [sp, #60]	; 0x3c
/mnt/disk/raspbian-tee/optee_os/lib/libutils/ext/snprintk.c:267
     514:	930c      	str	r3, [sp, #48]	; 0x30
/mnt/disk/raspbian-tee/optee_os/lib/libutils/ext/snprintk.c:275
     516:	9b0b      	ldr	r3, [sp, #44]	; 0x2c
     518:	781b      	ldrb	r3, [r3, #0]
     51a:	2b25      	cmp	r3, #37	; 0x25
     51c:	d024      	beq.n	568 <__vsnprintf+0x74>
     51e:	b993      	cbnz	r3, 546 <__vsnprintf+0x52>
__vsnprintf():
/mnt/disk/raspbian-tee/optee_os/lib/libutils/ext/snprintk.c:143
     520:	9b10      	ldr	r3, [sp, #64]	; 0x40
     522:	b163      	cbz	r3, 53e <__vsnprintf+0x4a>
/mnt/disk/raspbian-tee/optee_os/lib/libutils/ext/snprintk.c:143 (discriminator 1)
     524:	9b12      	ldr	r3, [sp, #72]	; 0x48
     526:	b153      	cbz	r3, 53e <__vsnprintf+0x4a>
/mnt/disk/raspbian-tee/optee_os/lib/libutils/ext/snprintk.c:145
     528:	9a0c      	ldr	r2, [sp, #48]	; 0x30
     52a:	4293      	cmp	r3, r2
     52c:	f04f 0300 	mov.w	r3, #0
/mnt/disk/raspbian-tee/optee_os/lib/libutils/ext/snprintk.c:146
     530:	9a10      	ldr	r2, [sp, #64]	; 0x40
/mnt/disk/raspbian-tee/optee_os/lib/libutils/ext/snprintk.c:145
     532:	f200 835f 	bhi.w	bf4 <__vsnprintf+0x700>
/mnt/disk/raspbian-tee/optee_os/lib/libutils/ext/snprintk.c:146
     536:	9912      	ldr	r1, [sp, #72]	; 0x48
     538:	440a      	add	r2, r1
     53a:	f802 3c01 	strb.w	r3, [r2, #-1]
/mnt/disk/raspbian-tee/optee_os/lib/libutils/ext/snprintk.c:151
     53e:	980c      	ldr	r0, [sp, #48]	; 0x30
     540:	b01f      	add	sp, #124	; 0x7c
     542:	e8bd 8ff0 	ldmia.w	sp!, {r4, r5, r6, r7, r8, r9, sl, fp, pc}
kprintf():
/mnt/disk/raspbian-tee/optee_os/lib/libutils/ext/snprintk.c:276
     546:	9a0c      	ldr	r2, [sp, #48]	; 0x30
     548:	3201      	adds	r2, #1
     54a:	920c      	str	r2, [sp, #48]	; 0x30
/mnt/disk/raspbian-tee/optee_os/lib/libutils/ext/snprintk.c:277
     54c:	f1b8 0f00 	cmp.w	r8, #0
     550:	d006      	beq.n	560 <__vsnprintf+0x6c>
     552:	9a0e      	ldr	r2, [sp, #56]	; 0x38
     554:	4542      	cmp	r2, r8
     556:	d903      	bls.n	560 <__vsnprintf+0x6c>
     558:	f888 3000 	strb.w	r3, [r8]
     55c:	f108 0801 	add.w	r8, r8, #1
/mnt/disk/raspbian-tee/optee_os/lib/libutils/ext/snprintk.c:275
     560:	9b0b      	ldr	r3, [sp, #44]	; 0x2c
     562:	3301      	adds	r3, #1
     564:	930b      	str	r3, [sp, #44]	; 0x2c
     566:	e7d6      	b.n	516 <__vsnprintf+0x22>
/mnt/disk/raspbian-tee/optee_os/lib/libutils/ext/snprintk.c:282
     568:	9b0b      	ldr	r3, [sp, #44]	; 0x2c
/mnt/disk/raspbian-tee/optee_os/lib/libutils/ext/snprintk.c:288
     56a:	f04f 0a00 	mov.w	sl, #0
/mnt/disk/raspbian-tee/optee_os/lib/libutils/ext/snprintk.c:282
     56e:	463a      	mov	r2, r7
/mnt/disk/raspbian-tee/optee_os/lib/libutils/ext/snprintk.c:287
     570:	f04f 3bff 	mov.w	fp, #4294967295	; 0xffffffff
/mnt/disk/raspbian-tee/optee_os/lib/libutils/ext/snprintk.c:282
     574:	3301      	adds	r3, #1
/mnt/disk/raspbian-tee/optee_os/lib/libutils/ext/snprintk.c:284
     576:	4656      	mov	r6, sl
/mnt/disk/raspbian-tee/optee_os/lib/libutils/ext/snprintk.c:286
     578:	f8cd a034 	str.w	sl, [sp, #52]	; 0x34
/mnt/disk/raspbian-tee/optee_os/lib/libutils/ext/snprintk.c:290
     57c:	f893 9000 	ldrb.w	r9, [r3]
     580:	1c59      	adds	r1, r3, #1
     582:	910b      	str	r1, [sp, #44]	; 0x2c
/mnt/disk/raspbian-tee/optee_os/lib/libutils/ext/snprintk.c:291
     584:	f1b9 0f63 	cmp.w	r9, #99	; 0x63
     588:	f000 8163 	beq.w	852 <__vsnprintf+0x35e>
     58c:	f300 8095 	bgt.w	6ba <__vsnprintf+0x1c6>
     590:	f1b9 0f30 	cmp.w	r9, #48	; 0x30
     594:	f000 8147 	beq.w	826 <__vsnprintf+0x332>
     598:	dc26      	bgt.n	5e8 <__vsnprintf+0xf4>
     59a:	f1b9 0f2a 	cmp.w	r9, #42	; 0x2a
     59e:	f000 8119 	beq.w	7d4 <__vsnprintf+0x2e0>
     5a2:	dc13      	bgt.n	5cc <__vsnprintf+0xd8>
     5a4:	f1b9 0f20 	cmp.w	r9, #32
     5a8:	f000 810a 	beq.w	7c0 <__vsnprintf+0x2cc>
     5ac:	f1b9 0f23 	cmp.w	r9, #35	; 0x23
     5b0:	f000 810d 	beq.w	7ce <__vsnprintf+0x2da>
/mnt/disk/raspbian-tee/optee_os/lib/libutils/ext/snprintk.c:541
     5b4:	f1b9 0f00 	cmp.w	r9, #0
     5b8:	d0b2      	beq.n	520 <__vsnprintf+0x2c>
/mnt/disk/raspbian-tee/optee_os/lib/libutils/ext/snprintk.c:545
     5ba:	ab1e      	add	r3, sp, #120	; 0x78
     5bc:	4617      	mov	r7, r2
/mnt/disk/raspbian-tee/optee_os/lib/libutils/ext/snprintk.c:546
     5be:	f04f 0b01 	mov.w	fp, #1
/mnt/disk/raspbian-tee/optee_os/lib/libutils/ext/snprintk.c:545
     5c2:	f803 9d28 	strb.w	r9, [r3, #-40]!
     5c6:	e0c0      	b.n	74a <__vsnprintf+0x256>
/mnt/disk/raspbian-tee/optee_os/lib/libutils/ext/snprintk.c:311
     5c8:	461a      	mov	r2, r3
     5ca:	e00b      	b.n	5e4 <__vsnprintf+0xf0>
/mnt/disk/raspbian-tee/optee_os/lib/libutils/ext/snprintk.c:291
     5cc:	f1b9 0f2d 	cmp.w	r9, #45	; 0x2d
     5d0:	f000 8109 	beq.w	7e6 <__vsnprintf+0x2f2>
     5d4:	f1b9 0f2e 	cmp.w	r9, #46	; 0x2e
     5d8:	f000 8108 	beq.w	7ec <__vsnprintf+0x2f8>
     5dc:	f1b9 0f2b 	cmp.w	r9, #43	; 0x2b
     5e0:	d1e8      	bne.n	5b4 <__vsnprintf+0xc0>
/mnt/disk/raspbian-tee/optee_os/lib/libutils/ext/snprintk.c:319
     5e2:	46ca      	mov	sl, r9
/mnt/disk/raspbian-tee/optee_os/lib/libutils/ext/snprintk.c:322
     5e4:	9b0b      	ldr	r3, [sp, #44]	; 0x2c
     5e6:	e7c9      	b.n	57c <__vsnprintf+0x88>
/mnt/disk/raspbian-tee/optee_os/lib/libutils/ext/snprintk.c:291
     5e8:	f1b9 0f44 	cmp.w	r9, #68	; 0x44
     5ec:	f000 818a 	beq.w	904 <__vsnprintf+0x410>
     5f0:	dc14      	bgt.n	61c <__vsnprintf+0x128>
     5f2:	f1b9 0f39 	cmp.w	r9, #57	; 0x39
     5f6:	dcdd      	bgt.n	5b4 <__vsnprintf+0xc0>
     5f8:	2300      	movs	r3, #0
     5fa:	930d      	str	r3, [sp, #52]	; 0x34
/mnt/disk/raspbian-tee/optee_os/lib/libutils/ext/snprintk.c:346
     5fc:	9b0d      	ldr	r3, [sp, #52]	; 0x34
     5fe:	f1a9 0930 	sub.w	r9, r9, #48	; 0x30
     602:	210a      	movs	r1, #10
     604:	fb01 9303 	mla	r3, r1, r3, r9
     608:	930d      	str	r3, [sp, #52]	; 0x34
/mnt/disk/raspbian-tee/optee_os/lib/libutils/ext/snprintk.c:347
     60a:	9b0b      	ldr	r3, [sp, #44]	; 0x2c
     60c:	f813 9b01 	ldrb.w	r9, [r3], #1
     610:	930b      	str	r3, [sp, #44]	; 0x2c
/mnt/disk/raspbian-tee/optee_os/lib/libutils/ext/snprintk.c:348
     612:	f1a9 0330 	sub.w	r3, r9, #48	; 0x30
     616:	2b09      	cmp	r3, #9
     618:	d9f0      	bls.n	5fc <__vsnprintf+0x108>
     61a:	e7b3      	b.n	584 <__vsnprintf+0x90>
/mnt/disk/raspbian-tee/optee_os/lib/libutils/ext/snprintk.c:291
     61c:	f1b9 0f55 	cmp.w	r9, #85	; 0x55
     620:	f000 823d 	beq.w	a9e <__vsnprintf+0x5aa>
     624:	f1b9 0f58 	cmp.w	r9, #88	; 0x58
     628:	f000 80ab 	beq.w	782 <__vsnprintf+0x28e>
     62c:	f1b9 0f4f 	cmp.w	r9, #79	; 0x4f
     630:	d1c0      	bne.n	5b4 <__vsnprintf+0xc0>
/mnt/disk/raspbian-tee/optee_os/lib/libutils/ext/snprintk.c:408
     632:	f046 0610 	orr.w	r6, r6, #16
/mnt/disk/raspbian-tee/optee_os/lib/libutils/ext/snprintk.c:411
     636:	0635      	lsls	r5, r6, #24
     638:	f140 81c0 	bpl.w	9bc <__vsnprintf+0x4c8>
     63c:	3207      	adds	r2, #7
     63e:	f022 0207 	bic.w	r2, r2, #7
     642:	f102 0708 	add.w	r7, r2, #8
     646:	e9d2 4500 	ldrd	r4, r5, [r2]
/mnt/disk/raspbian-tee/optee_os/lib/libutils/ext/snprintk.c:488
     64a:	f04f 0a00 	mov.w	sl, #0
     64e:	f1bb 3fff 	cmp.w	fp, #4294967295	; 0xffffffff
     652:	d011      	beq.n	678 <__vsnprintf+0x184>
     654:	4653      	mov	r3, sl
/mnt/disk/raspbian-tee/optee_os/lib/libutils/ext/snprintk.c:489
     656:	f426 6680 	bic.w	r6, r6, #1024	; 0x400
/mnt/disk/raspbian-tee/optee_os/lib/libutils/ext/snprintk.c:497
     65a:	ea54 0205 	orrs.w	r2, r4, r5
     65e:	d105      	bne.n	66c <__vsnprintf+0x178>
     660:	f1bb 0f00 	cmp.w	fp, #0
     664:	f000 8269 	beq.w	b3a <__vsnprintf+0x646>
     668:	2400      	movs	r4, #0
     66a:	2500      	movs	r5, #0
/mnt/disk/raspbian-tee/optee_os/lib/libutils/ext/snprintk.c:503
     66c:	2b01      	cmp	r3, #1
     66e:	f000 8161 	beq.w	934 <__vsnprintf+0x440>
     672:	2b02      	cmp	r3, #2
     674:	f000 81f8 	beq.w	a68 <__vsnprintf+0x574>
/mnt/disk/raspbian-tee/optee_os/lib/libutils/ext/snprintk.c:488
     678:	f10d 0275 	add.w	r2, sp, #117	; 0x75
/mnt/disk/raspbian-tee/optee_os/lib/libutils/ext/snprintk.c:507
     67c:	08e0      	lsrs	r0, r4, #3
     67e:	ea4f 0cd5 	mov.w	ip, r5, lsr #3
     682:	ea40 7045 	orr.w	r0, r0, r5, lsl #29
/mnt/disk/raspbian-tee/optee_os/lib/libutils/ext/snprintk.c:506
     686:	f004 0107 	and.w	r1, r4, #7
/mnt/disk/raspbian-tee/optee_os/lib/libutils/ext/snprintk.c:507
     68a:	4665      	mov	r5, ip
     68c:	4604      	mov	r4, r0
/mnt/disk/raspbian-tee/optee_os/lib/libutils/ext/snprintk.c:506
     68e:	3130      	adds	r1, #48	; 0x30
     690:	1e53      	subs	r3, r2, #1
     692:	f802 1c01 	strb.w	r1, [r2, #-1]
/mnt/disk/raspbian-tee/optee_os/lib/libutils/ext/snprintk.c:508
     696:	ea54 0005 	orrs.w	r0, r4, r5
     69a:	f040 8239 	bne.w	b10 <__vsnprintf+0x61c>
/mnt/disk/raspbian-tee/optee_os/lib/libutils/ext/snprintk.c:510
     69e:	07f5      	lsls	r5, r6, #31
     6a0:	d505      	bpl.n	6ae <__vsnprintf+0x1ba>
     6a2:	2930      	cmp	r1, #48	; 0x30
     6a4:	d003      	beq.n	6ae <__vsnprintf+0x1ba>
/mnt/disk/raspbian-tee/optee_os/lib/libutils/ext/snprintk.c:511
     6a6:	2130      	movs	r1, #48	; 0x30
     6a8:	f803 1c01 	strb.w	r1, [r3, #-1]
     6ac:	1e93      	subs	r3, r2, #2
/mnt/disk/raspbian-tee/optee_os/lib/libutils/ext/snprintk.c:537
     6ae:	f10d 0275 	add.w	r2, sp, #117	; 0x75
     6b2:	4658      	mov	r0, fp
     6b4:	eba2 0b03 	sub.w	fp, r2, r3
     6b8:	e0d5      	b.n	866 <__vsnprintf+0x372>
/mnt/disk/raspbian-tee/optee_os/lib/libutils/ext/snprintk.c:291
     6ba:	f1b9 0f6f 	cmp.w	r9, #111	; 0x6f
     6be:	d0ba      	beq.n	636 <__vsnprintf+0x142>
     6c0:	dc1e      	bgt.n	700 <__vsnprintf+0x20c>
     6c2:	f1b9 0f69 	cmp.w	r9, #105	; 0x69
     6c6:	f000 811f 	beq.w	908 <__vsnprintf+0x414>
     6ca:	dc0a      	bgt.n	6e2 <__vsnprintf+0x1ee>
     6cc:	f1b9 0f64 	cmp.w	r9, #100	; 0x64
     6d0:	f000 811a 	beq.w	908 <__vsnprintf+0x414>
     6d4:	f1b9 0f68 	cmp.w	r9, #104	; 0x68
     6d8:	f47f af6c 	bne.w	5b4 <__vsnprintf+0xc0>
/mnt/disk/raspbian-tee/optee_os/lib/libutils/ext/snprintk.c:352
     6dc:	f046 0640 	orr.w	r6, r6, #64	; 0x40
     6e0:	e780      	b.n	5e4 <__vsnprintf+0xf0>
/mnt/disk/raspbian-tee/optee_os/lib/libutils/ext/snprintk.c:291
     6e2:	f1b9 0f6c 	cmp.w	r9, #108	; 0x6c
     6e6:	f000 80a1 	beq.w	82c <__vsnprintf+0x338>
     6ea:	f1b9 0f6e 	cmp.w	r9, #110	; 0x6e
     6ee:	f000 8146 	beq.w	97e <__vsnprintf+0x48a>
     6f2:	f1b9 0f6a 	cmp.w	r9, #106	; 0x6a
     6f6:	f47f af5d 	bne.w	5b4 <__vsnprintf+0xc0>
/mnt/disk/raspbian-tee/optee_os/lib/libutils/ext/snprintk.c:355
     6fa:	f046 0680 	orr.w	r6, r6, #128	; 0x80
     6fe:	e771      	b.n	5e4 <__vsnprintf+0xf0>
/mnt/disk/raspbian-tee/optee_os/lib/libutils/ext/snprintk.c:291
     700:	f1b9 0f74 	cmp.w	r9, #116	; 0x74
     704:	f000 809f 	beq.w	846 <__vsnprintf+0x352>
     708:	dc22      	bgt.n	750 <__vsnprintf+0x25c>
     70a:	f1b9 0f71 	cmp.w	r9, #113	; 0x71
     70e:	f000 8094 	beq.w	83a <__vsnprintf+0x346>
     712:	f2c0 8167 	blt.w	9e4 <__vsnprintf+0x4f0>
     716:	f1b9 0f73 	cmp.w	r9, #115	; 0x73
     71a:	f47f af4b 	bne.w	5b4 <__vsnprintf+0xc0>
/mnt/disk/raspbian-tee/optee_os/lib/libutils/ext/snprintk.c:442
     71e:	6813      	ldr	r3, [r2, #0]
     720:	1d17      	adds	r7, r2, #4
     722:	b913      	cbnz	r3, 72a <__vsnprintf+0x236>
/mnt/disk/raspbian-tee/optee_os/lib/libutils/ext/snprintk.c:444
     724:	f8df 34ec 	ldr.w	r3, [pc, #1260]	; c14 <__vsnprintf+0x720>
     728:	447b      	add	r3, pc
/mnt/disk/raspbian-tee/optee_os/lib/libutils/ext/snprintk.c:445
     72a:	f1bb 3fff 	cmp.w	fp, #4294967295	; 0xffffffff
     72e:	f000 81ad 	beq.w	a8c <__vsnprintf+0x598>
/mnt/disk/raspbian-tee/optee_os/lib/libutils/ext/snprintk.c:451
     732:	4618      	mov	r0, r3
     734:	465a      	mov	r2, fp
     736:	2100      	movs	r1, #0
     738:	9311      	str	r3, [sp, #68]	; 0x44
     73a:	f005 fbfd 	bl	5f38 <memchr>
/mnt/disk/raspbian-tee/optee_os/lib/libutils/ext/snprintk.c:453
     73e:	9b11      	ldr	r3, [sp, #68]	; 0x44
     740:	b120      	cbz	r0, 74c <__vsnprintf+0x258>
/mnt/disk/raspbian-tee/optee_os/lib/libutils/ext/snprintk.c:454
     742:	1ac0      	subs	r0, r0, r3
     744:	4583      	cmp	fp, r0
     746:	bfa8      	it	ge
     748:	4683      	movge	fp, r0
/mnt/disk/raspbian-tee/optee_os/lib/libutils/ext/snprintk.c:285
     74a:	2000      	movs	r0, #0
/mnt/disk/raspbian-tee/optee_os/lib/libutils/ext/snprintk.c:461
     74c:	4682      	mov	sl, r0
     74e:	e08a      	b.n	866 <__vsnprintf+0x372>
/mnt/disk/raspbian-tee/optee_os/lib/libutils/ext/snprintk.c:291
     750:	f1b9 0f78 	cmp.w	r9, #120	; 0x78
     754:	f000 81c2 	beq.w	adc <__vsnprintf+0x5e8>
     758:	f1b9 0f7a 	cmp.w	r9, #122	; 0x7a
     75c:	d076      	beq.n	84c <__vsnprintf+0x358>
     75e:	f1b9 0f75 	cmp.w	r9, #117	; 0x75
     762:	f47f af27 	bne.w	5b4 <__vsnprintf+0xc0>
/mnt/disk/raspbian-tee/optee_os/lib/libutils/ext/snprintk.c:467
     766:	f016 0380 	ands.w	r3, r6, #128	; 0x80
     76a:	f000 819b 	beq.w	aa4 <__vsnprintf+0x5b0>
     76e:	3207      	adds	r2, #7
     770:	f022 0207 	bic.w	r2, r2, #7
     774:	f102 0708 	add.w	r7, r2, #8
     778:	e9d2 4500 	ldrd	r4, r5, [r2]
/mnt/disk/raspbian-tee/optee_os/lib/libutils/ext/snprintk.c:482
     77c:	f04f 0a00 	mov.w	sl, #0
     780:	e0d4      	b.n	92c <__vsnprintf+0x438>
/mnt/disk/raspbian-tee/optee_os/lib/libutils/ext/snprintk.c:471
     782:	f8df 3494 	ldr.w	r3, [pc, #1172]	; c18 <__vsnprintf+0x724>
     786:	447b      	add	r3, pc
/mnt/disk/raspbian-tee/optee_os/lib/libutils/ext/snprintk.c:474
     788:	930f      	str	r3, [sp, #60]	; 0x3c
/mnt/disk/raspbian-tee/optee_os/lib/libutils/ext/snprintk.c:475
     78a:	0637      	lsls	r7, r6, #24
     78c:	f140 81aa 	bpl.w	ae4 <__vsnprintf+0x5f0>
     790:	3207      	adds	r2, #7
     792:	f022 0207 	bic.w	r2, r2, #7
     796:	f102 0708 	add.w	r7, r2, #8
     79a:	e9d2 4500 	ldrd	r4, r5, [r2]
/mnt/disk/raspbian-tee/optee_os/lib/libutils/ext/snprintk.c:478
     79e:	07f3      	lsls	r3, r6, #31
     7a0:	f140 815c 	bpl.w	a5c <__vsnprintf+0x568>
     7a4:	ea54 0305 	orrs.w	r3, r4, r5
     7a8:	f000 822d 	beq.w	c06 <__vsnprintf+0x712>
/mnt/disk/raspbian-tee/optee_os/lib/libutils/ext/snprintk.c:479
     7ac:	f046 0602 	orr.w	r6, r6, #2
/mnt/disk/raspbian-tee/optee_os/lib/libutils/ext/snprintk.c:488
     7b0:	f1bb 3fff 	cmp.w	fp, #4294967295	; 0xffffffff
     7b4:	f000 822a 	beq.w	c0c <__vsnprintf+0x718>
     7b8:	f04f 0a00 	mov.w	sl, #0
     7bc:	2302      	movs	r3, #2
     7be:	e74a      	b.n	656 <__vsnprintf+0x162>
/mnt/disk/raspbian-tee/optee_os/lib/libutils/ext/snprintk.c:299
     7c0:	f1ba 0f00 	cmp.w	sl, #0
     7c4:	f04f 0320 	mov.w	r3, #32
     7c8:	bf08      	it	eq
     7ca:	469a      	moveq	sl, r3
     7cc:	e70a      	b.n	5e4 <__vsnprintf+0xf0>
/mnt/disk/raspbian-tee/optee_os/lib/libutils/ext/snprintk.c:302
     7ce:	f046 0601 	orr.w	r6, r6, #1
     7d2:	e707      	b.n	5e4 <__vsnprintf+0xf0>
/mnt/disk/raspbian-tee/optee_os/lib/libutils/ext/snprintk.c:311
     7d4:	1d13      	adds	r3, r2, #4
     7d6:	6812      	ldr	r2, [r2, #0]
     7d8:	920d      	str	r2, [sp, #52]	; 0x34
     7da:	2a00      	cmp	r2, #0
     7dc:	f6bf aef4 	bge.w	5c8 <__vsnprintf+0xd4>
/mnt/disk/raspbian-tee/optee_os/lib/libutils/ext/snprintk.c:313
     7e0:	4252      	negs	r2, r2
     7e2:	920d      	str	r2, [sp, #52]	; 0x34
/mnt/disk/raspbian-tee/optee_os/lib/libutils/ext/snprintk.c:311
     7e4:	461a      	mov	r2, r3
/mnt/disk/raspbian-tee/optee_os/lib/libutils/ext/snprintk.c:316
     7e6:	f046 0604 	orr.w	r6, r6, #4
     7ea:	e6fb      	b.n	5e4 <__vsnprintf+0xf0>
/mnt/disk/raspbian-tee/optee_os/lib/libutils/ext/snprintk.c:322
     7ec:	990b      	ldr	r1, [sp, #44]	; 0x2c
     7ee:	9b0b      	ldr	r3, [sp, #44]	; 0x2c
     7f0:	f891 9000 	ldrb.w	r9, [r1]
     7f4:	3301      	adds	r3, #1
     7f6:	f1b9 0f2a 	cmp.w	r9, #42	; 0x2a
     7fa:	d00e      	beq.n	81a <__vsnprintf+0x326>
     7fc:	f04f 0b00 	mov.w	fp, #0
/mnt/disk/raspbian-tee/optee_os/lib/libutils/ext/snprintk.c:330
     800:	930b      	str	r3, [sp, #44]	; 0x2c
/mnt/disk/raspbian-tee/optee_os/lib/libutils/ext/snprintk.c:328
     802:	f1a9 0330 	sub.w	r3, r9, #48	; 0x30
     806:	2b09      	cmp	r3, #9
     808:	f63f aebc 	bhi.w	584 <__vsnprintf+0x90>
/mnt/disk/raspbian-tee/optee_os/lib/libutils/ext/snprintk.c:329
     80c:	210a      	movs	r1, #10
     80e:	fb01 3b0b 	mla	fp, r1, fp, r3
/mnt/disk/raspbian-tee/optee_os/lib/libutils/ext/snprintk.c:330
     812:	9b0b      	ldr	r3, [sp, #44]	; 0x2c
     814:	f813 9b01 	ldrb.w	r9, [r3], #1
     818:	e7f2      	b.n	800 <__vsnprintf+0x30c>
/mnt/disk/raspbian-tee/optee_os/lib/libutils/ext/snprintk.c:324
     81a:	6811      	ldr	r1, [r2, #0]
/mnt/disk/raspbian-tee/optee_os/lib/libutils/ext/snprintk.c:323
     81c:	3204      	adds	r2, #4
/mnt/disk/raspbian-tee/optee_os/lib/libutils/ext/snprintk.c:322
     81e:	930b      	str	r3, [sp, #44]	; 0x2c
/mnt/disk/raspbian-tee/optee_os/lib/libutils/ext/snprintk.c:324
     820:	ea41 7be1 	orr.w	fp, r1, r1, asr #31
     824:	e6de      	b.n	5e4 <__vsnprintf+0xf0>
/mnt/disk/raspbian-tee/optee_os/lib/libutils/ext/snprintk.c:340
     826:	f446 6680 	orr.w	r6, r6, #1024	; 0x400
     82a:	e6db      	b.n	5e4 <__vsnprintf+0xf0>
/mnt/disk/raspbian-tee/optee_os/lib/libutils/ext/snprintk.c:358
     82c:	9b0b      	ldr	r3, [sp, #44]	; 0x2c
     82e:	781b      	ldrb	r3, [r3, #0]
     830:	2b6c      	cmp	r3, #108	; 0x6c
     832:	d105      	bne.n	840 <__vsnprintf+0x34c>
/mnt/disk/raspbian-tee/optee_os/lib/libutils/ext/snprintk.c:359
     834:	9b0b      	ldr	r3, [sp, #44]	; 0x2c
     836:	3301      	adds	r3, #1
     838:	930b      	str	r3, [sp, #44]	; 0x2c
/mnt/disk/raspbian-tee/optee_os/lib/libutils/ext/snprintk.c:366
     83a:	f046 0620 	orr.w	r6, r6, #32
     83e:	e6d1      	b.n	5e4 <__vsnprintf+0xf0>
/mnt/disk/raspbian-tee/optee_os/lib/libutils/ext/snprintk.c:362
     840:	f046 0610 	orr.w	r6, r6, #16
     844:	e6ce      	b.n	5e4 <__vsnprintf+0xf0>
/mnt/disk/raspbian-tee/optee_os/lib/libutils/ext/snprintk.c:369
     846:	f446 7680 	orr.w	r6, r6, #256	; 0x100
     84a:	e6cb      	b.n	5e4 <__vsnprintf+0xf0>
/mnt/disk/raspbian-tee/optee_os/lib/libutils/ext/snprintk.c:372
     84c:	f446 7600 	orr.w	r6, r6, #512	; 0x200
     850:	e6c8      	b.n	5e4 <__vsnprintf+0xf0>
/mnt/disk/raspbian-tee/optee_os/lib/libutils/ext/snprintk.c:375
     852:	ab1e      	add	r3, sp, #120	; 0x78
/mnt/disk/raspbian-tee/optee_os/lib/libutils/ext/snprintk.c:285
     854:	f04f 0a00 	mov.w	sl, #0
/mnt/disk/raspbian-tee/optee_os/lib/libutils/ext/snprintk.c:375
     858:	1d17      	adds	r7, r2, #4
/mnt/disk/raspbian-tee/optee_os/lib/libutils/ext/snprintk.c:376
     85a:	f04f 0b01 	mov.w	fp, #1
/mnt/disk/raspbian-tee/optee_os/lib/libutils/ext/snprintk.c:375
     85e:	6812      	ldr	r2, [r2, #0]
/mnt/disk/raspbian-tee/optee_os/lib/libutils/ext/snprintk.c:377
     860:	4650      	mov	r0, sl
/mnt/disk/raspbian-tee/optee_os/lib/libutils/ext/snprintk.c:375
     862:	f803 2d28 	strb.w	r2, [r3, #-40]!
/mnt/disk/raspbian-tee/optee_os/lib/libutils/ext/snprintk.c:565
     866:	4558      	cmp	r0, fp
     868:	4602      	mov	r2, r0
     86a:	bfb8      	it	lt
     86c:	465a      	movlt	r2, fp
/mnt/disk/raspbian-tee/optee_os/lib/libutils/ext/snprintk.c:566
     86e:	f1ba 0f00 	cmp.w	sl, #0
     872:	f000 8165 	beq.w	b40 <__vsnprintf+0x64c>
/mnt/disk/raspbian-tee/optee_os/lib/libutils/ext/snprintk.c:567
     876:	3201      	adds	r2, #1
/mnt/disk/raspbian-tee/optee_os/lib/libutils/ext/snprintk.c:572
     878:	990d      	ldr	r1, [sp, #52]	; 0x34
     87a:	9c0c      	ldr	r4, [sp, #48]	; 0x30
     87c:	4291      	cmp	r1, r2
     87e:	bfb8      	it	lt
     880:	4611      	movlt	r1, r2
     882:	440c      	add	r4, r1
/mnt/disk/raspbian-tee/optee_os/lib/libutils/ext/snprintk.c:575
     884:	f240 4104 	movw	r1, #1028	; 0x404
/mnt/disk/raspbian-tee/optee_os/lib/libutils/ext/snprintk.c:572
     888:	940c      	str	r4, [sp, #48]	; 0x30
/mnt/disk/raspbian-tee/optee_os/lib/libutils/ext/snprintk.c:575
     88a:	ea16 0401 	ands.w	r4, r6, r1
     88e:	d106      	bne.n	89e <__vsnprintf+0x3aa>
/mnt/disk/raspbian-tee/optee_os/lib/libutils/ext/snprintk.c:576
     890:	990d      	ldr	r1, [sp, #52]	; 0x34
/mnt/disk/raspbian-tee/optee_os/lib/libutils/ext/snprintk.c:578
     892:	f04f 0c20 	mov.w	ip, #32
/mnt/disk/raspbian-tee/optee_os/lib/libutils/ext/snprintk.c:576
     896:	1a89      	subs	r1, r1, r2
/mnt/disk/raspbian-tee/optee_os/lib/libutils/ext/snprintk.c:577
     898:	2900      	cmp	r1, #0
     89a:	f300 8155 	bgt.w	b48 <__vsnprintf+0x654>
/mnt/disk/raspbian-tee/optee_os/lib/libutils/ext/snprintk.c:582
     89e:	f1ba 0f00 	cmp.w	sl, #0
     8a2:	f000 8166 	beq.w	b72 <__vsnprintf+0x67e>
/mnt/disk/raspbian-tee/optee_os/lib/libutils/ext/snprintk.c:583
     8a6:	f1b8 0f00 	cmp.w	r8, #0
     8aa:	f040 8159 	bne.w	b60 <__vsnprintf+0x66c>
/mnt/disk/raspbian-tee/optee_os/lib/libutils/ext/snprintk.c:586
     8ae:	f04f 0800 	mov.w	r8, #0
/mnt/disk/raspbian-tee/optee_os/lib/libutils/ext/snprintk.c:590
     8b2:	f5b4 6f80 	cmp.w	r4, #1024	; 0x400
     8b6:	d105      	bne.n	8c4 <__vsnprintf+0x3d0>
/mnt/disk/raspbian-tee/optee_os/lib/libutils/ext/snprintk.c:591
     8b8:	990d      	ldr	r1, [sp, #52]	; 0x34
/mnt/disk/raspbian-tee/optee_os/lib/libutils/ext/snprintk.c:593
     8ba:	2430      	movs	r4, #48	; 0x30
/mnt/disk/raspbian-tee/optee_os/lib/libutils/ext/snprintk.c:591
     8bc:	1a89      	subs	r1, r1, r2
/mnt/disk/raspbian-tee/optee_os/lib/libutils/ext/snprintk.c:592
     8be:	2900      	cmp	r1, #0
     8c0:	f300 8173 	bgt.w	baa <__vsnprintf+0x6b6>
/mnt/disk/raspbian-tee/optee_os/lib/libutils/ext/snprintk.c:597
     8c4:	eba0 000b 	sub.w	r0, r0, fp
/mnt/disk/raspbian-tee/optee_os/lib/libutils/ext/snprintk.c:599
     8c8:	2130      	movs	r1, #48	; 0x30
/mnt/disk/raspbian-tee/optee_os/lib/libutils/ext/snprintk.c:598
     8ca:	2800      	cmp	r0, #0
     8cc:	f300 8179 	bgt.w	bc2 <__vsnprintf+0x6ce>
     8d0:	eb03 010b 	add.w	r1, r3, fp
/mnt/disk/raspbian-tee/optee_os/lib/libutils/ext/snprintk.c:602
     8d4:	428b      	cmp	r3, r1
     8d6:	f040 8180 	bne.w	bda <__vsnprintf+0x6e6>
/mnt/disk/raspbian-tee/optee_os/lib/libutils/ext/snprintk.c:605
     8da:	0773      	lsls	r3, r6, #29
     8dc:	f57f ae1b 	bpl.w	516 <__vsnprintf+0x22>
/mnt/disk/raspbian-tee/optee_os/lib/libutils/ext/snprintk.c:606
     8e0:	9b0d      	ldr	r3, [sp, #52]	; 0x34
     8e2:	1a9b      	subs	r3, r3, r2
/mnt/disk/raspbian-tee/optee_os/lib/libutils/ext/snprintk.c:608
     8e4:	2220      	movs	r2, #32
/mnt/disk/raspbian-tee/optee_os/lib/libutils/ext/snprintk.c:607
     8e6:	2b00      	cmp	r3, #0
     8e8:	f77f ae15 	ble.w	516 <__vsnprintf+0x22>
/mnt/disk/raspbian-tee/optee_os/lib/libutils/ext/snprintk.c:608
     8ec:	f1b8 0f00 	cmp.w	r8, #0
     8f0:	d006      	beq.n	900 <__vsnprintf+0x40c>
     8f2:	990e      	ldr	r1, [sp, #56]	; 0x38
     8f4:	4541      	cmp	r1, r8
     8f6:	d903      	bls.n	900 <__vsnprintf+0x40c>
     8f8:	f888 2000 	strb.w	r2, [r8]
     8fc:	f108 0801 	add.w	r8, r8, #1
     900:	3b01      	subs	r3, #1
     902:	e7f0      	b.n	8e6 <__vsnprintf+0x3f2>
/mnt/disk/raspbian-tee/optee_os/lib/libutils/ext/snprintk.c:380
     904:	f046 0610 	orr.w	r6, r6, #16
/mnt/disk/raspbian-tee/optee_os/lib/libutils/ext/snprintk.c:384
     908:	0631      	lsls	r1, r6, #24
     90a:	d523      	bpl.n	954 <__vsnprintf+0x460>
     90c:	3207      	adds	r2, #7
     90e:	f022 0207 	bic.w	r2, r2, #7
     912:	f102 0708 	add.w	r7, r2, #8
     916:	e9d2 4500 	ldrd	r4, r5, [r2]
/mnt/disk/raspbian-tee/optee_os/lib/libutils/ext/snprintk.c:385
     91a:	2c00      	cmp	r4, #0
     91c:	f175 0300 	sbcs.w	r3, r5, #0
     920:	da04      	bge.n	92c <__vsnprintf+0x438>
/mnt/disk/raspbian-tee/optee_os/lib/libutils/ext/snprintk.c:386
     922:	4264      	negs	r4, r4
/mnt/disk/raspbian-tee/optee_os/lib/libutils/ext/snprintk.c:387
     924:	f04f 0a2d 	mov.w	sl, #45	; 0x2d
/mnt/disk/raspbian-tee/optee_os/lib/libutils/ext/snprintk.c:386
     928:	eb65 0545 	sbc.w	r5, r5, r5, lsl #1
/mnt/disk/raspbian-tee/optee_os/lib/libutils/ext/snprintk.c:488
     92c:	f1bb 3fff 	cmp.w	fp, #4294967295	; 0xffffffff
     930:	f040 80ec 	bne.w	b0c <__vsnprintf+0x618>
/mnt/disk/raspbian-tee/optee_os/lib/libutils/ext/snprintk.c:508
     934:	f10d 0375 	add.w	r3, sp, #117	; 0x75
     938:	9311      	str	r3, [sp, #68]	; 0x44
     93a:	9b11      	ldr	r3, [sp, #68]	; 0x44
/mnt/disk/raspbian-tee/optee_os/lib/libutils/ext/snprintk.c:516
     93c:	2d00      	cmp	r5, #0
     93e:	bf08      	it	eq
     940:	2c0a      	cmpeq	r4, #10
     942:	f103 33ff 	add.w	r3, r3, #4294967295	; 0xffffffff
     946:	f080 80e5 	bcs.w	b14 <__vsnprintf+0x620>
/mnt/disk/raspbian-tee/optee_os/lib/libutils/ext/snprintk.c:520
     94a:	9a11      	ldr	r2, [sp, #68]	; 0x44
     94c:	3430      	adds	r4, #48	; 0x30
     94e:	f802 4c01 	strb.w	r4, [r2, #-1]
     952:	e6ac      	b.n	6ae <__vsnprintf+0x1ba>
/mnt/disk/raspbian-tee/optee_os/lib/libutils/ext/snprintk.c:384
     954:	05f3      	lsls	r3, r6, #23
     956:	d503      	bpl.n	960 <__vsnprintf+0x46c>
     958:	1d17      	adds	r7, r2, #4
     95a:	6814      	ldr	r4, [r2, #0]
     95c:	17e5      	asrs	r5, r4, #31
     95e:	e7dc      	b.n	91a <__vsnprintf+0x426>
     960:	05b7      	lsls	r7, r6, #22
     962:	d4f9      	bmi.n	958 <__vsnprintf+0x464>
     964:	06b5      	lsls	r5, r6, #26
     966:	d4d1      	bmi.n	90c <__vsnprintf+0x418>
     968:	f016 0f10 	tst.w	r6, #16
     96c:	f102 0704 	add.w	r7, r2, #4
     970:	d1f3      	bne.n	95a <__vsnprintf+0x466>
     972:	f016 0f40 	tst.w	r6, #64	; 0x40
     976:	6814      	ldr	r4, [r2, #0]
     978:	d0f0      	beq.n	95c <__vsnprintf+0x468>
     97a:	b224      	sxth	r4, r4
     97c:	e7ee      	b.n	95c <__vsnprintf+0x468>
/mnt/disk/raspbian-tee/optee_os/lib/libutils/ext/snprintk.c:392
     97e:	f016 0f80 	tst.w	r6, #128	; 0x80
     982:	f102 0704 	add.w	r7, r2, #4
     986:	d006      	beq.n	996 <__vsnprintf+0x4a2>
/mnt/disk/raspbian-tee/optee_os/lib/libutils/ext/snprintk.c:399
     988:	6813      	ldr	r3, [r2, #0]
     98a:	9a0c      	ldr	r2, [sp, #48]	; 0x30
     98c:	4610      	mov	r0, r2
     98e:	17d1      	asrs	r1, r2, #31
     990:	e9c3 0100 	strd	r0, r1, [r3]
     994:	e5bf      	b.n	516 <__vsnprintf+0x22>
/mnt/disk/raspbian-tee/optee_os/lib/libutils/ext/snprintk.c:394
     996:	05f4      	lsls	r4, r6, #23
     998:	d503      	bpl.n	9a2 <__vsnprintf+0x4ae>
/mnt/disk/raspbian-tee/optee_os/lib/libutils/ext/snprintk.c:405
     99a:	6813      	ldr	r3, [r2, #0]
     99c:	9a0c      	ldr	r2, [sp, #48]	; 0x30
     99e:	601a      	str	r2, [r3, #0]
     9a0:	e5b9      	b.n	516 <__vsnprintf+0x22>
/mnt/disk/raspbian-tee/optee_os/lib/libutils/ext/snprintk.c:396
     9a2:	05b0      	lsls	r0, r6, #22
     9a4:	d4f9      	bmi.n	99a <__vsnprintf+0x4a6>
/mnt/disk/raspbian-tee/optee_os/lib/libutils/ext/snprintk.c:398
     9a6:	06b1      	lsls	r1, r6, #26
     9a8:	d4ee      	bmi.n	988 <__vsnprintf+0x494>
/mnt/disk/raspbian-tee/optee_os/lib/libutils/ext/snprintk.c:400
     9aa:	06f3      	lsls	r3, r6, #27
     9ac:	d4f5      	bmi.n	99a <__vsnprintf+0x4a6>
/mnt/disk/raspbian-tee/optee_os/lib/libutils/ext/snprintk.c:402
     9ae:	0676      	lsls	r6, r6, #25
     9b0:	d5f3      	bpl.n	99a <__vsnprintf+0x4a6>
/mnt/disk/raspbian-tee/optee_os/lib/libutils/ext/snprintk.c:403
     9b2:	6813      	ldr	r3, [r2, #0]
     9b4:	f8bd 2030 	ldrh.w	r2, [sp, #48]	; 0x30
     9b8:	801a      	strh	r2, [r3, #0]
     9ba:	e5ac      	b.n	516 <__vsnprintf+0x22>
/mnt/disk/raspbian-tee/optee_os/lib/libutils/ext/snprintk.c:411
     9bc:	05f4      	lsls	r4, r6, #23
     9be:	d502      	bpl.n	9c6 <__vsnprintf+0x4d2>
     9c0:	1d17      	adds	r7, r2, #4
     9c2:	6814      	ldr	r4, [r2, #0]
     9c4:	e00c      	b.n	9e0 <__vsnprintf+0x4ec>
     9c6:	05b0      	lsls	r0, r6, #22
     9c8:	d4fa      	bmi.n	9c0 <__vsnprintf+0x4cc>
     9ca:	06b1      	lsls	r1, r6, #26
     9cc:	f53f ae36 	bmi.w	63c <__vsnprintf+0x148>
     9d0:	f016 0f10 	tst.w	r6, #16
     9d4:	f102 0704 	add.w	r7, r2, #4
     9d8:	d1f3      	bne.n	9c2 <__vsnprintf+0x4ce>
     9da:	0673      	lsls	r3, r6, #25
     9dc:	d5f1      	bpl.n	9c2 <__vsnprintf+0x4ce>
     9de:	8814      	ldrh	r4, [r2, #0]
     9e0:	2500      	movs	r5, #0
     9e2:	e632      	b.n	64a <__vsnprintf+0x156>
/mnt/disk/raspbian-tee/optee_os/lib/libutils/ext/snprintk.c:415
     9e4:	9b13      	ldr	r3, [sp, #76]	; 0x4c
     9e6:	2b00      	cmp	r3, #0
     9e8:	d02d      	beq.n	a46 <__vsnprintf+0x552>
     9ea:	9b0b      	ldr	r3, [sp, #44]	; 0x2c
     9ec:	781b      	ldrb	r3, [r3, #0]
     9ee:	2b55      	cmp	r3, #85	; 0x55
     9f0:	d129      	bne.n	a46 <__vsnprintf+0x552>
     9f2:	9b0b      	ldr	r3, [sp, #44]	; 0x2c
     9f4:	785b      	ldrb	r3, [r3, #1]
     9f6:	2b6c      	cmp	r3, #108	; 0x6c
     9f8:	d125      	bne.n	a46 <__vsnprintf+0x552>
/mnt/disk/raspbian-tee/optee_os/lib/libutils/ext/snprintk.c:420
     9fa:	9b0b      	ldr	r3, [sp, #44]	; 0x2c
/mnt/disk/raspbian-tee/optee_os/lib/libutils/ext/snprintk.c:421
     9fc:	1d17      	adds	r7, r2, #4
uuid2str():
/mnt/disk/raspbian-tee/optee_os/lib/libutils/ext/snprintk.c:223
     9fe:	ac14      	add	r4, sp, #80	; 0x50
     a00:	2125      	movs	r1, #37	; 0x25
kprintf():
/mnt/disk/raspbian-tee/optee_os/lib/libutils/ext/snprintk.c:420
     a02:	3302      	adds	r3, #2
     a04:	930b      	str	r3, [sp, #44]	; 0x2c
/mnt/disk/raspbian-tee/optee_os/lib/libutils/ext/snprintk.c:421
     a06:	6813      	ldr	r3, [r2, #0]
uuid2str():
/mnt/disk/raspbian-tee/optee_os/lib/libutils/ext/snprintk.c:223
     a08:	4620      	mov	r0, r4
     a0a:	7bda      	ldrb	r2, [r3, #15]
     a0c:	9209      	str	r2, [sp, #36]	; 0x24
     a0e:	7b9a      	ldrb	r2, [r3, #14]
     a10:	9208      	str	r2, [sp, #32]
     a12:	7b5a      	ldrb	r2, [r3, #13]
     a14:	9207      	str	r2, [sp, #28]
     a16:	7b1a      	ldrb	r2, [r3, #12]
     a18:	9206      	str	r2, [sp, #24]
     a1a:	7ada      	ldrb	r2, [r3, #11]
     a1c:	9205      	str	r2, [sp, #20]
     a1e:	7a9a      	ldrb	r2, [r3, #10]
     a20:	9204      	str	r2, [sp, #16]
     a22:	7a5a      	ldrb	r2, [r3, #9]
     a24:	9203      	str	r2, [sp, #12]
     a26:	7a1a      	ldrb	r2, [r3, #8]
     a28:	9202      	str	r2, [sp, #8]
     a2a:	88da      	ldrh	r2, [r3, #6]
     a2c:	9201      	str	r2, [sp, #4]
     a2e:	889a      	ldrh	r2, [r3, #4]
     a30:	9200      	str	r2, [sp, #0]
     a32:	4a7a      	ldr	r2, [pc, #488]	; (c1c <__vsnprintf+0x728>)
     a34:	681b      	ldr	r3, [r3, #0]
     a36:	447a      	add	r2, pc
     a38:	f000 f8fd 	bl	c36 <snprintk>
     a3c:	4683      	mov	fp, r0
kprintf():
/mnt/disk/raspbian-tee/optee_os/lib/libutils/ext/snprintk.c:285
     a3e:	2000      	movs	r0, #0
/mnt/disk/raspbian-tee/optee_os/lib/libutils/ext/snprintk.c:423
     a40:	4623      	mov	r3, r4
/mnt/disk/raspbian-tee/optee_os/lib/libutils/ext/snprintk.c:424
     a42:	4682      	mov	sl, r0
     a44:	e70f      	b.n	866 <__vsnprintf+0x372>
/mnt/disk/raspbian-tee/optee_os/lib/libutils/ext/snprintk.c:437
     a46:	4b76      	ldr	r3, [pc, #472]	; (c20 <__vsnprintf+0x72c>)
/mnt/disk/raspbian-tee/optee_os/lib/libutils/ext/snprintk.c:435
     a48:	1d17      	adds	r7, r2, #4
     a4a:	6814      	ldr	r4, [r2, #0]
     a4c:	2500      	movs	r5, #0
/mnt/disk/raspbian-tee/optee_os/lib/libutils/ext/snprintk.c:437
     a4e:	447b      	add	r3, pc
/mnt/disk/raspbian-tee/optee_os/lib/libutils/ext/snprintk.c:438
     a50:	f046 0602 	orr.w	r6, r6, #2
/mnt/disk/raspbian-tee/optee_os/lib/libutils/ext/snprintk.c:439
     a54:	f04f 0978 	mov.w	r9, #120	; 0x78
/mnt/disk/raspbian-tee/optee_os/lib/libutils/ext/snprintk.c:437
     a58:	3311      	adds	r3, #17
     a5a:	930f      	str	r3, [sp, #60]	; 0x3c
/mnt/disk/raspbian-tee/optee_os/lib/libutils/ext/snprintk.c:488
     a5c:	f1bb 3fff 	cmp.w	fp, #4294967295	; 0xffffffff
     a60:	f47f aeaa 	bne.w	7b8 <__vsnprintf+0x2c4>
     a64:	f04f 0a00 	mov.w	sl, #0
     a68:	f10d 0375 	add.w	r3, sp, #117	; 0x75
/mnt/disk/raspbian-tee/optee_os/lib/libutils/ext/snprintk.c:525
     a6c:	f004 020f 	and.w	r2, r4, #15
     a70:	990f      	ldr	r1, [sp, #60]	; 0x3c
     a72:	5c8a      	ldrb	r2, [r1, r2]
/mnt/disk/raspbian-tee/optee_os/lib/libutils/ext/snprintk.c:526
     a74:	0929      	lsrs	r1, r5, #4
/mnt/disk/raspbian-tee/optee_os/lib/libutils/ext/snprintk.c:525
     a76:	f803 2d01 	strb.w	r2, [r3, #-1]!
/mnt/disk/raspbian-tee/optee_os/lib/libutils/ext/snprintk.c:526
     a7a:	0922      	lsrs	r2, r4, #4
     a7c:	ea42 7205 	orr.w	r2, r2, r5, lsl #28
     a80:	460d      	mov	r5, r1
     a82:	4614      	mov	r4, r2
/mnt/disk/raspbian-tee/optee_os/lib/libutils/ext/snprintk.c:527
     a84:	ea54 0205 	orrs.w	r2, r4, r5
     a88:	d1f0      	bne.n	a6c <__vsnprintf+0x578>
     a8a:	e610      	b.n	6ae <__vsnprintf+0x1ba>
/mnt/disk/raspbian-tee/optee_os/lib/libutils/ext/snprintk.c:460
     a8c:	4618      	mov	r0, r3
     a8e:	9311      	str	r3, [sp, #68]	; 0x44
     a90:	f005 fa60 	bl	5f54 <strlen>
     a94:	4683      	mov	fp, r0
/mnt/disk/raspbian-tee/optee_os/lib/libutils/ext/snprintk.c:285
     a96:	2000      	movs	r0, #0
     a98:	9b11      	ldr	r3, [sp, #68]	; 0x44
/mnt/disk/raspbian-tee/optee_os/lib/libutils/ext/snprintk.c:461
     a9a:	4682      	mov	sl, r0
     a9c:	e6e3      	b.n	866 <__vsnprintf+0x372>
/mnt/disk/raspbian-tee/optee_os/lib/libutils/ext/snprintk.c:464
     a9e:	f046 0610 	orr.w	r6, r6, #16
     aa2:	e660      	b.n	766 <__vsnprintf+0x272>
/mnt/disk/raspbian-tee/optee_os/lib/libutils/ext/snprintk.c:467
     aa4:	f416 7a80 	ands.w	sl, r6, #256	; 0x100
     aa8:	d003      	beq.n	ab2 <__vsnprintf+0x5be>
     aaa:	6814      	ldr	r4, [r2, #0]
     aac:	1d17      	adds	r7, r2, #4
     aae:	2500      	movs	r5, #0
     ab0:	e664      	b.n	77c <__vsnprintf+0x288>
     ab2:	f416 7300 	ands.w	r3, r6, #512	; 0x200
     ab6:	d003      	beq.n	ac0 <__vsnprintf+0x5cc>
     ab8:	1d17      	adds	r7, r2, #4
     aba:	6814      	ldr	r4, [r2, #0]
     abc:	2500      	movs	r5, #0
     abe:	e735      	b.n	92c <__vsnprintf+0x438>
     ac0:	f016 0a20 	ands.w	sl, r6, #32
     ac4:	f47f ae53 	bne.w	76e <__vsnprintf+0x27a>
     ac8:	f016 0310 	ands.w	r3, r6, #16
     acc:	f102 0704 	add.w	r7, r2, #4
     ad0:	d1f3      	bne.n	aba <__vsnprintf+0x5c6>
     ad2:	f016 0a40 	ands.w	sl, r6, #64	; 0x40
     ad6:	d0f0      	beq.n	aba <__vsnprintf+0x5c6>
     ad8:	8814      	ldrh	r4, [r2, #0]
     ada:	e7e8      	b.n	aae <__vsnprintf+0x5ba>
/mnt/disk/raspbian-tee/optee_os/lib/libutils/ext/snprintk.c:474
     adc:	4b51      	ldr	r3, [pc, #324]	; (c24 <__vsnprintf+0x730>)
     ade:	447b      	add	r3, pc
     ae0:	3311      	adds	r3, #17
     ae2:	e651      	b.n	788 <__vsnprintf+0x294>
/mnt/disk/raspbian-tee/optee_os/lib/libutils/ext/snprintk.c:475
     ae4:	05f5      	lsls	r5, r6, #23
     ae6:	d502      	bpl.n	aee <__vsnprintf+0x5fa>
     ae8:	1d17      	adds	r7, r2, #4
     aea:	6814      	ldr	r4, [r2, #0]
     aec:	e00c      	b.n	b08 <__vsnprintf+0x614>
     aee:	05b4      	lsls	r4, r6, #22
     af0:	d4fa      	bmi.n	ae8 <__vsnprintf+0x5f4>
     af2:	06b0      	lsls	r0, r6, #26
     af4:	f53f ae4c 	bmi.w	790 <__vsnprintf+0x29c>
     af8:	f016 0f10 	tst.w	r6, #16
     afc:	f102 0704 	add.w	r7, r2, #4
     b00:	d1f3      	bne.n	aea <__vsnprintf+0x5f6>
     b02:	0671      	lsls	r1, r6, #25
     b04:	d5f1      	bpl.n	aea <__vsnprintf+0x5f6>
     b06:	8814      	ldrh	r4, [r2, #0]
     b08:	2500      	movs	r5, #0
     b0a:	e648      	b.n	79e <__vsnprintf+0x2aa>
/mnt/disk/raspbian-tee/optee_os/lib/libutils/ext/snprintk.c:488
     b0c:	2301      	movs	r3, #1
     b0e:	e5a2      	b.n	656 <__vsnprintf+0x162>
/mnt/disk/raspbian-tee/optee_os/lib/libutils/ext/snprintk.c:508
     b10:	461a      	mov	r2, r3
     b12:	e5b3      	b.n	67c <__vsnprintf+0x188>
/mnt/disk/raspbian-tee/optee_os/lib/libutils/ext/snprintk.c:517
     b14:	9311      	str	r3, [sp, #68]	; 0x44
     b16:	4620      	mov	r0, r4
     b18:	4629      	mov	r1, r5
     b1a:	220a      	movs	r2, #10
     b1c:	2300      	movs	r3, #0
     b1e:	f000 ea02 	blx	f24 <__aeabi_uldivmod>
     b22:	9b11      	ldr	r3, [sp, #68]	; 0x44
     b24:	3230      	adds	r2, #48	; 0x30
/mnt/disk/raspbian-tee/optee_os/lib/libutils/ext/snprintk.c:518
     b26:	4620      	mov	r0, r4
     b28:	4629      	mov	r1, r5
/mnt/disk/raspbian-tee/optee_os/lib/libutils/ext/snprintk.c:517
     b2a:	701a      	strb	r2, [r3, #0]
/mnt/disk/raspbian-tee/optee_os/lib/libutils/ext/snprintk.c:518
     b2c:	220a      	movs	r2, #10
     b2e:	2300      	movs	r3, #0
     b30:	f000 e9f8 	blx	f24 <__aeabi_uldivmod>
     b34:	4604      	mov	r4, r0
     b36:	460d      	mov	r5, r1
     b38:	e6ff      	b.n	93a <__vsnprintf+0x446>
/mnt/disk/raspbian-tee/optee_os/lib/libutils/ext/snprintk.c:496
     b3a:	f10d 0375 	add.w	r3, sp, #117	; 0x75
     b3e:	e5b6      	b.n	6ae <__vsnprintf+0x1ba>
/mnt/disk/raspbian-tee/optee_os/lib/libutils/ext/snprintk.c:568
     b40:	07b4      	lsls	r4, r6, #30
/mnt/disk/raspbian-tee/optee_os/lib/libutils/ext/snprintk.c:569
     b42:	bf48      	it	mi
     b44:	3202      	addmi	r2, #2
     b46:	e697      	b.n	878 <__vsnprintf+0x384>
/mnt/disk/raspbian-tee/optee_os/lib/libutils/ext/snprintk.c:578
     b48:	f1b8 0f00 	cmp.w	r8, #0
     b4c:	d006      	beq.n	b5c <__vsnprintf+0x668>
     b4e:	9d0e      	ldr	r5, [sp, #56]	; 0x38
     b50:	4545      	cmp	r5, r8
     b52:	d903      	bls.n	b5c <__vsnprintf+0x668>
     b54:	f888 c000 	strb.w	ip, [r8]
     b58:	f108 0801 	add.w	r8, r8, #1
     b5c:	3901      	subs	r1, #1
     b5e:	e69b      	b.n	898 <__vsnprintf+0x3a4>
/mnt/disk/raspbian-tee/optee_os/lib/libutils/ext/snprintk.c:583
     b60:	990e      	ldr	r1, [sp, #56]	; 0x38
     b62:	4541      	cmp	r1, r8
     b64:	f67f aea5 	bls.w	8b2 <__vsnprintf+0x3be>
     b68:	f888 a000 	strb.w	sl, [r8]
     b6c:	f108 0801 	add.w	r8, r8, #1
     b70:	e69f      	b.n	8b2 <__vsnprintf+0x3be>
/mnt/disk/raspbian-tee/optee_os/lib/libutils/ext/snprintk.c:584
     b72:	07b1      	lsls	r1, r6, #30
     b74:	f57f ae9d 	bpl.w	8b2 <__vsnprintf+0x3be>
/mnt/disk/raspbian-tee/optee_os/lib/libutils/ext/snprintk.c:585
     b78:	f1b8 0f00 	cmp.w	r8, #0
     b7c:	f43f ae97 	beq.w	8ae <__vsnprintf+0x3ba>
     b80:	990e      	ldr	r1, [sp, #56]	; 0x38
     b82:	4541      	cmp	r1, r8
     b84:	f67f ae95 	bls.w	8b2 <__vsnprintf+0x3be>
     b88:	2130      	movs	r1, #48	; 0x30
     b8a:	f888 1000 	strb.w	r1, [r8]
/mnt/disk/raspbian-tee/optee_os/lib/libutils/ext/snprintk.c:586
     b8e:	f118 0101 	adds.w	r1, r8, #1
     b92:	f43f ae8c 	beq.w	8ae <__vsnprintf+0x3ba>
     b96:	9d0e      	ldr	r5, [sp, #56]	; 0x38
     b98:	428d      	cmp	r5, r1
     b9a:	d904      	bls.n	ba6 <__vsnprintf+0x6b2>
     b9c:	f888 9001 	strb.w	r9, [r8, #1]
     ba0:	f108 0802 	add.w	r8, r8, #2
     ba4:	e685      	b.n	8b2 <__vsnprintf+0x3be>
     ba6:	4688      	mov	r8, r1
     ba8:	e683      	b.n	8b2 <__vsnprintf+0x3be>
/mnt/disk/raspbian-tee/optee_os/lib/libutils/ext/snprintk.c:593
     baa:	f1b8 0f00 	cmp.w	r8, #0
     bae:	d006      	beq.n	bbe <__vsnprintf+0x6ca>
     bb0:	9d0e      	ldr	r5, [sp, #56]	; 0x38
     bb2:	4545      	cmp	r5, r8
     bb4:	d903      	bls.n	bbe <__vsnprintf+0x6ca>
     bb6:	f888 4000 	strb.w	r4, [r8]
     bba:	f108 0801 	add.w	r8, r8, #1
     bbe:	3901      	subs	r1, #1
     bc0:	e67d      	b.n	8be <__vsnprintf+0x3ca>
/mnt/disk/raspbian-tee/optee_os/lib/libutils/ext/snprintk.c:599
     bc2:	f1b8 0f00 	cmp.w	r8, #0
     bc6:	d006      	beq.n	bd6 <__vsnprintf+0x6e2>
     bc8:	9c0e      	ldr	r4, [sp, #56]	; 0x38
     bca:	4544      	cmp	r4, r8
     bcc:	d903      	bls.n	bd6 <__vsnprintf+0x6e2>
     bce:	f888 1000 	strb.w	r1, [r8]
     bd2:	f108 0801 	add.w	r8, r8, #1
     bd6:	3801      	subs	r0, #1
     bd8:	e677      	b.n	8ca <__vsnprintf+0x3d6>
/mnt/disk/raspbian-tee/optee_os/lib/libutils/ext/snprintk.c:603
     bda:	f1b8 0f00 	cmp.w	r8, #0
     bde:	d007      	beq.n	bf0 <__vsnprintf+0x6fc>
     be0:	980e      	ldr	r0, [sp, #56]	; 0x38
     be2:	4540      	cmp	r0, r8
     be4:	d904      	bls.n	bf0 <__vsnprintf+0x6fc>
     be6:	7818      	ldrb	r0, [r3, #0]
     be8:	f108 0801 	add.w	r8, r8, #1
     bec:	f808 0c01 	strb.w	r0, [r8, #-1]
/mnt/disk/raspbian-tee/optee_os/lib/libutils/ext/snprintk.c:602
     bf0:	3301      	adds	r3, #1
     bf2:	e66f      	b.n	8d4 <__vsnprintf+0x3e0>
__vsnprintf():
/mnt/disk/raspbian-tee/optee_os/lib/libutils/ext/snprintk.c:148
     bf4:	990c      	ldr	r1, [sp, #48]	; 0x30
     bf6:	5453      	strb	r3, [r2, r1]
/mnt/disk/raspbian-tee/optee_os/lib/libutils/ext/snprintk.c:150
     bf8:	e4a1      	b.n	53e <__vsnprintf+0x4a>
kprintf():
/mnt/disk/raspbian-tee/optee_os/lib/libutils/ext/snprintk.c:489
     bfa:	f426 6680 	bic.w	r6, r6, #1024	; 0x400
/mnt/disk/raspbian-tee/optee_os/lib/libutils/ext/snprintk.c:482
     bfe:	f04f 0a00 	mov.w	sl, #0
/mnt/disk/raspbian-tee/optee_os/lib/libutils/ext/snprintk.c:476
     c02:	2302      	movs	r3, #2
     c04:	e52c      	b.n	660 <__vsnprintf+0x16c>
/mnt/disk/raspbian-tee/optee_os/lib/libutils/ext/snprintk.c:488
     c06:	f1bb 3fff 	cmp.w	fp, #4294967295	; 0xffffffff
     c0a:	d1f6      	bne.n	bfa <__vsnprintf+0x706>
     c0c:	f04f 3bff 	mov.w	fp, #4294967295	; 0xffffffff
     c10:	e728      	b.n	a64 <__vsnprintf+0x570>
     c12:	bf00      	nop
     c14:	00005fd3 	.word	0x00005fd3
     c18:	00005f53 	.word	0x00005f53
     c1c:	00005ccc 	.word	0x00005ccc
     c20:	00005c8b 	.word	0x00005c8b
     c24:	00005bfb 	.word	0x00005bfb

00000c28 <vsnprintk>:
vsnprintk():
/mnt/disk/raspbian-tee/optee_os/lib/libutils/ext/snprintk.c:129
     c28:	b513      	push	{r0, r1, r4, lr}
/mnt/disk/raspbian-tee/optee_os/lib/libutils/ext/snprintk.c:130
     c2a:	2401      	movs	r4, #1
     c2c:	9400      	str	r4, [sp, #0]
     c2e:	f7ff fc61 	bl	4f4 <__vsnprintf>
/mnt/disk/raspbian-tee/optee_os/lib/libutils/ext/snprintk.c:131
     c32:	b002      	add	sp, #8
     c34:	bd10      	pop	{r4, pc}

00000c36 <snprintk>:
snprintk():
/mnt/disk/raspbian-tee/optee_os/lib/libutils/ext/snprintk.c:112
     c36:	b40c      	push	{r2, r3}
     c38:	b507      	push	{r0, r1, r2, lr}
     c3a:	ab04      	add	r3, sp, #16
     c3c:	f853 2b04 	ldr.w	r2, [r3], #4
/mnt/disk/raspbian-tee/optee_os/lib/libutils/ext/snprintk.c:116
     c40:	9301      	str	r3, [sp, #4]
/mnt/disk/raspbian-tee/optee_os/lib/libutils/ext/snprintk.c:117
     c42:	f7ff fff1 	bl	c28 <vsnprintk>
/mnt/disk/raspbian-tee/optee_os/lib/libutils/ext/snprintk.c:121
     c46:	b003      	add	sp, #12
     c48:	f85d eb04 	ldr.w	lr, [sp], #4
     c4c:	b002      	add	sp, #8
     c4e:	4770      	bx	lr

00000c50 <append>:
append():
/mnt/disk/raspbian-tee/optee_os/lib/libutils/ext/trace.c:198
     c50:	b40e      	push	{r1, r2, r3}
/mnt/disk/raspbian-tee/optee_os/lib/libutils/ext/trace.c:203
     c52:	f8d0 3100 	ldr.w	r3, [r0, #256]	; 0x100
/mnt/disk/raspbian-tee/optee_os/lib/libutils/ext/trace.c:198
     c56:	b533      	push	{r0, r1, r4, r5, lr}
     c58:	4604      	mov	r4, r0
/mnt/disk/raspbian-tee/optee_os/lib/libutils/ext/trace.c:203
     c5a:	b90b      	cbnz	r3, c60 <append+0x10>
/mnt/disk/raspbian-tee/optee_os/lib/libutils/ext/trace.c:204
     c5c:	f8c4 0100 	str.w	r0, [r4, #256]	; 0x100
/mnt/disk/raspbian-tee/optee_os/lib/libutils/ext/trace.c:205
     c60:	f8d4 0100 	ldr.w	r0, [r4, #256]	; 0x100
/mnt/disk/raspbian-tee/optee_os/lib/libutils/ext/trace.c:206
     c64:	ab06      	add	r3, sp, #24
/mnt/disk/raspbian-tee/optee_os/lib/libutils/ext/trace.c:207
     c66:	9a05      	ldr	r2, [sp, #20]
/mnt/disk/raspbian-tee/optee_os/lib/libutils/ext/trace.c:205
     c68:	1b05      	subs	r5, r0, r4
/mnt/disk/raspbian-tee/optee_os/lib/libutils/ext/trace.c:206
     c6a:	9301      	str	r3, [sp, #4]
/mnt/disk/raspbian-tee/optee_os/lib/libutils/ext/trace.c:205
     c6c:	f5c5 7580 	rsb	r5, r5, #256	; 0x100
/mnt/disk/raspbian-tee/optee_os/lib/libutils/ext/trace.c:207
     c70:	4629      	mov	r1, r5
     c72:	f7ff ffd9 	bl	c28 <vsnprintk>
/mnt/disk/raspbian-tee/optee_os/lib/libutils/ext/trace.c:209
     c76:	2800      	cmp	r0, #0
     c78:	db0f      	blt.n	c9a <append+0x4a>
/mnt/disk/raspbian-tee/optee_os/lib/libutils/ext/trace.c:213
     c7a:	4285      	cmp	r5, r0
     c7c:	dd0d      	ble.n	c9a <append+0x4a>
/mnt/disk/raspbian-tee/optee_os/lib/libutils/ext/trace.c:217
     c7e:	4285      	cmp	r5, r0
     c80:	bfa8      	it	ge
     c82:	4605      	movge	r5, r0
     c84:	f8d4 0100 	ldr.w	r0, [r4, #256]	; 0x100
     c88:	4405      	add	r5, r0
/mnt/disk/raspbian-tee/optee_os/lib/libutils/ext/trace.c:218
     c8a:	2001      	movs	r0, #1
/mnt/disk/raspbian-tee/optee_os/lib/libutils/ext/trace.c:217
     c8c:	f8c4 5100 	str.w	r5, [r4, #256]	; 0x100
/mnt/disk/raspbian-tee/optee_os/lib/libutils/ext/trace.c:219
     c90:	b002      	add	sp, #8
     c92:	e8bd 4030 	ldmia.w	sp!, {r4, r5, lr}
     c96:	b003      	add	sp, #12
     c98:	4770      	bx	lr
/mnt/disk/raspbian-tee/optee_os/lib/libutils/ext/trace.c:211
     c9a:	2000      	movs	r0, #0
     c9c:	e7f8      	b.n	c90 <append+0x40>

00000c9e <trace_set_level>:
trace_set_level():
/mnt/disk/raspbian-tee/optee_os/lib/libutils/ext/trace.c:25
     c9e:	4b05      	ldr	r3, [pc, #20]	; (cb4 <trace_set_level+0x16>)
/mnt/disk/raspbian-tee/optee_os/lib/libutils/ext/trace.c:26
     ca0:	2804      	cmp	r0, #4
     ca2:	4a05      	ldr	r2, [pc, #20]	; (cb8 <trace_set_level+0x1a>)
/mnt/disk/raspbian-tee/optee_os/lib/libutils/ext/trace.c:25
     ca4:	447b      	add	r3, pc
     ca6:	589b      	ldr	r3, [r3, r2]
/mnt/disk/raspbian-tee/optee_os/lib/libutils/ext/trace.c:26
     ca8:	d801      	bhi.n	cae <trace_set_level+0x10>
/mnt/disk/raspbian-tee/optee_os/lib/libutils/ext/trace.c:27
     caa:	6018      	str	r0, [r3, #0]
     cac:	4770      	bx	lr
/mnt/disk/raspbian-tee/optee_os/lib/libutils/ext/trace.c:29
     cae:	2204      	movs	r2, #4
     cb0:	601a      	str	r2, [r3, #0]
     cb2:	4770      	bx	lr
     cb4:	00006cbc 	.word	0x00006cbc
     cb8:	00000010 	.word	0x00000010

00000cbc <trace_get_level>:
trace_get_level():
/mnt/disk/raspbian-tee/optee_os/lib/libutils/ext/trace.c:33
     cbc:	4b02      	ldr	r3, [pc, #8]	; (cc8 <trace_get_level+0xc>)
/mnt/disk/raspbian-tee/optee_os/lib/libutils/ext/trace.c:34
     cbe:	4a03      	ldr	r2, [pc, #12]	; (ccc <trace_get_level+0x10>)
/mnt/disk/raspbian-tee/optee_os/lib/libutils/ext/trace.c:33
     cc0:	447b      	add	r3, pc
/mnt/disk/raspbian-tee/optee_os/lib/libutils/ext/trace.c:34
     cc2:	589b      	ldr	r3, [r3, r2]
/mnt/disk/raspbian-tee/optee_os/lib/libutils/ext/trace.c:35
     cc4:	6818      	ldr	r0, [r3, #0]
     cc6:	4770      	bx	lr
     cc8:	00006ca0 	.word	0x00006ca0
     ccc:	00000010 	.word	0x00000010

00000cd0 <trace_printf>:
trace_printf():
/mnt/disk/raspbian-tee/optee_os/lib/libutils/ext/trace.c:97
     cd0:	e92d 47f0 	stmdb	sp!, {r4, r5, r6, r7, r8, r9, sl, lr}
     cd4:	4607      	mov	r7, r0
     cd6:	f8df 910c 	ldr.w	r9, [pc, #268]	; de4 <trace_printf+0x114>
     cda:	b0c6      	sub	sp, #280	; 0x118
     cdc:	4688      	mov	r8, r1
     cde:	44f9      	add	r9, pc
     ce0:	4614      	mov	r4, r2
/mnt/disk/raspbian-tee/optee_os/lib/libutils/ext/trace.c:103
     ce2:	469a      	mov	sl, r3
     ce4:	2b00      	cmp	r3, #0
     ce6:	d06a      	beq.n	dbe <trace_printf+0xee>
/mnt/disk/raspbian-tee/optee_os/lib/libutils/ext/trace.c:103 (discriminator 1)
     ce8:	4b3f      	ldr	r3, [pc, #252]	; (de8 <trace_printf+0x118>)
     cea:	f859 3003 	ldr.w	r3, [r9, r3]
     cee:	681b      	ldr	r3, [r3, #0]
     cf0:	4293      	cmp	r3, r2
     cf2:	db61      	blt.n	db8 <trace_printf+0xe8>
trace_level_to_string():
/mnt/disk/raspbian-tee/optee_os/lib/libutils/ext/trace.c:52
     cf4:	4613      	mov	r3, r2
     cf6:	2a04      	cmp	r2, #4
/mnt/disk/raspbian-tee/optee_os/lib/libutils/ext/trace.c:55
     cf8:	4a3c      	ldr	r2, [pc, #240]	; (dec <trace_printf+0x11c>)
/mnt/disk/raspbian-tee/optee_os/lib/libutils/ext/trace.c:52
     cfa:	bf88      	it	hi
     cfc:	2300      	movhi	r3, #0
/mnt/disk/raspbian-tee/optee_os/lib/libutils/ext/trace.c:55
     cfe:	447a      	add	r2, pc
     d00:	5cd3      	ldrb	r3, [r2, r3]
trace_printf():
/mnt/disk/raspbian-tee/optee_os/lib/libutils/ext/trace.c:107
     d02:	4a3b      	ldr	r2, [pc, #236]	; (df0 <trace_printf+0x120>)
     d04:	ad06      	add	r5, sp, #24
     d06:	f44f 7180 	mov.w	r1, #256	; 0x100
     d0a:	4628      	mov	r0, r5
     d0c:	447a      	add	r2, pc
     d0e:	f7ff ff92 	bl	c36 <snprintk>
/mnt/disk/raspbian-tee/optee_os/lib/libutils/ext/trace.c:109
     d12:	1e06      	subs	r6, r0, #0
     d14:	db50      	blt.n	db8 <trace_printf+0xe8>
/mnt/disk/raspbian-tee/optee_os/lib/libutils/ext/trace.c:114
     d16:	4b37      	ldr	r3, [pc, #220]	; (df4 <trace_printf+0x124>)
     d18:	f5c6 7180 	rsb	r1, r6, #256	; 0x100
     d1c:	4a36      	ldr	r2, [pc, #216]	; (df8 <trace_printf+0x128>)
     d1e:	19a8      	adds	r0, r5, r6
     d20:	447a      	add	r2, pc
     d22:	f859 3003 	ldr.w	r3, [r9, r3]
     d26:	9303      	str	r3, [sp, #12]
     d28:	f7ff ff85 	bl	c36 <snprintk>
/mnt/disk/raspbian-tee/optee_os/lib/libutils/ext/trace.c:116
     d2c:	2800      	cmp	r0, #0
     d2e:	db43      	blt.n	db8 <trace_printf+0xe8>
/mnt/disk/raspbian-tee/optee_os/lib/libutils/ext/trace.c:118
     d30:	4406      	add	r6, r0
/mnt/disk/raspbian-tee/optee_os/lib/libutils/ext/trace.c:120
     d32:	f1ba 0f00 	cmp.w	sl, #0
     d36:	d04b      	beq.n	dd0 <trace_printf+0x100>
/mnt/disk/raspbian-tee/optee_os/lib/libutils/ext/trace.c:120 (discriminator 1)
     d38:	231a      	movs	r3, #26
     d3a:	fa23 f404 	lsr.w	r4, r3, r4
     d3e:	07e3      	lsls	r3, r4, #31
     d40:	d546      	bpl.n	dd0 <trace_printf+0x100>
print_thread_id():
/mnt/disk/raspbian-tee/optee_os/lib/libutils/ext/trace.c:65
     d42:	f000 f905 	bl	f50 <trace_ext_get_thread_id>
trace_printf():
/mnt/disk/raspbian-tee/optee_os/lib/libutils/ext/trace.c:122
     d46:	19ac      	adds	r4, r5, r6
     d48:	f5c6 7980 	rsb	r9, r6, #256	; 0x100
print_thread_id():
/mnt/disk/raspbian-tee/optee_os/lib/libutils/ext/trace.c:67
     d4c:	2800      	cmp	r0, #0
     d4e:	db38      	blt.n	dc2 <trace_printf+0xf2>
/mnt/disk/raspbian-tee/optee_os/lib/libutils/ext/trace.c:68
     d50:	4a2a      	ldr	r2, [pc, #168]	; (dfc <trace_printf+0x12c>)
     d52:	2301      	movs	r3, #1
     d54:	9000      	str	r0, [sp, #0]
     d56:	447a      	add	r2, pc
/mnt/disk/raspbian-tee/optee_os/lib/libutils/ext/trace.c:70
     d58:	4649      	mov	r1, r9
     d5a:	4620      	mov	r0, r4
     d5c:	f7ff ff6b 	bl	c36 <snprintk>
trace_printf():
/mnt/disk/raspbian-tee/optee_os/lib/libutils/ext/trace.c:129
     d60:	2800      	cmp	r0, #0
     d62:	db29      	blt.n	db8 <trace_printf+0xe8>
/mnt/disk/raspbian-tee/optee_os/lib/libutils/ext/trace.c:131
     d64:	1984      	adds	r4, r0, r6
/mnt/disk/raspbian-tee/optee_os/lib/libutils/ext/trace.c:133
     d66:	b167      	cbz	r7, d82 <trace_printf+0xb2>
/mnt/disk/raspbian-tee/optee_os/lib/libutils/ext/trace.c:134
     d68:	4a25      	ldr	r2, [pc, #148]	; (e00 <trace_printf+0x130>)
     d6a:	463b      	mov	r3, r7
     d6c:	f8cd 8000 	str.w	r8, [sp]
     d70:	f5c4 7180 	rsb	r1, r4, #256	; 0x100
     d74:	447a      	add	r2, pc
     d76:	1928      	adds	r0, r5, r4
     d78:	f7ff ff5d 	bl	c36 <snprintk>
/mnt/disk/raspbian-tee/optee_os/lib/libutils/ext/trace.c:136
     d7c:	2800      	cmp	r0, #0
     d7e:	db1b      	blt.n	db8 <trace_printf+0xe8>
/mnt/disk/raspbian-tee/optee_os/lib/libutils/ext/trace.c:138
     d80:	4404      	add	r4, r0
/mnt/disk/raspbian-tee/optee_os/lib/libutils/ext/trace.c:148
     d82:	ab4f      	add	r3, sp, #316	; 0x13c
/mnt/disk/raspbian-tee/optee_os/lib/libutils/ext/trace.c:149
     d84:	f5c4 7180 	rsb	r1, r4, #256	; 0x100
     d88:	1928      	adds	r0, r5, r4
     d8a:	9a4e      	ldr	r2, [sp, #312]	; 0x138
/mnt/disk/raspbian-tee/optee_os/lib/libutils/ext/trace.c:148
     d8c:	9305      	str	r3, [sp, #20]
/mnt/disk/raspbian-tee/optee_os/lib/libutils/ext/trace.c:149
     d8e:	f7ff ff4b 	bl	c28 <vsnprintk>
/mnt/disk/raspbian-tee/optee_os/lib/libutils/ext/trace.c:151
     d92:	2800      	cmp	r0, #0
/mnt/disk/raspbian-tee/optee_os/lib/libutils/ext/trace.c:157
     d94:	f04f 030a 	mov.w	r3, #10
/mnt/disk/raspbian-tee/optee_os/lib/libutils/ext/trace.c:152
     d98:	bfc8      	it	gt
     d9a:	1824      	addgt	r4, r4, r0
     d9c:	2cfe      	cmp	r4, #254	; 0xfe
     d9e:	bf28      	it	cs
     da0:	24fe      	movcs	r4, #254	; 0xfe
/mnt/disk/raspbian-tee/optee_os/lib/libutils/ext/trace.c:157
     da2:	552b      	strb	r3, [r5, r4]
/mnt/disk/raspbian-tee/optee_os/lib/libutils/ext/trace.c:158
     da4:	b114      	cbz	r4, dac <trace_printf+0xdc>
/mnt/disk/raspbian-tee/optee_os/lib/libutils/ext/trace.c:158 (discriminator 1)
     da6:	5d2b      	ldrb	r3, [r5, r4]
     da8:	2b0a      	cmp	r3, #10
     daa:	d019      	beq.n	de0 <trace_printf+0x110>
/mnt/disk/raspbian-tee/optee_os/lib/libutils/ext/trace.c:161
     dac:	442c      	add	r4, r5
/mnt/disk/raspbian-tee/optee_os/lib/libutils/ext/trace.c:163
     dae:	4628      	mov	r0, r5
/mnt/disk/raspbian-tee/optee_os/lib/libutils/ext/trace.c:161
     db0:	2300      	movs	r3, #0
     db2:	70a3      	strb	r3, [r4, #2]
/mnt/disk/raspbian-tee/optee_os/lib/libutils/ext/trace.c:163
     db4:	f000 f8c2 	bl	f3c <trace_ext_puts>
/mnt/disk/raspbian-tee/optee_os/lib/libutils/ext/trace.c:164
     db8:	b046      	add	sp, #280	; 0x118
     dba:	e8bd 87f0 	ldmia.w	sp!, {r4, r5, r6, r7, r8, r9, sl, pc}
trace_level_to_string():
/mnt/disk/raspbian-tee/optee_os/lib/libutils/ext/trace.c:50
     dbe:	234d      	movs	r3, #77	; 0x4d
     dc0:	e79f      	b.n	d02 <trace_printf+0x32>
print_thread_id():
/mnt/disk/raspbian-tee/optee_os/lib/libutils/ext/trace.c:70
     dc2:	4b10      	ldr	r3, [pc, #64]	; (e04 <trace_printf+0x134>)
     dc4:	4a10      	ldr	r2, [pc, #64]	; (e08 <trace_printf+0x138>)
     dc6:	447b      	add	r3, pc
     dc8:	9300      	str	r3, [sp, #0]
     dca:	447a      	add	r2, pc
     dcc:	2301      	movs	r3, #1
     dce:	e7c3      	b.n	d58 <trace_printf+0x88>
trace_printf():
/mnt/disk/raspbian-tee/optee_os/lib/libutils/ext/trace.c:142
     dd0:	2efe      	cmp	r6, #254	; 0xfe
     dd2:	d8f1      	bhi.n	db8 <trace_printf+0xe8>
/mnt/disk/raspbian-tee/optee_os/lib/libutils/ext/trace.c:144
     dd4:	1c74      	adds	r4, r6, #1
     dd6:	2320      	movs	r3, #32
     dd8:	55ab      	strb	r3, [r5, r6]
/mnt/disk/raspbian-tee/optee_os/lib/libutils/ext/trace.c:145
     dda:	2300      	movs	r3, #0
     ddc:	552b      	strb	r3, [r5, r4]
     dde:	e7d0      	b.n	d82 <trace_printf+0xb2>
/mnt/disk/raspbian-tee/optee_os/lib/libutils/ext/trace.c:159
     de0:	3c01      	subs	r4, #1
     de2:	e7df      	b.n	da4 <trace_printf+0xd4>
     de4:	00006c82 	.word	0x00006c82
     de8:	00000010 	.word	0x00000010
     dec:	00005a35 	.word	0x00005a35
     df0:	00005a36 	.word	0x00005a36
     df4:	00000014 	.word	0x00000014
     df8:	00005a26 	.word	0x00005a26
     dfc:	000059f4 	.word	0x000059f4
     e00:	000059e1 	.word	0x000059e1
     e04:	00005692 	.word	0x00005692
     e08:	00005986 	.word	0x00005986

00000e0c <dhex_dump>:
dhex_dump():
/mnt/disk/raspbian-tee/optee_os/lib/libutils/ext/trace.c:225
     e0c:	e92d 4ff0 	stmdb	sp!, {r4, r5, r6, r7, r8, r9, sl, fp, lr}
     e10:	4690      	mov	r8, r2
     e12:	4a35      	ldr	r2, [pc, #212]	; (ee8 <dhex_dump+0xdc>)
     e14:	468a      	mov	sl, r1
/mnt/disk/raspbian-tee/optee_os/lib/libutils/ext/trace.c:231
     e16:	4935      	ldr	r1, [pc, #212]	; (eec <dhex_dump+0xe0>)
/mnt/disk/raspbian-tee/optee_os/lib/libutils/ext/trace.c:225
     e18:	447a      	add	r2, pc
     e1a:	b0c7      	sub	sp, #284	; 0x11c
     e1c:	4681      	mov	r9, r0
/mnt/disk/raspbian-tee/optee_os/lib/libutils/ext/trace.c:231
     e1e:	5852      	ldr	r2, [r2, r1]
     e20:	6812      	ldr	r2, [r2, #0]
     e22:	4542      	cmp	r2, r8
     e24:	db1d      	blt.n	e62 <dhex_dump+0x56>
     e26:	461e      	mov	r6, r3
/mnt/disk/raspbian-tee/optee_os/lib/libutils/ext/trace.c:240
     e28:	4b31      	ldr	r3, [pc, #196]	; (ef0 <dhex_dump+0xe4>)
/mnt/disk/raspbian-tee/optee_os/lib/libutils/ext/trace.c:232
     e2a:	ad05      	add	r5, sp, #20
/mnt/disk/raspbian-tee/optee_os/lib/libutils/ext/trace.c:235
     e2c:	f8df b0c4 	ldr.w	fp, [pc, #196]	; ef4 <dhex_dump+0xe8>
/mnt/disk/raspbian-tee/optee_os/lib/libutils/ext/trace.c:240
     e30:	447b      	add	r3, pc
     e32:	9302      	str	r3, [sp, #8]
/mnt/disk/raspbian-tee/optee_os/lib/libutils/ext/trace.c:248
     e34:	4b30      	ldr	r3, [pc, #192]	; (ef8 <dhex_dump+0xec>)
/mnt/disk/raspbian-tee/optee_os/lib/libutils/ext/trace.c:235
     e36:	44fb      	add	fp, pc
/mnt/disk/raspbian-tee/optee_os/lib/libutils/ext/trace.c:232
     e38:	2400      	movs	r4, #0
     e3a:	f8c5 4100 	str.w	r4, [r5, #256]	; 0x100
/mnt/disk/raspbian-tee/optee_os/lib/libutils/ext/trace.c:248
     e3e:	447b      	add	r3, pc
     e40:	9303      	str	r3, [sp, #12]
/mnt/disk/raspbian-tee/optee_os/lib/libutils/ext/trace.c:233 (discriminator 1)
     e42:	9b50      	ldr	r3, [sp, #320]	; 0x140
     e44:	429c      	cmp	r4, r3
     e46:	db0f      	blt.n	e68 <dhex_dump+0x5c>
/mnt/disk/raspbian-tee/optee_os/lib/libutils/ext/trace.c:253
     e48:	f8d5 3100 	ldr.w	r3, [r5, #256]	; 0x100
     e4c:	b14b      	cbz	r3, e62 <dhex_dump+0x56>
/mnt/disk/raspbian-tee/optee_os/lib/libutils/ext/trace.c:255
     e4e:	4b2b      	ldr	r3, [pc, #172]	; (efc <dhex_dump+0xf0>)
     e50:	4642      	mov	r2, r8
     e52:	9501      	str	r5, [sp, #4]
     e54:	4651      	mov	r1, sl
     e56:	447b      	add	r3, pc
     e58:	4648      	mov	r0, r9
     e5a:	9300      	str	r3, [sp, #0]
     e5c:	2301      	movs	r3, #1
     e5e:	f7ff ff37 	bl	cd0 <trace_printf>
/mnt/disk/raspbian-tee/optee_os/lib/libutils/ext/trace.c:263
     e62:	b047      	add	sp, #284	; 0x11c
     e64:	e8bd 8ff0 	ldmia.w	sp!, {r4, r5, r6, r7, r8, r9, sl, fp, pc}
/mnt/disk/raspbian-tee/optee_os/lib/libutils/ext/trace.c:234
     e68:	f014 070f 	ands.w	r7, r4, #15
     e6c:	d013      	beq.n	e96 <dhex_dump+0x8a>
/mnt/disk/raspbian-tee/optee_os/lib/libutils/ext/trace.c:240
     e6e:	f816 2b01 	ldrb.w	r2, [r6], #1
     e72:	4628      	mov	r0, r5
     e74:	9902      	ldr	r1, [sp, #8]
     e76:	f7ff feeb 	bl	c50 <append>
/mnt/disk/raspbian-tee/optee_os/lib/libutils/ext/trace.c:241
     e7a:	b9a8      	cbnz	r0, ea8 <dhex_dump+0x9c>
/mnt/disk/raspbian-tee/optee_os/lib/libutils/ext/trace.c:262
     e7c:	4820      	ldr	r0, [pc, #128]	; (f00 <dhex_dump+0xf4>)
     e7e:	2203      	movs	r2, #3
     e80:	4b20      	ldr	r3, [pc, #128]	; (f04 <dhex_dump+0xf8>)
     e82:	f44f 7183 	mov.w	r1, #262	; 0x106
     e86:	4478      	add	r0, pc
     e88:	447b      	add	r3, pc
     e8a:	3005      	adds	r0, #5
     e8c:	9300      	str	r3, [sp, #0]
     e8e:	2301      	movs	r3, #1
     e90:	f7ff ff1e 	bl	cd0 <trace_printf>
     e94:	e7e5      	b.n	e62 <dhex_dump+0x56>
/mnt/disk/raspbian-tee/optee_os/lib/libutils/ext/trace.c:235
     e96:	4633      	mov	r3, r6
     e98:	2208      	movs	r2, #8
     e9a:	4659      	mov	r1, fp
     e9c:	4628      	mov	r0, r5
     e9e:	f7ff fed7 	bl	c50 <append>
/mnt/disk/raspbian-tee/optee_os/lib/libutils/ext/trace.c:237
     ea2:	2800      	cmp	r0, #0
     ea4:	d1e3      	bne.n	e6e <dhex_dump+0x62>
     ea6:	e7e9      	b.n	e7c <dhex_dump+0x70>
/mnt/disk/raspbian-tee/optee_os/lib/libutils/ext/trace.c:243
     ea8:	4263      	negs	r3, r4
     eaa:	f003 030f 	and.w	r3, r3, #15
     eae:	bf58      	it	pl
     eb0:	425f      	negpl	r7, r3
     eb2:	2f07      	cmp	r7, #7
     eb4:	d108      	bne.n	ec8 <dhex_dump+0xbc>
/mnt/disk/raspbian-tee/optee_os/lib/libutils/ext/trace.c:244
     eb6:	4914      	ldr	r1, [pc, #80]	; (f08 <dhex_dump+0xfc>)
     eb8:	4628      	mov	r0, r5
     eba:	4479      	add	r1, pc
     ebc:	f7ff fec8 	bl	c50 <append>
/mnt/disk/raspbian-tee/optee_os/lib/libutils/ext/trace.c:245
     ec0:	2800      	cmp	r0, #0
     ec2:	d0db      	beq.n	e7c <dhex_dump+0x70>
/mnt/disk/raspbian-tee/optee_os/lib/libutils/ext/trace.c:233 (discriminator 2)
     ec4:	3401      	adds	r4, #1
     ec6:	e7bc      	b.n	e42 <dhex_dump+0x36>
/mnt/disk/raspbian-tee/optee_os/lib/libutils/ext/trace.c:247
     ec8:	2f0f      	cmp	r7, #15
     eca:	d1fb      	bne.n	ec4 <dhex_dump+0xb8>
/mnt/disk/raspbian-tee/optee_os/lib/libutils/ext/trace.c:248
     ecc:	9b03      	ldr	r3, [sp, #12]
     ece:	4642      	mov	r2, r8
     ed0:	9300      	str	r3, [sp, #0]
     ed2:	4651      	mov	r1, sl
     ed4:	2301      	movs	r3, #1
     ed6:	9501      	str	r5, [sp, #4]
     ed8:	4648      	mov	r0, r9
     eda:	f7ff fef9 	bl	cd0 <trace_printf>
/mnt/disk/raspbian-tee/optee_os/lib/libutils/ext/trace.c:250
     ede:	2300      	movs	r3, #0
     ee0:	f8c5 3100 	str.w	r3, [r5, #256]	; 0x100
     ee4:	e7ee      	b.n	ec4 <dhex_dump+0xb8>
     ee6:	bf00      	nop
     ee8:	00006b48 	.word	0x00006b48
     eec:	00000010 	.word	0x00000010
     ef0:	0000592c 	.word	0x0000592c
     ef4:	0000592c 	.word	0x0000592c
     ef8:	0000592c 	.word	0x0000592c
     efc:	00005914 	.word	0x00005914
     f00:	000058ad 	.word	0x000058ad
     f04:	000058e5 	.word	0x000058e5
     f08:	000058ae 	.word	0x000058ae

00000f0c <__aeabi_ldivmod>:
__aeabi_ldivmod():
/mnt/disk/raspbian-tee/optee_os/lib/libutils/isoc/arch/arm/arm32_aeabi_ldivmod_a32.S:24
     f0c:	e92d5000 	push	{ip, lr}
/mnt/disk/raspbian-tee/optee_os/lib/libutils/isoc/arch/arm/arm32_aeabi_ldivmod_a32.S:26
     f10:	e92d000f 	push	{r0, r1, r2, r3}
/mnt/disk/raspbian-tee/optee_os/lib/libutils/isoc/arch/arm/arm32_aeabi_ldivmod_a32.S:28
     f14:	e1a0000d 	mov	r0, sp
/mnt/disk/raspbian-tee/optee_os/lib/libutils/isoc/arch/arm/arm32_aeabi_ldivmod_a32.S:29
     f18:	fa00142e 	blx	5fd8 <__l_divmod>
/mnt/disk/raspbian-tee/optee_os/lib/libutils/isoc/arch/arm/arm32_aeabi_ldivmod_a32.S:30
     f1c:	e8bd000f 	pop	{r0, r1, r2, r3}
/mnt/disk/raspbian-tee/optee_os/lib/libutils/isoc/arch/arm/arm32_aeabi_ldivmod_a32.S:31
     f20:	e8bd9000 	pop	{ip, pc}

00000f24 <__aeabi_uldivmod>:
__aeabi_uldivmod():
/mnt/disk/raspbian-tee/optee_os/lib/libutils/isoc/arch/arm/arm32_aeabi_ldivmod_a32.S:42
     f24:	e92d5000 	push	{ip, lr}
/mnt/disk/raspbian-tee/optee_os/lib/libutils/isoc/arch/arm/arm32_aeabi_ldivmod_a32.S:44
     f28:	e92d000f 	push	{r0, r1, r2, r3}
/mnt/disk/raspbian-tee/optee_os/lib/libutils/isoc/arch/arm/arm32_aeabi_ldivmod_a32.S:46
     f2c:	e1a0000d 	mov	r0, sp
/mnt/disk/raspbian-tee/optee_os/lib/libutils/isoc/arch/arm/arm32_aeabi_ldivmod_a32.S:47
     f30:	fa00140b 	blx	5f64 <__ul_divmod>
/mnt/disk/raspbian-tee/optee_os/lib/libutils/isoc/arch/arm/arm32_aeabi_ldivmod_a32.S:48
     f34:	e8bd000f 	pop	{r0, r1, r2, r3}
/mnt/disk/raspbian-tee/optee_os/lib/libutils/isoc/arch/arm/arm32_aeabi_ldivmod_a32.S:49
     f38:	e8bd9000 	pop	{ip, pc}

00000f3c <trace_ext_puts>:
trace_ext_puts():
/mnt/disk/raspbian-tee/optee_os/lib/libutee/trace_ext.c:17
     f3c:	b510      	push	{r4, lr}
     f3e:	4604      	mov	r4, r0
/mnt/disk/raspbian-tee/optee_os/lib/libutee/trace_ext.c:18
     f40:	f005 f808 	bl	5f54 <strlen>
     f44:	4601      	mov	r1, r0
     f46:	4620      	mov	r0, r4
/mnt/disk/raspbian-tee/optee_os/lib/libutee/trace_ext.c:19
     f48:	e8bd 4010 	ldmia.w	sp!, {r4, lr}
/mnt/disk/raspbian-tee/optee_os/lib/libutee/trace_ext.c:18
     f4c:	f005 b908 	b.w	6160 <__utee_log_from_thumb>

00000f50 <trace_ext_get_thread_id>:
trace_ext_get_thread_id():
/mnt/disk/raspbian-tee/optee_os/lib/libutee/trace_ext.c:24
     f50:	f04f 30ff 	mov.w	r0, #4294967295	; 0xffffffff
     f54:	4770      	bx	lr

00000f56 <printf>:
printf():
/mnt/disk/raspbian-tee/optee_os/lib/libutee/trace_ext.c:32
     f56:	b40f      	push	{r0, r1, r2, r3}
     f58:	b530      	push	{r4, r5, lr}
     f5a:	b0c3      	sub	sp, #268	; 0x10c
/mnt/disk/raspbian-tee/optee_os/lib/libutee/trace_ext.c:37
     f5c:	f7ff feae 	bl	cbc <trace_get_level>
     f60:	2800      	cmp	r0, #0
     f62:	dd13      	ble.n	f8c <printf+0x36>
/mnt/disk/raspbian-tee/optee_os/lib/libutee/trace_ext.c:41
     f64:	ad02      	add	r5, sp, #8
/mnt/disk/raspbian-tee/optee_os/lib/libutee/trace_ext.c:40
     f66:	ab47      	add	r3, sp, #284	; 0x11c
/mnt/disk/raspbian-tee/optee_os/lib/libutee/trace_ext.c:41
     f68:	9a46      	ldr	r2, [sp, #280]	; 0x118
     f6a:	f44f 7180 	mov.w	r1, #256	; 0x100
     f6e:	4628      	mov	r0, r5
/mnt/disk/raspbian-tee/optee_os/lib/libutee/trace_ext.c:40
     f70:	9301      	str	r3, [sp, #4]
/mnt/disk/raspbian-tee/optee_os/lib/libutee/trace_ext.c:41
     f72:	f004 ffc2 	bl	5efa <vsnprintf>
/mnt/disk/raspbian-tee/optee_os/lib/libutee/trace_ext.c:44
     f76:	1e04      	subs	r4, r0, #0
     f78:	db02      	blt.n	f80 <printf+0x2a>
/mnt/disk/raspbian-tee/optee_os/lib/libutee/trace_ext.c:47
     f7a:	4628      	mov	r0, r5
     f7c:	f7ff ffde 	bl	f3c <trace_ext_puts>
/mnt/disk/raspbian-tee/optee_os/lib/libutee/trace_ext.c:50
     f80:	4620      	mov	r0, r4
     f82:	b043      	add	sp, #268	; 0x10c
     f84:	e8bd 4030 	ldmia.w	sp!, {r4, r5, lr}
     f88:	b004      	add	sp, #16
     f8a:	4770      	bx	lr
/mnt/disk/raspbian-tee/optee_os/lib/libutee/trace_ext.c:38
     f8c:	2400      	movs	r4, #0
     f8e:	e7f7      	b.n	f80 <printf+0x2a>

00000f90 <puts>:
puts():
/mnt/disk/raspbian-tee/optee_os/lib/libutee/trace_ext.c:53
     f90:	b510      	push	{r4, lr}
     f92:	4604      	mov	r4, r0
/mnt/disk/raspbian-tee/optee_os/lib/libutee/trace_ext.c:54
     f94:	f7ff fe92 	bl	cbc <trace_get_level>
     f98:	2800      	cmp	r0, #0
     f9a:	dd06      	ble.n	faa <puts+0x1a>
/mnt/disk/raspbian-tee/optee_os/lib/libutee/trace_ext.c:55
     f9c:	4620      	mov	r0, r4
     f9e:	f7ff ffcd 	bl	f3c <trace_ext_puts>
/mnt/disk/raspbian-tee/optee_os/lib/libutee/trace_ext.c:56
     fa2:	4803      	ldr	r0, [pc, #12]	; (fb0 <puts+0x20>)
     fa4:	4478      	add	r0, pc
     fa6:	f7ff ffc9 	bl	f3c <trace_ext_puts>
/mnt/disk/raspbian-tee/optee_os/lib/libutee/trace_ext.c:59
     faa:	2001      	movs	r0, #1
     fac:	bd10      	pop	{r4, pc}
     fae:	bf00      	nop
     fb0:	000054b3 	.word	0x000054b3

00000fb4 <putchar>:
putchar():
/mnt/disk/raspbian-tee/optee_os/lib/libutee/trace_ext.c:62
     fb4:	b513      	push	{r0, r1, r4, lr}
/mnt/disk/raspbian-tee/optee_os/lib/libutee/trace_ext.c:63
     fb6:	2300      	movs	r3, #0
/mnt/disk/raspbian-tee/optee_os/lib/libutee/trace_ext.c:62
     fb8:	4604      	mov	r4, r0
/mnt/disk/raspbian-tee/optee_os/lib/libutee/trace_ext.c:63
     fba:	f88d 0004 	strb.w	r0, [sp, #4]
     fbe:	f88d 3005 	strb.w	r3, [sp, #5]
/mnt/disk/raspbian-tee/optee_os/lib/libutee/trace_ext.c:65
     fc2:	f7ff fe7b 	bl	cbc <trace_get_level>
     fc6:	2800      	cmp	r0, #0
     fc8:	dd02      	ble.n	fd0 <putchar+0x1c>
/mnt/disk/raspbian-tee/optee_os/lib/libutee/trace_ext.c:66
     fca:	a801      	add	r0, sp, #4
     fcc:	f7ff ffb6 	bl	f3c <trace_ext_puts>
/mnt/disk/raspbian-tee/optee_os/lib/libutee/trace_ext.c:73
     fd0:	b2e0      	uxtb	r0, r4
     fd2:	b002      	add	sp, #8
     fd4:	bd10      	pop	{r4, pc}
     fd6:	bf00      	nop

00000fd8 <ta_header_get_session>:
ta_header_get_session():
/mnt/disk/raspbian-tee/optee_os/lib/libutee/arch/arm/user_ta_entry.c:81
     fd8:	4b05      	ldr	r3, [pc, #20]	; (ff0 <ta_header_get_session+0x18>)
     fda:	447b      	add	r3, pc
     fdc:	681b      	ldr	r3, [r3, #0]
/mnt/disk/raspbian-tee/optee_os/lib/libutee/arch/arm/user_ta_entry.c:81 (discriminator 1)
     fde:	b90b      	cbnz	r3, fe4 <ta_header_get_session+0xc>
/mnt/disk/raspbian-tee/optee_os/lib/libutee/arch/arm/user_ta_entry.c:86
     fe0:	4618      	mov	r0, r3
     fe2:	4770      	bx	lr
/mnt/disk/raspbian-tee/optee_os/lib/libutee/arch/arm/user_ta_entry.c:82
     fe4:	681a      	ldr	r2, [r3, #0]
     fe6:	4282      	cmp	r2, r0
     fe8:	d0fa      	beq.n	fe0 <ta_header_get_session+0x8>
/mnt/disk/raspbian-tee/optee_os/lib/libutee/arch/arm/user_ta_entry.c:81 (discriminator 2)
     fea:	689b      	ldr	r3, [r3, #8]
     fec:	e7f7      	b.n	fde <ta_header_get_session+0x6>
     fee:	bf00      	nop
     ff0:	0000717a 	.word	0x0000717a

00000ff4 <ta_header_remove_session>:
ta_header_remove_session():
/mnt/disk/raspbian-tee/optee_os/lib/libutee/arch/arm/user_ta_entry.c:119
     ff4:	4b14      	ldr	r3, [pc, #80]	; (1048 <ta_header_remove_session+0x54>)
/mnt/disk/raspbian-tee/optee_os/lib/libutee/arch/arm/user_ta_entry.c:115
     ff6:	b510      	push	{r4, lr}
/mnt/disk/raspbian-tee/optee_os/lib/libutee/arch/arm/user_ta_entry.c:119
     ff8:	447b      	add	r3, pc
/mnt/disk/raspbian-tee/optee_os/lib/libutee/arch/arm/user_ta_entry.c:115
     ffa:	4c14      	ldr	r4, [pc, #80]	; (104c <ta_header_remove_session+0x58>)
/mnt/disk/raspbian-tee/optee_os/lib/libutee/arch/arm/user_ta_entry.c:119
     ffc:	681b      	ldr	r3, [r3, #0]
/mnt/disk/raspbian-tee/optee_os/lib/libutee/arch/arm/user_ta_entry.c:115
     ffe:	447c      	add	r4, pc
/mnt/disk/raspbian-tee/optee_os/lib/libutee/arch/arm/user_ta_entry.c:119 (discriminator 1)
    1000:	b903      	cbnz	r3, 1004 <ta_header_remove_session+0x10>
    1002:	bd10      	pop	{r4, pc}
/mnt/disk/raspbian-tee/optee_os/lib/libutee/arch/arm/user_ta_entry.c:120
    1004:	681a      	ldr	r2, [r3, #0]
    1006:	4282      	cmp	r2, r0
    1008:	689a      	ldr	r2, [r3, #8]
    100a:	d11b      	bne.n	1044 <ta_header_remove_session+0x50>
    100c:	68d9      	ldr	r1, [r3, #12]
/mnt/disk/raspbian-tee/optee_os/lib/libutee/arch/arm/user_ta_entry.c:121
    100e:	b1aa      	cbz	r2, 103c <ta_header_remove_session+0x48>
/mnt/disk/raspbian-tee/optee_os/lib/libutee/arch/arm/user_ta_entry.c:121 (discriminator 1)
    1010:	60d1      	str	r1, [r2, #12]
/mnt/disk/raspbian-tee/optee_os/lib/libutee/arch/arm/user_ta_entry.c:121 (discriminator 4)
    1012:	68d9      	ldr	r1, [r3, #12]
/mnt/disk/raspbian-tee/optee_os/lib/libutee/arch/arm/user_ta_entry.c:122 (discriminator 4)
    1014:	4618      	mov	r0, r3
/mnt/disk/raspbian-tee/optee_os/lib/libutee/arch/arm/user_ta_entry.c:121 (discriminator 4)
    1016:	600a      	str	r2, [r1, #0]
/mnt/disk/raspbian-tee/optee_os/lib/libutee/arch/arm/user_ta_entry.c:122 (discriminator 4)
    1018:	f000 fcac 	bl	1974 <TEE_Free>
/mnt/disk/raspbian-tee/optee_os/lib/libutee/arch/arm/user_ta_entry.c:127 (discriminator 4)
    101c:	4b0c      	ldr	r3, [pc, #48]	; (1050 <ta_header_remove_session+0x5c>)
    101e:	447b      	add	r3, pc
    1020:	681b      	ldr	r3, [r3, #0]
    1022:	2b00      	cmp	r3, #0
    1024:	d1ed      	bne.n	1002 <ta_header_remove_session+0xe>
/mnt/disk/raspbian-tee/optee_os/lib/libutee/arch/arm/user_ta_entry.c:125 (discriminator 1)
    1026:	4b0b      	ldr	r3, [pc, #44]	; (1054 <ta_header_remove_session+0x60>)
    1028:	58e3      	ldr	r3, [r4, r3]
    102a:	695b      	ldr	r3, [r3, #20]
    102c:	f003 0314 	and.w	r3, r3, #20
/mnt/disk/raspbian-tee/optee_os/lib/libutee/arch/arm/user_ta_entry.c:127 (discriminator 1)
    1030:	2b14      	cmp	r3, #20
    1032:	d0e6      	beq.n	1002 <ta_header_remove_session+0xe>
/mnt/disk/raspbian-tee/optee_os/lib/libutee/arch/arm/user_ta_entry.c:133
    1034:	e8bd 4010 	ldmia.w	sp!, {r4, lr}
uninit_instance():
/mnt/disk/raspbian-tee/optee_os/lib/libutee/arch/arm/user_ta_entry.c:63
    1038:	f7fe bff7 	b.w	2a <TA_DestroyEntryPoint>
ta_header_remove_session():
/mnt/disk/raspbian-tee/optee_os/lib/libutee/arch/arm/user_ta_entry.c:121 (discriminator 2)
    103c:	4806      	ldr	r0, [pc, #24]	; (1058 <ta_header_remove_session+0x64>)
    103e:	4478      	add	r0, pc
    1040:	6041      	str	r1, [r0, #4]
    1042:	e7e6      	b.n	1012 <ta_header_remove_session+0x1e>
/mnt/disk/raspbian-tee/optee_os/lib/libutee/arch/arm/user_ta_entry.c:119 (discriminator 2)
    1044:	4613      	mov	r3, r2
    1046:	e7db      	b.n	1000 <ta_header_remove_session+0xc>
    1048:	0000715c 	.word	0x0000715c
    104c:	00006962 	.word	0x00006962
    1050:	00007136 	.word	0x00007136
    1054:	0000002c 	.word	0x0000002c
    1058:	00007116 	.word	0x00007116

0000105c <__utee_entry>:
__utee_entry():
/mnt/disk/raspbian-tee/optee_os/lib/libutee/arch/arm/user_ta_entry.c:200
    105c:	b580      	push	{r7, lr}
    105e:	4616      	mov	r6, r2
    1060:	4c5a      	ldr	r4, [pc, #360]	; (11cc <__utee_entry+0x170>)
    1062:	b08c      	sub	sp, #48	; 0x30
    1064:	460f      	mov	r7, r1
    1066:	447c      	add	r4, pc
    1068:	4698      	mov	r8, r3
/mnt/disk/raspbian-tee/optee_os/lib/libutee/arch/arm/user_ta_entry.c:211
    106a:	2801      	cmp	r0, #1
    106c:	d074      	beq.n	1158 <__utee_entry+0xfc>
    106e:	d307      	bcc.n	1080 <__utee_entry+0x24>
    1070:	2802      	cmp	r0, #2
    1072:	d07e      	beq.n	1172 <__utee_entry+0x116>
/mnt/disk/raspbian-tee/optee_os/lib/libutee/arch/arm/user_ta_entry.c:223
    1074:	2000      	movs	r0, #0
/mnt/disk/raspbian-tee/optee_os/lib/libutee/arch/arm/user_ta_entry.c:222
    1076:	f04f 34ff 	mov.w	r4, #4294967295	; 0xffffffff
/mnt/disk/raspbian-tee/optee_os/lib/libutee/arch/arm/user_ta_entry.c:223
    107a:	f005 f823 	bl	60c4 <TEE_Panic>
/mnt/disk/raspbian-tee/optee_os/lib/libutee/arch/arm/user_ta_entry.c:224
    107e:	e026      	b.n	10ce <__utee_entry+0x72>
ta_header_add_session():
/mnt/disk/raspbian-tee/optee_os/lib/libutee/arch/arm/user_ta_entry.c:90
    1080:	4608      	mov	r0, r1
    1082:	f7ff ffa9 	bl	fd8 <ta_header_get_session>
/mnt/disk/raspbian-tee/optee_os/lib/libutee/arch/arm/user_ta_entry.c:93
    1086:	2800      	cmp	r0, #0
    1088:	d138      	bne.n	10fc <__utee_entry+0xa0>
/mnt/disk/raspbian-tee/optee_os/lib/libutee/arch/arm/user_ta_entry.c:96
    108a:	4b51      	ldr	r3, [pc, #324]	; (11d0 <__utee_entry+0x174>)
    108c:	447b      	add	r3, pc
    108e:	781a      	ldrb	r2, [r3, #0]
    1090:	b13a      	cbz	r2, 10a2 <__utee_entry+0x46>
/mnt/disk/raspbian-tee/optee_os/lib/libutee/arch/arm/user_ta_entry.c:103
    1092:	f04f 4100 	mov.w	r1, #2147483648	; 0x80000000
    1096:	2010      	movs	r0, #16
    1098:	f000 fc45 	bl	1926 <TEE_Malloc>
/mnt/disk/raspbian-tee/optee_os/lib/libutee/arch/arm/user_ta_entry.c:105
    109c:	bb18      	cbnz	r0, 10e6 <__utee_entry+0x8a>
/mnt/disk/raspbian-tee/optee_os/lib/libutee/arch/arm/user_ta_entry.c:106
    109e:	4c49      	ldr	r4, [pc, #292]	; (11c4 <__utee_entry+0x168>)
    10a0:	e015      	b.n	10ce <__utee_entry+0x72>
/mnt/disk/raspbian-tee/optee_os/lib/libutee/arch/arm/user_ta_entry.c:97
    10a2:	2201      	movs	r2, #1
    10a4:	701a      	strb	r2, [r3, #0]
init_instance():
/mnt/disk/raspbian-tee/optee_os/lib/libutee/arch/arm/user_ta_entry.c:53
    10a6:	f004 ff17 	bl	5ed8 <tahead_get_trace_level>
    10aa:	f7ff fdf8 	bl	c9e <trace_set_level>
/mnt/disk/raspbian-tee/optee_os/lib/libutee/arch/arm/user_ta_entry.c:55
    10ae:	4b49      	ldr	r3, [pc, #292]	; (11d4 <__utee_entry+0x178>)
    10b0:	4a49      	ldr	r2, [pc, #292]	; (11d8 <__utee_entry+0x17c>)
    10b2:	58e3      	ldr	r3, [r4, r3]
    10b4:	58a2      	ldr	r2, [r4, r2]
    10b6:	9201      	str	r2, [sp, #4]
    10b8:	6819      	ldr	r1, [r3, #0]
    10ba:	4610      	mov	r0, r2
    10bc:	f004 fd5e 	bl	5b7c <malloc_add_pool>
/mnt/disk/raspbian-tee/optee_os/lib/libutee/arch/arm/user_ta_entry.c:56
    10c0:	f000 ff3a 	bl	1f38 <_TEE_MathAPI_Init>
/mnt/disk/raspbian-tee/optee_os/lib/libutee/arch/arm/user_ta_entry.c:57
    10c4:	f7fe ffac 	bl	20 <TA_CreateEntryPoint>
ta_header_add_session():
/mnt/disk/raspbian-tee/optee_os/lib/libutee/arch/arm/user_ta_entry.c:99
    10c8:	4604      	mov	r4, r0
    10ca:	2800      	cmp	r0, #0
    10cc:	d0e1      	beq.n	1092 <__utee_entry+0x36>
ta_header_save_params():
/mnt/disk/raspbian-tee/optee_os/lib/libutee/arch/arm/user_ta_entry.c:69
    10ce:	4843      	ldr	r0, [pc, #268]	; (11dc <__utee_entry+0x180>)
    10d0:	2100      	movs	r1, #0
/mnt/disk/raspbian-tee/optee_os/lib/libutee/arch/arm/user_ta_entry.c:74
    10d2:	2220      	movs	r2, #32
/mnt/disk/raspbian-tee/optee_os/lib/libutee/arch/arm/user_ta_entry.c:69
    10d4:	4478      	add	r0, pc
/mnt/disk/raspbian-tee/optee_os/lib/libutee/arch/arm/user_ta_entry.c:74
    10d6:	3008      	adds	r0, #8
/mnt/disk/raspbian-tee/optee_os/lib/libutee/arch/arm/user_ta_entry.c:69
    10d8:	f840 1c04 	str.w	r1, [r0, #-4]
/mnt/disk/raspbian-tee/optee_os/lib/libutee/arch/arm/user_ta_entry.c:74
    10dc:	f004 ff14 	bl	5f08 <memset>
__utee_entry():
/mnt/disk/raspbian-tee/optee_os/lib/libutee/arch/arm/user_ta_entry.c:227
    10e0:	4620      	mov	r0, r4
    10e2:	f000 e88e 	blx	1200 <utee_return>
ta_header_add_session():
/mnt/disk/raspbian-tee/optee_os/lib/libutee/arch/arm/user_ta_entry.c:108
    10e6:	2300      	movs	r3, #0
    10e8:	6043      	str	r3, [r0, #4]
/mnt/disk/raspbian-tee/optee_os/lib/libutee/arch/arm/user_ta_entry.c:109
    10ea:	6083      	str	r3, [r0, #8]
    10ec:	4b3c      	ldr	r3, [pc, #240]	; (11e0 <__utee_entry+0x184>)
/mnt/disk/raspbian-tee/optee_os/lib/libutee/arch/arm/user_ta_entry.c:107
    10ee:	6007      	str	r7, [r0, #0]
/mnt/disk/raspbian-tee/optee_os/lib/libutee/arch/arm/user_ta_entry.c:109
    10f0:	447b      	add	r3, pc
    10f2:	685a      	ldr	r2, [r3, #4]
    10f4:	60c2      	str	r2, [r0, #12]
    10f6:	6010      	str	r0, [r2, #0]
    10f8:	3008      	adds	r0, #8
    10fa:	6058      	str	r0, [r3, #4]
entry_open_session():
/mnt/disk/raspbian-tee/optee_os/lib/libutee/arch/arm/user_ta_entry.c:147
    10fc:	4638      	mov	r0, r7
    10fe:	f7ff ff6b 	bl	fd8 <ta_header_get_session>
/mnt/disk/raspbian-tee/optee_os/lib/libutee/arch/arm/user_ta_entry.c:148
    1102:	4681      	mov	r9, r0
    1104:	b908      	cbnz	r0, 110a <__utee_entry+0xae>
entry_close_session():
/mnt/disk/raspbian-tee/optee_os/lib/libutee/arch/arm/user_ta_entry.c:169
    1106:	4c30      	ldr	r4, [pc, #192]	; (11c8 <__utee_entry+0x16c>)
    1108:	e7e1      	b.n	10ce <__utee_entry+0x72>
entry_open_session():
/mnt/disk/raspbian-tee/optee_os/lib/libutee/arch/arm/user_ta_entry.c:151
    110a:	f10d 0810 	add.w	r8, sp, #16
ta_header_save_params():
/mnt/disk/raspbian-tee/optee_os/lib/libutee/arch/arm/user_ta_entry.c:69
    110e:	4c35      	ldr	r4, [pc, #212]	; (11e4 <__utee_entry+0x188>)
/mnt/disk/raspbian-tee/optee_os/lib/libutee/arch/arm/user_ta_entry.c:72
    1110:	4645      	mov	r5, r8
entry_open_session():
/mnt/disk/raspbian-tee/optee_os/lib/libutee/arch/arm/user_ta_entry.c:151
    1112:	4632      	mov	r2, r6
    1114:	a903      	add	r1, sp, #12
    1116:	4640      	mov	r0, r8
ta_header_save_params():
/mnt/disk/raspbian-tee/optee_os/lib/libutee/arch/arm/user_ta_entry.c:69
    1118:	447c      	add	r4, pc
entry_open_session():
/mnt/disk/raspbian-tee/optee_os/lib/libutee/arch/arm/user_ta_entry.c:151
    111a:	f000 faed 	bl	16f8 <__utee_to_param>
ta_header_save_params():
/mnt/disk/raspbian-tee/optee_os/lib/libutee/arch/arm/user_ta_entry.c:72
    111e:	cd0f      	ldmia	r5!, {r0, r1, r2, r3}
    1120:	3408      	adds	r4, #8
entry_open_session():
/mnt/disk/raspbian-tee/optee_os/lib/libutee/arch/arm/user_ta_entry.c:152
    1122:	f8dd c00c 	ldr.w	ip, [sp, #12]
ta_header_save_params():
/mnt/disk/raspbian-tee/optee_os/lib/libutee/arch/arm/user_ta_entry.c:69
    1126:	f844 cc04 	str.w	ip, [r4, #-4]
/mnt/disk/raspbian-tee/optee_os/lib/libutee/arch/arm/user_ta_entry.c:72
    112a:	c40f      	stmia	r4!, {r0, r1, r2, r3}
    112c:	e895 000f 	ldmia.w	r5, {r0, r1, r2, r3}
    1130:	e884 000f 	stmia.w	r4, {r0, r1, r2, r3}
entry_open_session():
/mnt/disk/raspbian-tee/optee_os/lib/libutee/arch/arm/user_ta_entry.c:154
    1134:	f109 0204 	add.w	r2, r9, #4
    1138:	4641      	mov	r1, r8
    113a:	4660      	mov	r0, ip
    113c:	f7fe ff76 	bl	2c <TA_OpenSessionEntryPoint>
/mnt/disk/raspbian-tee/optee_os/lib/libutee/arch/arm/user_ta_entry.c:157
    1140:	4642      	mov	r2, r8
/mnt/disk/raspbian-tee/optee_os/lib/libutee/arch/arm/user_ta_entry.c:154
    1142:	4604      	mov	r4, r0
/mnt/disk/raspbian-tee/optee_os/lib/libutee/arch/arm/user_ta_entry.c:157
    1144:	9903      	ldr	r1, [sp, #12]
    1146:	4630      	mov	r0, r6
    1148:	f000 faae 	bl	16a8 <__utee_from_param>
/mnt/disk/raspbian-tee/optee_os/lib/libutee/arch/arm/user_ta_entry.c:159
    114c:	2c00      	cmp	r4, #0
    114e:	d0be      	beq.n	10ce <__utee_entry+0x72>
/mnt/disk/raspbian-tee/optee_os/lib/libutee/arch/arm/user_ta_entry.c:160
    1150:	4638      	mov	r0, r7
    1152:	f7ff ff4f 	bl	ff4 <ta_header_remove_session>
    1156:	e7ba      	b.n	10ce <__utee_entry+0x72>
entry_close_session():
/mnt/disk/raspbian-tee/optee_os/lib/libutee/arch/arm/user_ta_entry.c:166
    1158:	4608      	mov	r0, r1
    115a:	f7ff ff3d 	bl	fd8 <ta_header_get_session>
/mnt/disk/raspbian-tee/optee_os/lib/libutee/arch/arm/user_ta_entry.c:168
    115e:	2800      	cmp	r0, #0
    1160:	d0d1      	beq.n	1106 <__utee_entry+0xaa>
/mnt/disk/raspbian-tee/optee_os/lib/libutee/arch/arm/user_ta_entry.c:171
    1162:	6840      	ldr	r0, [r0, #4]
/mnt/disk/raspbian-tee/optee_os/lib/libutee/arch/arm/user_ta_entry.c:174
    1164:	2400      	movs	r4, #0
/mnt/disk/raspbian-tee/optee_os/lib/libutee/arch/arm/user_ta_entry.c:171
    1166:	f7fe ff69 	bl	3c <TA_CloseSessionEntryPoint>
/mnt/disk/raspbian-tee/optee_os/lib/libutee/arch/arm/user_ta_entry.c:173
    116a:	4638      	mov	r0, r7
    116c:	f7ff ff42 	bl	ff4 <ta_header_remove_session>
    1170:	e7ad      	b.n	10ce <__utee_entry+0x72>
entry_invoke_command():
/mnt/disk/raspbian-tee/optee_os/lib/libutee/arch/arm/user_ta_entry.c:183
    1172:	4608      	mov	r0, r1
    1174:	f7ff ff30 	bl	fd8 <ta_header_get_session>
/mnt/disk/raspbian-tee/optee_os/lib/libutee/arch/arm/user_ta_entry.c:185
    1178:	4681      	mov	r9, r0
    117a:	2800      	cmp	r0, #0
    117c:	d0c3      	beq.n	1106 <__utee_entry+0xaa>
/mnt/disk/raspbian-tee/optee_os/lib/libutee/arch/arm/user_ta_entry.c:188
    117e:	af04      	add	r7, sp, #16
ta_header_save_params():
/mnt/disk/raspbian-tee/optee_os/lib/libutee/arch/arm/user_ta_entry.c:69
    1180:	4c19      	ldr	r4, [pc, #100]	; (11e8 <__utee_entry+0x18c>)
/mnt/disk/raspbian-tee/optee_os/lib/libutee/arch/arm/user_ta_entry.c:72
    1182:	463d      	mov	r5, r7
entry_invoke_command():
/mnt/disk/raspbian-tee/optee_os/lib/libutee/arch/arm/user_ta_entry.c:188
    1184:	4632      	mov	r2, r6
    1186:	a903      	add	r1, sp, #12
    1188:	4638      	mov	r0, r7
ta_header_save_params():
/mnt/disk/raspbian-tee/optee_os/lib/libutee/arch/arm/user_ta_entry.c:69
    118a:	447c      	add	r4, pc
entry_invoke_command():
/mnt/disk/raspbian-tee/optee_os/lib/libutee/arch/arm/user_ta_entry.c:188
    118c:	f000 fab4 	bl	16f8 <__utee_to_param>
ta_header_save_params():
/mnt/disk/raspbian-tee/optee_os/lib/libutee/arch/arm/user_ta_entry.c:72
    1190:	cd0f      	ldmia	r5!, {r0, r1, r2, r3}
    1192:	3408      	adds	r4, #8
entry_invoke_command():
/mnt/disk/raspbian-tee/optee_os/lib/libutee/arch/arm/user_ta_entry.c:189
    1194:	f8dd c00c 	ldr.w	ip, [sp, #12]
ta_header_save_params():
/mnt/disk/raspbian-tee/optee_os/lib/libutee/arch/arm/user_ta_entry.c:69
    1198:	f844 cc04 	str.w	ip, [r4, #-4]
/mnt/disk/raspbian-tee/optee_os/lib/libutee/arch/arm/user_ta_entry.c:72
    119c:	c40f      	stmia	r4!, {r0, r1, r2, r3}
    119e:	e895 000f 	ldmia.w	r5, {r0, r1, r2, r3}
    11a2:	e884 000f 	stmia.w	r4, {r0, r1, r2, r3}
entry_invoke_command():
/mnt/disk/raspbian-tee/optee_os/lib/libutee/arch/arm/user_ta_entry.c:191
    11a6:	4662      	mov	r2, ip
    11a8:	4641      	mov	r1, r8
    11aa:	463b      	mov	r3, r7
    11ac:	f8d9 0004 	ldr.w	r0, [r9, #4]
    11b0:	f7fe ff56 	bl	60 <TA_InvokeCommandEntryPoint>
/mnt/disk/raspbian-tee/optee_os/lib/libutee/arch/arm/user_ta_entry.c:194
    11b4:	463a      	mov	r2, r7
/mnt/disk/raspbian-tee/optee_os/lib/libutee/arch/arm/user_ta_entry.c:191
    11b6:	4604      	mov	r4, r0
/mnt/disk/raspbian-tee/optee_os/lib/libutee/arch/arm/user_ta_entry.c:194
    11b8:	9903      	ldr	r1, [sp, #12]
    11ba:	4630      	mov	r0, r6
    11bc:	f000 fa74 	bl	16a8 <__utee_from_param>
    11c0:	e785      	b.n	10ce <__utee_entry+0x72>
    11c2:	bf00      	nop
    11c4:	ffff000c 	.word	0xffff000c
    11c8:	ffff0007 	.word	0xffff0007
    11cc:	000068fa 	.word	0x000068fa
    11d0:	00007420 	.word	0x00007420
    11d4:	0000000c 	.word	0x0000000c
    11d8:	00000020 	.word	0x00000020
    11dc:	000073d8 	.word	0x000073d8
    11e0:	00007064 	.word	0x00007064
    11e4:	00007394 	.word	0x00007394
    11e8:	00007322 	.word	0x00007322

000011ec <utee_panic>:
utee_panic():
/mnt/disk/raspbian-tee/optee_os/lib/libutee/arch/arm/utee_syscalls_a32.S:47
    11ec:	e92d4fff 	push	{r0, r1, r2, r3, r4, r5, r6, r7, r8, r9, sl, fp, lr}
/mnt/disk/raspbian-tee/optee_os/lib/libutee/arch/arm/utee_syscalls_a32.S:49
    11f0:	e1a0e00f 	mov	lr, pc
/mnt/disk/raspbian-tee/optee_os/lib/libutee/arch/arm/utee_syscalls_a32.S:50
    11f4:	e52de004 	push	{lr}		; (str lr, [sp, #-4]!)
/mnt/disk/raspbian-tee/optee_os/lib/libutee/arch/arm/utee_syscalls_a32.S:52
    11f8:	e1a0100d 	mov	r1, sp
/mnt/disk/raspbian-tee/optee_os/lib/libutee/arch/arm/utee_syscalls_a32.S:53
    11fc:	eb000009 	bl	1228 <__utee_panic>

00001200 <utee_return>:
utee_return():
/mnt/disk/raspbian-tee/optee_os/lib/libutee/arch/arm/utee_syscalls_asm.S:8
    1200:	e92d40e0 	push	{r5, r6, r7, lr}
    1204:	e3a07000 	mov	r7, #0
    1208:	e3a06000 	mov	r6, #0
    120c:	ef000000 	svc	0x00000000
    1210:	e8bd80e0 	pop	{r5, r6, r7, pc}

00001214 <utee_log>:
utee_log():
/mnt/disk/raspbian-tee/optee_os/lib/libutee/arch/arm/utee_syscalls_asm.S:10
    1214:	e92d40e0 	push	{r5, r6, r7, lr}
    1218:	e3a07001 	mov	r7, #1
    121c:	e3a06000 	mov	r6, #0
    1220:	ef000000 	svc	0x00000000
    1224:	e8bd80e0 	pop	{r5, r6, r7, pc}

00001228 <__utee_panic>:
__utee_panic():
/mnt/disk/raspbian-tee/optee_os/lib/libutee/arch/arm/utee_syscalls_asm.S:12
    1228:	e92d40e0 	push	{r5, r6, r7, lr}
    122c:	e3a07002 	mov	r7, #2
    1230:	e3a06000 	mov	r6, #0
    1234:	ef000000 	svc	0x00000000
    1238:	e8bd80e0 	pop	{r5, r6, r7, pc}

0000123c <utee_get_property>:
utee_get_property():
/mnt/disk/raspbian-tee/optee_os/lib/libutee/arch/arm/utee_syscalls_asm.S:14
    123c:	e92d40e0 	push	{r5, r6, r7, lr}
    1240:	e3a07003 	mov	r7, #3
    1244:	e3a06003 	mov	r6, #3
    1248:	e28d5010 	add	r5, sp, #16
    124c:	ef000000 	svc	0x00000000
    1250:	e8bd80e0 	pop	{r5, r6, r7, pc}

00001254 <utee_get_property_name_to_index>:
utee_get_property_name_to_index():
/mnt/disk/raspbian-tee/optee_os/lib/libutee/arch/arm/utee_syscalls_asm.S:16
    1254:	e92d40e0 	push	{r5, r6, r7, lr}
    1258:	e3a07004 	mov	r7, #4
    125c:	e3a06000 	mov	r6, #0
    1260:	ef000000 	svc	0x00000000
    1264:	e8bd80e0 	pop	{r5, r6, r7, pc}

00001268 <utee_open_ta_session>:
utee_open_ta_session():
/mnt/disk/raspbian-tee/optee_os/lib/libutee/arch/arm/utee_syscalls_asm.S:19
    1268:	e92d40e0 	push	{r5, r6, r7, lr}
    126c:	e3a07005 	mov	r7, #5
    1270:	e3a06001 	mov	r6, #1
    1274:	e28d5010 	add	r5, sp, #16
    1278:	ef000000 	svc	0x00000000
    127c:	e8bd80e0 	pop	{r5, r6, r7, pc}

00001280 <utee_close_ta_session>:
utee_close_ta_session():
/mnt/disk/raspbian-tee/optee_os/lib/libutee/arch/arm/utee_syscalls_asm.S:21
    1280:	e92d40e0 	push	{r5, r6, r7, lr}
    1284:	e3a07006 	mov	r7, #6
    1288:	e3a06000 	mov	r6, #0
    128c:	ef000000 	svc	0x00000000
    1290:	e8bd80e0 	pop	{r5, r6, r7, pc}

00001294 <utee_invoke_ta_command>:
utee_invoke_ta_command():
/mnt/disk/raspbian-tee/optee_os/lib/libutee/arch/arm/utee_syscalls_asm.S:23
    1294:	e92d40e0 	push	{r5, r6, r7, lr}
    1298:	e3a07007 	mov	r7, #7
    129c:	e3a06001 	mov	r6, #1
    12a0:	e28d5010 	add	r5, sp, #16
    12a4:	ef000000 	svc	0x00000000
    12a8:	e8bd80e0 	pop	{r5, r6, r7, pc}

000012ac <utee_get_cancellation_flag>:
utee_get_cancellation_flag():
/mnt/disk/raspbian-tee/optee_os/lib/libutee/arch/arm/utee_syscalls_asm.S:25
    12ac:	e92d40e0 	push	{r5, r6, r7, lr}
    12b0:	e3a07009 	mov	r7, #9
    12b4:	e3a06000 	mov	r6, #0
    12b8:	ef000000 	svc	0x00000000
    12bc:	e8bd80e0 	pop	{r5, r6, r7, pc}

000012c0 <utee_check_access_rights>:
utee_check_access_rights():
/mnt/disk/raspbian-tee/optee_os/lib/libutee/arch/arm/utee_syscalls_asm.S:28
    12c0:	e92d40e0 	push	{r5, r6, r7, lr}
    12c4:	e3a07008 	mov	r7, #8
    12c8:	e3a06000 	mov	r6, #0
    12cc:	ef000000 	svc	0x00000000
    12d0:	e8bd80e0 	pop	{r5, r6, r7, pc}

000012d4 <utee_unmask_cancellation>:
utee_unmask_cancellation():
/mnt/disk/raspbian-tee/optee_os/lib/libutee/arch/arm/utee_syscalls_asm.S:30
    12d4:	e92d40e0 	push	{r5, r6, r7, lr}
    12d8:	e3a0700a 	mov	r7, #10
    12dc:	e3a06000 	mov	r6, #0
    12e0:	ef000000 	svc	0x00000000
    12e4:	e8bd80e0 	pop	{r5, r6, r7, pc}

000012e8 <utee_mask_cancellation>:
utee_mask_cancellation():
/mnt/disk/raspbian-tee/optee_os/lib/libutee/arch/arm/utee_syscalls_asm.S:32
    12e8:	e92d40e0 	push	{r5, r6, r7, lr}
    12ec:	e3a0700b 	mov	r7, #11
    12f0:	e3a06000 	mov	r6, #0
    12f4:	ef000000 	svc	0x00000000
    12f8:	e8bd80e0 	pop	{r5, r6, r7, pc}

000012fc <utee_wait>:
utee_wait():
/mnt/disk/raspbian-tee/optee_os/lib/libutee/arch/arm/utee_syscalls_asm.S:34
    12fc:	e92d40e0 	push	{r5, r6, r7, lr}
    1300:	e3a0700c 	mov	r7, #12
    1304:	e3a06000 	mov	r6, #0
    1308:	ef000000 	svc	0x00000000
    130c:	e8bd80e0 	pop	{r5, r6, r7, pc}

00001310 <utee_get_time>:
utee_get_time():
/mnt/disk/raspbian-tee/optee_os/lib/libutee/arch/arm/utee_syscalls_asm.S:36
    1310:	e92d40e0 	push	{r5, r6, r7, lr}
    1314:	e3a0700d 	mov	r7, #13
    1318:	e3a06000 	mov	r6, #0
    131c:	ef000000 	svc	0x00000000
    1320:	e8bd80e0 	pop	{r5, r6, r7, pc}

00001324 <utee_set_ta_time>:
utee_set_ta_time():
/mnt/disk/raspbian-tee/optee_os/lib/libutee/arch/arm/utee_syscalls_asm.S:38
    1324:	e92d40e0 	push	{r5, r6, r7, lr}
    1328:	e3a0700e 	mov	r7, #14
    132c:	e3a06000 	mov	r6, #0
    1330:	ef000000 	svc	0x00000000
    1334:	e8bd80e0 	pop	{r5, r6, r7, pc}

00001338 <utee_cryp_state_alloc>:
utee_cryp_state_alloc():
/mnt/disk/raspbian-tee/optee_os/lib/libutee/arch/arm/utee_syscalls_asm.S:40
    1338:	e92d40e0 	push	{r5, r6, r7, lr}
    133c:	e3a0700f 	mov	r7, #15
    1340:	e3a06001 	mov	r6, #1
    1344:	e28d5010 	add	r5, sp, #16
    1348:	ef000000 	svc	0x00000000
    134c:	e8bd80e0 	pop	{r5, r6, r7, pc}

00001350 <utee_cryp_state_copy>:
utee_cryp_state_copy():
/mnt/disk/raspbian-tee/optee_os/lib/libutee/arch/arm/utee_syscalls_asm.S:42
    1350:	e92d40e0 	push	{r5, r6, r7, lr}
    1354:	e3a07010 	mov	r7, #16
    1358:	e3a06000 	mov	r6, #0
    135c:	ef000000 	svc	0x00000000
    1360:	e8bd80e0 	pop	{r5, r6, r7, pc}

00001364 <utee_cryp_state_free>:
utee_cryp_state_free():
/mnt/disk/raspbian-tee/optee_os/lib/libutee/arch/arm/utee_syscalls_asm.S:44
    1364:	e92d40e0 	push	{r5, r6, r7, lr}
    1368:	e3a07011 	mov	r7, #17
    136c:	e3a06000 	mov	r6, #0
    1370:	ef000000 	svc	0x00000000
    1374:	e8bd80e0 	pop	{r5, r6, r7, pc}

00001378 <utee_hash_init>:
utee_hash_init():
/mnt/disk/raspbian-tee/optee_os/lib/libutee/arch/arm/utee_syscalls_asm.S:46
    1378:	e92d40e0 	push	{r5, r6, r7, lr}
    137c:	e3a07012 	mov	r7, #18
    1380:	e3a06000 	mov	r6, #0
    1384:	ef000000 	svc	0x00000000
    1388:	e8bd80e0 	pop	{r5, r6, r7, pc}

0000138c <utee_hash_update>:
utee_hash_update():
/mnt/disk/raspbian-tee/optee_os/lib/libutee/arch/arm/utee_syscalls_asm.S:48
    138c:	e92d40e0 	push	{r5, r6, r7, lr}
    1390:	e3a07013 	mov	r7, #19
    1394:	e3a06000 	mov	r6, #0
    1398:	ef000000 	svc	0x00000000
    139c:	e8bd80e0 	pop	{r5, r6, r7, pc}

000013a0 <utee_hash_final>:
utee_hash_final():
/mnt/disk/raspbian-tee/optee_os/lib/libutee/arch/arm/utee_syscalls_asm.S:50
    13a0:	e92d40e0 	push	{r5, r6, r7, lr}
    13a4:	e3a07014 	mov	r7, #20
    13a8:	e3a06001 	mov	r6, #1
    13ac:	e28d5010 	add	r5, sp, #16
    13b0:	ef000000 	svc	0x00000000
    13b4:	e8bd80e0 	pop	{r5, r6, r7, pc}

000013b8 <utee_cipher_init>:
utee_cipher_init():
/mnt/disk/raspbian-tee/optee_os/lib/libutee/arch/arm/utee_syscalls_asm.S:52
    13b8:	e92d40e0 	push	{r5, r6, r7, lr}
    13bc:	e3a07015 	mov	r7, #21
    13c0:	e3a06000 	mov	r6, #0
    13c4:	ef000000 	svc	0x00000000
    13c8:	e8bd80e0 	pop	{r5, r6, r7, pc}

000013cc <utee_cipher_update>:
utee_cipher_update():
/mnt/disk/raspbian-tee/optee_os/lib/libutee/arch/arm/utee_syscalls_asm.S:54
    13cc:	e92d40e0 	push	{r5, r6, r7, lr}
    13d0:	e3a07016 	mov	r7, #22
    13d4:	e3a06001 	mov	r6, #1
    13d8:	e28d5010 	add	r5, sp, #16
    13dc:	ef000000 	svc	0x00000000
    13e0:	e8bd80e0 	pop	{r5, r6, r7, pc}

000013e4 <utee_cipher_final>:
utee_cipher_final():
/mnt/disk/raspbian-tee/optee_os/lib/libutee/arch/arm/utee_syscalls_asm.S:56
    13e4:	e92d40e0 	push	{r5, r6, r7, lr}
    13e8:	e3a07017 	mov	r7, #23
    13ec:	e3a06001 	mov	r6, #1
    13f0:	e28d5010 	add	r5, sp, #16
    13f4:	ef000000 	svc	0x00000000
    13f8:	e8bd80e0 	pop	{r5, r6, r7, pc}

000013fc <utee_cryp_obj_get_info>:
utee_cryp_obj_get_info():
/mnt/disk/raspbian-tee/optee_os/lib/libutee/arch/arm/utee_syscalls_asm.S:58
    13fc:	e92d40e0 	push	{r5, r6, r7, lr}
    1400:	e3a07018 	mov	r7, #24
    1404:	e3a06000 	mov	r6, #0
    1408:	ef000000 	svc	0x00000000
    140c:	e8bd80e0 	pop	{r5, r6, r7, pc}

00001410 <utee_cryp_obj_restrict_usage>:
utee_cryp_obj_restrict_usage():
/mnt/disk/raspbian-tee/optee_os/lib/libutee/arch/arm/utee_syscalls_asm.S:60
    1410:	e92d40e0 	push	{r5, r6, r7, lr}
    1414:	e3a07019 	mov	r7, #25
    1418:	e3a06000 	mov	r6, #0
    141c:	ef000000 	svc	0x00000000
    1420:	e8bd80e0 	pop	{r5, r6, r7, pc}

00001424 <utee_cryp_obj_get_attr>:
utee_cryp_obj_get_attr():
/mnt/disk/raspbian-tee/optee_os/lib/libutee/arch/arm/utee_syscalls_asm.S:63
    1424:	e92d40e0 	push	{r5, r6, r7, lr}
    1428:	e3a0701a 	mov	r7, #26
    142c:	e3a06000 	mov	r6, #0
    1430:	ef000000 	svc	0x00000000
    1434:	e8bd80e0 	pop	{r5, r6, r7, pc}

00001438 <utee_cryp_obj_alloc>:
utee_cryp_obj_alloc():
/mnt/disk/raspbian-tee/optee_os/lib/libutee/arch/arm/utee_syscalls_asm.S:65
    1438:	e92d40e0 	push	{r5, r6, r7, lr}
    143c:	e3a0701b 	mov	r7, #27
    1440:	e3a06000 	mov	r6, #0
    1444:	ef000000 	svc	0x00000000
    1448:	e8bd80e0 	pop	{r5, r6, r7, pc}

0000144c <utee_cryp_obj_close>:
utee_cryp_obj_close():
/mnt/disk/raspbian-tee/optee_os/lib/libutee/arch/arm/utee_syscalls_asm.S:67
    144c:	e92d40e0 	push	{r5, r6, r7, lr}
    1450:	e3a0701c 	mov	r7, #28
    1454:	e3a06000 	mov	r6, #0
    1458:	ef000000 	svc	0x00000000
    145c:	e8bd80e0 	pop	{r5, r6, r7, pc}

00001460 <utee_cryp_obj_reset>:
utee_cryp_obj_reset():
/mnt/disk/raspbian-tee/optee_os/lib/libutee/arch/arm/utee_syscalls_asm.S:69
    1460:	e92d40e0 	push	{r5, r6, r7, lr}
    1464:	e3a0701d 	mov	r7, #29
    1468:	e3a06000 	mov	r6, #0
    146c:	ef000000 	svc	0x00000000
    1470:	e8bd80e0 	pop	{r5, r6, r7, pc}

00001474 <utee_cryp_obj_populate>:
utee_cryp_obj_populate():
/mnt/disk/raspbian-tee/optee_os/lib/libutee/arch/arm/utee_syscalls_asm.S:71
    1474:	e92d40e0 	push	{r5, r6, r7, lr}
    1478:	e3a0701e 	mov	r7, #30
    147c:	e3a06000 	mov	r6, #0
    1480:	ef000000 	svc	0x00000000
    1484:	e8bd80e0 	pop	{r5, r6, r7, pc}

00001488 <utee_cryp_obj_copy>:
utee_cryp_obj_copy():
/mnt/disk/raspbian-tee/optee_os/lib/libutee/arch/arm/utee_syscalls_asm.S:73
    1488:	e92d40e0 	push	{r5, r6, r7, lr}
    148c:	e3a0701f 	mov	r7, #31
    1490:	e3a06000 	mov	r6, #0
    1494:	ef000000 	svc	0x00000000
    1498:	e8bd80e0 	pop	{r5, r6, r7, pc}

0000149c <utee_cryp_derive_key>:
utee_cryp_derive_key():
/mnt/disk/raspbian-tee/optee_os/lib/libutee/arch/arm/utee_syscalls_asm.S:75
    149c:	e92d40e0 	push	{r5, r6, r7, lr}
    14a0:	e3a07020 	mov	r7, #32
    14a4:	e3a06000 	mov	r6, #0
    14a8:	ef000000 	svc	0x00000000
    14ac:	e8bd80e0 	pop	{r5, r6, r7, pc}

000014b0 <utee_cryp_random_number_generate>:
utee_cryp_random_number_generate():
/mnt/disk/raspbian-tee/optee_os/lib/libutee/arch/arm/utee_syscalls_asm.S:77
    14b0:	e92d40e0 	push	{r5, r6, r7, lr}
    14b4:	e3a07021 	mov	r7, #33	; 0x21
    14b8:	e3a06000 	mov	r6, #0
    14bc:	ef000000 	svc	0x00000000
    14c0:	e8bd80e0 	pop	{r5, r6, r7, pc}

000014c4 <utee_authenc_init>:
utee_authenc_init():
/mnt/disk/raspbian-tee/optee_os/lib/libutee/arch/arm/utee_syscalls_asm.S:80
    14c4:	e92d40e0 	push	{r5, r6, r7, lr}
    14c8:	e3a07022 	mov	r7, #34	; 0x22
    14cc:	e3a06002 	mov	r6, #2
    14d0:	e28d5010 	add	r5, sp, #16
    14d4:	ef000000 	svc	0x00000000
    14d8:	e8bd80e0 	pop	{r5, r6, r7, pc}

000014dc <utee_authenc_update_aad>:
utee_authenc_update_aad():
/mnt/disk/raspbian-tee/optee_os/lib/libutee/arch/arm/utee_syscalls_asm.S:82
    14dc:	e92d40e0 	push	{r5, r6, r7, lr}
    14e0:	e3a07023 	mov	r7, #35	; 0x23
    14e4:	e3a06000 	mov	r6, #0
    14e8:	ef000000 	svc	0x00000000
    14ec:	e8bd80e0 	pop	{r5, r6, r7, pc}

000014f0 <utee_authenc_update_payload>:
utee_authenc_update_payload():
/mnt/disk/raspbian-tee/optee_os/lib/libutee/arch/arm/utee_syscalls_asm.S:84
    14f0:	e92d40e0 	push	{r5, r6, r7, lr}
    14f4:	e3a07024 	mov	r7, #36	; 0x24
    14f8:	e3a06001 	mov	r6, #1
    14fc:	e28d5010 	add	r5, sp, #16
    1500:	ef000000 	svc	0x00000000
    1504:	e8bd80e0 	pop	{r5, r6, r7, pc}

00001508 <utee_authenc_enc_final>:
utee_authenc_enc_final():
/mnt/disk/raspbian-tee/optee_os/lib/libutee/arch/arm/utee_syscalls_asm.S:87
    1508:	e92d40e0 	push	{r5, r6, r7, lr}
    150c:	e3a07025 	mov	r7, #37	; 0x25
    1510:	e3a06003 	mov	r6, #3
    1514:	e28d5010 	add	r5, sp, #16
    1518:	ef000000 	svc	0x00000000
    151c:	e8bd80e0 	pop	{r5, r6, r7, pc}

00001520 <utee_authenc_dec_final>:
utee_authenc_dec_final():
/mnt/disk/raspbian-tee/optee_os/lib/libutee/arch/arm/utee_syscalls_asm.S:89
    1520:	e92d40e0 	push	{r5, r6, r7, lr}
    1524:	e3a07026 	mov	r7, #38	; 0x26
    1528:	e3a06003 	mov	r6, #3
    152c:	e28d5010 	add	r5, sp, #16
    1530:	ef000000 	svc	0x00000000
    1534:	e8bd80e0 	pop	{r5, r6, r7, pc}

00001538 <utee_asymm_operate>:
utee_asymm_operate():
/mnt/disk/raspbian-tee/optee_os/lib/libutee/arch/arm/utee_syscalls_asm.S:91
    1538:	e92d40e0 	push	{r5, r6, r7, lr}
    153c:	e3a07027 	mov	r7, #39	; 0x27
    1540:	e3a06003 	mov	r6, #3
    1544:	e28d5010 	add	r5, sp, #16
    1548:	ef000000 	svc	0x00000000
    154c:	e8bd80e0 	pop	{r5, r6, r7, pc}

00001550 <utee_asymm_verify>:
utee_asymm_verify():
/mnt/disk/raspbian-tee/optee_os/lib/libutee/arch/arm/utee_syscalls_asm.S:93
    1550:	e92d40e0 	push	{r5, r6, r7, lr}
    1554:	e3a07028 	mov	r7, #40	; 0x28
    1558:	e3a06003 	mov	r6, #3
    155c:	e28d5010 	add	r5, sp, #16
    1560:	ef000000 	svc	0x00000000
    1564:	e8bd80e0 	pop	{r5, r6, r7, pc}

00001568 <utee_storage_obj_open>:
utee_storage_obj_open():
/mnt/disk/raspbian-tee/optee_os/lib/libutee/arch/arm/utee_syscalls_asm.S:95
    1568:	e92d40e0 	push	{r5, r6, r7, lr}
    156c:	e3a07029 	mov	r7, #41	; 0x29
    1570:	e3a06001 	mov	r6, #1
    1574:	e28d5010 	add	r5, sp, #16
    1578:	ef000000 	svc	0x00000000
    157c:	e8bd80e0 	pop	{r5, r6, r7, pc}

00001580 <utee_storage_obj_create>:
utee_storage_obj_create():
/mnt/disk/raspbian-tee/optee_os/lib/libutee/arch/arm/utee_syscalls_asm.S:97
    1580:	e92d40e0 	push	{r5, r6, r7, lr}
    1584:	e3a0702a 	mov	r7, #42	; 0x2a
    1588:	e3a06004 	mov	r6, #4
    158c:	e28d5010 	add	r5, sp, #16
    1590:	ef000000 	svc	0x00000000
    1594:	e8bd80e0 	pop	{r5, r6, r7, pc}

00001598 <utee_storage_obj_del>:
utee_storage_obj_del():
/mnt/disk/raspbian-tee/optee_os/lib/libutee/arch/arm/utee_syscalls_asm.S:99
    1598:	e92d40e0 	push	{r5, r6, r7, lr}
    159c:	e3a0702b 	mov	r7, #43	; 0x2b
    15a0:	e3a06000 	mov	r6, #0
    15a4:	ef000000 	svc	0x00000000
    15a8:	e8bd80e0 	pop	{r5, r6, r7, pc}

000015ac <utee_storage_obj_rename>:
utee_storage_obj_rename():
/mnt/disk/raspbian-tee/optee_os/lib/libutee/arch/arm/utee_syscalls_asm.S:101
    15ac:	e92d40e0 	push	{r5, r6, r7, lr}
    15b0:	e3a0702c 	mov	r7, #44	; 0x2c
    15b4:	e3a06000 	mov	r6, #0
    15b8:	ef000000 	svc	0x00000000
    15bc:	e8bd80e0 	pop	{r5, r6, r7, pc}

000015c0 <utee_storage_alloc_enum>:
utee_storage_alloc_enum():
/mnt/disk/raspbian-tee/optee_os/lib/libutee/arch/arm/utee_syscalls_asm.S:103
    15c0:	e92d40e0 	push	{r5, r6, r7, lr}
    15c4:	e3a0702d 	mov	r7, #45	; 0x2d
    15c8:	e3a06000 	mov	r6, #0
    15cc:	ef000000 	svc	0x00000000
    15d0:	e8bd80e0 	pop	{r5, r6, r7, pc}

000015d4 <utee_storage_free_enum>:
utee_storage_free_enum():
/mnt/disk/raspbian-tee/optee_os/lib/libutee/arch/arm/utee_syscalls_asm.S:105
    15d4:	e92d40e0 	push	{r5, r6, r7, lr}
    15d8:	e3a0702e 	mov	r7, #46	; 0x2e
    15dc:	e3a06000 	mov	r6, #0
    15e0:	ef000000 	svc	0x00000000
    15e4:	e8bd80e0 	pop	{r5, r6, r7, pc}

000015e8 <utee_storage_reset_enum>:
utee_storage_reset_enum():
/mnt/disk/raspbian-tee/optee_os/lib/libutee/arch/arm/utee_syscalls_asm.S:107
    15e8:	e92d40e0 	push	{r5, r6, r7, lr}
    15ec:	e3a0702f 	mov	r7, #47	; 0x2f
    15f0:	e3a06000 	mov	r6, #0
    15f4:	ef000000 	svc	0x00000000
    15f8:	e8bd80e0 	pop	{r5, r6, r7, pc}

000015fc <utee_storage_start_enum>:
utee_storage_start_enum():
/mnt/disk/raspbian-tee/optee_os/lib/libutee/arch/arm/utee_syscalls_asm.S:109
    15fc:	e92d40e0 	push	{r5, r6, r7, lr}
    1600:	e3a07030 	mov	r7, #48	; 0x30
    1604:	e3a06000 	mov	r6, #0
    1608:	ef000000 	svc	0x00000000
    160c:	e8bd80e0 	pop	{r5, r6, r7, pc}

00001610 <utee_storage_next_enum>:
utee_storage_next_enum():
/mnt/disk/raspbian-tee/optee_os/lib/libutee/arch/arm/utee_syscalls_asm.S:111
    1610:	e92d40e0 	push	{r5, r6, r7, lr}
    1614:	e3a07031 	mov	r7, #49	; 0x31
    1618:	e3a06000 	mov	r6, #0
    161c:	ef000000 	svc	0x00000000
    1620:	e8bd80e0 	pop	{r5, r6, r7, pc}

00001624 <utee_storage_obj_read>:
utee_storage_obj_read():
/mnt/disk/raspbian-tee/optee_os/lib/libutee/arch/arm/utee_syscalls_asm.S:113
    1624:	e92d40e0 	push	{r5, r6, r7, lr}
    1628:	e3a07032 	mov	r7, #50	; 0x32
    162c:	e3a06000 	mov	r6, #0
    1630:	ef000000 	svc	0x00000000
    1634:	e8bd80e0 	pop	{r5, r6, r7, pc}

00001638 <utee_storage_obj_write>:
utee_storage_obj_write():
/mnt/disk/raspbian-tee/optee_os/lib/libutee/arch/arm/utee_syscalls_asm.S:115
    1638:	e92d40e0 	push	{r5, r6, r7, lr}
    163c:	e3a07033 	mov	r7, #51	; 0x33
    1640:	e3a06000 	mov	r6, #0
    1644:	ef000000 	svc	0x00000000
    1648:	e8bd80e0 	pop	{r5, r6, r7, pc}

0000164c <utee_storage_obj_trunc>:
utee_storage_obj_trunc():
/mnt/disk/raspbian-tee/optee_os/lib/libutee/arch/arm/utee_syscalls_asm.S:117
    164c:	e92d40e0 	push	{r5, r6, r7, lr}
    1650:	e3a07034 	mov	r7, #52	; 0x34
    1654:	e3a06000 	mov	r6, #0
    1658:	ef000000 	svc	0x00000000
    165c:	e8bd80e0 	pop	{r5, r6, r7, pc}

00001660 <utee_storage_obj_seek>:
utee_storage_obj_seek():
/mnt/disk/raspbian-tee/optee_os/lib/libutee/arch/arm/utee_syscalls_asm.S:119
    1660:	e92d40e0 	push	{r5, r6, r7, lr}
    1664:	e3a07035 	mov	r7, #53	; 0x35
    1668:	e3a06000 	mov	r6, #0
    166c:	ef000000 	svc	0x00000000
    1670:	e8bd80e0 	pop	{r5, r6, r7, pc}

00001674 <utee_cryp_obj_generate_key>:
utee_cryp_obj_generate_key():
/mnt/disk/raspbian-tee/optee_os/lib/libutee/arch/arm/utee_syscalls_asm.S:121
    1674:	e92d40e0 	push	{r5, r6, r7, lr}
    1678:	e3a07036 	mov	r7, #54	; 0x36
    167c:	e3a06000 	mov	r6, #0
    1680:	ef000000 	svc	0x00000000
    1684:	e8bd80e0 	pop	{r5, r6, r7, pc}

00001688 <utee_cache_operation>:
utee_cache_operation():
/mnt/disk/raspbian-tee/optee_os/lib/libutee/arch/arm/utee_syscalls_asm.S:124
    1688:	e92d40e0 	push	{r5, r6, r7, lr}
    168c:	e3a07046 	mov	r7, #70	; 0x46
    1690:	e3a06000 	mov	r6, #0
    1694:	ef000000 	svc	0x00000000
    1698:	e8bd80e0 	pop	{r5, r6, r7, pc}

0000169c <__utee_mcount>:
__utee_mcount():
/mnt/disk/raspbian-tee/optee_os/lib/libutee/arch/arm/gprof/gprof_a32.S:49
    169c:	e52de004 	push	{lr}		; (str lr, [sp, #-4]!)
/mnt/disk/raspbian-tee/optee_os/lib/libutee/arch/arm/gprof/gprof_a32.S:50
    16a0:	e8bd5000 	pop	{ip, lr}
/mnt/disk/raspbian-tee/optee_os/lib/libutee/arch/arm/gprof/gprof_a32.S:51
    16a4:	e12fff1c 	bx	ip

000016a8 <__utee_from_param>:
__utee_from_param():
/mnt/disk/raspbian-tee/optee_os/lib/libutee/tee_api.c:23
    16a8:	2300      	movs	r3, #0
/mnt/disk/raspbian-tee/optee_os/lib/libutee/tee_api.c:20
    16aa:	b5f0      	push	{r4, r5, r6, r7, lr}
    16ac:	4694      	mov	ip, r2
    16ae:	4615      	mov	r5, r2
/mnt/disk/raspbian-tee/optee_os/lib/libutee/tee_api.c:39
    16b0:	2600      	movs	r6, #0
    16b2:	2700      	movs	r7, #0
/mnt/disk/raspbian-tee/optee_os/lib/libutee/tee_api.c:35
    16b4:	461a      	mov	r2, r3
/mnt/disk/raspbian-tee/optee_os/lib/libutee/tee_api.c:23
    16b6:	e880 000a 	stmia.w	r0, {r1, r3}
/mnt/disk/raspbian-tee/optee_os/lib/libutee/tee_api.c:25
    16ba:	fa21 f403 	lsr.w	r4, r1, r3
    16be:	f004 040f 	and.w	r4, r4, #15
    16c2:	3c01      	subs	r4, #1
    16c4:	2c06      	cmp	r4, #6
    16c6:	d812      	bhi.n	16ee <__utee_from_param+0x46>
    16c8:	e8df f004 	tbb	[pc, r4]
    16cc:	11040404 	.word	0x11040404
    16d0:	0404      	.short	0x0404
    16d2:	04          	.byte	0x04
    16d3:	00          	.byte	0x00
/mnt/disk/raspbian-tee/optee_os/lib/libutee/tee_api.c:35
    16d4:	f85c 4013 	ldr.w	r4, [ip, r3, lsl #1]
    16d8:	6084      	str	r4, [r0, #8]
    16da:	60c2      	str	r2, [r0, #12]
/mnt/disk/raspbian-tee/optee_os/lib/libutee/tee_api.c:36
    16dc:	686c      	ldr	r4, [r5, #4]
    16de:	6104      	str	r4, [r0, #16]
    16e0:	6142      	str	r2, [r0, #20]
    16e2:	3304      	adds	r3, #4
    16e4:	3508      	adds	r5, #8
    16e6:	3010      	adds	r0, #16
/mnt/disk/raspbian-tee/optee_os/lib/libutee/tee_api.c:24 (discriminator 2)
    16e8:	2b10      	cmp	r3, #16
    16ea:	d1e6      	bne.n	16ba <__utee_from_param+0x12>
/mnt/disk/raspbian-tee/optee_os/lib/libutee/tee_api.c:44
    16ec:	bdf0      	pop	{r4, r5, r6, r7, pc}
/mnt/disk/raspbian-tee/optee_os/lib/libutee/tee_api.c:39
    16ee:	e9c0 6702 	strd	r6, r7, [r0, #8]
/mnt/disk/raspbian-tee/optee_os/lib/libutee/tee_api.c:40
    16f2:	e9c0 6704 	strd	r6, r7, [r0, #16]
/mnt/disk/raspbian-tee/optee_os/lib/libutee/tee_api.c:41
    16f6:	e7f4      	b.n	16e2 <__utee_from_param+0x3a>

000016f8 <__utee_to_param>:
__utee_to_param():
/mnt/disk/raspbian-tee/optee_os/lib/libutee/tee_api.c:48
    16f8:	b5f0      	push	{r4, r5, r6, r7, lr}
/mnt/disk/raspbian-tee/optee_os/lib/libutee/tee_api.c:50
    16fa:	2300      	movs	r3, #0
    16fc:	6816      	ldr	r6, [r2, #0]
    16fe:	4605      	mov	r5, r0
/mnt/disk/raspbian-tee/optee_os/lib/libutee/tee_api.c:56
    1700:	fa26 f403 	lsr.w	r4, r6, r3
/mnt/disk/raspbian-tee/optee_os/lib/libutee/tee_api.c:53
    1704:	f8d2 c008 	ldr.w	ip, [r2, #8]
/mnt/disk/raspbian-tee/optee_os/lib/libutee/tee_api.c:56
    1708:	f004 040f 	and.w	r4, r4, #15
/mnt/disk/raspbian-tee/optee_os/lib/libutee/tee_api.c:54
    170c:	6917      	ldr	r7, [r2, #16]
/mnt/disk/raspbian-tee/optee_os/lib/libutee/tee_api.c:56
    170e:	3c01      	subs	r4, #1
    1710:	2c06      	cmp	r4, #6
    1712:	d808      	bhi.n	1726 <__utee_to_param+0x2e>
    1714:	e8df f004 	tbb	[pc, r4]
    1718:	07040404 	.word	0x07040404
    171c:	0404      	.short	0x0404
    171e:	04          	.byte	0x04
    171f:	00          	.byte	0x00
/mnt/disk/raspbian-tee/optee_os/lib/libutee/tee_api.c:66
    1720:	f840 c013 	str.w	ip, [r0, r3, lsl #1]
/mnt/disk/raspbian-tee/optee_os/lib/libutee/tee_api.c:67
    1724:	606f      	str	r7, [r5, #4]
    1726:	3304      	adds	r3, #4
    1728:	3210      	adds	r2, #16
    172a:	3508      	adds	r5, #8
/mnt/disk/raspbian-tee/optee_os/lib/libutee/tee_api.c:52 (discriminator 2)
    172c:	2b10      	cmp	r3, #16
    172e:	d1e7      	bne.n	1700 <__utee_to_param+0x8>
/mnt/disk/raspbian-tee/optee_os/lib/libutee/tee_api.c:74
    1730:	b101      	cbz	r1, 1734 <__utee_to_param+0x3c>
/mnt/disk/raspbian-tee/optee_os/lib/libutee/tee_api.c:75
    1732:	600e      	str	r6, [r1, #0]
    1734:	bdf0      	pop	{r4, r5, r6, r7, pc}

00001736 <TEE_OpenTASession>:
TEE_OpenTASession():
/mnt/disk/raspbian-tee/optee_os/lib/libutee/tee_api.c:84
    1736:	b5f0      	push	{r4, r5, r6, r7, lr}
    1738:	4605      	mov	r5, r0
    173a:	460f      	mov	r7, r1
    173c:	b097      	sub	sp, #92	; 0x5c
    173e:	4611      	mov	r1, r2
/mnt/disk/raspbian-tee/optee_os/lib/libutee/tee_api.c:89
    1740:	ac04      	add	r4, sp, #16
    1742:	461a      	mov	r2, r3
    1744:	4620      	mov	r0, r4
/mnt/disk/raspbian-tee/optee_os/lib/libutee/tee_api.c:84
    1746:	461e      	mov	r6, r3
/mnt/disk/raspbian-tee/optee_os/lib/libutee/tee_api.c:89
    1748:	f7ff ffae 	bl	16a8 <__utee_from_param>
/mnt/disk/raspbian-tee/optee_os/lib/libutee/tee_api.c:90
    174c:	9b1d      	ldr	r3, [sp, #116]	; 0x74
    174e:	9300      	str	r3, [sp, #0]
    1750:	4622      	mov	r2, r4
    1752:	4639      	mov	r1, r7
    1754:	4628      	mov	r0, r5
    1756:	ab03      	add	r3, sp, #12
    1758:	f7ff ed86 	blx	1268 <utee_open_ta_session>
/mnt/disk/raspbian-tee/optee_os/lib/libutee/tee_api.c:92
    175c:	4622      	mov	r2, r4
/mnt/disk/raspbian-tee/optee_os/lib/libutee/tee_api.c:90
    175e:	4605      	mov	r5, r0
/mnt/disk/raspbian-tee/optee_os/lib/libutee/tee_api.c:92
    1760:	2100      	movs	r1, #0
    1762:	4630      	mov	r0, r6
    1764:	f7ff ffc8 	bl	16f8 <__utee_to_param>
/mnt/disk/raspbian-tee/optee_os/lib/libutee/tee_api.c:98
    1768:	b10d      	cbz	r5, 176e <TEE_OpenTASession+0x38>
/mnt/disk/raspbian-tee/optee_os/lib/libutee/tee_api.c:99
    176a:	2300      	movs	r3, #0
    176c:	9303      	str	r3, [sp, #12]
/mnt/disk/raspbian-tee/optee_os/lib/libutee/tee_api.c:101
    176e:	9b1c      	ldr	r3, [sp, #112]	; 0x70
/mnt/disk/raspbian-tee/optee_os/lib/libutee/tee_api.c:103
    1770:	4628      	mov	r0, r5
/mnt/disk/raspbian-tee/optee_os/lib/libutee/tee_api.c:101
    1772:	9a03      	ldr	r2, [sp, #12]
    1774:	601a      	str	r2, [r3, #0]
/mnt/disk/raspbian-tee/optee_os/lib/libutee/tee_api.c:103
    1776:	b017      	add	sp, #92	; 0x5c
    1778:	bdf0      	pop	{r4, r5, r6, r7, pc}

0000177a <TEE_CloseTASession>:
TEE_CloseTASession():
/mnt/disk/raspbian-tee/optee_os/lib/libutee/tee_api.c:106
    177a:	b508      	push	{r3, lr}
/mnt/disk/raspbian-tee/optee_os/lib/libutee/tee_api.c:107
    177c:	b130      	cbz	r0, 178c <TEE_CloseTASession+0x12>
/mnt/disk/raspbian-tee/optee_os/lib/libutee/tee_api.c:108
    177e:	f7ff ed80 	blx	1280 <utee_close_ta_session>
/mnt/disk/raspbian-tee/optee_os/lib/libutee/tee_api.c:110
    1782:	b118      	cbz	r0, 178c <TEE_CloseTASession+0x12>
/mnt/disk/raspbian-tee/optee_os/lib/libutee/tee_api.c:113
    1784:	e8bd 4008 	ldmia.w	sp!, {r3, lr}
/mnt/disk/raspbian-tee/optee_os/lib/libutee/tee_api.c:111
    1788:	f004 bc9c 	b.w	60c4 <TEE_Panic>
    178c:	bd08      	pop	{r3, pc}

0000178e <TEE_InvokeTACommand>:
TEE_InvokeTACommand():
/mnt/disk/raspbian-tee/optee_os/lib/libutee/tee_api.c:120
    178e:	e92d 41f0 	stmdb	sp!, {r4, r5, r6, r7, r8, lr}
    1792:	4604      	mov	r4, r0
    1794:	460f      	mov	r7, r1
    1796:	b096      	sub	sp, #88	; 0x58
/mnt/disk/raspbian-tee/optee_os/lib/libutee/tee_api.c:125
    1798:	4619      	mov	r1, r3
    179a:	ad04      	add	r5, sp, #16
/mnt/disk/raspbian-tee/optee_os/lib/libutee/tee_api.c:120
    179c:	4690      	mov	r8, r2
/mnt/disk/raspbian-tee/optee_os/lib/libutee/tee_api.c:125
    179e:	4628      	mov	r0, r5
/mnt/disk/raspbian-tee/optee_os/lib/libutee/tee_api.c:120
    17a0:	9e1d      	ldr	r6, [sp, #116]	; 0x74
/mnt/disk/raspbian-tee/optee_os/lib/libutee/tee_api.c:125
    17a2:	9a1c      	ldr	r2, [sp, #112]	; 0x70
    17a4:	f7ff ff80 	bl	16a8 <__utee_from_param>
/mnt/disk/raspbian-tee/optee_os/lib/libutee/tee_api.c:126
    17a8:	ab03      	add	r3, sp, #12
    17aa:	4642      	mov	r2, r8
    17ac:	9300      	str	r3, [sp, #0]
    17ae:	4639      	mov	r1, r7
    17b0:	462b      	mov	r3, r5
    17b2:	4620      	mov	r0, r4
    17b4:	f7ff ed6e 	blx	1294 <utee_invoke_ta_command>
/mnt/disk/raspbian-tee/optee_os/lib/libutee/tee_api.c:129
    17b8:	462a      	mov	r2, r5
/mnt/disk/raspbian-tee/optee_os/lib/libutee/tee_api.c:126
    17ba:	4604      	mov	r4, r0
/mnt/disk/raspbian-tee/optee_os/lib/libutee/tee_api.c:129
    17bc:	2100      	movs	r1, #0
    17be:	981c      	ldr	r0, [sp, #112]	; 0x70
    17c0:	f7ff ff9a 	bl	16f8 <__utee_to_param>
    17c4:	9b03      	ldr	r3, [sp, #12]
/mnt/disk/raspbian-tee/optee_os/lib/libutee/tee_api.c:131
    17c6:	b106      	cbz	r6, 17ca <TEE_InvokeTACommand+0x3c>
/mnt/disk/raspbian-tee/optee_os/lib/libutee/tee_api.c:132
    17c8:	6033      	str	r3, [r6, #0]
/mnt/disk/raspbian-tee/optee_os/lib/libutee/tee_api.c:134
    17ca:	2b04      	cmp	r3, #4
    17cc:	d009      	beq.n	17e2 <TEE_InvokeTACommand+0x54>
/mnt/disk/raspbian-tee/optee_os/lib/libutee/tee_api.c:137
    17ce:	b144      	cbz	r4, 17e2 <TEE_InvokeTACommand+0x54>
/mnt/disk/raspbian-tee/optee_os/lib/libutee/tee_api.c:137 (discriminator 1)
    17d0:	4b06      	ldr	r3, [pc, #24]	; (17ec <TEE_InvokeTACommand+0x5e>)
    17d2:	429c      	cmp	r4, r3
    17d4:	d005      	beq.n	17e2 <TEE_InvokeTACommand+0x54>
/mnt/disk/raspbian-tee/optee_os/lib/libutee/tee_api.c:138
    17d6:	4b06      	ldr	r3, [pc, #24]	; (17f0 <TEE_InvokeTACommand+0x62>)
    17d8:	429c      	cmp	r4, r3
    17da:	d002      	beq.n	17e2 <TEE_InvokeTACommand+0x54>
/mnt/disk/raspbian-tee/optee_os/lib/libutee/tee_api.c:140
    17dc:	4620      	mov	r0, r4
    17de:	f004 fc71 	bl	60c4 <TEE_Panic>
/mnt/disk/raspbian-tee/optee_os/lib/libutee/tee_api.c:143
    17e2:	4620      	mov	r0, r4
    17e4:	b016      	add	sp, #88	; 0x58
    17e6:	e8bd 81f0 	ldmia.w	sp!, {r4, r5, r6, r7, r8, pc}
    17ea:	bf00      	nop
    17ec:	ffff000c 	.word	0xffff000c
    17f0:	ffff3024 	.word	0xffff3024

000017f4 <TEE_GetCancellationFlag>:
TEE_GetCancellationFlag():
/mnt/disk/raspbian-tee/optee_os/lib/libutee/tee_api.c:148
    17f4:	b507      	push	{r0, r1, r2, lr}
/mnt/disk/raspbian-tee/optee_os/lib/libutee/tee_api.c:150
    17f6:	a801      	add	r0, sp, #4
    17f8:	f7ff ed58 	blx	12ac <utee_get_cancellation_flag>
/mnt/disk/raspbian-tee/optee_os/lib/libutee/tee_api.c:152
    17fc:	b108      	cbz	r0, 1802 <TEE_GetCancellationFlag+0xe>
/mnt/disk/raspbian-tee/optee_os/lib/libutee/tee_api.c:153
    17fe:	2300      	movs	r3, #0
    1800:	9301      	str	r3, [sp, #4]
/mnt/disk/raspbian-tee/optee_os/lib/libutee/tee_api.c:155
    1802:	9801      	ldr	r0, [sp, #4]
    1804:	3000      	adds	r0, #0
    1806:	bf18      	it	ne
    1808:	2001      	movne	r0, #1
    180a:	b003      	add	sp, #12
    180c:	f85d fb04 	ldr.w	pc, [sp], #4

00001810 <TEE_UnmaskCancellation>:
TEE_UnmaskCancellation():
/mnt/disk/raspbian-tee/optee_os/lib/libutee/tee_api.c:158
    1810:	b507      	push	{r0, r1, r2, lr}
/mnt/disk/raspbian-tee/optee_os/lib/libutee/tee_api.c:160
    1812:	a801      	add	r0, sp, #4
    1814:	f7ff ed5e 	blx	12d4 <utee_unmask_cancellation>
/mnt/disk/raspbian-tee/optee_os/lib/libutee/tee_api.c:162
    1818:	b108      	cbz	r0, 181e <TEE_UnmaskCancellation+0xe>
/mnt/disk/raspbian-tee/optee_os/lib/libutee/tee_api.c:163
    181a:	f004 fc53 	bl	60c4 <TEE_Panic>
/mnt/disk/raspbian-tee/optee_os/lib/libutee/tee_api.c:165
    181e:	9801      	ldr	r0, [sp, #4]
    1820:	3000      	adds	r0, #0
    1822:	bf18      	it	ne
    1824:	2001      	movne	r0, #1
    1826:	b003      	add	sp, #12
    1828:	f85d fb04 	ldr.w	pc, [sp], #4

0000182c <TEE_MaskCancellation>:
TEE_MaskCancellation():
/mnt/disk/raspbian-tee/optee_os/lib/libutee/tee_api.c:168
    182c:	b507      	push	{r0, r1, r2, lr}
/mnt/disk/raspbian-tee/optee_os/lib/libutee/tee_api.c:170
    182e:	a801      	add	r0, sp, #4
    1830:	f7ff ed5a 	blx	12e8 <utee_mask_cancellation>
/mnt/disk/raspbian-tee/optee_os/lib/libutee/tee_api.c:172
    1834:	b108      	cbz	r0, 183a <TEE_MaskCancellation+0xe>
/mnt/disk/raspbian-tee/optee_os/lib/libutee/tee_api.c:173
    1836:	f004 fc45 	bl	60c4 <TEE_Panic>
/mnt/disk/raspbian-tee/optee_os/lib/libutee/tee_api.c:175
    183a:	9801      	ldr	r0, [sp, #4]
    183c:	3000      	adds	r0, #0
    183e:	bf18      	it	ne
    1840:	2001      	movne	r0, #1
    1842:	b003      	add	sp, #12
    1844:	f85d fb04 	ldr.w	pc, [sp], #4

00001848 <TEE_CheckMemoryAccessRights>:
TEE_CheckMemoryAccessRights():
/mnt/disk/raspbian-tee/optee_os/lib/libutee/tee_api.c:184
    1848:	b10a      	cbz	r2, 184e <TEE_CheckMemoryAccessRights+0x6>
/mnt/disk/raspbian-tee/optee_os/lib/libutee/tee_api.c:188
    184a:	f004 bc71 	b.w	6130 <__utee_check_access_rights_from_thumb>
/mnt/disk/raspbian-tee/optee_os/lib/libutee/tee_api.c:200
    184e:	4610      	mov	r0, r2
    1850:	4770      	bx	lr

00001852 <TEE_SetInstanceData>:
TEE_SetInstanceData():
/mnt/disk/raspbian-tee/optee_os/lib/libutee/tee_api.c:204
    1852:	4b02      	ldr	r3, [pc, #8]	; (185c <TEE_SetInstanceData+0xa>)
    1854:	447b      	add	r3, pc
    1856:	6018      	str	r0, [r3, #0]
    1858:	4770      	bx	lr
    185a:	bf00      	nop
    185c:	00006c80 	.word	0x00006c80

00001860 <TEE_GetInstanceData>:
TEE_GetInstanceData():
/mnt/disk/raspbian-tee/optee_os/lib/libutee/tee_api.c:210
    1860:	4b01      	ldr	r3, [pc, #4]	; (1868 <TEE_GetInstanceData+0x8>)
    1862:	447b      	add	r3, pc
    1864:	6818      	ldr	r0, [r3, #0]
    1866:	4770      	bx	lr
    1868:	00006c72 	.word	0x00006c72

0000186c <TEE_MemMove>:
TEE_MemMove():
/mnt/disk/raspbian-tee/optee_os/lib/libutee/tee_api.c:214
    186c:	f004 bc46 	b.w	60fc <memmove>

00001870 <TEE_MemCompare>:
TEE_MemCompare():
/mnt/disk/raspbian-tee/optee_os/lib/libutee/tee_api.c:219
    1870:	f004 bc2a 	b.w	60c8 <memcmp>

00001874 <TEE_MemFill>:
TEE_MemFill():
/mnt/disk/raspbian-tee/optee_os/lib/libutee/tee_api.c:224
    1874:	f004 bb48 	b.w	5f08 <memset>

00001878 <TEE_GetSystemTime>:
TEE_GetSystemTime():
/mnt/disk/raspbian-tee/optee_os/lib/libutee/tee_api.c:230
    1878:	b508      	push	{r3, lr}
/mnt/disk/raspbian-tee/optee_os/lib/libutee/tee_api.c:231
    187a:	4601      	mov	r1, r0
    187c:	2000      	movs	r0, #0
    187e:	f7ff ed48 	blx	1310 <utee_get_time>
/mnt/disk/raspbian-tee/optee_os/lib/libutee/tee_api.c:233
    1882:	b118      	cbz	r0, 188c <TEE_GetSystemTime+0x14>
/mnt/disk/raspbian-tee/optee_os/lib/libutee/tee_api.c:235
    1884:	e8bd 4008 	ldmia.w	sp!, {r3, lr}
/mnt/disk/raspbian-tee/optee_os/lib/libutee/tee_api.c:234
    1888:	f004 bc1c 	b.w	60c4 <TEE_Panic>
    188c:	bd08      	pop	{r3, pc}

0000188e <TEE_Wait>:
TEE_Wait():
/mnt/disk/raspbian-tee/optee_os/lib/libutee/tee_api.c:238
    188e:	b510      	push	{r4, lr}
/mnt/disk/raspbian-tee/optee_os/lib/libutee/tee_api.c:239
    1890:	f7ff ed34 	blx	12fc <utee_wait>
/mnt/disk/raspbian-tee/optee_os/lib/libutee/tee_api.c:241
    1894:	4604      	mov	r4, r0
    1896:	b120      	cbz	r0, 18a2 <TEE_Wait+0x14>
/mnt/disk/raspbian-tee/optee_os/lib/libutee/tee_api.c:241 (discriminator 1)
    1898:	4b03      	ldr	r3, [pc, #12]	; (18a8 <TEE_Wait+0x1a>)
    189a:	4298      	cmp	r0, r3
    189c:	d001      	beq.n	18a2 <TEE_Wait+0x14>
/mnt/disk/raspbian-tee/optee_os/lib/libutee/tee_api.c:242
    189e:	f004 fc11 	bl	60c4 <TEE_Panic>
/mnt/disk/raspbian-tee/optee_os/lib/libutee/tee_api.c:245
    18a2:	4620      	mov	r0, r4
    18a4:	bd10      	pop	{r4, pc}
    18a6:	bf00      	nop
    18a8:	ffff0002 	.word	0xffff0002

000018ac <TEE_GetTAPersistentTime>:
TEE_GetTAPersistentTime():
/mnt/disk/raspbian-tee/optee_os/lib/libutee/tee_api.c:248
    18ac:	b538      	push	{r3, r4, r5, lr}
/mnt/disk/raspbian-tee/optee_os/lib/libutee/tee_api.c:251
    18ae:	4601      	mov	r1, r0
/mnt/disk/raspbian-tee/optee_os/lib/libutee/tee_api.c:248
    18b0:	4605      	mov	r5, r0
/mnt/disk/raspbian-tee/optee_os/lib/libutee/tee_api.c:251
    18b2:	2001      	movs	r0, #1
    18b4:	f7ff ed2c 	blx	1310 <utee_get_time>
/mnt/disk/raspbian-tee/optee_os/lib/libutee/tee_api.c:253
    18b8:	4604      	mov	r4, r0
    18ba:	b170      	cbz	r0, 18da <TEE_GetTAPersistentTime+0x2e>
/mnt/disk/raspbian-tee/optee_os/lib/libutee/tee_api.c:253 (discriminator 1)
    18bc:	4b08      	ldr	r3, [pc, #32]	; (18e0 <TEE_GetTAPersistentTime+0x34>)
    18be:	4298      	cmp	r0, r3
    18c0:	d00b      	beq.n	18da <TEE_GetTAPersistentTime+0x2e>
/mnt/disk/raspbian-tee/optee_os/lib/libutee/tee_api.c:254
    18c2:	2300      	movs	r3, #0
    18c4:	602b      	str	r3, [r5, #0]
/mnt/disk/raspbian-tee/optee_os/lib/libutee/tee_api.c:255
    18c6:	606b      	str	r3, [r5, #4]
/mnt/disk/raspbian-tee/optee_os/lib/libutee/tee_api.c:258
    18c8:	f500 4330 	add.w	r3, r0, #45056	; 0xb000
    18cc:	2b01      	cmp	r3, #1
    18ce:	d904      	bls.n	18da <TEE_GetTAPersistentTime+0x2e>
/mnt/disk/raspbian-tee/optee_os/lib/libutee/tee_api.c:261
    18d0:	4b04      	ldr	r3, [pc, #16]	; (18e4 <TEE_GetTAPersistentTime+0x38>)
    18d2:	4298      	cmp	r0, r3
    18d4:	d001      	beq.n	18da <TEE_GetTAPersistentTime+0x2e>
/mnt/disk/raspbian-tee/optee_os/lib/libutee/tee_api.c:263
    18d6:	f004 fbf5 	bl	60c4 <TEE_Panic>
/mnt/disk/raspbian-tee/optee_os/lib/libutee/tee_api.c:266
    18da:	4620      	mov	r0, r4
    18dc:	bd38      	pop	{r3, r4, r5, pc}
    18de:	bf00      	nop
    18e0:	ffff300f 	.word	0xffff300f
    18e4:	ffff000c 	.word	0xffff000c

000018e8 <TEE_SetTAPersistentTime>:
TEE_SetTAPersistentTime():
/mnt/disk/raspbian-tee/optee_os/lib/libutee/tee_api.c:269
    18e8:	b510      	push	{r4, lr}
/mnt/disk/raspbian-tee/optee_os/lib/libutee/tee_api.c:272
    18ea:	f7ff ed1c 	blx	1324 <utee_set_ta_time>
/mnt/disk/raspbian-tee/optee_os/lib/libutee/tee_api.c:274
    18ee:	4604      	mov	r4, r0
    18f0:	b138      	cbz	r0, 1902 <TEE_SetTAPersistentTime+0x1a>
/mnt/disk/raspbian-tee/optee_os/lib/libutee/tee_api.c:274 (discriminator 1)
    18f2:	4b05      	ldr	r3, [pc, #20]	; (1908 <TEE_SetTAPersistentTime+0x20>)
    18f4:	4298      	cmp	r0, r3
    18f6:	d004      	beq.n	1902 <TEE_SetTAPersistentTime+0x1a>
/mnt/disk/raspbian-tee/optee_os/lib/libutee/tee_api.c:275
    18f8:	4b04      	ldr	r3, [pc, #16]	; (190c <TEE_SetTAPersistentTime+0x24>)
    18fa:	4298      	cmp	r0, r3
    18fc:	d001      	beq.n	1902 <TEE_SetTAPersistentTime+0x1a>
/mnt/disk/raspbian-tee/optee_os/lib/libutee/tee_api.c:277
    18fe:	f004 fbe1 	bl	60c4 <TEE_Panic>
/mnt/disk/raspbian-tee/optee_os/lib/libutee/tee_api.c:280
    1902:	4620      	mov	r0, r4
    1904:	bd10      	pop	{r4, pc}
    1906:	bf00      	nop
    1908:	ffff000c 	.word	0xffff000c
    190c:	ffff3041 	.word	0xffff3041

00001910 <TEE_GetREETime>:
TEE_GetREETime():
/mnt/disk/raspbian-tee/optee_os/lib/libutee/tee_api.c:283
    1910:	b508      	push	{r3, lr}
/mnt/disk/raspbian-tee/optee_os/lib/libutee/tee_api.c:284
    1912:	4601      	mov	r1, r0
    1914:	2002      	movs	r0, #2
    1916:	f7ff ecfc 	blx	1310 <utee_get_time>
/mnt/disk/raspbian-tee/optee_os/lib/libutee/tee_api.c:286
    191a:	b118      	cbz	r0, 1924 <TEE_GetREETime+0x14>
/mnt/disk/raspbian-tee/optee_os/lib/libutee/tee_api.c:288
    191c:	e8bd 4008 	ldmia.w	sp!, {r3, lr}
/mnt/disk/raspbian-tee/optee_os/lib/libutee/tee_api.c:287
    1920:	f004 bbd0 	b.w	60c4 <TEE_Panic>
    1924:	bd08      	pop	{r3, pc}

00001926 <TEE_Malloc>:
TEE_Malloc():
/mnt/disk/raspbian-tee/optee_os/lib/libutee/tee_api.c:291
    1926:	b507      	push	{r0, r1, r2, lr}
/mnt/disk/raspbian-tee/optee_os/lib/libutee/tee_api.c:292
    1928:	b931      	cbnz	r1, 1938 <TEE_Malloc+0x12>
/mnt/disk/raspbian-tee/optee_os/lib/libutee/tee_api.c:293
    192a:	4601      	mov	r1, r0
    192c:	2001      	movs	r0, #1
/mnt/disk/raspbian-tee/optee_os/lib/libutee/tee_api.c:300
    192e:	b003      	add	sp, #12
    1930:	f85d eb04 	ldr.w	lr, [sp], #4
/mnt/disk/raspbian-tee/optee_os/lib/libutee/tee_api.c:293
    1934:	f003 bf8a 	b.w	584c <calloc>
/mnt/disk/raspbian-tee/optee_os/lib/libutee/tee_api.c:294
    1938:	f1b1 4f00 	cmp.w	r1, #2147483648	; 0x80000000
    193c:	d104      	bne.n	1948 <TEE_Malloc+0x22>
/mnt/disk/raspbian-tee/optee_os/lib/libutee/tee_api.c:300
    193e:	b003      	add	sp, #12
    1940:	f85d eb04 	ldr.w	lr, [sp], #4
/mnt/disk/raspbian-tee/optee_os/lib/libutee/tee_api.c:295
    1944:	f003 bf78 	b.w	5838 <malloc>
/mnt/disk/raspbian-tee/optee_os/lib/libutee/tee_api.c:297
    1948:	4b07      	ldr	r3, [pc, #28]	; (1968 <TEE_Malloc+0x42>)
    194a:	4808      	ldr	r0, [pc, #32]	; (196c <TEE_Malloc+0x46>)
    194c:	447b      	add	r3, pc
    194e:	9300      	str	r3, [sp, #0]
    1950:	2301      	movs	r3, #1
    1952:	9101      	str	r1, [sp, #4]
    1954:	461a      	mov	r2, r3
    1956:	f240 1129 	movw	r1, #297	; 0x129
    195a:	4478      	add	r0, pc
    195c:	f7ff f9b8 	bl	cd0 <trace_printf>
/mnt/disk/raspbian-tee/optee_os/lib/libutee/tee_api.c:300
    1960:	2000      	movs	r0, #0
    1962:	b003      	add	sp, #12
    1964:	f85d fb04 	ldr.w	pc, [sp], #4
    1968:	00004e3b 	.word	0x00004e3b
    196c:	00004e22 	.word	0x00004e22

00001970 <TEE_Realloc>:
TEE_Realloc():
/mnt/disk/raspbian-tee/optee_os/lib/libutee/tee_api.c:304
    1970:	f003 bf90 	b.w	5894 <realloc>

00001974 <TEE_Free>:
TEE_Free():
/mnt/disk/raspbian-tee/optee_os/lib/libutee/tee_api.c:309
    1974:	f003 bf61 	b.w	583a <free>

00001978 <TEE_CacheClean>:
TEE_CacheClean():
/mnt/disk/raspbian-tee/optee_os/lib/libutee/tee_api.c:315
    1978:	2200      	movs	r2, #0
    197a:	f004 bbe9 	b.w	6150 <__utee_cache_operation_from_thumb>

0000197e <TEE_CacheFlush>:
TEE_CacheFlush():
/mnt/disk/raspbian-tee/optee_os/lib/libutee/tee_api.c:319
    197e:	2201      	movs	r2, #1
    1980:	f004 bbe6 	b.w	6150 <__utee_cache_operation_from_thumb>

00001984 <TEE_CacheInvalidate>:
TEE_CacheInvalidate():
/mnt/disk/raspbian-tee/optee_os/lib/libutee/tee_api.c:324
    1984:	2202      	movs	r2, #2
    1986:	f004 bbe3 	b.w	6150 <__utee_cache_operation_from_thumb>
    198a:	bf00      	nop

0000198c <mpi_panic>:
mpi_panic():
/mnt/disk/raspbian-tee/optee_os/lib/libutee/tee_api_arith_mpi.c:29
    198c:	b508      	push	{r3, lr}
/mnt/disk/raspbian-tee/optee_os/lib/libutee/tee_api_arith_mpi.c:30
    198e:	4613      	mov	r3, r2
    1990:	460a      	mov	r2, r1
    1992:	4601      	mov	r1, r0
    1994:	4804      	ldr	r0, [pc, #16]	; (19a8 <mpi_panic+0x1c>)
    1996:	4478      	add	r0, pc
    1998:	f7ff fadd 	bl	f56 <printf>
/mnt/disk/raspbian-tee/optee_os/lib/libutee/tee_api_arith_mpi.c:31
    199c:	4801      	ldr	r0, [pc, #4]	; (19a4 <mpi_panic+0x18>)
    199e:	f004 fb91 	bl	60c4 <TEE_Panic>
    19a2:	e7fe      	b.n	19a2 <mpi_panic+0x16>
    19a4:	00b16127 	.word	0x00b16127
    19a8:	00004f65 	.word	0x00004f65

000019ac <get_const_mpi>:
get_const_mpi():
/mnt/disk/raspbian-tee/optee_os/lib/libutee/tee_api_arith_mpi.c:110
    19ac:	b530      	push	{r4, r5, lr}
init_static_mpi():
/mnt/disk/raspbian-tee/optee_os/lib/libutee/tee_api_arith_mpi.c:65
    19ae:	3108      	adds	r1, #8
    19b0:	f831 2c02 	ldrh.w	r2, [r1, #-2]
get_const_mpi():
/mnt/disk/raspbian-tee/optee_os/lib/libutee/tee_api_arith_mpi.c:110
    19b4:	b087      	sub	sp, #28
init_static_mpi():
/mnt/disk/raspbian-tee/optee_os/lib/libutee/tee_api_arith_mpi.c:65
    19b6:	f831 3c04 	ldrh.w	r3, [r1, #-4]
    19ba:	ac03      	add	r4, sp, #12
get_const_mpi():
/mnt/disk/raspbian-tee/optee_os/lib/libutee/tee_api_arith_mpi.c:110
    19bc:	4605      	mov	r5, r0
init_static_mpi():
/mnt/disk/raspbian-tee/optee_os/lib/libutee/tee_api_arith_mpi.c:65
    19be:	4620      	mov	r0, r4
    19c0:	9200      	str	r2, [sp, #0]
    19c2:	f851 2c08 	ldr.w	r2, [r1, #-8]
    19c6:	f001 facf 	bl	2f68 <mbedtls_mpi_init_static>
get_mpi():
/mnt/disk/raspbian-tee/optee_os/lib/libutee/tee_api_arith_mpi.c:99
    19ca:	4628      	mov	r0, r5
    19cc:	f001 fab9 	bl	2f42 <mbedtls_mpi_init_mempool>
get_const_mpi():
/mnt/disk/raspbian-tee/optee_os/lib/libutee/tee_api_arith_mpi.c:115
    19d0:	4621      	mov	r1, r4
    19d2:	4628      	mov	r0, r5
    19d4:	f001 fbb2 	bl	313c <mbedtls_mpi_copy>
    19d8:	4602      	mov	r2, r0
    19da:	b120      	cbz	r0, 19e6 <get_const_mpi+0x3a>
/mnt/disk/raspbian-tee/optee_os/lib/libutee/tee_api_arith_mpi.c:115 (discriminator 1)
    19dc:	4803      	ldr	r0, [pc, #12]	; (19ec <get_const_mpi+0x40>)
    19de:	2173      	movs	r1, #115	; 0x73
    19e0:	4478      	add	r0, pc
    19e2:	f7ff ffd3 	bl	198c <mpi_panic>
/mnt/disk/raspbian-tee/optee_os/lib/libutee/tee_api_arith_mpi.c:116
    19e6:	b007      	add	sp, #28
    19e8:	bd30      	pop	{r4, r5, pc}
    19ea:	bf00      	nop
    19ec:	00004db8 	.word	0x00004db8

000019f0 <mpi_is_odd>:
mpi_is_odd():
/mnt/disk/raspbian-tee/optee_os/lib/libutee/tee_api_arith_mpi.c:599
    19f0:	b508      	push	{r3, lr}
/mnt/disk/raspbian-tee/optee_os/lib/libutee/tee_api_arith_mpi.c:600
    19f2:	2100      	movs	r1, #0
    19f4:	f001 fc79 	bl	32ea <mbedtls_mpi_get_bit>
/mnt/disk/raspbian-tee/optee_os/lib/libutee/tee_api_arith_mpi.c:601
    19f8:	3000      	adds	r0, #0
    19fa:	bf18      	it	ne
    19fc:	2001      	movne	r0, #1
    19fe:	bd08      	pop	{r3, pc}

00001a00 <rng_read>:
rng_read():
/mnt/disk/raspbian-tee/optee_os/lib/libutee/tee_api_arith_mpi.c:763
    1a00:	b508      	push	{r3, lr}
    1a02:	4608      	mov	r0, r1
/mnt/disk/raspbian-tee/optee_os/lib/libutee/tee_api_arith_mpi.c:764
    1a04:	4611      	mov	r1, r2
    1a06:	f7ff ed54 	blx	14b0 <utee_cryp_random_number_generate>
    1a0a:	2800      	cmp	r0, #0
/mnt/disk/raspbian-tee/optee_os/lib/libutee/tee_api_arith_mpi.c:767
    1a0c:	f06f 0001 	mvn.w	r0, #1
    1a10:	bf08      	it	eq
    1a12:	2000      	moveq	r0, #0
    1a14:	bd08      	pop	{r3, pc}

00001a16 <put_mpi>:
put_mpi():
/mnt/disk/raspbian-tee/optee_os/lib/libutee/tee_api_arith_mpi.c:128
    1a16:	7842      	ldrb	r2, [r0, #1]
    1a18:	2a02      	cmp	r2, #2
    1a1a:	d108      	bne.n	1a2e <put_mpi+0x18>
/mnt/disk/raspbian-tee/optee_os/lib/libutee/tee_api_arith_mpi.c:129
    1a1c:	6882      	ldr	r2, [r0, #8]
/mnt/disk/raspbian-tee/optee_os/lib/libutee/tee_api_arith_mpi.c:131
    1a1e:	f990 1000 	ldrsb.w	r1, [r0]
/mnt/disk/raspbian-tee/optee_os/lib/libutee/tee_api_arith_mpi.c:132
    1a22:	8883      	ldrh	r3, [r0, #4]
/mnt/disk/raspbian-tee/optee_os/lib/libutee/tee_api_arith_mpi.c:131
    1a24:	f842 1c08 	str.w	r1, [r2, #-8]
/mnt/disk/raspbian-tee/optee_os/lib/libutee/tee_api_arith_mpi.c:132
    1a28:	f822 3c02 	strh.w	r3, [r2, #-2]
    1a2c:	4770      	bx	lr
/mnt/disk/raspbian-tee/optee_os/lib/libutee/tee_api_arith_mpi.c:134
    1a2e:	f001 baa4 	b.w	2f7a <mbedtls_mpi_free>

00001a32 <mpi_egcd>:
mpi_egcd():
/mnt/disk/raspbian-tee/optee_os/lib/libutee/tee_api_arith_mpi.c:614
    1a32:	e92d 4ff0 	stmdb	sp!, {r4, r5, r6, r7, r8, r9, sl, fp, lr}
    1a36:	4681      	mov	r9, r0
    1a38:	b09b      	sub	sp, #108	; 0x6c
get_mpi():
/mnt/disk/raspbian-tee/optee_os/lib/libutee/tee_api_arith_mpi.c:99
    1a3a:	f10d 0814 	add.w	r8, sp, #20
    1a3e:	af08      	add	r7, sp, #32
    1a40:	4640      	mov	r0, r8
    1a42:	ad0b      	add	r5, sp, #44	; 0x2c
mpi_egcd():
/mnt/disk/raspbian-tee/optee_os/lib/libutee/tee_api_arith_mpi.c:614
    1a44:	9102      	str	r1, [sp, #8]
get_mpi():
/mnt/disk/raspbian-tee/optee_os/lib/libutee/tee_api_arith_mpi.c:99
    1a46:	ac0e      	add	r4, sp, #56	; 0x38
mpi_egcd():
/mnt/disk/raspbian-tee/optee_os/lib/libutee/tee_api_arith_mpi.c:614
    1a48:	9203      	str	r2, [sp, #12]
get_mpi():
/mnt/disk/raspbian-tee/optee_os/lib/libutee/tee_api_arith_mpi.c:99
    1a4a:	f10d 0a44 	add.w	sl, sp, #68	; 0x44
mpi_egcd():
/mnt/disk/raspbian-tee/optee_os/lib/libutee/tee_api_arith_mpi.c:614
    1a4e:	9301      	str	r3, [sp, #4]
get_mpi():
/mnt/disk/raspbian-tee/optee_os/lib/libutee/tee_api_arith_mpi.c:99
    1a50:	f001 fa77 	bl	2f42 <mbedtls_mpi_init_mempool>
    1a54:	4638      	mov	r0, r7
    1a56:	f10d 0b50 	add.w	fp, sp, #80	; 0x50
    1a5a:	f001 fa72 	bl	2f42 <mbedtls_mpi_init_mempool>
    1a5e:	4628      	mov	r0, r5
    1a60:	f001 fa6f 	bl	2f42 <mbedtls_mpi_init_mempool>
    1a64:	4620      	mov	r0, r4
    1a66:	f001 fa6c 	bl	2f42 <mbedtls_mpi_init_mempool>
    1a6a:	4650      	mov	r0, sl
    1a6c:	f001 fa69 	bl	2f42 <mbedtls_mpi_init_mempool>
    1a70:	ae17      	add	r6, sp, #92	; 0x5c
    1a72:	4658      	mov	r0, fp
    1a74:	f001 fa65 	bl	2f42 <mbedtls_mpi_init_mempool>
    1a78:	4630      	mov	r0, r6
    1a7a:	f001 fa62 	bl	2f42 <mbedtls_mpi_init_mempool>
mpi_egcd():
/mnt/disk/raspbian-tee/optee_os/lib/libutee/tee_api_arith_mpi.c:633
    1a7e:	2100      	movs	r1, #0
    1a80:	9824      	ldr	r0, [sp, #144]	; 0x90
    1a82:	f001 fe08 	bl	3696 <mbedtls_mpi_cmp_int>
    1a86:	bb20      	cbnz	r0, 1ad2 <mpi_egcd+0xa0>
/mnt/disk/raspbian-tee/optee_os/lib/libutee/tee_api_arith_mpi.c:634
    1a88:	2101      	movs	r1, #1
    1a8a:	9802      	ldr	r0, [sp, #8]
    1a8c:	f001 fc11 	bl	32b2 <mbedtls_mpi_lset>
    1a90:	4602      	mov	r2, r0
    1a92:	b130      	cbz	r0, 1aa2 <mpi_egcd+0x70>
/mnt/disk/raspbian-tee/optee_os/lib/libutee/tee_api_arith_mpi.c:634 (discriminator 1)
    1a94:	48dd      	ldr	r0, [pc, #884]	; (1e0c <mpi_egcd+0x3da>)
    1a96:	f240 217a 	movw	r1, #634	; 0x27a
    1a9a:	4478      	add	r0, pc
/mnt/disk/raspbian-tee/optee_os/lib/libutee/tee_api_arith_mpi.c:635 (discriminator 1)
    1a9c:	300e      	adds	r0, #14
    1a9e:	f7ff ff75 	bl	198c <mpi_panic>
/mnt/disk/raspbian-tee/optee_os/lib/libutee/tee_api_arith_mpi.c:635
    1aa2:	4601      	mov	r1, r0
    1aa4:	9803      	ldr	r0, [sp, #12]
    1aa6:	f001 fc04 	bl	32b2 <mbedtls_mpi_lset>
    1aaa:	4602      	mov	r2, r0
    1aac:	b120      	cbz	r0, 1ab8 <mpi_egcd+0x86>
/mnt/disk/raspbian-tee/optee_os/lib/libutee/tee_api_arith_mpi.c:635 (discriminator 1)
    1aae:	48d8      	ldr	r0, [pc, #864]	; (1e10 <mpi_egcd+0x3de>)
    1ab0:	f240 217b 	movw	r1, #635	; 0x27b
    1ab4:	4478      	add	r0, pc
    1ab6:	e7f1      	b.n	1a9c <mpi_egcd+0x6a>
/mnt/disk/raspbian-tee/optee_os/lib/libutee/tee_api_arith_mpi.c:636
    1ab8:	9901      	ldr	r1, [sp, #4]
    1aba:	4648      	mov	r0, r9
    1abc:	f001 fb3e 	bl	313c <mbedtls_mpi_copy>
    1ac0:	4602      	mov	r2, r0
    1ac2:	2800      	cmp	r0, #0
    1ac4:	f000 818a 	beq.w	1ddc <mpi_egcd+0x3aa>
/mnt/disk/raspbian-tee/optee_os/lib/libutee/tee_api_arith_mpi.c:636 (discriminator 1)
    1ac8:	48d2      	ldr	r0, [pc, #840]	; (1e14 <mpi_egcd+0x3e2>)
    1aca:	f44f 711f 	mov.w	r1, #636	; 0x27c
    1ace:	4478      	add	r0, pc
    1ad0:	e7e4      	b.n	1a9c <mpi_egcd+0x6a>
/mnt/disk/raspbian-tee/optee_os/lib/libutee/tee_api_arith_mpi.c:640
    1ad2:	9901      	ldr	r1, [sp, #4]
    1ad4:	4650      	mov	r0, sl
    1ad6:	f001 fb31 	bl	313c <mbedtls_mpi_copy>
    1ada:	4602      	mov	r2, r0
    1adc:	b120      	cbz	r0, 1ae8 <mpi_egcd+0xb6>
/mnt/disk/raspbian-tee/optee_os/lib/libutee/tee_api_arith_mpi.c:640 (discriminator 1)
    1ade:	48ce      	ldr	r0, [pc, #824]	; (1e18 <mpi_egcd+0x3e6>)
    1ae0:	f44f 7120 	mov.w	r1, #640	; 0x280
    1ae4:	4478      	add	r0, pc
    1ae6:	e7d9      	b.n	1a9c <mpi_egcd+0x6a>
/mnt/disk/raspbian-tee/optee_os/lib/libutee/tee_api_arith_mpi.c:641
    1ae8:	9924      	ldr	r1, [sp, #144]	; 0x90
    1aea:	4658      	mov	r0, fp
    1aec:	f001 fb26 	bl	313c <mbedtls_mpi_copy>
    1af0:	4602      	mov	r2, r0
    1af2:	b178      	cbz	r0, 1b14 <mpi_egcd+0xe2>
/mnt/disk/raspbian-tee/optee_os/lib/libutee/tee_api_arith_mpi.c:641 (discriminator 1)
    1af4:	48c9      	ldr	r0, [pc, #804]	; (1e1c <mpi_egcd+0x3ea>)
    1af6:	f240 2181 	movw	r1, #641	; 0x281
    1afa:	4478      	add	r0, pc
    1afc:	e7ce      	b.n	1a9c <mpi_egcd+0x6a>
/mnt/disk/raspbian-tee/optee_os/lib/libutee/tee_api_arith_mpi.c:647
    1afe:	2101      	movs	r1, #1
    1b00:	4658      	mov	r0, fp
    1b02:	f001 fd0a 	bl	351a <mbedtls_mpi_shift_r>
    1b06:	4602      	mov	r2, r0
    1b08:	b128      	cbz	r0, 1b16 <mpi_egcd+0xe4>
/mnt/disk/raspbian-tee/optee_os/lib/libutee/tee_api_arith_mpi.c:647 (discriminator 1)
    1b0a:	48c5      	ldr	r0, [pc, #788]	; (1e20 <mpi_egcd+0x3ee>)
    1b0c:	f240 2187 	movw	r1, #647	; 0x287
    1b10:	4478      	add	r0, pc
    1b12:	e7c3      	b.n	1a9c <mpi_egcd+0x6a>
    1b14:	9001      	str	r0, [sp, #4]
mpi_is_even():
/mnt/disk/raspbian-tee/optee_os/lib/libutee/tee_api_arith_mpi.c:605
    1b16:	4650      	mov	r0, sl
    1b18:	f7ff ff6a 	bl	19f0 <mpi_is_odd>
mpi_egcd():
/mnt/disk/raspbian-tee/optee_os/lib/libutee/tee_api_arith_mpi.c:644
    1b1c:	b150      	cbz	r0, 1b34 <mpi_egcd+0x102>
/mnt/disk/raspbian-tee/optee_os/lib/libutee/tee_api_arith_mpi.c:650
    1b1e:	4651      	mov	r1, sl
    1b20:	4630      	mov	r0, r6
    1b22:	f001 fb0b 	bl	313c <mbedtls_mpi_copy>
    1b26:	4602      	mov	r2, r0
    1b28:	b1c0      	cbz	r0, 1b5c <mpi_egcd+0x12a>
/mnt/disk/raspbian-tee/optee_os/lib/libutee/tee_api_arith_mpi.c:650 (discriminator 1)
    1b2a:	48be      	ldr	r0, [pc, #760]	; (1e24 <mpi_egcd+0x3f2>)
    1b2c:	f240 218a 	movw	r1, #650	; 0x28a
    1b30:	4478      	add	r0, pc
    1b32:	e7b3      	b.n	1a9c <mpi_egcd+0x6a>
mpi_is_even():
/mnt/disk/raspbian-tee/optee_os/lib/libutee/tee_api_arith_mpi.c:605
    1b34:	4658      	mov	r0, fp
    1b36:	f7ff ff5b 	bl	19f0 <mpi_is_odd>
mpi_egcd():
/mnt/disk/raspbian-tee/optee_os/lib/libutee/tee_api_arith_mpi.c:644
    1b3a:	2800      	cmp	r0, #0
    1b3c:	d1ef      	bne.n	1b1e <mpi_egcd+0xec>
/mnt/disk/raspbian-tee/optee_os/lib/libutee/tee_api_arith_mpi.c:645
    1b3e:	9b01      	ldr	r3, [sp, #4]
/mnt/disk/raspbian-tee/optee_os/lib/libutee/tee_api_arith_mpi.c:646
    1b40:	2101      	movs	r1, #1
    1b42:	4650      	mov	r0, sl
/mnt/disk/raspbian-tee/optee_os/lib/libutee/tee_api_arith_mpi.c:645
    1b44:	3301      	adds	r3, #1
    1b46:	9301      	str	r3, [sp, #4]
/mnt/disk/raspbian-tee/optee_os/lib/libutee/tee_api_arith_mpi.c:646
    1b48:	f001 fce7 	bl	351a <mbedtls_mpi_shift_r>
    1b4c:	4602      	mov	r2, r0
    1b4e:	2800      	cmp	r0, #0
    1b50:	d0d5      	beq.n	1afe <mpi_egcd+0xcc>
/mnt/disk/raspbian-tee/optee_os/lib/libutee/tee_api_arith_mpi.c:646 (discriminator 1)
    1b52:	48b5      	ldr	r0, [pc, #724]	; (1e28 <mpi_egcd+0x3f6>)
    1b54:	f240 2186 	movw	r1, #646	; 0x286
    1b58:	4478      	add	r0, pc
    1b5a:	e79f      	b.n	1a9c <mpi_egcd+0x6a>
/mnt/disk/raspbian-tee/optee_os/lib/libutee/tee_api_arith_mpi.c:651
    1b5c:	4659      	mov	r1, fp
    1b5e:	4648      	mov	r0, r9
    1b60:	f001 faec 	bl	313c <mbedtls_mpi_copy>
    1b64:	4602      	mov	r2, r0
    1b66:	b120      	cbz	r0, 1b72 <mpi_egcd+0x140>
/mnt/disk/raspbian-tee/optee_os/lib/libutee/tee_api_arith_mpi.c:651 (discriminator 1)
    1b68:	48b0      	ldr	r0, [pc, #704]	; (1e2c <mpi_egcd+0x3fa>)
    1b6a:	f240 218b 	movw	r1, #651	; 0x28b
    1b6e:	4478      	add	r0, pc
    1b70:	e794      	b.n	1a9c <mpi_egcd+0x6a>
/mnt/disk/raspbian-tee/optee_os/lib/libutee/tee_api_arith_mpi.c:652
    1b72:	2101      	movs	r1, #1
    1b74:	4640      	mov	r0, r8
    1b76:	f001 fb9c 	bl	32b2 <mbedtls_mpi_lset>
    1b7a:	4602      	mov	r2, r0
    1b7c:	b120      	cbz	r0, 1b88 <mpi_egcd+0x156>
/mnt/disk/raspbian-tee/optee_os/lib/libutee/tee_api_arith_mpi.c:652 (discriminator 1)
    1b7e:	48ac      	ldr	r0, [pc, #688]	; (1e30 <mpi_egcd+0x3fe>)
    1b80:	f44f 7123 	mov.w	r1, #652	; 0x28c
    1b84:	4478      	add	r0, pc
    1b86:	e789      	b.n	1a9c <mpi_egcd+0x6a>
/mnt/disk/raspbian-tee/optee_os/lib/libutee/tee_api_arith_mpi.c:653
    1b88:	4601      	mov	r1, r0
    1b8a:	4638      	mov	r0, r7
    1b8c:	f001 fb91 	bl	32b2 <mbedtls_mpi_lset>
    1b90:	4602      	mov	r2, r0
    1b92:	b120      	cbz	r0, 1b9e <mpi_egcd+0x16c>
/mnt/disk/raspbian-tee/optee_os/lib/libutee/tee_api_arith_mpi.c:653 (discriminator 1)
    1b94:	48a7      	ldr	r0, [pc, #668]	; (1e34 <mpi_egcd+0x402>)
    1b96:	f240 218d 	movw	r1, #653	; 0x28d
    1b9a:	4478      	add	r0, pc
    1b9c:	e77e      	b.n	1a9c <mpi_egcd+0x6a>
/mnt/disk/raspbian-tee/optee_os/lib/libutee/tee_api_arith_mpi.c:654
    1b9e:	4601      	mov	r1, r0
    1ba0:	4628      	mov	r0, r5
    1ba2:	f001 fb86 	bl	32b2 <mbedtls_mpi_lset>
    1ba6:	4602      	mov	r2, r0
    1ba8:	b120      	cbz	r0, 1bb4 <mpi_egcd+0x182>
/mnt/disk/raspbian-tee/optee_os/lib/libutee/tee_api_arith_mpi.c:654 (discriminator 1)
    1baa:	48a3      	ldr	r0, [pc, #652]	; (1e38 <mpi_egcd+0x406>)
    1bac:	f240 218e 	movw	r1, #654	; 0x28e
    1bb0:	4478      	add	r0, pc
    1bb2:	e773      	b.n	1a9c <mpi_egcd+0x6a>
/mnt/disk/raspbian-tee/optee_os/lib/libutee/tee_api_arith_mpi.c:655
    1bb4:	2101      	movs	r1, #1
    1bb6:	4620      	mov	r0, r4
    1bb8:	f001 fb7b 	bl	32b2 <mbedtls_mpi_lset>
    1bbc:	4602      	mov	r2, r0
    1bbe:	2800      	cmp	r0, #0
    1bc0:	f000 80e4 	beq.w	1d8c <mpi_egcd+0x35a>
/mnt/disk/raspbian-tee/optee_os/lib/libutee/tee_api_arith_mpi.c:655 (discriminator 1)
    1bc4:	489d      	ldr	r0, [pc, #628]	; (1e3c <mpi_egcd+0x40a>)
    1bc6:	f240 218f 	movw	r1, #655	; 0x28f
    1bca:	4478      	add	r0, pc
    1bcc:	e766      	b.n	1a9c <mpi_egcd+0x6a>
/mnt/disk/raspbian-tee/optee_os/lib/libutee/tee_api_arith_mpi.c:659
    1bce:	2101      	movs	r1, #1
    1bd0:	4630      	mov	r0, r6
    1bd2:	f001 fca2 	bl	351a <mbedtls_mpi_shift_r>
    1bd6:	4602      	mov	r2, r0
    1bd8:	b120      	cbz	r0, 1be4 <mpi_egcd+0x1b2>
/mnt/disk/raspbian-tee/optee_os/lib/libutee/tee_api_arith_mpi.c:659 (discriminator 1)
    1bda:	4899      	ldr	r0, [pc, #612]	; (1e40 <mpi_egcd+0x40e>)
    1bdc:	f240 2193 	movw	r1, #659	; 0x293
    1be0:	4478      	add	r0, pc
    1be2:	e75b      	b.n	1a9c <mpi_egcd+0x6a>
/mnt/disk/raspbian-tee/optee_os/lib/libutee/tee_api_arith_mpi.c:660
    1be4:	4640      	mov	r0, r8
    1be6:	f7ff ff03 	bl	19f0 <mpi_is_odd>
    1bea:	b158      	cbz	r0, 1c04 <mpi_egcd+0x1d2>
/mnt/disk/raspbian-tee/optee_os/lib/libutee/tee_api_arith_mpi.c:661
    1bec:	465a      	mov	r2, fp
    1bee:	4641      	mov	r1, r8
    1bf0:	4640      	mov	r0, r8
    1bf2:	f001 fe06 	bl	3802 <mbedtls_mpi_add_mpi>
    1bf6:	4602      	mov	r2, r0
    1bf8:	b1a0      	cbz	r0, 1c24 <mpi_egcd+0x1f2>
/mnt/disk/raspbian-tee/optee_os/lib/libutee/tee_api_arith_mpi.c:661 (discriminator 1)
    1bfa:	4892      	ldr	r0, [pc, #584]	; (1e44 <mpi_egcd+0x412>)
    1bfc:	f240 2195 	movw	r1, #661	; 0x295
    1c00:	4478      	add	r0, pc
    1c02:	e74b      	b.n	1a9c <mpi_egcd+0x6a>
/mnt/disk/raspbian-tee/optee_os/lib/libutee/tee_api_arith_mpi.c:660 (discriminator 1)
    1c04:	4638      	mov	r0, r7
    1c06:	f7ff fef3 	bl	19f0 <mpi_is_odd>
    1c0a:	2800      	cmp	r0, #0
    1c0c:	d1ee      	bne.n	1bec <mpi_egcd+0x1ba>
/mnt/disk/raspbian-tee/optee_os/lib/libutee/tee_api_arith_mpi.c:664
    1c0e:	2101      	movs	r1, #1
    1c10:	4640      	mov	r0, r8
    1c12:	f001 fc82 	bl	351a <mbedtls_mpi_shift_r>
    1c16:	4602      	mov	r2, r0
    1c18:	b188      	cbz	r0, 1c3e <mpi_egcd+0x20c>
/mnt/disk/raspbian-tee/optee_os/lib/libutee/tee_api_arith_mpi.c:664 (discriminator 1)
    1c1a:	488b      	ldr	r0, [pc, #556]	; (1e48 <mpi_egcd+0x416>)
    1c1c:	f44f 7126 	mov.w	r1, #664	; 0x298
    1c20:	4478      	add	r0, pc
    1c22:	e73b      	b.n	1a9c <mpi_egcd+0x6a>
/mnt/disk/raspbian-tee/optee_os/lib/libutee/tee_api_arith_mpi.c:662
    1c24:	4652      	mov	r2, sl
    1c26:	4639      	mov	r1, r7
    1c28:	4638      	mov	r0, r7
    1c2a:	f001 fe0e 	bl	384a <mbedtls_mpi_sub_mpi>
    1c2e:	4602      	mov	r2, r0
    1c30:	2800      	cmp	r0, #0
    1c32:	d0ec      	beq.n	1c0e <mpi_egcd+0x1dc>
/mnt/disk/raspbian-tee/optee_os/lib/libutee/tee_api_arith_mpi.c:662 (discriminator 1)
    1c34:	4885      	ldr	r0, [pc, #532]	; (1e4c <mpi_egcd+0x41a>)
    1c36:	f240 2196 	movw	r1, #662	; 0x296
    1c3a:	4478      	add	r0, pc
    1c3c:	e72e      	b.n	1a9c <mpi_egcd+0x6a>
/mnt/disk/raspbian-tee/optee_os/lib/libutee/tee_api_arith_mpi.c:665
    1c3e:	2101      	movs	r1, #1
    1c40:	4638      	mov	r0, r7
    1c42:	f001 fc6a 	bl	351a <mbedtls_mpi_shift_r>
    1c46:	4602      	mov	r2, r0
    1c48:	b120      	cbz	r0, 1c54 <mpi_egcd+0x222>
/mnt/disk/raspbian-tee/optee_os/lib/libutee/tee_api_arith_mpi.c:665 (discriminator 1)
    1c4a:	4881      	ldr	r0, [pc, #516]	; (1e50 <mpi_egcd+0x41e>)
    1c4c:	f240 2199 	movw	r1, #665	; 0x299
    1c50:	4478      	add	r0, pc
    1c52:	e723      	b.n	1a9c <mpi_egcd+0x6a>
mpi_is_even():
/mnt/disk/raspbian-tee/optee_os/lib/libutee/tee_api_arith_mpi.c:605
    1c54:	4630      	mov	r0, r6
    1c56:	f7ff fecb 	bl	19f0 <mpi_is_odd>
mpi_egcd():
/mnt/disk/raspbian-tee/optee_os/lib/libutee/tee_api_arith_mpi.c:658
    1c5a:	2800      	cmp	r0, #0
    1c5c:	d0b7      	beq.n	1bce <mpi_egcd+0x19c>
mpi_is_even():
/mnt/disk/raspbian-tee/optee_os/lib/libutee/tee_api_arith_mpi.c:605
    1c5e:	4648      	mov	r0, r9
    1c60:	f7ff fec6 	bl	19f0 <mpi_is_odd>
mpi_egcd():
/mnt/disk/raspbian-tee/optee_os/lib/libutee/tee_api_arith_mpi.c:668
    1c64:	b190      	cbz	r0, 1c8c <mpi_egcd+0x25a>
/mnt/disk/raspbian-tee/optee_os/lib/libutee/tee_api_arith_mpi.c:679
    1c66:	4649      	mov	r1, r9
    1c68:	4630      	mov	r0, r6
    1c6a:	f001 fcc9 	bl	3600 <mbedtls_mpi_cmp_mpi>
    1c6e:	2800      	cmp	r0, #0
    1c70:	db68      	blt.n	1d44 <mpi_egcd+0x312>
/mnt/disk/raspbian-tee/optee_os/lib/libutee/tee_api_arith_mpi.c:680
    1c72:	464a      	mov	r2, r9
    1c74:	4631      	mov	r1, r6
    1c76:	4630      	mov	r0, r6
    1c78:	f001 fde7 	bl	384a <mbedtls_mpi_sub_mpi>
    1c7c:	4602      	mov	r2, r0
    1c7e:	2800      	cmp	r0, #0
    1c80:	d048      	beq.n	1d14 <mpi_egcd+0x2e2>
/mnt/disk/raspbian-tee/optee_os/lib/libutee/tee_api_arith_mpi.c:680 (discriminator 1)
    1c82:	4874      	ldr	r0, [pc, #464]	; (1e54 <mpi_egcd+0x422>)
    1c84:	f44f 712a 	mov.w	r1, #680	; 0x2a8
    1c88:	4478      	add	r0, pc
    1c8a:	e707      	b.n	1a9c <mpi_egcd+0x6a>
/mnt/disk/raspbian-tee/optee_os/lib/libutee/tee_api_arith_mpi.c:669
    1c8c:	2101      	movs	r1, #1
    1c8e:	4648      	mov	r0, r9
    1c90:	f001 fc43 	bl	351a <mbedtls_mpi_shift_r>
    1c94:	4602      	mov	r2, r0
    1c96:	b120      	cbz	r0, 1ca2 <mpi_egcd+0x270>
/mnt/disk/raspbian-tee/optee_os/lib/libutee/tee_api_arith_mpi.c:669 (discriminator 1)
    1c98:	486f      	ldr	r0, [pc, #444]	; (1e58 <mpi_egcd+0x426>)
    1c9a:	f240 219d 	movw	r1, #669	; 0x29d
    1c9e:	4478      	add	r0, pc
    1ca0:	e6fc      	b.n	1a9c <mpi_egcd+0x6a>
/mnt/disk/raspbian-tee/optee_os/lib/libutee/tee_api_arith_mpi.c:670
    1ca2:	4628      	mov	r0, r5
    1ca4:	f7ff fea4 	bl	19f0 <mpi_is_odd>
    1ca8:	b158      	cbz	r0, 1cc2 <mpi_egcd+0x290>
/mnt/disk/raspbian-tee/optee_os/lib/libutee/tee_api_arith_mpi.c:671
    1caa:	465a      	mov	r2, fp
    1cac:	4629      	mov	r1, r5
    1cae:	4628      	mov	r0, r5
    1cb0:	f001 fda7 	bl	3802 <mbedtls_mpi_add_mpi>
    1cb4:	4602      	mov	r2, r0
    1cb6:	b1a0      	cbz	r0, 1ce2 <mpi_egcd+0x2b0>
/mnt/disk/raspbian-tee/optee_os/lib/libutee/tee_api_arith_mpi.c:671 (discriminator 1)
    1cb8:	4868      	ldr	r0, [pc, #416]	; (1e5c <mpi_egcd+0x42a>)
    1cba:	f240 219f 	movw	r1, #671	; 0x29f
    1cbe:	4478      	add	r0, pc
    1cc0:	e6ec      	b.n	1a9c <mpi_egcd+0x6a>
/mnt/disk/raspbian-tee/optee_os/lib/libutee/tee_api_arith_mpi.c:670 (discriminator 1)
    1cc2:	4620      	mov	r0, r4
    1cc4:	f7ff fe94 	bl	19f0 <mpi_is_odd>
    1cc8:	2800      	cmp	r0, #0
    1cca:	d1ee      	bne.n	1caa <mpi_egcd+0x278>
/mnt/disk/raspbian-tee/optee_os/lib/libutee/tee_api_arith_mpi.c:674
    1ccc:	2101      	movs	r1, #1
    1cce:	4628      	mov	r0, r5
    1cd0:	f001 fc23 	bl	351a <mbedtls_mpi_shift_r>
    1cd4:	4602      	mov	r2, r0
    1cd6:	b188      	cbz	r0, 1cfc <mpi_egcd+0x2ca>
/mnt/disk/raspbian-tee/optee_os/lib/libutee/tee_api_arith_mpi.c:674 (discriminator 1)
    1cd8:	4861      	ldr	r0, [pc, #388]	; (1e60 <mpi_egcd+0x42e>)
    1cda:	f240 21a2 	movw	r1, #674	; 0x2a2
    1cde:	4478      	add	r0, pc
    1ce0:	e6dc      	b.n	1a9c <mpi_egcd+0x6a>
/mnt/disk/raspbian-tee/optee_os/lib/libutee/tee_api_arith_mpi.c:672
    1ce2:	4652      	mov	r2, sl
    1ce4:	4621      	mov	r1, r4
    1ce6:	4620      	mov	r0, r4
    1ce8:	f001 fdaf 	bl	384a <mbedtls_mpi_sub_mpi>
    1cec:	4602      	mov	r2, r0
    1cee:	2800      	cmp	r0, #0
    1cf0:	d0ec      	beq.n	1ccc <mpi_egcd+0x29a>
/mnt/disk/raspbian-tee/optee_os/lib/libutee/tee_api_arith_mpi.c:672 (discriminator 1)
    1cf2:	485c      	ldr	r0, [pc, #368]	; (1e64 <mpi_egcd+0x432>)
    1cf4:	f44f 7128 	mov.w	r1, #672	; 0x2a0
    1cf8:	4478      	add	r0, pc
    1cfa:	e6cf      	b.n	1a9c <mpi_egcd+0x6a>
/mnt/disk/raspbian-tee/optee_os/lib/libutee/tee_api_arith_mpi.c:675
    1cfc:	2101      	movs	r1, #1
    1cfe:	4620      	mov	r0, r4
    1d00:	f001 fc0b 	bl	351a <mbedtls_mpi_shift_r>
    1d04:	4602      	mov	r2, r0
    1d06:	2800      	cmp	r0, #0
    1d08:	d0a9      	beq.n	1c5e <mpi_egcd+0x22c>
/mnt/disk/raspbian-tee/optee_os/lib/libutee/tee_api_arith_mpi.c:675 (discriminator 1)
    1d0a:	4857      	ldr	r0, [pc, #348]	; (1e68 <mpi_egcd+0x436>)
    1d0c:	f240 21a3 	movw	r1, #675	; 0x2a3
    1d10:	4478      	add	r0, pc
    1d12:	e6c3      	b.n	1a9c <mpi_egcd+0x6a>
/mnt/disk/raspbian-tee/optee_os/lib/libutee/tee_api_arith_mpi.c:681
    1d14:	462a      	mov	r2, r5
    1d16:	4641      	mov	r1, r8
    1d18:	4640      	mov	r0, r8
    1d1a:	f001 fd96 	bl	384a <mbedtls_mpi_sub_mpi>
    1d1e:	4602      	mov	r2, r0
    1d20:	b120      	cbz	r0, 1d2c <mpi_egcd+0x2fa>
/mnt/disk/raspbian-tee/optee_os/lib/libutee/tee_api_arith_mpi.c:681 (discriminator 1)
    1d22:	4852      	ldr	r0, [pc, #328]	; (1e6c <mpi_egcd+0x43a>)
    1d24:	f240 21a9 	movw	r1, #681	; 0x2a9
    1d28:	4478      	add	r0, pc
    1d2a:	e6b7      	b.n	1a9c <mpi_egcd+0x6a>
/mnt/disk/raspbian-tee/optee_os/lib/libutee/tee_api_arith_mpi.c:682
    1d2c:	4622      	mov	r2, r4
    1d2e:	4639      	mov	r1, r7
    1d30:	4638      	mov	r0, r7
    1d32:	f001 fd8a 	bl	384a <mbedtls_mpi_sub_mpi>
    1d36:	4602      	mov	r2, r0
    1d38:	b340      	cbz	r0, 1d8c <mpi_egcd+0x35a>
/mnt/disk/raspbian-tee/optee_os/lib/libutee/tee_api_arith_mpi.c:682 (discriminator 1)
    1d3a:	484d      	ldr	r0, [pc, #308]	; (1e70 <mpi_egcd+0x43e>)
    1d3c:	f240 21aa 	movw	r1, #682	; 0x2aa
    1d40:	4478      	add	r0, pc
    1d42:	e6ab      	b.n	1a9c <mpi_egcd+0x6a>
/mnt/disk/raspbian-tee/optee_os/lib/libutee/tee_api_arith_mpi.c:684
    1d44:	4632      	mov	r2, r6
    1d46:	4649      	mov	r1, r9
    1d48:	4648      	mov	r0, r9
    1d4a:	f001 fd7e 	bl	384a <mbedtls_mpi_sub_mpi>
    1d4e:	4602      	mov	r2, r0
    1d50:	b120      	cbz	r0, 1d5c <mpi_egcd+0x32a>
/mnt/disk/raspbian-tee/optee_os/lib/libutee/tee_api_arith_mpi.c:684 (discriminator 1)
    1d52:	4848      	ldr	r0, [pc, #288]	; (1e74 <mpi_egcd+0x442>)
    1d54:	f44f 712b 	mov.w	r1, #684	; 0x2ac
    1d58:	4478      	add	r0, pc
    1d5a:	e69f      	b.n	1a9c <mpi_egcd+0x6a>
/mnt/disk/raspbian-tee/optee_os/lib/libutee/tee_api_arith_mpi.c:685
    1d5c:	4642      	mov	r2, r8
    1d5e:	4629      	mov	r1, r5
    1d60:	4628      	mov	r0, r5
    1d62:	f001 fd72 	bl	384a <mbedtls_mpi_sub_mpi>
    1d66:	4602      	mov	r2, r0
    1d68:	b120      	cbz	r0, 1d74 <mpi_egcd+0x342>
/mnt/disk/raspbian-tee/optee_os/lib/libutee/tee_api_arith_mpi.c:685 (discriminator 1)
    1d6a:	4843      	ldr	r0, [pc, #268]	; (1e78 <mpi_egcd+0x446>)
    1d6c:	f240 21ad 	movw	r1, #685	; 0x2ad
    1d70:	4478      	add	r0, pc
    1d72:	e693      	b.n	1a9c <mpi_egcd+0x6a>
/mnt/disk/raspbian-tee/optee_os/lib/libutee/tee_api_arith_mpi.c:686
    1d74:	463a      	mov	r2, r7
    1d76:	4621      	mov	r1, r4
    1d78:	4620      	mov	r0, r4
    1d7a:	f001 fd66 	bl	384a <mbedtls_mpi_sub_mpi>
    1d7e:	4602      	mov	r2, r0
    1d80:	b120      	cbz	r0, 1d8c <mpi_egcd+0x35a>
/mnt/disk/raspbian-tee/optee_os/lib/libutee/tee_api_arith_mpi.c:686 (discriminator 1)
    1d82:	483e      	ldr	r0, [pc, #248]	; (1e7c <mpi_egcd+0x44a>)
    1d84:	f240 21ae 	movw	r1, #686	; 0x2ae
    1d88:	4478      	add	r0, pc
    1d8a:	e687      	b.n	1a9c <mpi_egcd+0x6a>
/mnt/disk/raspbian-tee/optee_os/lib/libutee/tee_api_arith_mpi.c:657
    1d8c:	2100      	movs	r1, #0
    1d8e:	4630      	mov	r0, r6
    1d90:	f001 fc81 	bl	3696 <mbedtls_mpi_cmp_int>
    1d94:	2800      	cmp	r0, #0
    1d96:	f47f af5d 	bne.w	1c54 <mpi_egcd+0x222>
/mnt/disk/raspbian-tee/optee_os/lib/libutee/tee_api_arith_mpi.c:690
    1d9a:	4629      	mov	r1, r5
    1d9c:	9802      	ldr	r0, [sp, #8]
    1d9e:	f001 f9cd 	bl	313c <mbedtls_mpi_copy>
    1da2:	4602      	mov	r2, r0
    1da4:	b120      	cbz	r0, 1db0 <mpi_egcd+0x37e>
/mnt/disk/raspbian-tee/optee_os/lib/libutee/tee_api_arith_mpi.c:690 (discriminator 1)
    1da6:	4836      	ldr	r0, [pc, #216]	; (1e80 <mpi_egcd+0x44e>)
    1da8:	f240 21b2 	movw	r1, #690	; 0x2b2
    1dac:	4478      	add	r0, pc
    1dae:	e675      	b.n	1a9c <mpi_egcd+0x6a>
/mnt/disk/raspbian-tee/optee_os/lib/libutee/tee_api_arith_mpi.c:691
    1db0:	4621      	mov	r1, r4
    1db2:	9803      	ldr	r0, [sp, #12]
    1db4:	f001 f9c2 	bl	313c <mbedtls_mpi_copy>
    1db8:	4602      	mov	r2, r0
    1dba:	b120      	cbz	r0, 1dc6 <mpi_egcd+0x394>
/mnt/disk/raspbian-tee/optee_os/lib/libutee/tee_api_arith_mpi.c:691 (discriminator 1)
    1dbc:	4831      	ldr	r0, [pc, #196]	; (1e84 <mpi_egcd+0x452>)
    1dbe:	f240 21b3 	movw	r1, #691	; 0x2b3
    1dc2:	4478      	add	r0, pc
    1dc4:	e66a      	b.n	1a9c <mpi_egcd+0x6a>
/mnt/disk/raspbian-tee/optee_os/lib/libutee/tee_api_arith_mpi.c:692
    1dc6:	9901      	ldr	r1, [sp, #4]
    1dc8:	4648      	mov	r0, r9
    1dca:	f001 fb5a 	bl	3482 <mbedtls_mpi_shift_l>
    1dce:	4602      	mov	r2, r0
    1dd0:	b120      	cbz	r0, 1ddc <mpi_egcd+0x3aa>
/mnt/disk/raspbian-tee/optee_os/lib/libutee/tee_api_arith_mpi.c:692 (discriminator 1)
    1dd2:	482d      	ldr	r0, [pc, #180]	; (1e88 <mpi_egcd+0x456>)
    1dd4:	f44f 712d 	mov.w	r1, #692	; 0x2b4
    1dd8:	4478      	add	r0, pc
    1dda:	e65f      	b.n	1a9c <mpi_egcd+0x6a>
/mnt/disk/raspbian-tee/optee_os/lib/libutee/tee_api_arith_mpi.c:695
    1ddc:	4640      	mov	r0, r8
    1dde:	f7ff fe1a 	bl	1a16 <put_mpi>
/mnt/disk/raspbian-tee/optee_os/lib/libutee/tee_api_arith_mpi.c:696
    1de2:	4638      	mov	r0, r7
    1de4:	f7ff fe17 	bl	1a16 <put_mpi>
/mnt/disk/raspbian-tee/optee_os/lib/libutee/tee_api_arith_mpi.c:697
    1de8:	4628      	mov	r0, r5
    1dea:	f7ff fe14 	bl	1a16 <put_mpi>
/mnt/disk/raspbian-tee/optee_os/lib/libutee/tee_api_arith_mpi.c:698
    1dee:	4620      	mov	r0, r4
    1df0:	f7ff fe11 	bl	1a16 <put_mpi>
/mnt/disk/raspbian-tee/optee_os/lib/libutee/tee_api_arith_mpi.c:699
    1df4:	4650      	mov	r0, sl
    1df6:	f7ff fe0e 	bl	1a16 <put_mpi>
/mnt/disk/raspbian-tee/optee_os/lib/libutee/tee_api_arith_mpi.c:700
    1dfa:	4658      	mov	r0, fp
    1dfc:	f7ff fe0b 	bl	1a16 <put_mpi>
/mnt/disk/raspbian-tee/optee_os/lib/libutee/tee_api_arith_mpi.c:701
    1e00:	4630      	mov	r0, r6
    1e02:	f7ff fe08 	bl	1a16 <put_mpi>
/mnt/disk/raspbian-tee/optee_os/lib/libutee/tee_api_arith_mpi.c:702
    1e06:	b01b      	add	sp, #108	; 0x6c
    1e08:	e8bd 8ff0 	ldmia.w	sp!, {r4, r5, r6, r7, r8, r9, sl, fp, pc}
    1e0c:	00004cfe 	.word	0x00004cfe
    1e10:	00004ce4 	.word	0x00004ce4
    1e14:	00004cca 	.word	0x00004cca
    1e18:	00004cb4 	.word	0x00004cb4
    1e1c:	00004c9e 	.word	0x00004c9e
    1e20:	00004c88 	.word	0x00004c88
    1e24:	00004c68 	.word	0x00004c68
    1e28:	00004c40 	.word	0x00004c40
    1e2c:	00004c2a 	.word	0x00004c2a
    1e30:	00004c14 	.word	0x00004c14
    1e34:	00004bfe 	.word	0x00004bfe
    1e38:	00004be8 	.word	0x00004be8
    1e3c:	00004bce 	.word	0x00004bce
    1e40:	00004bb8 	.word	0x00004bb8
    1e44:	00004b98 	.word	0x00004b98
    1e48:	00004b78 	.word	0x00004b78
    1e4c:	00004b5e 	.word	0x00004b5e
    1e50:	00004b48 	.word	0x00004b48
    1e54:	00004b10 	.word	0x00004b10
    1e58:	00004afa 	.word	0x00004afa
    1e5c:	00004ada 	.word	0x00004ada
    1e60:	00004aba 	.word	0x00004aba
    1e64:	00004aa0 	.word	0x00004aa0
    1e68:	00004a88 	.word	0x00004a88
    1e6c:	00004a70 	.word	0x00004a70
    1e70:	00004a58 	.word	0x00004a58
    1e74:	00004a40 	.word	0x00004a40
    1e78:	00004a28 	.word	0x00004a28
    1e7c:	00004a10 	.word	0x00004a10
    1e80:	000049ec 	.word	0x000049ec
    1e84:	000049d6 	.word	0x000049d6
    1e88:	000049c0 	.word	0x000049c0

00001e8c <get_mpi>:
get_mpi():
/mnt/disk/raspbian-tee/optee_os/lib/libutee/tee_api_arith_mpi.c:81
    1e8c:	b507      	push	{r0, r1, r2, lr}
/mnt/disk/raspbian-tee/optee_os/lib/libutee/tee_api_arith_mpi.c:96
    1e8e:	b151      	cbz	r1, 1ea6 <get_mpi+0x1a>
init_static_mpi():
/mnt/disk/raspbian-tee/optee_os/lib/libutee/tee_api_arith_mpi.c:65
    1e90:	88ca      	ldrh	r2, [r1, #6]
    1e92:	888b      	ldrh	r3, [r1, #4]
    1e94:	3108      	adds	r1, #8
    1e96:	9200      	str	r2, [sp, #0]
    1e98:	f851 2c08 	ldr.w	r2, [r1, #-8]
    1e9c:	f001 f864 	bl	2f68 <mbedtls_mpi_init_static>
get_mpi():
/mnt/disk/raspbian-tee/optee_os/lib/libutee/tee_api_arith_mpi.c:100
    1ea0:	b003      	add	sp, #12
    1ea2:	f85d fb04 	ldr.w	pc, [sp], #4
    1ea6:	b003      	add	sp, #12
    1ea8:	f85d eb04 	ldr.w	lr, [sp], #4
/mnt/disk/raspbian-tee/optee_os/lib/libutee/tee_api_arith_mpi.c:99
    1eac:	f001 b849 	b.w	2f42 <mbedtls_mpi_init_mempool>

00001eb0 <bigint_binary>:
bigint_binary():
/mnt/disk/raspbian-tee/optee_os/lib/libutee/tee_api_arith_mpi.c:336
    1eb0:	e92d 47f0 	stmdb	sp!, {r4, r5, r6, r7, r8, r9, sl, lr}
    1eb4:	4607      	mov	r7, r0
    1eb6:	4689      	mov	r9, r1
    1eb8:	b08a      	sub	sp, #40	; 0x28
/mnt/disk/raspbian-tee/optee_os/lib/libutee/tee_api_arith_mpi.c:343
    1eba:	4601      	mov	r1, r0
    1ebc:	ae01      	add	r6, sp, #4
/mnt/disk/raspbian-tee/optee_os/lib/libutee/tee_api_arith_mpi.c:336
    1ebe:	4614      	mov	r4, r2
/mnt/disk/raspbian-tee/optee_os/lib/libutee/tee_api_arith_mpi.c:343
    1ec0:	4630      	mov	r0, r6
/mnt/disk/raspbian-tee/optee_os/lib/libutee/tee_api_arith_mpi.c:336
    1ec2:	469a      	mov	sl, r3
    1ec4:	f10d 0810 	add.w	r8, sp, #16
/mnt/disk/raspbian-tee/optee_os/lib/libutee/tee_api_arith_mpi.c:343
    1ec8:	f7ff ffe0 	bl	1e8c <get_mpi>
/mnt/disk/raspbian-tee/optee_os/lib/libutee/tee_api_arith_mpi.c:345
    1ecc:	454f      	cmp	r7, r9
    1ece:	d01b      	beq.n	1f08 <bigint_binary+0x58>
/mnt/disk/raspbian-tee/optee_os/lib/libutee/tee_api_arith_mpi.c:340
    1ed0:	4645      	mov	r5, r8
/mnt/disk/raspbian-tee/optee_os/lib/libutee/tee_api_arith_mpi.c:348
    1ed2:	4649      	mov	r1, r9
    1ed4:	4640      	mov	r0, r8
    1ed6:	f7ff fd69 	bl	19ac <get_const_mpi>
/mnt/disk/raspbian-tee/optee_os/lib/libutee/tee_api_arith_mpi.c:350
    1eda:	42a7      	cmp	r7, r4
    1edc:	af07      	add	r7, sp, #28
    1ede:	d015      	beq.n	1f0c <bigint_binary+0x5c>
/mnt/disk/raspbian-tee/optee_os/lib/libutee/tee_api_arith_mpi.c:352
    1ee0:	45a1      	cmp	r9, r4
    1ee2:	d015      	beq.n	1f10 <bigint_binary+0x60>
/mnt/disk/raspbian-tee/optee_os/lib/libutee/tee_api_arith_mpi.c:355
    1ee4:	4621      	mov	r1, r4
/mnt/disk/raspbian-tee/optee_os/lib/libutee/tee_api_arith_mpi.c:341
    1ee6:	463c      	mov	r4, r7
/mnt/disk/raspbian-tee/optee_os/lib/libutee/tee_api_arith_mpi.c:355
    1ee8:	4638      	mov	r0, r7
    1eea:	f7ff fd5f 	bl	19ac <get_const_mpi>
/mnt/disk/raspbian-tee/optee_os/lib/libutee/tee_api_arith_mpi.c:357
    1eee:	4622      	mov	r2, r4
    1ef0:	4629      	mov	r1, r5
    1ef2:	4630      	mov	r0, r6
    1ef4:	47d0      	blx	sl
    1ef6:	4602      	mov	r2, r0
    1ef8:	b160      	cbz	r0, 1f14 <bigint_binary+0x64>
/mnt/disk/raspbian-tee/optee_os/lib/libutee/tee_api_arith_mpi.c:357 (discriminator 1)
    1efa:	480e      	ldr	r0, [pc, #56]	; (1f34 <bigint_binary+0x84>)
    1efc:	f240 1165 	movw	r1, #357	; 0x165
    1f00:	4478      	add	r0, pc
    1f02:	3017      	adds	r0, #23
    1f04:	f7ff fd42 	bl	198c <mpi_panic>
/mnt/disk/raspbian-tee/optee_os/lib/libutee/tee_api_arith_mpi.c:346
    1f08:	4635      	mov	r5, r6
    1f0a:	e7e6      	b.n	1eda <bigint_binary+0x2a>
/mnt/disk/raspbian-tee/optee_os/lib/libutee/tee_api_arith_mpi.c:351
    1f0c:	4634      	mov	r4, r6
    1f0e:	e7ee      	b.n	1eee <bigint_binary+0x3e>
/mnt/disk/raspbian-tee/optee_os/lib/libutee/tee_api_arith_mpi.c:353
    1f10:	462c      	mov	r4, r5
    1f12:	e7ec      	b.n	1eee <bigint_binary+0x3e>
/mnt/disk/raspbian-tee/optee_os/lib/libutee/tee_api_arith_mpi.c:359
    1f14:	4630      	mov	r0, r6
    1f16:	f7ff fd7e 	bl	1a16 <put_mpi>
/mnt/disk/raspbian-tee/optee_os/lib/libutee/tee_api_arith_mpi.c:360
    1f1a:	4545      	cmp	r5, r8
    1f1c:	d102      	bne.n	1f24 <bigint_binary+0x74>
/mnt/disk/raspbian-tee/optee_os/lib/libutee/tee_api_arith_mpi.c:361
    1f1e:	4628      	mov	r0, r5
    1f20:	f7ff fd79 	bl	1a16 <put_mpi>
/mnt/disk/raspbian-tee/optee_os/lib/libutee/tee_api_arith_mpi.c:362
    1f24:	42bc      	cmp	r4, r7
    1f26:	d102      	bne.n	1f2e <bigint_binary+0x7e>
/mnt/disk/raspbian-tee/optee_os/lib/libutee/tee_api_arith_mpi.c:363
    1f28:	4620      	mov	r0, r4
    1f2a:	f7ff fd74 	bl	1a16 <put_mpi>
/mnt/disk/raspbian-tee/optee_os/lib/libutee/tee_api_arith_mpi.c:364
    1f2e:	b00a      	add	sp, #40	; 0x28
    1f30:	e8bd 87f0 	ldmia.w	sp!, {r4, r5, r6, r7, r8, r9, sl, pc}
    1f34:	00004898 	.word	0x00004898

00001f38 <_TEE_MathAPI_Init>:
_TEE_MathAPI_Init():
/mnt/disk/raspbian-tee/optee_os/lib/libutee/tee_api_arith_mpi.c:48
    1f38:	480b      	ldr	r0, [pc, #44]	; (1f68 <_TEE_MathAPI_Init+0x30>)
    1f3a:	2200      	movs	r2, #0
/mnt/disk/raspbian-tee/optee_os/lib/libutee/tee_api_arith_mpi.c:44
    1f3c:	b510      	push	{r4, lr}
/mnt/disk/raspbian-tee/optee_os/lib/libutee/tee_api_arith_mpi.c:48
    1f3e:	f44f 5100 	mov.w	r1, #8192	; 0x2000
/mnt/disk/raspbian-tee/optee_os/lib/libutee/tee_api_arith_mpi.c:44
    1f42:	4c0a      	ldr	r4, [pc, #40]	; (1f6c <_TEE_MathAPI_Init+0x34>)
/mnt/disk/raspbian-tee/optee_os/lib/libutee/tee_api_arith_mpi.c:48
    1f44:	4478      	add	r0, pc
    1f46:	f003 ff29 	bl	5d9c <mempool_alloc_pool>
    1f4a:	4b09      	ldr	r3, [pc, #36]	; (1f70 <_TEE_MathAPI_Init+0x38>)
/mnt/disk/raspbian-tee/optee_os/lib/libutee/tee_api_arith_mpi.c:44
    1f4c:	447c      	add	r4, pc
/mnt/disk/raspbian-tee/optee_os/lib/libutee/tee_api_arith_mpi.c:48
    1f4e:	58e3      	ldr	r3, [r4, r3]
    1f50:	6018      	str	r0, [r3, #0]
/mnt/disk/raspbian-tee/optee_os/lib/libutee/tee_api_arith_mpi.c:49
    1f52:	b938      	cbnz	r0, 1f64 <_TEE_MathAPI_Init+0x2c>
/mnt/disk/raspbian-tee/optee_os/lib/libutee/tee_api_arith_mpi.c:50
    1f54:	4807      	ldr	r0, [pc, #28]	; (1f74 <_TEE_MathAPI_Init+0x3c>)
    1f56:	2132      	movs	r1, #50	; 0x32
    1f58:	4a07      	ldr	r2, [pc, #28]	; (1f78 <_TEE_MathAPI_Init+0x40>)
    1f5a:	4478      	add	r0, pc
    1f5c:	447a      	add	r2, pc
    1f5e:	3025      	adds	r0, #37	; 0x25
    1f60:	f000 fd1e 	bl	29a0 <api_panic>
    1f64:	bd10      	pop	{r4, pc}
    1f66:	bf00      	nop
    1f68:	00006594 	.word	0x00006594
    1f6c:	00005a14 	.word	0x00005a14
    1f70:	00000030 	.word	0x00000030
    1f74:	0000483e 	.word	0x0000483e
    1f78:	000049c4 	.word	0x000049c4

00001f7c <TEE_BigIntInit>:
TEE_BigIntInit():
/mnt/disk/raspbian-tee/optee_os/lib/libutee/tee_api_arith_mpi.c:140
    1f7c:	f101 021f 	add.w	r2, r1, #31
/mnt/disk/raspbian-tee/optee_os/lib/libutee/tee_api_arith_mpi.c:139
    1f80:	b538      	push	{r3, r4, r5, lr}
/mnt/disk/raspbian-tee/optee_os/lib/libutee/tee_api_arith_mpi.c:140
    1f82:	0952      	lsrs	r2, r2, #5
/mnt/disk/raspbian-tee/optee_os/lib/libutee/tee_api_arith_mpi.c:139
    1f84:	4605      	mov	r5, r0
    1f86:	460c      	mov	r4, r1
/mnt/disk/raspbian-tee/optee_os/lib/libutee/tee_api_arith_mpi.c:140
    1f88:	3202      	adds	r2, #2
    1f8a:	2100      	movs	r1, #0
    1f8c:	0092      	lsls	r2, r2, #2
/mnt/disk/raspbian-tee/optee_os/lib/libutee/tee_api_arith_mpi.c:146
    1f8e:	3c02      	subs	r4, #2
/mnt/disk/raspbian-tee/optee_os/lib/libutee/tee_api_arith_mpi.c:140
    1f90:	f003 ffba 	bl	5f08 <memset>
/mnt/disk/raspbian-tee/optee_os/lib/libutee/tee_api_arith_mpi.c:145
    1f94:	2301      	movs	r3, #1
    1f96:	602b      	str	r3, [r5, #0]
/mnt/disk/raspbian-tee/optee_os/lib/libutee/tee_api_arith_mpi.c:146
    1f98:	f242 7310 	movw	r3, #10000	; 0x2710
    1f9c:	429c      	cmp	r4, r3
    1f9e:	d907      	bls.n	1fb0 <TEE_BigIntInit+0x34>
/mnt/disk/raspbian-tee/optee_os/lib/libutee/tee_api_arith_mpi.c:147
    1fa0:	4804      	ldr	r0, [pc, #16]	; (1fb4 <TEE_BigIntInit+0x38>)
    1fa2:	2193      	movs	r1, #147	; 0x93
    1fa4:	4a04      	ldr	r2, [pc, #16]	; (1fb8 <TEE_BigIntInit+0x3c>)
    1fa6:	4478      	add	r0, pc
    1fa8:	447a      	add	r2, pc
    1faa:	3037      	adds	r0, #55	; 0x37
    1fac:	f000 fcf8 	bl	29a0 <api_panic>
/mnt/disk/raspbian-tee/optee_os/lib/libutee/tee_api_arith_mpi.c:148
    1fb0:	80ac      	strh	r4, [r5, #4]
    1fb2:	bd38      	pop	{r3, r4, r5, pc}
    1fb4:	000047f2 	.word	0x000047f2
    1fb8:	00004999 	.word	0x00004999

00001fbc <TEE_BigIntConvertFromOctetString>:
TEE_BigIntConvertFromOctetString():
/mnt/disk/raspbian-tee/optee_os/lib/libutee/tee_api_arith_mpi.c:154
    1fbc:	b5f0      	push	{r4, r5, r6, r7, lr}
    1fbe:	460c      	mov	r4, r1
    1fc0:	4617      	mov	r7, r2
    1fc2:	b085      	sub	sp, #20
/mnt/disk/raspbian-tee/optee_os/lib/libutee/tee_api_arith_mpi.c:158
    1fc4:	4601      	mov	r1, r0
    1fc6:	ad01      	add	r5, sp, #4
/mnt/disk/raspbian-tee/optee_os/lib/libutee/tee_api_arith_mpi.c:154
    1fc8:	461e      	mov	r6, r3
/mnt/disk/raspbian-tee/optee_os/lib/libutee/tee_api_arith_mpi.c:158
    1fca:	4628      	mov	r0, r5
    1fcc:	f7ff ff5e 	bl	1e8c <get_mpi>
/mnt/disk/raspbian-tee/optee_os/lib/libutee/tee_api_arith_mpi.c:160
    1fd0:	4621      	mov	r1, r4
    1fd2:	463a      	mov	r2, r7
    1fd4:	4628      	mov	r0, r5
    1fd6:	f001 f9fe 	bl	33d6 <mbedtls_mpi_read_binary>
/mnt/disk/raspbian-tee/optee_os/lib/libutee/tee_api_arith_mpi.c:163
    1fda:	2800      	cmp	r0, #0
    1fdc:	4c06      	ldr	r4, [pc, #24]	; (1ff8 <TEE_BigIntConvertFromOctetString+0x3c>)
    1fde:	bf08      	it	eq
    1fe0:	2400      	moveq	r4, #0
/mnt/disk/raspbian-tee/optee_os/lib/libutee/tee_api_arith_mpi.c:165
    1fe2:	2e00      	cmp	r6, #0
    1fe4:	da02      	bge.n	1fec <TEE_BigIntConvertFromOctetString+0x30>
/mnt/disk/raspbian-tee/optee_os/lib/libutee/tee_api_arith_mpi.c:166
    1fe6:	23ff      	movs	r3, #255	; 0xff
    1fe8:	f88d 3004 	strb.w	r3, [sp, #4]
/mnt/disk/raspbian-tee/optee_os/lib/libutee/tee_api_arith_mpi.c:168
    1fec:	4628      	mov	r0, r5
    1fee:	f7ff fd12 	bl	1a16 <put_mpi>
/mnt/disk/raspbian-tee/optee_os/lib/libutee/tee_api_arith_mpi.c:171
    1ff2:	4620      	mov	r0, r4
    1ff4:	b005      	add	sp, #20
    1ff6:	bdf0      	pop	{r4, r5, r6, r7, pc}
    1ff8:	ffff300f 	.word	0xffff300f

00001ffc <TEE_BigIntConvertToOctetString>:
TEE_BigIntConvertToOctetString():
/mnt/disk/raspbian-tee/optee_os/lib/libutee/tee_api_arith_mpi.c:175
    1ffc:	b5f0      	push	{r4, r5, r6, r7, lr}
    1ffe:	460f      	mov	r7, r1
    2000:	4604      	mov	r4, r0
    2002:	b085      	sub	sp, #20
/mnt/disk/raspbian-tee/optee_os/lib/libutee/tee_api_arith_mpi.c:180
    2004:	4611      	mov	r1, r2
    2006:	ad01      	add	r5, sp, #4
    2008:	4628      	mov	r0, r5
    200a:	f7ff fccf 	bl	19ac <get_const_mpi>
/mnt/disk/raspbian-tee/optee_os/lib/libutee/tee_api_arith_mpi.c:182
    200e:	4628      	mov	r0, r5
    2010:	f001 f9db 	bl	33ca <mbedtls_mpi_size>
/mnt/disk/raspbian-tee/optee_os/lib/libutee/tee_api_arith_mpi.c:183
    2014:	683b      	ldr	r3, [r7, #0]
/mnt/disk/raspbian-tee/optee_os/lib/libutee/tee_api_arith_mpi.c:182
    2016:	4606      	mov	r6, r0
/mnt/disk/raspbian-tee/optee_os/lib/libutee/tee_api_arith_mpi.c:183
    2018:	4298      	cmp	r0, r3
    201a:	d80c      	bhi.n	2036 <TEE_BigIntConvertToOctetString+0x3a>
/mnt/disk/raspbian-tee/optee_os/lib/libutee/tee_api_arith_mpi.c:184
    201c:	4602      	mov	r2, r0
    201e:	4621      	mov	r1, r4
    2020:	4628      	mov	r0, r5
    2022:	f001 fa0b 	bl	343c <mbedtls_mpi_write_binary>
    2026:	b170      	cbz	r0, 2046 <TEE_BigIntConvertToOctetString+0x4a>
/mnt/disk/raspbian-tee/optee_os/lib/libutee/tee_api_arith_mpi.c:184 (discriminator 1)
    2028:	4602      	mov	r2, r0
    202a:	4809      	ldr	r0, [pc, #36]	; (2050 <TEE_BigIntConvertToOctetString+0x54>)
    202c:	21b8      	movs	r1, #184	; 0xb8
    202e:	4478      	add	r0, pc
    2030:	3046      	adds	r0, #70	; 0x46
    2032:	f7ff fcab 	bl	198c <mpi_panic>
/mnt/disk/raspbian-tee/optee_os/lib/libutee/tee_api_arith_mpi.c:186
    2036:	4c05      	ldr	r4, [pc, #20]	; (204c <TEE_BigIntConvertToOctetString+0x50>)
/mnt/disk/raspbian-tee/optee_os/lib/libutee/tee_api_arith_mpi.c:190
    2038:	4628      	mov	r0, r5
/mnt/disk/raspbian-tee/optee_os/lib/libutee/tee_api_arith_mpi.c:188
    203a:	603e      	str	r6, [r7, #0]
/mnt/disk/raspbian-tee/optee_os/lib/libutee/tee_api_arith_mpi.c:190
    203c:	f7ff fceb 	bl	1a16 <put_mpi>
/mnt/disk/raspbian-tee/optee_os/lib/libutee/tee_api_arith_mpi.c:193
    2040:	4620      	mov	r0, r4
    2042:	b005      	add	sp, #20
    2044:	bdf0      	pop	{r4, r5, r6, r7, pc}
/mnt/disk/raspbian-tee/optee_os/lib/libutee/tee_api_arith_mpi.c:176
    2046:	4604      	mov	r4, r0
    2048:	e7f6      	b.n	2038 <TEE_BigIntConvertToOctetString+0x3c>
    204a:	bf00      	nop
    204c:	ffff0010 	.word	0xffff0010
    2050:	0000476a 	.word	0x0000476a

00002054 <TEE_BigIntConvertFromS32>:
TEE_BigIntConvertFromS32():
/mnt/disk/raspbian-tee/optee_os/lib/libutee/tee_api_arith_mpi.c:196
    2054:	b530      	push	{r4, r5, lr}
    2056:	460d      	mov	r5, r1
/mnt/disk/raspbian-tee/optee_os/lib/libutee/tee_api_arith_mpi.c:199
    2058:	4601      	mov	r1, r0
/mnt/disk/raspbian-tee/optee_os/lib/libutee/tee_api_arith_mpi.c:196
    205a:	b085      	sub	sp, #20
/mnt/disk/raspbian-tee/optee_os/lib/libutee/tee_api_arith_mpi.c:199
    205c:	ac01      	add	r4, sp, #4
    205e:	4620      	mov	r0, r4
    2060:	f7ff ff14 	bl	1e8c <get_mpi>
/mnt/disk/raspbian-tee/optee_os/lib/libutee/tee_api_arith_mpi.c:201
    2064:	4629      	mov	r1, r5
    2066:	4620      	mov	r0, r4
    2068:	f001 f923 	bl	32b2 <mbedtls_mpi_lset>
    206c:	4602      	mov	r2, r0
    206e:	b128      	cbz	r0, 207c <TEE_BigIntConvertFromS32+0x28>
/mnt/disk/raspbian-tee/optee_os/lib/libutee/tee_api_arith_mpi.c:201 (discriminator 1)
    2070:	4805      	ldr	r0, [pc, #20]	; (2088 <TEE_BigIntConvertFromS32+0x34>)
    2072:	21c9      	movs	r1, #201	; 0xc9
    2074:	4478      	add	r0, pc
    2076:	3065      	adds	r0, #101	; 0x65
    2078:	f7ff fc88 	bl	198c <mpi_panic>
/mnt/disk/raspbian-tee/optee_os/lib/libutee/tee_api_arith_mpi.c:203
    207c:	4620      	mov	r0, r4
    207e:	f7ff fcca 	bl	1a16 <put_mpi>
/mnt/disk/raspbian-tee/optee_os/lib/libutee/tee_api_arith_mpi.c:204
    2082:	b005      	add	sp, #20
    2084:	bd30      	pop	{r4, r5, pc}
    2086:	bf00      	nop
    2088:	00004724 	.word	0x00004724

0000208c <TEE_BigIntConvertToS32>:
TEE_BigIntConvertToS32():
/mnt/disk/raspbian-tee/optee_os/lib/libutee/tee_api_arith_mpi.c:207
    208c:	b530      	push	{r4, r5, lr}
    208e:	4605      	mov	r5, r0
    2090:	b085      	sub	sp, #20
/mnt/disk/raspbian-tee/optee_os/lib/libutee/tee_api_arith_mpi.c:212
    2092:	ac01      	add	r4, sp, #4
    2094:	4620      	mov	r0, r4
    2096:	f7ff fc89 	bl	19ac <get_const_mpi>
/mnt/disk/raspbian-tee/optee_os/lib/libutee/tee_api_arith_mpi.c:214
    209a:	2204      	movs	r2, #4
    209c:	4669      	mov	r1, sp
    209e:	4620      	mov	r0, r4
    20a0:	f001 f9cc 	bl	343c <mbedtls_mpi_write_binary>
    20a4:	b9d0      	cbnz	r0, 20dc <TEE_BigIntConvertToS32+0x50>
/mnt/disk/raspbian-tee/optee_os/lib/libutee/tee_api_arith_mpi.c:219
    20a6:	f99d 3004 	ldrsb.w	r3, [sp, #4]
    20aa:	2b00      	cmp	r3, #0
    20ac:	9b00      	ldr	r3, [sp, #0]
/mnt/disk/raspbian-tee/optee_os/lib/libutee/tee_api_arith_mpi.c:220
    20ae:	ba1b      	rev	r3, r3
/mnt/disk/raspbian-tee/optee_os/lib/libutee/tee_api_arith_mpi.c:219
    20b0:	dd09      	ble.n	20c6 <TEE_BigIntConvertToS32+0x3a>
/mnt/disk/raspbian-tee/optee_os/lib/libutee/tee_api_arith_mpi.c:220
    20b2:	602b      	str	r3, [r5, #0]
    20b4:	2b00      	cmp	r3, #0
    20b6:	db11      	blt.n	20dc <TEE_BigIntConvertToS32+0x50>
/mnt/disk/raspbian-tee/optee_os/lib/libutee/tee_api_arith_mpi.c:208
    20b8:	2500      	movs	r5, #0
/mnt/disk/raspbian-tee/optee_os/lib/libutee/tee_api_arith_mpi.c:228
    20ba:	4620      	mov	r0, r4
    20bc:	f7ff fcab 	bl	1a16 <put_mpi>
/mnt/disk/raspbian-tee/optee_os/lib/libutee/tee_api_arith_mpi.c:231
    20c0:	4628      	mov	r0, r5
    20c2:	b005      	add	sp, #20
    20c4:	bd30      	pop	{r4, r5, pc}
/mnt/disk/raspbian-tee/optee_os/lib/libutee/tee_api_arith_mpi.c:223
    20c6:	425a      	negs	r2, r3
    20c8:	b11b      	cbz	r3, 20d2 <TEE_BigIntConvertToS32+0x46>
    20ca:	2a00      	cmp	r2, #0
    20cc:	db03      	blt.n	20d6 <TEE_BigIntConvertToS32+0x4a>
    20ce:	2001      	movs	r0, #1
    20d0:	e001      	b.n	20d6 <TEE_BigIntConvertToS32+0x4a>
    20d2:	2a00      	cmp	r2, #0
    20d4:	dbfb      	blt.n	20ce <TEE_BigIntConvertToS32+0x42>
    20d6:	602a      	str	r2, [r5, #0]
    20d8:	2800      	cmp	r0, #0
    20da:	d0ed      	beq.n	20b8 <TEE_BigIntConvertToS32+0x2c>
/mnt/disk/raspbian-tee/optee_os/lib/libutee/tee_api_arith_mpi.c:221
    20dc:	4d00      	ldr	r5, [pc, #0]	; (20e0 <TEE_BigIntConvertToS32+0x54>)
    20de:	e7ec      	b.n	20ba <TEE_BigIntConvertToS32+0x2e>
    20e0:	ffff300f 	.word	0xffff300f

000020e4 <TEE_BigIntCmp>:
TEE_BigIntCmp():
/mnt/disk/raspbian-tee/optee_os/lib/libutee/tee_api_arith_mpi.c:234
    20e4:	b570      	push	{r4, r5, r6, lr}
    20e6:	460c      	mov	r4, r1
/mnt/disk/raspbian-tee/optee_os/lib/libutee/tee_api_arith_mpi.c:239
    20e8:	4601      	mov	r1, r0
/mnt/disk/raspbian-tee/optee_os/lib/libutee/tee_api_arith_mpi.c:234
    20ea:	b086      	sub	sp, #24
/mnt/disk/raspbian-tee/optee_os/lib/libutee/tee_api_arith_mpi.c:239
    20ec:	4668      	mov	r0, sp
    20ee:	f7ff fc5d 	bl	19ac <get_const_mpi>
/mnt/disk/raspbian-tee/optee_os/lib/libutee/tee_api_arith_mpi.c:240
    20f2:	4621      	mov	r1, r4
    20f4:	ac03      	add	r4, sp, #12
    20f6:	4620      	mov	r0, r4
    20f8:	f7ff fc58 	bl	19ac <get_const_mpi>
/mnt/disk/raspbian-tee/optee_os/lib/libutee/tee_api_arith_mpi.c:242
    20fc:	4621      	mov	r1, r4
    20fe:	4668      	mov	r0, sp
    2100:	f001 fa7e 	bl	3600 <mbedtls_mpi_cmp_mpi>
    2104:	4606      	mov	r6, r0
/mnt/disk/raspbian-tee/optee_os/lib/libutee/tee_api_arith_mpi.c:244
    2106:	4668      	mov	r0, sp
    2108:	f7ff fc85 	bl	1a16 <put_mpi>
/mnt/disk/raspbian-tee/optee_os/lib/libutee/tee_api_arith_mpi.c:245
    210c:	4620      	mov	r0, r4
    210e:	f7ff fc82 	bl	1a16 <put_mpi>
/mnt/disk/raspbian-tee/optee_os/lib/libutee/tee_api_arith_mpi.c:248
    2112:	4630      	mov	r0, r6
    2114:	b006      	add	sp, #24
    2116:	bd70      	pop	{r4, r5, r6, pc}

00002118 <TEE_BigIntCmpS32>:
TEE_BigIntCmpS32():
/mnt/disk/raspbian-tee/optee_os/lib/libutee/tee_api_arith_mpi.c:251
    2118:	b530      	push	{r4, r5, lr}
    211a:	460d      	mov	r5, r1
/mnt/disk/raspbian-tee/optee_os/lib/libutee/tee_api_arith_mpi.c:255
    211c:	4601      	mov	r1, r0
/mnt/disk/raspbian-tee/optee_os/lib/libutee/tee_api_arith_mpi.c:251
    211e:	b085      	sub	sp, #20
/mnt/disk/raspbian-tee/optee_os/lib/libutee/tee_api_arith_mpi.c:255
    2120:	ac01      	add	r4, sp, #4
    2122:	4620      	mov	r0, r4
    2124:	f7ff fc42 	bl	19ac <get_const_mpi>
/mnt/disk/raspbian-tee/optee_os/lib/libutee/tee_api_arith_mpi.c:257
    2128:	4629      	mov	r1, r5
    212a:	4620      	mov	r0, r4
    212c:	f001 fab3 	bl	3696 <mbedtls_mpi_cmp_int>
    2130:	4605      	mov	r5, r0
/mnt/disk/raspbian-tee/optee_os/lib/libutee/tee_api_arith_mpi.c:259
    2132:	4620      	mov	r0, r4
    2134:	f7ff fc6f 	bl	1a16 <put_mpi>
/mnt/disk/raspbian-tee/optee_os/lib/libutee/tee_api_arith_mpi.c:262
    2138:	4628      	mov	r0, r5
    213a:	b005      	add	sp, #20
    213c:	bd30      	pop	{r4, r5, pc}

0000213e <bigint_binary_mod>:
bigint_binary_mod():
/mnt/disk/raspbian-tee/optee_os/lib/libutee/tee_api_arith_mpi.c:370
    213e:	e92d 47f0 	stmdb	sp!, {r4, r5, r6, r7, r8, r9, sl, lr}
    2142:	4680      	mov	r8, r0
    2144:	460f      	mov	r7, r1
    2146:	b090      	sub	sp, #64	; 0x40
/mnt/disk/raspbian-tee/optee_os/lib/libutee/tee_api_arith_mpi.c:371
    2148:	2102      	movs	r1, #2
    214a:	4618      	mov	r0, r3
/mnt/disk/raspbian-tee/optee_os/lib/libutee/tee_api_arith_mpi.c:370
    214c:	4614      	mov	r4, r2
    214e:	461d      	mov	r5, r3
/mnt/disk/raspbian-tee/optee_os/lib/libutee/tee_api_arith_mpi.c:371
    2150:	f7ff ffe2 	bl	2118 <TEE_BigIntCmpS32>
    2154:	2800      	cmp	r0, #0
    2156:	da08      	bge.n	216a <bigint_binary_mod+0x2c>
/mnt/disk/raspbian-tee/optee_os/lib/libutee/tee_api_arith_mpi.c:372
    2158:	482f      	ldr	r0, [pc, #188]	; (2218 <bigint_binary_mod+0xda>)
    215a:	f44f 71ba 	mov.w	r1, #372	; 0x174
    215e:	4a2f      	ldr	r2, [pc, #188]	; (221c <bigint_binary_mod+0xde>)
    2160:	4478      	add	r0, pc
    2162:	447a      	add	r2, pc
    2164:	307e      	adds	r0, #126	; 0x7e
    2166:	f000 fc1b 	bl	29a0 <api_panic>
/mnt/disk/raspbian-tee/optee_os/lib/libutee/tee_api_arith_mpi.c:382
    216a:	ae01      	add	r6, sp, #4
    216c:	4641      	mov	r1, r8
    216e:	4630      	mov	r0, r6
/mnt/disk/raspbian-tee/optee_os/lib/libutee/tee_api_arith_mpi.c:383
    2170:	f10d 0a28 	add.w	sl, sp, #40	; 0x28
/mnt/disk/raspbian-tee/optee_os/lib/libutee/tee_api_arith_mpi.c:382
    2174:	f7ff fe8a 	bl	1e8c <get_mpi>
/mnt/disk/raspbian-tee/optee_os/lib/libutee/tee_api_arith_mpi.c:383
    2178:	4629      	mov	r1, r5
    217a:	4650      	mov	r0, sl
    217c:	f10d 0910 	add.w	r9, sp, #16
    2180:	f7ff fc14 	bl	19ac <get_const_mpi>
/mnt/disk/raspbian-tee/optee_os/lib/libutee/tee_api_arith_mpi.c:385
    2184:	45b8      	cmp	r8, r7
    2186:	d021      	beq.n	21cc <bigint_binary_mod+0x8e>
/mnt/disk/raspbian-tee/optee_os/lib/libutee/tee_api_arith_mpi.c:378
    2188:	464d      	mov	r5, r9
/mnt/disk/raspbian-tee/optee_os/lib/libutee/tee_api_arith_mpi.c:388
    218a:	4639      	mov	r1, r7
    218c:	4648      	mov	r0, r9
    218e:	f7ff fc0d 	bl	19ac <get_const_mpi>
/mnt/disk/raspbian-tee/optee_os/lib/libutee/tee_api_arith_mpi.c:390
    2192:	45a0      	cmp	r8, r4
    2194:	f10d 081c 	add.w	r8, sp, #28
    2198:	d01a      	beq.n	21d0 <bigint_binary_mod+0x92>
/mnt/disk/raspbian-tee/optee_os/lib/libutee/tee_api_arith_mpi.c:392
    219a:	42a7      	cmp	r7, r4
    219c:	d01a      	beq.n	21d4 <bigint_binary_mod+0x96>
/mnt/disk/raspbian-tee/optee_os/lib/libutee/tee_api_arith_mpi.c:395
    219e:	4621      	mov	r1, r4
/mnt/disk/raspbian-tee/optee_os/lib/libutee/tee_api_arith_mpi.c:379
    21a0:	4644      	mov	r4, r8
/mnt/disk/raspbian-tee/optee_os/lib/libutee/tee_api_arith_mpi.c:395
    21a2:	4640      	mov	r0, r8
    21a4:	f7ff fc02 	bl	19ac <get_const_mpi>
get_mpi():
/mnt/disk/raspbian-tee/optee_os/lib/libutee/tee_api_arith_mpi.c:99
    21a8:	af0d      	add	r7, sp, #52	; 0x34
    21aa:	4638      	mov	r0, r7
    21ac:	f000 fec9 	bl	2f42 <mbedtls_mpi_init_mempool>
bigint_binary_mod():
/mnt/disk/raspbian-tee/optee_os/lib/libutee/tee_api_arith_mpi.c:399
    21b0:	4622      	mov	r2, r4
    21b2:	4629      	mov	r1, r5
    21b4:	4638      	mov	r0, r7
    21b6:	9b18      	ldr	r3, [sp, #96]	; 0x60
    21b8:	4798      	blx	r3
    21ba:	4602      	mov	r2, r0
    21bc:	b160      	cbz	r0, 21d8 <bigint_binary_mod+0x9a>
/mnt/disk/raspbian-tee/optee_os/lib/libutee/tee_api_arith_mpi.c:399 (discriminator 1)
    21be:	4818      	ldr	r0, [pc, #96]	; (2220 <bigint_binary_mod+0xe2>)
    21c0:	f240 118f 	movw	r1, #399	; 0x18f
    21c4:	4478      	add	r0, pc
/mnt/disk/raspbian-tee/optee_os/lib/libutee/tee_api_arith_mpi.c:400 (discriminator 1)
    21c6:	307e      	adds	r0, #126	; 0x7e
    21c8:	f7ff fbe0 	bl	198c <mpi_panic>
/mnt/disk/raspbian-tee/optee_os/lib/libutee/tee_api_arith_mpi.c:386
    21cc:	4635      	mov	r5, r6
    21ce:	e7e0      	b.n	2192 <bigint_binary_mod+0x54>
/mnt/disk/raspbian-tee/optee_os/lib/libutee/tee_api_arith_mpi.c:391
    21d0:	4634      	mov	r4, r6
    21d2:	e7e9      	b.n	21a8 <bigint_binary_mod+0x6a>
/mnt/disk/raspbian-tee/optee_os/lib/libutee/tee_api_arith_mpi.c:393
    21d4:	462c      	mov	r4, r5
    21d6:	e7e7      	b.n	21a8 <bigint_binary_mod+0x6a>
/mnt/disk/raspbian-tee/optee_os/lib/libutee/tee_api_arith_mpi.c:400
    21d8:	4652      	mov	r2, sl
    21da:	4639      	mov	r1, r7
    21dc:	4630      	mov	r0, r6
    21de:	f001 fe85 	bl	3eec <mbedtls_mpi_mod_mpi>
    21e2:	4602      	mov	r2, r0
    21e4:	b120      	cbz	r0, 21f0 <bigint_binary_mod+0xb2>
/mnt/disk/raspbian-tee/optee_os/lib/libutee/tee_api_arith_mpi.c:400 (discriminator 1)
    21e6:	480f      	ldr	r0, [pc, #60]	; (2224 <bigint_binary_mod+0xe6>)
    21e8:	f44f 71c8 	mov.w	r1, #400	; 0x190
    21ec:	4478      	add	r0, pc
    21ee:	e7ea      	b.n	21c6 <bigint_binary_mod+0x88>
/mnt/disk/raspbian-tee/optee_os/lib/libutee/tee_api_arith_mpi.c:402
    21f0:	4630      	mov	r0, r6
    21f2:	f7ff fc10 	bl	1a16 <put_mpi>
/mnt/disk/raspbian-tee/optee_os/lib/libutee/tee_api_arith_mpi.c:403
    21f6:	454d      	cmp	r5, r9
    21f8:	d102      	bne.n	2200 <bigint_binary_mod+0xc2>
/mnt/disk/raspbian-tee/optee_os/lib/libutee/tee_api_arith_mpi.c:404
    21fa:	4628      	mov	r0, r5
    21fc:	f7ff fc0b 	bl	1a16 <put_mpi>
/mnt/disk/raspbian-tee/optee_os/lib/libutee/tee_api_arith_mpi.c:405
    2200:	4544      	cmp	r4, r8
    2202:	d102      	bne.n	220a <bigint_binary_mod+0xcc>
/mnt/disk/raspbian-tee/optee_os/lib/libutee/tee_api_arith_mpi.c:406
    2204:	4620      	mov	r0, r4
    2206:	f7ff fc06 	bl	1a16 <put_mpi>
/mnt/disk/raspbian-tee/optee_os/lib/libutee/tee_api_arith_mpi.c:407
    220a:	4638      	mov	r0, r7
    220c:	f7ff fc03 	bl	1a16 <put_mpi>
/mnt/disk/raspbian-tee/optee_os/lib/libutee/tee_api_arith_mpi.c:408
    2210:	b010      	add	sp, #64	; 0x40
    2212:	e8bd 87f0 	ldmia.w	sp!, {r4, r5, r6, r7, r8, r9, sl, pc}
    2216:	bf00      	nop
    2218:	00004638 	.word	0x00004638
    221c:	000047f0 	.word	0x000047f0
    2220:	000045d4 	.word	0x000045d4
    2224:	000045ac 	.word	0x000045ac

00002228 <TEE_BigIntShiftRight>:
TEE_BigIntShiftRight():
/mnt/disk/raspbian-tee/optee_os/lib/libutee/tee_api_arith_mpi.c:265
    2228:	b5f0      	push	{r4, r5, r6, r7, lr}
    222a:	4605      	mov	r5, r0
    222c:	460e      	mov	r6, r1
    222e:	b08b      	sub	sp, #44	; 0x2c
/mnt/disk/raspbian-tee/optee_os/lib/libutee/tee_api_arith_mpi.c:269
    2230:	4601      	mov	r1, r0
    2232:	ac01      	add	r4, sp, #4
/mnt/disk/raspbian-tee/optee_os/lib/libutee/tee_api_arith_mpi.c:265
    2234:	4617      	mov	r7, r2
/mnt/disk/raspbian-tee/optee_os/lib/libutee/tee_api_arith_mpi.c:269
    2236:	4620      	mov	r0, r4
    2238:	f7ff fe28 	bl	1e8c <get_mpi>
/mnt/disk/raspbian-tee/optee_os/lib/libutee/tee_api_arith_mpi.c:271
    223c:	42b5      	cmp	r5, r6
    223e:	d10d      	bne.n	225c <TEE_BigIntShiftRight+0x34>
/mnt/disk/raspbian-tee/optee_os/lib/libutee/tee_api_arith_mpi.c:272
    2240:	4639      	mov	r1, r7
    2242:	4620      	mov	r0, r4
    2244:	f001 f969 	bl	351a <mbedtls_mpi_shift_r>
    2248:	4602      	mov	r2, r0
    224a:	2800      	cmp	r0, #0
    224c:	d055      	beq.n	22fa <TEE_BigIntShiftRight+0xd2>
/mnt/disk/raspbian-tee/optee_os/lib/libutee/tee_api_arith_mpi.c:272 (discriminator 1)
    224e:	482d      	ldr	r0, [pc, #180]	; (2304 <TEE_BigIntShiftRight+0xdc>)
    2250:	f44f 7188 	mov.w	r1, #272	; 0x110
    2254:	4478      	add	r0, pc
/mnt/disk/raspbian-tee/optee_os/lib/libutee/tee_api_arith_mpi.c:279 (discriminator 1)
    2256:	3090      	adds	r0, #144	; 0x90
    2258:	f7ff fb98 	bl	198c <mpi_panic>
/mnt/disk/raspbian-tee/optee_os/lib/libutee/tee_api_arith_mpi.c:276
    225c:	ad04      	add	r5, sp, #16
    225e:	4631      	mov	r1, r6
    2260:	4628      	mov	r0, r5
    2262:	f7ff fba3 	bl	19ac <get_const_mpi>
/mnt/disk/raspbian-tee/optee_os/lib/libutee/tee_api_arith_mpi.c:278
    2266:	4620      	mov	r0, r4
    2268:	f001 f8af 	bl	33ca <mbedtls_mpi_size>
    226c:	4606      	mov	r6, r0
    226e:	4628      	mov	r0, r5
    2270:	f001 f8ab 	bl	33ca <mbedtls_mpi_size>
    2274:	4286      	cmp	r6, r0
    2276:	d315      	bcc.n	22a4 <TEE_BigIntShiftRight+0x7c>
/mnt/disk/raspbian-tee/optee_os/lib/libutee/tee_api_arith_mpi.c:279
    2278:	4629      	mov	r1, r5
    227a:	4620      	mov	r0, r4
    227c:	f000 ff5e 	bl	313c <mbedtls_mpi_copy>
    2280:	4602      	mov	r2, r0
    2282:	b120      	cbz	r0, 228e <TEE_BigIntShiftRight+0x66>
/mnt/disk/raspbian-tee/optee_os/lib/libutee/tee_api_arith_mpi.c:279 (discriminator 1)
    2284:	4820      	ldr	r0, [pc, #128]	; (2308 <TEE_BigIntShiftRight+0xe0>)
    2286:	f240 1117 	movw	r1, #279	; 0x117
    228a:	4478      	add	r0, pc
    228c:	e7e3      	b.n	2256 <TEE_BigIntShiftRight+0x2e>
/mnt/disk/raspbian-tee/optee_os/lib/libutee/tee_api_arith_mpi.c:280
    228e:	4639      	mov	r1, r7
    2290:	4620      	mov	r0, r4
    2292:	f001 f942 	bl	351a <mbedtls_mpi_shift_r>
    2296:	4602      	mov	r2, r0
    2298:	b360      	cbz	r0, 22f4 <TEE_BigIntShiftRight+0xcc>
/mnt/disk/raspbian-tee/optee_os/lib/libutee/tee_api_arith_mpi.c:280 (discriminator 1)
    229a:	481c      	ldr	r0, [pc, #112]	; (230c <TEE_BigIntShiftRight+0xe4>)
    229c:	f44f 718c 	mov.w	r1, #280	; 0x118
    22a0:	4478      	add	r0, pc
    22a2:	e7d8      	b.n	2256 <TEE_BigIntShiftRight+0x2e>
get_mpi():
/mnt/disk/raspbian-tee/optee_os/lib/libutee/tee_api_arith_mpi.c:99
    22a4:	ae07      	add	r6, sp, #28
    22a6:	4630      	mov	r0, r6
    22a8:	f000 fe4b 	bl	2f42 <mbedtls_mpi_init_mempool>
TEE_BigIntShiftRight():
/mnt/disk/raspbian-tee/optee_os/lib/libutee/tee_api_arith_mpi.c:291
    22ac:	4629      	mov	r1, r5
    22ae:	4630      	mov	r0, r6
    22b0:	f000 ff44 	bl	313c <mbedtls_mpi_copy>
    22b4:	4602      	mov	r2, r0
    22b6:	b120      	cbz	r0, 22c2 <TEE_BigIntShiftRight+0x9a>
/mnt/disk/raspbian-tee/optee_os/lib/libutee/tee_api_arith_mpi.c:291 (discriminator 1)
    22b8:	4815      	ldr	r0, [pc, #84]	; (2310 <TEE_BigIntShiftRight+0xe8>)
    22ba:	f240 1123 	movw	r1, #291	; 0x123
    22be:	4478      	add	r0, pc
    22c0:	e7c9      	b.n	2256 <TEE_BigIntShiftRight+0x2e>
/mnt/disk/raspbian-tee/optee_os/lib/libutee/tee_api_arith_mpi.c:292
    22c2:	4639      	mov	r1, r7
    22c4:	4630      	mov	r0, r6
    22c6:	f001 f928 	bl	351a <mbedtls_mpi_shift_r>
    22ca:	4602      	mov	r2, r0
    22cc:	b120      	cbz	r0, 22d8 <TEE_BigIntShiftRight+0xb0>
/mnt/disk/raspbian-tee/optee_os/lib/libutee/tee_api_arith_mpi.c:292 (discriminator 1)
    22ce:	4811      	ldr	r0, [pc, #68]	; (2314 <TEE_BigIntShiftRight+0xec>)
    22d0:	f44f 7192 	mov.w	r1, #292	; 0x124
    22d4:	4478      	add	r0, pc
    22d6:	e7be      	b.n	2256 <TEE_BigIntShiftRight+0x2e>
/mnt/disk/raspbian-tee/optee_os/lib/libutee/tee_api_arith_mpi.c:293
    22d8:	4631      	mov	r1, r6
    22da:	4620      	mov	r0, r4
    22dc:	f000 ff2e 	bl	313c <mbedtls_mpi_copy>
    22e0:	4602      	mov	r2, r0
    22e2:	b120      	cbz	r0, 22ee <TEE_BigIntShiftRight+0xc6>
/mnt/disk/raspbian-tee/optee_os/lib/libutee/tee_api_arith_mpi.c:293 (discriminator 1)
    22e4:	480c      	ldr	r0, [pc, #48]	; (2318 <TEE_BigIntShiftRight+0xf0>)
    22e6:	f240 1125 	movw	r1, #293	; 0x125
    22ea:	4478      	add	r0, pc
    22ec:	e7b3      	b.n	2256 <TEE_BigIntShiftRight+0x2e>
/mnt/disk/raspbian-tee/optee_os/lib/libutee/tee_api_arith_mpi.c:295
    22ee:	4630      	mov	r0, r6
    22f0:	f7ff fb91 	bl	1a16 <put_mpi>
/mnt/disk/raspbian-tee/optee_os/lib/libutee/tee_api_arith_mpi.c:298
    22f4:	4628      	mov	r0, r5
    22f6:	f7ff fb8e 	bl	1a16 <put_mpi>
/mnt/disk/raspbian-tee/optee_os/lib/libutee/tee_api_arith_mpi.c:301
    22fa:	4620      	mov	r0, r4
    22fc:	f7ff fb8b 	bl	1a16 <put_mpi>
/mnt/disk/raspbian-tee/optee_os/lib/libutee/tee_api_arith_mpi.c:302
    2300:	b00b      	add	sp, #44	; 0x2c
    2302:	bdf0      	pop	{r4, r5, r6, r7, pc}
    2304:	00004544 	.word	0x00004544
    2308:	0000450e 	.word	0x0000450e
    230c:	000044f8 	.word	0x000044f8
    2310:	000044da 	.word	0x000044da
    2314:	000044c4 	.word	0x000044c4
    2318:	000044ae 	.word	0x000044ae

0000231c <TEE_BigIntGetBit>:
TEE_BigIntGetBit():
/mnt/disk/raspbian-tee/optee_os/lib/libutee/tee_api_arith_mpi.c:305
    231c:	b530      	push	{r4, r5, lr}
    231e:	460d      	mov	r5, r1
/mnt/disk/raspbian-tee/optee_os/lib/libutee/tee_api_arith_mpi.c:309
    2320:	4601      	mov	r1, r0
/mnt/disk/raspbian-tee/optee_os/lib/libutee/tee_api_arith_mpi.c:305
    2322:	b085      	sub	sp, #20
/mnt/disk/raspbian-tee/optee_os/lib/libutee/tee_api_arith_mpi.c:309
    2324:	ac01      	add	r4, sp, #4
    2326:	4620      	mov	r0, r4
    2328:	f7ff fb40 	bl	19ac <get_const_mpi>
/mnt/disk/raspbian-tee/optee_os/lib/libutee/tee_api_arith_mpi.c:311
    232c:	4629      	mov	r1, r5
    232e:	4620      	mov	r0, r4
    2330:	f000 ffdb 	bl	32ea <mbedtls_mpi_get_bit>
    2334:	4605      	mov	r5, r0
/mnt/disk/raspbian-tee/optee_os/lib/libutee/tee_api_arith_mpi.c:313
    2336:	4620      	mov	r0, r4
    2338:	f7ff fb6d 	bl	1a16 <put_mpi>
/mnt/disk/raspbian-tee/optee_os/lib/libutee/tee_api_arith_mpi.c:316
    233c:	1c28      	adds	r0, r5, #0
    233e:	bf18      	it	ne
    2340:	2001      	movne	r0, #1
    2342:	b005      	add	sp, #20
    2344:	bd30      	pop	{r4, r5, pc}

00002346 <TEE_BigIntGetBitCount>:
TEE_BigIntGetBitCount():
/mnt/disk/raspbian-tee/optee_os/lib/libutee/tee_api_arith_mpi.c:319
    2346:	b530      	push	{r4, r5, lr}
/mnt/disk/raspbian-tee/optee_os/lib/libutee/tee_api_arith_mpi.c:323
    2348:	4601      	mov	r1, r0
/mnt/disk/raspbian-tee/optee_os/lib/libutee/tee_api_arith_mpi.c:319
    234a:	b085      	sub	sp, #20
/mnt/disk/raspbian-tee/optee_os/lib/libutee/tee_api_arith_mpi.c:323
    234c:	ac01      	add	r4, sp, #4
    234e:	4620      	mov	r0, r4
    2350:	f7ff fb2c 	bl	19ac <get_const_mpi>
/mnt/disk/raspbian-tee/optee_os/lib/libutee/tee_api_arith_mpi.c:325
    2354:	4620      	mov	r0, r4
    2356:	f001 f817 	bl	3388 <mbedtls_mpi_bitlen>
    235a:	4605      	mov	r5, r0
/mnt/disk/raspbian-tee/optee_os/lib/libutee/tee_api_arith_mpi.c:327
    235c:	4620      	mov	r0, r4
    235e:	f7ff fb5a 	bl	1a16 <put_mpi>
/mnt/disk/raspbian-tee/optee_os/lib/libutee/tee_api_arith_mpi.c:330
    2362:	4628      	mov	r0, r5
    2364:	b005      	add	sp, #20
    2366:	bd30      	pop	{r4, r5, pc}

00002368 <TEE_BigIntAdd>:
TEE_BigIntAdd():
/mnt/disk/raspbian-tee/optee_os/lib/libutee/tee_api_arith_mpi.c:412
    2368:	4b04      	ldr	r3, [pc, #16]	; (237c <TEE_BigIntAdd+0x14>)
    236a:	b417      	push	{r0, r1, r2, r4}
/mnt/disk/raspbian-tee/optee_os/lib/libutee/tee_api_arith_mpi.c:413
    236c:	4c04      	ldr	r4, [pc, #16]	; (2380 <TEE_BigIntAdd+0x18>)
/mnt/disk/raspbian-tee/optee_os/lib/libutee/tee_api_arith_mpi.c:412
    236e:	447b      	add	r3, pc
/mnt/disk/raspbian-tee/optee_os/lib/libutee/tee_api_arith_mpi.c:413
    2370:	591b      	ldr	r3, [r3, r4]
    2372:	9301      	str	r3, [sp, #4]
/mnt/disk/raspbian-tee/optee_os/lib/libutee/tee_api_arith_mpi.c:414
    2374:	b003      	add	sp, #12
    2376:	f85d 4b04 	ldr.w	r4, [sp], #4
/mnt/disk/raspbian-tee/optee_os/lib/libutee/tee_api_arith_mpi.c:413
    237a:	e599      	b.n	1eb0 <bigint_binary>
    237c:	000055f2 	.word	0x000055f2
    2380:	0000001c 	.word	0x0000001c

00002384 <TEE_BigIntSub>:
TEE_BigIntSub():
