
22250a54-0bf1-48fe-8002-7b20f1c9c9b1.elf:     file format elf32-littlearm
22250a54-0bf1-48fe-8002-7b20f1c9c9b1.elf
architecture: arm, flags 0x00000150:
HAS_SYMS, DYNAMIC, D_PAGED
start address 0x00000020

Program Header:
0x70000001 off    0x00017ee4 vaddr 0x00007ee4 paddr 0x00007ee4 align 2**2
         filesz 0x00000588 memsz 0x00000588 flags r--
    LOAD off    0x00010000 vaddr 0x00000000 paddr 0x00000000 align 2**16
         filesz 0x00006a70 memsz 0x00006a70 flags r-x
    LOAD off    0x00016a70 vaddr 0x00006a70 paddr 0x00006a70 align 2**16
         filesz 0x00001db0 memsz 0x00001db0 flags r--
    LOAD off    0x00019000 vaddr 0x00009000 paddr 0x00009000 align 2**16
         filesz 0x000000b0 memsz 0x00006120 flags rw-
 DYNAMIC off    0x000185e8 vaddr 0x000085e8 paddr 0x000085e8 align 2**2
         filesz 0x00000080 memsz 0x00000080 flags rw-

Dynamic Section:
  HASH                 0x000087d8
  STRTAB               0x00008738
  SYMTAB               0x00008668
  STRSZ                0x0000009f
  SYMENT               0x00000010
  DEBUG                0x00000000
  REL                  0x000084a0
  RELSZ                0x00000148
  RELENT               0x00000008
  FLAGS_1              0x08000000
  RELCOUNT             0x00000013
private flags = 5000400: [Version5 EABI] [hard-float ABI]

Sections:
Idx Name          Size      VMA       LMA       File off  Algn
  0 .ta_head      00000020  00000000  00000000  00010000  2**3
                  CONTENTS, ALLOC, LOAD, DATA
  1 .text         00006a50  00000020  00000020  00010020  2**3
                  CONTENTS, ALLOC, LOAD, READONLY, CODE
  2 .rodata       00001354  00006a70  00006a70  00016a70  2**2
                  CONTENTS, ALLOC, LOAD, READONLY, DATA
  3 .ARM.extab    000000f0  00007dc4  00007dc4  00017dc4  2**2
                  CONTENTS, ALLOC, LOAD, READONLY, DATA
  4 .ARM.extab.text.__aeabi_ldivmod 0000000c  00007eb4  00007eb4  00017eb4  2**2
                  CONTENTS, ALLOC, LOAD, READONLY, DATA
  5 .ARM.extab.text.__aeabi_uldivmod 0000000c  00007ec0  00007ec0  00017ec0  2**2
                  CONTENTS, ALLOC, LOAD, READONLY, DATA
  6 .ARM.extab.text.utee_panic 0000000c  00007ecc  00007ecc  00017ecc  2**2
                  CONTENTS, ALLOC, LOAD, READONLY, DATA
  7 .ARM.extab.text.unlikely 0000000c  00007ed8  00007ed8  00017ed8  2**2
                  CONTENTS, ALLOC, LOAD, READONLY, DATA
  8 .ARM.exidx    00000588  00007ee4  00007ee4  00017ee4  2**2
                  CONTENTS, ALLOC, LOAD, READONLY, DATA
  9 .got          00000034  0000846c  0000846c  0001846c  2**2
                  CONTENTS, ALLOC, LOAD, DATA
 10 .dynsym       000000d0  00008668  00008668  00018668  2**2
                  CONTENTS, ALLOC, LOAD, READONLY, DATA
 11 .rel.data     00000060  000084a0  000084a0  000184a0  2**2
                  CONTENTS, ALLOC, LOAD, READONLY, DATA
 12 .rel.got      00000050  00008598  00008598  00018598  2**2
                  CONTENTS, ALLOC, LOAD, READONLY, DATA
 13 .dynamic      00000080  000085e8  000085e8  000185e8  2**2
                  CONTENTS, ALLOC, LOAD, DATA
 14 .dynstr       0000009f  00008738  00008738  00018738  2**0
                  CONTENTS, ALLOC, LOAD, READONLY, DATA
 15 .hash         00000048  000087d8  000087d8  000187d8  2**2
                  CONTENTS, ALLOC, LOAD, READONLY, DATA
 16 .data         000000b0  00009000  00009000  00019000  2**2
                  CONTENTS, ALLOC, LOAD, DATA
 17 .bss          00006070  000090b0  000090b0  000190b0  2**2
                  ALLOC
 18 .debug_info   0000fd2c  00000000  00000000  000190b0  2**0
                  CONTENTS, READONLY, DEBUGGING
 19 .debug_abbrev 00002ccf  00000000  00000000  00028ddc  2**0
                  CONTENTS, READONLY, DEBUGGING
 20 .debug_loc    0000ef2f  00000000  00000000  0002baab  2**0
                  CONTENTS, READONLY, DEBUGGING
 21 .debug_aranges 000005d0  00000000  00000000  0003a9e0  2**3
                  CONTENTS, READONLY, DEBUGGING
 22 .debug_ranges 000007f8  00000000  00000000  0003afb0  2**3
                  CONTENTS, READONLY, DEBUGGING
 23 .debug_macro  00013df6  00000000  00000000  0003b7a8  2**0
                  CONTENTS, READONLY, DEBUGGING
 24 .debug_line   000053d2  00000000  00000000  0004f59e  2**0
                  CONTENTS, READONLY, DEBUGGING
 25 .debug_str    00011447  00000000  00000000  00054970  2**0
                  CONTENTS, READONLY, DEBUGGING
 26 .comment      00000024  00000000  00000000  00065db7  2**0
                  CONTENTS, READONLY
 27 .ARM.attributes 00000036  00000000  00000000  00065ddb  2**0
                  CONTENTS, READONLY
 28 .debug_frame  00001c08  00000000  00000000  00065e14  2**2
                  CONTENTS, READONLY, DEBUGGING
 29 .rel.dyn      00000098  00008500  00008500  00018500  2**2
                  CONTENTS, ALLOC, LOAD, READONLY, DATA
SYMBOL TABLE:
00000000 l    d  .ta_head	00000000 .ta_head
00000020 l    d  .text	00000000 .text
00006a70 l    d  .rodata	00000000 .rodata
00007dc4 l    d  .ARM.extab	00000000 .ARM.extab
00007eb4 l    d  .ARM.extab.text.__aeabi_ldivmod	00000000 .ARM.extab.text.__aeabi_ldivmod
00007ec0 l    d  .ARM.extab.text.__aeabi_uldivmod	00000000 .ARM.extab.text.__aeabi_uldivmod
00007ecc l    d  .ARM.extab.text.utee_panic	00000000 .ARM.extab.text.utee_panic
00007ed8 l    d  .ARM.extab.text.unlikely	00000000 .ARM.extab.text.unlikely
00007ee4 l    d  .ARM.exidx	00000000 .ARM.exidx
0000846c l    d  .got	00000000 .got
000084a0 l    d  .rel.data	00000000 .rel.data
00008598 l    d  .rel.got	00000000 .rel.got
000085e8 l    d  .dynamic	00000000 .dynamic
00008668 l    d  .dynsym	00000000 .dynsym
00008738 l    d  .dynstr	00000000 .dynstr
000087d8 l    d  .hash	00000000 .hash
00009000 l    d  .data	00000000 .data
000090b0 l    d  .bss	00000000 .bss
00000000 l    d  .debug_info	00000000 .debug_info
00000000 l    d  .debug_abbrev	00000000 .debug_abbrev
00000000 l    d  .debug_loc	00000000 .debug_loc
00000000 l    d  .debug_aranges	00000000 .debug_aranges
00000000 l    d  .debug_ranges	00000000 .debug_ranges
00000000 l    d  .debug_macro	00000000 .debug_macro
00000000 l    d  .debug_line	00000000 .debug_line
00000000 l    d  .debug_str	00000000 .debug_str
00000000 l    d  .comment	00000000 .comment
00000000 l    d  .ARM.attributes	00000000 .ARM.attributes
00000000 l    d  .debug_frame	00000000 .debug_frame
00008500 l    d  .rel.dyn	00000000 .rel.dyn
00000000 l    df *ABS*	00000000 user_ta_header.c
00006a74 l     O .rodata	00000004 __compound_literal.4
00006a78 l     O .rodata	00000004 __compound_literal.3
00006a7c l     O .rodata	00000001 __compound_literal.2
00006a7d l     O .rodata	00000001 __compound_literal.1
00006a7e l     O .rodata	00000001 __compound_literal.0
00000000 l    df *ABS*	00000000 entry.c
00000020 l     F .text	00000040 check_valid_value
00000060 l     F .text	00000044 get_named_object_name
000000a4 l     F .text	0000009c read_value
00000140 l     F .text	000000b8 write_value
00006d4c l     O .rodata	0000000b __func__.6277
00006d57 l     O .rodata	0000000c __func__.6264
00006d63 l     O .rodata	00000013 __func__.6334
00006d76 l     O .rodata	00000014 __func__.6322
00006d8a l     O .rodata	00000016 __func__.6295
00006da0 l     O .rodata	00000017 __func__.6305
00006db7 l     O .rodata	0000000d __func__.6287
00006dc4 l     O .rodata	0000001b __func__.6367
00006ddf l     O .rodata	00000017 __func__.6310
00000000 l    df *ABS*	00000000 trace.c
00000504 l     F .text	0000004e append
00007160 l     O .rodata	00000005 lvl_strs.5561
00007165 l     O .rodata	0000000a __func__.5615
00000000 l    df *ABS*	00000000 snprintk.c
000071a6 l     O .rodata	00000011 HEXDIGITS
000071b7 l     O .rodata	00000011 hexdigits
00000000 l    df *ABS*	00000000 arm32_aeabi_ldivmod_a32.o
00000000 l    df *ABS*	00000000 trace_ext.c
00000000 l    df *ABS*	00000000 tee_api.c
00007200 l     O .rodata	0000000b __func__.6728
000090b0 l     O .bss	00000004 tee_api_instance_data
00000000 l    df *ABS*	00000000 tee_api_objects.c
00000000 l    df *ABS*	00000000 user_ta_entry.c
00001a58 l     F .text	0000001c ta_header_get_session
00001a74 l     F .text	00000068 ta_header_remove_session
000090b4 l     O .bss	00000001 init_done
0000908c l     O .data	00000008 ta_sessions
00000000 l    df *ABS*	00000000 utee_syscalls_a32.o
00000000 l    df *ABS*	00000000 gprof_a32.o
00000000 l    df *ABS*	00000000 tee_api_arith_mpi.c
0000313c l     F .text	00000020 api_panic
00002128 l     F .text	00000020 mpi_panic
00002148 l     F .text	00000044 get_const_mpi
0000218c l     F .text	00000010 mpi_is_odd
0000219c l     F .text	00000016 rng_read
000021b2 l     F .text	0000001c put_mpi
000021ce l     F .text	0000045a mpi_egcd
00002628 l     F .text	00000024 get_mpi
0000264c l     F .text	00000088 bigint_binary
000090dc l     O .bss	00002000 data.6728
000028da l     F .text	000000ea bigint_binary_mod
0000721c l     O .rodata	0000000e __func__.6757
0000722a l     O .rodata	00000009 __func__.6996
00007233 l     O .rodata	0000000e __func__.6856
00007241 l     O .rodata	00000012 __func__.6729
00007253 l     O .rodata	0000000f __func__.6767
00007262 l     O .rodata	0000001f __func__.6785
00007281 l     O .rodata	00000019 __func__.6792
0000729a l     O .rodata	00000012 __func__.6867
000072ac l     O .rodata	00000015 __func__.6822
000072c1 l     O .rodata	0000000e __func__.6894
000072cf l     O .rodata	0000000e __func__.6922
000072dd l     O .rodata	0000000e __func__.6928
000072eb l     O .rodata	00000011 __func__.6957
000072fc l     O .rodata	00000018 __func__.6973
00007314 l     O .rodata	0000001d __func__.7053
00007331 l     O .rodata	00000019 __func__.7103
0000734a l     O .rodata	00000015 __func__.7117
00000000 l    df *ABS*	00000000 bignum.c
0000315c l     F .text	00000038 mpi_get_digit
00003194 l     F .text	0000005e mpi_sub_hlp
000031f2 l     F .text	00000492 mpi_mul_hlp
00003684 l     F .text	00000048 mbedtls_mpi_mod_int.part.1
00004726 l     F .text	0000006c mpi_write_hlp
000048cc l     F .text	00000050 mpi_check_small_factors
00004fb8 l     F .text	00000216 mpi_miller_rabin
00006a88 l     O .rodata	000002a0 small_prime
00006d28 l     O .rodata	00000024 gcd_pairs
00000000 l    df *ABS*	00000000 bget_malloc.c
0000595c l     F .text	00000030 raw_malloc_return_hook.isra.3
0000598c l     F .text	000000d8 create_free_block.constprop.11
00005b98 l     F .text	00000038 raw_malloc.constprop.15
00007873 l     O .rodata	00000012 __func__.5854
00007885 l     O .rodata	00000005 __func__.5710
0000788a l     O .rodata	00000006 __func__.5725
00007890 l     O .rodata	00000005 __func__.5742
00007895 l     O .rodata	00000006 __func__.5734
0000789b l     O .rodata	00000006 __func__.5751
000078a1 l     O .rodata	00000007 __func__.5761
000078a8 l     O .rodata	0000000d __func__.5890
000078b5 l     O .rodata	0000000c __func__.5864
000078c1 l     O .rodata	0000000b __func__.5875
000078cc l     O .rodata	00000010 __func__.5942
000078dc l     O .rodata	0000000e __func__.5896
000078ea l     O .rodata	00000013 __func__.5802
0000b0e0 l     O .bss	00000038 mstats
0000b118 l     O .bss	00000004 malloc_pool_len
0000b11c l     O .bss	00000004 malloc_pool
00009094 l     O .data	0000001c malloc_poolset
00000000 l    df *ABS*	00000000 mempool.c
00007d05 l     O .rodata	00000013 __func__.5618
00007d18 l     O .rodata	0000000e __func__.5627
00000000 l    df *ABS*	00000000 assert.c
00000000 l    df *ABS*	00000000 memset.c
00000000 l    df *ABS*	00000000 strcmp.c
00000000 l    df *ABS*	00000000 strncmp.c
00000000 l    df *ABS*	00000000 strtoul.c
00000000 l    df *ABS*	00000000 aeabi_unwind.c
00000000 l    df *ABS*	00000000 isalpha.c
00000000 l    df *ABS*	00000000 isspace.c
00000000 l    df *ABS*	00000000 isupper.c
00000000 l    df *ABS*	00000000 memchr.c
00000000 l    df *ABS*	00000000 strlen.c
00000000 l    df *ABS*	00000000 arm32_aeabi_ldivmod.c
00000000 l    df *ABS*	00000000 tee_api_panic.c
00000000 l    df *ABS*	00000000 snprintf.c
00000000 l    df *ABS*	00000000 memcmp.c
00000000 l    df *ABS*	00000000 memcpy.c
00000000 l    df *ABS*	00000000 memmove.c
00000000 l    df *ABS*	00000000 
000085e8 l     O *ABS*	00000000 _DYNAMIC
0000846c l     O *ABS*	00000000 _GLOBAL_OFFSET_TABLE_
00006a30 l     F .text	00000010 __utee_log_from_thumb
00006a40 l     F .text	00000010 __utee_cache_operation_from_thumb
00006a50 l     F .text	00000010 __utee_panic_from_thumb
00006a60 l     F .text	00000010 __utee_check_access_rights_from_thumb
00000fc4 g     F .text	00000022 putchar
00001534 g     F .text	00000070 TEE_PopulateTransientObject
0000304e g     F .text	00000004 TEE_BigIntConvertToFMM
00002d90 g     F .text	00000008 TEE_BigIntSquareMod
000029c4 g     F .text	000000f4 TEE_BigIntShiftRight
00002000 g     F .text	00000018 utee_storage_obj_create
00003764 g     F .text	000000a8 mbedtls_mpi_grow
000068a6 g     F .text	000000ec __l_divmod
00001c80 g     F .text	00000014 utee_return
000012b0 g     F .text	00000004 TEE_Realloc
00000f66 g     F .text	0000003a printf
00001c94 g     F .text	00000014 utee_log
000015a4 g     F .text	00000022 TEE_InitRefAttribute
000010ce g     F .text	00000066 TEE_InvokeTACommand
000036de g     F .text	00000026 mbedtls_mpi_init_mempool
00003bd8 g     F .text	00000046 mbedtls_mpi_write_binary
00000ef4 g     F .text	0000000e vsnprintk
00004062 g     F .text	00000030 mbedtls_mpi_sub_int
000069f6 g     F .text	00000034 memmove
00006996 g     F .text	0000001e snprintf
000028b4 g     F .text	00000026 TEE_BigIntCmpS32
000015c6 g     F .text	00000022 TEE_InitValueAttribute
0000380c g     F .text	000000cc mbedtls_mpi_shrink
000067ce g     F .text	00000002 __aeabi_unwind_cpp_pr0
00002b04 g     F .text	0000001c TEE_BigIntAdd
00001cd4 g     F .text	00000014 utee_get_property_name_to_index
00006a80 g     O .rodata	00000004 ta_heap_size
00001504 g     F .text	00000030 TEE_ResetTransientObject
00001db8 g     F .text	00000018 utee_cryp_state_alloc
00001f88 g     F .text	00000018 utee_authenc_enc_final
0000418c g     F .text	0000012c mbedtls_mpi_read_string
00002b3c g     F .text	00000058 TEE_BigIntNeg
00000020 g       .text	00000000 __text_start
000018a4 g     F .text	0000002c TEE_StartPersistentObjectEnumerator
00003cb6 g     F .text	00000078 mbedtls_mpi_shift_r
000064ec g     F .text	0000004c malloc_buffer_overlaps_heap
00002d58 g     F .text	0000001c TEE_BigIntSubMod
000054fa g     F .text	00000136 mbedtls_mpi_gen_prime
00003a86 g     F .text	00000020 mbedtls_mpi_get_bit
00003b72 g     F .text	00000066 mbedtls_mpi_read_binary
00000584 g     F .text	0000013c trace_printf
00004944 g     F .text	000000c4 mbedtls_mpi_montmul
000069e0 g     F .text	00000016 memcpy
00001de4 g     F .text	00000014 utee_cryp_state_free
00003052 g     F .text	0000004a TEE_BigIntConvertFromFMM
00006992 g     F .text	00000004 TEE_Panic
00000f34 g     F .text	00000018 __aeabi_uldivmod
00000fa0 g     F .text	00000024 puts
0000309c g     F .text	000000a0 TEE_BigIntComputeFMM
00005fb4 g     F .text	00000020 malloc_get_stats
00001e64 g     F .text	00000018 utee_cipher_final
00001250 g     F .text	00000016 TEE_GetREETime
00001844 g     F .text	00000038 TEE_AllocatePersistentObjectEnumerator
00009034 g     O .data	00000054 ta_props
00005fd4 g     F .text	00000002 malloc
00001ecc g     F .text	00000014 utee_cryp_obj_close
00001680 g     F .text	00000048 TEE_GenerateKey
000069b4 g     F .text	0000000e vsnprintf
00009030 g     O .data	00000004 trace_level
00002880 g     F .text	00000034 TEE_BigIntCmp
00006a70 g     O .rodata	00000004 ta_num_props
000067ca g     F .text	00000004 strtoul
00005e24 g     F .text	0000007c bgetr
00001f70 g     F .text	00000018 utee_authenc_update_payload
0000660c g     F .text	0000002e mempool_free
00002798 g     F .text	00000058 TEE_BigIntConvertToOctetString
00002108 g     F .text	00000014 utee_cache_operation
00003b24 g     F .text	00000042 mbedtls_mpi_bitlen
00001f44 g     F .text	00000018 utee_authenc_init
00002ab8 g     F .text	0000002a TEE_BigIntGetBit
00006a84 g     O .rodata	00000003 trace_ext_prefix
00005bd0 g     F .text	0000005c bgetz
000011a0 g     F .text	0000000c TEE_GetInstanceData
000011ce g     F .text	0000001e TEE_Wait
000067ee g     F .text	0000000a isspace
000020b8 g     F .text	00000014 utee_storage_obj_write
00004092 g     F .text	000000dc mbedtls_mpi_mul_mpi
000067d2 g     F .text	00000002 __aeabi_unwind_cpp_pr2
000012be g     F .text	00000006 TEE_CacheFlush
000001fc g     F .text	00000002 TA_DestroyEntryPoint
000036cc g     F .text	00000012 mbedtls_mpi_init
00003af6 g     F .text	0000002e mbedtls_mpi_lsb
0000663c g     F .text	00000028 _assert_log
0000304a g     F .text	00000004 TEE_BigIntFMMContextSizeInU32
000017fe g     F .text	00000046 TEE_RenamePersistentObject
000026d4 g     F .text	00000044 _TEE_MathAPI_Init
00003f9e g     F .text	00000048 mbedtls_mpi_add_mpi
00002090 g     F .text	00000014 utee_storage_next_enum
0000b120 g     O .bss	00004000 ta_heap
00002d98 g     F .text	000000a4 TEE_BigIntInvMod
00000202 g     F .text	00000002 TA_CloseSessionEntryPoint
000016c8 g     F .text	00000064 TEE_OpenPersistentObject
00003fe6 g     F .text	0000004c mbedtls_mpi_sub_mpi
00001ca8 g     F .text	00000014 __utee_panic
00001dd0 g     F .text	00000014 utee_cryp_state_copy
00000204 g     F .text	00000300 TA_InvokeCommandEntryPoint
0000657c g     F .text	0000006c mempool_alloc
00001eb8 g     F .text	00000014 utee_cryp_obj_alloc
00001da4 g     F .text	00000014 utee_set_ta_time
00001ea4 g     F .text	00000014 utee_cryp_obj_get_attr
000065e8 g     F .text	00000024 mempool_calloc
00001650 g     F .text	00000030 TEE_CopyObjectAttributes
00005fe8 g     F .text	00000048 calloc
00001266 g     F .text	0000004a TEE_Malloc
00001d68 g     F .text	00000014 utee_mask_cancellation
00001ee0 g     F .text	00000014 utee_cryp_obj_reset
00001188 g     F .text	0000000a TEE_CheckMemoryAccessRights
0000f120 g       .bss	00000000 __gprof_buf_end
00006832 g     F .text	00000074 __ul_divmod
00003a4e g     F .text	00000038 mbedtls_mpi_lset
00001924 g     F .text	00000040 TEE_ReadObjectData
0000139c g     F .text	00000070 TEE_GetObjectBufferAttribute
000001fe g     F .text	00000004 TA_OpenSessionEntryPoint
0000207c g     F .text	00000014 utee_storage_start_enum
0000202c g     F .text	00000014 utee_storage_obj_rename
000090b8 g     O .bss	00000004 ta_param_types
0000465a g     F .text	0000002e mbedtls_mpi_div_int
000012cc g     F .text	0000003a __utee_from_attr
0000300c g     F .text	00000030 TEE_BigIntIsProbablePrime
0000416e g     F .text	0000001e mbedtls_mpi_mul_int
000017c4 g     F .text	00000024 TEE_CloseAndDeletePersistentObject1
00004a2c g     F .text	00000446 mbedtls_mpi_exp_mod
0000395c g     F .text	0000006c mbedtls_mpi_safe_cond_assign
00001cbc g     F .text	00000018 utee_get_property
00002718 g     F .text	00000040 TEE_BigIntInit
000011ac g     F .text	00000004 TEE_MemMove
00002758 g     F .text	00000040 TEE_BigIntConvertFromOctetString
00009088 g     O .data	00000004 _ref__utee_mcount
00003d2e g     F .text	0000006e mbedtls_mpi_cmp_abs
00006806 g     F .text	0000001c memchr
00001150 g     F .text	0000001c TEE_UnmaskCancellation
00001306 g     F .text	0000002a TEE_GetObjectInfo
00005630 g     F .text	0000032c mbedtls_mpi_self_test
00002018 g     F .text	00000014 utee_storage_obj_del
000020e0 g     F .text	00000014 utee_storage_obj_seek
000014d4 g     F .text	00000030 TEE_FreeTransientObject
00003e32 g     F .text	00000030 mbedtls_mpi_cmp_int
00001e0c g     F .text	00000014 utee_hash_update
0000211c  w    F .text	0000000c __utee_mcount
00002cec g     F .text	00000050 TEE_BigIntMod
000046ec g     F .text	0000003a mbedtls_mpi_mod_int
00001d00 g     F .text	00000014 utee_close_ta_session
00002c3e g     F .text	000000ae TEE_BigIntDiv
000067f8 g     F .text	0000000e isupper
000066a2 g     F .text	00000024 strncmp
000038d8 g     F .text	00000056 mbedtls_mpi_copy
00005fa0 g     F .text	00000014 malloc_reset_stats
00001e4c g     F .text	00000018 utee_cipher_update
00001350 g     F .text	00000020 TEE_RestrictObjectUsage1
00006030 g     F .text	00000038 realloc
0000392e g     F .text	0000002e mbedtls_mpi_swap
00006538 g     F .text	00000044 mempool_alloc_pool
00001fd0 g     F .text	00000018 utee_asymm_verify
00002b94 g     F .text	000000a4 TEE_BigIntMul
00003c1e g     F .text	00000098 mbedtls_mpi_shift_l
00003d9c g     F .text	00000096 mbedtls_mpi_cmp_mpi
000011b4 g     F .text	00000004 TEE_MemFill
000069c2 g     F .text	0000001e memcmp
00006318 g     F .text	000000f8 malloc_add_pool
00000570 g     F .text	00000014 trace_get_level
00003e62 g     F .text	000000bc mbedtls_mpi_add_abs
00001f30 g     F .text	00000014 utee_cryp_random_number_generate
00001370 g     F .text	0000002c TEE_RestrictObjectUsage
00003042 g     F .text	00000008 TEE_BigIntFMMSizeInU32
000067d4 g     F .text	0000001a isalpha
0000303c g     F .text	00000004 TEE_BigIntInitFMM
00001fb8 g     F .text	00000018 utee_asymm_operate
00001490 g     F .text	00000014 TEE_CloseObject
00001adc g     F .text	00000190 __utee_entry
00006a70 g       .text	00000000 __text_end
00002e3c g     F .text	0000007c TEE_BigIntRelativePrime
00004688 g     F .text	00000064 mbedtls_mpi_mod_mpi
00005ea0 g     F .text	0000009c bpool
00001134 g     F .text	0000001c TEE_GetCancellationFlag
00004e72 g     F .text	00000114 mbedtls_mpi_gcd
00001228 g     F .text	00000028 TEE_SetTAPersistentTime
00006678 g     F .text	00000010 memset
000011ec g     F .text	0000003c TEE_GetTAPersistentTime
000006c0 g     F .text	00000100 dhex_dump
0000172c g     F .text	00000098 TEE_CreatePersistentObject
0000116c g     F .text	0000001c TEE_MaskCancellation
000020a4 g     F .text	00000014 utee_storage_obj_read
000019a4 g     F .text	00000038 TEE_TruncateObjectData
00001ef4 g     F .text	00000014 utee_cryp_obj_populate
00001330 g     F .text	00000020 TEE_GetObjectInfo1
00000552 g     F .text	0000001e trace_set_level
00001e7c g     F .text	00000014 utee_cryp_obj_get_info
0000140c g     F .text	00000084 TEE_GetObjectValueAttribute
00002040 g     F .text	00000014 utee_storage_alloc_enum
00002068 g     F .text	00000014 utee_storage_reset_enum
000020cc g     F .text	00000014 utee_storage_obj_trunc
00006688 g     F .text	0000001a strcmp
00002828 g     F .text	00000058 TEE_BigIntConvertToS32
00002b20 g     F .text	0000001c TEE_BigIntSub
00001d2c g     F .text	00000014 utee_get_cancellation_flag
00001df8 g     F .text	00000014 utee_hash_init
00006674 g     F .text	00000004 tahead_get_trace_level
00000fe8 g     F .text	00000050 __utee_from_param
000019dc g     F .text	0000007c TEE_SeekObjectData
00001038 g     F .text	0000003e __utee_to_param
00004a08 g     F .text	00000024 mbedtls_mpi_montred
00006068 g     F .text	000002b0 memalign
000027f0 g     F .text	00000038 TEE_BigIntConvertFromS32
00004032 g     F .text	00000030 mbedtls_mpi_add_int
00001e90 g     F .text	00000014 utee_cryp_obj_restrict_usage
00006410 g     F .text	000000dc malloc_buffer_is_within_alloced
00001f08 g     F .text	00000014 utee_cryp_obj_copy
00003040 g     F .text	00000002 TEE_BigIntInitFMMContext
00001f1c g     F .text	00000014 utee_cryp_derive_key
00001fa0 g     F .text	00000018 utee_authenc_dec_final
00001964 g     F .text	00000040 TEE_WriteObjectData
00001890 g     F .text	00000014 TEE_ResetPersistentObjectEnumerator
00002c38 g     F .text	00000006 TEE_BigIntSquare
000001f8 g     F .text	00000004 TA_CreateEntryPoint
0000491c g     F .text	00000028 mbedtls_mpi_montg_init
00000f02 g     F .text	0000001a snprintk
00002ae2 g     F .text	00000022 TEE_BigIntGetBitCount
00002d74 g     F .text	0000001c TEE_BigIntMulMod
000051ce g     F .text	000002d0 mbedtls_mpi_inv_mod
000090bc g     O .bss	00000020 ta_params
000042b8 g     F .text	000003a2 mbedtls_mpi_div_mpi
00003b66 g     F .text	0000000c mbedtls_mpi_size
00005a64 g     F .text	00000134 bget
000014a4 g     F .text	00000030 TEE_AllocateTransientObject
00003aa6 g     F .text	00000050 mbedtls_mpi_set_bit
00003704 g     F .text	00000012 mbedtls_mpi_init_static
000012b4 g     F .text	00000004 TEE_Free
0000549e g     F .text	0000005c mbedtls_mpi_is_prime
000012c4 g     F .text	00000006 TEE_CacheInvalidate
00001e38 g     F .text	00000014 utee_cipher_init
00006664 g     F .text	00000010 _assert_break
00002d3c g     F .text	0000001c TEE_BigIntAddMod
00002054 g     F .text	00000014 utee_storage_free_enum
00001f5c g     F .text	00000014 utee_authenc_update_aad
000066c6 g     F .text	00000104 _strtoul
000011b0 g     F .text	00000004 TEE_MemCompare
000007c0 g     F .text	00000734 __vsnprintf
0000187c g     F .text	00000014 TEE_FreePersistentObjectEnumerator
00001c6c g     F .text	00000014 utee_panic
00001076 g     F .text	00000044 TEE_OpenTASession
00000f4c g     F .text	00000014 trace_ext_puts
00000f60 g     F .text	00000006 trace_ext_get_thread_id
000017e8 g     F .text	00000016 TEE_CloseAndDeletePersistentObject
00003716 g     F .text	0000004e mbedtls_mpi_free
000012b8 g     F .text	00000006 TEE_CacheClean
00001ce8 g     F .text	00000018 utee_open_ta_session
000039c8 g     F .text	00000086 mbedtls_mpi_safe_cond_swap
000015e8 g     F .text	00000068 TEE_CopyObjectAttributes1
00001e20 g     F .text	00000018 utee_hash_final
00006822 g     F .text	00000010 strlen
00002eb8 g     F .text	00000154 TEE_BigIntComputeExtendedGcd
000067d0 g     F .text	00000002 __aeabi_unwind_cpp_pr1
00001fe8 g     F .text	00000018 utee_storage_obj_open
00001d14 g     F .text	00000018 utee_invoke_ta_command
00001d7c g     F .text	00000014 utee_wait
000011b8 g     F .text	00000016 TEE_GetSystemTime
00000000 g     O .ta_head	00000020 ta_head
00005c2c g     F .text	000001f8 brel
00003f1e g     F .text	00000080 mbedtls_mpi_sub_abs
00001d90 g     F .text	00000014 utee_get_time
00004f86 g     F .text	00000032 mbedtls_mpi_fill_random
00001192 g     F .text	0000000e TEE_SetInstanceData
00001d54 g     F .text	00000014 utee_unmask_cancellation
00000f1c g     F .text	00000018 __aeabi_ldivmod
00001d40 g     F .text	00000014 utee_check_access_rights
00004792 g     F .text	0000013a mbedtls_mpi_write_string
000018d0 g     F .text	00000054 TEE_GetNextPersistentObject
000020f4 g     F .text	00000014 utee_cryp_obj_generate_key
000010ba g     F .text	00000014 TEE_CloseTASession
0000f120 g       .bss	00000000 __gprof_buf_start
00005fd6 g     F .text	00000012 free
00005f3c g     F .text	00000064 bstats
0000b0dc g     O .bss	00000004 mbedtls_mpi_mempool



Disassembly of section .text:

00000020 <check_valid_value>:
check_valid_value():
/workspace/benchmark/optee-fiovb/ta/entry.c:47
      20:	b570      	push	{r4, r5, r6, lr}
      22:	4606      	mov	r6, r0
/workspace/benchmark/optee-fiovb/ta/entry.c:48
      24:	4d0d      	ldr	r5, [pc, #52]	; (5c <check_valid_value+0x3c>)
/workspace/benchmark/optee-fiovb/ta/entry.c:47
      26:	b08c      	sub	sp, #48	; 0x30
/workspace/benchmark/optee-fiovb/ta/entry.c:48
      28:	447d      	add	r5, pc
      2a:	466c      	mov	r4, sp
      2c:	cd0f      	ldmia	r5!, {r0, r1, r2, r3}
      2e:	c40f      	stmia	r4!, {r0, r1, r2, r3}
      30:	cd0f      	ldmia	r5!, {r0, r1, r2, r3}
      32:	c40f      	stmia	r4!, {r0, r1, r2, r3}
      34:	e895 000f 	ldmia.w	r5, {r0, r1, r2, r3}
      38:	e884 000f 	stmia.w	r4, {r0, r1, r2, r3}
      3c:	466d      	mov	r5, sp
/workspace/benchmark/optee-fiovb/ta/entry.c:57
      3e:	2400      	movs	r4, #0
/workspace/benchmark/optee-fiovb/ta/entry.c:58
      40:	f855 1024 	ldr.w	r1, [r5, r4, lsl #2]
      44:	4630      	mov	r0, r6
      46:	f006 fb1f 	bl	6688 <strcmp>
      4a:	b118      	cbz	r0, 54 <check_valid_value+0x34>
/workspace/benchmark/optee-fiovb/ta/entry.c:57 (discriminator 2)
      4c:	3401      	adds	r4, #1
      4e:	2c0c      	cmp	r4, #12
      50:	d1f6      	bne.n	40 <check_valid_value+0x20>
/workspace/benchmark/optee-fiovb/ta/entry.c:62
      52:	4801      	ldr	r0, [pc, #4]	; (58 <check_valid_value+0x38>)
/workspace/benchmark/optee-fiovb/ta/entry.c:63
      54:	b00c      	add	sp, #48	; 0x30
      56:	bd70      	pop	{r4, r5, r6, pc}
      58:	ffff0008 	.word	0xffff0008
      5c:	00008fd4 	.word	0x00008fd4

00000060 <get_named_object_name>:
get_named_object_name():
/workspace/benchmark/optee-fiovb/ta/entry.c:28
      60:	e92d 41f0 	stmdb	sp!, {r4, r5, r6, r7, r8, lr}
/workspace/benchmark/optee-fiovb/ta/entry.c:31
      64:	f101 040c 	add.w	r4, r1, #12
/workspace/benchmark/optee-fiovb/ta/entry.c:28
      68:	4680      	mov	r8, r0
      6a:	460e      	mov	r6, r1
      6c:	4615      	mov	r5, r2
      6e:	461f      	mov	r7, r3
/workspace/benchmark/optee-fiovb/ta/entry.c:31
      70:	2c40      	cmp	r4, #64	; 0x40
      72:	d80f      	bhi.n	94 <get_named_object_name+0x34>
/workspace/benchmark/optee-fiovb/ta/entry.c:36
      74:	490a      	ldr	r1, [pc, #40]	; (a0 <get_named_object_name+0x40>)
      76:	220c      	movs	r2, #12
      78:	4628      	mov	r0, r5
      7a:	4479      	add	r1, pc
      7c:	f001 f896 	bl	11ac <TEE_MemMove>
/workspace/benchmark/optee-fiovb/ta/entry.c:39
      80:	4632      	mov	r2, r6
      82:	4641      	mov	r1, r8
      84:	f105 000c 	add.w	r0, r5, #12
      88:	f001 f890 	bl	11ac <TEE_MemMove>
/workspace/benchmark/optee-fiovb/ta/entry.c:41
      8c:	603c      	str	r4, [r7, #0]
/workspace/benchmark/optee-fiovb/ta/entry.c:43
      8e:	2000      	movs	r0, #0
      90:	e8bd 81f0 	ldmia.w	sp!, {r4, r5, r6, r7, r8, pc}
/workspace/benchmark/optee-fiovb/ta/entry.c:33
      94:	4801      	ldr	r0, [pc, #4]	; (9c <get_named_object_name+0x3c>)
/workspace/benchmark/optee-fiovb/ta/entry.c:44
      96:	e8bd 81f0 	ldmia.w	sp!, {r4, r5, r6, r7, r8, pc}
      9a:	bf00      	nop
      9c:	ffff0006 	.word	0xffff0006
      a0:	00006d78 	.word	0x00006d78

000000a4 <read_value>:
read_value():
/workspace/benchmark/optee-fiovb/ta/entry.c:108
      a4:	e92d 41f0 	stmdb	sp!, {r4, r5, r6, r7, r8, lr}
      a8:	4698      	mov	r8, r3
      aa:	4617      	mov	r7, r2
      ac:	b096      	sub	sp, #88	; 0x58
/workspace/benchmark/optee-fiovb/ta/entry.c:109
      ae:	2200      	movs	r2, #0
/workspace/benchmark/optee-fiovb/ta/entry.c:114
      b0:	ab16      	add	r3, sp, #88	; 0x58
/workspace/benchmark/optee-fiovb/ta/entry.c:116
      b2:	ae06      	add	r6, sp, #24
/workspace/benchmark/optee-fiovb/ta/entry.c:108
      b4:	4605      	mov	r5, r0
/workspace/benchmark/optee-fiovb/ta/entry.c:109
      b6:	9204      	str	r2, [sp, #16]
/workspace/benchmark/optee-fiovb/ta/entry.c:114
      b8:	f843 2d44 	str.w	r2, [r3, #-68]!
/workspace/benchmark/optee-fiovb/ta/entry.c:116
      bc:	4632      	mov	r2, r6
      be:	f7ff ffcf 	bl	60 <get_named_object_name>
/workspace/benchmark/optee-fiovb/ta/entry.c:118
      c2:	4604      	mov	r4, r0
      c4:	b9a8      	cbnz	r0, f2 <read_value+0x4e>
/workspace/benchmark/optee-fiovb/ta/entry.c:121
      c6:	ab04      	add	r3, sp, #16
      c8:	9a05      	ldr	r2, [sp, #20]
      ca:	9300      	str	r3, [sp, #0]
      cc:	4631      	mov	r1, r6
      ce:	2303      	movs	r3, #3
      d0:	4816      	ldr	r0, [pc, #88]	; (12c <read_value+0x88>)
      d2:	f001 faf9 	bl	16c8 <TEE_OpenPersistentObject>
/workspace/benchmark/optee-fiovb/ta/entry.c:123
      d6:	4604      	mov	r4, r0
      d8:	b178      	cbz	r0, fa <read_value+0x56>
/workspace/benchmark/optee-fiovb/ta/entry.c:124
      da:	9002      	str	r0, [sp, #8]
      dc:	2203      	movs	r2, #3
      de:	4b14      	ldr	r3, [pc, #80]	; (130 <read_value+0x8c>)
      e0:	217c      	movs	r1, #124	; 0x7c
      e2:	4814      	ldr	r0, [pc, #80]	; (134 <read_value+0x90>)
      e4:	447b      	add	r3, pc
      e6:	9501      	str	r5, [sp, #4]
      e8:	9300      	str	r3, [sp, #0]
      ea:	4478      	add	r0, pc
      ec:	2301      	movs	r3, #1
      ee:	f000 fa49 	bl	584 <trace_printf>
/workspace/benchmark/optee-fiovb/ta/entry.c:136
      f2:	4620      	mov	r0, r4
      f4:	b016      	add	sp, #88	; 0x58
      f6:	e8bd 81f0 	ldmia.w	sp!, {r4, r5, r6, r7, r8, pc}
/workspace/benchmark/optee-fiovb/ta/entry.c:128
      fa:	9b1c      	ldr	r3, [sp, #112]	; 0x70
      fc:	4642      	mov	r2, r8
      fe:	4639      	mov	r1, r7
     100:	9804      	ldr	r0, [sp, #16]
     102:	f001 fc0f 	bl	1924 <TEE_ReadObjectData>
/workspace/benchmark/optee-fiovb/ta/entry.c:129
     106:	4604      	mov	r4, r0
     108:	b158      	cbz	r0, 122 <read_value+0x7e>
/workspace/benchmark/optee-fiovb/ta/entry.c:130
     10a:	4b0b      	ldr	r3, [pc, #44]	; (138 <read_value+0x94>)
     10c:	2182      	movs	r1, #130	; 0x82
     10e:	9002      	str	r0, [sp, #8]
     110:	480a      	ldr	r0, [pc, #40]	; (13c <read_value+0x98>)
     112:	447b      	add	r3, pc
     114:	9300      	str	r3, [sp, #0]
     116:	2301      	movs	r3, #1
     118:	9501      	str	r5, [sp, #4]
     11a:	461a      	mov	r2, r3
     11c:	4478      	add	r0, pc
     11e:	f000 fa31 	bl	584 <trace_printf>
/workspace/benchmark/optee-fiovb/ta/entry.c:133
     122:	9804      	ldr	r0, [sp, #16]
     124:	f001 f9b4 	bl	1490 <TEE_CloseObject>
/workspace/benchmark/optee-fiovb/ta/entry.c:135
     128:	e7e3      	b.n	f2 <read_value+0x4e>
     12a:	bf00      	nop
     12c:	80000100 	.word	0x80000100
     130:	00006d1b 	.word	0x00006d1b
     134:	00006c5e 	.word	0x00006c5e
     138:	00006d1c 	.word	0x00006d1c
     13c:	00006c2c 	.word	0x00006c2c

00000140 <write_value>:
write_value():
/workspace/benchmark/optee-fiovb/ta/entry.c:68
     140:	e92d 47f0 	stmdb	sp!, {r4, r5, r6, r7, r8, r9, sl, lr}
/workspace/benchmark/optee-fiovb/ta/entry.c:69
     144:	2400      	movs	r4, #0
/workspace/benchmark/optee-fiovb/ta/entry.c:68
     146:	4605      	mov	r5, r0
     148:	b096      	sub	sp, #88	; 0x58
     14a:	468a      	mov	sl, r1
/workspace/benchmark/optee-fiovb/ta/entry.c:71
     14c:	ae06      	add	r6, sp, #24
     14e:	4621      	mov	r1, r4
/workspace/benchmark/optee-fiovb/ta/entry.c:68
     150:	4690      	mov	r8, r2
/workspace/benchmark/optee-fiovb/ta/entry.c:71
     152:	4630      	mov	r0, r6
     154:	2240      	movs	r2, #64	; 0x40
/workspace/benchmark/optee-fiovb/ta/entry.c:68
     156:	4699      	mov	r9, r3
/workspace/benchmark/optee-fiovb/ta/entry.c:69
     158:	9404      	str	r4, [sp, #16]
/workspace/benchmark/optee-fiovb/ta/entry.c:71
     15a:	f006 fa8d 	bl	6678 <memset>
/workspace/benchmark/optee-fiovb/ta/entry.c:72
     15e:	ab16      	add	r3, sp, #88	; 0x58
/workspace/benchmark/optee-fiovb/ta/entry.c:81
     160:	f89d 2078 	ldrb.w	r2, [sp, #120]	; 0x78
/workspace/benchmark/optee-fiovb/ta/entry.c:84
     164:	4651      	mov	r1, sl
     166:	4628      	mov	r0, r5
/workspace/benchmark/optee-fiovb/ta/entry.c:81
     168:	42a2      	cmp	r2, r4
/workspace/benchmark/optee-fiovb/ta/entry.c:84
     16a:	4632      	mov	r2, r6
/workspace/benchmark/optee-fiovb/ta/entry.c:72
     16c:	f843 4d44 	str.w	r4, [r3, #-68]!
/workspace/benchmark/optee-fiovb/ta/entry.c:81
     170:	f240 4703 	movw	r7, #1027	; 0x403
     174:	bf08      	it	eq
     176:	2701      	moveq	r7, #1
/workspace/benchmark/optee-fiovb/ta/entry.c:84
     178:	f7ff ff72 	bl	60 <get_named_object_name>
/workspace/benchmark/optee-fiovb/ta/entry.c:86
     17c:	4604      	mov	r4, r0
     17e:	b9e8      	cbnz	r0, 1bc <write_value+0x7c>
/workspace/benchmark/optee-fiovb/ta/entry.c:89
     180:	ab04      	add	r3, sp, #16
     182:	e88d 0310 	stmia.w	sp, {r4, r8, r9}
     186:	9a05      	ldr	r2, [sp, #20]
     188:	9303      	str	r3, [sp, #12]
     18a:	4631      	mov	r1, r6
     18c:	463b      	mov	r3, r7
     18e:	4814      	ldr	r0, [pc, #80]	; (1e0 <write_value+0xa0>)
     190:	f001 facc 	bl	172c <TEE_CreatePersistentObject>
/workspace/benchmark/optee-fiovb/ta/entry.c:93
     194:	4b13      	ldr	r3, [pc, #76]	; (1e4 <write_value+0xa4>)
/workspace/benchmark/optee-fiovb/ta/entry.c:89
     196:	4604      	mov	r4, r0
/workspace/benchmark/optee-fiovb/ta/entry.c:93
     198:	4298      	cmp	r0, r3
     19a:	d113      	bne.n	1c4 <write_value+0x84>
/workspace/benchmark/optee-fiovb/ta/entry.c:94
     19c:	4b12      	ldr	r3, [pc, #72]	; (1e8 <write_value+0xa8>)
     19e:	215f      	movs	r1, #95	; 0x5f
     1a0:	9002      	str	r0, [sp, #8]
     1a2:	4812      	ldr	r0, [pc, #72]	; (1ec <write_value+0xac>)
     1a4:	447b      	add	r3, pc
     1a6:	9300      	str	r3, [sp, #0]
     1a8:	2301      	movs	r3, #1
     1aa:	461a      	mov	r2, r3
     1ac:	4478      	add	r0, pc
     1ae:	9501      	str	r5, [sp, #4]
/workspace/benchmark/optee-fiovb/ta/entry.c:97
     1b0:	300b      	adds	r0, #11
     1b2:	f000 f9e7 	bl	584 <trace_printf>
/workspace/benchmark/optee-fiovb/ta/entry.c:100
     1b6:	9804      	ldr	r0, [sp, #16]
     1b8:	f001 f96a 	bl	1490 <TEE_CloseObject>
/workspace/benchmark/optee-fiovb/ta/entry.c:103
     1bc:	4620      	mov	r0, r4
     1be:	b016      	add	sp, #88	; 0x58
     1c0:	e8bd 87f0 	ldmia.w	sp!, {r4, r5, r6, r7, r8, r9, sl, pc}
/workspace/benchmark/optee-fiovb/ta/entry.c:96
     1c4:	2800      	cmp	r0, #0
     1c6:	d0f6      	beq.n	1b6 <write_value+0x76>
/workspace/benchmark/optee-fiovb/ta/entry.c:97
     1c8:	4b09      	ldr	r3, [pc, #36]	; (1f0 <write_value+0xb0>)
     1ca:	2162      	movs	r1, #98	; 0x62
     1cc:	9002      	str	r0, [sp, #8]
     1ce:	4809      	ldr	r0, [pc, #36]	; (1f4 <write_value+0xb4>)
     1d0:	447b      	add	r3, pc
     1d2:	9300      	str	r3, [sp, #0]
     1d4:	2301      	movs	r3, #1
     1d6:	9501      	str	r5, [sp, #4]
     1d8:	461a      	mov	r2, r3
     1da:	4478      	add	r0, pc
     1dc:	e7e8      	b.n	1b0 <write_value+0x70>
     1de:	bf00      	nop
     1e0:	80000100 	.word	0x80000100
     1e4:	ffff0003 	.word	0xffff0003
     1e8:	00006cb9 	.word	0x00006cb9
     1ec:	00006b9c 	.word	0x00006b9c
     1f0:	00006cbe 	.word	0x00006cbe
     1f4:	00006b6e 	.word	0x00006b6e

000001f8 <TA_CreateEntryPoint>:
TA_CreateEntryPoint():
/workspace/benchmark/optee-fiovb/ta/entry.c:367
     1f8:	2000      	movs	r0, #0
     1fa:	4770      	bx	lr

000001fc <TA_DestroyEntryPoint>:
TA_DestroyEntryPoint():
/workspace/benchmark/optee-fiovb/ta/entry.c:370
     1fc:	4770      	bx	lr

000001fe <TA_OpenSessionEntryPoint>:
TA_OpenSessionEntryPoint():
/workspace/benchmark/optee-fiovb/ta/entry.c:378
     1fe:	2000      	movs	r0, #0
     200:	4770      	bx	lr

00000202 <TA_CloseSessionEntryPoint>:
TA_CloseSessionEntryPoint():
/workspace/benchmark/optee-fiovb/ta/entry.c:381
     202:	4770      	bx	lr

00000204 <TA_InvokeCommandEntryPoint>:
TA_InvokeCommandEntryPoint():
/workspace/benchmark/optee-fiovb/ta/entry.c:387
     204:	e92d 4ff0 	stmdb	sp!, {r4, r5, r6, r7, r8, r9, sl, fp, lr}
/workspace/benchmark/optee-fiovb/ta/entry.c:388
     208:	2901      	cmp	r1, #1
/workspace/benchmark/optee-fiovb/ta/entry.c:387
     20a:	460c      	mov	r4, r1
     20c:	b099      	sub	sp, #100	; 0x64
     20e:	4615      	mov	r5, r2
     210:	461e      	mov	r6, r3
/workspace/benchmark/optee-fiovb/ta/entry.c:388
     212:	d04c      	beq.n	2ae <TA_InvokeCommandEntryPoint+0xaa>
     214:	d311      	bcc.n	23a <TA_InvokeCommandEntryPoint+0x36>
     216:	2902      	cmp	r1, #2
     218:	f000 80f2 	beq.w	400 <TA_InvokeCommandEntryPoint+0x1fc>
/workspace/benchmark/optee-fiovb/ta/entry.c:396
     21c:	4ba5      	ldr	r3, [pc, #660]	; (4b4 <TA_InvokeCommandEntryPoint+0x2b0>)
     21e:	48a6      	ldr	r0, [pc, #664]	; (4b8 <TA_InvokeCommandEntryPoint+0x2b4>)
     220:	447b      	add	r3, pc
     222:	9300      	str	r3, [sp, #0]
     224:	4478      	add	r0, pc
     226:	2301      	movs	r3, #1
     228:	9101      	str	r1, [sp, #4]
     22a:	461a      	mov	r2, r3
     22c:	f44f 71c6 	mov.w	r1, #396	; 0x18c
     230:	3078      	adds	r0, #120	; 0x78
     232:	f000 f9a7 	bl	584 <trace_printf>
/workspace/benchmark/optee-fiovb/ta/entry.c:397
     236:	4c99      	ldr	r4, [pc, #612]	; (49c <TA_InvokeCommandEntryPoint+0x298>)
     238:	e035      	b.n	2a6 <TA_InvokeCommandEntryPoint+0xa2>
read_persist_value():
/workspace/benchmark/optee-fiovb/ta/entry.c:306
     23a:	2300      	movs	r3, #0
/workspace/benchmark/optee-fiovb/ta/entry.c:308
     23c:	2a75      	cmp	r2, #117	; 0x75
/workspace/benchmark/optee-fiovb/ta/entry.c:306
     23e:	9308      	str	r3, [sp, #32]
/workspace/benchmark/optee-fiovb/ta/entry.c:308
     240:	d112      	bne.n	268 <TA_InvokeCommandEntryPoint+0x64>
/workspace/benchmark/optee-fiovb/ta/entry.c:311
     242:	6834      	ldr	r4, [r6, #0]
/workspace/benchmark/optee-fiovb/ta/entry.c:314
     244:	4620      	mov	r0, r4
     246:	f7ff feeb 	bl	20 <check_valid_value>
     24a:	4601      	mov	r1, r0
     24c:	b170      	cbz	r0, 26c <TA_InvokeCommandEntryPoint+0x68>
/workspace/benchmark/optee-fiovb/ta/entry.c:315
     24e:	4b9b      	ldr	r3, [pc, #620]	; (4bc <TA_InvokeCommandEntryPoint+0x2b8>)
     250:	f240 113b 	movw	r1, #315	; 0x13b
     254:	489a      	ldr	r0, [pc, #616]	; (4c0 <TA_InvokeCommandEntryPoint+0x2bc>)
     256:	447b      	add	r3, pc
     258:	9300      	str	r3, [sp, #0]
     25a:	4478      	add	r0, pc
     25c:	2301      	movs	r3, #1
     25e:	461a      	mov	r2, r3
     260:	3017      	adds	r0, #23
     262:	9401      	str	r4, [sp, #4]
write_persist_value():
/workspace/benchmark/optee-fiovb/ta/entry.c:247
     264:	f000 f98e 	bl	584 <trace_printf>
/workspace/benchmark/optee-fiovb/ta/entry.c:241
     268:	4c8d      	ldr	r4, [pc, #564]	; (4a0 <TA_InvokeCommandEntryPoint+0x29c>)
     26a:	e01c      	b.n	2a6 <TA_InvokeCommandEntryPoint+0xa2>
read_persist_value():
/workspace/benchmark/optee-fiovb/ta/entry.c:319
     26c:	68f7      	ldr	r7, [r6, #12]
/workspace/benchmark/optee-fiovb/ta/entry.c:312
     26e:	f8d6 8004 	ldr.w	r8, [r6, #4]
/workspace/benchmark/optee-fiovb/ta/entry.c:320
     272:	4638      	mov	r0, r7
     274:	f000 fff7 	bl	1266 <TEE_Malloc>
/workspace/benchmark/optee-fiovb/ta/entry.c:321
     278:	4605      	mov	r5, r0
     27a:	2800      	cmp	r0, #0
     27c:	f000 810a 	beq.w	494 <TA_InvokeCommandEntryPoint+0x290>
/workspace/benchmark/optee-fiovb/ta/entry.c:324
     280:	4602      	mov	r2, r0
     282:	ab08      	add	r3, sp, #32
     284:	4641      	mov	r1, r8
     286:	9300      	str	r3, [sp, #0]
     288:	4620      	mov	r0, r4
     28a:	463b      	mov	r3, r7
     28c:	f7ff ff0a 	bl	a4 <read_value>
/workspace/benchmark/optee-fiovb/ta/entry.c:326
     290:	463a      	mov	r2, r7
/workspace/benchmark/optee-fiovb/ta/entry.c:324
     292:	4604      	mov	r4, r0
/workspace/benchmark/optee-fiovb/ta/entry.c:326
     294:	4629      	mov	r1, r5
     296:	68b0      	ldr	r0, [r6, #8]
     298:	f000 ff88 	bl	11ac <TEE_MemMove>
/workspace/benchmark/optee-fiovb/ta/entry.c:329
     29c:	9b08      	ldr	r3, [sp, #32]
/workspace/benchmark/optee-fiovb/ta/entry.c:331
     29e:	4628      	mov	r0, r5
/workspace/benchmark/optee-fiovb/ta/entry.c:329
     2a0:	60f3      	str	r3, [r6, #12]
write_persist_value():
/workspace/benchmark/optee-fiovb/ta/entry.c:289
     2a2:	f001 f807 	bl	12b4 <TEE_Free>
TA_InvokeCommandEntryPoint():
/workspace/benchmark/optee-fiovb/ta/entry.c:399
     2a6:	4620      	mov	r0, r4
     2a8:	b019      	add	sp, #100	; 0x64
     2aa:	e8bd 8ff0 	ldmia.w	sp!, {r4, r5, r6, r7, r8, r9, sl, fp, pc}
write_persist_value():
/workspace/benchmark/optee-fiovb/ta/entry.c:240
     2ae:	2a55      	cmp	r2, #85	; 0x55
     2b0:	d1da      	bne.n	268 <TA_InvokeCommandEntryPoint+0x64>
/workspace/benchmark/optee-fiovb/ta/entry.c:243
     2b2:	681d      	ldr	r5, [r3, #0]
/workspace/benchmark/optee-fiovb/ta/entry.c:246
     2b4:	4628      	mov	r0, r5
     2b6:	f7ff feb3 	bl	20 <check_valid_value>
     2ba:	4682      	mov	sl, r0
     2bc:	b150      	cbz	r0, 2d4 <TA_InvokeCommandEntryPoint+0xd0>
/workspace/benchmark/optee-fiovb/ta/entry.c:247
     2be:	4881      	ldr	r0, [pc, #516]	; (4c4 <TA_InvokeCommandEntryPoint+0x2c0>)
     2c0:	4622      	mov	r2, r4
     2c2:	4b81      	ldr	r3, [pc, #516]	; (4c8 <TA_InvokeCommandEntryPoint+0x2c4>)
     2c4:	21f7      	movs	r1, #247	; 0xf7
     2c6:	4478      	add	r0, pc
     2c8:	9501      	str	r5, [sp, #4]
     2ca:	447b      	add	r3, pc
     2cc:	302a      	adds	r0, #42	; 0x2a
     2ce:	9300      	str	r3, [sp, #0]
     2d0:	4623      	mov	r3, r4
     2d2:	e7c7      	b.n	264 <TA_InvokeCommandEntryPoint+0x60>
/workspace/benchmark/optee-fiovb/ta/entry.c:260
     2d4:	4f7d      	ldr	r7, [pc, #500]	; (4cc <TA_InvokeCommandEntryPoint+0x2c8>)
     2d6:	2213      	movs	r2, #19
     2d8:	4628      	mov	r0, r5
/workspace/benchmark/optee-fiovb/ta/entry.c:244
     2da:	f8d6 9004 	ldr.w	r9, [r6, #4]
/workspace/benchmark/optee-fiovb/ta/entry.c:260
     2de:	447f      	add	r7, pc
     2e0:	4639      	mov	r1, r7
     2e2:	f006 f9de 	bl	66a2 <strncmp>
/workspace/benchmark/optee-fiovb/ta/entry.c:263
     2e6:	f8d6 b00c 	ldr.w	fp, [r6, #12]
/workspace/benchmark/optee-fiovb/ta/entry.c:264
     2ea:	4651      	mov	r1, sl
/workspace/benchmark/optee-fiovb/ta/entry.c:260
     2ec:	4680      	mov	r8, r0
/workspace/benchmark/optee-fiovb/ta/entry.c:264
     2ee:	4658      	mov	r0, fp
     2f0:	f000 ffb9 	bl	1266 <TEE_Malloc>
/workspace/benchmark/optee-fiovb/ta/entry.c:265
     2f4:	4682      	mov	sl, r0
     2f6:	2800      	cmp	r0, #0
     2f8:	f000 80cc 	beq.w	494 <TA_InvokeCommandEntryPoint+0x290>
/workspace/benchmark/optee-fiovb/ta/entry.c:268
     2fc:	68b1      	ldr	r1, [r6, #8]
     2fe:	465a      	mov	r2, fp
/workspace/benchmark/optee-fiovb/ta/entry.c:281
     300:	4e73      	ldr	r6, [pc, #460]	; (4d0 <TA_InvokeCommandEntryPoint+0x2cc>)
/workspace/benchmark/optee-fiovb/ta/entry.c:268
     302:	f000 ff53 	bl	11ac <TEE_MemMove>
/workspace/benchmark/optee-fiovb/ta/entry.c:281
     306:	2214      	movs	r2, #20
     308:	4628      	mov	r0, r5
     30a:	447e      	add	r6, pc
     30c:	4631      	mov	r1, r6
     30e:	f006 f9c8 	bl	66a2 <strncmp>
     312:	b168      	cbz	r0, 330 <TA_InvokeCommandEntryPoint+0x12c>
/workspace/benchmark/optee-fiovb/ta/entry.c:282
     314:	f118 0300 	adds.w	r3, r8, #0
     318:	4652      	mov	r2, sl
     31a:	bf18      	it	ne
     31c:	2301      	movne	r3, #1
     31e:	4649      	mov	r1, r9
     320:	9300      	str	r3, [sp, #0]
     322:	4628      	mov	r0, r5
     324:	465b      	mov	r3, fp
increase_boot_firmware():
/workspace/benchmark/optee-fiovb/ta/entry.c:222
     326:	f7ff ff0b 	bl	140 <write_value>
     32a:	4604      	mov	r4, r0
write_persist_value():
/workspace/benchmark/optee-fiovb/ta/entry.c:289
     32c:	4650      	mov	r0, sl
     32e:	e7b8      	b.n	2a2 <TA_InvokeCommandEntryPoint+0x9e>
is_rollback_protected():
/workspace/benchmark/optee-fiovb/ta/entry.c:173
     330:	f10d 0920 	add.w	r9, sp, #32
     334:	f10d 081c 	add.w	r8, sp, #28
     338:	2340      	movs	r3, #64	; 0x40
     33a:	f8cd 8000 	str.w	r8, [sp]
     33e:	464a      	mov	r2, r9
     340:	2114      	movs	r1, #20
     342:	4638      	mov	r0, r7
     344:	f7ff feae 	bl	a4 <read_value>
/workspace/benchmark/optee-fiovb/ta/entry.c:175
     348:	bb18      	cbnz	r0, 392 <TA_InvokeCommandEntryPoint+0x18e>
/workspace/benchmark/optee-fiovb/ta/entry.c:176
     34a:	4d62      	ldr	r5, [pc, #392]	; (4d4 <TA_InvokeCommandEntryPoint+0x2d0>)
     34c:	2203      	movs	r2, #3
     34e:	4b62      	ldr	r3, [pc, #392]	; (4d8 <TA_InvokeCommandEntryPoint+0x2d4>)
     350:	21b1      	movs	r1, #177	; 0xb1
     352:	447d      	add	r5, pc
     354:	9701      	str	r7, [sp, #4]
     356:	447b      	add	r3, pc
     358:	f105 003e 	add.w	r0, r5, #62	; 0x3e
     35c:	9300      	str	r3, [sp, #0]
     35e:	4623      	mov	r3, r4
     360:	f000 f910 	bl	584 <trace_printf>
is_version_incremental():
/workspace/benchmark/optee-fiovb/ta/entry.c:192
     364:	f8cd 8000 	str.w	r8, [sp]
     368:	2340      	movs	r3, #64	; 0x40
     36a:	464a      	mov	r2, r9
     36c:	2115      	movs	r1, #21
     36e:	4630      	mov	r0, r6
     370:	f7ff fe98 	bl	a4 <read_value>
/workspace/benchmark/optee-fiovb/ta/entry.c:194
     374:	4b4b      	ldr	r3, [pc, #300]	; (4a4 <TA_InvokeCommandEntryPoint+0x2a0>)
/workspace/benchmark/optee-fiovb/ta/entry.c:192
     376:	4680      	mov	r8, r0
/workspace/benchmark/optee-fiovb/ta/entry.c:194
     378:	4298      	cmp	r0, r3
     37a:	d112      	bne.n	3a2 <TA_InvokeCommandEntryPoint+0x19e>
/workspace/benchmark/optee-fiovb/ta/entry.c:195
     37c:	4b57      	ldr	r3, [pc, #348]	; (4dc <TA_InvokeCommandEntryPoint+0x2d8>)
     37e:	2203      	movs	r2, #3
     380:	9601      	str	r6, [sp, #4]
     382:	21c4      	movs	r1, #196	; 0xc4
     384:	447b      	add	r3, pc
     386:	f105 0054 	add.w	r0, r5, #84	; 0x54
     38a:	9300      	str	r3, [sp, #0]
     38c:	4623      	mov	r3, r4
     38e:	f000 f8f9 	bl	584 <trace_printf>
increase_boot_firmware():
/workspace/benchmark/optee-fiovb/ta/entry.c:222
     392:	4853      	ldr	r0, [pc, #332]	; (4e0 <TA_InvokeCommandEntryPoint+0x2dc>)
     394:	2301      	movs	r3, #1
     396:	4652      	mov	r2, sl
     398:	9300      	str	r3, [sp, #0]
     39a:	2115      	movs	r1, #21
     39c:	465b      	mov	r3, fp
     39e:	4478      	add	r0, pc
     3a0:	e7c1      	b.n	326 <TA_InvokeCommandEntryPoint+0x122>
is_version_incremental():
/workspace/benchmark/optee-fiovb/ta/entry.c:200
     3a2:	bb00      	cbnz	r0, 3e6 <TA_InvokeCommandEntryPoint+0x1e2>
/workspace/benchmark/optee-fiovb/ta/entry.c:201
     3a4:	4601      	mov	r1, r0
     3a6:	220a      	movs	r2, #10
     3a8:	4648      	mov	r0, r9
     3aa:	2700      	movs	r7, #0
     3ac:	f006 fa0d 	bl	67ca <strtoul>
/workspace/benchmark/optee-fiovb/ta/entry.c:202
     3b0:	4641      	mov	r1, r8
/workspace/benchmark/optee-fiovb/ta/entry.c:201
     3b2:	4606      	mov	r6, r0
/workspace/benchmark/optee-fiovb/ta/entry.c:202
     3b4:	220a      	movs	r2, #10
     3b6:	4650      	mov	r0, sl
     3b8:	f04f 0900 	mov.w	r9, #0
     3bc:	f006 fa05 	bl	67ca <strtoul>
/workspace/benchmark/optee-fiovb/ta/entry.c:204
     3c0:	4b48      	ldr	r3, [pc, #288]	; (4e4 <TA_InvokeCommandEntryPoint+0x2e0>)
/workspace/benchmark/optee-fiovb/ta/entry.c:202
     3c2:	4680      	mov	r8, r0
/workspace/benchmark/optee-fiovb/ta/entry.c:204
     3c4:	e9cd 6702 	strd	r6, r7, [sp, #8]
     3c8:	447b      	add	r3, pc
     3ca:	e9cd 8904 	strd	r8, r9, [sp, #16]
     3ce:	9300      	str	r3, [sp, #0]
     3d0:	2203      	movs	r2, #3
     3d2:	4623      	mov	r3, r4
     3d4:	21cd      	movs	r1, #205	; 0xcd
     3d6:	f105 0054 	add.w	r0, r5, #84	; 0x54
     3da:	f000 f8d3 	bl	584 <trace_printf>
/workspace/benchmark/optee-fiovb/ta/entry.c:206
     3de:	45b9      	cmp	r9, r7
     3e0:	bf08      	it	eq
     3e2:	45b0      	cmpeq	r8, r6
     3e4:	d2d5      	bcs.n	392 <TA_InvokeCommandEntryPoint+0x18e>
increase_boot_firmware():
/workspace/benchmark/optee-fiovb/ta/entry.c:218
     3e6:	4b40      	ldr	r3, [pc, #256]	; (4e8 <TA_InvokeCommandEntryPoint+0x2e4>)
     3e8:	21da      	movs	r1, #218	; 0xda
     3ea:	4840      	ldr	r0, [pc, #256]	; (4ec <TA_InvokeCommandEntryPoint+0x2e8>)
     3ec:	447b      	add	r3, pc
     3ee:	9300      	str	r3, [sp, #0]
     3f0:	4478      	add	r0, pc
     3f2:	2301      	movs	r3, #1
     3f4:	461a      	mov	r2, r3
     3f6:	3093      	adds	r0, #147	; 0x93
     3f8:	f000 f8c4 	bl	584 <trace_printf>
/workspace/benchmark/optee-fiovb/ta/entry.c:219
     3fc:	4c2a      	ldr	r4, [pc, #168]	; (4a8 <TA_InvokeCommandEntryPoint+0x2a4>)
     3fe:	e795      	b.n	32c <TA_InvokeCommandEntryPoint+0x128>
delete_persist_value():
/workspace/benchmark/optee-fiovb/ta/entry.c:347
     400:	2a05      	cmp	r2, #5
     402:	f47f af31 	bne.w	268 <TA_InvokeCommandEntryPoint+0x64>
/workspace/benchmark/optee-fiovb/ta/entry.c:350
     406:	681f      	ldr	r7, [r3, #0]
/workspace/benchmark/optee-fiovb/ta/entry.c:356
     408:	2213      	movs	r2, #19
     40a:	4939      	ldr	r1, [pc, #228]	; (4f0 <TA_InvokeCommandEntryPoint+0x2ec>)
     40c:	4638      	mov	r0, r7
     40e:	4479      	add	r1, pc
     410:	f006 f947 	bl	66a2 <strncmp>
     414:	2800      	cmp	r0, #0
     416:	d03f      	beq.n	498 <TA_InvokeCommandEntryPoint+0x294>
delete_value():
/workspace/benchmark/optee-fiovb/ta/entry.c:140
     418:	2400      	movs	r4, #0
delete_persist_value():
/workspace/benchmark/optee-fiovb/ta/entry.c:351
     41a:	f8d6 8004 	ldr.w	r8, [r6, #4]
delete_value():
/workspace/benchmark/optee-fiovb/ta/entry.c:144
     41e:	ae08      	add	r6, sp, #32
     420:	4621      	mov	r1, r4
     422:	2240      	movs	r2, #64	; 0x40
     424:	4630      	mov	r0, r6
/workspace/benchmark/optee-fiovb/ta/entry.c:140
     426:	9406      	str	r4, [sp, #24]
/workspace/benchmark/optee-fiovb/ta/entry.c:144
     428:	f006 f926 	bl	6678 <memset>
/workspace/benchmark/optee-fiovb/ta/entry.c:145
     42c:	ab18      	add	r3, sp, #96	; 0x60
/workspace/benchmark/optee-fiovb/ta/entry.c:147
     42e:	4632      	mov	r2, r6
     430:	4641      	mov	r1, r8
     432:	4638      	mov	r0, r7
/workspace/benchmark/optee-fiovb/ta/entry.c:145
     434:	f843 4d44 	str.w	r4, [r3, #-68]!
/workspace/benchmark/optee-fiovb/ta/entry.c:147
     438:	f7ff fe12 	bl	60 <get_named_object_name>
/workspace/benchmark/optee-fiovb/ta/entry.c:149
     43c:	4604      	mov	r4, r0
     43e:	2800      	cmp	r0, #0
     440:	f47f af31 	bne.w	2a6 <TA_InvokeCommandEntryPoint+0xa2>
/workspace/benchmark/optee-fiovb/ta/entry.c:152
     444:	ab06      	add	r3, sp, #24
     446:	9a07      	ldr	r2, [sp, #28]
     448:	9300      	str	r3, [sp, #0]
     44a:	4631      	mov	r1, r6
     44c:	462b      	mov	r3, r5
     44e:	4817      	ldr	r0, [pc, #92]	; (4ac <TA_InvokeCommandEntryPoint+0x2a8>)
     450:	f001 f93a 	bl	16c8 <TEE_OpenPersistentObject>
/workspace/benchmark/optee-fiovb/ta/entry.c:154
     454:	4604      	mov	r4, r0
     456:	b160      	cbz	r0, 472 <TA_InvokeCommandEntryPoint+0x26e>
/workspace/benchmark/optee-fiovb/ta/entry.c:155
     458:	4b26      	ldr	r3, [pc, #152]	; (4f4 <TA_InvokeCommandEntryPoint+0x2f0>)
     45a:	219b      	movs	r1, #155	; 0x9b
     45c:	9001      	str	r0, [sp, #4]
     45e:	4826      	ldr	r0, [pc, #152]	; (4f8 <TA_InvokeCommandEntryPoint+0x2f4>)
     460:	447b      	add	r3, pc
     462:	9300      	str	r3, [sp, #0]
     464:	2301      	movs	r3, #1
     466:	461a      	mov	r2, r3
     468:	4478      	add	r0, pc
/workspace/benchmark/optee-fiovb/ta/entry.c:161
     46a:	306b      	adds	r0, #107	; 0x6b
     46c:	f000 f88a 	bl	584 <trace_printf>
     470:	e719      	b.n	2a6 <TA_InvokeCommandEntryPoint+0xa2>
/workspace/benchmark/optee-fiovb/ta/entry.c:159
     472:	9806      	ldr	r0, [sp, #24]
     474:	f001 f9a6 	bl	17c4 <TEE_CloseAndDeletePersistentObject1>
/workspace/benchmark/optee-fiovb/ta/entry.c:160
     478:	4604      	mov	r4, r0
     47a:	2800      	cmp	r0, #0
     47c:	f43f af13 	beq.w	2a6 <TA_InvokeCommandEntryPoint+0xa2>
/workspace/benchmark/optee-fiovb/ta/entry.c:161
     480:	4b1e      	ldr	r3, [pc, #120]	; (4fc <TA_InvokeCommandEntryPoint+0x2f8>)
     482:	21a1      	movs	r1, #161	; 0xa1
     484:	9001      	str	r0, [sp, #4]
     486:	481e      	ldr	r0, [pc, #120]	; (500 <TA_InvokeCommandEntryPoint+0x2fc>)
     488:	447b      	add	r3, pc
     48a:	9300      	str	r3, [sp, #0]
     48c:	2301      	movs	r3, #1
     48e:	461a      	mov	r2, r3
     490:	4478      	add	r0, pc
     492:	e7ea      	b.n	46a <TA_InvokeCommandEntryPoint+0x266>
write_persist_value():
/workspace/benchmark/optee-fiovb/ta/entry.c:266
     494:	4c06      	ldr	r4, [pc, #24]	; (4b0 <TA_InvokeCommandEntryPoint+0x2ac>)
     496:	e706      	b.n	2a6 <TA_InvokeCommandEntryPoint+0xa2>
delete_persist_value():
/workspace/benchmark/optee-fiovb/ta/entry.c:357
     498:	4c03      	ldr	r4, [pc, #12]	; (4a8 <TA_InvokeCommandEntryPoint+0x2a4>)
     49a:	e704      	b.n	2a6 <TA_InvokeCommandEntryPoint+0xa2>
     49c:	ffff000a 	.word	0xffff000a
     4a0:	ffff0006 	.word	0xffff0006
     4a4:	ffff0008 	.word	0xffff0008
     4a8:	ffff0001 	.word	0xffff0001
     4ac:	80000100 	.word	0x80000100
     4b0:	ffff000c 	.word	0xffff000c
     4b4:	00006dca 	.word	0x00006dca
     4b8:	00006b24 	.word	0x00006b24
     4bc:	00006c69 	.word	0x00006c69
     4c0:	00006aee 	.word	0x00006aee
     4c4:	00006a82 	.word	0x00006a82
     4c8:	00006bf5 	.word	0x00006bf5
     4cc:	00006bee 	.word	0x00006bee
     4d0:	00006bd6 	.word	0x00006bd6
     4d4:	000069f6 	.word	0x000069f6
     4d8:	00006b9f 	.word	0x00006b9f
     4dc:	00006b9a 	.word	0x00006b9a
     4e0:	00006b42 	.word	0x00006b42
     4e4:	00006b88 	.word	0x00006b88
     4e8:	00006c1f 	.word	0x00006c1f
     4ec:	00006958 	.word	0x00006958
     4f0:	00006abe 	.word	0x00006abe
     4f4:	00006b2e 	.word	0x00006b2e
     4f8:	000068e0 	.word	0x000068e0
     4fc:	00006b33 	.word	0x00006b33
     500:	000068b8 	.word	0x000068b8

00000504 <append>:
append():
/mnt/disk/raspbian-tee/optee_os/lib/libutils/ext/trace.c:198
     504:	b40e      	push	{r1, r2, r3}
/mnt/disk/raspbian-tee/optee_os/lib/libutils/ext/trace.c:203
     506:	f8d0 3100 	ldr.w	r3, [r0, #256]	; 0x100
/mnt/disk/raspbian-tee/optee_os/lib/libutils/ext/trace.c:198
     50a:	b533      	push	{r0, r1, r4, r5, lr}
     50c:	4604      	mov	r4, r0
/mnt/disk/raspbian-tee/optee_os/lib/libutils/ext/trace.c:203
     50e:	b90b      	cbnz	r3, 514 <append+0x10>
/mnt/disk/raspbian-tee/optee_os/lib/libutils/ext/trace.c:204
     510:	f8c4 0100 	str.w	r0, [r4, #256]	; 0x100
/mnt/disk/raspbian-tee/optee_os/lib/libutils/ext/trace.c:205
     514:	f8d4 0100 	ldr.w	r0, [r4, #256]	; 0x100
/mnt/disk/raspbian-tee/optee_os/lib/libutils/ext/trace.c:206
     518:	ab06      	add	r3, sp, #24
/mnt/disk/raspbian-tee/optee_os/lib/libutils/ext/trace.c:207
     51a:	9a05      	ldr	r2, [sp, #20]
/mnt/disk/raspbian-tee/optee_os/lib/libutils/ext/trace.c:205
     51c:	1b05      	subs	r5, r0, r4
/mnt/disk/raspbian-tee/optee_os/lib/libutils/ext/trace.c:206
     51e:	9301      	str	r3, [sp, #4]
/mnt/disk/raspbian-tee/optee_os/lib/libutils/ext/trace.c:205
     520:	f5c5 7580 	rsb	r5, r5, #256	; 0x100
/mnt/disk/raspbian-tee/optee_os/lib/libutils/ext/trace.c:207
     524:	4629      	mov	r1, r5
     526:	f000 fce5 	bl	ef4 <vsnprintk>
/mnt/disk/raspbian-tee/optee_os/lib/libutils/ext/trace.c:209
     52a:	2800      	cmp	r0, #0
     52c:	db0f      	blt.n	54e <append+0x4a>
/mnt/disk/raspbian-tee/optee_os/lib/libutils/ext/trace.c:213
     52e:	4285      	cmp	r5, r0
     530:	dd0d      	ble.n	54e <append+0x4a>
/mnt/disk/raspbian-tee/optee_os/lib/libutils/ext/trace.c:217
     532:	4285      	cmp	r5, r0
     534:	bfa8      	it	ge
     536:	4605      	movge	r5, r0
     538:	f8d4 0100 	ldr.w	r0, [r4, #256]	; 0x100
     53c:	4405      	add	r5, r0
/mnt/disk/raspbian-tee/optee_os/lib/libutils/ext/trace.c:218
     53e:	2001      	movs	r0, #1
/mnt/disk/raspbian-tee/optee_os/lib/libutils/ext/trace.c:217
     540:	f8c4 5100 	str.w	r5, [r4, #256]	; 0x100
/mnt/disk/raspbian-tee/optee_os/lib/libutils/ext/trace.c:219
     544:	b002      	add	sp, #8
     546:	e8bd 4030 	ldmia.w	sp!, {r4, r5, lr}
     54a:	b003      	add	sp, #12
     54c:	4770      	bx	lr
/mnt/disk/raspbian-tee/optee_os/lib/libutils/ext/trace.c:211
     54e:	2000      	movs	r0, #0
     550:	e7f8      	b.n	544 <append+0x40>

00000552 <trace_set_level>:
trace_set_level():
/mnt/disk/raspbian-tee/optee_os/lib/libutils/ext/trace.c:25
     552:	4b05      	ldr	r3, [pc, #20]	; (568 <trace_set_level+0x16>)
/mnt/disk/raspbian-tee/optee_os/lib/libutils/ext/trace.c:26
     554:	2804      	cmp	r0, #4
     556:	4a05      	ldr	r2, [pc, #20]	; (56c <trace_set_level+0x1a>)
/mnt/disk/raspbian-tee/optee_os/lib/libutils/ext/trace.c:25
     558:	447b      	add	r3, pc
     55a:	589b      	ldr	r3, [r3, r2]
/mnt/disk/raspbian-tee/optee_os/lib/libutils/ext/trace.c:26
     55c:	d801      	bhi.n	562 <trace_set_level+0x10>
/mnt/disk/raspbian-tee/optee_os/lib/libutils/ext/trace.c:27
     55e:	6018      	str	r0, [r3, #0]
     560:	4770      	bx	lr
/mnt/disk/raspbian-tee/optee_os/lib/libutils/ext/trace.c:29
     562:	2204      	movs	r2, #4
     564:	601a      	str	r2, [r3, #0]
     566:	4770      	bx	lr
     568:	00007f10 	.word	0x00007f10
     56c:	00000010 	.word	0x00000010

00000570 <trace_get_level>:
trace_get_level():
/mnt/disk/raspbian-tee/optee_os/lib/libutils/ext/trace.c:33
     570:	4b02      	ldr	r3, [pc, #8]	; (57c <trace_get_level+0xc>)
/mnt/disk/raspbian-tee/optee_os/lib/libutils/ext/trace.c:34
     572:	4a03      	ldr	r2, [pc, #12]	; (580 <trace_get_level+0x10>)
/mnt/disk/raspbian-tee/optee_os/lib/libutils/ext/trace.c:33
     574:	447b      	add	r3, pc
/mnt/disk/raspbian-tee/optee_os/lib/libutils/ext/trace.c:34
     576:	589b      	ldr	r3, [r3, r2]
/mnt/disk/raspbian-tee/optee_os/lib/libutils/ext/trace.c:35
     578:	6818      	ldr	r0, [r3, #0]
     57a:	4770      	bx	lr
     57c:	00007ef4 	.word	0x00007ef4
     580:	00000010 	.word	0x00000010

00000584 <trace_printf>:
trace_printf():
/mnt/disk/raspbian-tee/optee_os/lib/libutils/ext/trace.c:97
     584:	e92d 47f0 	stmdb	sp!, {r4, r5, r6, r7, r8, r9, sl, lr}
     588:	4607      	mov	r7, r0
     58a:	f8df 910c 	ldr.w	r9, [pc, #268]	; 698 <trace_printf+0x114>
     58e:	b0c6      	sub	sp, #280	; 0x118
     590:	4688      	mov	r8, r1
     592:	44f9      	add	r9, pc
     594:	4614      	mov	r4, r2
/mnt/disk/raspbian-tee/optee_os/lib/libutils/ext/trace.c:103
     596:	469a      	mov	sl, r3
     598:	2b00      	cmp	r3, #0
     59a:	d06a      	beq.n	672 <trace_printf+0xee>
/mnt/disk/raspbian-tee/optee_os/lib/libutils/ext/trace.c:103 (discriminator 1)
     59c:	4b3f      	ldr	r3, [pc, #252]	; (69c <trace_printf+0x118>)
     59e:	f859 3003 	ldr.w	r3, [r9, r3]
     5a2:	681b      	ldr	r3, [r3, #0]
     5a4:	4293      	cmp	r3, r2
     5a6:	db61      	blt.n	66c <trace_printf+0xe8>
trace_level_to_string():
/mnt/disk/raspbian-tee/optee_os/lib/libutils/ext/trace.c:52
     5a8:	4613      	mov	r3, r2
     5aa:	2a04      	cmp	r2, #4
/mnt/disk/raspbian-tee/optee_os/lib/libutils/ext/trace.c:55
     5ac:	4a3c      	ldr	r2, [pc, #240]	; (6a0 <trace_printf+0x11c>)
/mnt/disk/raspbian-tee/optee_os/lib/libutils/ext/trace.c:52
     5ae:	bf88      	it	hi
     5b0:	2300      	movhi	r3, #0
/mnt/disk/raspbian-tee/optee_os/lib/libutils/ext/trace.c:55
     5b2:	447a      	add	r2, pc
     5b4:	5cd3      	ldrb	r3, [r2, r3]
trace_printf():
/mnt/disk/raspbian-tee/optee_os/lib/libutils/ext/trace.c:107
     5b6:	4a3b      	ldr	r2, [pc, #236]	; (6a4 <trace_printf+0x120>)
     5b8:	ad06      	add	r5, sp, #24
     5ba:	f44f 7180 	mov.w	r1, #256	; 0x100
     5be:	4628      	mov	r0, r5
     5c0:	447a      	add	r2, pc
     5c2:	f000 fc9e 	bl	f02 <snprintk>
/mnt/disk/raspbian-tee/optee_os/lib/libutils/ext/trace.c:109
     5c6:	1e06      	subs	r6, r0, #0
     5c8:	db50      	blt.n	66c <trace_printf+0xe8>
/mnt/disk/raspbian-tee/optee_os/lib/libutils/ext/trace.c:114
     5ca:	4b37      	ldr	r3, [pc, #220]	; (6a8 <trace_printf+0x124>)
     5cc:	f5c6 7180 	rsb	r1, r6, #256	; 0x100
     5d0:	4a36      	ldr	r2, [pc, #216]	; (6ac <trace_printf+0x128>)
     5d2:	19a8      	adds	r0, r5, r6
     5d4:	447a      	add	r2, pc
     5d6:	f859 3003 	ldr.w	r3, [r9, r3]
     5da:	9303      	str	r3, [sp, #12]
     5dc:	f000 fc91 	bl	f02 <snprintk>
/mnt/disk/raspbian-tee/optee_os/lib/libutils/ext/trace.c:116
     5e0:	2800      	cmp	r0, #0
     5e2:	db43      	blt.n	66c <trace_printf+0xe8>
/mnt/disk/raspbian-tee/optee_os/lib/libutils/ext/trace.c:118
     5e4:	4406      	add	r6, r0
/mnt/disk/raspbian-tee/optee_os/lib/libutils/ext/trace.c:120
     5e6:	f1ba 0f00 	cmp.w	sl, #0
     5ea:	d04b      	beq.n	684 <trace_printf+0x100>
/mnt/disk/raspbian-tee/optee_os/lib/libutils/ext/trace.c:120 (discriminator 1)
     5ec:	231a      	movs	r3, #26
     5ee:	fa23 f404 	lsr.w	r4, r3, r4
     5f2:	07e3      	lsls	r3, r4, #31
     5f4:	d546      	bpl.n	684 <trace_printf+0x100>
print_thread_id():
/mnt/disk/raspbian-tee/optee_os/lib/libutils/ext/trace.c:65
     5f6:	f000 fcb3 	bl	f60 <trace_ext_get_thread_id>
trace_printf():
/mnt/disk/raspbian-tee/optee_os/lib/libutils/ext/trace.c:122
     5fa:	19ac      	adds	r4, r5, r6
     5fc:	f5c6 7980 	rsb	r9, r6, #256	; 0x100
print_thread_id():
/mnt/disk/raspbian-tee/optee_os/lib/libutils/ext/trace.c:67
     600:	2800      	cmp	r0, #0
     602:	db38      	blt.n	676 <trace_printf+0xf2>
/mnt/disk/raspbian-tee/optee_os/lib/libutils/ext/trace.c:68
     604:	4a2a      	ldr	r2, [pc, #168]	; (6b0 <trace_printf+0x12c>)
     606:	2301      	movs	r3, #1
     608:	9000      	str	r0, [sp, #0]
     60a:	447a      	add	r2, pc
/mnt/disk/raspbian-tee/optee_os/lib/libutils/ext/trace.c:70
     60c:	4649      	mov	r1, r9
     60e:	4620      	mov	r0, r4
     610:	f000 fc77 	bl	f02 <snprintk>
trace_printf():
/mnt/disk/raspbian-tee/optee_os/lib/libutils/ext/trace.c:129
     614:	2800      	cmp	r0, #0
     616:	db29      	blt.n	66c <trace_printf+0xe8>
/mnt/disk/raspbian-tee/optee_os/lib/libutils/ext/trace.c:131
     618:	1984      	adds	r4, r0, r6
/mnt/disk/raspbian-tee/optee_os/lib/libutils/ext/trace.c:133
     61a:	b167      	cbz	r7, 636 <trace_printf+0xb2>
/mnt/disk/raspbian-tee/optee_os/lib/libutils/ext/trace.c:134
     61c:	4a25      	ldr	r2, [pc, #148]	; (6b4 <trace_printf+0x130>)
     61e:	463b      	mov	r3, r7
     620:	f8cd 8000 	str.w	r8, [sp]
     624:	f5c4 7180 	rsb	r1, r4, #256	; 0x100
     628:	447a      	add	r2, pc
     62a:	1928      	adds	r0, r5, r4
     62c:	f000 fc69 	bl	f02 <snprintk>
/mnt/disk/raspbian-tee/optee_os/lib/libutils/ext/trace.c:136
     630:	2800      	cmp	r0, #0
     632:	db1b      	blt.n	66c <trace_printf+0xe8>
/mnt/disk/raspbian-tee/optee_os/lib/libutils/ext/trace.c:138
     634:	4404      	add	r4, r0
/mnt/disk/raspbian-tee/optee_os/lib/libutils/ext/trace.c:148
     636:	ab4f      	add	r3, sp, #316	; 0x13c
/mnt/disk/raspbian-tee/optee_os/lib/libutils/ext/trace.c:149
     638:	f5c4 7180 	rsb	r1, r4, #256	; 0x100
     63c:	1928      	adds	r0, r5, r4
     63e:	9a4e      	ldr	r2, [sp, #312]	; 0x138
/mnt/disk/raspbian-tee/optee_os/lib/libutils/ext/trace.c:148
     640:	9305      	str	r3, [sp, #20]
/mnt/disk/raspbian-tee/optee_os/lib/libutils/ext/trace.c:149
     642:	f000 fc57 	bl	ef4 <vsnprintk>
/mnt/disk/raspbian-tee/optee_os/lib/libutils/ext/trace.c:151
     646:	2800      	cmp	r0, #0
/mnt/disk/raspbian-tee/optee_os/lib/libutils/ext/trace.c:157
     648:	f04f 030a 	mov.w	r3, #10
/mnt/disk/raspbian-tee/optee_os/lib/libutils/ext/trace.c:152
     64c:	bfc8      	it	gt
     64e:	1824      	addgt	r4, r4, r0
     650:	2cfe      	cmp	r4, #254	; 0xfe
     652:	bf28      	it	cs
     654:	24fe      	movcs	r4, #254	; 0xfe
/mnt/disk/raspbian-tee/optee_os/lib/libutils/ext/trace.c:157
     656:	552b      	strb	r3, [r5, r4]
/mnt/disk/raspbian-tee/optee_os/lib/libutils/ext/trace.c:158
     658:	b114      	cbz	r4, 660 <trace_printf+0xdc>
/mnt/disk/raspbian-tee/optee_os/lib/libutils/ext/trace.c:158 (discriminator 1)
     65a:	5d2b      	ldrb	r3, [r5, r4]
     65c:	2b0a      	cmp	r3, #10
     65e:	d019      	beq.n	694 <trace_printf+0x110>
/mnt/disk/raspbian-tee/optee_os/lib/libutils/ext/trace.c:161
     660:	442c      	add	r4, r5
/mnt/disk/raspbian-tee/optee_os/lib/libutils/ext/trace.c:163
     662:	4628      	mov	r0, r5
/mnt/disk/raspbian-tee/optee_os/lib/libutils/ext/trace.c:161
     664:	2300      	movs	r3, #0
     666:	70a3      	strb	r3, [r4, #2]
/mnt/disk/raspbian-tee/optee_os/lib/libutils/ext/trace.c:163
     668:	f000 fc70 	bl	f4c <trace_ext_puts>
/mnt/disk/raspbian-tee/optee_os/lib/libutils/ext/trace.c:164
     66c:	b046      	add	sp, #280	; 0x118
     66e:	e8bd 87f0 	ldmia.w	sp!, {r4, r5, r6, r7, r8, r9, sl, pc}
trace_level_to_string():
/mnt/disk/raspbian-tee/optee_os/lib/libutils/ext/trace.c:50
     672:	234d      	movs	r3, #77	; 0x4d
     674:	e79f      	b.n	5b6 <trace_printf+0x32>
print_thread_id():
/mnt/disk/raspbian-tee/optee_os/lib/libutils/ext/trace.c:70
     676:	4b10      	ldr	r3, [pc, #64]	; (6b8 <trace_printf+0x134>)
     678:	4a10      	ldr	r2, [pc, #64]	; (6bc <trace_printf+0x138>)
     67a:	447b      	add	r3, pc
     67c:	9300      	str	r3, [sp, #0]
     67e:	447a      	add	r2, pc
     680:	2301      	movs	r3, #1
     682:	e7c3      	b.n	60c <trace_printf+0x88>
trace_printf():
/mnt/disk/raspbian-tee/optee_os/lib/libutils/ext/trace.c:142
     684:	2efe      	cmp	r6, #254	; 0xfe
     686:	d8f1      	bhi.n	66c <trace_printf+0xe8>
/mnt/disk/raspbian-tee/optee_os/lib/libutils/ext/trace.c:144
     688:	1c74      	adds	r4, r6, #1
     68a:	2320      	movs	r3, #32
     68c:	55ab      	strb	r3, [r5, r6]
/mnt/disk/raspbian-tee/optee_os/lib/libutils/ext/trace.c:145
     68e:	2300      	movs	r3, #0
     690:	552b      	strb	r3, [r5, r4]
     692:	e7d0      	b.n	636 <trace_printf+0xb2>
/mnt/disk/raspbian-tee/optee_os/lib/libutils/ext/trace.c:159
     694:	3c01      	subs	r4, #1
     696:	e7df      	b.n	658 <trace_printf+0xd4>
     698:	00007ed6 	.word	0x00007ed6
     69c:	00000010 	.word	0x00000010
     6a0:	00006baa 	.word	0x00006baa
     6a4:	00006bab 	.word	0x00006bab
     6a8:	00000014 	.word	0x00000014
     6ac:	00006b9b 	.word	0x00006b9b
     6b0:	00006b69 	.word	0x00006b69
     6b4:	00006b56 	.word	0x00006b56
     6b8:	000071f4 	.word	0x000071f4
     6bc:	00006afb 	.word	0x00006afb

000006c0 <dhex_dump>:
dhex_dump():
/mnt/disk/raspbian-tee/optee_os/lib/libutils/ext/trace.c:225
     6c0:	e92d 4ff0 	stmdb	sp!, {r4, r5, r6, r7, r8, r9, sl, fp, lr}
     6c4:	4690      	mov	r8, r2
     6c6:	4a35      	ldr	r2, [pc, #212]	; (79c <dhex_dump+0xdc>)
     6c8:	468a      	mov	sl, r1
/mnt/disk/raspbian-tee/optee_os/lib/libutils/ext/trace.c:231
     6ca:	4935      	ldr	r1, [pc, #212]	; (7a0 <dhex_dump+0xe0>)
/mnt/disk/raspbian-tee/optee_os/lib/libutils/ext/trace.c:225
     6cc:	447a      	add	r2, pc
     6ce:	b0c7      	sub	sp, #284	; 0x11c
     6d0:	4681      	mov	r9, r0
/mnt/disk/raspbian-tee/optee_os/lib/libutils/ext/trace.c:231
     6d2:	5852      	ldr	r2, [r2, r1]
     6d4:	6812      	ldr	r2, [r2, #0]
     6d6:	4542      	cmp	r2, r8
     6d8:	db1d      	blt.n	716 <dhex_dump+0x56>
     6da:	461e      	mov	r6, r3
/mnt/disk/raspbian-tee/optee_os/lib/libutils/ext/trace.c:240
     6dc:	4b31      	ldr	r3, [pc, #196]	; (7a4 <dhex_dump+0xe4>)
/mnt/disk/raspbian-tee/optee_os/lib/libutils/ext/trace.c:232
     6de:	ad05      	add	r5, sp, #20
/mnt/disk/raspbian-tee/optee_os/lib/libutils/ext/trace.c:235
     6e0:	f8df b0c4 	ldr.w	fp, [pc, #196]	; 7a8 <dhex_dump+0xe8>
/mnt/disk/raspbian-tee/optee_os/lib/libutils/ext/trace.c:240
     6e4:	447b      	add	r3, pc
     6e6:	9302      	str	r3, [sp, #8]
/mnt/disk/raspbian-tee/optee_os/lib/libutils/ext/trace.c:248
     6e8:	4b30      	ldr	r3, [pc, #192]	; (7ac <dhex_dump+0xec>)
/mnt/disk/raspbian-tee/optee_os/lib/libutils/ext/trace.c:235
     6ea:	44fb      	add	fp, pc
/mnt/disk/raspbian-tee/optee_os/lib/libutils/ext/trace.c:232
     6ec:	2400      	movs	r4, #0
     6ee:	f8c5 4100 	str.w	r4, [r5, #256]	; 0x100
/mnt/disk/raspbian-tee/optee_os/lib/libutils/ext/trace.c:248
     6f2:	447b      	add	r3, pc
     6f4:	9303      	str	r3, [sp, #12]
/mnt/disk/raspbian-tee/optee_os/lib/libutils/ext/trace.c:233 (discriminator 1)
     6f6:	9b50      	ldr	r3, [sp, #320]	; 0x140
     6f8:	429c      	cmp	r4, r3
     6fa:	db0f      	blt.n	71c <dhex_dump+0x5c>
/mnt/disk/raspbian-tee/optee_os/lib/libutils/ext/trace.c:253
     6fc:	f8d5 3100 	ldr.w	r3, [r5, #256]	; 0x100
     700:	b14b      	cbz	r3, 716 <dhex_dump+0x56>
/mnt/disk/raspbian-tee/optee_os/lib/libutils/ext/trace.c:255
     702:	4b2b      	ldr	r3, [pc, #172]	; (7b0 <dhex_dump+0xf0>)
     704:	4642      	mov	r2, r8
     706:	9501      	str	r5, [sp, #4]
     708:	4651      	mov	r1, sl
     70a:	447b      	add	r3, pc
     70c:	4648      	mov	r0, r9
     70e:	9300      	str	r3, [sp, #0]
     710:	2301      	movs	r3, #1
     712:	f7ff ff37 	bl	584 <trace_printf>
/mnt/disk/raspbian-tee/optee_os/lib/libutils/ext/trace.c:263
     716:	b047      	add	sp, #284	; 0x11c
     718:	e8bd 8ff0 	ldmia.w	sp!, {r4, r5, r6, r7, r8, r9, sl, fp, pc}
/mnt/disk/raspbian-tee/optee_os/lib/libutils/ext/trace.c:234
     71c:	f014 070f 	ands.w	r7, r4, #15
     720:	d013      	beq.n	74a <dhex_dump+0x8a>
/mnt/disk/raspbian-tee/optee_os/lib/libutils/ext/trace.c:240
     722:	f816 2b01 	ldrb.w	r2, [r6], #1
     726:	4628      	mov	r0, r5
     728:	9902      	ldr	r1, [sp, #8]
     72a:	f7ff feeb 	bl	504 <append>
/mnt/disk/raspbian-tee/optee_os/lib/libutils/ext/trace.c:241
     72e:	b9a8      	cbnz	r0, 75c <dhex_dump+0x9c>
/mnt/disk/raspbian-tee/optee_os/lib/libutils/ext/trace.c:262
     730:	4820      	ldr	r0, [pc, #128]	; (7b4 <dhex_dump+0xf4>)
     732:	2203      	movs	r2, #3
     734:	4b20      	ldr	r3, [pc, #128]	; (7b8 <dhex_dump+0xf8>)
     736:	f44f 7183 	mov.w	r1, #262	; 0x106
     73a:	4478      	add	r0, pc
     73c:	447b      	add	r3, pc
     73e:	3005      	adds	r0, #5
     740:	9300      	str	r3, [sp, #0]
     742:	2301      	movs	r3, #1
     744:	f7ff ff1e 	bl	584 <trace_printf>
     748:	e7e5      	b.n	716 <dhex_dump+0x56>
/mnt/disk/raspbian-tee/optee_os/lib/libutils/ext/trace.c:235
     74a:	4633      	mov	r3, r6
     74c:	2208      	movs	r2, #8
     74e:	4659      	mov	r1, fp
     750:	4628      	mov	r0, r5
     752:	f7ff fed7 	bl	504 <append>
/mnt/disk/raspbian-tee/optee_os/lib/libutils/ext/trace.c:237
     756:	2800      	cmp	r0, #0
     758:	d1e3      	bne.n	722 <dhex_dump+0x62>
     75a:	e7e9      	b.n	730 <dhex_dump+0x70>
/mnt/disk/raspbian-tee/optee_os/lib/libutils/ext/trace.c:243
     75c:	4263      	negs	r3, r4
     75e:	f003 030f 	and.w	r3, r3, #15
     762:	bf58      	it	pl
     764:	425f      	negpl	r7, r3
     766:	2f07      	cmp	r7, #7
     768:	d108      	bne.n	77c <dhex_dump+0xbc>
/mnt/disk/raspbian-tee/optee_os/lib/libutils/ext/trace.c:244
     76a:	4914      	ldr	r1, [pc, #80]	; (7bc <dhex_dump+0xfc>)
     76c:	4628      	mov	r0, r5
     76e:	4479      	add	r1, pc
     770:	f7ff fec8 	bl	504 <append>
/mnt/disk/raspbian-tee/optee_os/lib/libutils/ext/trace.c:245
     774:	2800      	cmp	r0, #0
     776:	d0db      	beq.n	730 <dhex_dump+0x70>
/mnt/disk/raspbian-tee/optee_os/lib/libutils/ext/trace.c:233 (discriminator 2)
     778:	3401      	adds	r4, #1
     77a:	e7bc      	b.n	6f6 <dhex_dump+0x36>
/mnt/disk/raspbian-tee/optee_os/lib/libutils/ext/trace.c:247
     77c:	2f0f      	cmp	r7, #15
     77e:	d1fb      	bne.n	778 <dhex_dump+0xb8>
/mnt/disk/raspbian-tee/optee_os/lib/libutils/ext/trace.c:248
     780:	9b03      	ldr	r3, [sp, #12]
     782:	4642      	mov	r2, r8
     784:	9300      	str	r3, [sp, #0]
     786:	4651      	mov	r1, sl
     788:	2301      	movs	r3, #1
     78a:	9501      	str	r5, [sp, #4]
     78c:	4648      	mov	r0, r9
     78e:	f7ff fef9 	bl	584 <trace_printf>
/mnt/disk/raspbian-tee/optee_os/lib/libutils/ext/trace.c:250
     792:	2300      	movs	r3, #0
     794:	f8c5 3100 	str.w	r3, [r5, #256]	; 0x100
     798:	e7ee      	b.n	778 <dhex_dump+0xb8>
     79a:	bf00      	nop
     79c:	00007d9c 	.word	0x00007d9c
     7a0:	00000010 	.word	0x00000010
     7a4:	00006aa1 	.word	0x00006aa1
     7a8:	00006aa1 	.word	0x00006aa1
     7ac:	000067d7 	.word	0x000067d7
     7b0:	000067bf 	.word	0x000067bf
     7b4:	00006a22 	.word	0x00006a22
     7b8:	00006a57 	.word	0x00006a57
     7bc:	00006a23 	.word	0x00006a23

000007c0 <__vsnprintf>:
__vsnprintf():
/mnt/disk/raspbian-tee/optee_os/lib/libutils/ext/snprintk.c:137
     7c0:	e92d 4ff0 	stmdb	sp!, {r4, r5, r6, r7, r8, r9, sl, fp, lr}
/mnt/disk/raspbian-tee/optee_os/lib/libutils/ext/snprintk.c:141
     7c4:	4680      	mov	r8, r0
     7c6:	461f      	mov	r7, r3
/mnt/disk/raspbian-tee/optee_os/lib/libutils/ext/snprintk.c:137
     7c8:	b09f      	sub	sp, #124	; 0x7c
kprintf():
/mnt/disk/raspbian-tee/optee_os/lib/libutils/ext/snprintk.c:269
     7ca:	2300      	movs	r3, #0
__vsnprintf():
/mnt/disk/raspbian-tee/optee_os/lib/libutils/ext/snprintk.c:137
     7cc:	920b      	str	r2, [sp, #44]	; 0x2c
     7ce:	f89d 20a0 	ldrb.w	r2, [sp, #160]	; 0xa0
     7d2:	9213      	str	r2, [sp, #76]	; 0x4c
/mnt/disk/raspbian-tee/optee_os/lib/libutils/ext/snprintk.c:141
     7d4:	4602      	mov	r2, r0
     7d6:	440a      	add	r2, r1
/mnt/disk/raspbian-tee/optee_os/lib/libutils/ext/snprintk.c:137
     7d8:	9010      	str	r0, [sp, #64]	; 0x40
     7da:	9112      	str	r1, [sp, #72]	; 0x48
/mnt/disk/raspbian-tee/optee_os/lib/libutils/ext/snprintk.c:141
     7dc:	920e      	str	r2, [sp, #56]	; 0x38
kprintf():
/mnt/disk/raspbian-tee/optee_os/lib/libutils/ext/snprintk.c:269
     7de:	930f      	str	r3, [sp, #60]	; 0x3c
/mnt/disk/raspbian-tee/optee_os/lib/libutils/ext/snprintk.c:267
     7e0:	930c      	str	r3, [sp, #48]	; 0x30
/mnt/disk/raspbian-tee/optee_os/lib/libutils/ext/snprintk.c:275
     7e2:	9b0b      	ldr	r3, [sp, #44]	; 0x2c
     7e4:	781b      	ldrb	r3, [r3, #0]
     7e6:	2b25      	cmp	r3, #37	; 0x25
     7e8:	d024      	beq.n	834 <__vsnprintf+0x74>
     7ea:	b993      	cbnz	r3, 812 <__vsnprintf+0x52>
__vsnprintf():
/mnt/disk/raspbian-tee/optee_os/lib/libutils/ext/snprintk.c:143
     7ec:	9b10      	ldr	r3, [sp, #64]	; 0x40
     7ee:	b163      	cbz	r3, 80a <__vsnprintf+0x4a>
/mnt/disk/raspbian-tee/optee_os/lib/libutils/ext/snprintk.c:143 (discriminator 1)
     7f0:	9b12      	ldr	r3, [sp, #72]	; 0x48
     7f2:	b153      	cbz	r3, 80a <__vsnprintf+0x4a>
/mnt/disk/raspbian-tee/optee_os/lib/libutils/ext/snprintk.c:145
     7f4:	9a0c      	ldr	r2, [sp, #48]	; 0x30
     7f6:	4293      	cmp	r3, r2
     7f8:	f04f 0300 	mov.w	r3, #0
/mnt/disk/raspbian-tee/optee_os/lib/libutils/ext/snprintk.c:146
     7fc:	9a10      	ldr	r2, [sp, #64]	; 0x40
/mnt/disk/raspbian-tee/optee_os/lib/libutils/ext/snprintk.c:145
     7fe:	f200 835f 	bhi.w	ec0 <__vsnprintf+0x700>
/mnt/disk/raspbian-tee/optee_os/lib/libutils/ext/snprintk.c:146
     802:	9912      	ldr	r1, [sp, #72]	; 0x48
     804:	440a      	add	r2, r1
     806:	f802 3c01 	strb.w	r3, [r2, #-1]
/mnt/disk/raspbian-tee/optee_os/lib/libutils/ext/snprintk.c:151
     80a:	980c      	ldr	r0, [sp, #48]	; 0x30
     80c:	b01f      	add	sp, #124	; 0x7c
     80e:	e8bd 8ff0 	ldmia.w	sp!, {r4, r5, r6, r7, r8, r9, sl, fp, pc}
kprintf():
/mnt/disk/raspbian-tee/optee_os/lib/libutils/ext/snprintk.c:276
     812:	9a0c      	ldr	r2, [sp, #48]	; 0x30
     814:	3201      	adds	r2, #1
     816:	920c      	str	r2, [sp, #48]	; 0x30
/mnt/disk/raspbian-tee/optee_os/lib/libutils/ext/snprintk.c:277
     818:	f1b8 0f00 	cmp.w	r8, #0
     81c:	d006      	beq.n	82c <__vsnprintf+0x6c>
     81e:	9a0e      	ldr	r2, [sp, #56]	; 0x38
     820:	4542      	cmp	r2, r8
     822:	d903      	bls.n	82c <__vsnprintf+0x6c>
     824:	f888 3000 	strb.w	r3, [r8]
     828:	f108 0801 	add.w	r8, r8, #1
/mnt/disk/raspbian-tee/optee_os/lib/libutils/ext/snprintk.c:275
     82c:	9b0b      	ldr	r3, [sp, #44]	; 0x2c
     82e:	3301      	adds	r3, #1
     830:	930b      	str	r3, [sp, #44]	; 0x2c
     832:	e7d6      	b.n	7e2 <__vsnprintf+0x22>
/mnt/disk/raspbian-tee/optee_os/lib/libutils/ext/snprintk.c:282
     834:	9b0b      	ldr	r3, [sp, #44]	; 0x2c
/mnt/disk/raspbian-tee/optee_os/lib/libutils/ext/snprintk.c:288
     836:	f04f 0a00 	mov.w	sl, #0
/mnt/disk/raspbian-tee/optee_os/lib/libutils/ext/snprintk.c:282
     83a:	463a      	mov	r2, r7
/mnt/disk/raspbian-tee/optee_os/lib/libutils/ext/snprintk.c:287
     83c:	f04f 3bff 	mov.w	fp, #4294967295	; 0xffffffff
/mnt/disk/raspbian-tee/optee_os/lib/libutils/ext/snprintk.c:282
     840:	3301      	adds	r3, #1
/mnt/disk/raspbian-tee/optee_os/lib/libutils/ext/snprintk.c:284
     842:	4656      	mov	r6, sl
/mnt/disk/raspbian-tee/optee_os/lib/libutils/ext/snprintk.c:286
     844:	f8cd a034 	str.w	sl, [sp, #52]	; 0x34
/mnt/disk/raspbian-tee/optee_os/lib/libutils/ext/snprintk.c:290
     848:	f893 9000 	ldrb.w	r9, [r3]
     84c:	1c59      	adds	r1, r3, #1
     84e:	910b      	str	r1, [sp, #44]	; 0x2c
/mnt/disk/raspbian-tee/optee_os/lib/libutils/ext/snprintk.c:291
     850:	f1b9 0f63 	cmp.w	r9, #99	; 0x63
     854:	f000 8163 	beq.w	b1e <__vsnprintf+0x35e>
     858:	f300 8095 	bgt.w	986 <__vsnprintf+0x1c6>
     85c:	f1b9 0f30 	cmp.w	r9, #48	; 0x30
     860:	f000 8147 	beq.w	af2 <__vsnprintf+0x332>
     864:	dc26      	bgt.n	8b4 <__vsnprintf+0xf4>
     866:	f1b9 0f2a 	cmp.w	r9, #42	; 0x2a
     86a:	f000 8119 	beq.w	aa0 <__vsnprintf+0x2e0>
     86e:	dc13      	bgt.n	898 <__vsnprintf+0xd8>
     870:	f1b9 0f20 	cmp.w	r9, #32
     874:	f000 810a 	beq.w	a8c <__vsnprintf+0x2cc>
     878:	f1b9 0f23 	cmp.w	r9, #35	; 0x23
     87c:	f000 810d 	beq.w	a9a <__vsnprintf+0x2da>
/mnt/disk/raspbian-tee/optee_os/lib/libutils/ext/snprintk.c:541
     880:	f1b9 0f00 	cmp.w	r9, #0
     884:	d0b2      	beq.n	7ec <__vsnprintf+0x2c>
/mnt/disk/raspbian-tee/optee_os/lib/libutils/ext/snprintk.c:545
     886:	ab1e      	add	r3, sp, #120	; 0x78
     888:	4617      	mov	r7, r2
/mnt/disk/raspbian-tee/optee_os/lib/libutils/ext/snprintk.c:546
     88a:	f04f 0b01 	mov.w	fp, #1
/mnt/disk/raspbian-tee/optee_os/lib/libutils/ext/snprintk.c:545
     88e:	f803 9d28 	strb.w	r9, [r3, #-40]!
     892:	e0c0      	b.n	a16 <__vsnprintf+0x256>
/mnt/disk/raspbian-tee/optee_os/lib/libutils/ext/snprintk.c:311
     894:	461a      	mov	r2, r3
     896:	e00b      	b.n	8b0 <__vsnprintf+0xf0>
/mnt/disk/raspbian-tee/optee_os/lib/libutils/ext/snprintk.c:291
     898:	f1b9 0f2d 	cmp.w	r9, #45	; 0x2d
     89c:	f000 8109 	beq.w	ab2 <__vsnprintf+0x2f2>
     8a0:	f1b9 0f2e 	cmp.w	r9, #46	; 0x2e
     8a4:	f000 8108 	beq.w	ab8 <__vsnprintf+0x2f8>
     8a8:	f1b9 0f2b 	cmp.w	r9, #43	; 0x2b
     8ac:	d1e8      	bne.n	880 <__vsnprintf+0xc0>
/mnt/disk/raspbian-tee/optee_os/lib/libutils/ext/snprintk.c:319
     8ae:	46ca      	mov	sl, r9
/mnt/disk/raspbian-tee/optee_os/lib/libutils/ext/snprintk.c:322
     8b0:	9b0b      	ldr	r3, [sp, #44]	; 0x2c
     8b2:	e7c9      	b.n	848 <__vsnprintf+0x88>
/mnt/disk/raspbian-tee/optee_os/lib/libutils/ext/snprintk.c:291
     8b4:	f1b9 0f44 	cmp.w	r9, #68	; 0x44
     8b8:	f000 818a 	beq.w	bd0 <__vsnprintf+0x410>
     8bc:	dc14      	bgt.n	8e8 <__vsnprintf+0x128>
     8be:	f1b9 0f39 	cmp.w	r9, #57	; 0x39
     8c2:	dcdd      	bgt.n	880 <__vsnprintf+0xc0>
     8c4:	2300      	movs	r3, #0
     8c6:	930d      	str	r3, [sp, #52]	; 0x34
/mnt/disk/raspbian-tee/optee_os/lib/libutils/ext/snprintk.c:346
     8c8:	9b0d      	ldr	r3, [sp, #52]	; 0x34
     8ca:	f1a9 0930 	sub.w	r9, r9, #48	; 0x30
     8ce:	210a      	movs	r1, #10
     8d0:	fb01 9303 	mla	r3, r1, r3, r9
     8d4:	930d      	str	r3, [sp, #52]	; 0x34
/mnt/disk/raspbian-tee/optee_os/lib/libutils/ext/snprintk.c:347
     8d6:	9b0b      	ldr	r3, [sp, #44]	; 0x2c
     8d8:	f813 9b01 	ldrb.w	r9, [r3], #1
     8dc:	930b      	str	r3, [sp, #44]	; 0x2c
/mnt/disk/raspbian-tee/optee_os/lib/libutils/ext/snprintk.c:348
     8de:	f1a9 0330 	sub.w	r3, r9, #48	; 0x30
     8e2:	2b09      	cmp	r3, #9
     8e4:	d9f0      	bls.n	8c8 <__vsnprintf+0x108>
     8e6:	e7b3      	b.n	850 <__vsnprintf+0x90>
/mnt/disk/raspbian-tee/optee_os/lib/libutils/ext/snprintk.c:291
     8e8:	f1b9 0f55 	cmp.w	r9, #85	; 0x55
     8ec:	f000 823d 	beq.w	d6a <__vsnprintf+0x5aa>
     8f0:	f1b9 0f58 	cmp.w	r9, #88	; 0x58
     8f4:	f000 80ab 	beq.w	a4e <__vsnprintf+0x28e>
     8f8:	f1b9 0f4f 	cmp.w	r9, #79	; 0x4f
     8fc:	d1c0      	bne.n	880 <__vsnprintf+0xc0>
/mnt/disk/raspbian-tee/optee_os/lib/libutils/ext/snprintk.c:408
     8fe:	f046 0610 	orr.w	r6, r6, #16
/mnt/disk/raspbian-tee/optee_os/lib/libutils/ext/snprintk.c:411
     902:	0635      	lsls	r5, r6, #24
     904:	f140 81c0 	bpl.w	c88 <__vsnprintf+0x4c8>
     908:	3207      	adds	r2, #7
     90a:	f022 0207 	bic.w	r2, r2, #7
     90e:	f102 0708 	add.w	r7, r2, #8
     912:	e9d2 4500 	ldrd	r4, r5, [r2]
/mnt/disk/raspbian-tee/optee_os/lib/libutils/ext/snprintk.c:488
     916:	f04f 0a00 	mov.w	sl, #0
     91a:	f1bb 3fff 	cmp.w	fp, #4294967295	; 0xffffffff
     91e:	d011      	beq.n	944 <__vsnprintf+0x184>
     920:	4653      	mov	r3, sl
/mnt/disk/raspbian-tee/optee_os/lib/libutils/ext/snprintk.c:489
     922:	f426 6680 	bic.w	r6, r6, #1024	; 0x400
/mnt/disk/raspbian-tee/optee_os/lib/libutils/ext/snprintk.c:497
     926:	ea54 0205 	orrs.w	r2, r4, r5
     92a:	d105      	bne.n	938 <__vsnprintf+0x178>
     92c:	f1bb 0f00 	cmp.w	fp, #0
     930:	f000 8269 	beq.w	e06 <__vsnprintf+0x646>
     934:	2400      	movs	r4, #0
     936:	2500      	movs	r5, #0
/mnt/disk/raspbian-tee/optee_os/lib/libutils/ext/snprintk.c:503
     938:	2b01      	cmp	r3, #1
     93a:	f000 8161 	beq.w	c00 <__vsnprintf+0x440>
     93e:	2b02      	cmp	r3, #2
     940:	f000 81f8 	beq.w	d34 <__vsnprintf+0x574>
/mnt/disk/raspbian-tee/optee_os/lib/libutils/ext/snprintk.c:488
     944:	f10d 0275 	add.w	r2, sp, #117	; 0x75
/mnt/disk/raspbian-tee/optee_os/lib/libutils/ext/snprintk.c:507
     948:	08e0      	lsrs	r0, r4, #3
     94a:	ea4f 0cd5 	mov.w	ip, r5, lsr #3
     94e:	ea40 7045 	orr.w	r0, r0, r5, lsl #29
/mnt/disk/raspbian-tee/optee_os/lib/libutils/ext/snprintk.c:506
     952:	f004 0107 	and.w	r1, r4, #7
/mnt/disk/raspbian-tee/optee_os/lib/libutils/ext/snprintk.c:507
     956:	4665      	mov	r5, ip
     958:	4604      	mov	r4, r0
/mnt/disk/raspbian-tee/optee_os/lib/libutils/ext/snprintk.c:506
     95a:	3130      	adds	r1, #48	; 0x30
     95c:	1e53      	subs	r3, r2, #1
     95e:	f802 1c01 	strb.w	r1, [r2, #-1]
/mnt/disk/raspbian-tee/optee_os/lib/libutils/ext/snprintk.c:508
     962:	ea54 0005 	orrs.w	r0, r4, r5
     966:	f040 8239 	bne.w	ddc <__vsnprintf+0x61c>
/mnt/disk/raspbian-tee/optee_os/lib/libutils/ext/snprintk.c:510
     96a:	07f5      	lsls	r5, r6, #31
     96c:	d505      	bpl.n	97a <__vsnprintf+0x1ba>
     96e:	2930      	cmp	r1, #48	; 0x30
     970:	d003      	beq.n	97a <__vsnprintf+0x1ba>
/mnt/disk/raspbian-tee/optee_os/lib/libutils/ext/snprintk.c:511
     972:	2130      	movs	r1, #48	; 0x30
     974:	f803 1c01 	strb.w	r1, [r3, #-1]
     978:	1e93      	subs	r3, r2, #2
/mnt/disk/raspbian-tee/optee_os/lib/libutils/ext/snprintk.c:537
     97a:	f10d 0275 	add.w	r2, sp, #117	; 0x75
     97e:	4658      	mov	r0, fp
     980:	eba2 0b03 	sub.w	fp, r2, r3
     984:	e0d5      	b.n	b32 <__vsnprintf+0x372>
/mnt/disk/raspbian-tee/optee_os/lib/libutils/ext/snprintk.c:291
     986:	f1b9 0f6f 	cmp.w	r9, #111	; 0x6f
     98a:	d0ba      	beq.n	902 <__vsnprintf+0x142>
     98c:	dc1e      	bgt.n	9cc <__vsnprintf+0x20c>
     98e:	f1b9 0f69 	cmp.w	r9, #105	; 0x69
     992:	f000 811f 	beq.w	bd4 <__vsnprintf+0x414>
     996:	dc0a      	bgt.n	9ae <__vsnprintf+0x1ee>
     998:	f1b9 0f64 	cmp.w	r9, #100	; 0x64
     99c:	f000 811a 	beq.w	bd4 <__vsnprintf+0x414>
     9a0:	f1b9 0f68 	cmp.w	r9, #104	; 0x68
     9a4:	f47f af6c 	bne.w	880 <__vsnprintf+0xc0>
/mnt/disk/raspbian-tee/optee_os/lib/libutils/ext/snprintk.c:352
     9a8:	f046 0640 	orr.w	r6, r6, #64	; 0x40
     9ac:	e780      	b.n	8b0 <__vsnprintf+0xf0>
/mnt/disk/raspbian-tee/optee_os/lib/libutils/ext/snprintk.c:291
     9ae:	f1b9 0f6c 	cmp.w	r9, #108	; 0x6c
     9b2:	f000 80a1 	beq.w	af8 <__vsnprintf+0x338>
     9b6:	f1b9 0f6e 	cmp.w	r9, #110	; 0x6e
     9ba:	f000 8146 	beq.w	c4a <__vsnprintf+0x48a>
     9be:	f1b9 0f6a 	cmp.w	r9, #106	; 0x6a
     9c2:	f47f af5d 	bne.w	880 <__vsnprintf+0xc0>
/mnt/disk/raspbian-tee/optee_os/lib/libutils/ext/snprintk.c:355
     9c6:	f046 0680 	orr.w	r6, r6, #128	; 0x80
     9ca:	e771      	b.n	8b0 <__vsnprintf+0xf0>
/mnt/disk/raspbian-tee/optee_os/lib/libutils/ext/snprintk.c:291
     9cc:	f1b9 0f74 	cmp.w	r9, #116	; 0x74
     9d0:	f000 809f 	beq.w	b12 <__vsnprintf+0x352>
     9d4:	dc22      	bgt.n	a1c <__vsnprintf+0x25c>
     9d6:	f1b9 0f71 	cmp.w	r9, #113	; 0x71
     9da:	f000 8094 	beq.w	b06 <__vsnprintf+0x346>
     9de:	f2c0 8167 	blt.w	cb0 <__vsnprintf+0x4f0>
     9e2:	f1b9 0f73 	cmp.w	r9, #115	; 0x73
     9e6:	f47f af4b 	bne.w	880 <__vsnprintf+0xc0>
/mnt/disk/raspbian-tee/optee_os/lib/libutils/ext/snprintk.c:442
     9ea:	6813      	ldr	r3, [r2, #0]
     9ec:	1d17      	adds	r7, r2, #4
     9ee:	b913      	cbnz	r3, 9f6 <__vsnprintf+0x236>
/mnt/disk/raspbian-tee/optee_os/lib/libutils/ext/snprintk.c:444
     9f0:	f8df 34ec 	ldr.w	r3, [pc, #1260]	; ee0 <__vsnprintf+0x720>
     9f4:	447b      	add	r3, pc
/mnt/disk/raspbian-tee/optee_os/lib/libutils/ext/snprintk.c:445
     9f6:	f1bb 3fff 	cmp.w	fp, #4294967295	; 0xffffffff
     9fa:	f000 81ad 	beq.w	d58 <__vsnprintf+0x598>
/mnt/disk/raspbian-tee/optee_os/lib/libutils/ext/snprintk.c:451
     9fe:	4618      	mov	r0, r3
     a00:	465a      	mov	r2, fp
     a02:	2100      	movs	r1, #0
     a04:	9311      	str	r3, [sp, #68]	; 0x44
     a06:	f005 fefe 	bl	6806 <memchr>
/mnt/disk/raspbian-tee/optee_os/lib/libutils/ext/snprintk.c:453
     a0a:	9b11      	ldr	r3, [sp, #68]	; 0x44
     a0c:	b120      	cbz	r0, a18 <__vsnprintf+0x258>
/mnt/disk/raspbian-tee/optee_os/lib/libutils/ext/snprintk.c:454
     a0e:	1ac0      	subs	r0, r0, r3
     a10:	4583      	cmp	fp, r0
     a12:	bfa8      	it	ge
     a14:	4683      	movge	fp, r0
/mnt/disk/raspbian-tee/optee_os/lib/libutils/ext/snprintk.c:285
     a16:	2000      	movs	r0, #0
/mnt/disk/raspbian-tee/optee_os/lib/libutils/ext/snprintk.c:461
     a18:	4682      	mov	sl, r0
     a1a:	e08a      	b.n	b32 <__vsnprintf+0x372>
/mnt/disk/raspbian-tee/optee_os/lib/libutils/ext/snprintk.c:291
     a1c:	f1b9 0f78 	cmp.w	r9, #120	; 0x78
     a20:	f000 81c2 	beq.w	da8 <__vsnprintf+0x5e8>
     a24:	f1b9 0f7a 	cmp.w	r9, #122	; 0x7a
     a28:	d076      	beq.n	b18 <__vsnprintf+0x358>
     a2a:	f1b9 0f75 	cmp.w	r9, #117	; 0x75
     a2e:	f47f af27 	bne.w	880 <__vsnprintf+0xc0>
/mnt/disk/raspbian-tee/optee_os/lib/libutils/ext/snprintk.c:467
     a32:	f016 0380 	ands.w	r3, r6, #128	; 0x80
     a36:	f000 819b 	beq.w	d70 <__vsnprintf+0x5b0>
     a3a:	3207      	adds	r2, #7
     a3c:	f022 0207 	bic.w	r2, r2, #7
     a40:	f102 0708 	add.w	r7, r2, #8
     a44:	e9d2 4500 	ldrd	r4, r5, [r2]
/mnt/disk/raspbian-tee/optee_os/lib/libutils/ext/snprintk.c:482
     a48:	f04f 0a00 	mov.w	sl, #0
     a4c:	e0d4      	b.n	bf8 <__vsnprintf+0x438>
/mnt/disk/raspbian-tee/optee_os/lib/libutils/ext/snprintk.c:471
     a4e:	f8df 3494 	ldr.w	r3, [pc, #1172]	; ee4 <__vsnprintf+0x724>
     a52:	447b      	add	r3, pc
/mnt/disk/raspbian-tee/optee_os/lib/libutils/ext/snprintk.c:474
     a54:	930f      	str	r3, [sp, #60]	; 0x3c
/mnt/disk/raspbian-tee/optee_os/lib/libutils/ext/snprintk.c:475
     a56:	0637      	lsls	r7, r6, #24
     a58:	f140 81aa 	bpl.w	db0 <__vsnprintf+0x5f0>
     a5c:	3207      	adds	r2, #7
     a5e:	f022 0207 	bic.w	r2, r2, #7
     a62:	f102 0708 	add.w	r7, r2, #8
     a66:	e9d2 4500 	ldrd	r4, r5, [r2]
/mnt/disk/raspbian-tee/optee_os/lib/libutils/ext/snprintk.c:478
     a6a:	07f3      	lsls	r3, r6, #31
     a6c:	f140 815c 	bpl.w	d28 <__vsnprintf+0x568>
     a70:	ea54 0305 	orrs.w	r3, r4, r5
     a74:	f000 822d 	beq.w	ed2 <__vsnprintf+0x712>
/mnt/disk/raspbian-tee/optee_os/lib/libutils/ext/snprintk.c:479
     a78:	f046 0602 	orr.w	r6, r6, #2
/mnt/disk/raspbian-tee/optee_os/lib/libutils/ext/snprintk.c:488
     a7c:	f1bb 3fff 	cmp.w	fp, #4294967295	; 0xffffffff
     a80:	f000 822a 	beq.w	ed8 <__vsnprintf+0x718>
     a84:	f04f 0a00 	mov.w	sl, #0
     a88:	2302      	movs	r3, #2
     a8a:	e74a      	b.n	922 <__vsnprintf+0x162>
/mnt/disk/raspbian-tee/optee_os/lib/libutils/ext/snprintk.c:299
     a8c:	f1ba 0f00 	cmp.w	sl, #0
     a90:	f04f 0320 	mov.w	r3, #32
     a94:	bf08      	it	eq
     a96:	469a      	moveq	sl, r3
     a98:	e70a      	b.n	8b0 <__vsnprintf+0xf0>
/mnt/disk/raspbian-tee/optee_os/lib/libutils/ext/snprintk.c:302
     a9a:	f046 0601 	orr.w	r6, r6, #1
     a9e:	e707      	b.n	8b0 <__vsnprintf+0xf0>
/mnt/disk/raspbian-tee/optee_os/lib/libutils/ext/snprintk.c:311
     aa0:	1d13      	adds	r3, r2, #4
     aa2:	6812      	ldr	r2, [r2, #0]
     aa4:	920d      	str	r2, [sp, #52]	; 0x34
     aa6:	2a00      	cmp	r2, #0
     aa8:	f6bf aef4 	bge.w	894 <__vsnprintf+0xd4>
/mnt/disk/raspbian-tee/optee_os/lib/libutils/ext/snprintk.c:313
     aac:	4252      	negs	r2, r2
     aae:	920d      	str	r2, [sp, #52]	; 0x34
/mnt/disk/raspbian-tee/optee_os/lib/libutils/ext/snprintk.c:311
     ab0:	461a      	mov	r2, r3
/mnt/disk/raspbian-tee/optee_os/lib/libutils/ext/snprintk.c:316
     ab2:	f046 0604 	orr.w	r6, r6, #4
     ab6:	e6fb      	b.n	8b0 <__vsnprintf+0xf0>
/mnt/disk/raspbian-tee/optee_os/lib/libutils/ext/snprintk.c:322
     ab8:	990b      	ldr	r1, [sp, #44]	; 0x2c
     aba:	9b0b      	ldr	r3, [sp, #44]	; 0x2c
     abc:	f891 9000 	ldrb.w	r9, [r1]
     ac0:	3301      	adds	r3, #1
     ac2:	f1b9 0f2a 	cmp.w	r9, #42	; 0x2a
     ac6:	d00e      	beq.n	ae6 <__vsnprintf+0x326>
     ac8:	f04f 0b00 	mov.w	fp, #0
/mnt/disk/raspbian-tee/optee_os/lib/libutils/ext/snprintk.c:330
     acc:	930b      	str	r3, [sp, #44]	; 0x2c
/mnt/disk/raspbian-tee/optee_os/lib/libutils/ext/snprintk.c:328
     ace:	f1a9 0330 	sub.w	r3, r9, #48	; 0x30
     ad2:	2b09      	cmp	r3, #9
     ad4:	f63f aebc 	bhi.w	850 <__vsnprintf+0x90>
/mnt/disk/raspbian-tee/optee_os/lib/libutils/ext/snprintk.c:329
     ad8:	210a      	movs	r1, #10
     ada:	fb01 3b0b 	mla	fp, r1, fp, r3
/mnt/disk/raspbian-tee/optee_os/lib/libutils/ext/snprintk.c:330
     ade:	9b0b      	ldr	r3, [sp, #44]	; 0x2c
     ae0:	f813 9b01 	ldrb.w	r9, [r3], #1
     ae4:	e7f2      	b.n	acc <__vsnprintf+0x30c>
/mnt/disk/raspbian-tee/optee_os/lib/libutils/ext/snprintk.c:324
     ae6:	6811      	ldr	r1, [r2, #0]
/mnt/disk/raspbian-tee/optee_os/lib/libutils/ext/snprintk.c:323
     ae8:	3204      	adds	r2, #4
/mnt/disk/raspbian-tee/optee_os/lib/libutils/ext/snprintk.c:322
     aea:	930b      	str	r3, [sp, #44]	; 0x2c
/mnt/disk/raspbian-tee/optee_os/lib/libutils/ext/snprintk.c:324
     aec:	ea41 7be1 	orr.w	fp, r1, r1, asr #31
     af0:	e6de      	b.n	8b0 <__vsnprintf+0xf0>
/mnt/disk/raspbian-tee/optee_os/lib/libutils/ext/snprintk.c:340
     af2:	f446 6680 	orr.w	r6, r6, #1024	; 0x400
     af6:	e6db      	b.n	8b0 <__vsnprintf+0xf0>
/mnt/disk/raspbian-tee/optee_os/lib/libutils/ext/snprintk.c:358
     af8:	9b0b      	ldr	r3, [sp, #44]	; 0x2c
     afa:	781b      	ldrb	r3, [r3, #0]
     afc:	2b6c      	cmp	r3, #108	; 0x6c
     afe:	d105      	bne.n	b0c <__vsnprintf+0x34c>
/mnt/disk/raspbian-tee/optee_os/lib/libutils/ext/snprintk.c:359
     b00:	9b0b      	ldr	r3, [sp, #44]	; 0x2c
     b02:	3301      	adds	r3, #1
     b04:	930b      	str	r3, [sp, #44]	; 0x2c
/mnt/disk/raspbian-tee/optee_os/lib/libutils/ext/snprintk.c:366
     b06:	f046 0620 	orr.w	r6, r6, #32
     b0a:	e6d1      	b.n	8b0 <__vsnprintf+0xf0>
/mnt/disk/raspbian-tee/optee_os/lib/libutils/ext/snprintk.c:362
     b0c:	f046 0610 	orr.w	r6, r6, #16
     b10:	e6ce      	b.n	8b0 <__vsnprintf+0xf0>
/mnt/disk/raspbian-tee/optee_os/lib/libutils/ext/snprintk.c:369
     b12:	f446 7680 	orr.w	r6, r6, #256	; 0x100
     b16:	e6cb      	b.n	8b0 <__vsnprintf+0xf0>
/mnt/disk/raspbian-tee/optee_os/lib/libutils/ext/snprintk.c:372
     b18:	f446 7600 	orr.w	r6, r6, #512	; 0x200
     b1c:	e6c8      	b.n	8b0 <__vsnprintf+0xf0>
/mnt/disk/raspbian-tee/optee_os/lib/libutils/ext/snprintk.c:375
     b1e:	ab1e      	add	r3, sp, #120	; 0x78
/mnt/disk/raspbian-tee/optee_os/lib/libutils/ext/snprintk.c:285
     b20:	f04f 0a00 	mov.w	sl, #0
/mnt/disk/raspbian-tee/optee_os/lib/libutils/ext/snprintk.c:375
     b24:	1d17      	adds	r7, r2, #4
/mnt/disk/raspbian-tee/optee_os/lib/libutils/ext/snprintk.c:376
     b26:	f04f 0b01 	mov.w	fp, #1
/mnt/disk/raspbian-tee/optee_os/lib/libutils/ext/snprintk.c:375
     b2a:	6812      	ldr	r2, [r2, #0]
/mnt/disk/raspbian-tee/optee_os/lib/libutils/ext/snprintk.c:377
     b2c:	4650      	mov	r0, sl
/mnt/disk/raspbian-tee/optee_os/lib/libutils/ext/snprintk.c:375
     b2e:	f803 2d28 	strb.w	r2, [r3, #-40]!
/mnt/disk/raspbian-tee/optee_os/lib/libutils/ext/snprintk.c:565
     b32:	4558      	cmp	r0, fp
     b34:	4602      	mov	r2, r0
     b36:	bfb8      	it	lt
     b38:	465a      	movlt	r2, fp
/mnt/disk/raspbian-tee/optee_os/lib/libutils/ext/snprintk.c:566
     b3a:	f1ba 0f00 	cmp.w	sl, #0
     b3e:	f000 8165 	beq.w	e0c <__vsnprintf+0x64c>
/mnt/disk/raspbian-tee/optee_os/lib/libutils/ext/snprintk.c:567
     b42:	3201      	adds	r2, #1
/mnt/disk/raspbian-tee/optee_os/lib/libutils/ext/snprintk.c:572
     b44:	990d      	ldr	r1, [sp, #52]	; 0x34
     b46:	9c0c      	ldr	r4, [sp, #48]	; 0x30
     b48:	4291      	cmp	r1, r2
     b4a:	bfb8      	it	lt
     b4c:	4611      	movlt	r1, r2
     b4e:	440c      	add	r4, r1
/mnt/disk/raspbian-tee/optee_os/lib/libutils/ext/snprintk.c:575
     b50:	f240 4104 	movw	r1, #1028	; 0x404
/mnt/disk/raspbian-tee/optee_os/lib/libutils/ext/snprintk.c:572
     b54:	940c      	str	r4, [sp, #48]	; 0x30
/mnt/disk/raspbian-tee/optee_os/lib/libutils/ext/snprintk.c:575
     b56:	ea16 0401 	ands.w	r4, r6, r1
     b5a:	d106      	bne.n	b6a <__vsnprintf+0x3aa>
/mnt/disk/raspbian-tee/optee_os/lib/libutils/ext/snprintk.c:576
     b5c:	990d      	ldr	r1, [sp, #52]	; 0x34
/mnt/disk/raspbian-tee/optee_os/lib/libutils/ext/snprintk.c:578
     b5e:	f04f 0c20 	mov.w	ip, #32
/mnt/disk/raspbian-tee/optee_os/lib/libutils/ext/snprintk.c:576
     b62:	1a89      	subs	r1, r1, r2
/mnt/disk/raspbian-tee/optee_os/lib/libutils/ext/snprintk.c:577
     b64:	2900      	cmp	r1, #0
     b66:	f300 8155 	bgt.w	e14 <__vsnprintf+0x654>
/mnt/disk/raspbian-tee/optee_os/lib/libutils/ext/snprintk.c:582
     b6a:	f1ba 0f00 	cmp.w	sl, #0
     b6e:	f000 8166 	beq.w	e3e <__vsnprintf+0x67e>
/mnt/disk/raspbian-tee/optee_os/lib/libutils/ext/snprintk.c:583
     b72:	f1b8 0f00 	cmp.w	r8, #0
     b76:	f040 8159 	bne.w	e2c <__vsnprintf+0x66c>
/mnt/disk/raspbian-tee/optee_os/lib/libutils/ext/snprintk.c:586
     b7a:	f04f 0800 	mov.w	r8, #0
/mnt/disk/raspbian-tee/optee_os/lib/libutils/ext/snprintk.c:590
     b7e:	f5b4 6f80 	cmp.w	r4, #1024	; 0x400
     b82:	d105      	bne.n	b90 <__vsnprintf+0x3d0>
/mnt/disk/raspbian-tee/optee_os/lib/libutils/ext/snprintk.c:591
     b84:	990d      	ldr	r1, [sp, #52]	; 0x34
/mnt/disk/raspbian-tee/optee_os/lib/libutils/ext/snprintk.c:593
     b86:	2430      	movs	r4, #48	; 0x30
/mnt/disk/raspbian-tee/optee_os/lib/libutils/ext/snprintk.c:591
     b88:	1a89      	subs	r1, r1, r2
/mnt/disk/raspbian-tee/optee_os/lib/libutils/ext/snprintk.c:592
     b8a:	2900      	cmp	r1, #0
     b8c:	f300 8173 	bgt.w	e76 <__vsnprintf+0x6b6>
/mnt/disk/raspbian-tee/optee_os/lib/libutils/ext/snprintk.c:597
     b90:	eba0 000b 	sub.w	r0, r0, fp
/mnt/disk/raspbian-tee/optee_os/lib/libutils/ext/snprintk.c:599
     b94:	2130      	movs	r1, #48	; 0x30
/mnt/disk/raspbian-tee/optee_os/lib/libutils/ext/snprintk.c:598
     b96:	2800      	cmp	r0, #0
     b98:	f300 8179 	bgt.w	e8e <__vsnprintf+0x6ce>
     b9c:	eb03 010b 	add.w	r1, r3, fp
/mnt/disk/raspbian-tee/optee_os/lib/libutils/ext/snprintk.c:602
     ba0:	428b      	cmp	r3, r1
     ba2:	f040 8180 	bne.w	ea6 <__vsnprintf+0x6e6>
/mnt/disk/raspbian-tee/optee_os/lib/libutils/ext/snprintk.c:605
     ba6:	0773      	lsls	r3, r6, #29
     ba8:	f57f ae1b 	bpl.w	7e2 <__vsnprintf+0x22>
/mnt/disk/raspbian-tee/optee_os/lib/libutils/ext/snprintk.c:606
     bac:	9b0d      	ldr	r3, [sp, #52]	; 0x34
     bae:	1a9b      	subs	r3, r3, r2
/mnt/disk/raspbian-tee/optee_os/lib/libutils/ext/snprintk.c:608
     bb0:	2220      	movs	r2, #32
/mnt/disk/raspbian-tee/optee_os/lib/libutils/ext/snprintk.c:607
     bb2:	2b00      	cmp	r3, #0
     bb4:	f77f ae15 	ble.w	7e2 <__vsnprintf+0x22>
/mnt/disk/raspbian-tee/optee_os/lib/libutils/ext/snprintk.c:608
     bb8:	f1b8 0f00 	cmp.w	r8, #0
     bbc:	d006      	beq.n	bcc <__vsnprintf+0x40c>
     bbe:	990e      	ldr	r1, [sp, #56]	; 0x38
     bc0:	4541      	cmp	r1, r8
     bc2:	d903      	bls.n	bcc <__vsnprintf+0x40c>
     bc4:	f888 2000 	strb.w	r2, [r8]
     bc8:	f108 0801 	add.w	r8, r8, #1
     bcc:	3b01      	subs	r3, #1
     bce:	e7f0      	b.n	bb2 <__vsnprintf+0x3f2>
/mnt/disk/raspbian-tee/optee_os/lib/libutils/ext/snprintk.c:380
     bd0:	f046 0610 	orr.w	r6, r6, #16
/mnt/disk/raspbian-tee/optee_os/lib/libutils/ext/snprintk.c:384
     bd4:	0631      	lsls	r1, r6, #24
     bd6:	d523      	bpl.n	c20 <__vsnprintf+0x460>
     bd8:	3207      	adds	r2, #7
     bda:	f022 0207 	bic.w	r2, r2, #7
     bde:	f102 0708 	add.w	r7, r2, #8
     be2:	e9d2 4500 	ldrd	r4, r5, [r2]
/mnt/disk/raspbian-tee/optee_os/lib/libutils/ext/snprintk.c:385
     be6:	2c00      	cmp	r4, #0
     be8:	f175 0300 	sbcs.w	r3, r5, #0
     bec:	da04      	bge.n	bf8 <__vsnprintf+0x438>
/mnt/disk/raspbian-tee/optee_os/lib/libutils/ext/snprintk.c:386
     bee:	4264      	negs	r4, r4
/mnt/disk/raspbian-tee/optee_os/lib/libutils/ext/snprintk.c:387
     bf0:	f04f 0a2d 	mov.w	sl, #45	; 0x2d
/mnt/disk/raspbian-tee/optee_os/lib/libutils/ext/snprintk.c:386
     bf4:	eb65 0545 	sbc.w	r5, r5, r5, lsl #1
/mnt/disk/raspbian-tee/optee_os/lib/libutils/ext/snprintk.c:488
     bf8:	f1bb 3fff 	cmp.w	fp, #4294967295	; 0xffffffff
     bfc:	f040 80ec 	bne.w	dd8 <__vsnprintf+0x618>
/mnt/disk/raspbian-tee/optee_os/lib/libutils/ext/snprintk.c:508
     c00:	f10d 0375 	add.w	r3, sp, #117	; 0x75
     c04:	9311      	str	r3, [sp, #68]	; 0x44
     c06:	9b11      	ldr	r3, [sp, #68]	; 0x44
/mnt/disk/raspbian-tee/optee_os/lib/libutils/ext/snprintk.c:516
     c08:	2d00      	cmp	r5, #0
     c0a:	bf08      	it	eq
     c0c:	2c0a      	cmpeq	r4, #10
     c0e:	f103 33ff 	add.w	r3, r3, #4294967295	; 0xffffffff
     c12:	f080 80e5 	bcs.w	de0 <__vsnprintf+0x620>
/mnt/disk/raspbian-tee/optee_os/lib/libutils/ext/snprintk.c:520
     c16:	9a11      	ldr	r2, [sp, #68]	; 0x44
     c18:	3430      	adds	r4, #48	; 0x30
     c1a:	f802 4c01 	strb.w	r4, [r2, #-1]
     c1e:	e6ac      	b.n	97a <__vsnprintf+0x1ba>
/mnt/disk/raspbian-tee/optee_os/lib/libutils/ext/snprintk.c:384
     c20:	05f3      	lsls	r3, r6, #23
     c22:	d503      	bpl.n	c2c <__vsnprintf+0x46c>
     c24:	1d17      	adds	r7, r2, #4
     c26:	6814      	ldr	r4, [r2, #0]
     c28:	17e5      	asrs	r5, r4, #31
     c2a:	e7dc      	b.n	be6 <__vsnprintf+0x426>
     c2c:	05b7      	lsls	r7, r6, #22
     c2e:	d4f9      	bmi.n	c24 <__vsnprintf+0x464>
     c30:	06b5      	lsls	r5, r6, #26
     c32:	d4d1      	bmi.n	bd8 <__vsnprintf+0x418>
     c34:	f016 0f10 	tst.w	r6, #16
     c38:	f102 0704 	add.w	r7, r2, #4
     c3c:	d1f3      	bne.n	c26 <__vsnprintf+0x466>
     c3e:	f016 0f40 	tst.w	r6, #64	; 0x40
     c42:	6814      	ldr	r4, [r2, #0]
     c44:	d0f0      	beq.n	c28 <__vsnprintf+0x468>
     c46:	b224      	sxth	r4, r4
     c48:	e7ee      	b.n	c28 <__vsnprintf+0x468>
/mnt/disk/raspbian-tee/optee_os/lib/libutils/ext/snprintk.c:392
     c4a:	f016 0f80 	tst.w	r6, #128	; 0x80
     c4e:	f102 0704 	add.w	r7, r2, #4
     c52:	d006      	beq.n	c62 <__vsnprintf+0x4a2>
/mnt/disk/raspbian-tee/optee_os/lib/libutils/ext/snprintk.c:399
     c54:	6813      	ldr	r3, [r2, #0]
     c56:	9a0c      	ldr	r2, [sp, #48]	; 0x30
     c58:	4610      	mov	r0, r2
     c5a:	17d1      	asrs	r1, r2, #31
     c5c:	e9c3 0100 	strd	r0, r1, [r3]
     c60:	e5bf      	b.n	7e2 <__vsnprintf+0x22>
/mnt/disk/raspbian-tee/optee_os/lib/libutils/ext/snprintk.c:394
     c62:	05f4      	lsls	r4, r6, #23
     c64:	d503      	bpl.n	c6e <__vsnprintf+0x4ae>
/mnt/disk/raspbian-tee/optee_os/lib/libutils/ext/snprintk.c:405
     c66:	6813      	ldr	r3, [r2, #0]
     c68:	9a0c      	ldr	r2, [sp, #48]	; 0x30
     c6a:	601a      	str	r2, [r3, #0]
     c6c:	e5b9      	b.n	7e2 <__vsnprintf+0x22>
/mnt/disk/raspbian-tee/optee_os/lib/libutils/ext/snprintk.c:396
     c6e:	05b0      	lsls	r0, r6, #22
     c70:	d4f9      	bmi.n	c66 <__vsnprintf+0x4a6>
/mnt/disk/raspbian-tee/optee_os/lib/libutils/ext/snprintk.c:398
     c72:	06b1      	lsls	r1, r6, #26
     c74:	d4ee      	bmi.n	c54 <__vsnprintf+0x494>
/mnt/disk/raspbian-tee/optee_os/lib/libutils/ext/snprintk.c:400
     c76:	06f3      	lsls	r3, r6, #27
     c78:	d4f5      	bmi.n	c66 <__vsnprintf+0x4a6>
/mnt/disk/raspbian-tee/optee_os/lib/libutils/ext/snprintk.c:402
     c7a:	0676      	lsls	r6, r6, #25
     c7c:	d5f3      	bpl.n	c66 <__vsnprintf+0x4a6>
/mnt/disk/raspbian-tee/optee_os/lib/libutils/ext/snprintk.c:403
     c7e:	6813      	ldr	r3, [r2, #0]
     c80:	f8bd 2030 	ldrh.w	r2, [sp, #48]	; 0x30
     c84:	801a      	strh	r2, [r3, #0]
     c86:	e5ac      	b.n	7e2 <__vsnprintf+0x22>
/mnt/disk/raspbian-tee/optee_os/lib/libutils/ext/snprintk.c:411
     c88:	05f4      	lsls	r4, r6, #23
     c8a:	d502      	bpl.n	c92 <__vsnprintf+0x4d2>
     c8c:	1d17      	adds	r7, r2, #4
     c8e:	6814      	ldr	r4, [r2, #0]
     c90:	e00c      	b.n	cac <__vsnprintf+0x4ec>
     c92:	05b0      	lsls	r0, r6, #22
     c94:	d4fa      	bmi.n	c8c <__vsnprintf+0x4cc>
     c96:	06b1      	lsls	r1, r6, #26
     c98:	f53f ae36 	bmi.w	908 <__vsnprintf+0x148>
     c9c:	f016 0f10 	tst.w	r6, #16
     ca0:	f102 0704 	add.w	r7, r2, #4
     ca4:	d1f3      	bne.n	c8e <__vsnprintf+0x4ce>
     ca6:	0673      	lsls	r3, r6, #25
     ca8:	d5f1      	bpl.n	c8e <__vsnprintf+0x4ce>
     caa:	8814      	ldrh	r4, [r2, #0]
     cac:	2500      	movs	r5, #0
     cae:	e632      	b.n	916 <__vsnprintf+0x156>
/mnt/disk/raspbian-tee/optee_os/lib/libutils/ext/snprintk.c:415
     cb0:	9b13      	ldr	r3, [sp, #76]	; 0x4c
     cb2:	2b00      	cmp	r3, #0
     cb4:	d02d      	beq.n	d12 <__vsnprintf+0x552>
     cb6:	9b0b      	ldr	r3, [sp, #44]	; 0x2c
     cb8:	781b      	ldrb	r3, [r3, #0]
     cba:	2b55      	cmp	r3, #85	; 0x55
     cbc:	d129      	bne.n	d12 <__vsnprintf+0x552>
     cbe:	9b0b      	ldr	r3, [sp, #44]	; 0x2c
     cc0:	785b      	ldrb	r3, [r3, #1]
     cc2:	2b6c      	cmp	r3, #108	; 0x6c
     cc4:	d125      	bne.n	d12 <__vsnprintf+0x552>
/mnt/disk/raspbian-tee/optee_os/lib/libutils/ext/snprintk.c:420
     cc6:	9b0b      	ldr	r3, [sp, #44]	; 0x2c
/mnt/disk/raspbian-tee/optee_os/lib/libutils/ext/snprintk.c:421
     cc8:	1d17      	adds	r7, r2, #4
uuid2str():
/mnt/disk/raspbian-tee/optee_os/lib/libutils/ext/snprintk.c:223
     cca:	ac14      	add	r4, sp, #80	; 0x50
     ccc:	2125      	movs	r1, #37	; 0x25
kprintf():
/mnt/disk/raspbian-tee/optee_os/lib/libutils/ext/snprintk.c:420
     cce:	3302      	adds	r3, #2
     cd0:	930b      	str	r3, [sp, #44]	; 0x2c
/mnt/disk/raspbian-tee/optee_os/lib/libutils/ext/snprintk.c:421
     cd2:	6813      	ldr	r3, [r2, #0]
uuid2str():
/mnt/disk/raspbian-tee/optee_os/lib/libutils/ext/snprintk.c:223
     cd4:	4620      	mov	r0, r4
     cd6:	7bda      	ldrb	r2, [r3, #15]
     cd8:	9209      	str	r2, [sp, #36]	; 0x24
     cda:	7b9a      	ldrb	r2, [r3, #14]
     cdc:	9208      	str	r2, [sp, #32]
     cde:	7b5a      	ldrb	r2, [r3, #13]
     ce0:	9207      	str	r2, [sp, #28]
     ce2:	7b1a      	ldrb	r2, [r3, #12]
     ce4:	9206      	str	r2, [sp, #24]
     ce6:	7ada      	ldrb	r2, [r3, #11]
     ce8:	9205      	str	r2, [sp, #20]
     cea:	7a9a      	ldrb	r2, [r3, #10]
     cec:	9204      	str	r2, [sp, #16]
     cee:	7a5a      	ldrb	r2, [r3, #9]
     cf0:	9203      	str	r2, [sp, #12]
     cf2:	7a1a      	ldrb	r2, [r3, #8]
     cf4:	9202      	str	r2, [sp, #8]
     cf6:	88da      	ldrh	r2, [r3, #6]
     cf8:	9201      	str	r2, [sp, #4]
     cfa:	889a      	ldrh	r2, [r3, #4]
     cfc:	9200      	str	r2, [sp, #0]
     cfe:	4a7a      	ldr	r2, [pc, #488]	; (ee8 <__vsnprintf+0x728>)
     d00:	681b      	ldr	r3, [r3, #0]
     d02:	447a      	add	r2, pc
     d04:	f000 f8fd 	bl	f02 <snprintk>
     d08:	4683      	mov	fp, r0
kprintf():
/mnt/disk/raspbian-tee/optee_os/lib/libutils/ext/snprintk.c:285
     d0a:	2000      	movs	r0, #0
/mnt/disk/raspbian-tee/optee_os/lib/libutils/ext/snprintk.c:423
     d0c:	4623      	mov	r3, r4
/mnt/disk/raspbian-tee/optee_os/lib/libutils/ext/snprintk.c:424
     d0e:	4682      	mov	sl, r0
     d10:	e70f      	b.n	b32 <__vsnprintf+0x372>
/mnt/disk/raspbian-tee/optee_os/lib/libutils/ext/snprintk.c:437
     d12:	4b76      	ldr	r3, [pc, #472]	; (eec <__vsnprintf+0x72c>)
/mnt/disk/raspbian-tee/optee_os/lib/libutils/ext/snprintk.c:435
     d14:	1d17      	adds	r7, r2, #4
     d16:	6814      	ldr	r4, [r2, #0]
     d18:	2500      	movs	r5, #0
/mnt/disk/raspbian-tee/optee_os/lib/libutils/ext/snprintk.c:437
     d1a:	447b      	add	r3, pc
/mnt/disk/raspbian-tee/optee_os/lib/libutils/ext/snprintk.c:438
     d1c:	f046 0602 	orr.w	r6, r6, #2
/mnt/disk/raspbian-tee/optee_os/lib/libutils/ext/snprintk.c:439
     d20:	f04f 0978 	mov.w	r9, #120	; 0x78
/mnt/disk/raspbian-tee/optee_os/lib/libutils/ext/snprintk.c:437
     d24:	3311      	adds	r3, #17
     d26:	930f      	str	r3, [sp, #60]	; 0x3c
/mnt/disk/raspbian-tee/optee_os/lib/libutils/ext/snprintk.c:488
     d28:	f1bb 3fff 	cmp.w	fp, #4294967295	; 0xffffffff
     d2c:	f47f aeaa 	bne.w	a84 <__vsnprintf+0x2c4>
     d30:	f04f 0a00 	mov.w	sl, #0
     d34:	f10d 0375 	add.w	r3, sp, #117	; 0x75
/mnt/disk/raspbian-tee/optee_os/lib/libutils/ext/snprintk.c:525
     d38:	f004 020f 	and.w	r2, r4, #15
     d3c:	990f      	ldr	r1, [sp, #60]	; 0x3c
     d3e:	5c8a      	ldrb	r2, [r1, r2]
/mnt/disk/raspbian-tee/optee_os/lib/libutils/ext/snprintk.c:526
     d40:	0929      	lsrs	r1, r5, #4
/mnt/disk/raspbian-tee/optee_os/lib/libutils/ext/snprintk.c:525
     d42:	f803 2d01 	strb.w	r2, [r3, #-1]!
/mnt/disk/raspbian-tee/optee_os/lib/libutils/ext/snprintk.c:526
     d46:	0922      	lsrs	r2, r4, #4
     d48:	ea42 7205 	orr.w	r2, r2, r5, lsl #28
     d4c:	460d      	mov	r5, r1
     d4e:	4614      	mov	r4, r2
/mnt/disk/raspbian-tee/optee_os/lib/libutils/ext/snprintk.c:527
     d50:	ea54 0205 	orrs.w	r2, r4, r5
     d54:	d1f0      	bne.n	d38 <__vsnprintf+0x578>
     d56:	e610      	b.n	97a <__vsnprintf+0x1ba>
/mnt/disk/raspbian-tee/optee_os/lib/libutils/ext/snprintk.c:460
     d58:	4618      	mov	r0, r3
     d5a:	9311      	str	r3, [sp, #68]	; 0x44
     d5c:	f005 fd61 	bl	6822 <strlen>
     d60:	4683      	mov	fp, r0
/mnt/disk/raspbian-tee/optee_os/lib/libutils/ext/snprintk.c:285
     d62:	2000      	movs	r0, #0
     d64:	9b11      	ldr	r3, [sp, #68]	; 0x44
/mnt/disk/raspbian-tee/optee_os/lib/libutils/ext/snprintk.c:461
     d66:	4682      	mov	sl, r0
     d68:	e6e3      	b.n	b32 <__vsnprintf+0x372>
/mnt/disk/raspbian-tee/optee_os/lib/libutils/ext/snprintk.c:464
     d6a:	f046 0610 	orr.w	r6, r6, #16
     d6e:	e660      	b.n	a32 <__vsnprintf+0x272>
/mnt/disk/raspbian-tee/optee_os/lib/libutils/ext/snprintk.c:467
     d70:	f416 7a80 	ands.w	sl, r6, #256	; 0x100
     d74:	d003      	beq.n	d7e <__vsnprintf+0x5be>
     d76:	6814      	ldr	r4, [r2, #0]
     d78:	1d17      	adds	r7, r2, #4
     d7a:	2500      	movs	r5, #0
     d7c:	e664      	b.n	a48 <__vsnprintf+0x288>
     d7e:	f416 7300 	ands.w	r3, r6, #512	; 0x200
     d82:	d003      	beq.n	d8c <__vsnprintf+0x5cc>
     d84:	1d17      	adds	r7, r2, #4
     d86:	6814      	ldr	r4, [r2, #0]
     d88:	2500      	movs	r5, #0
     d8a:	e735      	b.n	bf8 <__vsnprintf+0x438>
     d8c:	f016 0a20 	ands.w	sl, r6, #32
     d90:	f47f ae53 	bne.w	a3a <__vsnprintf+0x27a>
     d94:	f016 0310 	ands.w	r3, r6, #16
     d98:	f102 0704 	add.w	r7, r2, #4
     d9c:	d1f3      	bne.n	d86 <__vsnprintf+0x5c6>
     d9e:	f016 0a40 	ands.w	sl, r6, #64	; 0x40
     da2:	d0f0      	beq.n	d86 <__vsnprintf+0x5c6>
     da4:	8814      	ldrh	r4, [r2, #0]
     da6:	e7e8      	b.n	d7a <__vsnprintf+0x5ba>
/mnt/disk/raspbian-tee/optee_os/lib/libutils/ext/snprintk.c:474
     da8:	4b51      	ldr	r3, [pc, #324]	; (ef0 <__vsnprintf+0x730>)
     daa:	447b      	add	r3, pc
     dac:	3311      	adds	r3, #17
     dae:	e651      	b.n	a54 <__vsnprintf+0x294>
/mnt/disk/raspbian-tee/optee_os/lib/libutils/ext/snprintk.c:475
     db0:	05f5      	lsls	r5, r6, #23
     db2:	d502      	bpl.n	dba <__vsnprintf+0x5fa>
     db4:	1d17      	adds	r7, r2, #4
     db6:	6814      	ldr	r4, [r2, #0]
     db8:	e00c      	b.n	dd4 <__vsnprintf+0x614>
     dba:	05b4      	lsls	r4, r6, #22
     dbc:	d4fa      	bmi.n	db4 <__vsnprintf+0x5f4>
     dbe:	06b0      	lsls	r0, r6, #26
     dc0:	f53f ae4c 	bmi.w	a5c <__vsnprintf+0x29c>
     dc4:	f016 0f10 	tst.w	r6, #16
     dc8:	f102 0704 	add.w	r7, r2, #4
     dcc:	d1f3      	bne.n	db6 <__vsnprintf+0x5f6>
     dce:	0671      	lsls	r1, r6, #25
     dd0:	d5f1      	bpl.n	db6 <__vsnprintf+0x5f6>
     dd2:	8814      	ldrh	r4, [r2, #0]
     dd4:	2500      	movs	r5, #0
     dd6:	e648      	b.n	a6a <__vsnprintf+0x2aa>
/mnt/disk/raspbian-tee/optee_os/lib/libutils/ext/snprintk.c:488
     dd8:	2301      	movs	r3, #1
     dda:	e5a2      	b.n	922 <__vsnprintf+0x162>
/mnt/disk/raspbian-tee/optee_os/lib/libutils/ext/snprintk.c:508
     ddc:	461a      	mov	r2, r3
     dde:	e5b3      	b.n	948 <__vsnprintf+0x188>
/mnt/disk/raspbian-tee/optee_os/lib/libutils/ext/snprintk.c:517
     de0:	9311      	str	r3, [sp, #68]	; 0x44
     de2:	4620      	mov	r0, r4
     de4:	4629      	mov	r1, r5
     de6:	220a      	movs	r2, #10
     de8:	2300      	movs	r3, #0
     dea:	f000 e8a4 	blx	f34 <__aeabi_uldivmod>
     dee:	9b11      	ldr	r3, [sp, #68]	; 0x44
     df0:	3230      	adds	r2, #48	; 0x30
/mnt/disk/raspbian-tee/optee_os/lib/libutils/ext/snprintk.c:518
     df2:	4620      	mov	r0, r4
     df4:	4629      	mov	r1, r5
/mnt/disk/raspbian-tee/optee_os/lib/libutils/ext/snprintk.c:517
     df6:	701a      	strb	r2, [r3, #0]
/mnt/disk/raspbian-tee/optee_os/lib/libutils/ext/snprintk.c:518
     df8:	220a      	movs	r2, #10
     dfa:	2300      	movs	r3, #0
     dfc:	f000 e89a 	blx	f34 <__aeabi_uldivmod>
     e00:	4604      	mov	r4, r0
     e02:	460d      	mov	r5, r1
     e04:	e6ff      	b.n	c06 <__vsnprintf+0x446>
/mnt/disk/raspbian-tee/optee_os/lib/libutils/ext/snprintk.c:496
     e06:	f10d 0375 	add.w	r3, sp, #117	; 0x75
     e0a:	e5b6      	b.n	97a <__vsnprintf+0x1ba>
/mnt/disk/raspbian-tee/optee_os/lib/libutils/ext/snprintk.c:568
     e0c:	07b4      	lsls	r4, r6, #30
/mnt/disk/raspbian-tee/optee_os/lib/libutils/ext/snprintk.c:569
     e0e:	bf48      	it	mi
     e10:	3202      	addmi	r2, #2
     e12:	e697      	b.n	b44 <__vsnprintf+0x384>
/mnt/disk/raspbian-tee/optee_os/lib/libutils/ext/snprintk.c:578
     e14:	f1b8 0f00 	cmp.w	r8, #0
     e18:	d006      	beq.n	e28 <__vsnprintf+0x668>
     e1a:	9d0e      	ldr	r5, [sp, #56]	; 0x38
     e1c:	4545      	cmp	r5, r8
     e1e:	d903      	bls.n	e28 <__vsnprintf+0x668>
     e20:	f888 c000 	strb.w	ip, [r8]
     e24:	f108 0801 	add.w	r8, r8, #1
     e28:	3901      	subs	r1, #1
     e2a:	e69b      	b.n	b64 <__vsnprintf+0x3a4>
/mnt/disk/raspbian-tee/optee_os/lib/libutils/ext/snprintk.c:583
     e2c:	990e      	ldr	r1, [sp, #56]	; 0x38
     e2e:	4541      	cmp	r1, r8
     e30:	f67f aea5 	bls.w	b7e <__vsnprintf+0x3be>
     e34:	f888 a000 	strb.w	sl, [r8]
     e38:	f108 0801 	add.w	r8, r8, #1
     e3c:	e69f      	b.n	b7e <__vsnprintf+0x3be>
/mnt/disk/raspbian-tee/optee_os/lib/libutils/ext/snprintk.c:584
     e3e:	07b1      	lsls	r1, r6, #30
     e40:	f57f ae9d 	bpl.w	b7e <__vsnprintf+0x3be>
/mnt/disk/raspbian-tee/optee_os/lib/libutils/ext/snprintk.c:585
     e44:	f1b8 0f00 	cmp.w	r8, #0
     e48:	f43f ae97 	beq.w	b7a <__vsnprintf+0x3ba>
     e4c:	990e      	ldr	r1, [sp, #56]	; 0x38
     e4e:	4541      	cmp	r1, r8
     e50:	f67f ae95 	bls.w	b7e <__vsnprintf+0x3be>
     e54:	2130      	movs	r1, #48	; 0x30
     e56:	f888 1000 	strb.w	r1, [r8]
/mnt/disk/raspbian-tee/optee_os/lib/libutils/ext/snprintk.c:586
     e5a:	f118 0101 	adds.w	r1, r8, #1
     e5e:	f43f ae8c 	beq.w	b7a <__vsnprintf+0x3ba>
     e62:	9d0e      	ldr	r5, [sp, #56]	; 0x38
     e64:	428d      	cmp	r5, r1
     e66:	d904      	bls.n	e72 <__vsnprintf+0x6b2>
     e68:	f888 9001 	strb.w	r9, [r8, #1]
     e6c:	f108 0802 	add.w	r8, r8, #2
     e70:	e685      	b.n	b7e <__vsnprintf+0x3be>
     e72:	4688      	mov	r8, r1
     e74:	e683      	b.n	b7e <__vsnprintf+0x3be>
/mnt/disk/raspbian-tee/optee_os/lib/libutils/ext/snprintk.c:593
     e76:	f1b8 0f00 	cmp.w	r8, #0
     e7a:	d006      	beq.n	e8a <__vsnprintf+0x6ca>
     e7c:	9d0e      	ldr	r5, [sp, #56]	; 0x38
     e7e:	4545      	cmp	r5, r8
     e80:	d903      	bls.n	e8a <__vsnprintf+0x6ca>
     e82:	f888 4000 	strb.w	r4, [r8]
     e86:	f108 0801 	add.w	r8, r8, #1
     e8a:	3901      	subs	r1, #1
     e8c:	e67d      	b.n	b8a <__vsnprintf+0x3ca>
/mnt/disk/raspbian-tee/optee_os/lib/libutils/ext/snprintk.c:599
     e8e:	f1b8 0f00 	cmp.w	r8, #0
     e92:	d006      	beq.n	ea2 <__vsnprintf+0x6e2>
     e94:	9c0e      	ldr	r4, [sp, #56]	; 0x38
     e96:	4544      	cmp	r4, r8
     e98:	d903      	bls.n	ea2 <__vsnprintf+0x6e2>
     e9a:	f888 1000 	strb.w	r1, [r8]
     e9e:	f108 0801 	add.w	r8, r8, #1
     ea2:	3801      	subs	r0, #1
     ea4:	e677      	b.n	b96 <__vsnprintf+0x3d6>
/mnt/disk/raspbian-tee/optee_os/lib/libutils/ext/snprintk.c:603
     ea6:	f1b8 0f00 	cmp.w	r8, #0
     eaa:	d007      	beq.n	ebc <__vsnprintf+0x6fc>
     eac:	980e      	ldr	r0, [sp, #56]	; 0x38
     eae:	4540      	cmp	r0, r8
     eb0:	d904      	bls.n	ebc <__vsnprintf+0x6fc>
     eb2:	7818      	ldrb	r0, [r3, #0]
     eb4:	f108 0801 	add.w	r8, r8, #1
     eb8:	f808 0c01 	strb.w	r0, [r8, #-1]
/mnt/disk/raspbian-tee/optee_os/lib/libutils/ext/snprintk.c:602
     ebc:	3301      	adds	r3, #1
     ebe:	e66f      	b.n	ba0 <__vsnprintf+0x3e0>
__vsnprintf():
/mnt/disk/raspbian-tee/optee_os/lib/libutils/ext/snprintk.c:148
     ec0:	990c      	ldr	r1, [sp, #48]	; 0x30
     ec2:	5453      	strb	r3, [r2, r1]
/mnt/disk/raspbian-tee/optee_os/lib/libutils/ext/snprintk.c:150
     ec4:	e4a1      	b.n	80a <__vsnprintf+0x4a>
kprintf():
/mnt/disk/raspbian-tee/optee_os/lib/libutils/ext/snprintk.c:489
     ec6:	f426 6680 	bic.w	r6, r6, #1024	; 0x400
/mnt/disk/raspbian-tee/optee_os/lib/libutils/ext/snprintk.c:482
     eca:	f04f 0a00 	mov.w	sl, #0
/mnt/disk/raspbian-tee/optee_os/lib/libutils/ext/snprintk.c:476
     ece:	2302      	movs	r3, #2
     ed0:	e52c      	b.n	92c <__vsnprintf+0x16c>
/mnt/disk/raspbian-tee/optee_os/lib/libutils/ext/snprintk.c:488
     ed2:	f1bb 3fff 	cmp.w	fp, #4294967295	; 0xffffffff
     ed6:	d1f6      	bne.n	ec6 <__vsnprintf+0x706>
     ed8:	f04f 3bff 	mov.w	fp, #4294967295	; 0xffffffff
     edc:	e728      	b.n	d30 <__vsnprintf+0x570>
     ede:	bf00      	nop
     ee0:	000067d0 	.word	0x000067d0
     ee4:	00006750 	.word	0x00006750
     ee8:	000064c9 	.word	0x000064c9
     eec:	00006488 	.word	0x00006488
     ef0:	000063f8 	.word	0x000063f8

00000ef4 <vsnprintk>:
vsnprintk():
/mnt/disk/raspbian-tee/optee_os/lib/libutils/ext/snprintk.c:129
     ef4:	b513      	push	{r0, r1, r4, lr}
/mnt/disk/raspbian-tee/optee_os/lib/libutils/ext/snprintk.c:130
     ef6:	2401      	movs	r4, #1
     ef8:	9400      	str	r4, [sp, #0]
     efa:	f7ff fc61 	bl	7c0 <__vsnprintf>
/mnt/disk/raspbian-tee/optee_os/lib/libutils/ext/snprintk.c:131
     efe:	b002      	add	sp, #8
     f00:	bd10      	pop	{r4, pc}

00000f02 <snprintk>:
snprintk():
/mnt/disk/raspbian-tee/optee_os/lib/libutils/ext/snprintk.c:112
     f02:	b40c      	push	{r2, r3}
     f04:	b507      	push	{r0, r1, r2, lr}
     f06:	ab04      	add	r3, sp, #16
     f08:	f853 2b04 	ldr.w	r2, [r3], #4
/mnt/disk/raspbian-tee/optee_os/lib/libutils/ext/snprintk.c:116
     f0c:	9301      	str	r3, [sp, #4]
/mnt/disk/raspbian-tee/optee_os/lib/libutils/ext/snprintk.c:117
     f0e:	f7ff fff1 	bl	ef4 <vsnprintk>
/mnt/disk/raspbian-tee/optee_os/lib/libutils/ext/snprintk.c:121
     f12:	b003      	add	sp, #12
     f14:	f85d eb04 	ldr.w	lr, [sp], #4
     f18:	b002      	add	sp, #8
     f1a:	4770      	bx	lr

00000f1c <__aeabi_ldivmod>:
__aeabi_ldivmod():
/mnt/disk/raspbian-tee/optee_os/lib/libutils/isoc/arch/arm/arm32_aeabi_ldivmod_a32.S:24
     f1c:	e92d5000 	push	{ip, lr}
/mnt/disk/raspbian-tee/optee_os/lib/libutils/isoc/arch/arm/arm32_aeabi_ldivmod_a32.S:26
     f20:	e92d000f 	push	{r0, r1, r2, r3}
/mnt/disk/raspbian-tee/optee_os/lib/libutils/isoc/arch/arm/arm32_aeabi_ldivmod_a32.S:28
     f24:	e1a0000d 	mov	r0, sp
/mnt/disk/raspbian-tee/optee_os/lib/libutils/isoc/arch/arm/arm32_aeabi_ldivmod_a32.S:29
     f28:	fb00165d 	blx	68a6 <__l_divmod>
/mnt/disk/raspbian-tee/optee_os/lib/libutils/isoc/arch/arm/arm32_aeabi_ldivmod_a32.S:30
     f2c:	e8bd000f 	pop	{r0, r1, r2, r3}
/mnt/disk/raspbian-tee/optee_os/lib/libutils/isoc/arch/arm/arm32_aeabi_ldivmod_a32.S:31
     f30:	e8bd9000 	pop	{ip, pc}

00000f34 <__aeabi_uldivmod>:
__aeabi_uldivmod():
/mnt/disk/raspbian-tee/optee_os/lib/libutils/isoc/arch/arm/arm32_aeabi_ldivmod_a32.S:42
     f34:	e92d5000 	push	{ip, lr}
/mnt/disk/raspbian-tee/optee_os/lib/libutils/isoc/arch/arm/arm32_aeabi_ldivmod_a32.S:44
     f38:	e92d000f 	push	{r0, r1, r2, r3}
/mnt/disk/raspbian-tee/optee_os/lib/libutils/isoc/arch/arm/arm32_aeabi_ldivmod_a32.S:46
     f3c:	e1a0000d 	mov	r0, sp
/mnt/disk/raspbian-tee/optee_os/lib/libutils/isoc/arch/arm/arm32_aeabi_ldivmod_a32.S:47
     f40:	fb00163a 	blx	6832 <__ul_divmod>
/mnt/disk/raspbian-tee/optee_os/lib/libutils/isoc/arch/arm/arm32_aeabi_ldivmod_a32.S:48
     f44:	e8bd000f 	pop	{r0, r1, r2, r3}
/mnt/disk/raspbian-tee/optee_os/lib/libutils/isoc/arch/arm/arm32_aeabi_ldivmod_a32.S:49
     f48:	e8bd9000 	pop	{ip, pc}

00000f4c <trace_ext_puts>:
trace_ext_puts():
/mnt/disk/raspbian-tee/optee_os/lib/libutee/trace_ext.c:17
     f4c:	b510      	push	{r4, lr}
     f4e:	4604      	mov	r4, r0
/mnt/disk/raspbian-tee/optee_os/lib/libutee/trace_ext.c:18
     f50:	f005 fc67 	bl	6822 <strlen>
     f54:	4601      	mov	r1, r0
     f56:	4620      	mov	r0, r4
/mnt/disk/raspbian-tee/optee_os/lib/libutee/trace_ext.c:19
     f58:	e8bd 4010 	ldmia.w	sp!, {r4, lr}
/mnt/disk/raspbian-tee/optee_os/lib/libutee/trace_ext.c:18
     f5c:	f005 bd68 	b.w	6a30 <__utee_log_from_thumb>

00000f60 <trace_ext_get_thread_id>:
trace_ext_get_thread_id():
/mnt/disk/raspbian-tee/optee_os/lib/libutee/trace_ext.c:24
     f60:	f04f 30ff 	mov.w	r0, #4294967295	; 0xffffffff
     f64:	4770      	bx	lr

00000f66 <printf>:
printf():
/mnt/disk/raspbian-tee/optee_os/lib/libutee/trace_ext.c:32
     f66:	b40f      	push	{r0, r1, r2, r3}
     f68:	b530      	push	{r4, r5, lr}
     f6a:	b0c3      	sub	sp, #268	; 0x10c
/mnt/disk/raspbian-tee/optee_os/lib/libutee/trace_ext.c:37
     f6c:	f7ff fb00 	bl	570 <trace_get_level>
     f70:	2800      	cmp	r0, #0
     f72:	dd13      	ble.n	f9c <printf+0x36>
/mnt/disk/raspbian-tee/optee_os/lib/libutee/trace_ext.c:41
     f74:	ad02      	add	r5, sp, #8
/mnt/disk/raspbian-tee/optee_os/lib/libutee/trace_ext.c:40
     f76:	ab47      	add	r3, sp, #284	; 0x11c
/mnt/disk/raspbian-tee/optee_os/lib/libutee/trace_ext.c:41
     f78:	9a46      	ldr	r2, [sp, #280]	; 0x118
     f7a:	f44f 7180 	mov.w	r1, #256	; 0x100
     f7e:	4628      	mov	r0, r5
/mnt/disk/raspbian-tee/optee_os/lib/libutee/trace_ext.c:40
     f80:	9301      	str	r3, [sp, #4]
/mnt/disk/raspbian-tee/optee_os/lib/libutee/trace_ext.c:41
     f82:	f005 fd17 	bl	69b4 <vsnprintf>
/mnt/disk/raspbian-tee/optee_os/lib/libutee/trace_ext.c:44
     f86:	1e04      	subs	r4, r0, #0
     f88:	db02      	blt.n	f90 <printf+0x2a>
/mnt/disk/raspbian-tee/optee_os/lib/libutee/trace_ext.c:47
     f8a:	4628      	mov	r0, r5
     f8c:	f7ff ffde 	bl	f4c <trace_ext_puts>
/mnt/disk/raspbian-tee/optee_os/lib/libutee/trace_ext.c:50
     f90:	4620      	mov	r0, r4
     f92:	b043      	add	sp, #268	; 0x10c
     f94:	e8bd 4030 	ldmia.w	sp!, {r4, r5, lr}
     f98:	b004      	add	sp, #16
     f9a:	4770      	bx	lr
/mnt/disk/raspbian-tee/optee_os/lib/libutee/trace_ext.c:38
     f9c:	2400      	movs	r4, #0
     f9e:	e7f7      	b.n	f90 <printf+0x2a>

00000fa0 <puts>:
puts():
/mnt/disk/raspbian-tee/optee_os/lib/libutee/trace_ext.c:53
     fa0:	b510      	push	{r4, lr}
     fa2:	4604      	mov	r4, r0
/mnt/disk/raspbian-tee/optee_os/lib/libutee/trace_ext.c:54
     fa4:	f7ff fae4 	bl	570 <trace_get_level>
     fa8:	2800      	cmp	r0, #0
     faa:	dd06      	ble.n	fba <puts+0x1a>
/mnt/disk/raspbian-tee/optee_os/lib/libutee/trace_ext.c:55
     fac:	4620      	mov	r0, r4
     fae:	f7ff ffcd 	bl	f4c <trace_ext_puts>
/mnt/disk/raspbian-tee/optee_os/lib/libutee/trace_ext.c:56
     fb2:	4803      	ldr	r0, [pc, #12]	; (fc0 <puts+0x20>)
     fb4:	4478      	add	r0, pc
     fb6:	f7ff ffc9 	bl	f4c <trace_ext_puts>
/mnt/disk/raspbian-tee/optee_os/lib/libutee/trace_ext.c:59
     fba:	2001      	movs	r0, #1
     fbc:	bd10      	pop	{r4, pc}
     fbe:	bf00      	nop
     fc0:	000068b9 	.word	0x000068b9

00000fc4 <putchar>:
putchar():
/mnt/disk/raspbian-tee/optee_os/lib/libutee/trace_ext.c:62
     fc4:	b513      	push	{r0, r1, r4, lr}
/mnt/disk/raspbian-tee/optee_os/lib/libutee/trace_ext.c:63
     fc6:	2300      	movs	r3, #0
/mnt/disk/raspbian-tee/optee_os/lib/libutee/trace_ext.c:62
     fc8:	4604      	mov	r4, r0
/mnt/disk/raspbian-tee/optee_os/lib/libutee/trace_ext.c:63
     fca:	f88d 0004 	strb.w	r0, [sp, #4]
     fce:	f88d 3005 	strb.w	r3, [sp, #5]
/mnt/disk/raspbian-tee/optee_os/lib/libutee/trace_ext.c:65
     fd2:	f7ff facd 	bl	570 <trace_get_level>
     fd6:	2800      	cmp	r0, #0
     fd8:	dd02      	ble.n	fe0 <putchar+0x1c>
/mnt/disk/raspbian-tee/optee_os/lib/libutee/trace_ext.c:66
     fda:	a801      	add	r0, sp, #4
     fdc:	f7ff ffb6 	bl	f4c <trace_ext_puts>
/mnt/disk/raspbian-tee/optee_os/lib/libutee/trace_ext.c:73
     fe0:	b2e0      	uxtb	r0, r4
     fe2:	b002      	add	sp, #8
     fe4:	bd10      	pop	{r4, pc}
     fe6:	bf00      	nop

00000fe8 <__utee_from_param>:
__utee_from_param():
/mnt/disk/raspbian-tee/optee_os/lib/libutee/tee_api.c:23
     fe8:	2300      	movs	r3, #0
/mnt/disk/raspbian-tee/optee_os/lib/libutee/tee_api.c:20
     fea:	b5f0      	push	{r4, r5, r6, r7, lr}
     fec:	4694      	mov	ip, r2
     fee:	4615      	mov	r5, r2
/mnt/disk/raspbian-tee/optee_os/lib/libutee/tee_api.c:39
     ff0:	2600      	movs	r6, #0
     ff2:	2700      	movs	r7, #0
/mnt/disk/raspbian-tee/optee_os/lib/libutee/tee_api.c:35
     ff4:	461a      	mov	r2, r3
/mnt/disk/raspbian-tee/optee_os/lib/libutee/tee_api.c:23
     ff6:	e880 000a 	stmia.w	r0, {r1, r3}
/mnt/disk/raspbian-tee/optee_os/lib/libutee/tee_api.c:25
     ffa:	fa21 f403 	lsr.w	r4, r1, r3
     ffe:	f004 040f 	and.w	r4, r4, #15
    1002:	3c01      	subs	r4, #1
    1004:	2c06      	cmp	r4, #6
    1006:	d812      	bhi.n	102e <__utee_from_param+0x46>
    1008:	e8df f004 	tbb	[pc, r4]
    100c:	11040404 	.word	0x11040404
    1010:	0404      	.short	0x0404
    1012:	04          	.byte	0x04
    1013:	00          	.byte	0x00
/mnt/disk/raspbian-tee/optee_os/lib/libutee/tee_api.c:35
    1014:	f85c 4013 	ldr.w	r4, [ip, r3, lsl #1]
    1018:	6084      	str	r4, [r0, #8]
    101a:	60c2      	str	r2, [r0, #12]
/mnt/disk/raspbian-tee/optee_os/lib/libutee/tee_api.c:36
    101c:	686c      	ldr	r4, [r5, #4]
    101e:	6104      	str	r4, [r0, #16]
    1020:	6142      	str	r2, [r0, #20]
    1022:	3304      	adds	r3, #4
    1024:	3508      	adds	r5, #8
    1026:	3010      	adds	r0, #16
/mnt/disk/raspbian-tee/optee_os/lib/libutee/tee_api.c:24 (discriminator 2)
    1028:	2b10      	cmp	r3, #16
    102a:	d1e6      	bne.n	ffa <__utee_from_param+0x12>
/mnt/disk/raspbian-tee/optee_os/lib/libutee/tee_api.c:44
    102c:	bdf0      	pop	{r4, r5, r6, r7, pc}
/mnt/disk/raspbian-tee/optee_os/lib/libutee/tee_api.c:39
    102e:	e9c0 6702 	strd	r6, r7, [r0, #8]
/mnt/disk/raspbian-tee/optee_os/lib/libutee/tee_api.c:40
    1032:	e9c0 6704 	strd	r6, r7, [r0, #16]
/mnt/disk/raspbian-tee/optee_os/lib/libutee/tee_api.c:41
    1036:	e7f4      	b.n	1022 <__utee_from_param+0x3a>

00001038 <__utee_to_param>:
__utee_to_param():
/mnt/disk/raspbian-tee/optee_os/lib/libutee/tee_api.c:48
    1038:	b5f0      	push	{r4, r5, r6, r7, lr}
/mnt/disk/raspbian-tee/optee_os/lib/libutee/tee_api.c:50
    103a:	2300      	movs	r3, #0
    103c:	6816      	ldr	r6, [r2, #0]
    103e:	4605      	mov	r5, r0
/mnt/disk/raspbian-tee/optee_os/lib/libutee/tee_api.c:56
    1040:	fa26 f403 	lsr.w	r4, r6, r3
/mnt/disk/raspbian-tee/optee_os/lib/libutee/tee_api.c:53
    1044:	f8d2 c008 	ldr.w	ip, [r2, #8]
/mnt/disk/raspbian-tee/optee_os/lib/libutee/tee_api.c:56
    1048:	f004 040f 	and.w	r4, r4, #15
/mnt/disk/raspbian-tee/optee_os/lib/libutee/tee_api.c:54
    104c:	6917      	ldr	r7, [r2, #16]
/mnt/disk/raspbian-tee/optee_os/lib/libutee/tee_api.c:56
    104e:	3c01      	subs	r4, #1
    1050:	2c06      	cmp	r4, #6
    1052:	d808      	bhi.n	1066 <__utee_to_param+0x2e>
    1054:	e8df f004 	tbb	[pc, r4]
    1058:	07040404 	.word	0x07040404
    105c:	0404      	.short	0x0404
    105e:	04          	.byte	0x04
    105f:	00          	.byte	0x00
/mnt/disk/raspbian-tee/optee_os/lib/libutee/tee_api.c:66
    1060:	f840 c013 	str.w	ip, [r0, r3, lsl #1]
/mnt/disk/raspbian-tee/optee_os/lib/libutee/tee_api.c:67
    1064:	606f      	str	r7, [r5, #4]
    1066:	3304      	adds	r3, #4
    1068:	3210      	adds	r2, #16
    106a:	3508      	adds	r5, #8
/mnt/disk/raspbian-tee/optee_os/lib/libutee/tee_api.c:52 (discriminator 2)
    106c:	2b10      	cmp	r3, #16
    106e:	d1e7      	bne.n	1040 <__utee_to_param+0x8>
/mnt/disk/raspbian-tee/optee_os/lib/libutee/tee_api.c:74
    1070:	b101      	cbz	r1, 1074 <__utee_to_param+0x3c>
/mnt/disk/raspbian-tee/optee_os/lib/libutee/tee_api.c:75
    1072:	600e      	str	r6, [r1, #0]
    1074:	bdf0      	pop	{r4, r5, r6, r7, pc}

00001076 <TEE_OpenTASession>:
TEE_OpenTASession():
/mnt/disk/raspbian-tee/optee_os/lib/libutee/tee_api.c:84
    1076:	b5f0      	push	{r4, r5, r6, r7, lr}
    1078:	4605      	mov	r5, r0
    107a:	460f      	mov	r7, r1
    107c:	b097      	sub	sp, #92	; 0x5c
    107e:	4611      	mov	r1, r2
/mnt/disk/raspbian-tee/optee_os/lib/libutee/tee_api.c:89
    1080:	ac04      	add	r4, sp, #16
    1082:	461a      	mov	r2, r3
    1084:	4620      	mov	r0, r4
/mnt/disk/raspbian-tee/optee_os/lib/libutee/tee_api.c:84
    1086:	461e      	mov	r6, r3
/mnt/disk/raspbian-tee/optee_os/lib/libutee/tee_api.c:89
    1088:	f7ff ffae 	bl	fe8 <__utee_from_param>
/mnt/disk/raspbian-tee/optee_os/lib/libutee/tee_api.c:90
    108c:	9b1d      	ldr	r3, [sp, #116]	; 0x74
    108e:	9300      	str	r3, [sp, #0]
    1090:	4622      	mov	r2, r4
    1092:	4639      	mov	r1, r7
    1094:	4628      	mov	r0, r5
    1096:	ab03      	add	r3, sp, #12
    1098:	f000 ee26 	blx	1ce8 <utee_open_ta_session>
/mnt/disk/raspbian-tee/optee_os/lib/libutee/tee_api.c:92
    109c:	4622      	mov	r2, r4
/mnt/disk/raspbian-tee/optee_os/lib/libutee/tee_api.c:90
    109e:	4605      	mov	r5, r0
/mnt/disk/raspbian-tee/optee_os/lib/libutee/tee_api.c:92
    10a0:	2100      	movs	r1, #0
    10a2:	4630      	mov	r0, r6
    10a4:	f7ff ffc8 	bl	1038 <__utee_to_param>
/mnt/disk/raspbian-tee/optee_os/lib/libutee/tee_api.c:98
    10a8:	b10d      	cbz	r5, 10ae <TEE_OpenTASession+0x38>
/mnt/disk/raspbian-tee/optee_os/lib/libutee/tee_api.c:99
    10aa:	2300      	movs	r3, #0
    10ac:	9303      	str	r3, [sp, #12]
/mnt/disk/raspbian-tee/optee_os/lib/libutee/tee_api.c:101
    10ae:	9b1c      	ldr	r3, [sp, #112]	; 0x70
/mnt/disk/raspbian-tee/optee_os/lib/libutee/tee_api.c:103
    10b0:	4628      	mov	r0, r5
/mnt/disk/raspbian-tee/optee_os/lib/libutee/tee_api.c:101
    10b2:	9a03      	ldr	r2, [sp, #12]
    10b4:	601a      	str	r2, [r3, #0]
/mnt/disk/raspbian-tee/optee_os/lib/libutee/tee_api.c:103
    10b6:	b017      	add	sp, #92	; 0x5c
    10b8:	bdf0      	pop	{r4, r5, r6, r7, pc}

000010ba <TEE_CloseTASession>:
TEE_CloseTASession():
/mnt/disk/raspbian-tee/optee_os/lib/libutee/tee_api.c:106
    10ba:	b508      	push	{r3, lr}
/mnt/disk/raspbian-tee/optee_os/lib/libutee/tee_api.c:107
    10bc:	b130      	cbz	r0, 10cc <TEE_CloseTASession+0x12>
/mnt/disk/raspbian-tee/optee_os/lib/libutee/tee_api.c:108
    10be:	f000 ee20 	blx	1d00 <utee_close_ta_session>
/mnt/disk/raspbian-tee/optee_os/lib/libutee/tee_api.c:110
    10c2:	b118      	cbz	r0, 10cc <TEE_CloseTASession+0x12>
/mnt/disk/raspbian-tee/optee_os/lib/libutee/tee_api.c:113
    10c4:	e8bd 4008 	ldmia.w	sp!, {r3, lr}
/mnt/disk/raspbian-tee/optee_os/lib/libutee/tee_api.c:111
    10c8:	f005 bc63 	b.w	6992 <TEE_Panic>
    10cc:	bd08      	pop	{r3, pc}

000010ce <TEE_InvokeTACommand>:
TEE_InvokeTACommand():
/mnt/disk/raspbian-tee/optee_os/lib/libutee/tee_api.c:120
    10ce:	e92d 41f0 	stmdb	sp!, {r4, r5, r6, r7, r8, lr}
    10d2:	4604      	mov	r4, r0
    10d4:	460f      	mov	r7, r1
    10d6:	b096      	sub	sp, #88	; 0x58
/mnt/disk/raspbian-tee/optee_os/lib/libutee/tee_api.c:125
    10d8:	4619      	mov	r1, r3
    10da:	ad04      	add	r5, sp, #16
/mnt/disk/raspbian-tee/optee_os/lib/libutee/tee_api.c:120
    10dc:	4690      	mov	r8, r2
/mnt/disk/raspbian-tee/optee_os/lib/libutee/tee_api.c:125
    10de:	4628      	mov	r0, r5
/mnt/disk/raspbian-tee/optee_os/lib/libutee/tee_api.c:120
    10e0:	9e1d      	ldr	r6, [sp, #116]	; 0x74
/mnt/disk/raspbian-tee/optee_os/lib/libutee/tee_api.c:125
    10e2:	9a1c      	ldr	r2, [sp, #112]	; 0x70
    10e4:	f7ff ff80 	bl	fe8 <__utee_from_param>
/mnt/disk/raspbian-tee/optee_os/lib/libutee/tee_api.c:126
    10e8:	ab03      	add	r3, sp, #12
    10ea:	4642      	mov	r2, r8
    10ec:	9300      	str	r3, [sp, #0]
    10ee:	4639      	mov	r1, r7
    10f0:	462b      	mov	r3, r5
    10f2:	4620      	mov	r0, r4
    10f4:	f000 ee0e 	blx	1d14 <utee_invoke_ta_command>
/mnt/disk/raspbian-tee/optee_os/lib/libutee/tee_api.c:129
    10f8:	462a      	mov	r2, r5
/mnt/disk/raspbian-tee/optee_os/lib/libutee/tee_api.c:126
    10fa:	4604      	mov	r4, r0
/mnt/disk/raspbian-tee/optee_os/lib/libutee/tee_api.c:129
    10fc:	2100      	movs	r1, #0
    10fe:	981c      	ldr	r0, [sp, #112]	; 0x70
    1100:	f7ff ff9a 	bl	1038 <__utee_to_param>
    1104:	9b03      	ldr	r3, [sp, #12]
/mnt/disk/raspbian-tee/optee_os/lib/libutee/tee_api.c:131
    1106:	b106      	cbz	r6, 110a <TEE_InvokeTACommand+0x3c>
/mnt/disk/raspbian-tee/optee_os/lib/libutee/tee_api.c:132
    1108:	6033      	str	r3, [r6, #0]
/mnt/disk/raspbian-tee/optee_os/lib/libutee/tee_api.c:134
    110a:	2b04      	cmp	r3, #4
    110c:	d009      	beq.n	1122 <TEE_InvokeTACommand+0x54>
/mnt/disk/raspbian-tee/optee_os/lib/libutee/tee_api.c:137
    110e:	b144      	cbz	r4, 1122 <TEE_InvokeTACommand+0x54>
/mnt/disk/raspbian-tee/optee_os/lib/libutee/tee_api.c:137 (discriminator 1)
    1110:	4b06      	ldr	r3, [pc, #24]	; (112c <TEE_InvokeTACommand+0x5e>)
    1112:	429c      	cmp	r4, r3
    1114:	d005      	beq.n	1122 <TEE_InvokeTACommand+0x54>
/mnt/disk/raspbian-tee/optee_os/lib/libutee/tee_api.c:138
    1116:	4b06      	ldr	r3, [pc, #24]	; (1130 <TEE_InvokeTACommand+0x62>)
    1118:	429c      	cmp	r4, r3
    111a:	d002      	beq.n	1122 <TEE_InvokeTACommand+0x54>
/mnt/disk/raspbian-tee/optee_os/lib/libutee/tee_api.c:140
    111c:	4620      	mov	r0, r4
    111e:	f005 fc38 	bl	6992 <TEE_Panic>
/mnt/disk/raspbian-tee/optee_os/lib/libutee/tee_api.c:143
    1122:	4620      	mov	r0, r4
    1124:	b016      	add	sp, #88	; 0x58
    1126:	e8bd 81f0 	ldmia.w	sp!, {r4, r5, r6, r7, r8, pc}
    112a:	bf00      	nop
    112c:	ffff000c 	.word	0xffff000c
    1130:	ffff3024 	.word	0xffff3024

00001134 <TEE_GetCancellationFlag>:
TEE_GetCancellationFlag():
/mnt/disk/raspbian-tee/optee_os/lib/libutee/tee_api.c:148
    1134:	b507      	push	{r0, r1, r2, lr}
/mnt/disk/raspbian-tee/optee_os/lib/libutee/tee_api.c:150
    1136:	a801      	add	r0, sp, #4
    1138:	f000 edf8 	blx	1d2c <utee_get_cancellation_flag>
/mnt/disk/raspbian-tee/optee_os/lib/libutee/tee_api.c:152
    113c:	b108      	cbz	r0, 1142 <TEE_GetCancellationFlag+0xe>
/mnt/disk/raspbian-tee/optee_os/lib/libutee/tee_api.c:153
    113e:	2300      	movs	r3, #0
    1140:	9301      	str	r3, [sp, #4]
/mnt/disk/raspbian-tee/optee_os/lib/libutee/tee_api.c:155
    1142:	9801      	ldr	r0, [sp, #4]
    1144:	3000      	adds	r0, #0
    1146:	bf18      	it	ne
    1148:	2001      	movne	r0, #1
    114a:	b003      	add	sp, #12
    114c:	f85d fb04 	ldr.w	pc, [sp], #4

00001150 <TEE_UnmaskCancellation>:
TEE_UnmaskCancellation():
/mnt/disk/raspbian-tee/optee_os/lib/libutee/tee_api.c:158
    1150:	b507      	push	{r0, r1, r2, lr}
/mnt/disk/raspbian-tee/optee_os/lib/libutee/tee_api.c:160
    1152:	a801      	add	r0, sp, #4
    1154:	f000 edfe 	blx	1d54 <utee_unmask_cancellation>
/mnt/disk/raspbian-tee/optee_os/lib/libutee/tee_api.c:162
    1158:	b108      	cbz	r0, 115e <TEE_UnmaskCancellation+0xe>
/mnt/disk/raspbian-tee/optee_os/lib/libutee/tee_api.c:163
    115a:	f005 fc1a 	bl	6992 <TEE_Panic>
/mnt/disk/raspbian-tee/optee_os/lib/libutee/tee_api.c:165
    115e:	9801      	ldr	r0, [sp, #4]
    1160:	3000      	adds	r0, #0
    1162:	bf18      	it	ne
    1164:	2001      	movne	r0, #1
    1166:	b003      	add	sp, #12
    1168:	f85d fb04 	ldr.w	pc, [sp], #4

0000116c <TEE_MaskCancellation>:
TEE_MaskCancellation():
/mnt/disk/raspbian-tee/optee_os/lib/libutee/tee_api.c:168
    116c:	b507      	push	{r0, r1, r2, lr}
/mnt/disk/raspbian-tee/optee_os/lib/libutee/tee_api.c:170
    116e:	a801      	add	r0, sp, #4
    1170:	f000 edfa 	blx	1d68 <utee_mask_cancellation>
/mnt/disk/raspbian-tee/optee_os/lib/libutee/tee_api.c:172
    1174:	b108      	cbz	r0, 117a <TEE_MaskCancellation+0xe>
/mnt/disk/raspbian-tee/optee_os/lib/libutee/tee_api.c:173
    1176:	f005 fc0c 	bl	6992 <TEE_Panic>
/mnt/disk/raspbian-tee/optee_os/lib/libutee/tee_api.c:175
    117a:	9801      	ldr	r0, [sp, #4]
    117c:	3000      	adds	r0, #0
    117e:	bf18      	it	ne
    1180:	2001      	movne	r0, #1
    1182:	b003      	add	sp, #12
    1184:	f85d fb04 	ldr.w	pc, [sp], #4

00001188 <TEE_CheckMemoryAccessRights>:
TEE_CheckMemoryAccessRights():
/mnt/disk/raspbian-tee/optee_os/lib/libutee/tee_api.c:184
    1188:	b10a      	cbz	r2, 118e <TEE_CheckMemoryAccessRights+0x6>
/mnt/disk/raspbian-tee/optee_os/lib/libutee/tee_api.c:188
    118a:	f005 bc69 	b.w	6a60 <__utee_check_access_rights_from_thumb>
/mnt/disk/raspbian-tee/optee_os/lib/libutee/tee_api.c:200
    118e:	4610      	mov	r0, r2
    1190:	4770      	bx	lr

00001192 <TEE_SetInstanceData>:
TEE_SetInstanceData():
/mnt/disk/raspbian-tee/optee_os/lib/libutee/tee_api.c:204
    1192:	4b02      	ldr	r3, [pc, #8]	; (119c <TEE_SetInstanceData+0xa>)
    1194:	447b      	add	r3, pc
    1196:	6018      	str	r0, [r3, #0]
    1198:	4770      	bx	lr
    119a:	bf00      	nop
    119c:	00007f18 	.word	0x00007f18

000011a0 <TEE_GetInstanceData>:
TEE_GetInstanceData():
/mnt/disk/raspbian-tee/optee_os/lib/libutee/tee_api.c:210
    11a0:	4b01      	ldr	r3, [pc, #4]	; (11a8 <TEE_GetInstanceData+0x8>)
    11a2:	447b      	add	r3, pc
    11a4:	6818      	ldr	r0, [r3, #0]
    11a6:	4770      	bx	lr
    11a8:	00007f0a 	.word	0x00007f0a

000011ac <TEE_MemMove>:
TEE_MemMove():
/mnt/disk/raspbian-tee/optee_os/lib/libutee/tee_api.c:214
    11ac:	f005 bc23 	b.w	69f6 <memmove>

000011b0 <TEE_MemCompare>:
TEE_MemCompare():
/mnt/disk/raspbian-tee/optee_os/lib/libutee/tee_api.c:219
    11b0:	f005 bc07 	b.w	69c2 <memcmp>

000011b4 <TEE_MemFill>:
TEE_MemFill():
/mnt/disk/raspbian-tee/optee_os/lib/libutee/tee_api.c:224
    11b4:	f005 ba60 	b.w	6678 <memset>

000011b8 <TEE_GetSystemTime>:
TEE_GetSystemTime():
/mnt/disk/raspbian-tee/optee_os/lib/libutee/tee_api.c:230
    11b8:	b508      	push	{r3, lr}
/mnt/disk/raspbian-tee/optee_os/lib/libutee/tee_api.c:231
    11ba:	4601      	mov	r1, r0
    11bc:	2000      	movs	r0, #0
    11be:	f000 ede8 	blx	1d90 <utee_get_time>
/mnt/disk/raspbian-tee/optee_os/lib/libutee/tee_api.c:233
    11c2:	b118      	cbz	r0, 11cc <TEE_GetSystemTime+0x14>
/mnt/disk/raspbian-tee/optee_os/lib/libutee/tee_api.c:235
    11c4:	e8bd 4008 	ldmia.w	sp!, {r3, lr}
/mnt/disk/raspbian-tee/optee_os/lib/libutee/tee_api.c:234
    11c8:	f005 bbe3 	b.w	6992 <TEE_Panic>
    11cc:	bd08      	pop	{r3, pc}

000011ce <TEE_Wait>:
TEE_Wait():
/mnt/disk/raspbian-tee/optee_os/lib/libutee/tee_api.c:238
    11ce:	b510      	push	{r4, lr}
/mnt/disk/raspbian-tee/optee_os/lib/libutee/tee_api.c:239
    11d0:	f000 edd4 	blx	1d7c <utee_wait>
/mnt/disk/raspbian-tee/optee_os/lib/libutee/tee_api.c:241
    11d4:	4604      	mov	r4, r0
    11d6:	b120      	cbz	r0, 11e2 <TEE_Wait+0x14>
/mnt/disk/raspbian-tee/optee_os/lib/libutee/tee_api.c:241 (discriminator 1)
    11d8:	4b03      	ldr	r3, [pc, #12]	; (11e8 <TEE_Wait+0x1a>)
    11da:	4298      	cmp	r0, r3
    11dc:	d001      	beq.n	11e2 <TEE_Wait+0x14>
/mnt/disk/raspbian-tee/optee_os/lib/libutee/tee_api.c:242
    11de:	f005 fbd8 	bl	6992 <TEE_Panic>
/mnt/disk/raspbian-tee/optee_os/lib/libutee/tee_api.c:245
    11e2:	4620      	mov	r0, r4
    11e4:	bd10      	pop	{r4, pc}
    11e6:	bf00      	nop
    11e8:	ffff0002 	.word	0xffff0002

000011ec <TEE_GetTAPersistentTime>:
TEE_GetTAPersistentTime():
/mnt/disk/raspbian-tee/optee_os/lib/libutee/tee_api.c:248
    11ec:	b538      	push	{r3, r4, r5, lr}
/mnt/disk/raspbian-tee/optee_os/lib/libutee/tee_api.c:251
    11ee:	4601      	mov	r1, r0
/mnt/disk/raspbian-tee/optee_os/lib/libutee/tee_api.c:248
    11f0:	4605      	mov	r5, r0
/mnt/disk/raspbian-tee/optee_os/lib/libutee/tee_api.c:251
    11f2:	2001      	movs	r0, #1
    11f4:	f000 edcc 	blx	1d90 <utee_get_time>
/mnt/disk/raspbian-tee/optee_os/lib/libutee/tee_api.c:253
    11f8:	4604      	mov	r4, r0
    11fa:	b170      	cbz	r0, 121a <TEE_GetTAPersistentTime+0x2e>
/mnt/disk/raspbian-tee/optee_os/lib/libutee/tee_api.c:253 (discriminator 1)
    11fc:	4b08      	ldr	r3, [pc, #32]	; (1220 <TEE_GetTAPersistentTime+0x34>)
    11fe:	4298      	cmp	r0, r3
    1200:	d00b      	beq.n	121a <TEE_GetTAPersistentTime+0x2e>
/mnt/disk/raspbian-tee/optee_os/lib/libutee/tee_api.c:254
    1202:	2300      	movs	r3, #0
    1204:	602b      	str	r3, [r5, #0]
/mnt/disk/raspbian-tee/optee_os/lib/libutee/tee_api.c:255
    1206:	606b      	str	r3, [r5, #4]
/mnt/disk/raspbian-tee/optee_os/lib/libutee/tee_api.c:258
    1208:	f500 4330 	add.w	r3, r0, #45056	; 0xb000
    120c:	2b01      	cmp	r3, #1
    120e:	d904      	bls.n	121a <TEE_GetTAPersistentTime+0x2e>
/mnt/disk/raspbian-tee/optee_os/lib/libutee/tee_api.c:261
    1210:	4b04      	ldr	r3, [pc, #16]	; (1224 <TEE_GetTAPersistentTime+0x38>)
    1212:	4298      	cmp	r0, r3
    1214:	d001      	beq.n	121a <TEE_GetTAPersistentTime+0x2e>
/mnt/disk/raspbian-tee/optee_os/lib/libutee/tee_api.c:263
    1216:	f005 fbbc 	bl	6992 <TEE_Panic>
/mnt/disk/raspbian-tee/optee_os/lib/libutee/tee_api.c:266
    121a:	4620      	mov	r0, r4
    121c:	bd38      	pop	{r3, r4, r5, pc}
    121e:	bf00      	nop
    1220:	ffff300f 	.word	0xffff300f
    1224:	ffff000c 	.word	0xffff000c

00001228 <TEE_SetTAPersistentTime>:
TEE_SetTAPersistentTime():
/mnt/disk/raspbian-tee/optee_os/lib/libutee/tee_api.c:269
    1228:	b510      	push	{r4, lr}
/mnt/disk/raspbian-tee/optee_os/lib/libutee/tee_api.c:272
    122a:	f000 edbc 	blx	1da4 <utee_set_ta_time>
/mnt/disk/raspbian-tee/optee_os/lib/libutee/tee_api.c:274
    122e:	4604      	mov	r4, r0
    1230:	b138      	cbz	r0, 1242 <TEE_SetTAPersistentTime+0x1a>
/mnt/disk/raspbian-tee/optee_os/lib/libutee/tee_api.c:274 (discriminator 1)
    1232:	4b05      	ldr	r3, [pc, #20]	; (1248 <TEE_SetTAPersistentTime+0x20>)
    1234:	4298      	cmp	r0, r3
    1236:	d004      	beq.n	1242 <TEE_SetTAPersistentTime+0x1a>
/mnt/disk/raspbian-tee/optee_os/lib/libutee/tee_api.c:275
    1238:	4b04      	ldr	r3, [pc, #16]	; (124c <TEE_SetTAPersistentTime+0x24>)
    123a:	4298      	cmp	r0, r3
    123c:	d001      	beq.n	1242 <TEE_SetTAPersistentTime+0x1a>
/mnt/disk/raspbian-tee/optee_os/lib/libutee/tee_api.c:277
    123e:	f005 fba8 	bl	6992 <TEE_Panic>
/mnt/disk/raspbian-tee/optee_os/lib/libutee/tee_api.c:280
    1242:	4620      	mov	r0, r4
    1244:	bd10      	pop	{r4, pc}
    1246:	bf00      	nop
    1248:	ffff000c 	.word	0xffff000c
    124c:	ffff3041 	.word	0xffff3041

00001250 <TEE_GetREETime>:
TEE_GetREETime():
/mnt/disk/raspbian-tee/optee_os/lib/libutee/tee_api.c:283
    1250:	b508      	push	{r3, lr}
/mnt/disk/raspbian-tee/optee_os/lib/libutee/tee_api.c:284
    1252:	4601      	mov	r1, r0
    1254:	2002      	movs	r0, #2
    1256:	f000 ed9c 	blx	1d90 <utee_get_time>
/mnt/disk/raspbian-tee/optee_os/lib/libutee/tee_api.c:286
    125a:	b118      	cbz	r0, 1264 <TEE_GetREETime+0x14>
/mnt/disk/raspbian-tee/optee_os/lib/libutee/tee_api.c:288
    125c:	e8bd 4008 	ldmia.w	sp!, {r3, lr}
/mnt/disk/raspbian-tee/optee_os/lib/libutee/tee_api.c:287
    1260:	f005 bb97 	b.w	6992 <TEE_Panic>
    1264:	bd08      	pop	{r3, pc}

00001266 <TEE_Malloc>:
TEE_Malloc():
/mnt/disk/raspbian-tee/optee_os/lib/libutee/tee_api.c:291
    1266:	b507      	push	{r0, r1, r2, lr}
/mnt/disk/raspbian-tee/optee_os/lib/libutee/tee_api.c:292
    1268:	b931      	cbnz	r1, 1278 <TEE_Malloc+0x12>
/mnt/disk/raspbian-tee/optee_os/lib/libutee/tee_api.c:293
    126a:	4601      	mov	r1, r0
    126c:	2001      	movs	r0, #1
/mnt/disk/raspbian-tee/optee_os/lib/libutee/tee_api.c:300
    126e:	b003      	add	sp, #12
    1270:	f85d eb04 	ldr.w	lr, [sp], #4
/mnt/disk/raspbian-tee/optee_os/lib/libutee/tee_api.c:293
    1274:	f004 beb8 	b.w	5fe8 <calloc>
/mnt/disk/raspbian-tee/optee_os/lib/libutee/tee_api.c:294
    1278:	f1b1 4f00 	cmp.w	r1, #2147483648	; 0x80000000
    127c:	d104      	bne.n	1288 <TEE_Malloc+0x22>
/mnt/disk/raspbian-tee/optee_os/lib/libutee/tee_api.c:300
    127e:	b003      	add	sp, #12
    1280:	f85d eb04 	ldr.w	lr, [sp], #4
/mnt/disk/raspbian-tee/optee_os/lib/libutee/tee_api.c:295
    1284:	f004 bea6 	b.w	5fd4 <malloc>
/mnt/disk/raspbian-tee/optee_os/lib/libutee/tee_api.c:297
    1288:	4b07      	ldr	r3, [pc, #28]	; (12a8 <TEE_Malloc+0x42>)
    128a:	4808      	ldr	r0, [pc, #32]	; (12ac <TEE_Malloc+0x46>)
    128c:	447b      	add	r3, pc
    128e:	9300      	str	r3, [sp, #0]
    1290:	2301      	movs	r3, #1
    1292:	9101      	str	r1, [sp, #4]
    1294:	461a      	mov	r2, r3
    1296:	f240 1129 	movw	r1, #297	; 0x129
    129a:	4478      	add	r0, pc
    129c:	f7ff f972 	bl	584 <trace_printf>
/mnt/disk/raspbian-tee/optee_os/lib/libutee/tee_api.c:300
    12a0:	2000      	movs	r0, #0
    12a2:	b003      	add	sp, #12
    12a4:	f85d fb04 	ldr.w	pc, [sp], #4
    12a8:	00005f7b 	.word	0x00005f7b
    12ac:	00005f62 	.word	0x00005f62

000012b0 <TEE_Realloc>:
TEE_Realloc():
/mnt/disk/raspbian-tee/optee_os/lib/libutee/tee_api.c:304
    12b0:	f004 bebe 	b.w	6030 <realloc>

000012b4 <TEE_Free>:
TEE_Free():
/mnt/disk/raspbian-tee/optee_os/lib/libutee/tee_api.c:309
    12b4:	f004 be8f 	b.w	5fd6 <free>

000012b8 <TEE_CacheClean>:
TEE_CacheClean():
/mnt/disk/raspbian-tee/optee_os/lib/libutee/tee_api.c:315
    12b8:	2200      	movs	r2, #0
    12ba:	f005 bbc1 	b.w	6a40 <__utee_cache_operation_from_thumb>

000012be <TEE_CacheFlush>:
TEE_CacheFlush():
/mnt/disk/raspbian-tee/optee_os/lib/libutee/tee_api.c:319
    12be:	2201      	movs	r2, #1
    12c0:	f005 bbbe 	b.w	6a40 <__utee_cache_operation_from_thumb>

000012c4 <TEE_CacheInvalidate>:
TEE_CacheInvalidate():
/mnt/disk/raspbian-tee/optee_os/lib/libutee/tee_api.c:324
    12c4:	2202      	movs	r2, #2
    12c6:	f005 bbbb 	b.w	6a40 <__utee_cache_operation_from_thumb>
    12ca:	bf00      	nop

000012cc <__utee_from_attr>:
__utee_from_attr():
/mnt/disk/raspbian-tee/optee_os/lib/libutee/tee_api_objects.c:19
    12cc:	2318      	movs	r3, #24
    12ce:	b530      	push	{r4, r5, lr}
/mnt/disk/raspbian-tee/optee_os/lib/libutee/tee_api_objects.c:25
    12d0:	2400      	movs	r4, #0
    12d2:	fb03 0202 	mla	r2, r3, r2, r0
/mnt/disk/raspbian-tee/optee_os/lib/libutee/tee_api_objects.c:22 (discriminator 1)
    12d6:	4290      	cmp	r0, r2
    12d8:	d100      	bne.n	12dc <__utee_from_attr+0x10>
/mnt/disk/raspbian-tee/optee_os/lib/libutee/tee_api_objects.c:32
    12da:	bd30      	pop	{r4, r5, pc}
/mnt/disk/raspbian-tee/optee_os/lib/libutee/tee_api_objects.c:23
    12dc:	680b      	ldr	r3, [r1, #0]
    12de:	6103      	str	r3, [r0, #16]
/mnt/disk/raspbian-tee/optee_os/lib/libutee/tee_api_objects.c:24
    12e0:	f013 5300 	ands.w	r3, r3, #536870912	; 0x20000000
    12e4:	d008      	beq.n	12f8 <__utee_from_attr+0x2c>
/mnt/disk/raspbian-tee/optee_os/lib/libutee/tee_api_objects.c:25
    12e6:	684b      	ldr	r3, [r1, #4]
    12e8:	e880 0018 	stmia.w	r0, {r3, r4}
/mnt/disk/raspbian-tee/optee_os/lib/libutee/tee_api_objects.c:26
    12ec:	688b      	ldr	r3, [r1, #8]
    12ee:	6083      	str	r3, [r0, #8]
    12f0:	60c4      	str	r4, [r0, #12]
    12f2:	310c      	adds	r1, #12
    12f4:	3018      	adds	r0, #24
    12f6:	e7ee      	b.n	12d6 <__utee_from_attr+0xa>
/mnt/disk/raspbian-tee/optee_os/lib/libutee/tee_api_objects.c:28
    12f8:	684d      	ldr	r5, [r1, #4]
    12fa:	6005      	str	r5, [r0, #0]
    12fc:	6043      	str	r3, [r0, #4]
/mnt/disk/raspbian-tee/optee_os/lib/libutee/tee_api_objects.c:29
    12fe:	688d      	ldr	r5, [r1, #8]
    1300:	6085      	str	r5, [r0, #8]
    1302:	60c3      	str	r3, [r0, #12]
    1304:	e7f5      	b.n	12f2 <__utee_from_attr+0x26>

00001306 <TEE_GetObjectInfo>:
TEE_GetObjectInfo():
/mnt/disk/raspbian-tee/optee_os/lib/libutee/tee_api_objects.c:42
    1306:	b510      	push	{r4, lr}
    1308:	460c      	mov	r4, r1
/mnt/disk/raspbian-tee/optee_os/lib/libutee/tee_api_objects.c:45
    130a:	f000 edb8 	blx	1e7c <utee_cryp_obj_get_info>
/mnt/disk/raspbian-tee/optee_os/lib/libutee/tee_api_objects.c:47
    130e:	b108      	cbz	r0, 1314 <TEE_GetObjectInfo+0xe>
/mnt/disk/raspbian-tee/optee_os/lib/libutee/tee_api_objects.c:48
    1310:	f005 fb3f 	bl	6992 <TEE_Panic>
/mnt/disk/raspbian-tee/optee_os/lib/libutee/tee_api_objects.c:50
    1314:	6822      	ldr	r2, [r4, #0]
    1316:	4b05      	ldr	r3, [pc, #20]	; (132c <TEE_GetObjectInfo+0x26>)
    1318:	429a      	cmp	r2, r3
    131a:	d106      	bne.n	132a <TEE_GetObjectInfo+0x24>
/mnt/disk/raspbian-tee/optee_os/lib/libutee/tee_api_objects.c:51
    131c:	2300      	movs	r3, #0
    131e:	6063      	str	r3, [r4, #4]
/mnt/disk/raspbian-tee/optee_os/lib/libutee/tee_api_objects.c:52
    1320:	60a3      	str	r3, [r4, #8]
/mnt/disk/raspbian-tee/optee_os/lib/libutee/tee_api_objects.c:53
    1322:	60e3      	str	r3, [r4, #12]
/mnt/disk/raspbian-tee/optee_os/lib/libutee/tee_api_objects.c:54
    1324:	6123      	str	r3, [r4, #16]
/mnt/disk/raspbian-tee/optee_os/lib/libutee/tee_api_objects.c:55
    1326:	6163      	str	r3, [r4, #20]
/mnt/disk/raspbian-tee/optee_os/lib/libutee/tee_api_objects.c:56
    1328:	61a3      	str	r3, [r4, #24]
    132a:	bd10      	pop	{r4, pc}
    132c:	a00000be 	.word	0xa00000be

00001330 <TEE_GetObjectInfo1>:
TEE_GetObjectInfo1():
/mnt/disk/raspbian-tee/optee_os/lib/libutee/tee_api_objects.c:61
    1330:	b510      	push	{r4, lr}
/mnt/disk/raspbian-tee/optee_os/lib/libutee/tee_api_objects.c:64
    1332:	f000 eda4 	blx	1e7c <utee_cryp_obj_get_info>
/mnt/disk/raspbian-tee/optee_os/lib/libutee/tee_api_objects.c:66
    1336:	4604      	mov	r4, r0
    1338:	b130      	cbz	r0, 1348 <TEE_GetObjectInfo1+0x18>
/mnt/disk/raspbian-tee/optee_os/lib/libutee/tee_api_objects.c:66 (discriminator 1)
    133a:	4b04      	ldr	r3, [pc, #16]	; (134c <TEE_GetObjectInfo1+0x1c>)
    133c:	f020 0202 	bic.w	r2, r0, #2
    1340:	429a      	cmp	r2, r3
    1342:	d001      	beq.n	1348 <TEE_GetObjectInfo1+0x18>
/mnt/disk/raspbian-tee/optee_os/lib/libutee/tee_api_objects.c:69
    1344:	f005 fb25 	bl	6992 <TEE_Panic>
/mnt/disk/raspbian-tee/optee_os/lib/libutee/tee_api_objects.c:72
    1348:	4620      	mov	r0, r4
    134a:	bd10      	pop	{r4, pc}
    134c:	f0100001 	.word	0xf0100001

00001350 <TEE_RestrictObjectUsage1>:
TEE_RestrictObjectUsage1():
/mnt/disk/raspbian-tee/optee_os/lib/libutee/tee_api_objects.c:96
    1350:	b510      	push	{r4, lr}
/mnt/disk/raspbian-tee/optee_os/lib/libutee/tee_api_objects.c:99
    1352:	f000 ed9e 	blx	1e90 <utee_cryp_obj_restrict_usage>
/mnt/disk/raspbian-tee/optee_os/lib/libutee/tee_api_objects.c:101
    1356:	4604      	mov	r4, r0
    1358:	b130      	cbz	r0, 1368 <TEE_RestrictObjectUsage1+0x18>
/mnt/disk/raspbian-tee/optee_os/lib/libutee/tee_api_objects.c:101 (discriminator 1)
    135a:	4b04      	ldr	r3, [pc, #16]	; (136c <TEE_RestrictObjectUsage1+0x1c>)
    135c:	f020 0202 	bic.w	r2, r0, #2
    1360:	429a      	cmp	r2, r3
    1362:	d001      	beq.n	1368 <TEE_RestrictObjectUsage1+0x18>
/mnt/disk/raspbian-tee/optee_os/lib/libutee/tee_api_objects.c:104
    1364:	f005 fb15 	bl	6992 <TEE_Panic>
/mnt/disk/raspbian-tee/optee_os/lib/libutee/tee_api_objects.c:107
    1368:	4620      	mov	r0, r4
    136a:	bd10      	pop	{r4, pc}
    136c:	f0100001 	.word	0xf0100001

00001370 <TEE_RestrictObjectUsage>:
TEE_RestrictObjectUsage():
/mnt/disk/raspbian-tee/optee_os/lib/libutee/tee_api_objects.c:81
    1370:	b530      	push	{r4, r5, lr}
    1372:	460d      	mov	r5, r1
    1374:	4604      	mov	r4, r0
    1376:	b089      	sub	sp, #36	; 0x24
/mnt/disk/raspbian-tee/optee_os/lib/libutee/tee_api_objects.c:85
    1378:	a901      	add	r1, sp, #4
    137a:	f000 ed80 	blx	1e7c <utee_cryp_obj_get_info>
/mnt/disk/raspbian-tee/optee_os/lib/libutee/tee_api_objects.c:86
    137e:	4b06      	ldr	r3, [pc, #24]	; (1398 <TEE_RestrictObjectUsage+0x28>)
    1380:	9a01      	ldr	r2, [sp, #4]
    1382:	429a      	cmp	r2, r3
    1384:	d006      	beq.n	1394 <TEE_RestrictObjectUsage+0x24>
/mnt/disk/raspbian-tee/optee_os/lib/libutee/tee_api_objects.c:89
    1386:	4629      	mov	r1, r5
    1388:	4620      	mov	r0, r4
    138a:	f7ff ffe1 	bl	1350 <TEE_RestrictObjectUsage1>
/mnt/disk/raspbian-tee/optee_os/lib/libutee/tee_api_objects.c:91
    138e:	b108      	cbz	r0, 1394 <TEE_RestrictObjectUsage+0x24>
/mnt/disk/raspbian-tee/optee_os/lib/libutee/tee_api_objects.c:92
    1390:	f005 faff 	bl	6992 <TEE_Panic>
/mnt/disk/raspbian-tee/optee_os/lib/libutee/tee_api_objects.c:93
    1394:	b009      	add	sp, #36	; 0x24
    1396:	bd30      	pop	{r4, r5, pc}
    1398:	a00000be 	.word	0xa00000be

0000139c <TEE_GetObjectBufferAttribute>:
TEE_GetObjectBufferAttribute():
/mnt/disk/raspbian-tee/optee_os/lib/libutee/tee_api_objects.c:112
    139c:	e92d 41f0 	stmdb	sp!, {r4, r5, r6, r7, r8, lr}
    13a0:	460e      	mov	r6, r1
    13a2:	4607      	mov	r7, r0
    13a4:	b08a      	sub	sp, #40	; 0x28
    13a6:	4690      	mov	r8, r2
/mnt/disk/raspbian-tee/optee_os/lib/libutee/tee_api_objects.c:117
    13a8:	a903      	add	r1, sp, #12
/mnt/disk/raspbian-tee/optee_os/lib/libutee/tee_api_objects.c:112
    13aa:	461d      	mov	r5, r3
/mnt/disk/raspbian-tee/optee_os/lib/libutee/tee_api_objects.c:117
    13ac:	f000 ed66 	blx	1e7c <utee_cryp_obj_get_info>
/mnt/disk/raspbian-tee/optee_os/lib/libutee/tee_api_objects.c:118
    13b0:	4604      	mov	r4, r0
    13b2:	b970      	cbnz	r0, 13d2 <TEE_GetObjectBufferAttribute+0x36>
/mnt/disk/raspbian-tee/optee_os/lib/libutee/tee_api_objects.c:122
    13b4:	00b3      	lsls	r3, r6, #2
    13b6:	d422      	bmi.n	13fe <TEE_GetObjectBufferAttribute+0x62>
/mnt/disk/raspbian-tee/optee_os/lib/libutee/tee_api_objects.c:127
    13b8:	682b      	ldr	r3, [r5, #0]
/mnt/disk/raspbian-tee/optee_os/lib/libutee/tee_api_objects.c:128
    13ba:	4642      	mov	r2, r8
/mnt/disk/raspbian-tee/optee_os/lib/libutee/tee_api_objects.c:127
    13bc:	e88d 0018 	stmia.w	sp, {r3, r4}
/mnt/disk/raspbian-tee/optee_os/lib/libutee/tee_api_objects.c:128
    13c0:	4631      	mov	r1, r6
    13c2:	466b      	mov	r3, sp
    13c4:	4638      	mov	r0, r7
    13c6:	f000 ed6e 	blx	1ea4 <utee_cryp_obj_get_attr>
/mnt/disk/raspbian-tee/optee_os/lib/libutee/tee_api_objects.c:130
    13ca:	9b00      	ldr	r3, [sp, #0]
    13cc:	602b      	str	r3, [r5, #0]
/mnt/disk/raspbian-tee/optee_os/lib/libutee/tee_api_objects.c:133
    13ce:	4604      	mov	r4, r0
    13d0:	b188      	cbz	r0, 13f6 <TEE_GetObjectBufferAttribute+0x5a>
/mnt/disk/raspbian-tee/optee_os/lib/libutee/tee_api_objects.c:133 (discriminator 1)
    13d2:	4b0c      	ldr	r3, [pc, #48]	; (1404 <TEE_GetObjectBufferAttribute+0x68>)
    13d4:	429c      	cmp	r4, r3
    13d6:	d00e      	beq.n	13f6 <TEE_GetObjectBufferAttribute+0x5a>
/mnt/disk/raspbian-tee/optee_os/lib/libutee/tee_api_objects.c:134
    13d8:	3308      	adds	r3, #8
    13da:	429c      	cmp	r4, r3
    13dc:	d00b      	beq.n	13f6 <TEE_GetObjectBufferAttribute+0x5a>
/mnt/disk/raspbian-tee/optee_os/lib/libutee/tee_api_objects.c:135
    13de:	f1a3 637e 	sub.w	r3, r3, #266338304	; 0xfe00000
    13e2:	f1a3 130f 	sub.w	r3, r3, #983055	; 0xf000f
    13e6:	429c      	cmp	r4, r3
    13e8:	d005      	beq.n	13f6 <TEE_GetObjectBufferAttribute+0x5a>
/mnt/disk/raspbian-tee/optee_os/lib/libutee/tee_api_objects.c:136
    13ea:	3302      	adds	r3, #2
    13ec:	429c      	cmp	r4, r3
    13ee:	d002      	beq.n	13f6 <TEE_GetObjectBufferAttribute+0x5a>
/mnt/disk/raspbian-tee/optee_os/lib/libutee/tee_api_objects.c:138
    13f0:	4620      	mov	r0, r4
    13f2:	f005 face 	bl	6992 <TEE_Panic>
/mnt/disk/raspbian-tee/optee_os/lib/libutee/tee_api_objects.c:141
    13f6:	4620      	mov	r0, r4
    13f8:	b00a      	add	sp, #40	; 0x28
    13fa:	e8bd 81f0 	ldmia.w	sp!, {r4, r5, r6, r7, r8, pc}
/mnt/disk/raspbian-tee/optee_os/lib/libutee/tee_api_objects.c:123
    13fe:	4c02      	ldr	r4, [pc, #8]	; (1408 <TEE_GetObjectBufferAttribute+0x6c>)
    1400:	e7f6      	b.n	13f0 <TEE_GetObjectBufferAttribute+0x54>
    1402:	bf00      	nop
    1404:	ffff0008 	.word	0xffff0008
    1408:	ffff0006 	.word	0xffff0006

0000140c <TEE_GetObjectValueAttribute>:
TEE_GetObjectValueAttribute():
/mnt/disk/raspbian-tee/optee_os/lib/libutee/tee_api_objects.c:146
    140c:	e92d 41f0 	stmdb	sp!, {r4, r5, r6, r7, r8, lr}
    1410:	460f      	mov	r7, r1
    1412:	4680      	mov	r8, r0
    1414:	b08c      	sub	sp, #48	; 0x30
    1416:	4616      	mov	r6, r2
/mnt/disk/raspbian-tee/optee_os/lib/libutee/tee_api_objects.c:152
    1418:	a905      	add	r1, sp, #20
/mnt/disk/raspbian-tee/optee_os/lib/libutee/tee_api_objects.c:150
    141a:	2208      	movs	r2, #8
/mnt/disk/raspbian-tee/optee_os/lib/libutee/tee_api_objects.c:146
    141c:	461d      	mov	r5, r3
/mnt/disk/raspbian-tee/optee_os/lib/libutee/tee_api_objects.c:150
    141e:	2300      	movs	r3, #0
    1420:	e9cd 2300 	strd	r2, r3, [sp]
/mnt/disk/raspbian-tee/optee_os/lib/libutee/tee_api_objects.c:152
    1424:	f000 ed2a 	blx	1e7c <utee_cryp_obj_get_info>
/mnt/disk/raspbian-tee/optee_os/lib/libutee/tee_api_objects.c:153
    1428:	4604      	mov	r4, r0
    142a:	b948      	cbnz	r0, 1440 <TEE_GetObjectValueAttribute+0x34>
/mnt/disk/raspbian-tee/optee_os/lib/libutee/tee_api_objects.c:157
    142c:	00bb      	lsls	r3, r7, #2
    142e:	d527      	bpl.n	1480 <TEE_GetObjectValueAttribute+0x74>
/mnt/disk/raspbian-tee/optee_os/lib/libutee/tee_api_objects.c:162
    1430:	466b      	mov	r3, sp
    1432:	aa03      	add	r2, sp, #12
    1434:	4639      	mov	r1, r7
    1436:	4640      	mov	r0, r8
    1438:	f000 ed34 	blx	1ea4 <utee_cryp_obj_get_attr>
/mnt/disk/raspbian-tee/optee_os/lib/libutee/tee_api_objects.c:166
    143c:	4604      	mov	r4, r0
    143e:	b158      	cbz	r0, 1458 <TEE_GetObjectValueAttribute+0x4c>
/mnt/disk/raspbian-tee/optee_os/lib/libutee/tee_api_objects.c:166 (discriminator 1)
    1440:	4b10      	ldr	r3, [pc, #64]	; (1484 <TEE_GetObjectValueAttribute+0x78>)
    1442:	429c      	cmp	r4, r3
    1444:	d008      	beq.n	1458 <TEE_GetObjectValueAttribute+0x4c>
/mnt/disk/raspbian-tee/optee_os/lib/libutee/tee_api_objects.c:167
    1446:	4b10      	ldr	r3, [pc, #64]	; (1488 <TEE_GetObjectValueAttribute+0x7c>)
    1448:	429c      	cmp	r4, r3
    144a:	d005      	beq.n	1458 <TEE_GetObjectValueAttribute+0x4c>
/mnt/disk/raspbian-tee/optee_os/lib/libutee/tee_api_objects.c:168
    144c:	3302      	adds	r3, #2
    144e:	429c      	cmp	r4, r3
    1450:	d002      	beq.n	1458 <TEE_GetObjectValueAttribute+0x4c>
/mnt/disk/raspbian-tee/optee_os/lib/libutee/tee_api_objects.c:170
    1452:	4620      	mov	r0, r4
    1454:	f005 fa9d 	bl	6992 <TEE_Panic>
/mnt/disk/raspbian-tee/optee_os/lib/libutee/tee_api_objects.c:172
    1458:	e9dd 2300 	ldrd	r2, r3, [sp]
    145c:	2b00      	cmp	r3, #0
    145e:	bf08      	it	eq
    1460:	2a08      	cmpeq	r2, #8
    1462:	d002      	beq.n	146a <TEE_GetObjectValueAttribute+0x5e>
/mnt/disk/raspbian-tee/optee_os/lib/libutee/tee_api_objects.c:173
    1464:	2000      	movs	r0, #0
    1466:	f005 fa94 	bl	6992 <TEE_Panic>
/mnt/disk/raspbian-tee/optee_os/lib/libutee/tee_api_objects.c:175
    146a:	b92c      	cbnz	r4, 1478 <TEE_GetObjectValueAttribute+0x6c>
/mnt/disk/raspbian-tee/optee_os/lib/libutee/tee_api_objects.c:176
    146c:	b10e      	cbz	r6, 1472 <TEE_GetObjectValueAttribute+0x66>
/mnt/disk/raspbian-tee/optee_os/lib/libutee/tee_api_objects.c:177
    146e:	9b03      	ldr	r3, [sp, #12]
    1470:	6033      	str	r3, [r6, #0]
/mnt/disk/raspbian-tee/optee_os/lib/libutee/tee_api_objects.c:178
    1472:	b10d      	cbz	r5, 1478 <TEE_GetObjectValueAttribute+0x6c>
/mnt/disk/raspbian-tee/optee_os/lib/libutee/tee_api_objects.c:179
    1474:	9b04      	ldr	r3, [sp, #16]
    1476:	602b      	str	r3, [r5, #0]
/mnt/disk/raspbian-tee/optee_os/lib/libutee/tee_api_objects.c:183
    1478:	4620      	mov	r0, r4
    147a:	b00c      	add	sp, #48	; 0x30
    147c:	e8bd 81f0 	ldmia.w	sp!, {r4, r5, r6, r7, r8, pc}
/mnt/disk/raspbian-tee/optee_os/lib/libutee/tee_api_objects.c:158
    1480:	4c02      	ldr	r4, [pc, #8]	; (148c <TEE_GetObjectValueAttribute+0x80>)
    1482:	e7e6      	b.n	1452 <TEE_GetObjectValueAttribute+0x46>
    1484:	ffff0008 	.word	0xffff0008
    1488:	f0100001 	.word	0xf0100001
    148c:	ffff0006 	.word	0xffff0006

00001490 <TEE_CloseObject>:
TEE_CloseObject():
/mnt/disk/raspbian-tee/optee_os/lib/libutee/tee_api_objects.c:186
    1490:	b508      	push	{r3, lr}
/mnt/disk/raspbian-tee/optee_os/lib/libutee/tee_api_objects.c:189
    1492:	b130      	cbz	r0, 14a2 <TEE_CloseObject+0x12>
/mnt/disk/raspbian-tee/optee_os/lib/libutee/tee_api_objects.c:192
    1494:	f000 ed1a 	blx	1ecc <utee_cryp_obj_close>
/mnt/disk/raspbian-tee/optee_os/lib/libutee/tee_api_objects.c:193
    1498:	b118      	cbz	r0, 14a2 <TEE_CloseObject+0x12>
/mnt/disk/raspbian-tee/optee_os/lib/libutee/tee_api_objects.c:195
    149a:	e8bd 4008 	ldmia.w	sp!, {r3, lr}
/mnt/disk/raspbian-tee/optee_os/lib/libutee/tee_api_objects.c:194
    149e:	f005 ba78 	b.w	6992 <TEE_Panic>
    14a2:	bd08      	pop	{r3, pc}

000014a4 <TEE_AllocateTransientObject>:
TEE_AllocateTransientObject():
/mnt/disk/raspbian-tee/optee_os/lib/libutee/tee_api_objects.c:202
    14a4:	b537      	push	{r0, r1, r2, r4, r5, lr}
    14a6:	4615      	mov	r5, r2
/mnt/disk/raspbian-tee/optee_os/lib/libutee/tee_api_objects.c:206
    14a8:	aa01      	add	r2, sp, #4
    14aa:	f000 ed06 	blx	1eb8 <utee_cryp_obj_alloc>
/mnt/disk/raspbian-tee/optee_os/lib/libutee/tee_api_objects.c:208
    14ae:	4604      	mov	r4, r0
    14b0:	b150      	cbz	r0, 14c8 <TEE_AllocateTransientObject+0x24>
/mnt/disk/raspbian-tee/optee_os/lib/libutee/tee_api_objects.c:208 (discriminator 1)
    14b2:	4b07      	ldr	r3, [pc, #28]	; (14d0 <TEE_AllocateTransientObject+0x2c>)
    14b4:	4298      	cmp	r0, r3
    14b6:	d004      	beq.n	14c2 <TEE_AllocateTransientObject+0x1e>
/mnt/disk/raspbian-tee/optee_os/lib/libutee/tee_api_objects.c:209
    14b8:	3b02      	subs	r3, #2
    14ba:	4298      	cmp	r0, r3
    14bc:	d001      	beq.n	14c2 <TEE_AllocateTransientObject+0x1e>
/mnt/disk/raspbian-tee/optee_os/lib/libutee/tee_api_objects.c:211
    14be:	f005 fa68 	bl	6992 <TEE_Panic>
/mnt/disk/raspbian-tee/optee_os/lib/libutee/tee_api_objects.c:217
    14c2:	4620      	mov	r0, r4
    14c4:	b003      	add	sp, #12
    14c6:	bd30      	pop	{r4, r5, pc}
/mnt/disk/raspbian-tee/optee_os/lib/libutee/tee_api_objects.c:214
    14c8:	9b01      	ldr	r3, [sp, #4]
    14ca:	602b      	str	r3, [r5, #0]
    14cc:	e7f9      	b.n	14c2 <TEE_AllocateTransientObject+0x1e>
    14ce:	bf00      	nop
    14d0:	ffff000c 	.word	0xffff000c

000014d4 <TEE_FreeTransientObject>:
TEE_FreeTransientObject():
/mnt/disk/raspbian-tee/optee_os/lib/libutee/tee_api_objects.c:220
    14d4:	b510      	push	{r4, lr}
/mnt/disk/raspbian-tee/optee_os/lib/libutee/tee_api_objects.c:224
    14d6:	4604      	mov	r4, r0
/mnt/disk/raspbian-tee/optee_os/lib/libutee/tee_api_objects.c:220
    14d8:	b088      	sub	sp, #32
/mnt/disk/raspbian-tee/optee_os/lib/libutee/tee_api_objects.c:224
    14da:	b188      	cbz	r0, 1500 <TEE_FreeTransientObject+0x2c>
/mnt/disk/raspbian-tee/optee_os/lib/libutee/tee_api_objects.c:227
    14dc:	a901      	add	r1, sp, #4
    14de:	f000 ecce 	blx	1e7c <utee_cryp_obj_get_info>
/mnt/disk/raspbian-tee/optee_os/lib/libutee/tee_api_objects.c:228
    14e2:	b108      	cbz	r0, 14e8 <TEE_FreeTransientObject+0x14>
/mnt/disk/raspbian-tee/optee_os/lib/libutee/tee_api_objects.c:229
    14e4:	f005 fa55 	bl	6992 <TEE_Panic>
/mnt/disk/raspbian-tee/optee_os/lib/libutee/tee_api_objects.c:231
    14e8:	9b07      	ldr	r3, [sp, #28]
    14ea:	03db      	lsls	r3, r3, #15
    14ec:	d502      	bpl.n	14f4 <TEE_FreeTransientObject+0x20>
/mnt/disk/raspbian-tee/optee_os/lib/libutee/tee_api_objects.c:232
    14ee:	2000      	movs	r0, #0
    14f0:	f005 fa4f 	bl	6992 <TEE_Panic>
/mnt/disk/raspbian-tee/optee_os/lib/libutee/tee_api_objects.c:234
    14f4:	4620      	mov	r0, r4
    14f6:	f000 ecea 	blx	1ecc <utee_cryp_obj_close>
/mnt/disk/raspbian-tee/optee_os/lib/libutee/tee_api_objects.c:235
    14fa:	b108      	cbz	r0, 1500 <TEE_FreeTransientObject+0x2c>
/mnt/disk/raspbian-tee/optee_os/lib/libutee/tee_api_objects.c:236
    14fc:	f005 fa49 	bl	6992 <TEE_Panic>
/mnt/disk/raspbian-tee/optee_os/lib/libutee/tee_api_objects.c:237
    1500:	b008      	add	sp, #32
    1502:	bd10      	pop	{r4, pc}

00001504 <TEE_ResetTransientObject>:
TEE_ResetTransientObject():
/mnt/disk/raspbian-tee/optee_os/lib/libutee/tee_api_objects.c:240
    1504:	b510      	push	{r4, lr}
/mnt/disk/raspbian-tee/optee_os/lib/libutee/tee_api_objects.c:244
    1506:	4604      	mov	r4, r0
/mnt/disk/raspbian-tee/optee_os/lib/libutee/tee_api_objects.c:240
    1508:	b088      	sub	sp, #32
/mnt/disk/raspbian-tee/optee_os/lib/libutee/tee_api_objects.c:244
    150a:	b188      	cbz	r0, 1530 <TEE_ResetTransientObject+0x2c>
/mnt/disk/raspbian-tee/optee_os/lib/libutee/tee_api_objects.c:247
    150c:	a901      	add	r1, sp, #4
    150e:	f000 ecb6 	blx	1e7c <utee_cryp_obj_get_info>
/mnt/disk/raspbian-tee/optee_os/lib/libutee/tee_api_objects.c:248
    1512:	b108      	cbz	r0, 1518 <TEE_ResetTransientObject+0x14>
/mnt/disk/raspbian-tee/optee_os/lib/libutee/tee_api_objects.c:249
    1514:	f005 fa3d 	bl	6992 <TEE_Panic>
/mnt/disk/raspbian-tee/optee_os/lib/libutee/tee_api_objects.c:251
    1518:	9b07      	ldr	r3, [sp, #28]
    151a:	03db      	lsls	r3, r3, #15
    151c:	d502      	bpl.n	1524 <TEE_ResetTransientObject+0x20>
/mnt/disk/raspbian-tee/optee_os/lib/libutee/tee_api_objects.c:252
    151e:	2000      	movs	r0, #0
    1520:	f005 fa37 	bl	6992 <TEE_Panic>
/mnt/disk/raspbian-tee/optee_os/lib/libutee/tee_api_objects.c:254
    1524:	4620      	mov	r0, r4
    1526:	f000 ecdc 	blx	1ee0 <utee_cryp_obj_reset>
/mnt/disk/raspbian-tee/optee_os/lib/libutee/tee_api_objects.c:255
    152a:	b108      	cbz	r0, 1530 <TEE_ResetTransientObject+0x2c>
/mnt/disk/raspbian-tee/optee_os/lib/libutee/tee_api_objects.c:256
    152c:	f005 fa31 	bl	6992 <TEE_Panic>
/mnt/disk/raspbian-tee/optee_os/lib/libutee/tee_api_objects.c:257
    1530:	b008      	add	sp, #32
    1532:	bd10      	pop	{r4, pc}

00001534 <TEE_PopulateTransientObject>:
TEE_PopulateTransientObject():
/mnt/disk/raspbian-tee/optee_os/lib/libutee/tee_api_objects.c:265
    1534:	2318      	movs	r3, #24
/mnt/disk/raspbian-tee/optee_os/lib/libutee/tee_api_objects.c:262
    1536:	e92d 41f0 	stmdb	sp!, {r4, r5, r6, r7, r8, lr}
    153a:	4688      	mov	r8, r1
    153c:	b088      	sub	sp, #32
/mnt/disk/raspbian-tee/optee_os/lib/libutee/tee_api_objects.c:265
    153e:	4353      	muls	r3, r2
/mnt/disk/raspbian-tee/optee_os/lib/libutee/tee_api_objects.c:262
    1540:	af00      	add	r7, sp, #0
/mnt/disk/raspbian-tee/optee_os/lib/libutee/tee_api_objects.c:267
    1542:	1d39      	adds	r1, r7, #4
/mnt/disk/raspbian-tee/optee_os/lib/libutee/tee_api_objects.c:262
    1544:	4606      	mov	r6, r0
/mnt/disk/raspbian-tee/optee_os/lib/libutee/tee_api_objects.c:265
    1546:	3308      	adds	r3, #8
/mnt/disk/raspbian-tee/optee_os/lib/libutee/tee_api_objects.c:262
    1548:	4614      	mov	r4, r2
/mnt/disk/raspbian-tee/optee_os/lib/libutee/tee_api_objects.c:265
    154a:	ebad 0d03 	sub.w	sp, sp, r3
    154e:	466d      	mov	r5, sp
/mnt/disk/raspbian-tee/optee_os/lib/libutee/tee_api_objects.c:267
    1550:	f000 ec94 	blx	1e7c <utee_cryp_obj_get_info>
/mnt/disk/raspbian-tee/optee_os/lib/libutee/tee_api_objects.c:268
    1554:	b108      	cbz	r0, 155a <TEE_PopulateTransientObject+0x26>
/mnt/disk/raspbian-tee/optee_os/lib/libutee/tee_api_objects.c:269
    1556:	f005 fa1c 	bl	6992 <TEE_Panic>
/mnt/disk/raspbian-tee/optee_os/lib/libutee/tee_api_objects.c:272
    155a:	69fb      	ldr	r3, [r7, #28]
    155c:	03da      	lsls	r2, r3, #15
    155e:	d502      	bpl.n	1566 <TEE_PopulateTransientObject+0x32>
/mnt/disk/raspbian-tee/optee_os/lib/libutee/tee_api_objects.c:273
    1560:	2000      	movs	r0, #0
    1562:	f005 fa16 	bl	6992 <TEE_Panic>
/mnt/disk/raspbian-tee/optee_os/lib/libutee/tee_api_objects.c:276
    1566:	69fb      	ldr	r3, [r7, #28]
    1568:	039b      	lsls	r3, r3, #14
    156a:	d502      	bpl.n	1572 <TEE_PopulateTransientObject+0x3e>
/mnt/disk/raspbian-tee/optee_os/lib/libutee/tee_api_objects.c:277
    156c:	2000      	movs	r0, #0
    156e:	f005 fa10 	bl	6992 <TEE_Panic>
/mnt/disk/raspbian-tee/optee_os/lib/libutee/tee_api_objects.c:279
    1572:	4622      	mov	r2, r4
    1574:	4641      	mov	r1, r8
    1576:	4628      	mov	r0, r5
    1578:	f7ff fea8 	bl	12cc <__utee_from_attr>
/mnt/disk/raspbian-tee/optee_os/lib/libutee/tee_api_objects.c:280
    157c:	4622      	mov	r2, r4
    157e:	4629      	mov	r1, r5
    1580:	4630      	mov	r0, r6
    1582:	f000 ecb8 	blx	1ef4 <utee_cryp_obj_populate>
/mnt/disk/raspbian-tee/optee_os/lib/libutee/tee_api_objects.c:281
    1586:	4604      	mov	r4, r0
    1588:	b120      	cbz	r0, 1594 <TEE_PopulateTransientObject+0x60>
/mnt/disk/raspbian-tee/optee_os/lib/libutee/tee_api_objects.c:281 (discriminator 1)
    158a:	4b05      	ldr	r3, [pc, #20]	; (15a0 <TEE_PopulateTransientObject+0x6c>)
    158c:	4298      	cmp	r0, r3
    158e:	d001      	beq.n	1594 <TEE_PopulateTransientObject+0x60>
/mnt/disk/raspbian-tee/optee_os/lib/libutee/tee_api_objects.c:282
    1590:	f005 f9ff 	bl	6992 <TEE_Panic>
/mnt/disk/raspbian-tee/optee_os/lib/libutee/tee_api_objects.c:284
    1594:	4620      	mov	r0, r4
    1596:	3720      	adds	r7, #32
    1598:	46bd      	mov	sp, r7
    159a:	e8bd 81f0 	ldmia.w	sp!, {r4, r5, r6, r7, r8, pc}
    159e:	bf00      	nop
    15a0:	ffff0006 	.word	0xffff0006

000015a4 <TEE_InitRefAttribute>:
TEE_InitRefAttribute():
/mnt/disk/raspbian-tee/optee_os/lib/libutee/tee_api_objects.c:288
    15a4:	b5f8      	push	{r3, r4, r5, r6, r7, lr}
    15a6:	460d      	mov	r5, r1
    15a8:	4617      	mov	r7, r2
    15aa:	461e      	mov	r6, r3
/mnt/disk/raspbian-tee/optee_os/lib/libutee/tee_api_objects.c:289
    15ac:	4604      	mov	r4, r0
    15ae:	b908      	cbnz	r0, 15b4 <TEE_InitRefAttribute+0x10>
/mnt/disk/raspbian-tee/optee_os/lib/libutee/tee_api_objects.c:290
    15b0:	f005 f9ef 	bl	6992 <TEE_Panic>
/mnt/disk/raspbian-tee/optee_os/lib/libutee/tee_api_objects.c:291
    15b4:	00ab      	lsls	r3, r5, #2
    15b6:	d502      	bpl.n	15be <TEE_InitRefAttribute+0x1a>
/mnt/disk/raspbian-tee/optee_os/lib/libutee/tee_api_objects.c:292
    15b8:	2000      	movs	r0, #0
    15ba:	f005 f9ea 	bl	6992 <TEE_Panic>
/mnt/disk/raspbian-tee/optee_os/lib/libutee/tee_api_objects.c:294
    15be:	e884 00a0 	stmia.w	r4, {r5, r7}
/mnt/disk/raspbian-tee/optee_os/lib/libutee/tee_api_objects.c:295
    15c2:	60a6      	str	r6, [r4, #8]
    15c4:	bdf8      	pop	{r3, r4, r5, r6, r7, pc}

000015c6 <TEE_InitValueAttribute>:
TEE_InitValueAttribute():
/mnt/disk/raspbian-tee/optee_os/lib/libutee/tee_api_objects.c:300
    15c6:	b5f8      	push	{r3, r4, r5, r6, r7, lr}
    15c8:	460d      	mov	r5, r1
    15ca:	4617      	mov	r7, r2
    15cc:	461e      	mov	r6, r3
/mnt/disk/raspbian-tee/optee_os/lib/libutee/tee_api_objects.c:301
    15ce:	4604      	mov	r4, r0
    15d0:	b908      	cbnz	r0, 15d6 <TEE_InitValueAttribute+0x10>
/mnt/disk/raspbian-tee/optee_os/lib/libutee/tee_api_objects.c:302
    15d2:	f005 f9de 	bl	6992 <TEE_Panic>
/mnt/disk/raspbian-tee/optee_os/lib/libutee/tee_api_objects.c:303
    15d6:	f015 5000 	ands.w	r0, r5, #536870912	; 0x20000000
    15da:	d101      	bne.n	15e0 <TEE_InitValueAttribute+0x1a>
/mnt/disk/raspbian-tee/optee_os/lib/libutee/tee_api_objects.c:304
    15dc:	f005 f9d9 	bl	6992 <TEE_Panic>
/mnt/disk/raspbian-tee/optee_os/lib/libutee/tee_api_objects.c:306
    15e0:	e884 00a0 	stmia.w	r4, {r5, r7}
/mnt/disk/raspbian-tee/optee_os/lib/libutee/tee_api_objects.c:307
    15e4:	60a6      	str	r6, [r4, #8]
    15e6:	bdf8      	pop	{r3, r4, r5, r6, r7, pc}

000015e8 <TEE_CopyObjectAttributes1>:
TEE_CopyObjectAttributes1():
/mnt/disk/raspbian-tee/optee_os/lib/libutee/tee_api_objects.c:333
    15e8:	b570      	push	{r4, r5, r6, lr}
    15ea:	460d      	mov	r5, r1
    15ec:	4606      	mov	r6, r0
    15ee:	b08e      	sub	sp, #56	; 0x38
/mnt/disk/raspbian-tee/optee_os/lib/libutee/tee_api_objects.c:338
    15f0:	4669      	mov	r1, sp
    15f2:	f000 ec44 	blx	1e7c <utee_cryp_obj_get_info>
/mnt/disk/raspbian-tee/optee_os/lib/libutee/tee_api_objects.c:339
    15f6:	4604      	mov	r4, r0
    15f8:	b9e0      	cbnz	r0, 1634 <TEE_CopyObjectAttributes1+0x4c>
/mnt/disk/raspbian-tee/optee_os/lib/libutee/tee_api_objects.c:342
    15fa:	a907      	add	r1, sp, #28
    15fc:	4628      	mov	r0, r5
    15fe:	f000 ec3e 	blx	1e7c <utee_cryp_obj_get_info>
/mnt/disk/raspbian-tee/optee_os/lib/libutee/tee_api_objects.c:343
    1602:	4604      	mov	r4, r0
    1604:	b9b0      	cbnz	r0, 1634 <TEE_CopyObjectAttributes1+0x4c>
/mnt/disk/raspbian-tee/optee_os/lib/libutee/tee_api_objects.c:346
    1606:	9b0d      	ldr	r3, [sp, #52]	; 0x34
    1608:	0399      	lsls	r1, r3, #14
    160a:	d401      	bmi.n	1610 <TEE_CopyObjectAttributes1+0x28>
/mnt/disk/raspbian-tee/optee_os/lib/libutee/tee_api_objects.c:347
    160c:	f005 f9c1 	bl	6992 <TEE_Panic>
/mnt/disk/raspbian-tee/optee_os/lib/libutee/tee_api_objects.c:349
    1610:	9b06      	ldr	r3, [sp, #24]
    1612:	03da      	lsls	r2, r3, #15
    1614:	d502      	bpl.n	161c <TEE_CopyObjectAttributes1+0x34>
/mnt/disk/raspbian-tee/optee_os/lib/libutee/tee_api_objects.c:350
    1616:	2000      	movs	r0, #0
    1618:	f005 f9bb 	bl	6992 <TEE_Panic>
/mnt/disk/raspbian-tee/optee_os/lib/libutee/tee_api_objects.c:352
    161c:	9b06      	ldr	r3, [sp, #24]
    161e:	039b      	lsls	r3, r3, #14
    1620:	d502      	bpl.n	1628 <TEE_CopyObjectAttributes1+0x40>
/mnt/disk/raspbian-tee/optee_os/lib/libutee/tee_api_objects.c:353
    1622:	2000      	movs	r0, #0
    1624:	f005 f9b5 	bl	6992 <TEE_Panic>
/mnt/disk/raspbian-tee/optee_os/lib/libutee/tee_api_objects.c:355
    1628:	4629      	mov	r1, r5
    162a:	4630      	mov	r0, r6
    162c:	f000 ec6c 	blx	1f08 <utee_cryp_obj_copy>
/mnt/disk/raspbian-tee/optee_os/lib/libutee/tee_api_objects.c:359
    1630:	4604      	mov	r4, r0
    1632:	b140      	cbz	r0, 1646 <TEE_CopyObjectAttributes1+0x5e>
/mnt/disk/raspbian-tee/optee_os/lib/libutee/tee_api_objects.c:359 (discriminator 1)
    1634:	4b05      	ldr	r3, [pc, #20]	; (164c <TEE_CopyObjectAttributes1+0x64>)
    1636:	429c      	cmp	r4, r3
    1638:	d005      	beq.n	1646 <TEE_CopyObjectAttributes1+0x5e>
/mnt/disk/raspbian-tee/optee_os/lib/libutee/tee_api_objects.c:360
    163a:	3302      	adds	r3, #2
    163c:	429c      	cmp	r4, r3
    163e:	d002      	beq.n	1646 <TEE_CopyObjectAttributes1+0x5e>
/mnt/disk/raspbian-tee/optee_os/lib/libutee/tee_api_objects.c:362
    1640:	4620      	mov	r0, r4
    1642:	f005 f9a6 	bl	6992 <TEE_Panic>
/mnt/disk/raspbian-tee/optee_os/lib/libutee/tee_api_objects.c:365
    1646:	4620      	mov	r0, r4
    1648:	b00e      	add	sp, #56	; 0x38
    164a:	bd70      	pop	{r4, r5, r6, pc}
    164c:	f0100001 	.word	0xf0100001

00001650 <TEE_CopyObjectAttributes>:
TEE_CopyObjectAttributes():
/mnt/disk/raspbian-tee/optee_os/lib/libutee/tee_api_objects.c:318
    1650:	b530      	push	{r4, r5, lr}
    1652:	460c      	mov	r4, r1
    1654:	4605      	mov	r5, r0
    1656:	b089      	sub	sp, #36	; 0x24
/mnt/disk/raspbian-tee/optee_os/lib/libutee/tee_api_objects.c:322
    1658:	4620      	mov	r0, r4
    165a:	a901      	add	r1, sp, #4
    165c:	f000 ec0e 	blx	1e7c <utee_cryp_obj_get_info>
/mnt/disk/raspbian-tee/optee_os/lib/libutee/tee_api_objects.c:323
    1660:	4b06      	ldr	r3, [pc, #24]	; (167c <TEE_CopyObjectAttributes+0x2c>)
    1662:	9a01      	ldr	r2, [sp, #4]
    1664:	429a      	cmp	r2, r3
    1666:	d006      	beq.n	1676 <TEE_CopyObjectAttributes+0x26>
/mnt/disk/raspbian-tee/optee_os/lib/libutee/tee_api_objects.c:326
    1668:	4621      	mov	r1, r4
    166a:	4628      	mov	r0, r5
    166c:	f7ff ffbc 	bl	15e8 <TEE_CopyObjectAttributes1>
/mnt/disk/raspbian-tee/optee_os/lib/libutee/tee_api_objects.c:327
    1670:	b108      	cbz	r0, 1676 <TEE_CopyObjectAttributes+0x26>
/mnt/disk/raspbian-tee/optee_os/lib/libutee/tee_api_objects.c:328
    1672:	f005 f98e 	bl	6992 <TEE_Panic>
/mnt/disk/raspbian-tee/optee_os/lib/libutee/tee_api_objects.c:329
    1676:	b009      	add	sp, #36	; 0x24
    1678:	bd30      	pop	{r4, r5, pc}
    167a:	bf00      	nop
    167c:	a00000be 	.word	0xa00000be

00001680 <TEE_GenerateKey>:
TEE_GenerateKey():
/mnt/disk/raspbian-tee/optee_os/lib/libutee/tee_api_objects.c:369
    1680:	e92d 41f0 	stmdb	sp!, {r4, r5, r6, r7, r8, lr}
    1684:	4688      	mov	r8, r1
    1686:	4611      	mov	r1, r2
/mnt/disk/raspbian-tee/optee_os/lib/libutee/tee_api_objects.c:371
    1688:	2218      	movs	r2, #24
/mnt/disk/raspbian-tee/optee_os/lib/libutee/tee_api_objects.c:369
    168a:	af00      	add	r7, sp, #0
    168c:	461c      	mov	r4, r3
    168e:	4606      	mov	r6, r0
/mnt/disk/raspbian-tee/optee_os/lib/libutee/tee_api_objects.c:371
    1690:	435a      	muls	r2, r3
    1692:	3208      	adds	r2, #8
    1694:	ebad 0d02 	sub.w	sp, sp, r2
/mnt/disk/raspbian-tee/optee_os/lib/libutee/tee_api_objects.c:373
    1698:	461a      	mov	r2, r3
    169a:	4668      	mov	r0, sp
    169c:	f7ff fe16 	bl	12cc <__utee_from_attr>
/mnt/disk/raspbian-tee/optee_os/lib/libutee/tee_api_objects.c:374
    16a0:	4623      	mov	r3, r4
    16a2:	466a      	mov	r2, sp
    16a4:	4641      	mov	r1, r8
    16a6:	4630      	mov	r0, r6
    16a8:	f000 ed24 	blx	20f4 <utee_cryp_obj_generate_key>
/mnt/disk/raspbian-tee/optee_os/lib/libutee/tee_api_objects.c:377
    16ac:	4604      	mov	r4, r0
    16ae:	b120      	cbz	r0, 16ba <TEE_GenerateKey+0x3a>
/mnt/disk/raspbian-tee/optee_os/lib/libutee/tee_api_objects.c:377 (discriminator 1)
    16b0:	4b04      	ldr	r3, [pc, #16]	; (16c4 <TEE_GenerateKey+0x44>)
    16b2:	4298      	cmp	r0, r3
    16b4:	d001      	beq.n	16ba <TEE_GenerateKey+0x3a>
/mnt/disk/raspbian-tee/optee_os/lib/libutee/tee_api_objects.c:378
    16b6:	f005 f96c 	bl	6992 <TEE_Panic>
/mnt/disk/raspbian-tee/optee_os/lib/libutee/tee_api_objects.c:381
    16ba:	4620      	mov	r0, r4
    16bc:	46bd      	mov	sp, r7
    16be:	e8bd 81f0 	ldmia.w	sp!, {r4, r5, r6, r7, r8, pc}
    16c2:	bf00      	nop
    16c4:	ffff0006 	.word	0xffff0006

000016c8 <TEE_OpenPersistentObject>:
TEE_OpenPersistentObject():
/mnt/disk/raspbian-tee/optee_os/lib/libutee/tee_api_objects.c:388
    16c8:	b530      	push	{r4, r5, lr}
    16ca:	b085      	sub	sp, #20
    16cc:	9d08      	ldr	r5, [sp, #32]
/mnt/disk/raspbian-tee/optee_os/lib/libutee/tee_api_objects.c:392
    16ce:	b919      	cbnz	r1, 16d8 <TEE_OpenPersistentObject+0x10>
    16d0:	4c12      	ldr	r4, [pc, #72]	; (171c <TEE_OpenPersistentObject+0x54>)
/mnt/disk/raspbian-tee/optee_os/lib/libutee/tee_api_objects.c:422
    16d2:	4620      	mov	r0, r4
    16d4:	b005      	add	sp, #20
    16d6:	bd30      	pop	{r4, r5, pc}
/mnt/disk/raspbian-tee/optee_os/lib/libutee/tee_api_objects.c:397
    16d8:	2a40      	cmp	r2, #64	; 0x40
    16da:	d809      	bhi.n	16f0 <TEE_OpenPersistentObject+0x28>
/mnt/disk/raspbian-tee/optee_os/lib/libutee/tee_api_objects.c:402
    16dc:	b145      	cbz	r5, 16f0 <TEE_OpenPersistentObject+0x28>
/mnt/disk/raspbian-tee/optee_os/lib/libutee/tee_api_objects.c:407
    16de:	ac03      	add	r4, sp, #12
    16e0:	9400      	str	r4, [sp, #0]
    16e2:	f000 ec82 	blx	1fe8 <utee_storage_obj_open>
/mnt/disk/raspbian-tee/optee_os/lib/libutee/tee_api_objects.c:409
    16e6:	4604      	mov	r4, r0
    16e8:	b920      	cbnz	r0, 16f4 <TEE_OpenPersistentObject+0x2c>
/mnt/disk/raspbian-tee/optee_os/lib/libutee/tee_api_objects.c:410
    16ea:	9b03      	ldr	r3, [sp, #12]
    16ec:	602b      	str	r3, [r5, #0]
    16ee:	e7f0      	b.n	16d2 <TEE_OpenPersistentObject+0xa>
    16f0:	4c0b      	ldr	r4, [pc, #44]	; (1720 <TEE_OpenPersistentObject+0x58>)
    16f2:	e00e      	b.n	1712 <TEE_OpenPersistentObject+0x4a>
/mnt/disk/raspbian-tee/optee_os/lib/libutee/tee_api_objects.c:413
    16f4:	4b09      	ldr	r3, [pc, #36]	; (171c <TEE_OpenPersistentObject+0x54>)
    16f6:	4298      	cmp	r0, r3
    16f8:	d0ea      	beq.n	16d0 <TEE_OpenPersistentObject+0x8>
/mnt/disk/raspbian-tee/optee_os/lib/libutee/tee_api_objects.c:414
    16fa:	4b0a      	ldr	r3, [pc, #40]	; (1724 <TEE_OpenPersistentObject+0x5c>)
    16fc:	429c      	cmp	r4, r3
    16fe:	d0e8      	beq.n	16d2 <TEE_OpenPersistentObject+0xa>
/mnt/disk/raspbian-tee/optee_os/lib/libutee/tee_api_objects.c:415
    1700:	3309      	adds	r3, #9
    1702:	429c      	cmp	r4, r3
    1704:	d0e5      	beq.n	16d2 <TEE_OpenPersistentObject+0xa>
/mnt/disk/raspbian-tee/optee_os/lib/libutee/tee_api_objects.c:416
    1706:	4b08      	ldr	r3, [pc, #32]	; (1728 <TEE_OpenPersistentObject+0x60>)
    1708:	429c      	cmp	r4, r3
    170a:	d0e2      	beq.n	16d2 <TEE_OpenPersistentObject+0xa>
/mnt/disk/raspbian-tee/optee_os/lib/libutee/tee_api_objects.c:417
    170c:	3302      	adds	r3, #2
    170e:	429c      	cmp	r4, r3
    1710:	d0df      	beq.n	16d2 <TEE_OpenPersistentObject+0xa>
/mnt/disk/raspbian-tee/optee_os/lib/libutee/tee_api_objects.c:419
    1712:	4620      	mov	r0, r4
    1714:	f005 f93d 	bl	6992 <TEE_Panic>
/mnt/disk/raspbian-tee/optee_os/lib/libutee/tee_api_objects.c:421
    1718:	e7db      	b.n	16d2 <TEE_OpenPersistentObject+0xa>
    171a:	bf00      	nop
    171c:	ffff0008 	.word	0xffff0008
    1720:	ffff0006 	.word	0xffff0006
    1724:	ffff0003 	.word	0xffff0003
    1728:	f0100001 	.word	0xf0100001

0000172c <TEE_CreatePersistentObject>:
TEE_CreatePersistentObject():
/mnt/disk/raspbian-tee/optee_os/lib/libutee/tee_api_objects.c:430
    172c:	b530      	push	{r4, r5, lr}
    172e:	b087      	sub	sp, #28
    1730:	9c0d      	ldr	r4, [sp, #52]	; 0x34
/mnt/disk/raspbian-tee/optee_os/lib/libutee/tee_api_objects.c:434
    1732:	2900      	cmp	r1, #0
    1734:	d033      	beq.n	179e <TEE_CreatePersistentObject+0x72>
/mnt/disk/raspbian-tee/optee_os/lib/libutee/tee_api_objects.c:439
    1736:	2a40      	cmp	r2, #64	; 0x40
    1738:	d835      	bhi.n	17a6 <TEE_CreatePersistentObject+0x7a>
/mnt/disk/raspbian-tee/optee_os/lib/libutee/tee_api_objects.c:444
    173a:	ad05      	add	r5, sp, #20
    173c:	9503      	str	r5, [sp, #12]
    173e:	9d0c      	ldr	r5, [sp, #48]	; 0x30
    1740:	9502      	str	r5, [sp, #8]
    1742:	9d0b      	ldr	r5, [sp, #44]	; 0x2c
    1744:	9501      	str	r5, [sp, #4]
    1746:	9d0a      	ldr	r5, [sp, #40]	; 0x28
    1748:	9500      	str	r5, [sp, #0]
    174a:	f000 ec5a 	blx	2000 <utee_storage_obj_create>
/mnt/disk/raspbian-tee/optee_os/lib/libutee/tee_api_objects.c:447
    174e:	b970      	cbnz	r0, 176e <TEE_CreatePersistentObject+0x42>
/mnt/disk/raspbian-tee/optee_os/lib/libutee/tee_api_objects.c:448
    1750:	b11c      	cbz	r4, 175a <TEE_CreatePersistentObject+0x2e>
/mnt/disk/raspbian-tee/optee_os/lib/libutee/tee_api_objects.c:449
    1752:	9b05      	ldr	r3, [sp, #20]
    1754:	6023      	str	r3, [r4, #0]
/mnt/disk/raspbian-tee/optee_os/lib/libutee/tee_api_objects.c:468
    1756:	b007      	add	sp, #28
    1758:	bd30      	pop	{r4, r5, pc}
/mnt/disk/raspbian-tee/optee_os/lib/libutee/tee_api_objects.c:451
    175a:	9805      	ldr	r0, [sp, #20]
    175c:	f000 ebb6 	blx	1ecc <utee_cryp_obj_close>
/mnt/disk/raspbian-tee/optee_os/lib/libutee/tee_api_objects.c:452
    1760:	2800      	cmp	r0, #0
    1762:	d0f8      	beq.n	1756 <TEE_CreatePersistentObject+0x2a>
/mnt/disk/raspbian-tee/optee_os/lib/libutee/tee_api_objects.c:458
    1764:	4b12      	ldr	r3, [pc, #72]	; (17b0 <TEE_CreatePersistentObject+0x84>)
    1766:	4298      	cmp	r0, r3
    1768:	d106      	bne.n	1778 <TEE_CreatePersistentObject+0x4c>
/mnt/disk/raspbian-tee/optee_os/lib/libutee/tee_api_objects.c:467
    176a:	4811      	ldr	r0, [pc, #68]	; (17b0 <TEE_CreatePersistentObject+0x84>)
    176c:	e7f3      	b.n	1756 <TEE_CreatePersistentObject+0x2a>
/mnt/disk/raspbian-tee/optee_os/lib/libutee/tee_api_objects.c:456
    176e:	2c00      	cmp	r4, #0
    1770:	d0f8      	beq.n	1764 <TEE_CreatePersistentObject+0x38>
/mnt/disk/raspbian-tee/optee_os/lib/libutee/tee_api_objects.c:457
    1772:	2300      	movs	r3, #0
    1774:	6023      	str	r3, [r4, #0]
    1776:	e7f5      	b.n	1764 <TEE_CreatePersistentObject+0x38>
/mnt/disk/raspbian-tee/optee_os/lib/libutee/tee_api_objects.c:458 (discriminator 1)
    1778:	4b0e      	ldr	r3, [pc, #56]	; (17b4 <TEE_CreatePersistentObject+0x88>)
    177a:	4298      	cmp	r0, r3
    177c:	d0eb      	beq.n	1756 <TEE_CreatePersistentObject+0x2a>
/mnt/disk/raspbian-tee/optee_os/lib/libutee/tee_api_objects.c:459
    177e:	3309      	adds	r3, #9
    1780:	4298      	cmp	r0, r3
    1782:	d0e8      	beq.n	1756 <TEE_CreatePersistentObject+0x2a>
/mnt/disk/raspbian-tee/optee_os/lib/libutee/tee_api_objects.c:460
    1784:	4b0c      	ldr	r3, [pc, #48]	; (17b8 <TEE_CreatePersistentObject+0x8c>)
    1786:	4298      	cmp	r0, r3
    1788:	d0e5      	beq.n	1756 <TEE_CreatePersistentObject+0x2a>
/mnt/disk/raspbian-tee/optee_os/lib/libutee/tee_api_objects.c:461
    178a:	4b0c      	ldr	r3, [pc, #48]	; (17bc <TEE_CreatePersistentObject+0x90>)
    178c:	4298      	cmp	r0, r3
    178e:	d0e2      	beq.n	1756 <TEE_CreatePersistentObject+0x2a>
/mnt/disk/raspbian-tee/optee_os/lib/libutee/tee_api_objects.c:462
    1790:	3302      	adds	r3, #2
    1792:	4298      	cmp	r0, r3
    1794:	d0df      	beq.n	1756 <TEE_CreatePersistentObject+0x2a>
/mnt/disk/raspbian-tee/optee_os/lib/libutee/tee_api_objects.c:465
    1796:	f005 f8fc 	bl	6992 <TEE_Panic>
/mnt/disk/raspbian-tee/optee_os/lib/libutee/tee_api_objects.c:467
    179a:	2000      	movs	r0, #0
    179c:	e7db      	b.n	1756 <TEE_CreatePersistentObject+0x2a>
/mnt/disk/raspbian-tee/optee_os/lib/libutee/tee_api_objects.c:456
    179e:	2c00      	cmp	r4, #0
    17a0:	d0e3      	beq.n	176a <TEE_CreatePersistentObject+0x3e>
/mnt/disk/raspbian-tee/optee_os/lib/libutee/tee_api_objects.c:435
    17a2:	4803      	ldr	r0, [pc, #12]	; (17b0 <TEE_CreatePersistentObject+0x84>)
    17a4:	e7e5      	b.n	1772 <TEE_CreatePersistentObject+0x46>
/mnt/disk/raspbian-tee/optee_os/lib/libutee/tee_api_objects.c:440
    17a6:	4806      	ldr	r0, [pc, #24]	; (17c0 <TEE_CreatePersistentObject+0x94>)
/mnt/disk/raspbian-tee/optee_os/lib/libutee/tee_api_objects.c:456
    17a8:	2c00      	cmp	r4, #0
    17aa:	d1e2      	bne.n	1772 <TEE_CreatePersistentObject+0x46>
    17ac:	e7f3      	b.n	1796 <TEE_CreatePersistentObject+0x6a>
    17ae:	bf00      	nop
    17b0:	ffff0008 	.word	0xffff0008
    17b4:	ffff0003 	.word	0xffff0003
    17b8:	ffff3041 	.word	0xffff3041
    17bc:	f0100001 	.word	0xf0100001
    17c0:	ffff0006 	.word	0xffff0006

000017c4 <TEE_CloseAndDeletePersistentObject1>:
TEE_CloseAndDeletePersistentObject1():
/mnt/disk/raspbian-tee/optee_os/lib/libutee/tee_api_objects.c:490
    17c4:	b510      	push	{r4, lr}
/mnt/disk/raspbian-tee/optee_os/lib/libutee/tee_api_objects.c:493
    17c6:	b150      	cbz	r0, 17de <TEE_CloseAndDeletePersistentObject1+0x1a>
/mnt/disk/raspbian-tee/optee_os/lib/libutee/tee_api_objects.c:496
    17c8:	f000 ec26 	blx	2018 <utee_storage_obj_del>
/mnt/disk/raspbian-tee/optee_os/lib/libutee/tee_api_objects.c:498
    17cc:	4604      	mov	r4, r0
    17ce:	b120      	cbz	r0, 17da <TEE_CloseAndDeletePersistentObject1+0x16>
    17d0:	4b04      	ldr	r3, [pc, #16]	; (17e4 <TEE_CloseAndDeletePersistentObject1+0x20>)
    17d2:	4298      	cmp	r0, r3
    17d4:	d001      	beq.n	17da <TEE_CloseAndDeletePersistentObject1+0x16>
/mnt/disk/raspbian-tee/optee_os/lib/libutee/tee_api_objects.c:499
    17d6:	f005 f8dc 	bl	6992 <TEE_Panic>
/mnt/disk/raspbian-tee/optee_os/lib/libutee/tee_api_objects.c:502
    17da:	4620      	mov	r0, r4
    17dc:	bd10      	pop	{r4, pc}
/mnt/disk/raspbian-tee/optee_os/lib/libutee/tee_api_objects.c:494
    17de:	4c01      	ldr	r4, [pc, #4]	; (17e4 <TEE_CloseAndDeletePersistentObject1+0x20>)
    17e0:	e7fb      	b.n	17da <TEE_CloseAndDeletePersistentObject1+0x16>
    17e2:	bf00      	nop
    17e4:	f0100003 	.word	0xf0100003

000017e8 <TEE_CloseAndDeletePersistentObject>:
TEE_CloseAndDeletePersistentObject():
/mnt/disk/raspbian-tee/optee_os/lib/libutee/tee_api_objects.c:477
    17e8:	b508      	push	{r3, lr}
/mnt/disk/raspbian-tee/optee_os/lib/libutee/tee_api_objects.c:480
    17ea:	b138      	cbz	r0, 17fc <TEE_CloseAndDeletePersistentObject+0x14>
/mnt/disk/raspbian-tee/optee_os/lib/libutee/tee_api_objects.c:483
    17ec:	f7ff ffea 	bl	17c4 <TEE_CloseAndDeletePersistentObject1>
/mnt/disk/raspbian-tee/optee_os/lib/libutee/tee_api_objects.c:485
    17f0:	b120      	cbz	r0, 17fc <TEE_CloseAndDeletePersistentObject+0x14>
/mnt/disk/raspbian-tee/optee_os/lib/libutee/tee_api_objects.c:486
    17f2:	2000      	movs	r0, #0
/mnt/disk/raspbian-tee/optee_os/lib/libutee/tee_api_objects.c:487
    17f4:	e8bd 4008 	ldmia.w	sp!, {r3, lr}
/mnt/disk/raspbian-tee/optee_os/lib/libutee/tee_api_objects.c:486
    17f8:	f005 b8cb 	b.w	6992 <TEE_Panic>
    17fc:	bd08      	pop	{r3, pc}

000017fe <TEE_RenamePersistentObject>:
TEE_RenamePersistentObject():
/mnt/disk/raspbian-tee/optee_os/lib/libutee/tee_api_objects.c:508
    17fe:	b510      	push	{r4, lr}
/mnt/disk/raspbian-tee/optee_os/lib/libutee/tee_api_objects.c:511
    1800:	b1a0      	cbz	r0, 182c <TEE_RenamePersistentObject+0x2e>
/mnt/disk/raspbian-tee/optee_os/lib/libutee/tee_api_objects.c:516
    1802:	b1a9      	cbz	r1, 1830 <TEE_RenamePersistentObject+0x32>
/mnt/disk/raspbian-tee/optee_os/lib/libutee/tee_api_objects.c:521
    1804:	2a40      	cmp	r2, #64	; 0x40
    1806:	d813      	bhi.n	1830 <TEE_RenamePersistentObject+0x32>
/mnt/disk/raspbian-tee/optee_os/lib/libutee/tee_api_objects.c:526
    1808:	f000 ec10 	blx	202c <utee_storage_obj_rename>
/mnt/disk/raspbian-tee/optee_os/lib/libutee/tee_api_objects.c:530
    180c:	4604      	mov	r4, r0
    180e:	b158      	cbz	r0, 1828 <TEE_RenamePersistentObject+0x2a>
/mnt/disk/raspbian-tee/optee_os/lib/libutee/tee_api_objects.c:530 (discriminator 1)
    1810:	4b08      	ldr	r3, [pc, #32]	; (1834 <TEE_RenamePersistentObject+0x36>)
    1812:	4298      	cmp	r0, r3
    1814:	d008      	beq.n	1828 <TEE_RenamePersistentObject+0x2a>
/mnt/disk/raspbian-tee/optee_os/lib/libutee/tee_api_objects.c:531
    1816:	4b08      	ldr	r3, [pc, #32]	; (1838 <TEE_RenamePersistentObject+0x3a>)
    1818:	4298      	cmp	r0, r3
    181a:	d005      	beq.n	1828 <TEE_RenamePersistentObject+0x2a>
/mnt/disk/raspbian-tee/optee_os/lib/libutee/tee_api_objects.c:532
    181c:	3302      	adds	r3, #2
    181e:	4298      	cmp	r0, r3
    1820:	d002      	beq.n	1828 <TEE_RenamePersistentObject+0x2a>
/mnt/disk/raspbian-tee/optee_os/lib/libutee/tee_api_objects.c:534
    1822:	4620      	mov	r0, r4
    1824:	f005 f8b5 	bl	6992 <TEE_Panic>
/mnt/disk/raspbian-tee/optee_os/lib/libutee/tee_api_objects.c:537
    1828:	4620      	mov	r0, r4
    182a:	bd10      	pop	{r4, pc}
/mnt/disk/raspbian-tee/optee_os/lib/libutee/tee_api_objects.c:512
    182c:	4c03      	ldr	r4, [pc, #12]	; (183c <TEE_RenamePersistentObject+0x3e>)
    182e:	e7f8      	b.n	1822 <TEE_RenamePersistentObject+0x24>
/mnt/disk/raspbian-tee/optee_os/lib/libutee/tee_api_objects.c:517
    1830:	4c03      	ldr	r4, [pc, #12]	; (1840 <TEE_RenamePersistentObject+0x42>)
    1832:	e7f6      	b.n	1822 <TEE_RenamePersistentObject+0x24>
    1834:	ffff0003 	.word	0xffff0003
    1838:	f0100001 	.word	0xf0100001
    183c:	ffff0008 	.word	0xffff0008
    1840:	ffff0006 	.word	0xffff0006

00001844 <TEE_AllocatePersistentObjectEnumerator>:
TEE_AllocatePersistentObjectEnumerator():
/mnt/disk/raspbian-tee/optee_os/lib/libutee/tee_api_objects.c:541
    1844:	b537      	push	{r0, r1, r2, r4, r5, lr}
/mnt/disk/raspbian-tee/optee_os/lib/libutee/tee_api_objects.c:545
    1846:	4605      	mov	r5, r0
    1848:	b190      	cbz	r0, 1870 <TEE_AllocatePersistentObjectEnumerator+0x2c>
/mnt/disk/raspbian-tee/optee_os/lib/libutee/tee_api_objects.c:548
    184a:	a801      	add	r0, sp, #4
    184c:	f000 ebf8 	blx	2040 <utee_storage_alloc_enum>
/mnt/disk/raspbian-tee/optee_os/lib/libutee/tee_api_objects.c:550
    1850:	4604      	mov	r4, r0
    1852:	b108      	cbz	r0, 1858 <TEE_AllocatePersistentObjectEnumerator+0x14>
/mnt/disk/raspbian-tee/optee_os/lib/libutee/tee_api_objects.c:551
    1854:	2300      	movs	r3, #0
    1856:	9301      	str	r3, [sp, #4]
/mnt/disk/raspbian-tee/optee_os/lib/libutee/tee_api_objects.c:553
    1858:	9b01      	ldr	r3, [sp, #4]
    185a:	602b      	str	r3, [r5, #0]
/mnt/disk/raspbian-tee/optee_os/lib/libutee/tee_api_objects.c:555
    185c:	b12c      	cbz	r4, 186a <TEE_AllocatePersistentObjectEnumerator+0x26>
/mnt/disk/raspbian-tee/optee_os/lib/libutee/tee_api_objects.c:555 (discriminator 1)
    185e:	4b05      	ldr	r3, [pc, #20]	; (1874 <TEE_AllocatePersistentObjectEnumerator+0x30>)
    1860:	429c      	cmp	r4, r3
    1862:	d002      	beq.n	186a <TEE_AllocatePersistentObjectEnumerator+0x26>
/mnt/disk/raspbian-tee/optee_os/lib/libutee/tee_api_objects.c:557
    1864:	4620      	mov	r0, r4
    1866:	f005 f894 	bl	6992 <TEE_Panic>
/mnt/disk/raspbian-tee/optee_os/lib/libutee/tee_api_objects.c:560
    186a:	4620      	mov	r0, r4
    186c:	b003      	add	sp, #12
    186e:	bd30      	pop	{r4, r5, pc}
/mnt/disk/raspbian-tee/optee_os/lib/libutee/tee_api_objects.c:546
    1870:	4c01      	ldr	r4, [pc, #4]	; (1878 <TEE_AllocatePersistentObjectEnumerator+0x34>)
    1872:	e7fa      	b.n	186a <TEE_AllocatePersistentObjectEnumerator+0x26>
    1874:	ffff0003 	.word	0xffff0003
    1878:	ffff0006 	.word	0xffff0006

0000187c <TEE_FreePersistentObjectEnumerator>:
TEE_FreePersistentObjectEnumerator():
/mnt/disk/raspbian-tee/optee_os/lib/libutee/tee_api_objects.c:563
    187c:	b508      	push	{r3, lr}
/mnt/disk/raspbian-tee/optee_os/lib/libutee/tee_api_objects.c:566
    187e:	b130      	cbz	r0, 188e <TEE_FreePersistentObjectEnumerator+0x12>
/mnt/disk/raspbian-tee/optee_os/lib/libutee/tee_api_objects.c:569
    1880:	f000 ebe8 	blx	2054 <utee_storage_free_enum>
/mnt/disk/raspbian-tee/optee_os/lib/libutee/tee_api_objects.c:571
    1884:	b118      	cbz	r0, 188e <TEE_FreePersistentObjectEnumerator+0x12>
/mnt/disk/raspbian-tee/optee_os/lib/libutee/tee_api_objects.c:573
    1886:	e8bd 4008 	ldmia.w	sp!, {r3, lr}
/mnt/disk/raspbian-tee/optee_os/lib/libutee/tee_api_objects.c:572
    188a:	f005 b882 	b.w	6992 <TEE_Panic>
    188e:	bd08      	pop	{r3, pc}

00001890 <TEE_ResetPersistentObjectEnumerator>:
TEE_ResetPersistentObjectEnumerator():
/mnt/disk/raspbian-tee/optee_os/lib/libutee/tee_api_objects.c:576
    1890:	b508      	push	{r3, lr}
/mnt/disk/raspbian-tee/optee_os/lib/libutee/tee_api_objects.c:579
    1892:	b130      	cbz	r0, 18a2 <TEE_ResetPersistentObjectEnumerator+0x12>
/mnt/disk/raspbian-tee/optee_os/lib/libutee/tee_api_objects.c:582
    1894:	f000 ebe8 	blx	2068 <utee_storage_reset_enum>
/mnt/disk/raspbian-tee/optee_os/lib/libutee/tee_api_objects.c:584
    1898:	b118      	cbz	r0, 18a2 <TEE_ResetPersistentObjectEnumerator+0x12>
/mnt/disk/raspbian-tee/optee_os/lib/libutee/tee_api_objects.c:586
    189a:	e8bd 4008 	ldmia.w	sp!, {r3, lr}
/mnt/disk/raspbian-tee/optee_os/lib/libutee/tee_api_objects.c:585
    189e:	f005 b878 	b.w	6992 <TEE_Panic>
    18a2:	bd08      	pop	{r3, pc}

000018a4 <TEE_StartPersistentObjectEnumerator>:
TEE_StartPersistentObjectEnumerator():
/mnt/disk/raspbian-tee/optee_os/lib/libutee/tee_api_objects.c:591
    18a4:	b510      	push	{r4, lr}
/mnt/disk/raspbian-tee/optee_os/lib/libutee/tee_api_objects.c:594
    18a6:	f000 ebea 	blx	207c <utee_storage_start_enum>
/mnt/disk/raspbian-tee/optee_os/lib/libutee/tee_api_objects.c:597
    18aa:	4604      	mov	r4, r0
    18ac:	b148      	cbz	r0, 18c2 <TEE_StartPersistentObjectEnumerator+0x1e>
/mnt/disk/raspbian-tee/optee_os/lib/libutee/tee_api_objects.c:597 (discriminator 1)
    18ae:	4b06      	ldr	r3, [pc, #24]	; (18c8 <TEE_StartPersistentObjectEnumerator+0x24>)
    18b0:	4298      	cmp	r0, r3
    18b2:	d006      	beq.n	18c2 <TEE_StartPersistentObjectEnumerator+0x1e>
/mnt/disk/raspbian-tee/optee_os/lib/libutee/tee_api_objects.c:598
    18b4:	4b05      	ldr	r3, [pc, #20]	; (18cc <TEE_StartPersistentObjectEnumerator+0x28>)
    18b6:	f020 0202 	bic.w	r2, r0, #2
    18ba:	429a      	cmp	r2, r3
    18bc:	d001      	beq.n	18c2 <TEE_StartPersistentObjectEnumerator+0x1e>
/mnt/disk/raspbian-tee/optee_os/lib/libutee/tee_api_objects.c:601
    18be:	f005 f868 	bl	6992 <TEE_Panic>
/mnt/disk/raspbian-tee/optee_os/lib/libutee/tee_api_objects.c:604
    18c2:	4620      	mov	r0, r4
    18c4:	bd10      	pop	{r4, pc}
    18c6:	bf00      	nop
    18c8:	ffff0008 	.word	0xffff0008
    18cc:	f0100001 	.word	0xf0100001

000018d0 <TEE_GetNextPersistentObject>:
TEE_GetNextPersistentObject():
/mnt/disk/raspbian-tee/optee_os/lib/libutee/tee_api_objects.c:609
    18d0:	b510      	push	{r4, lr}
    18d2:	461c      	mov	r4, r3
    18d4:	b08a      	sub	sp, #40	; 0x28
/mnt/disk/raspbian-tee/optee_os/lib/libutee/tee_api_objects.c:615
    18d6:	b1e2      	cbz	r2, 1912 <TEE_GetNextPersistentObject+0x42>
/mnt/disk/raspbian-tee/optee_os/lib/libutee/tee_api_objects.c:620
    18d8:	b1db      	cbz	r3, 1912 <TEE_GetNextPersistentObject+0x42>
/mnt/disk/raspbian-tee/optee_os/lib/libutee/tee_api_objects.c:625
    18da:	b901      	cbnz	r1, 18de <TEE_GetNextPersistentObject+0xe>
/mnt/disk/raspbian-tee/optee_os/lib/libutee/tee_api_objects.c:628
    18dc:	a903      	add	r1, sp, #12
/mnt/disk/raspbian-tee/optee_os/lib/libutee/tee_api_objects.c:629
    18de:	6823      	ldr	r3, [r4, #0]
    18e0:	9300      	str	r3, [sp, #0]
    18e2:	2300      	movs	r3, #0
    18e4:	9301      	str	r3, [sp, #4]
/mnt/disk/raspbian-tee/optee_os/lib/libutee/tee_api_objects.c:630
    18e6:	466b      	mov	r3, sp
    18e8:	f000 ebd2 	blx	2090 <utee_storage_next_enum>
/mnt/disk/raspbian-tee/optee_os/lib/libutee/tee_api_objects.c:632
    18ec:	9b00      	ldr	r3, [sp, #0]
    18ee:	6023      	str	r3, [r4, #0]
/mnt/disk/raspbian-tee/optee_os/lib/libutee/tee_api_objects.c:635
    18f0:	4604      	mov	r4, r0
    18f2:	b158      	cbz	r0, 190c <TEE_GetNextPersistentObject+0x3c>
/mnt/disk/raspbian-tee/optee_os/lib/libutee/tee_api_objects.c:635 (discriminator 1)
    18f4:	4b08      	ldr	r3, [pc, #32]	; (1918 <TEE_GetNextPersistentObject+0x48>)
    18f6:	4298      	cmp	r0, r3
    18f8:	d008      	beq.n	190c <TEE_GetNextPersistentObject+0x3c>
/mnt/disk/raspbian-tee/optee_os/lib/libutee/tee_api_objects.c:636
    18fa:	4b08      	ldr	r3, [pc, #32]	; (191c <TEE_GetNextPersistentObject+0x4c>)
    18fc:	4298      	cmp	r0, r3
    18fe:	d005      	beq.n	190c <TEE_GetNextPersistentObject+0x3c>
/mnt/disk/raspbian-tee/optee_os/lib/libutee/tee_api_objects.c:637
    1900:	3302      	adds	r3, #2
    1902:	4298      	cmp	r0, r3
    1904:	d002      	beq.n	190c <TEE_GetNextPersistentObject+0x3c>
/mnt/disk/raspbian-tee/optee_os/lib/libutee/tee_api_objects.c:639
    1906:	4620      	mov	r0, r4
    1908:	f005 f843 	bl	6992 <TEE_Panic>
/mnt/disk/raspbian-tee/optee_os/lib/libutee/tee_api_objects.c:642
    190c:	4620      	mov	r0, r4
    190e:	b00a      	add	sp, #40	; 0x28
    1910:	bd10      	pop	{r4, pc}
    1912:	4c03      	ldr	r4, [pc, #12]	; (1920 <TEE_GetNextPersistentObject+0x50>)
    1914:	e7f7      	b.n	1906 <TEE_GetNextPersistentObject+0x36>
    1916:	bf00      	nop
    1918:	ffff0008 	.word	0xffff0008
    191c:	f0100001 	.word	0xf0100001
    1920:	ffff0006 	.word	0xffff0006

00001924 <TEE_ReadObjectData>:
TEE_ReadObjectData():
/mnt/disk/raspbian-tee/optee_os/lib/libutee/tee_api_objects.c:648
    1924:	b513      	push	{r0, r1, r4, lr}
    1926:	461c      	mov	r4, r3
/mnt/disk/raspbian-tee/optee_os/lib/libutee/tee_api_objects.c:652
    1928:	b1b0      	cbz	r0, 1958 <TEE_ReadObjectData+0x34>
/mnt/disk/raspbian-tee/optee_os/lib/libutee/tee_api_objects.c:657
    192a:	681b      	ldr	r3, [r3, #0]
    192c:	9300      	str	r3, [sp, #0]
    192e:	2300      	movs	r3, #0
    1930:	9301      	str	r3, [sp, #4]
/mnt/disk/raspbian-tee/optee_os/lib/libutee/tee_api_objects.c:658
    1932:	466b      	mov	r3, sp
    1934:	f000 ebb6 	blx	20a4 <utee_storage_obj_read>
/mnt/disk/raspbian-tee/optee_os/lib/libutee/tee_api_objects.c:660
    1938:	9b00      	ldr	r3, [sp, #0]
    193a:	6023      	str	r3, [r4, #0]
/mnt/disk/raspbian-tee/optee_os/lib/libutee/tee_api_objects.c:663
    193c:	4604      	mov	r4, r0
    193e:	b140      	cbz	r0, 1952 <TEE_ReadObjectData+0x2e>
/mnt/disk/raspbian-tee/optee_os/lib/libutee/tee_api_objects.c:663 (discriminator 1)
    1940:	4b06      	ldr	r3, [pc, #24]	; (195c <TEE_ReadObjectData+0x38>)
    1942:	4298      	cmp	r0, r3
    1944:	d005      	beq.n	1952 <TEE_ReadObjectData+0x2e>
/mnt/disk/raspbian-tee/optee_os/lib/libutee/tee_api_objects.c:664
    1946:	3302      	adds	r3, #2
    1948:	4298      	cmp	r0, r3
    194a:	d002      	beq.n	1952 <TEE_ReadObjectData+0x2e>
/mnt/disk/raspbian-tee/optee_os/lib/libutee/tee_api_objects.c:666
    194c:	4620      	mov	r0, r4
    194e:	f005 f820 	bl	6992 <TEE_Panic>
/mnt/disk/raspbian-tee/optee_os/lib/libutee/tee_api_objects.c:669
    1952:	4620      	mov	r0, r4
    1954:	b002      	add	sp, #8
    1956:	bd10      	pop	{r4, pc}
/mnt/disk/raspbian-tee/optee_os/lib/libutee/tee_api_objects.c:653
    1958:	4c01      	ldr	r4, [pc, #4]	; (1960 <TEE_ReadObjectData+0x3c>)
    195a:	e7f7      	b.n	194c <TEE_ReadObjectData+0x28>
    195c:	f0100001 	.word	0xf0100001
    1960:	ffff0006 	.word	0xffff0006

00001964 <TEE_WriteObjectData>:
TEE_WriteObjectData():
/mnt/disk/raspbian-tee/optee_os/lib/libutee/tee_api_objects.c:673
    1964:	b510      	push	{r4, lr}
/mnt/disk/raspbian-tee/optee_os/lib/libutee/tee_api_objects.c:676
    1966:	b1a0      	cbz	r0, 1992 <TEE_WriteObjectData+0x2e>
/mnt/disk/raspbian-tee/optee_os/lib/libutee/tee_api_objects.c:686
    1968:	f000 eba6 	blx	20b8 <utee_storage_obj_write>
/mnt/disk/raspbian-tee/optee_os/lib/libutee/tee_api_objects.c:689
    196c:	4604      	mov	r4, r0
    196e:	b170      	cbz	r0, 198e <TEE_WriteObjectData+0x2a>
/mnt/disk/raspbian-tee/optee_os/lib/libutee/tee_api_objects.c:689 (discriminator 1)
    1970:	4b09      	ldr	r3, [pc, #36]	; (1998 <TEE_WriteObjectData+0x34>)
    1972:	4298      	cmp	r0, r3
    1974:	d00b      	beq.n	198e <TEE_WriteObjectData+0x2a>
/mnt/disk/raspbian-tee/optee_os/lib/libutee/tee_api_objects.c:690
    1976:	3b32      	subs	r3, #50	; 0x32
    1978:	4298      	cmp	r0, r3
    197a:	d008      	beq.n	198e <TEE_WriteObjectData+0x2a>
/mnt/disk/raspbian-tee/optee_os/lib/libutee/tee_api_objects.c:691
    197c:	4b07      	ldr	r3, [pc, #28]	; (199c <TEE_WriteObjectData+0x38>)
    197e:	4298      	cmp	r0, r3
    1980:	d005      	beq.n	198e <TEE_WriteObjectData+0x2a>
/mnt/disk/raspbian-tee/optee_os/lib/libutee/tee_api_objects.c:692
    1982:	3302      	adds	r3, #2
    1984:	4298      	cmp	r0, r3
    1986:	d002      	beq.n	198e <TEE_WriteObjectData+0x2a>
/mnt/disk/raspbian-tee/optee_os/lib/libutee/tee_api_objects.c:694
    1988:	4620      	mov	r0, r4
    198a:	f005 f802 	bl	6992 <TEE_Panic>
/mnt/disk/raspbian-tee/optee_os/lib/libutee/tee_api_objects.c:697
    198e:	4620      	mov	r0, r4
    1990:	bd10      	pop	{r4, pc}
/mnt/disk/raspbian-tee/optee_os/lib/libutee/tee_api_objects.c:677
    1992:	4c03      	ldr	r4, [pc, #12]	; (19a0 <TEE_WriteObjectData+0x3c>)
    1994:	e7f8      	b.n	1988 <TEE_WriteObjectData+0x24>
    1996:	bf00      	nop
    1998:	ffff3041 	.word	0xffff3041
    199c:	f0100001 	.word	0xf0100001
    19a0:	ffff0006 	.word	0xffff0006

000019a4 <TEE_TruncateObjectData>:
TEE_TruncateObjectData():
/mnt/disk/raspbian-tee/optee_os/lib/libutee/tee_api_objects.c:700
    19a4:	b510      	push	{r4, lr}
/mnt/disk/raspbian-tee/optee_os/lib/libutee/tee_api_objects.c:703
    19a6:	b188      	cbz	r0, 19cc <TEE_TruncateObjectData+0x28>
/mnt/disk/raspbian-tee/optee_os/lib/libutee/tee_api_objects.c:708
    19a8:	f000 eb90 	blx	20cc <utee_storage_obj_trunc>
/mnt/disk/raspbian-tee/optee_os/lib/libutee/tee_api_objects.c:711
    19ac:	4604      	mov	r4, r0
    19ae:	b158      	cbz	r0, 19c8 <TEE_TruncateObjectData+0x24>
/mnt/disk/raspbian-tee/optee_os/lib/libutee/tee_api_objects.c:711 (discriminator 1)
    19b0:	4b07      	ldr	r3, [pc, #28]	; (19d0 <TEE_TruncateObjectData+0x2c>)
    19b2:	4298      	cmp	r0, r3
    19b4:	d008      	beq.n	19c8 <TEE_TruncateObjectData+0x24>
/mnt/disk/raspbian-tee/optee_os/lib/libutee/tee_api_objects.c:712
    19b6:	4b07      	ldr	r3, [pc, #28]	; (19d4 <TEE_TruncateObjectData+0x30>)
    19b8:	4298      	cmp	r0, r3
    19ba:	d005      	beq.n	19c8 <TEE_TruncateObjectData+0x24>
/mnt/disk/raspbian-tee/optee_os/lib/libutee/tee_api_objects.c:713
    19bc:	3302      	adds	r3, #2
    19be:	4298      	cmp	r0, r3
    19c0:	d002      	beq.n	19c8 <TEE_TruncateObjectData+0x24>
/mnt/disk/raspbian-tee/optee_os/lib/libutee/tee_api_objects.c:715
    19c2:	4620      	mov	r0, r4
    19c4:	f004 ffe5 	bl	6992 <TEE_Panic>
/mnt/disk/raspbian-tee/optee_os/lib/libutee/tee_api_objects.c:718
    19c8:	4620      	mov	r0, r4
    19ca:	bd10      	pop	{r4, pc}
/mnt/disk/raspbian-tee/optee_os/lib/libutee/tee_api_objects.c:704
    19cc:	4c02      	ldr	r4, [pc, #8]	; (19d8 <TEE_TruncateObjectData+0x34>)
    19ce:	e7f8      	b.n	19c2 <TEE_TruncateObjectData+0x1e>
    19d0:	ffff3041 	.word	0xffff3041
    19d4:	f0100001 	.word	0xf0100001
    19d8:	ffff0006 	.word	0xffff0006

000019dc <TEE_SeekObjectData>:
TEE_SeekObjectData():
/mnt/disk/raspbian-tee/optee_os/lib/libutee/tee_api_objects.c:722
    19dc:	b5f0      	push	{r4, r5, r6, r7, lr}
    19de:	460d      	mov	r5, r1
    19e0:	4616      	mov	r6, r2
    19e2:	b089      	sub	sp, #36	; 0x24
/mnt/disk/raspbian-tee/optee_os/lib/libutee/tee_api_objects.c:726
    19e4:	4607      	mov	r7, r0
    19e6:	b368      	cbz	r0, 1a44 <TEE_SeekObjectData+0x68>
/mnt/disk/raspbian-tee/optee_os/lib/libutee/tee_api_objects.c:731
    19e8:	a901      	add	r1, sp, #4
    19ea:	f000 ea48 	blx	1e7c <utee_cryp_obj_get_info>
/mnt/disk/raspbian-tee/optee_os/lib/libutee/tee_api_objects.c:732
    19ee:	4604      	mov	r4, r0
    19f0:	b9d8      	cbnz	r0, 1a2a <TEE_SeekObjectData+0x4e>
/mnt/disk/raspbian-tee/optee_os/lib/libutee/tee_api_objects.c:735
    19f2:	2e01      	cmp	r6, #1
    19f4:	d004      	beq.n	1a00 <TEE_SeekObjectData+0x24>
    19f6:	d310      	bcc.n	1a1a <TEE_SeekObjectData+0x3e>
    19f8:	2e02      	cmp	r6, #2
    19fa:	d00a      	beq.n	1a12 <TEE_SeekObjectData+0x36>
/mnt/disk/raspbian-tee/optee_os/lib/libutee/tee_api_objects.c:761
    19fc:	4c12      	ldr	r4, [pc, #72]	; (1a48 <TEE_SeekObjectData+0x6c>)
    19fe:	e017      	b.n	1a30 <TEE_SeekObjectData+0x54>
/mnt/disk/raspbian-tee/optee_os/lib/libutee/tee_api_objects.c:743
    1a00:	2d00      	cmp	r5, #0
    1a02:	dd0a      	ble.n	1a1a <TEE_SeekObjectData+0x3e>
/mnt/disk/raspbian-tee/optee_os/lib/libutee/tee_api_objects.c:743 (discriminator 1)
    1a04:	9b06      	ldr	r3, [sp, #24]
    1a06:	42dd      	cmn	r5, r3
    1a08:	d307      	bcc.n	1a1a <TEE_SeekObjectData+0x3e>
/mnt/disk/raspbian-tee/optee_os/lib/libutee/tee_api_objects.c:727
    1a0a:	4c10      	ldr	r4, [pc, #64]	; (1a4c <TEE_SeekObjectData+0x70>)
/mnt/disk/raspbian-tee/optee_os/lib/libutee/tee_api_objects.c:775
    1a0c:	4620      	mov	r0, r4
    1a0e:	b009      	add	sp, #36	; 0x24
    1a10:	bdf0      	pop	{r4, r5, r6, r7, pc}
/mnt/disk/raspbian-tee/optee_os/lib/libutee/tee_api_objects.c:753
    1a12:	2d00      	cmp	r5, #0
    1a14:	dd01      	ble.n	1a1a <TEE_SeekObjectData+0x3e>
/mnt/disk/raspbian-tee/optee_os/lib/libutee/tee_api_objects.c:753 (discriminator 1)
    1a16:	9b05      	ldr	r3, [sp, #20]
    1a18:	e7f5      	b.n	1a06 <TEE_SeekObjectData+0x2a>
/mnt/disk/raspbian-tee/optee_os/lib/libutee/tee_api_objects.c:765
    1a1a:	4632      	mov	r2, r6
    1a1c:	4629      	mov	r1, r5
    1a1e:	4638      	mov	r0, r7
    1a20:	f000 eb5e 	blx	20e0 <utee_storage_obj_seek>
/mnt/disk/raspbian-tee/optee_os/lib/libutee/tee_api_objects.c:768
    1a24:	4604      	mov	r4, r0
    1a26:	2800      	cmp	r0, #0
    1a28:	d0f0      	beq.n	1a0c <TEE_SeekObjectData+0x30>
/mnt/disk/raspbian-tee/optee_os/lib/libutee/tee_api_objects.c:768 (discriminator 1)
    1a2a:	4b08      	ldr	r3, [pc, #32]	; (1a4c <TEE_SeekObjectData+0x70>)
    1a2c:	429c      	cmp	r4, r3
    1a2e:	d0ec      	beq.n	1a0a <TEE_SeekObjectData+0x2e>
/mnt/disk/raspbian-tee/optee_os/lib/libutee/tee_api_objects.c:769
    1a30:	4b07      	ldr	r3, [pc, #28]	; (1a50 <TEE_SeekObjectData+0x74>)
    1a32:	429c      	cmp	r4, r3
    1a34:	d0ea      	beq.n	1a0c <TEE_SeekObjectData+0x30>
/mnt/disk/raspbian-tee/optee_os/lib/libutee/tee_api_objects.c:770
    1a36:	3302      	adds	r3, #2
    1a38:	429c      	cmp	r4, r3
    1a3a:	d0e7      	beq.n	1a0c <TEE_SeekObjectData+0x30>
/mnt/disk/raspbian-tee/optee_os/lib/libutee/tee_api_objects.c:772
    1a3c:	4620      	mov	r0, r4
    1a3e:	f004 ffa8 	bl	6992 <TEE_Panic>
/mnt/disk/raspbian-tee/optee_os/lib/libutee/tee_api_objects.c:774
    1a42:	e7e3      	b.n	1a0c <TEE_SeekObjectData+0x30>
/mnt/disk/raspbian-tee/optee_os/lib/libutee/tee_api_objects.c:727
    1a44:	4c03      	ldr	r4, [pc, #12]	; (1a54 <TEE_SeekObjectData+0x78>)
    1a46:	e7f9      	b.n	1a3c <TEE_SeekObjectData+0x60>
    1a48:	ffff0008 	.word	0xffff0008
    1a4c:	ffff300f 	.word	0xffff300f
    1a50:	f0100001 	.word	0xf0100001
    1a54:	ffff0006 	.word	0xffff0006

00001a58 <ta_header_get_session>:
ta_header_get_session():
/mnt/disk/raspbian-tee/optee_os/lib/libutee/arch/arm/user_ta_entry.c:81
    1a58:	4b05      	ldr	r3, [pc, #20]	; (1a70 <ta_header_get_session+0x18>)
    1a5a:	447b      	add	r3, pc
    1a5c:	681b      	ldr	r3, [r3, #0]
/mnt/disk/raspbian-tee/optee_os/lib/libutee/arch/arm/user_ta_entry.c:81 (discriminator 1)
    1a5e:	b90b      	cbnz	r3, 1a64 <ta_header_get_session+0xc>
/mnt/disk/raspbian-tee/optee_os/lib/libutee/arch/arm/user_ta_entry.c:86
    1a60:	4618      	mov	r0, r3
    1a62:	4770      	bx	lr
/mnt/disk/raspbian-tee/optee_os/lib/libutee/arch/arm/user_ta_entry.c:82
    1a64:	681a      	ldr	r2, [r3, #0]
    1a66:	4282      	cmp	r2, r0
    1a68:	d0fa      	beq.n	1a60 <ta_header_get_session+0x8>
/mnt/disk/raspbian-tee/optee_os/lib/libutee/arch/arm/user_ta_entry.c:81 (discriminator 2)
    1a6a:	689b      	ldr	r3, [r3, #8]
    1a6c:	e7f7      	b.n	1a5e <ta_header_get_session+0x6>
    1a6e:	bf00      	nop
    1a70:	0000762e 	.word	0x0000762e

00001a74 <ta_header_remove_session>:
ta_header_remove_session():
/mnt/disk/raspbian-tee/optee_os/lib/libutee/arch/arm/user_ta_entry.c:119
    1a74:	4b14      	ldr	r3, [pc, #80]	; (1ac8 <ta_header_remove_session+0x54>)
/mnt/disk/raspbian-tee/optee_os/lib/libutee/arch/arm/user_ta_entry.c:115
    1a76:	b510      	push	{r4, lr}
/mnt/disk/raspbian-tee/optee_os/lib/libutee/arch/arm/user_ta_entry.c:119
    1a78:	447b      	add	r3, pc
/mnt/disk/raspbian-tee/optee_os/lib/libutee/arch/arm/user_ta_entry.c:115
    1a7a:	4c14      	ldr	r4, [pc, #80]	; (1acc <ta_header_remove_session+0x58>)
/mnt/disk/raspbian-tee/optee_os/lib/libutee/arch/arm/user_ta_entry.c:119
    1a7c:	681b      	ldr	r3, [r3, #0]
/mnt/disk/raspbian-tee/optee_os/lib/libutee/arch/arm/user_ta_entry.c:115
    1a7e:	447c      	add	r4, pc
/mnt/disk/raspbian-tee/optee_os/lib/libutee/arch/arm/user_ta_entry.c:119 (discriminator 1)
    1a80:	b903      	cbnz	r3, 1a84 <ta_header_remove_session+0x10>
    1a82:	bd10      	pop	{r4, pc}
/mnt/disk/raspbian-tee/optee_os/lib/libutee/arch/arm/user_ta_entry.c:120
    1a84:	681a      	ldr	r2, [r3, #0]
    1a86:	4282      	cmp	r2, r0
    1a88:	689a      	ldr	r2, [r3, #8]
    1a8a:	d11b      	bne.n	1ac4 <ta_header_remove_session+0x50>
    1a8c:	68d9      	ldr	r1, [r3, #12]
/mnt/disk/raspbian-tee/optee_os/lib/libutee/arch/arm/user_ta_entry.c:121
    1a8e:	b1aa      	cbz	r2, 1abc <ta_header_remove_session+0x48>
/mnt/disk/raspbian-tee/optee_os/lib/libutee/arch/arm/user_ta_entry.c:121 (discriminator 1)
    1a90:	60d1      	str	r1, [r2, #12]
/mnt/disk/raspbian-tee/optee_os/lib/libutee/arch/arm/user_ta_entry.c:121 (discriminator 4)
    1a92:	68d9      	ldr	r1, [r3, #12]
/mnt/disk/raspbian-tee/optee_os/lib/libutee/arch/arm/user_ta_entry.c:122 (discriminator 4)
    1a94:	4618      	mov	r0, r3
/mnt/disk/raspbian-tee/optee_os/lib/libutee/arch/arm/user_ta_entry.c:121 (discriminator 4)
    1a96:	600a      	str	r2, [r1, #0]
/mnt/disk/raspbian-tee/optee_os/lib/libutee/arch/arm/user_ta_entry.c:122 (discriminator 4)
    1a98:	f7ff fc0c 	bl	12b4 <TEE_Free>
/mnt/disk/raspbian-tee/optee_os/lib/libutee/arch/arm/user_ta_entry.c:127 (discriminator 4)
    1a9c:	4b0c      	ldr	r3, [pc, #48]	; (1ad0 <ta_header_remove_session+0x5c>)
    1a9e:	447b      	add	r3, pc
    1aa0:	681b      	ldr	r3, [r3, #0]
    1aa2:	2b00      	cmp	r3, #0
    1aa4:	d1ed      	bne.n	1a82 <ta_header_remove_session+0xe>
/mnt/disk/raspbian-tee/optee_os/lib/libutee/arch/arm/user_ta_entry.c:125 (discriminator 1)
    1aa6:	4b0b      	ldr	r3, [pc, #44]	; (1ad4 <ta_header_remove_session+0x60>)
    1aa8:	58e3      	ldr	r3, [r4, r3]
    1aaa:	695b      	ldr	r3, [r3, #20]
    1aac:	f003 0314 	and.w	r3, r3, #20
/mnt/disk/raspbian-tee/optee_os/lib/libutee/arch/arm/user_ta_entry.c:127 (discriminator 1)
    1ab0:	2b14      	cmp	r3, #20
    1ab2:	d0e6      	beq.n	1a82 <ta_header_remove_session+0xe>
/mnt/disk/raspbian-tee/optee_os/lib/libutee/arch/arm/user_ta_entry.c:133
    1ab4:	e8bd 4010 	ldmia.w	sp!, {r4, lr}
uninit_instance():
/mnt/disk/raspbian-tee/optee_os/lib/libutee/arch/arm/user_ta_entry.c:63
    1ab8:	f7fe bba0 	b.w	1fc <TA_DestroyEntryPoint>
ta_header_remove_session():
/mnt/disk/raspbian-tee/optee_os/lib/libutee/arch/arm/user_ta_entry.c:121 (discriminator 2)
    1abc:	4806      	ldr	r0, [pc, #24]	; (1ad8 <ta_header_remove_session+0x64>)
    1abe:	4478      	add	r0, pc
    1ac0:	6041      	str	r1, [r0, #4]
    1ac2:	e7e6      	b.n	1a92 <ta_header_remove_session+0x1e>
/mnt/disk/raspbian-tee/optee_os/lib/libutee/arch/arm/user_ta_entry.c:119 (discriminator 2)
    1ac4:	4613      	mov	r3, r2
    1ac6:	e7db      	b.n	1a80 <ta_header_remove_session+0xc>
    1ac8:	00007610 	.word	0x00007610
    1acc:	000069ea 	.word	0x000069ea
    1ad0:	000075ea 	.word	0x000075ea
    1ad4:	0000002c 	.word	0x0000002c
    1ad8:	000075ca 	.word	0x000075ca

00001adc <__utee_entry>:
__utee_entry():
/mnt/disk/raspbian-tee/optee_os/lib/libutee/arch/arm/user_ta_entry.c:200
    1adc:	b580      	push	{r7, lr}
    1ade:	4616      	mov	r6, r2
    1ae0:	4c5a      	ldr	r4, [pc, #360]	; (1c4c <__utee_entry+0x170>)
    1ae2:	b08c      	sub	sp, #48	; 0x30
    1ae4:	460f      	mov	r7, r1
    1ae6:	447c      	add	r4, pc
    1ae8:	4698      	mov	r8, r3
/mnt/disk/raspbian-tee/optee_os/lib/libutee/arch/arm/user_ta_entry.c:211
    1aea:	2801      	cmp	r0, #1
    1aec:	d074      	beq.n	1bd8 <__utee_entry+0xfc>
    1aee:	d307      	bcc.n	1b00 <__utee_entry+0x24>
    1af0:	2802      	cmp	r0, #2
    1af2:	d07e      	beq.n	1bf2 <__utee_entry+0x116>
/mnt/disk/raspbian-tee/optee_os/lib/libutee/arch/arm/user_ta_entry.c:223
    1af4:	2000      	movs	r0, #0
/mnt/disk/raspbian-tee/optee_os/lib/libutee/arch/arm/user_ta_entry.c:222
    1af6:	f04f 34ff 	mov.w	r4, #4294967295	; 0xffffffff
/mnt/disk/raspbian-tee/optee_os/lib/libutee/arch/arm/user_ta_entry.c:223
    1afa:	f004 ff4a 	bl	6992 <TEE_Panic>
/mnt/disk/raspbian-tee/optee_os/lib/libutee/arch/arm/user_ta_entry.c:224
    1afe:	e026      	b.n	1b4e <__utee_entry+0x72>
ta_header_add_session():
/mnt/disk/raspbian-tee/optee_os/lib/libutee/arch/arm/user_ta_entry.c:90
    1b00:	4608      	mov	r0, r1
    1b02:	f7ff ffa9 	bl	1a58 <ta_header_get_session>
/mnt/disk/raspbian-tee/optee_os/lib/libutee/arch/arm/user_ta_entry.c:93
    1b06:	2800      	cmp	r0, #0
    1b08:	d138      	bne.n	1b7c <__utee_entry+0xa0>
/mnt/disk/raspbian-tee/optee_os/lib/libutee/arch/arm/user_ta_entry.c:96
    1b0a:	4b51      	ldr	r3, [pc, #324]	; (1c50 <__utee_entry+0x174>)
    1b0c:	447b      	add	r3, pc
    1b0e:	781a      	ldrb	r2, [r3, #0]
    1b10:	b13a      	cbz	r2, 1b22 <__utee_entry+0x46>
/mnt/disk/raspbian-tee/optee_os/lib/libutee/arch/arm/user_ta_entry.c:103
    1b12:	f04f 4100 	mov.w	r1, #2147483648	; 0x80000000
    1b16:	2010      	movs	r0, #16
    1b18:	f7ff fba5 	bl	1266 <TEE_Malloc>
/mnt/disk/raspbian-tee/optee_os/lib/libutee/arch/arm/user_ta_entry.c:105
    1b1c:	bb18      	cbnz	r0, 1b66 <__utee_entry+0x8a>
/mnt/disk/raspbian-tee/optee_os/lib/libutee/arch/arm/user_ta_entry.c:106
    1b1e:	4c49      	ldr	r4, [pc, #292]	; (1c44 <__utee_entry+0x168>)
    1b20:	e015      	b.n	1b4e <__utee_entry+0x72>
/mnt/disk/raspbian-tee/optee_os/lib/libutee/arch/arm/user_ta_entry.c:97
    1b22:	2201      	movs	r2, #1
    1b24:	701a      	strb	r2, [r3, #0]
init_instance():
/mnt/disk/raspbian-tee/optee_os/lib/libutee/arch/arm/user_ta_entry.c:53
    1b26:	f004 fda5 	bl	6674 <tahead_get_trace_level>
    1b2a:	f7fe fd12 	bl	552 <trace_set_level>
/mnt/disk/raspbian-tee/optee_os/lib/libutee/arch/arm/user_ta_entry.c:55
    1b2e:	4b49      	ldr	r3, [pc, #292]	; (1c54 <__utee_entry+0x178>)
    1b30:	4a49      	ldr	r2, [pc, #292]	; (1c58 <__utee_entry+0x17c>)
    1b32:	58e3      	ldr	r3, [r4, r3]
    1b34:	58a2      	ldr	r2, [r4, r2]
    1b36:	9201      	str	r2, [sp, #4]
    1b38:	6819      	ldr	r1, [r3, #0]
    1b3a:	4610      	mov	r0, r2
    1b3c:	f004 fbec 	bl	6318 <malloc_add_pool>
/mnt/disk/raspbian-tee/optee_os/lib/libutee/arch/arm/user_ta_entry.c:56
    1b40:	f000 fdc8 	bl	26d4 <_TEE_MathAPI_Init>
/mnt/disk/raspbian-tee/optee_os/lib/libutee/arch/arm/user_ta_entry.c:57
    1b44:	f7fe fb58 	bl	1f8 <TA_CreateEntryPoint>
ta_header_add_session():
/mnt/disk/raspbian-tee/optee_os/lib/libutee/arch/arm/user_ta_entry.c:99
    1b48:	4604      	mov	r4, r0
    1b4a:	2800      	cmp	r0, #0
    1b4c:	d0e1      	beq.n	1b12 <__utee_entry+0x36>
ta_header_save_params():
/mnt/disk/raspbian-tee/optee_os/lib/libutee/arch/arm/user_ta_entry.c:69
    1b4e:	4843      	ldr	r0, [pc, #268]	; (1c5c <__utee_entry+0x180>)
    1b50:	2100      	movs	r1, #0
/mnt/disk/raspbian-tee/optee_os/lib/libutee/arch/arm/user_ta_entry.c:74
    1b52:	2220      	movs	r2, #32
/mnt/disk/raspbian-tee/optee_os/lib/libutee/arch/arm/user_ta_entry.c:69
    1b54:	4478      	add	r0, pc
/mnt/disk/raspbian-tee/optee_os/lib/libutee/arch/arm/user_ta_entry.c:74
    1b56:	3008      	adds	r0, #8
/mnt/disk/raspbian-tee/optee_os/lib/libutee/arch/arm/user_ta_entry.c:69
    1b58:	f840 1c04 	str.w	r1, [r0, #-4]
/mnt/disk/raspbian-tee/optee_os/lib/libutee/arch/arm/user_ta_entry.c:74
    1b5c:	f004 fd8c 	bl	6678 <memset>
__utee_entry():
/mnt/disk/raspbian-tee/optee_os/lib/libutee/arch/arm/user_ta_entry.c:227
    1b60:	4620      	mov	r0, r4
    1b62:	f000 e88e 	blx	1c80 <utee_return>
ta_header_add_session():
/mnt/disk/raspbian-tee/optee_os/lib/libutee/arch/arm/user_ta_entry.c:108
    1b66:	2300      	movs	r3, #0
    1b68:	6043      	str	r3, [r0, #4]
/mnt/disk/raspbian-tee/optee_os/lib/libutee/arch/arm/user_ta_entry.c:109
    1b6a:	6083      	str	r3, [r0, #8]
    1b6c:	4b3c      	ldr	r3, [pc, #240]	; (1c60 <__utee_entry+0x184>)
/mnt/disk/raspbian-tee/optee_os/lib/libutee/arch/arm/user_ta_entry.c:107
    1b6e:	6007      	str	r7, [r0, #0]
/mnt/disk/raspbian-tee/optee_os/lib/libutee/arch/arm/user_ta_entry.c:109
    1b70:	447b      	add	r3, pc
    1b72:	685a      	ldr	r2, [r3, #4]
    1b74:	60c2      	str	r2, [r0, #12]
    1b76:	6010      	str	r0, [r2, #0]
    1b78:	3008      	adds	r0, #8
    1b7a:	6058      	str	r0, [r3, #4]
entry_open_session():
/mnt/disk/raspbian-tee/optee_os/lib/libutee/arch/arm/user_ta_entry.c:147
    1b7c:	4638      	mov	r0, r7
    1b7e:	f7ff ff6b 	bl	1a58 <ta_header_get_session>
/mnt/disk/raspbian-tee/optee_os/lib/libutee/arch/arm/user_ta_entry.c:148
    1b82:	4681      	mov	r9, r0
    1b84:	b908      	cbnz	r0, 1b8a <__utee_entry+0xae>
entry_close_session():
/mnt/disk/raspbian-tee/optee_os/lib/libutee/arch/arm/user_ta_entry.c:169
    1b86:	4c30      	ldr	r4, [pc, #192]	; (1c48 <__utee_entry+0x16c>)
    1b88:	e7e1      	b.n	1b4e <__utee_entry+0x72>
entry_open_session():
/mnt/disk/raspbian-tee/optee_os/lib/libutee/arch/arm/user_ta_entry.c:151
    1b8a:	f10d 0810 	add.w	r8, sp, #16
ta_header_save_params():
/mnt/disk/raspbian-tee/optee_os/lib/libutee/arch/arm/user_ta_entry.c:69
    1b8e:	4c35      	ldr	r4, [pc, #212]	; (1c64 <__utee_entry+0x188>)
/mnt/disk/raspbian-tee/optee_os/lib/libutee/arch/arm/user_ta_entry.c:72
    1b90:	4645      	mov	r5, r8
entry_open_session():
/mnt/disk/raspbian-tee/optee_os/lib/libutee/arch/arm/user_ta_entry.c:151
    1b92:	4632      	mov	r2, r6
    1b94:	a903      	add	r1, sp, #12
    1b96:	4640      	mov	r0, r8
ta_header_save_params():
/mnt/disk/raspbian-tee/optee_os/lib/libutee/arch/arm/user_ta_entry.c:69
    1b98:	447c      	add	r4, pc
entry_open_session():
/mnt/disk/raspbian-tee/optee_os/lib/libutee/arch/arm/user_ta_entry.c:151
    1b9a:	f7ff fa4d 	bl	1038 <__utee_to_param>
ta_header_save_params():
/mnt/disk/raspbian-tee/optee_os/lib/libutee/arch/arm/user_ta_entry.c:72
    1b9e:	cd0f      	ldmia	r5!, {r0, r1, r2, r3}
    1ba0:	3408      	adds	r4, #8
entry_open_session():
/mnt/disk/raspbian-tee/optee_os/lib/libutee/arch/arm/user_ta_entry.c:152
    1ba2:	f8dd c00c 	ldr.w	ip, [sp, #12]
ta_header_save_params():
/mnt/disk/raspbian-tee/optee_os/lib/libutee/arch/arm/user_ta_entry.c:69
    1ba6:	f844 cc04 	str.w	ip, [r4, #-4]
/mnt/disk/raspbian-tee/optee_os/lib/libutee/arch/arm/user_ta_entry.c:72
    1baa:	c40f      	stmia	r4!, {r0, r1, r2, r3}
    1bac:	e895 000f 	ldmia.w	r5, {r0, r1, r2, r3}
    1bb0:	e884 000f 	stmia.w	r4, {r0, r1, r2, r3}
entry_open_session():
/mnt/disk/raspbian-tee/optee_os/lib/libutee/arch/arm/user_ta_entry.c:154
    1bb4:	f109 0204 	add.w	r2, r9, #4
    1bb8:	4641      	mov	r1, r8
    1bba:	4660      	mov	r0, ip
    1bbc:	f7fe fb1f 	bl	1fe <TA_OpenSessionEntryPoint>
/mnt/disk/raspbian-tee/optee_os/lib/libutee/arch/arm/user_ta_entry.c:157
    1bc0:	4642      	mov	r2, r8
/mnt/disk/raspbian-tee/optee_os/lib/libutee/arch/arm/user_ta_entry.c:154
    1bc2:	4604      	mov	r4, r0
/mnt/disk/raspbian-tee/optee_os/lib/libutee/arch/arm/user_ta_entry.c:157
    1bc4:	9903      	ldr	r1, [sp, #12]
    1bc6:	4630      	mov	r0, r6
    1bc8:	f7ff fa0e 	bl	fe8 <__utee_from_param>
/mnt/disk/raspbian-tee/optee_os/lib/libutee/arch/arm/user_ta_entry.c:159
    1bcc:	2c00      	cmp	r4, #0
    1bce:	d0be      	beq.n	1b4e <__utee_entry+0x72>
/mnt/disk/raspbian-tee/optee_os/lib/libutee/arch/arm/user_ta_entry.c:160
    1bd0:	4638      	mov	r0, r7
    1bd2:	f7ff ff4f 	bl	1a74 <ta_header_remove_session>
    1bd6:	e7ba      	b.n	1b4e <__utee_entry+0x72>
entry_close_session():
/mnt/disk/raspbian-tee/optee_os/lib/libutee/arch/arm/user_ta_entry.c:166
    1bd8:	4608      	mov	r0, r1
    1bda:	f7ff ff3d 	bl	1a58 <ta_header_get_session>
/mnt/disk/raspbian-tee/optee_os/lib/libutee/arch/arm/user_ta_entry.c:168
    1bde:	2800      	cmp	r0, #0
    1be0:	d0d1      	beq.n	1b86 <__utee_entry+0xaa>
/mnt/disk/raspbian-tee/optee_os/lib/libutee/arch/arm/user_ta_entry.c:171
    1be2:	6840      	ldr	r0, [r0, #4]
/mnt/disk/raspbian-tee/optee_os/lib/libutee/arch/arm/user_ta_entry.c:174
    1be4:	2400      	movs	r4, #0
/mnt/disk/raspbian-tee/optee_os/lib/libutee/arch/arm/user_ta_entry.c:171
    1be6:	f7fe fb0c 	bl	202 <TA_CloseSessionEntryPoint>
/mnt/disk/raspbian-tee/optee_os/lib/libutee/arch/arm/user_ta_entry.c:173
    1bea:	4638      	mov	r0, r7
    1bec:	f7ff ff42 	bl	1a74 <ta_header_remove_session>
    1bf0:	e7ad      	b.n	1b4e <__utee_entry+0x72>
entry_invoke_command():
/mnt/disk/raspbian-tee/optee_os/lib/libutee/arch/arm/user_ta_entry.c:183
    1bf2:	4608      	mov	r0, r1
    1bf4:	f7ff ff30 	bl	1a58 <ta_header_get_session>
/mnt/disk/raspbian-tee/optee_os/lib/libutee/arch/arm/user_ta_entry.c:185
    1bf8:	4681      	mov	r9, r0
    1bfa:	2800      	cmp	r0, #0
    1bfc:	d0c3      	beq.n	1b86 <__utee_entry+0xaa>
/mnt/disk/raspbian-tee/optee_os/lib/libutee/arch/arm/user_ta_entry.c:188
    1bfe:	af04      	add	r7, sp, #16
ta_header_save_params():
/mnt/disk/raspbian-tee/optee_os/lib/libutee/arch/arm/user_ta_entry.c:69
    1c00:	4c19      	ldr	r4, [pc, #100]	; (1c68 <__utee_entry+0x18c>)
/mnt/disk/raspbian-tee/optee_os/lib/libutee/arch/arm/user_ta_entry.c:72
    1c02:	463d      	mov	r5, r7
entry_invoke_command():
/mnt/disk/raspbian-tee/optee_os/lib/libutee/arch/arm/user_ta_entry.c:188
    1c04:	4632      	mov	r2, r6
    1c06:	a903      	add	r1, sp, #12
    1c08:	4638      	mov	r0, r7
ta_header_save_params():
/mnt/disk/raspbian-tee/optee_os/lib/libutee/arch/arm/user_ta_entry.c:69
    1c0a:	447c      	add	r4, pc
entry_invoke_command():
/mnt/disk/raspbian-tee/optee_os/lib/libutee/arch/arm/user_ta_entry.c:188
    1c0c:	f7ff fa14 	bl	1038 <__utee_to_param>
ta_header_save_params():
/mnt/disk/raspbian-tee/optee_os/lib/libutee/arch/arm/user_ta_entry.c:72
    1c10:	cd0f      	ldmia	r5!, {r0, r1, r2, r3}
    1c12:	3408      	adds	r4, #8
entry_invoke_command():
/mnt/disk/raspbian-tee/optee_os/lib/libutee/arch/arm/user_ta_entry.c:189
    1c14:	f8dd c00c 	ldr.w	ip, [sp, #12]
ta_header_save_params():
/mnt/disk/raspbian-tee/optee_os/lib/libutee/arch/arm/user_ta_entry.c:69
    1c18:	f844 cc04 	str.w	ip, [r4, #-4]
/mnt/disk/raspbian-tee/optee_os/lib/libutee/arch/arm/user_ta_entry.c:72
    1c1c:	c40f      	stmia	r4!, {r0, r1, r2, r3}
    1c1e:	e895 000f 	ldmia.w	r5, {r0, r1, r2, r3}
    1c22:	e884 000f 	stmia.w	r4, {r0, r1, r2, r3}
entry_invoke_command():
/mnt/disk/raspbian-tee/optee_os/lib/libutee/arch/arm/user_ta_entry.c:191
    1c26:	4662      	mov	r2, ip
    1c28:	4641      	mov	r1, r8
    1c2a:	463b      	mov	r3, r7
    1c2c:	f8d9 0004 	ldr.w	r0, [r9, #4]
    1c30:	f7fe fae8 	bl	204 <TA_InvokeCommandEntryPoint>
/mnt/disk/raspbian-tee/optee_os/lib/libutee/arch/arm/user_ta_entry.c:194
    1c34:	463a      	mov	r2, r7
/mnt/disk/raspbian-tee/optee_os/lib/libutee/arch/arm/user_ta_entry.c:191
    1c36:	4604      	mov	r4, r0
/mnt/disk/raspbian-tee/optee_os/lib/libutee/arch/arm/user_ta_entry.c:194
    1c38:	9903      	ldr	r1, [sp, #12]
    1c3a:	4630      	mov	r0, r6
    1c3c:	f7ff f9d4 	bl	fe8 <__utee_from_param>
    1c40:	e785      	b.n	1b4e <__utee_entry+0x72>
    1c42:	bf00      	nop
    1c44:	ffff000c 	.word	0xffff000c
    1c48:	ffff0007 	.word	0xffff0007
    1c4c:	00006982 	.word	0x00006982
    1c50:	000075a4 	.word	0x000075a4
    1c54:	0000000c 	.word	0x0000000c
    1c58:	00000020 	.word	0x00000020
    1c5c:	0000755c 	.word	0x0000755c
    1c60:	00007518 	.word	0x00007518
    1c64:	00007518 	.word	0x00007518
    1c68:	000074a6 	.word	0x000074a6

00001c6c <utee_panic>:
utee_panic():
/mnt/disk/raspbian-tee/optee_os/lib/libutee/arch/arm/utee_syscalls_a32.S:47
    1c6c:	e92d4fff 	push	{r0, r1, r2, r3, r4, r5, r6, r7, r8, r9, sl, fp, lr}
/mnt/disk/raspbian-tee/optee_os/lib/libutee/arch/arm/utee_syscalls_a32.S:49
    1c70:	e1a0e00f 	mov	lr, pc
/mnt/disk/raspbian-tee/optee_os/lib/libutee/arch/arm/utee_syscalls_a32.S:50
    1c74:	e52de004 	push	{lr}		; (str lr, [sp, #-4]!)
/mnt/disk/raspbian-tee/optee_os/lib/libutee/arch/arm/utee_syscalls_a32.S:52
    1c78:	e1a0100d 	mov	r1, sp
/mnt/disk/raspbian-tee/optee_os/lib/libutee/arch/arm/utee_syscalls_a32.S:53
    1c7c:	eb000009 	bl	1ca8 <__utee_panic>

00001c80 <utee_return>:
utee_return():
/mnt/disk/raspbian-tee/optee_os/lib/libutee/arch/arm/utee_syscalls_asm.S:8
    1c80:	e92d40e0 	push	{r5, r6, r7, lr}
    1c84:	e3a07000 	mov	r7, #0
    1c88:	e3a06000 	mov	r6, #0
    1c8c:	ef000000 	svc	0x00000000
    1c90:	e8bd80e0 	pop	{r5, r6, r7, pc}

00001c94 <utee_log>:
utee_log():
/mnt/disk/raspbian-tee/optee_os/lib/libutee/arch/arm/utee_syscalls_asm.S:10
    1c94:	e92d40e0 	push	{r5, r6, r7, lr}
    1c98:	e3a07001 	mov	r7, #1
    1c9c:	e3a06000 	mov	r6, #0
    1ca0:	ef000000 	svc	0x00000000
    1ca4:	e8bd80e0 	pop	{r5, r6, r7, pc}

00001ca8 <__utee_panic>:
__utee_panic():
/mnt/disk/raspbian-tee/optee_os/lib/libutee/arch/arm/utee_syscalls_asm.S:12
    1ca8:	e92d40e0 	push	{r5, r6, r7, lr}
    1cac:	e3a07002 	mov	r7, #2
    1cb0:	e3a06000 	mov	r6, #0
    1cb4:	ef000000 	svc	0x00000000
    1cb8:	e8bd80e0 	pop	{r5, r6, r7, pc}

00001cbc <utee_get_property>:
utee_get_property():
/mnt/disk/raspbian-tee/optee_os/lib/libutee/arch/arm/utee_syscalls_asm.S:14
    1cbc:	e92d40e0 	push	{r5, r6, r7, lr}
    1cc0:	e3a07003 	mov	r7, #3
    1cc4:	e3a06003 	mov	r6, #3
    1cc8:	e28d5010 	add	r5, sp, #16
    1ccc:	ef000000 	svc	0x00000000
    1cd0:	e8bd80e0 	pop	{r5, r6, r7, pc}

00001cd4 <utee_get_property_name_to_index>:
utee_get_property_name_to_index():
/mnt/disk/raspbian-tee/optee_os/lib/libutee/arch/arm/utee_syscalls_asm.S:16
    1cd4:	e92d40e0 	push	{r5, r6, r7, lr}
    1cd8:	e3a07004 	mov	r7, #4
    1cdc:	e3a06000 	mov	r6, #0
    1ce0:	ef000000 	svc	0x00000000
    1ce4:	e8bd80e0 	pop	{r5, r6, r7, pc}

00001ce8 <utee_open_ta_session>:
utee_open_ta_session():
/mnt/disk/raspbian-tee/optee_os/lib/libutee/arch/arm/utee_syscalls_asm.S:19
    1ce8:	e92d40e0 	push	{r5, r6, r7, lr}
    1cec:	e3a07005 	mov	r7, #5
    1cf0:	e3a06001 	mov	r6, #1
    1cf4:	e28d5010 	add	r5, sp, #16
    1cf8:	ef000000 	svc	0x00000000
    1cfc:	e8bd80e0 	pop	{r5, r6, r7, pc}

00001d00 <utee_close_ta_session>:
utee_close_ta_session():
/mnt/disk/raspbian-tee/optee_os/lib/libutee/arch/arm/utee_syscalls_asm.S:21
    1d00:	e92d40e0 	push	{r5, r6, r7, lr}
    1d04:	e3a07006 	mov	r7, #6
    1d08:	e3a06000 	mov	r6, #0
    1d0c:	ef000000 	svc	0x00000000
    1d10:	e8bd80e0 	pop	{r5, r6, r7, pc}

00001d14 <utee_invoke_ta_command>:
utee_invoke_ta_command():
/mnt/disk/raspbian-tee/optee_os/lib/libutee/arch/arm/utee_syscalls_asm.S:23
    1d14:	e92d40e0 	push	{r5, r6, r7, lr}
    1d18:	e3a07007 	mov	r7, #7
    1d1c:	e3a06001 	mov	r6, #1
    1d20:	e28d5010 	add	r5, sp, #16
    1d24:	ef000000 	svc	0x00000000
    1d28:	e8bd80e0 	pop	{r5, r6, r7, pc}

00001d2c <utee_get_cancellation_flag>:
utee_get_cancellation_flag():
/mnt/disk/raspbian-tee/optee_os/lib/libutee/arch/arm/utee_syscalls_asm.S:25
    1d2c:	e92d40e0 	push	{r5, r6, r7, lr}
    1d30:	e3a07009 	mov	r7, #9
    1d34:	e3a06000 	mov	r6, #0
    1d38:	ef000000 	svc	0x00000000
    1d3c:	e8bd80e0 	pop	{r5, r6, r7, pc}

00001d40 <utee_check_access_rights>:
utee_check_access_rights():
/mnt/disk/raspbian-tee/optee_os/lib/libutee/arch/arm/utee_syscalls_asm.S:28
    1d40:	e92d40e0 	push	{r5, r6, r7, lr}
    1d44:	e3a07008 	mov	r7, #8
    1d48:	e3a06000 	mov	r6, #0
    1d4c:	ef000000 	svc	0x00000000
    1d50:	e8bd80e0 	pop	{r5, r6, r7, pc}

00001d54 <utee_unmask_cancellation>:
utee_unmask_cancellation():
/mnt/disk/raspbian-tee/optee_os/lib/libutee/arch/arm/utee_syscalls_asm.S:30
    1d54:	e92d40e0 	push	{r5, r6, r7, lr}
    1d58:	e3a0700a 	mov	r7, #10
    1d5c:	e3a06000 	mov	r6, #0
    1d60:	ef000000 	svc	0x00000000
    1d64:	e8bd80e0 	pop	{r5, r6, r7, pc}

00001d68 <utee_mask_cancellation>:
utee_mask_cancellation():
/mnt/disk/raspbian-tee/optee_os/lib/libutee/arch/arm/utee_syscalls_asm.S:32
    1d68:	e92d40e0 	push	{r5, r6, r7, lr}
    1d6c:	e3a0700b 	mov	r7, #11
    1d70:	e3a06000 	mov	r6, #0
    1d74:	ef000000 	svc	0x00000000
    1d78:	e8bd80e0 	pop	{r5, r6, r7, pc}

00001d7c <utee_wait>:
utee_wait():
/mnt/disk/raspbian-tee/optee_os/lib/libutee/arch/arm/utee_syscalls_asm.S:34
    1d7c:	e92d40e0 	push	{r5, r6, r7, lr}
    1d80:	e3a0700c 	mov	r7, #12
    1d84:	e3a06000 	mov	r6, #0
    1d88:	ef000000 	svc	0x00000000
    1d8c:	e8bd80e0 	pop	{r5, r6, r7, pc}

00001d90 <utee_get_time>:
utee_get_time():
/mnt/disk/raspbian-tee/optee_os/lib/libutee/arch/arm/utee_syscalls_asm.S:36
    1d90:	e92d40e0 	push	{r5, r6, r7, lr}
    1d94:	e3a0700d 	mov	r7, #13
    1d98:	e3a06000 	mov	r6, #0
    1d9c:	ef000000 	svc	0x00000000
    1da0:	e8bd80e0 	pop	{r5, r6, r7, pc}

00001da4 <utee_set_ta_time>:
utee_set_ta_time():
/mnt/disk/raspbian-tee/optee_os/lib/libutee/arch/arm/utee_syscalls_asm.S:38
    1da4:	e92d40e0 	push	{r5, r6, r7, lr}
    1da8:	e3a0700e 	mov	r7, #14
    1dac:	e3a06000 	mov	r6, #0
    1db0:	ef000000 	svc	0x00000000
    1db4:	e8bd80e0 	pop	{r5, r6, r7, pc}

00001db8 <utee_cryp_state_alloc>:
utee_cryp_state_alloc():
/mnt/disk/raspbian-tee/optee_os/lib/libutee/arch/arm/utee_syscalls_asm.S:40
    1db8:	e92d40e0 	push	{r5, r6, r7, lr}
    1dbc:	e3a0700f 	mov	r7, #15
    1dc0:	e3a06001 	mov	r6, #1
    1dc4:	e28d5010 	add	r5, sp, #16
    1dc8:	ef000000 	svc	0x00000000
    1dcc:	e8bd80e0 	pop	{r5, r6, r7, pc}

00001dd0 <utee_cryp_state_copy>:
utee_cryp_state_copy():
/mnt/disk/raspbian-tee/optee_os/lib/libutee/arch/arm/utee_syscalls_asm.S:42
    1dd0:	e92d40e0 	push	{r5, r6, r7, lr}
    1dd4:	e3a07010 	mov	r7, #16
    1dd8:	e3a06000 	mov	r6, #0
    1ddc:	ef000000 	svc	0x00000000
    1de0:	e8bd80e0 	pop	{r5, r6, r7, pc}

00001de4 <utee_cryp_state_free>:
utee_cryp_state_free():
/mnt/disk/raspbian-tee/optee_os/lib/libutee/arch/arm/utee_syscalls_asm.S:44
    1de4:	e92d40e0 	push	{r5, r6, r7, lr}
    1de8:	e3a07011 	mov	r7, #17
    1dec:	e3a06000 	mov	r6, #0
    1df0:	ef000000 	svc	0x00000000
    1df4:	e8bd80e0 	pop	{r5, r6, r7, pc}

00001df8 <utee_hash_init>:
utee_hash_init():
/mnt/disk/raspbian-tee/optee_os/lib/libutee/arch/arm/utee_syscalls_asm.S:46
    1df8:	e92d40e0 	push	{r5, r6, r7, lr}
    1dfc:	e3a07012 	mov	r7, #18
    1e00:	e3a06000 	mov	r6, #0
    1e04:	ef000000 	svc	0x00000000
    1e08:	e8bd80e0 	pop	{r5, r6, r7, pc}

00001e0c <utee_hash_update>:
utee_hash_update():
/mnt/disk/raspbian-tee/optee_os/lib/libutee/arch/arm/utee_syscalls_asm.S:48
    1e0c:	e92d40e0 	push	{r5, r6, r7, lr}
    1e10:	e3a07013 	mov	r7, #19
    1e14:	e3a06000 	mov	r6, #0
    1e18:	ef000000 	svc	0x00000000
    1e1c:	e8bd80e0 	pop	{r5, r6, r7, pc}

00001e20 <utee_hash_final>:
utee_hash_final():
/mnt/disk/raspbian-tee/optee_os/lib/libutee/arch/arm/utee_syscalls_asm.S:50
    1e20:	e92d40e0 	push	{r5, r6, r7, lr}
    1e24:	e3a07014 	mov	r7, #20
    1e28:	e3a06001 	mov	r6, #1
    1e2c:	e28d5010 	add	r5, sp, #16
    1e30:	ef000000 	svc	0x00000000
    1e34:	e8bd80e0 	pop	{r5, r6, r7, pc}

00001e38 <utee_cipher_init>:
utee_cipher_init():
/mnt/disk/raspbian-tee/optee_os/lib/libutee/arch/arm/utee_syscalls_asm.S:52
    1e38:	e92d40e0 	push	{r5, r6, r7, lr}
    1e3c:	e3a07015 	mov	r7, #21
    1e40:	e3a06000 	mov	r6, #0
    1e44:	ef000000 	svc	0x00000000
    1e48:	e8bd80e0 	pop	{r5, r6, r7, pc}

00001e4c <utee_cipher_update>:
utee_cipher_update():
/mnt/disk/raspbian-tee/optee_os/lib/libutee/arch/arm/utee_syscalls_asm.S:54
    1e4c:	e92d40e0 	push	{r5, r6, r7, lr}
    1e50:	e3a07016 	mov	r7, #22
    1e54:	e3a06001 	mov	r6, #1
    1e58:	e28d5010 	add	r5, sp, #16
    1e5c:	ef000000 	svc	0x00000000
    1e60:	e8bd80e0 	pop	{r5, r6, r7, pc}

00001e64 <utee_cipher_final>:
utee_cipher_final():
/mnt/disk/raspbian-tee/optee_os/lib/libutee/arch/arm/utee_syscalls_asm.S:56
    1e64:	e92d40e0 	push	{r5, r6, r7, lr}
    1e68:	e3a07017 	mov	r7, #23
    1e6c:	e3a06001 	mov	r6, #1
    1e70:	e28d5010 	add	r5, sp, #16
    1e74:	ef000000 	svc	0x00000000
    1e78:	e8bd80e0 	pop	{r5, r6, r7, pc}

00001e7c <utee_cryp_obj_get_info>:
utee_cryp_obj_get_info():
/mnt/disk/raspbian-tee/optee_os/lib/libutee/arch/arm/utee_syscalls_asm.S:58
    1e7c:	e92d40e0 	push	{r5, r6, r7, lr}
    1e80:	e3a07018 	mov	r7, #24
    1e84:	e3a06000 	mov	r6, #0
    1e88:	ef000000 	svc	0x00000000
    1e8c:	e8bd80e0 	pop	{r5, r6, r7, pc}

00001e90 <utee_cryp_obj_restrict_usage>:
utee_cryp_obj_restrict_usage():
/mnt/disk/raspbian-tee/optee_os/lib/libutee/arch/arm/utee_syscalls_asm.S:60
    1e90:	e92d40e0 	push	{r5, r6, r7, lr}
    1e94:	e3a07019 	mov	r7, #25
    1e98:	e3a06000 	mov	r6, #0
    1e9c:	ef000000 	svc	0x00000000
    1ea0:	e8bd80e0 	pop	{r5, r6, r7, pc}

00001ea4 <utee_cryp_obj_get_attr>:
utee_cryp_obj_get_attr():
/mnt/disk/raspbian-tee/optee_os/lib/libutee/arch/arm/utee_syscalls_asm.S:63
    1ea4:	e92d40e0 	push	{r5, r6, r7, lr}
    1ea8:	e3a0701a 	mov	r7, #26
    1eac:	e3a06000 	mov	r6, #0
    1eb0:	ef000000 	svc	0x00000000
    1eb4:	e8bd80e0 	pop	{r5, r6, r7, pc}

00001eb8 <utee_cryp_obj_alloc>:
utee_cryp_obj_alloc():
/mnt/disk/raspbian-tee/optee_os/lib/libutee/arch/arm/utee_syscalls_asm.S:65
    1eb8:	e92d40e0 	push	{r5, r6, r7, lr}
    1ebc:	e3a0701b 	mov	r7, #27
    1ec0:	e3a06000 	mov	r6, #0
    1ec4:	ef000000 	svc	0x00000000
    1ec8:	e8bd80e0 	pop	{r5, r6, r7, pc}

00001ecc <utee_cryp_obj_close>:
utee_cryp_obj_close():
/mnt/disk/raspbian-tee/optee_os/lib/libutee/arch/arm/utee_syscalls_asm.S:67
    1ecc:	e92d40e0 	push	{r5, r6, r7, lr}
    1ed0:	e3a0701c 	mov	r7, #28
    1ed4:	e3a06000 	mov	r6, #0
    1ed8:	ef000000 	svc	0x00000000
    1edc:	e8bd80e0 	pop	{r5, r6, r7, pc}

00001ee0 <utee_cryp_obj_reset>:
utee_cryp_obj_reset():
/mnt/disk/raspbian-tee/optee_os/lib/libutee/arch/arm/utee_syscalls_asm.S:69
    1ee0:	e92d40e0 	push	{r5, r6, r7, lr}
    1ee4:	e3a0701d 	mov	r7, #29
    1ee8:	e3a06000 	mov	r6, #0
    1eec:	ef000000 	svc	0x00000000
    1ef0:	e8bd80e0 	pop	{r5, r6, r7, pc}

00001ef4 <utee_cryp_obj_populate>:
utee_cryp_obj_populate():
/mnt/disk/raspbian-tee/optee_os/lib/libutee/arch/arm/utee_syscalls_asm.S:71
    1ef4:	e92d40e0 	push	{r5, r6, r7, lr}
    1ef8:	e3a0701e 	mov	r7, #30
    1efc:	e3a06000 	mov	r6, #0
    1f00:	ef000000 	svc	0x00000000
    1f04:	e8bd80e0 	pop	{r5, r6, r7, pc}

00001f08 <utee_cryp_obj_copy>:
utee_cryp_obj_copy():
/mnt/disk/raspbian-tee/optee_os/lib/libutee/arch/arm/utee_syscalls_asm.S:73
    1f08:	e92d40e0 	push	{r5, r6, r7, lr}
    1f0c:	e3a0701f 	mov	r7, #31
    1f10:	e3a06000 	mov	r6, #0
    1f14:	ef000000 	svc	0x00000000
    1f18:	e8bd80e0 	pop	{r5, r6, r7, pc}

00001f1c <utee_cryp_derive_key>:
utee_cryp_derive_key():
/mnt/disk/raspbian-tee/optee_os/lib/libutee/arch/arm/utee_syscalls_asm.S:75
    1f1c:	e92d40e0 	push	{r5, r6, r7, lr}
    1f20:	e3a07020 	mov	r7, #32
    1f24:	e3a06000 	mov	r6, #0
    1f28:	ef000000 	svc	0x00000000
    1f2c:	e8bd80e0 	pop	{r5, r6, r7, pc}

00001f30 <utee_cryp_random_number_generate>:
utee_cryp_random_number_generate():
/mnt/disk/raspbian-tee/optee_os/lib/libutee/arch/arm/utee_syscalls_asm.S:77
    1f30:	e92d40e0 	push	{r5, r6, r7, lr}
    1f34:	e3a07021 	mov	r7, #33	; 0x21
    1f38:	e3a06000 	mov	r6, #0
    1f3c:	ef000000 	svc	0x00000000
    1f40:	e8bd80e0 	pop	{r5, r6, r7, pc}

00001f44 <utee_authenc_init>:
utee_authenc_init():
/mnt/disk/raspbian-tee/optee_os/lib/libutee/arch/arm/utee_syscalls_asm.S:80
    1f44:	e92d40e0 	push	{r5, r6, r7, lr}
    1f48:	e3a07022 	mov	r7, #34	; 0x22
    1f4c:	e3a06002 	mov	r6, #2
    1f50:	e28d5010 	add	r5, sp, #16
    1f54:	ef000000 	svc	0x00000000
    1f58:	e8bd80e0 	pop	{r5, r6, r7, pc}

00001f5c <utee_authenc_update_aad>:
utee_authenc_update_aad():
/mnt/disk/raspbian-tee/optee_os/lib/libutee/arch/arm/utee_syscalls_asm.S:82
    1f5c:	e92d40e0 	push	{r5, r6, r7, lr}
    1f60:	e3a07023 	mov	r7, #35	; 0x23
    1f64:	e3a06000 	mov	r6, #0
    1f68:	ef000000 	svc	0x00000000
    1f6c:	e8bd80e0 	pop	{r5, r6, r7, pc}

00001f70 <utee_authenc_update_payload>:
utee_authenc_update_payload():
/mnt/disk/raspbian-tee/optee_os/lib/libutee/arch/arm/utee_syscalls_asm.S:84
    1f70:	e92d40e0 	push	{r5, r6, r7, lr}
    1f74:	e3a07024 	mov	r7, #36	; 0x24
    1f78:	e3a06001 	mov	r6, #1
    1f7c:	e28d5010 	add	r5, sp, #16
    1f80:	ef000000 	svc	0x00000000
    1f84:	e8bd80e0 	pop	{r5, r6, r7, pc}

00001f88 <utee_authenc_enc_final>:
utee_authenc_enc_final():
/mnt/disk/raspbian-tee/optee_os/lib/libutee/arch/arm/utee_syscalls_asm.S:87
    1f88:	e92d40e0 	push	{r5, r6, r7, lr}
    1f8c:	e3a07025 	mov	r7, #37	; 0x25
    1f90:	e3a06003 	mov	r6, #3
    1f94:	e28d5010 	add	r5, sp, #16
    1f98:	ef000000 	svc	0x00000000
    1f9c:	e8bd80e0 	pop	{r5, r6, r7, pc}

00001fa0 <utee_authenc_dec_final>:
utee_authenc_dec_final():
/mnt/disk/raspbian-tee/optee_os/lib/libutee/arch/arm/utee_syscalls_asm.S:89
    1fa0:	e92d40e0 	push	{r5, r6, r7, lr}
    1fa4:	e3a07026 	mov	r7, #38	; 0x26
    1fa8:	e3a06003 	mov	r6, #3
    1fac:	e28d5010 	add	r5, sp, #16
    1fb0:	ef000000 	svc	0x00000000
    1fb4:	e8bd80e0 	pop	{r5, r6, r7, pc}

00001fb8 <utee_asymm_operate>:
utee_asymm_operate():
/mnt/disk/raspbian-tee/optee_os/lib/libutee/arch/arm/utee_syscalls_asm.S:91
    1fb8:	e92d40e0 	push	{r5, r6, r7, lr}
    1fbc:	e3a07027 	mov	r7, #39	; 0x27
    1fc0:	e3a06003 	mov	r6, #3
    1fc4:	e28d5010 	add	r5, sp, #16
    1fc8:	ef000000 	svc	0x00000000
    1fcc:	e8bd80e0 	pop	{r5, r6, r7, pc}

00001fd0 <utee_asymm_verify>:
utee_asymm_verify():
/mnt/disk/raspbian-tee/optee_os/lib/libutee/arch/arm/utee_syscalls_asm.S:93
    1fd0:	e92d40e0 	push	{r5, r6, r7, lr}
    1fd4:	e3a07028 	mov	r7, #40	; 0x28
    1fd8:	e3a06003 	mov	r6, #3
    1fdc:	e28d5010 	add	r5, sp, #16
    1fe0:	ef000000 	svc	0x00000000
    1fe4:	e8bd80e0 	pop	{r5, r6, r7, pc}

00001fe8 <utee_storage_obj_open>:
utee_storage_obj_open():
/mnt/disk/raspbian-tee/optee_os/lib/libutee/arch/arm/utee_syscalls_asm.S:95
    1fe8:	e92d40e0 	push	{r5, r6, r7, lr}
    1fec:	e3a07029 	mov	r7, #41	; 0x29
    1ff0:	e3a06001 	mov	r6, #1
    1ff4:	e28d5010 	add	r5, sp, #16
    1ff8:	ef000000 	svc	0x00000000
    1ffc:	e8bd80e0 	pop	{r5, r6, r7, pc}

00002000 <utee_storage_obj_create>:
utee_storage_obj_create():
/mnt/disk/raspbian-tee/optee_os/lib/libutee/arch/arm/utee_syscalls_asm.S:97
    2000:	e92d40e0 	push	{r5, r6, r7, lr}
    2004:	e3a0702a 	mov	r7, #42	; 0x2a
    2008:	e3a06004 	mov	r6, #4
    200c:	e28d5010 	add	r5, sp, #16
    2010:	ef000000 	svc	0x00000000
    2014:	e8bd80e0 	pop	{r5, r6, r7, pc}

00002018 <utee_storage_obj_del>:
utee_storage_obj_del():
/mnt/disk/raspbian-tee/optee_os/lib/libutee/arch/arm/utee_syscalls_asm.S:99
    2018:	e92d40e0 	push	{r5, r6, r7, lr}
    201c:	e3a0702b 	mov	r7, #43	; 0x2b
    2020:	e3a06000 	mov	r6, #0
    2024:	ef000000 	svc	0x00000000
    2028:	e8bd80e0 	pop	{r5, r6, r7, pc}

0000202c <utee_storage_obj_rename>:
utee_storage_obj_rename():
/mnt/disk/raspbian-tee/optee_os/lib/libutee/arch/arm/utee_syscalls_asm.S:101
    202c:	e92d40e0 	push	{r5, r6, r7, lr}
    2030:	e3a0702c 	mov	r7, #44	; 0x2c
    2034:	e3a06000 	mov	r6, #0
    2038:	ef000000 	svc	0x00000000
    203c:	e8bd80e0 	pop	{r5, r6, r7, pc}

00002040 <utee_storage_alloc_enum>:
utee_storage_alloc_enum():
/mnt/disk/raspbian-tee/optee_os/lib/libutee/arch/arm/utee_syscalls_asm.S:103
    2040:	e92d40e0 	push	{r5, r6, r7, lr}
    2044:	e3a0702d 	mov	r7, #45	; 0x2d
    2048:	e3a06000 	mov	r6, #0
    204c:	ef000000 	svc	0x00000000
    2050:	e8bd80e0 	pop	{r5, r6, r7, pc}

00002054 <utee_storage_free_enum>:
utee_storage_free_enum():
/mnt/disk/raspbian-tee/optee_os/lib/libutee/arch/arm/utee_syscalls_asm.S:105
    2054:	e92d40e0 	push	{r5, r6, r7, lr}
    2058:	e3a0702e 	mov	r7, #46	; 0x2e
    205c:	e3a06000 	mov	r6, #0
    2060:	ef000000 	svc	0x00000000
    2064:	e8bd80e0 	pop	{r5, r6, r7, pc}

00002068 <utee_storage_reset_enum>:
utee_storage_reset_enum():
/mnt/disk/raspbian-tee/optee_os/lib/libutee/arch/arm/utee_syscalls_asm.S:107
    2068:	e92d40e0 	push	{r5, r6, r7, lr}
    206c:	e3a0702f 	mov	r7, #47	; 0x2f
    2070:	e3a06000 	mov	r6, #0
    2074:	ef000000 	svc	0x00000000
    2078:	e8bd80e0 	pop	{r5, r6, r7, pc}

0000207c <utee_storage_start_enum>:
utee_storage_start_enum():
/mnt/disk/raspbian-tee/optee_os/lib/libutee/arch/arm/utee_syscalls_asm.S:109
    207c:	e92d40e0 	push	{r5, r6, r7, lr}
    2080:	e3a07030 	mov	r7, #48	; 0x30
    2084:	e3a06000 	mov	r6, #0
    2088:	ef000000 	svc	0x00000000
    208c:	e8bd80e0 	pop	{r5, r6, r7, pc}

00002090 <utee_storage_next_enum>:
utee_storage_next_enum():
/mnt/disk/raspbian-tee/optee_os/lib/libutee/arch/arm/utee_syscalls_asm.S:111
    2090:	e92d40e0 	push	{r5, r6, r7, lr}
    2094:	e3a07031 	mov	r7, #49	; 0x31
    2098:	e3a06000 	mov	r6, #0
    209c:	ef000000 	svc	0x00000000
    20a0:	e8bd80e0 	pop	{r5, r6, r7, pc}

000020a4 <utee_storage_obj_read>:
utee_storage_obj_read():
/mnt/disk/raspbian-tee/optee_os/lib/libutee/arch/arm/utee_syscalls_asm.S:113
    20a4:	e92d40e0 	push	{r5, r6, r7, lr}
    20a8:	e3a07032 	mov	r7, #50	; 0x32
    20ac:	e3a06000 	mov	r6, #0
    20b0:	ef000000 	svc	0x00000000
    20b4:	e8bd80e0 	pop	{r5, r6, r7, pc}

000020b8 <utee_storage_obj_write>:
utee_storage_obj_write():
/mnt/disk/raspbian-tee/optee_os/lib/libutee/arch/arm/utee_syscalls_asm.S:115
    20b8:	e92d40e0 	push	{r5, r6, r7, lr}
    20bc:	e3a07033 	mov	r7, #51	; 0x33
    20c0:	e3a06000 	mov	r6, #0
    20c4:	ef000000 	svc	0x00000000
    20c8:	e8bd80e0 	pop	{r5, r6, r7, pc}

000020cc <utee_storage_obj_trunc>:
utee_storage_obj_trunc():
/mnt/disk/raspbian-tee/optee_os/lib/libutee/arch/arm/utee_syscalls_asm.S:117
    20cc:	e92d40e0 	push	{r5, r6, r7, lr}
    20d0:	e3a07034 	mov	r7, #52	; 0x34
    20d4:	e3a06000 	mov	r6, #0
    20d8:	ef000000 	svc	0x00000000
    20dc:	e8bd80e0 	pop	{r5, r6, r7, pc}

000020e0 <utee_storage_obj_seek>:
utee_storage_obj_seek():
/mnt/disk/raspbian-tee/optee_os/lib/libutee/arch/arm/utee_syscalls_asm.S:119
    20e0:	e92d40e0 	push	{r5, r6, r7, lr}
    20e4:	e3a07035 	mov	r7, #53	; 0x35
    20e8:	e3a06000 	mov	r6, #0
    20ec:	ef000000 	svc	0x00000000
    20f0:	e8bd80e0 	pop	{r5, r6, r7, pc}

000020f4 <utee_cryp_obj_generate_key>:
utee_cryp_obj_generate_key():
/mnt/disk/raspbian-tee/optee_os/lib/libutee/arch/arm/utee_syscalls_asm.S:121
    20f4:	e92d40e0 	push	{r5, r6, r7, lr}
    20f8:	e3a07036 	mov	r7, #54	; 0x36
    20fc:	e3a06000 	mov	r6, #0
    2100:	ef000000 	svc	0x00000000
    2104:	e8bd80e0 	pop	{r5, r6, r7, pc}

00002108 <utee_cache_operation>:
utee_cache_operation():
/mnt/disk/raspbian-tee/optee_os/lib/libutee/arch/arm/utee_syscalls_asm.S:124
    2108:	e92d40e0 	push	{r5, r6, r7, lr}
    210c:	e3a07046 	mov	r7, #70	; 0x46
    2110:	e3a06000 	mov	r6, #0
    2114:	ef000000 	svc	0x00000000
    2118:	e8bd80e0 	pop	{r5, r6, r7, pc}

0000211c <__utee_mcount>:
__utee_mcount():
/mnt/disk/raspbian-tee/optee_os/lib/libutee/arch/arm/gprof/gprof_a32.S:49
    211c:	e52de004 	push	{lr}		; (str lr, [sp, #-4]!)
/mnt/disk/raspbian-tee/optee_os/lib/libutee/arch/arm/gprof/gprof_a32.S:50
    2120:	e8bd5000 	pop	{ip, lr}
/mnt/disk/raspbian-tee/optee_os/lib/libutee/arch/arm/gprof/gprof_a32.S:51
    2124:	e12fff1c 	bx	ip

00002128 <mpi_panic>:
mpi_panic():
/mnt/disk/raspbian-tee/optee_os/lib/libutee/tee_api_arith_mpi.c:29
    2128:	b508      	push	{r3, lr}
/mnt/disk/raspbian-tee/optee_os/lib/libutee/tee_api_arith_mpi.c:30
    212a:	4613      	mov	r3, r2
    212c:	460a      	mov	r2, r1
    212e:	4601      	mov	r1, r0
    2130:	4804      	ldr	r0, [pc, #16]	; (2144 <mpi_panic+0x1c>)
    2132:	4478      	add	r0, pc
    2134:	f7fe ff17 	bl	f66 <printf>
/mnt/disk/raspbian-tee/optee_os/lib/libutee/tee_api_arith_mpi.c:31
    2138:	4801      	ldr	r0, [pc, #4]	; (2140 <mpi_panic+0x18>)
    213a:	f004 fc2a 	bl	6992 <TEE_Panic>
    213e:	e7fe      	b.n	213e <mpi_panic+0x16>
    2140:	00b16127 	.word	0x00b16127
    2144:	00005249 	.word	0x00005249

00002148 <get_const_mpi>:
get_const_mpi():
/mnt/disk/raspbian-tee/optee_os/lib/libutee/tee_api_arith_mpi.c:110
    2148:	b530      	push	{r4, r5, lr}
init_static_mpi():
/mnt/disk/raspbian-tee/optee_os/lib/libutee/tee_api_arith_mpi.c:65
    214a:	3108      	adds	r1, #8
    214c:	f831 2c02 	ldrh.w	r2, [r1, #-2]
get_const_mpi():
/mnt/disk/raspbian-tee/optee_os/lib/libutee/tee_api_arith_mpi.c:110
    2150:	b087      	sub	sp, #28
init_static_mpi():
/mnt/disk/raspbian-tee/optee_os/lib/libutee/tee_api_arith_mpi.c:65
    2152:	f831 3c04 	ldrh.w	r3, [r1, #-4]
    2156:	ac03      	add	r4, sp, #12
get_const_mpi():
/mnt/disk/raspbian-tee/optee_os/lib/libutee/tee_api_arith_mpi.c:110
    2158:	4605      	mov	r5, r0
init_static_mpi():
/mnt/disk/raspbian-tee/optee_os/lib/libutee/tee_api_arith_mpi.c:65
    215a:	4620      	mov	r0, r4
    215c:	9200      	str	r2, [sp, #0]
    215e:	f851 2c08 	ldr.w	r2, [r1, #-8]
    2162:	f001 facf 	bl	3704 <mbedtls_mpi_init_static>
get_mpi():
/mnt/disk/raspbian-tee/optee_os/lib/libutee/tee_api_arith_mpi.c:99
    2166:	4628      	mov	r0, r5
    2168:	f001 fab9 	bl	36de <mbedtls_mpi_init_mempool>
get_const_mpi():
/mnt/disk/raspbian-tee/optee_os/lib/libutee/tee_api_arith_mpi.c:115
    216c:	4621      	mov	r1, r4
    216e:	4628      	mov	r0, r5
    2170:	f001 fbb2 	bl	38d8 <mbedtls_mpi_copy>
    2174:	4602      	mov	r2, r0
    2176:	b120      	cbz	r0, 2182 <get_const_mpi+0x3a>
/mnt/disk/raspbian-tee/optee_os/lib/libutee/tee_api_arith_mpi.c:115 (discriminator 1)
    2178:	4803      	ldr	r0, [pc, #12]	; (2188 <get_const_mpi+0x40>)
    217a:	2173      	movs	r1, #115	; 0x73
    217c:	4478      	add	r0, pc
    217e:	f7ff ffd3 	bl	2128 <mpi_panic>
/mnt/disk/raspbian-tee/optee_os/lib/libutee/tee_api_arith_mpi.c:116
    2182:	b007      	add	sp, #28
    2184:	bd30      	pop	{r4, r5, pc}
    2186:	bf00      	nop
    2188:	0000509c 	.word	0x0000509c

0000218c <mpi_is_odd>:
mpi_is_odd():
/mnt/disk/raspbian-tee/optee_os/lib/libutee/tee_api_arith_mpi.c:599
    218c:	b508      	push	{r3, lr}
/mnt/disk/raspbian-tee/optee_os/lib/libutee/tee_api_arith_mpi.c:600
    218e:	2100      	movs	r1, #0
    2190:	f001 fc79 	bl	3a86 <mbedtls_mpi_get_bit>
/mnt/disk/raspbian-tee/optee_os/lib/libutee/tee_api_arith_mpi.c:601
    2194:	3000      	adds	r0, #0
    2196:	bf18      	it	ne
    2198:	2001      	movne	r0, #1
    219a:	bd08      	pop	{r3, pc}

0000219c <rng_read>:
rng_read():
/mnt/disk/raspbian-tee/optee_os/lib/libutee/tee_api_arith_mpi.c:763
    219c:	b508      	push	{r3, lr}
    219e:	4608      	mov	r0, r1
/mnt/disk/raspbian-tee/optee_os/lib/libutee/tee_api_arith_mpi.c:764
    21a0:	4611      	mov	r1, r2
    21a2:	f7ff eec6 	blx	1f30 <utee_cryp_random_number_generate>
    21a6:	2800      	cmp	r0, #0
/mnt/disk/raspbian-tee/optee_os/lib/libutee/tee_api_arith_mpi.c:767
    21a8:	f06f 0001 	mvn.w	r0, #1
    21ac:	bf08      	it	eq
    21ae:	2000      	moveq	r0, #0
    21b0:	bd08      	pop	{r3, pc}

000021b2 <put_mpi>:
put_mpi():
/mnt/disk/raspbian-tee/optee_os/lib/libutee/tee_api_arith_mpi.c:128
    21b2:	7842      	ldrb	r2, [r0, #1]
    21b4:	2a02      	cmp	r2, #2
    21b6:	d108      	bne.n	21ca <put_mpi+0x18>
/mnt/disk/raspbian-tee/optee_os/lib/libutee/tee_api_arith_mpi.c:129
    21b8:	6882      	ldr	r2, [r0, #8]
/mnt/disk/raspbian-tee/optee_os/lib/libutee/tee_api_arith_mpi.c:131
    21ba:	f990 1000 	ldrsb.w	r1, [r0]
/mnt/disk/raspbian-tee/optee_os/lib/libutee/tee_api_arith_mpi.c:132
    21be:	8883      	ldrh	r3, [r0, #4]
/mnt/disk/raspbian-tee/optee_os/lib/libutee/tee_api_arith_mpi.c:131
    21c0:	f842 1c08 	str.w	r1, [r2, #-8]
/mnt/disk/raspbian-tee/optee_os/lib/libutee/tee_api_arith_mpi.c:132
    21c4:	f822 3c02 	strh.w	r3, [r2, #-2]
    21c8:	4770      	bx	lr
/mnt/disk/raspbian-tee/optee_os/lib/libutee/tee_api_arith_mpi.c:134
    21ca:	f001 baa4 	b.w	3716 <mbedtls_mpi_free>

000021ce <mpi_egcd>:
mpi_egcd():
/mnt/disk/raspbian-tee/optee_os/lib/libutee/tee_api_arith_mpi.c:614
    21ce:	e92d 4ff0 	stmdb	sp!, {r4, r5, r6, r7, r8, r9, sl, fp, lr}
    21d2:	4681      	mov	r9, r0
    21d4:	b09b      	sub	sp, #108	; 0x6c
get_mpi():
/mnt/disk/raspbian-tee/optee_os/lib/libutee/tee_api_arith_mpi.c:99
    21d6:	f10d 0814 	add.w	r8, sp, #20
    21da:	af08      	add	r7, sp, #32
    21dc:	4640      	mov	r0, r8
    21de:	ad0b      	add	r5, sp, #44	; 0x2c
mpi_egcd():
/mnt/disk/raspbian-tee/optee_os/lib/libutee/tee_api_arith_mpi.c:614
    21e0:	9102      	str	r1, [sp, #8]
get_mpi():
/mnt/disk/raspbian-tee/optee_os/lib/libutee/tee_api_arith_mpi.c:99
    21e2:	ac0e      	add	r4, sp, #56	; 0x38
mpi_egcd():
/mnt/disk/raspbian-tee/optee_os/lib/libutee/tee_api_arith_mpi.c:614
    21e4:	9203      	str	r2, [sp, #12]
get_mpi():
/mnt/disk/raspbian-tee/optee_os/lib/libutee/tee_api_arith_mpi.c:99
    21e6:	f10d 0a44 	add.w	sl, sp, #68	; 0x44
mpi_egcd():
/mnt/disk/raspbian-tee/optee_os/lib/libutee/tee_api_arith_mpi.c:614
    21ea:	9301      	str	r3, [sp, #4]
get_mpi():
