Archive member included to satisfy reference by file (symbol)

/workspace/optee_os/out/arm/export-ta_arm32/lib/libutils.a(bget_malloc.o)
                              ./darknetp_ta.o (malloc)
/workspace/optee_os/out/arm/export-ta_arm32/lib/libutils.a(memcpy.o)
                              ./darknetp_ta.o (memcpy)
/workspace/optee_os/out/arm/export-ta_arm32/lib/libutils.a(memset.o)
                              ./softmax_layer_TA.o (memset)
/workspace/optee_os/out/arm/export-ta_arm32/lib/libutils.a(strcmp.o)
                              ./activations_TA.o (strcmp)
/workspace/optee_os/out/arm/export-ta_arm32/lib/libutils.a(strncmp.o)
                              ./parser_TA.o (strncmp)
/workspace/optee_os/out/arm/export-ta_arm32/lib/libutils.a(trace.o)
                              ./darknetp_ta.o (trace_printf)
/workspace/optee_os/out/arm/export-ta_arm32/lib/libutils.a(aeabi_unwind.o)
                              ./darknetp_ta.o (__aeabi_unwind_cpp_pr0)
/workspace/optee_os/out/arm/export-ta_arm32/lib/libutils.a(snprintk.o)
                              /workspace/optee_os/out/arm/export-ta_arm32/lib/libutils.a(trace.o) (snprintk)
/workspace/optee_os/out/arm/export-ta_arm32/lib/libutils.a(memchr.o)
                              /workspace/optee_os/out/arm/export-ta_arm32/lib/libutils.a(snprintk.o) (memchr)
/workspace/optee_os/out/arm/export-ta_arm32/lib/libutils.a(strlen.o)
                              /workspace/optee_os/out/arm/export-ta_arm32/lib/libutils.a(snprintk.o) (strlen)
/workspace/optee_os/out/arm/export-ta_arm32/lib/libutils.a(arm32_aeabi_ldivmod_a32.o)
                              /workspace/optee_os/out/arm/export-ta_arm32/lib/libutils.a(snprintk.o) (__aeabi_uldivmod)
/workspace/optee_os/out/arm/export-ta_arm32/lib/libutils.a(arm32_aeabi_ldivmod.o)
                              /workspace/optee_os/out/arm/export-ta_arm32/lib/libutils.a(arm32_aeabi_ldivmod_a32.o) (__ul_divmod)
/workspace/optee_os/out/arm/export-ta_arm32/lib/libutee.a(trace_ext.o)
                              /workspace/optee_os/out/arm/export-ta_arm32/lib/libutils.a(trace.o) (trace_ext_puts)
/workspace/optee_os/out/arm/export-ta_arm32/lib/libutee.a(assert.o)
                              ./softmax_layer_TA.o (_assert_log)
/workspace/optee_os/out/arm/export-ta_arm32/lib/libutee.a(tee_api_operations.o)
                              ./math_TA.o (TEE_GenerateRandom)
/workspace/optee_os/out/arm/export-ta_arm32/lib/libutee.a(tee_api_panic.o)
                              /workspace/optee_os/out/arm/export-ta_arm32/lib/libutee.a(tee_api_operations.o) (TEE_Panic)
/workspace/optee_os/out/arm/export-ta_arm32/lib/libutee.a(user_ta_entry.o)
                              ./user_ta_header.o (__utee_entry)
/workspace/optee_os/out/arm/export-ta_arm32/lib/libutee.a(utee_syscalls_a32.o)
                              /workspace/optee_os/out/arm/export-ta_arm32/lib/libutee.a(assert.o) (utee_panic)
/workspace/optee_os/out/arm/export-ta_arm32/lib/libutee.a(gprof_a32.o)
                              /workspace/optee_os/out/arm/export-ta_arm32/lib/libutee.a(user_ta_entry.o) (__utee_mcount)
/workspace/optee_os/out/arm/export-ta_arm32/lib/libutee.a(tee_api.o)
                              /workspace/optee_os/out/arm/export-ta_arm32/lib/libutee.a(user_ta_entry.o) (__utee_from_param)
/workspace/optee_os/out/arm/export-ta_arm32/lib/libutee.a(tee_api_objects.o)
                              /workspace/optee_os/out/arm/export-ta_arm32/lib/libutee.a(tee_api_operations.o) (__utee_from_attr)
/workspace/optee_os/out/arm/export-ta_arm32/lib/libutee.a(tee_api_arith_mpi.o)
                              /workspace/optee_os/out/arm/export-ta_arm32/lib/libutee.a(user_ta_entry.o) (_TEE_MathAPI_Init)
/workspace/optee_os/out/arm/export-ta_arm32/lib/libmbedtls.a(bignum.o)
                              /workspace/optee_os/out/arm/export-ta_arm32/lib/libutee.a(tee_api_arith_mpi.o) (mbedtls_mpi_init_mempool)
/workspace/optee_os/out/arm/export-ta_arm32/lib/libutils.a(snprintf.o)
                              /workspace/optee_os/out/arm/export-ta_arm32/lib/libutee.a(trace_ext.o) (vsnprintf)
/workspace/optee_os/out/arm/export-ta_arm32/lib/libutils.a(memcmp.o)
                              /workspace/optee_os/out/arm/export-ta_arm32/lib/libutee.a(tee_api.o) (memcmp)
/workspace/optee_os/out/arm/export-ta_arm32/lib/libutils.a(memmove.o)
                              /workspace/optee_os/out/arm/export-ta_arm32/lib/libutee.a(tee_api.o) (memmove)
/workspace/optee_os/out/arm/export-ta_arm32/lib/libutils.a(buf_compare_ct.o)
                              /workspace/optee_os/out/arm/export-ta_arm32/lib/libutee.a(tee_api_operations.o) (buf_compare_ct)
/workspace/optee_os/out/arm/export-ta_arm32/lib/libutils.a(mempool.o)
                              /workspace/optee_os/out/arm/export-ta_arm32/lib/libutee.a(tee_api_arith_mpi.o) (mempool_alloc_pool)

Discarded input sections

 .group         0x0000000000000000        0x8 ./darknetp_ta.o
 .group         0x0000000000000000        0x8 ./darknetp_ta.o
 .group         0x0000000000000000        0x8 ./darknetp_ta.o
 .group         0x0000000000000000        0x8 ./darknetp_ta.o
 .group         0x0000000000000000        0x8 ./darknetp_ta.o
 .group         0x0000000000000000        0x8 ./darknetp_ta.o
 .group         0x0000000000000000        0x8 ./darknetp_ta.o
 .group         0x0000000000000000        0x8 ./darknetp_ta.o
 .group         0x0000000000000000        0x8 ./darknetp_ta.o
 .group         0x0000000000000000        0x8 ./darknetp_ta.o
 .group         0x0000000000000000        0x8 ./darknetp_ta.o
 .group         0x0000000000000000        0x8 ./darknetp_ta.o
 .group         0x0000000000000000        0x8 ./darknetp_ta.o
 .group         0x0000000000000000        0x8 ./darknetp_ta.o
 .group         0x0000000000000000        0x8 ./darknetp_ta.o
 .group         0x0000000000000000        0x8 ./darknetp_ta.o
 .group         0x0000000000000000        0x8 ./darknetp_ta.o
 .group         0x0000000000000000        0x8 ./darknetp_ta.o
 .group         0x0000000000000000        0x8 ./blas_TA.o
 .group         0x0000000000000000        0x8 ./blas_TA.o
 .group         0x0000000000000000        0x8 ./blas_TA.o
 .group         0x0000000000000000        0x8 ./blas_TA.o
 .group         0x0000000000000000        0x8 ./blas_TA.o
 .group         0x0000000000000000        0x8 ./blas_TA.o
 .group         0x0000000000000000        0x8 ./blas_TA.o
 .group         0x0000000000000000        0x8 ./blas_TA.o
 .group         0x0000000000000000        0x8 ./blas_TA.o
 .group         0x0000000000000000        0x8 ./blas_TA.o
 .group         0x0000000000000000        0x8 ./blas_TA.o
 .group         0x0000000000000000        0x8 ./blas_TA.o
 .group         0x0000000000000000        0x8 ./blas_TA.o
 .group         0x0000000000000000        0x8 ./blas_TA.o
 .debug_macro   0x0000000000000000       0xcd ./blas_TA.o
 .debug_macro   0x0000000000000000      0x16d ./blas_TA.o
 .debug_macro   0x0000000000000000       0x7c ./blas_TA.o
 .debug_macro   0x0000000000000000      0x184 ./blas_TA.o
 .debug_macro   0x0000000000000000       0xc4 ./blas_TA.o
 .debug_macro   0x0000000000000000       0x22 ./blas_TA.o
 .debug_macro   0x0000000000000000       0x22 ./blas_TA.o
 .debug_macro   0x0000000000000000       0x58 ./blas_TA.o
 .debug_macro   0x0000000000000000       0x16 ./blas_TA.o
 .debug_macro   0x0000000000000000       0x2e ./blas_TA.o
 .debug_macro   0x0000000000000000       0x34 ./blas_TA.o
 .debug_macro   0x0000000000000000       0x94 ./blas_TA.o
 .group         0x0000000000000000        0x8 ./softmax_layer_TA.o
 .group         0x0000000000000000        0x8 ./softmax_layer_TA.o
 .group         0x0000000000000000        0x8 ./softmax_layer_TA.o
 .group         0x0000000000000000        0x8 ./softmax_layer_TA.o
 .group         0x0000000000000000        0x8 ./softmax_layer_TA.o
 .group         0x0000000000000000        0x8 ./softmax_layer_TA.o
 .group         0x0000000000000000        0x8 ./softmax_layer_TA.o
 .group         0x0000000000000000        0x8 ./softmax_layer_TA.o
 .group         0x0000000000000000        0x8 ./softmax_layer_TA.o
 .group         0x0000000000000000        0x8 ./softmax_layer_TA.o
 .group         0x0000000000000000        0x8 ./softmax_layer_TA.o
 .group         0x0000000000000000        0x8 ./softmax_layer_TA.o
 .group         0x0000000000000000        0x8 ./softmax_layer_TA.o
 .group         0x0000000000000000        0x8 ./softmax_layer_TA.o
 .group         0x0000000000000000        0x8 ./softmax_layer_TA.o
 .group         0x0000000000000000        0x8 ./softmax_layer_TA.o
 .group         0x0000000000000000        0x8 ./softmax_layer_TA.o
 .group         0x0000000000000000        0x8 ./softmax_layer_TA.o
 .debug_macro   0x0000000000000000       0xcd ./softmax_layer_TA.o
 .debug_macro   0x0000000000000000      0x16d ./softmax_layer_TA.o
 .debug_macro   0x0000000000000000       0x7c ./softmax_layer_TA.o
 .debug_macro   0x0000000000000000      0x184 ./softmax_layer_TA.o
 .debug_macro   0x0000000000000000       0xc4 ./softmax_layer_TA.o
 .debug_macro   0x0000000000000000       0x22 ./softmax_layer_TA.o
 .debug_macro   0x0000000000000000       0x22 ./softmax_layer_TA.o
 .debug_macro   0x0000000000000000       0x58 ./softmax_layer_TA.o
 .debug_macro   0x0000000000000000       0x16 ./softmax_layer_TA.o
 .debug_macro   0x0000000000000000       0x2e ./softmax_layer_TA.o
 .debug_macro   0x0000000000000000       0x34 ./softmax_layer_TA.o
 .debug_macro   0x0000000000000000       0x94 ./softmax_layer_TA.o
 .debug_macro   0x0000000000000000       0x10 ./softmax_layer_TA.o
 .debug_macro   0x0000000000000000      0x8ef ./softmax_layer_TA.o
 .debug_macro   0x0000000000000000       0x35 ./softmax_layer_TA.o
 .debug_macro   0x0000000000000000       0x10 ./softmax_layer_TA.o
 .debug_macro   0x0000000000000000       0xca ./softmax_layer_TA.o
 .group         0x0000000000000000        0x8 ./col2im_TA.o
 .group         0x0000000000000000        0x8 ./col2im_TA.o
 .group         0x0000000000000000        0x8 ./col2im_TA.o
 .group         0x0000000000000000        0x8 ./col2im_TA.o
 .debug_macro   0x0000000000000000      0x16d ./col2im_TA.o
 .debug_macro   0x0000000000000000       0x58 ./col2im_TA.o
 .debug_macro   0x0000000000000000       0x2e ./col2im_TA.o
 .group         0x0000000000000000        0x8 ./connected_layer_TA.o
 .group         0x0000000000000000        0x8 ./connected_layer_TA.o
 .group         0x0000000000000000        0x8 ./connected_layer_TA.o
 .group         0x0000000000000000        0x8 ./connected_layer_TA.o
 .group         0x0000000000000000        0x8 ./connected_layer_TA.o
 .group         0x0000000000000000        0x8 ./connected_layer_TA.o
 .group         0x0000000000000000        0x8 ./connected_layer_TA.o
 .group         0x0000000000000000        0x8 ./connected_layer_TA.o
 .group         0x0000000000000000        0x8 ./connected_layer_TA.o
 .group         0x0000000000000000        0x8 ./connected_layer_TA.o
 .group         0x0000000000000000        0x8 ./connected_layer_TA.o
 .group         0x0000000000000000        0x8 ./connected_layer_TA.o
 .group         0x0000000000000000        0x8 ./connected_layer_TA.o
 .group         0x0000000000000000        0x8 ./connected_layer_TA.o
 .group         0x0000000000000000        0x8 ./connected_layer_TA.o
 .group         0x0000000000000000        0x8 ./connected_layer_TA.o
 .group         0x0000000000000000        0x8 ./connected_layer_TA.o
 .group         0x0000000000000000        0x8 ./connected_layer_TA.o
 .debug_macro   0x0000000000000000      0x16d ./connected_layer_TA.o
 .debug_macro   0x0000000000000000       0x58 ./connected_layer_TA.o
 .debug_macro   0x0000000000000000       0x7c ./connected_layer_TA.o
 .debug_macro   0x0000000000000000      0x184 ./connected_layer_TA.o
 .debug_macro   0x0000000000000000       0xcd ./connected_layer_TA.o
 .debug_macro   0x0000000000000000       0x22 ./connected_layer_TA.o
 .debug_macro   0x0000000000000000       0x34 ./connected_layer_TA.o
 .debug_macro   0x0000000000000000       0x94 ./connected_layer_TA.o
 .debug_macro   0x0000000000000000       0x10 ./connected_layer_TA.o
 .debug_macro   0x0000000000000000       0xc4 ./connected_layer_TA.o
 .debug_macro   0x0000000000000000       0x22 ./connected_layer_TA.o
 .debug_macro   0x0000000000000000       0x16 ./connected_layer_TA.o
 .debug_macro   0x0000000000000000       0x2e ./connected_layer_TA.o
 .debug_macro   0x0000000000000000      0x8ef ./connected_layer_TA.o
 .debug_macro   0x0000000000000000       0x35 ./connected_layer_TA.o
 .debug_macro   0x0000000000000000       0x10 ./connected_layer_TA.o
 .debug_macro   0x0000000000000000       0xca ./connected_layer_TA.o
 .group         0x0000000000000000        0x8 ./math_TA.o
 .group         0x0000000000000000        0x8 ./math_TA.o
 .group         0x0000000000000000        0x8 ./math_TA.o
 .group         0x0000000000000000        0x8 ./math_TA.o
 .group         0x0000000000000000        0x8 ./math_TA.o
 .group         0x0000000000000000        0x8 ./math_TA.o
 .group         0x0000000000000000        0x8 ./math_TA.o
 .group         0x0000000000000000        0x8 ./math_TA.o
 .group         0x0000000000000000        0x8 ./math_TA.o
 .group         0x0000000000000000        0x8 ./math_TA.o
 .group         0x0000000000000000        0x8 ./math_TA.o
 .group         0x0000000000000000        0x8 ./math_TA.o
 .group         0x0000000000000000        0x8 ./math_TA.o
 .group         0x0000000000000000        0x8 ./math_TA.o
 .group         0x0000000000000000        0x8 ./math_TA.o
 .group         0x0000000000000000        0x8 ./math_TA.o
 .debug_macro   0x0000000000000000       0x2e ./math_TA.o
 .debug_macro   0x0000000000000000       0x58 ./math_TA.o
 .debug_macro   0x0000000000000000      0x16d ./math_TA.o
 .debug_macro   0x0000000000000000       0xcd ./math_TA.o
 .debug_macro   0x0000000000000000       0x7c ./math_TA.o
 .debug_macro   0x0000000000000000      0x184 ./math_TA.o
 .debug_macro   0x0000000000000000       0xc4 ./math_TA.o
 .debug_macro   0x0000000000000000       0x22 ./math_TA.o
 .debug_macro   0x0000000000000000       0x22 ./math_TA.o
 .debug_macro   0x0000000000000000      0x8ef ./math_TA.o
 .debug_macro   0x0000000000000000       0x35 ./math_TA.o
 .debug_macro   0x0000000000000000       0x34 ./math_TA.o
 .debug_macro   0x0000000000000000       0x94 ./math_TA.o
 .debug_macro   0x0000000000000000       0x10 ./math_TA.o
 .debug_macro   0x0000000000000000       0xca ./math_TA.o
 .group         0x0000000000000000        0x8 ./parser_TA.o
 .group         0x0000000000000000        0x8 ./parser_TA.o
 .group         0x0000000000000000        0x8 ./parser_TA.o
 .group         0x0000000000000000        0x8 ./parser_TA.o
 .group         0x0000000000000000        0x8 ./parser_TA.o
 .group         0x0000000000000000        0x8 ./parser_TA.o
 .group         0x0000000000000000        0x8 ./parser_TA.o
 .group         0x0000000000000000        0x8 ./parser_TA.o
 .group         0x0000000000000000        0x8 ./parser_TA.o
 .group         0x0000000000000000        0x8 ./parser_TA.o
 .group         0x0000000000000000        0x8 ./parser_TA.o
 .group         0x0000000000000000        0x8 ./parser_TA.o
 .group         0x0000000000000000        0x8 ./parser_TA.o
 .group         0x0000000000000000        0x8 ./parser_TA.o
 .group         0x0000000000000000        0x8 ./parser_TA.o
 .group         0x0000000000000000        0x8 ./parser_TA.o
 .group         0x0000000000000000        0x8 ./parser_TA.o
 .debug_macro   0x0000000000000000       0xcd ./parser_TA.o
 .debug_macro   0x0000000000000000       0x22 ./parser_TA.o
 .debug_macro   0x0000000000000000      0x16d ./parser_TA.o
 .debug_macro   0x0000000000000000       0x34 ./parser_TA.o
 .debug_macro   0x0000000000000000       0x94 ./parser_TA.o
 .debug_macro   0x0000000000000000       0x10 ./parser_TA.o
 .debug_macro   0x0000000000000000       0x58 ./parser_TA.o
 .debug_macro   0x0000000000000000       0x7c ./parser_TA.o
 .debug_macro   0x0000000000000000      0x184 ./parser_TA.o
 .debug_macro   0x0000000000000000       0xc4 ./parser_TA.o
 .debug_macro   0x0000000000000000       0x22 ./parser_TA.o
 .debug_macro   0x0000000000000000       0x16 ./parser_TA.o
 .debug_macro   0x0000000000000000       0x88 ./parser_TA.o
 .debug_macro   0x0000000000000000       0x2e ./parser_TA.o
 .group         0x0000000000000000        0x8 ./activations_TA.o
 .group         0x0000000000000000        0x8 ./activations_TA.o
 .group         0x0000000000000000        0x8 ./activations_TA.o
 .group         0x0000000000000000        0x8 ./activations_TA.o
 .group         0x0000000000000000        0x8 ./activations_TA.o
 .group         0x0000000000000000        0x8 ./activations_TA.o
 .group         0x0000000000000000        0x8 ./activations_TA.o
 .group         0x0000000000000000        0x8 ./activations_TA.o
 .group         0x0000000000000000        0x8 ./activations_TA.o
 .group         0x0000000000000000        0x8 ./activations_TA.o
 .group         0x0000000000000000        0x8 ./activations_TA.o
 .debug_macro   0x0000000000000000       0xcd ./activations_TA.o
 .debug_macro   0x0000000000000000      0x16d ./activations_TA.o
 .debug_macro   0x0000000000000000       0x7c ./activations_TA.o
 .debug_macro   0x0000000000000000      0x184 ./activations_TA.o
 .debug_macro   0x0000000000000000       0xc4 ./activations_TA.o
 .debug_macro   0x0000000000000000       0x22 ./activations_TA.o
 .debug_macro   0x0000000000000000       0x22 ./activations_TA.o
 .debug_macro   0x0000000000000000       0x58 ./activations_TA.o
 .debug_macro   0x0000000000000000       0x16 ./activations_TA.o
 .debug_macro   0x0000000000000000       0x2e ./activations_TA.o
 .group         0x0000000000000000        0x8 ./gemm_TA.o
 .group         0x0000000000000000        0x8 ./gemm_TA.o
 .group         0x0000000000000000        0x8 ./gemm_TA.o
 .group         0x0000000000000000        0x8 ./gemm_TA.o
 .group         0x0000000000000000        0x8 ./gemm_TA.o
 .group         0x0000000000000000        0x8 ./gemm_TA.o
 .group         0x0000000000000000        0x8 ./gemm_TA.o
 .group         0x0000000000000000        0x8 ./gemm_TA.o
 .group         0x0000000000000000        0x8 ./gemm_TA.o
 .group         0x0000000000000000        0x8 ./gemm_TA.o
 .group         0x0000000000000000        0x8 ./gemm_TA.o
 .debug_macro   0x0000000000000000      0x16d ./gemm_TA.o
 .debug_macro   0x0000000000000000       0x58 ./gemm_TA.o
 .debug_macro   0x0000000000000000       0xcd ./gemm_TA.o
 .debug_macro   0x0000000000000000       0x7c ./gemm_TA.o
 .debug_macro   0x0000000000000000      0x184 ./gemm_TA.o
 .debug_macro   0x0000000000000000       0xc4 ./gemm_TA.o
 .debug_macro   0x0000000000000000       0x22 ./gemm_TA.o
 .debug_macro   0x0000000000000000       0x22 ./gemm_TA.o
 .debug_macro   0x0000000000000000       0x16 ./gemm_TA.o
 .debug_macro   0x0000000000000000       0x2e ./gemm_TA.o
 .group         0x0000000000000000        0x8 ./maxpool_layer_TA.o
 .group         0x0000000000000000        0x8 ./maxpool_layer_TA.o
 .group         0x0000000000000000        0x8 ./maxpool_layer_TA.o
 .group         0x0000000000000000        0x8 ./maxpool_layer_TA.o
 .group         0x0000000000000000        0x8 ./maxpool_layer_TA.o
 .group         0x0000000000000000        0x8 ./maxpool_layer_TA.o
 .group         0x0000000000000000        0x8 ./maxpool_layer_TA.o
 .group         0x0000000000000000        0x8 ./maxpool_layer_TA.o
 .group         0x0000000000000000        0x8 ./maxpool_layer_TA.o
 .group         0x0000000000000000        0x8 ./maxpool_layer_TA.o
 .group         0x0000000000000000        0x8 ./maxpool_layer_TA.o
 .group         0x0000000000000000        0x8 ./maxpool_layer_TA.o
 .group         0x0000000000000000        0x8 ./maxpool_layer_TA.o
 .group         0x0000000000000000        0x8 ./maxpool_layer_TA.o
 .group         0x0000000000000000        0x8 ./maxpool_layer_TA.o
 .group         0x0000000000000000        0x8 ./maxpool_layer_TA.o
 .group         0x0000000000000000        0x8 ./maxpool_layer_TA.o
 .debug_macro   0x0000000000000000       0xcd ./maxpool_layer_TA.o
 .debug_macro   0x0000000000000000      0x16d ./maxpool_layer_TA.o
 .debug_macro   0x0000000000000000       0x7c ./maxpool_layer_TA.o
 .debug_macro   0x0000000000000000      0x184 ./maxpool_layer_TA.o
 .debug_macro   0x0000000000000000       0xc4 ./maxpool_layer_TA.o
 .debug_macro   0x0000000000000000       0x22 ./maxpool_layer_TA.o
 .debug_macro   0x0000000000000000       0x22 ./maxpool_layer_TA.o
 .debug_macro   0x0000000000000000       0x58 ./maxpool_layer_TA.o
 .debug_macro   0x0000000000000000       0x16 ./maxpool_layer_TA.o
 .debug_macro   0x0000000000000000       0x2e ./maxpool_layer_TA.o
 .debug_macro   0x0000000000000000      0x8ef ./maxpool_layer_TA.o
 .debug_macro   0x0000000000000000       0x35 ./maxpool_layer_TA.o
 .debug_macro   0x0000000000000000       0x34 ./maxpool_layer_TA.o
 .debug_macro   0x0000000000000000       0x94 ./maxpool_layer_TA.o
 .debug_macro   0x0000000000000000       0x10 ./maxpool_layer_TA.o
 .debug_macro   0x0000000000000000       0xca ./maxpool_layer_TA.o
 .group         0x0000000000000000        0x8 ./network_TA.o
 .group         0x0000000000000000        0x8 ./network_TA.o
 .group         0x0000000000000000        0x8 ./network_TA.o
 .group         0x0000000000000000        0x8 ./network_TA.o
 .group         0x0000000000000000        0x8 ./network_TA.o
 .group         0x0000000000000000        0x8 ./network_TA.o
 .group         0x0000000000000000        0x8 ./network_TA.o
 .group         0x0000000000000000        0x8 ./network_TA.o
 .group         0x0000000000000000        0x8 ./network_TA.o
 .group         0x0000000000000000        0x8 ./network_TA.o
 .group         0x0000000000000000        0x8 ./network_TA.o
 .group         0x0000000000000000        0x8 ./network_TA.o
 .group         0x0000000000000000        0x8 ./network_TA.o
 .group         0x0000000000000000        0x8 ./network_TA.o
 .group         0x0000000000000000        0x8 ./network_TA.o
 .group         0x0000000000000000        0x8 ./network_TA.o
 .group         0x0000000000000000        0x8 ./network_TA.o
 .group         0x0000000000000000        0x8 ./network_TA.o
 .group         0x0000000000000000        0x8 ./network_TA.o
 .debug_macro   0x0000000000000000      0x16d ./network_TA.o
 .debug_macro   0x0000000000000000       0x58 ./network_TA.o
 .debug_macro   0x0000000000000000       0xcd ./network_TA.o
 .debug_macro   0x0000000000000000       0x7c ./network_TA.o
 .debug_macro   0x0000000000000000      0x184 ./network_TA.o
 .debug_macro   0x0000000000000000       0xc4 ./network_TA.o
 .debug_macro   0x0000000000000000       0x22 ./network_TA.o
 .debug_macro   0x0000000000000000       0x22 ./network_TA.o
 .debug_macro   0x0000000000000000       0x16 ./network_TA.o
 .debug_macro   0x0000000000000000       0x10 ./network_TA.o
 .debug_macro   0x0000000000000000       0x2e ./network_TA.o
 .debug_macro   0x0000000000000000       0x88 ./network_TA.o
 .debug_macro   0x0000000000000000      0x8ef ./network_TA.o
 .debug_macro   0x0000000000000000       0x35 ./network_TA.o
 .debug_macro   0x0000000000000000       0x34 ./network_TA.o
 .debug_macro   0x0000000000000000       0x94 ./network_TA.o
 .debug_macro   0x0000000000000000       0x10 ./network_TA.o
 .debug_macro   0x0000000000000000       0xca ./network_TA.o
 .group         0x0000000000000000        0x8 ./aes_TA.o
 .group         0x0000000000000000        0x8 ./aes_TA.o
 .group         0x0000000000000000        0x8 ./aes_TA.o
 .group         0x0000000000000000        0x8 ./aes_TA.o
 .group         0x0000000000000000        0x8 ./aes_TA.o
 .group         0x0000000000000000        0x8 ./aes_TA.o
 .debug_macro   0x0000000000000000       0x7c ./aes_TA.o
 .debug_macro   0x0000000000000000      0x184 ./aes_TA.o
 .debug_macro   0x0000000000000000      0x16d ./aes_TA.o
 .debug_macro   0x0000000000000000       0x16 ./aes_TA.o
 .debug_macro   0x0000000000000000       0x2e ./aes_TA.o
 .group         0x0000000000000000        0x8 ./cost_layer_TA.o
 .group         0x0000000000000000        0x8 ./cost_layer_TA.o
 .group         0x0000000000000000        0x8 ./cost_layer_TA.o
 .group         0x0000000000000000        0x8 ./cost_layer_TA.o
 .group         0x0000000000000000        0x8 ./cost_layer_TA.o
 .group         0x0000000000000000        0x8 ./cost_layer_TA.o
 .group         0x0000000000000000        0x8 ./cost_layer_TA.o
 .group         0x0000000000000000        0x8 ./cost_layer_TA.o
 .group         0x0000000000000000        0x8 ./cost_layer_TA.o
 .group         0x0000000000000000        0x8 ./cost_layer_TA.o
 .group         0x0000000000000000        0x8 ./cost_layer_TA.o
 .group         0x0000000000000000        0x8 ./cost_layer_TA.o
 .group         0x0000000000000000        0x8 ./cost_layer_TA.o
 .group         0x0000000000000000        0x8 ./cost_layer_TA.o
 .group         0x0000000000000000        0x8 ./cost_layer_TA.o
 .group         0x0000000000000000        0x8 ./cost_layer_TA.o
 .group         0x0000000000000000        0x8 ./cost_layer_TA.o
 .debug_macro   0x0000000000000000       0xcd ./cost_layer_TA.o
 .debug_macro   0x0000000000000000      0x16d ./cost_layer_TA.o
 .debug_macro   0x0000000000000000       0x7c ./cost_layer_TA.o
 .debug_macro   0x0000000000000000      0x184 ./cost_layer_TA.o
 .debug_macro   0x0000000000000000       0xc4 ./cost_layer_TA.o
 .debug_macro   0x0000000000000000       0x22 ./cost_layer_TA.o
 .debug_macro   0x0000000000000000       0x22 ./cost_layer_TA.o
 .debug_macro   0x0000000000000000       0x58 ./cost_layer_TA.o
 .debug_macro   0x0000000000000000       0x16 ./cost_layer_TA.o
 .debug_macro   0x0000000000000000       0x2e ./cost_layer_TA.o
 .debug_macro   0x0000000000000000      0x8ef ./cost_layer_TA.o
 .debug_macro   0x0000000000000000       0x35 ./cost_layer_TA.o
 .debug_macro   0x0000000000000000       0x34 ./cost_layer_TA.o
 .debug_macro   0x0000000000000000       0x94 ./cost_layer_TA.o
 .debug_macro   0x0000000000000000       0x10 ./cost_layer_TA.o
 .debug_macro   0x0000000000000000       0xca ./cost_layer_TA.o
 .group         0x0000000000000000        0x8 ./im2col_TA.o
 .group         0x0000000000000000        0x8 ./im2col_TA.o
 .group         0x0000000000000000        0x8 ./im2col_TA.o
 .debug_macro   0x0000000000000000      0x16d ./im2col_TA.o
 .debug_macro   0x0000000000000000       0x58 ./im2col_TA.o
 .group         0x0000000000000000        0x8 ./batchnorm_layer_TA.o
 .group         0x0000000000000000        0x8 ./batchnorm_layer_TA.o
 .group         0x0000000000000000        0x8 ./batchnorm_layer_TA.o
 .group         0x0000000000000000        0x8 ./batchnorm_layer_TA.o
 .group         0x0000000000000000        0x8 ./batchnorm_layer_TA.o
 .group         0x0000000000000000        0x8 ./batchnorm_layer_TA.o
 .group         0x0000000000000000        0x8 ./batchnorm_layer_TA.o
 .group         0x0000000000000000        0x8 ./batchnorm_layer_TA.o
 .group         0x0000000000000000        0x8 ./batchnorm_layer_TA.o
 .group         0x0000000000000000        0x8 ./batchnorm_layer_TA.o
 .group         0x0000000000000000        0x8 ./batchnorm_layer_TA.o
 .debug_macro   0x0000000000000000       0xcd ./batchnorm_layer_TA.o
 .debug_macro   0x0000000000000000      0x16d ./batchnorm_layer_TA.o
 .debug_macro   0x0000000000000000       0x7c ./batchnorm_layer_TA.o
 .debug_macro   0x0000000000000000      0x184 ./batchnorm_layer_TA.o
 .debug_macro   0x0000000000000000       0xc4 ./batchnorm_layer_TA.o
 .debug_macro   0x0000000000000000       0x22 ./batchnorm_layer_TA.o
 .debug_macro   0x0000000000000000       0x22 ./batchnorm_layer_TA.o
 .debug_macro   0x0000000000000000       0x58 ./batchnorm_layer_TA.o
 .debug_macro   0x0000000000000000       0x16 ./batchnorm_layer_TA.o
 .debug_macro   0x0000000000000000       0x2e ./batchnorm_layer_TA.o
 .group         0x0000000000000000        0x8 ./dropout_layer_TA.o
 .group         0x0000000000000000        0x8 ./dropout_layer_TA.o
 .group         0x0000000000000000        0x8 ./dropout_layer_TA.o
 .group         0x0000000000000000        0x8 ./dropout_layer_TA.o
 .group         0x0000000000000000        0x8 ./dropout_layer_TA.o
 .group         0x0000000000000000        0x8 ./dropout_layer_TA.o
 .group         0x0000000000000000        0x8 ./dropout_layer_TA.o
 .group         0x0000000000000000        0x8 ./dropout_layer_TA.o
 .group         0x0000000000000000        0x8 ./dropout_layer_TA.o
 .group         0x0000000000000000        0x8 ./dropout_layer_TA.o
 .group         0x0000000000000000        0x8 ./dropout_layer_TA.o
 .group         0x0000000000000000        0x8 ./dropout_layer_TA.o
 .group         0x0000000000000000        0x8 ./dropout_layer_TA.o
 .group         0x0000000000000000        0x8 ./dropout_layer_TA.o
 .group         0x0000000000000000        0x8 ./dropout_layer_TA.o
 .group         0x0000000000000000        0x8 ./dropout_layer_TA.o
 .group         0x0000000000000000        0x8 ./dropout_layer_TA.o
 .debug_macro   0x0000000000000000       0xcd ./dropout_layer_TA.o
 .debug_macro   0x0000000000000000      0x16d ./dropout_layer_TA.o
 .debug_macro   0x0000000000000000       0x7c ./dropout_layer_TA.o
 .debug_macro   0x0000000000000000      0x184 ./dropout_layer_TA.o
 .debug_macro   0x0000000000000000       0xc4 ./dropout_layer_TA.o
 .debug_macro   0x0000000000000000       0x22 ./dropout_layer_TA.o
 .debug_macro   0x0000000000000000       0x22 ./dropout_layer_TA.o
 .debug_macro   0x0000000000000000       0x58 ./dropout_layer_TA.o
 .debug_macro   0x0000000000000000       0x16 ./dropout_layer_TA.o
 .debug_macro   0x0000000000000000       0x2e ./dropout_layer_TA.o
 .debug_macro   0x0000000000000000      0x8ef ./dropout_layer_TA.o
 .debug_macro   0x0000000000000000       0x35 ./dropout_layer_TA.o
 .debug_macro   0x0000000000000000       0x34 ./dropout_layer_TA.o
 .debug_macro   0x0000000000000000       0x94 ./dropout_layer_TA.o
 .debug_macro   0x0000000000000000       0x10 ./dropout_layer_TA.o
 .debug_macro   0x0000000000000000       0xca ./dropout_layer_TA.o
 .group         0x0000000000000000        0x8 ./convolutional_layer_TA.o
 .group         0x0000000000000000        0x8 ./convolutional_layer_TA.o
 .group         0x0000000000000000        0x8 ./convolutional_layer_TA.o
 .group         0x0000000000000000        0x8 ./convolutional_layer_TA.o
 .group         0x0000000000000000        0x8 ./convolutional_layer_TA.o
 .group         0x0000000000000000        0x8 ./convolutional_layer_TA.o
 .group         0x0000000000000000        0x8 ./convolutional_layer_TA.o
 .group         0x0000000000000000        0x8 ./convolutional_layer_TA.o
 .group         0x0000000000000000        0x8 ./convolutional_layer_TA.o
 .group         0x0000000000000000        0x8 ./convolutional_layer_TA.o
 .group         0x0000000000000000        0x8 ./convolutional_layer_TA.o
 .group         0x0000000000000000        0x8 ./convolutional_layer_TA.o
 .group         0x0000000000000000        0x8 ./convolutional_layer_TA.o
 .group         0x0000000000000000        0x8 ./convolutional_layer_TA.o
 .group         0x0000000000000000        0x8 ./convolutional_layer_TA.o
 .group         0x0000000000000000        0x8 ./convolutional_layer_TA.o
 .group         0x0000000000000000        0x8 ./convolutional_layer_TA.o
 .debug_macro   0x0000000000000000       0xcd ./convolutional_layer_TA.o
 .debug_macro   0x0000000000000000      0x16d ./convolutional_layer_TA.o
 .debug_macro   0x0000000000000000       0x7c ./convolutional_layer_TA.o
 .debug_macro   0x0000000000000000      0x184 ./convolutional_layer_TA.o
 .debug_macro   0x0000000000000000       0xc4 ./convolutional_layer_TA.o
 .debug_macro   0x0000000000000000       0x22 ./convolutional_layer_TA.o
 .debug_macro   0x0000000000000000       0x22 ./convolutional_layer_TA.o
 .debug_macro   0x0000000000000000       0x58 ./convolutional_layer_TA.o
 .debug_macro   0x0000000000000000       0x16 ./convolutional_layer_TA.o
 .debug_macro   0x0000000000000000       0x2e ./convolutional_layer_TA.o
 .debug_macro   0x0000000000000000      0x8ef ./convolutional_layer_TA.o
 .debug_macro   0x0000000000000000       0x35 ./convolutional_layer_TA.o
 .debug_macro   0x0000000000000000       0x34 ./convolutional_layer_TA.o
 .debug_macro   0x0000000000000000       0x94 ./convolutional_layer_TA.o
 .debug_macro   0x0000000000000000       0x10 ./convolutional_layer_TA.o
 .debug_macro   0x0000000000000000       0xca ./convolutional_layer_TA.o
 .group         0x0000000000000000        0x8 ./avgpool_layer_TA.o
 .group         0x0000000000000000        0x8 ./avgpool_layer_TA.o
 .group         0x0000000000000000        0x8 ./avgpool_layer_TA.o
 .group         0x0000000000000000        0x8 ./avgpool_layer_TA.o
 .group         0x0000000000000000        0x8 ./avgpool_layer_TA.o
 .group         0x0000000000000000        0x8 ./avgpool_layer_TA.o
 .group         0x0000000000000000        0x8 ./avgpool_layer_TA.o
 .group         0x0000000000000000        0x8 ./avgpool_layer_TA.o
 .group         0x0000000000000000        0x8 ./avgpool_layer_TA.o
 .group         0x0000000000000000        0x8 ./avgpool_layer_TA.o
 .group         0x0000000000000000        0x8 ./avgpool_layer_TA.o
 .group         0x0000000000000000        0x8 ./avgpool_layer_TA.o
 .group         0x0000000000000000        0x8 ./avgpool_layer_TA.o
 .group         0x0000000000000000        0x8 ./avgpool_layer_TA.o
 .group         0x0000000000000000        0x8 ./avgpool_layer_TA.o
 .group         0x0000000000000000        0x8 ./avgpool_layer_TA.o
 .group         0x0000000000000000        0x8 ./avgpool_layer_TA.o
 .debug_macro   0x0000000000000000       0xcd ./avgpool_layer_TA.o
 .debug_macro   0x0000000000000000      0x16d ./avgpool_layer_TA.o
 .debug_macro   0x0000000000000000       0x7c ./avgpool_layer_TA.o
 .debug_macro   0x0000000000000000      0x184 ./avgpool_layer_TA.o
 .debug_macro   0x0000000000000000       0xc4 ./avgpool_layer_TA.o
 .debug_macro   0x0000000000000000       0x22 ./avgpool_layer_TA.o
 .debug_macro   0x0000000000000000       0x22 ./avgpool_layer_TA.o
 .debug_macro   0x0000000000000000       0x58 ./avgpool_layer_TA.o
 .debug_macro   0x0000000000000000       0x16 ./avgpool_layer_TA.o
 .debug_macro   0x0000000000000000       0x2e ./avgpool_layer_TA.o
 .debug_macro   0x0000000000000000      0x8ef ./avgpool_layer_TA.o
 .debug_macro   0x0000000000000000       0x35 ./avgpool_layer_TA.o
 .debug_macro   0x0000000000000000       0x34 ./avgpool_layer_TA.o
 .debug_macro   0x0000000000000000       0x94 ./avgpool_layer_TA.o
 .debug_macro   0x0000000000000000       0x10 ./avgpool_layer_TA.o
 .debug_macro   0x0000000000000000       0xca ./avgpool_layer_TA.o
 .group         0x0000000000000000        0x8 ./utils_TA.o
 .group         0x0000000000000000        0x8 ./utils_TA.o
 .group         0x0000000000000000        0x8 ./utils_TA.o
 .group         0x0000000000000000        0x8 ./utils_TA.o
 .group         0x0000000000000000        0x8 ./utils_TA.o
 .group         0x0000000000000000        0x8 ./utils_TA.o
 .group         0x0000000000000000        0x8 ./utils_TA.o
 .group         0x0000000000000000        0x8 ./utils_TA.o
 .group         0x0000000000000000        0x8 ./utils_TA.o
 .group         0x0000000000000000        0x8 ./utils_TA.o
 .group         0x0000000000000000        0x8 ./utils_TA.o
 .group         0x0000000000000000        0x8 ./utils_TA.o
 .debug_macro   0x0000000000000000      0x16d ./utils_TA.o
 .debug_macro   0x0000000000000000       0x58 ./utils_TA.o
 .debug_macro   0x0000000000000000       0xcd ./utils_TA.o
 .debug_macro   0x0000000000000000       0x7c ./utils_TA.o
 .debug_macro   0x0000000000000000      0x184 ./utils_TA.o
 .debug_macro   0x0000000000000000       0xc4 ./utils_TA.o
 .debug_macro   0x0000000000000000       0x22 ./utils_TA.o
 .debug_macro   0x0000000000000000       0x22 ./utils_TA.o
 .debug_macro   0x0000000000000000       0x16 ./utils_TA.o
 .debug_macro   0x0000000000000000       0x10 ./utils_TA.o
 .debug_macro   0x0000000000000000       0x2e ./utils_TA.o
 .group         0x0000000000000000        0x8 ./diffprivate_TA.o
 .group         0x0000000000000000        0x8 ./diffprivate_TA.o
 .group         0x0000000000000000        0x8 ./diffprivate_TA.o
 .group         0x0000000000000000        0x8 ./diffprivate_TA.o
 .group         0x0000000000000000        0x8 ./diffprivate_TA.o
 .group         0x0000000000000000        0x8 ./diffprivate_TA.o
 .group         0x0000000000000000        0x8 ./diffprivate_TA.o
 .group         0x0000000000000000        0x8 ./diffprivate_TA.o
 .group         0x0000000000000000        0x8 ./diffprivate_TA.o
 .group         0x0000000000000000        0x8 ./diffprivate_TA.o
 .group         0x0000000000000000        0x8 ./diffprivate_TA.o
 .debug_macro   0x0000000000000000       0x2e ./diffprivate_TA.o
 .debug_macro   0x0000000000000000      0x16d ./diffprivate_TA.o
 .debug_macro   0x0000000000000000       0x58 ./diffprivate_TA.o
 .debug_macro   0x0000000000000000       0xcd ./diffprivate_TA.o
 .debug_macro   0x0000000000000000       0x7c ./diffprivate_TA.o
 .debug_macro   0x0000000000000000      0x184 ./diffprivate_TA.o
 .debug_macro   0x0000000000000000       0xc4 ./diffprivate_TA.o
 .debug_macro   0x0000000000000000       0x22 ./diffprivate_TA.o
 .debug_macro   0x0000000000000000       0x22 ./diffprivate_TA.o
 .debug_macro   0x0000000000000000       0x16 ./diffprivate_TA.o
 .group         0x0000000000000000        0x8 ./user_ta_header.o
 .group         0x0000000000000000        0x8 ./user_ta_header.o
 .group         0x0000000000000000        0x8 ./user_ta_header.o
 .group         0x0000000000000000        0x8 ./user_ta_header.o
 .group         0x0000000000000000        0x8 ./user_ta_header.o
 .group         0x0000000000000000        0x8 ./user_ta_header.o
 .group         0x0000000000000000        0x8 ./user_ta_header.o
 .group         0x0000000000000000        0x8 ./user_ta_header.o
 .group         0x0000000000000000        0x8 ./user_ta_header.o
 .group         0x0000000000000000        0x8 ./user_ta_header.o
 .group         0x0000000000000000        0x8 ./user_ta_header.o
 .group         0x0000000000000000        0x8 ./user_ta_header.o
 .group         0x0000000000000000        0x8 ./user_ta_header.o
 .group         0x0000000000000000        0x8 ./user_ta_header.o
 .group         0x0000000000000000        0x8 ./user_ta_header.o
 .group         0x0000000000000000        0x8 ./user_ta_header.o
 .group         0x0000000000000000        0x8 ./user_ta_header.o
 .group         0x0000000000000000        0x8 ./user_ta_header.o
 .group         0x0000000000000000        0x8 ./user_ta_header.o
 .debug_macro   0x0000000000000000       0xcd ./user_ta_header.o
 .debug_macro   0x0000000000000000      0x8ef ./user_ta_header.o
 .debug_macro   0x0000000000000000       0x7c ./user_ta_header.o
 .debug_macro   0x0000000000000000      0x184 ./user_ta_header.o
 .debug_macro   0x0000000000000000       0xc4 ./user_ta_header.o
 .debug_macro   0x0000000000000000       0x22 ./user_ta_header.o
 .debug_macro   0x0000000000000000      0x16d ./user_ta_header.o
 .debug_macro   0x0000000000000000       0x35 ./user_ta_header.o
 .debug_macro   0x0000000000000000       0x34 ./user_ta_header.o
 .debug_macro   0x0000000000000000       0x94 ./user_ta_header.o
 .debug_macro   0x0000000000000000       0x58 ./user_ta_header.o
 .debug_macro   0x0000000000000000       0xca ./user_ta_header.o
 .debug_macro   0x0000000000000000       0x22 ./user_ta_header.o
 .debug_macro   0x0000000000000000       0x16 ./user_ta_header.o
 .debug_macro   0x0000000000000000       0x88 ./user_ta_header.o
 .group         0x0000000000000000        0x8 /workspace/optee_os/out/arm/export-ta_arm32/lib/libutils.a(bget_malloc.o)
 .group         0x0000000000000000        0x8 /workspace/optee_os/out/arm/export-ta_arm32/lib/libutils.a(bget_malloc.o)
 .group         0x0000000000000000        0x8 /workspace/optee_os/out/arm/export-ta_arm32/lib/libutils.a(bget_malloc.o)
 .group         0x0000000000000000        0x8 /workspace/optee_os/out/arm/export-ta_arm32/lib/libutils.a(bget_malloc.o)
 .group         0x0000000000000000        0x8 /workspace/optee_os/out/arm/export-ta_arm32/lib/libutils.a(bget_malloc.o)
 .group         0x0000000000000000        0x8 /workspace/optee_os/out/arm/export-ta_arm32/lib/libutils.a(bget_malloc.o)
 .group         0x0000000000000000        0x8 /workspace/optee_os/out/arm/export-ta_arm32/lib/libutils.a(bget_malloc.o)
 .group         0x0000000000000000        0x8 /workspace/optee_os/out/arm/export-ta_arm32/lib/libutils.a(bget_malloc.o)
 .group         0x0000000000000000        0x8 /workspace/optee_os/out/arm/export-ta_arm32/lib/libutils.a(bget_malloc.o)
 .group         0x0000000000000000        0x8 /workspace/optee_os/out/arm/export-ta_arm32/lib/libutils.a(bget_malloc.o)
 .group         0x0000000000000000        0x8 /workspace/optee_os/out/arm/export-ta_arm32/lib/libutils.a(bget_malloc.o)
 .group         0x0000000000000000        0x8 /workspace/optee_os/out/arm/export-ta_arm32/lib/libutils.a(bget_malloc.o)
 .group         0x0000000000000000        0x8 /workspace/optee_os/out/arm/export-ta_arm32/lib/libutils.a(bget_malloc.o)
 .group         0x0000000000000000        0x8 /workspace/optee_os/out/arm/export-ta_arm32/lib/libutils.a(bget_malloc.o)
 .group         0x0000000000000000        0x8 /workspace/optee_os/out/arm/export-ta_arm32/lib/libutils.a(bget_malloc.o)
 .group         0x0000000000000000        0x8 /workspace/optee_os/out/arm/export-ta_arm32/lib/libutils.a(bget_malloc.o)
 .group         0x0000000000000000        0x8 /workspace/optee_os/out/arm/export-ta_arm32/lib/libutils.a(bget_malloc.o)
 .debug_macro   0x0000000000000000       0xcd /workspace/optee_os/out/arm/export-ta_arm32/lib/libutils.a(bget_malloc.o)
 .debug_macro   0x0000000000000000      0x16d /workspace/optee_os/out/arm/export-ta_arm32/lib/libutils.a(bget_malloc.o)
 .debug_macro   0x0000000000000000       0x7c /workspace/optee_os/out/arm/export-ta_arm32/lib/libutils.a(bget_malloc.o)
 .debug_macro   0x0000000000000000      0x184 /workspace/optee_os/out/arm/export-ta_arm32/lib/libutils.a(bget_malloc.o)
 .debug_macro   0x0000000000000000       0xc4 /workspace/optee_os/out/arm/export-ta_arm32/lib/libutils.a(bget_malloc.o)
 .debug_macro   0x0000000000000000       0x22 /workspace/optee_os/out/arm/export-ta_arm32/lib/libutils.a(bget_malloc.o)
 .debug_macro   0x0000000000000000       0x22 /workspace/optee_os/out/arm/export-ta_arm32/lib/libutils.a(bget_malloc.o)
 .debug_macro   0x0000000000000000       0x16 /workspace/optee_os/out/arm/export-ta_arm32/lib/libutils.a(bget_malloc.o)
 .debug_macro   0x0000000000000000       0x34 /workspace/optee_os/out/arm/export-ta_arm32/lib/libutils.a(bget_malloc.o)
 .debug_macro   0x0000000000000000       0x94 /workspace/optee_os/out/arm/export-ta_arm32/lib/libutils.a(bget_malloc.o)
 .debug_macro   0x0000000000000000       0xca /workspace/optee_os/out/arm/export-ta_arm32/lib/libutils.a(bget_malloc.o)
 .debug_macro   0x0000000000000000       0x58 /workspace/optee_os/out/arm/export-ta_arm32/lib/libutils.a(bget_malloc.o)
 .group         0x0000000000000000        0x8 /workspace/optee_os/out/arm/export-ta_arm32/lib/libutils.a(memcpy.o)
 .group         0x0000000000000000        0x8 /workspace/optee_os/out/arm/export-ta_arm32/lib/libutils.a(memcpy.o)
 .group         0x0000000000000000        0x8 /workspace/optee_os/out/arm/export-ta_arm32/lib/libutils.a(memcpy.o)
 .group         0x0000000000000000        0x8 /workspace/optee_os/out/arm/export-ta_arm32/lib/libutils.a(memcpy.o)
 .group         0x0000000000000000        0x8 /workspace/optee_os/out/arm/export-ta_arm32/lib/libutils.a(memcpy.o)
 .debug_macro   0x0000000000000000      0x29f /workspace/optee_os/out/arm/export-ta_arm32/lib/libutils.a(memcpy.o)
 .debug_macro   0x0000000000000000      0x16d /workspace/optee_os/out/arm/export-ta_arm32/lib/libutils.a(memcpy.o)
 .debug_macro   0x0000000000000000       0x16 /workspace/optee_os/out/arm/export-ta_arm32/lib/libutils.a(memcpy.o)
 .group         0x0000000000000000        0x8 /workspace/optee_os/out/arm/export-ta_arm32/lib/libutils.a(memset.o)
 .group         0x0000000000000000        0x8 /workspace/optee_os/out/arm/export-ta_arm32/lib/libutils.a(memset.o)
 .group         0x0000000000000000        0x8 /workspace/optee_os/out/arm/export-ta_arm32/lib/libutils.a(memset.o)
 .group         0x0000000000000000        0x8 /workspace/optee_os/out/arm/export-ta_arm32/lib/libutils.a(memset.o)
 .group         0x0000000000000000        0x8 /workspace/optee_os/out/arm/export-ta_arm32/lib/libutils.a(memset.o)
 .debug_macro   0x0000000000000000      0x29f /workspace/optee_os/out/arm/export-ta_arm32/lib/libutils.a(memset.o)
 .debug_macro   0x0000000000000000       0x7c /workspace/optee_os/out/arm/export-ta_arm32/lib/libutils.a(memset.o)
 .debug_macro   0x0000000000000000      0x16d /workspace/optee_os/out/arm/export-ta_arm32/lib/libutils.a(memset.o)
 .debug_macro   0x0000000000000000       0x16 /workspace/optee_os/out/arm/export-ta_arm32/lib/libutils.a(memset.o)
 .group         0x0000000000000000        0x8 /workspace/optee_os/out/arm/export-ta_arm32/lib/libutils.a(strcmp.o)
 .group         0x0000000000000000        0x8 /workspace/optee_os/out/arm/export-ta_arm32/lib/libutils.a(strcmp.o)
 .group         0x0000000000000000        0x8 /workspace/optee_os/out/arm/export-ta_arm32/lib/libutils.a(strcmp.o)
 .group         0x0000000000000000        0x8 /workspace/optee_os/out/arm/export-ta_arm32/lib/libutils.a(strcmp.o)
 .group         0x0000000000000000        0x8 /workspace/optee_os/out/arm/export-ta_arm32/lib/libutils.a(strcmp.o)
 .group         0x0000000000000000        0x8 /workspace/optee_os/out/arm/export-ta_arm32/lib/libutils.a(strcmp.o)
 .debug_macro   0x0000000000000000      0x29f /workspace/optee_os/out/arm/export-ta_arm32/lib/libutils.a(strcmp.o)
 .debug_macro   0x0000000000000000       0x7c /workspace/optee_os/out/arm/export-ta_arm32/lib/libutils.a(strcmp.o)
 .debug_macro   0x0000000000000000      0x16d /workspace/optee_os/out/arm/export-ta_arm32/lib/libutils.a(strcmp.o)
 .debug_macro   0x0000000000000000       0x16 /workspace/optee_os/out/arm/export-ta_arm32/lib/libutils.a(strcmp.o)
 .debug_macro   0x0000000000000000       0x7c /workspace/optee_os/out/arm/export-ta_arm32/lib/libutils.a(strcmp.o)
 .group         0x0000000000000000        0x8 /workspace/optee_os/out/arm/export-ta_arm32/lib/libutils.a(strncmp.o)
 .group         0x0000000000000000        0x8 /workspace/optee_os/out/arm/export-ta_arm32/lib/libutils.a(strncmp.o)
 .group         0x0000000000000000        0x8 /workspace/optee_os/out/arm/export-ta_arm32/lib/libutils.a(strncmp.o)
 .group         0x0000000000000000        0x8 /workspace/optee_os/out/arm/export-ta_arm32/lib/libutils.a(strncmp.o)
 .group         0x0000000000000000        0x8 /workspace/optee_os/out/arm/export-ta_arm32/lib/libutils.a(strncmp.o)
 .group         0x0000000000000000        0x8 /workspace/optee_os/out/arm/export-ta_arm32/lib/libutils.a(strncmp.o)
 .debug_macro   0x0000000000000000      0x29f /workspace/optee_os/out/arm/export-ta_arm32/lib/libutils.a(strncmp.o)
 .debug_macro   0x0000000000000000       0x7c /workspace/optee_os/out/arm/export-ta_arm32/lib/libutils.a(strncmp.o)
 .debug_macro   0x0000000000000000      0x16d /workspace/optee_os/out/arm/export-ta_arm32/lib/libutils.a(strncmp.o)
 .debug_macro   0x0000000000000000       0x16 /workspace/optee_os/out/arm/export-ta_arm32/lib/libutils.a(strncmp.o)
 .debug_macro   0x0000000000000000       0x7c /workspace/optee_os/out/arm/export-ta_arm32/lib/libutils.a(strncmp.o)
 .group         0x0000000000000000        0x8 /workspace/optee_os/out/arm/export-ta_arm32/lib/libutils.a(trace.o)
 .group         0x0000000000000000        0x8 /workspace/optee_os/out/arm/export-ta_arm32/lib/libutils.a(trace.o)
 .group         0x0000000000000000        0x8 /workspace/optee_os/out/arm/export-ta_arm32/lib/libutils.a(trace.o)
 .group         0x0000000000000000        0x8 /workspace/optee_os/out/arm/export-ta_arm32/lib/libutils.a(trace.o)
 .group         0x0000000000000000        0x8 /workspace/optee_os/out/arm/export-ta_arm32/lib/libutils.a(trace.o)
 .group         0x0000000000000000        0x8 /workspace/optee_os/out/arm/export-ta_arm32/lib/libutils.a(trace.o)
 .group         0x0000000000000000        0x8 /workspace/optee_os/out/arm/export-ta_arm32/lib/libutils.a(trace.o)
 .group         0x0000000000000000        0x8 /workspace/optee_os/out/arm/export-ta_arm32/lib/libutils.a(trace.o)
 .group         0x0000000000000000        0x8 /workspace/optee_os/out/arm/export-ta_arm32/lib/libutils.a(trace.o)
 .group         0x0000000000000000        0x8 /workspace/optee_os/out/arm/export-ta_arm32/lib/libutils.a(trace.o)
 .group         0x0000000000000000        0x8 /workspace/optee_os/out/arm/export-ta_arm32/lib/libutils.a(trace.o)
 .group         0x0000000000000000        0x8 /workspace/optee_os/out/arm/export-ta_arm32/lib/libutils.a(trace.o)
 .group         0x0000000000000000        0x8 /workspace/optee_os/out/arm/export-ta_arm32/lib/libutils.a(trace.o)
 .group         0x0000000000000000        0x8 /workspace/optee_os/out/arm/export-ta_arm32/lib/libutils.a(trace.o)
 .debug_macro   0x0000000000000000      0x29f /workspace/optee_os/out/arm/export-ta_arm32/lib/libutils.a(trace.o)
 .debug_macro   0x0000000000000000      0x16d /workspace/optee_os/out/arm/export-ta_arm32/lib/libutils.a(trace.o)
 .debug_macro   0x0000000000000000       0x58 /workspace/optee_os/out/arm/export-ta_arm32/lib/libutils.a(trace.o)
 .debug_macro   0x0000000000000000       0x22 /workspace/optee_os/out/arm/export-ta_arm32/lib/libutils.a(trace.o)
 .debug_macro   0x0000000000000000       0x16 /workspace/optee_os/out/arm/export-ta_arm32/lib/libutils.a(trace.o)
 .debug_macro   0x0000000000000000       0xcd /workspace/optee_os/out/arm/export-ta_arm32/lib/libutils.a(trace.o)
 .debug_macro   0x0000000000000000       0x34 /workspace/optee_os/out/arm/export-ta_arm32/lib/libutils.a(trace.o)
 .debug_macro   0x0000000000000000       0x94 /workspace/optee_os/out/arm/export-ta_arm32/lib/libutils.a(trace.o)
 .debug_macro   0x0000000000000000       0x7c /workspace/optee_os/out/arm/export-ta_arm32/lib/libutils.a(trace.o)
 .debug_macro   0x0000000000000000      0x184 /workspace/optee_os/out/arm/export-ta_arm32/lib/libutils.a(trace.o)
 .debug_macro   0x0000000000000000       0xc4 /workspace/optee_os/out/arm/export-ta_arm32/lib/libutils.a(trace.o)
 .debug_macro   0x0000000000000000       0x22 /workspace/optee_os/out/arm/export-ta_arm32/lib/libutils.a(trace.o)
 .group         0x0000000000000000        0x8 /workspace/optee_os/out/arm/export-ta_arm32/lib/libutils.a(aeabi_unwind.o)
 .group         0x0000000000000000        0x8 /workspace/optee_os/out/arm/export-ta_arm32/lib/libutils.a(aeabi_unwind.o)
 .debug_macro   0x0000000000000000      0x29f /workspace/optee_os/out/arm/export-ta_arm32/lib/libutils.a(aeabi_unwind.o)
 .group         0x0000000000000000        0x8 /workspace/optee_os/out/arm/export-ta_arm32/lib/libutils.a(snprintk.o)
 .group         0x0000000000000000        0x8 /workspace/optee_os/out/arm/export-ta_arm32/lib/libutils.a(snprintk.o)
 .group         0x0000000000000000        0x8 /workspace/optee_os/out/arm/export-ta_arm32/lib/libutils.a(snprintk.o)
 .group         0x0000000000000000        0x8 /workspace/optee_os/out/arm/export-ta_arm32/lib/libutils.a(snprintk.o)
 .group         0x0000000000000000        0x8 /workspace/optee_os/out/arm/export-ta_arm32/lib/libutils.a(snprintk.o)
 .group         0x0000000000000000        0x8 /workspace/optee_os/out/arm/export-ta_arm32/lib/libutils.a(snprintk.o)
 .group         0x0000000000000000        0x8 /workspace/optee_os/out/arm/export-ta_arm32/lib/libutils.a(snprintk.o)
 .group         0x0000000000000000        0x8 /workspace/optee_os/out/arm/export-ta_arm32/lib/libutils.a(snprintk.o)
 .debug_macro   0x0000000000000000      0x29f /workspace/optee_os/out/arm/export-ta_arm32/lib/libutils.a(snprintk.o)
 .debug_macro   0x0000000000000000       0x7c /workspace/optee_os/out/arm/export-ta_arm32/lib/libutils.a(snprintk.o)
 .debug_macro   0x0000000000000000      0x184 /workspace/optee_os/out/arm/export-ta_arm32/lib/libutils.a(snprintk.o)
 .debug_macro   0x0000000000000000      0x16d /workspace/optee_os/out/arm/export-ta_arm32/lib/libutils.a(snprintk.o)
 .debug_macro   0x0000000000000000       0x16 /workspace/optee_os/out/arm/export-ta_arm32/lib/libutils.a(snprintk.o)
 .debug_macro   0x0000000000000000       0x58 /workspace/optee_os/out/arm/export-ta_arm32/lib/libutils.a(snprintk.o)
 .debug_macro   0x0000000000000000       0x22 /workspace/optee_os/out/arm/export-ta_arm32/lib/libutils.a(snprintk.o)
 .group         0x0000000000000000        0x8 /workspace/optee_os/out/arm/export-ta_arm32/lib/libutils.a(memchr.o)
 .group         0x0000000000000000        0x8 /workspace/optee_os/out/arm/export-ta_arm32/lib/libutils.a(memchr.o)
 .group         0x0000000000000000        0x8 /workspace/optee_os/out/arm/export-ta_arm32/lib/libutils.a(memchr.o)
 .group         0x0000000000000000        0x8 /workspace/optee_os/out/arm/export-ta_arm32/lib/libutils.a(memchr.o)
 .group         0x0000000000000000        0x8 /workspace/optee_os/out/arm/export-ta_arm32/lib/libutils.a(memchr.o)
 .group         0x0000000000000000        0x8 /workspace/optee_os/out/arm/export-ta_arm32/lib/libutils.a(memchr.o)
 .debug_macro   0x0000000000000000      0x29f /workspace/optee_os/out/arm/export-ta_arm32/lib/libutils.a(memchr.o)
 .debug_macro   0x0000000000000000       0x7c /workspace/optee_os/out/arm/export-ta_arm32/lib/libutils.a(memchr.o)
 .debug_macro   0x0000000000000000      0x16d /workspace/optee_os/out/arm/export-ta_arm32/lib/libutils.a(memchr.o)
 .debug_macro   0x0000000000000000       0x16 /workspace/optee_os/out/arm/export-ta_arm32/lib/libutils.a(memchr.o)
 .debug_macro   0x0000000000000000       0x7c /workspace/optee_os/out/arm/export-ta_arm32/lib/libutils.a(memchr.o)
 .group         0x0000000000000000        0x8 /workspace/optee_os/out/arm/export-ta_arm32/lib/libutils.a(strlen.o)
 .group         0x0000000000000000        0x8 /workspace/optee_os/out/arm/export-ta_arm32/lib/libutils.a(strlen.o)
 .group         0x0000000000000000        0x8 /workspace/optee_os/out/arm/export-ta_arm32/lib/libutils.a(strlen.o)
 .group         0x0000000000000000        0x8 /workspace/optee_os/out/arm/export-ta_arm32/lib/libutils.a(strlen.o)
 .group         0x0000000000000000        0x8 /workspace/optee_os/out/arm/export-ta_arm32/lib/libutils.a(strlen.o)
 .group         0x0000000000000000        0x8 /workspace/optee_os/out/arm/export-ta_arm32/lib/libutils.a(strlen.o)
 .debug_macro   0x0000000000000000      0x29f /workspace/optee_os/out/arm/export-ta_arm32/lib/libutils.a(strlen.o)
 .debug_macro   0x0000000000000000       0x7c /workspace/optee_os/out/arm/export-ta_arm32/lib/libutils.a(strlen.o)
 .debug_macro   0x0000000000000000      0x16d /workspace/optee_os/out/arm/export-ta_arm32/lib/libutils.a(strlen.o)
 .debug_macro   0x0000000000000000       0x16 /workspace/optee_os/out/arm/export-ta_arm32/lib/libutils.a(strlen.o)
 .debug_macro   0x0000000000000000       0x7c /workspace/optee_os/out/arm/export-ta_arm32/lib/libutils.a(strlen.o)
 .group         0x0000000000000000        0x8 /workspace/optee_os/out/arm/export-ta_arm32/lib/libutils.a(arm32_aeabi_ldivmod.o)
 .group         0x0000000000000000        0x8 /workspace/optee_os/out/arm/export-ta_arm32/lib/libutils.a(arm32_aeabi_ldivmod.o)
 .debug_macro   0x0000000000000000      0x29f /workspace/optee_os/out/arm/export-ta_arm32/lib/libutils.a(arm32_aeabi_ldivmod.o)
 .group         0x0000000000000000        0x8 /workspace/optee_os/out/arm/export-ta_arm32/lib/libutee.a(trace_ext.o)
 .group         0x0000000000000000        0x8 /workspace/optee_os/out/arm/export-ta_arm32/lib/libutee.a(trace_ext.o)
 .group         0x0000000000000000        0x8 /workspace/optee_os/out/arm/export-ta_arm32/lib/libutee.a(trace_ext.o)
 .group         0x0000000000000000        0x8 /workspace/optee_os/out/arm/export-ta_arm32/lib/libutee.a(trace_ext.o)
 .group         0x0000000000000000        0x8 /workspace/optee_os/out/arm/export-ta_arm32/lib/libutee.a(trace_ext.o)
 .group         0x0000000000000000        0x8 /workspace/optee_os/out/arm/export-ta_arm32/lib/libutee.a(trace_ext.o)
 .group         0x0000000000000000        0x8 /workspace/optee_os/out/arm/export-ta_arm32/lib/libutee.a(trace_ext.o)
 .group         0x0000000000000000        0x8 /workspace/optee_os/out/arm/export-ta_arm32/lib/libutee.a(trace_ext.o)
 .group         0x0000000000000000        0x8 /workspace/optee_os/out/arm/export-ta_arm32/lib/libutee.a(trace_ext.o)
 .group         0x0000000000000000        0x8 /workspace/optee_os/out/arm/export-ta_arm32/lib/libutee.a(trace_ext.o)
 .group         0x0000000000000000        0x8 /workspace/optee_os/out/arm/export-ta_arm32/lib/libutee.a(trace_ext.o)
 .group         0x0000000000000000        0x8 /workspace/optee_os/out/arm/export-ta_arm32/lib/libutee.a(trace_ext.o)
 .group         0x0000000000000000        0x8 /workspace/optee_os/out/arm/export-ta_arm32/lib/libutee.a(trace_ext.o)
 .group         0x0000000000000000        0x8 /workspace/optee_os/out/arm/export-ta_arm32/lib/libutee.a(trace_ext.o)
 .group         0x0000000000000000        0x8 /workspace/optee_os/out/arm/export-ta_arm32/lib/libutee.a(trace_ext.o)
 .debug_macro   0x0000000000000000      0x29f /workspace/optee_os/out/arm/export-ta_arm32/lib/libutee.a(trace_ext.o)
 .debug_macro   0x0000000000000000      0x16d /workspace/optee_os/out/arm/export-ta_arm32/lib/libutee.a(trace_ext.o)
 .debug_macro   0x0000000000000000       0x58 /workspace/optee_os/out/arm/export-ta_arm32/lib/libutee.a(trace_ext.o)
 .debug_macro   0x0000000000000000       0x16 /workspace/optee_os/out/arm/export-ta_arm32/lib/libutee.a(trace_ext.o)
 .debug_macro   0x0000000000000000       0x22 /workspace/optee_os/out/arm/export-ta_arm32/lib/libutee.a(trace_ext.o)
 .debug_macro   0x0000000000000000       0xcd /workspace/optee_os/out/arm/export-ta_arm32/lib/libutee.a(trace_ext.o)
 .debug_macro   0x0000000000000000       0x34 /workspace/optee_os/out/arm/export-ta_arm32/lib/libutee.a(trace_ext.o)
 .debug_macro   0x0000000000000000       0x94 /workspace/optee_os/out/arm/export-ta_arm32/lib/libutee.a(trace_ext.o)
 .debug_macro   0x0000000000000000       0x7c /workspace/optee_os/out/arm/export-ta_arm32/lib/libutee.a(trace_ext.o)
 .debug_macro   0x0000000000000000      0x184 /workspace/optee_os/out/arm/export-ta_arm32/lib/libutee.a(trace_ext.o)
 .debug_macro   0x0000000000000000       0xc4 /workspace/optee_os/out/arm/export-ta_arm32/lib/libutee.a(trace_ext.o)
 .debug_macro   0x0000000000000000       0xc4 /workspace/optee_os/out/arm/export-ta_arm32/lib/libutee.a(trace_ext.o)
 .debug_macro   0x0000000000000000      0x8ef /workspace/optee_os/out/arm/export-ta_arm32/lib/libutee.a(trace_ext.o)
 .debug_macro   0x0000000000000000       0x35 /workspace/optee_os/out/arm/export-ta_arm32/lib/libutee.a(trace_ext.o)
 .group         0x0000000000000000        0x8 /workspace/optee_os/out/arm/export-ta_arm32/lib/libutee.a(assert.o)
 .group         0x0000000000000000        0x8 /workspace/optee_os/out/arm/export-ta_arm32/lib/libutee.a(assert.o)
 .group         0x0000000000000000        0x8 /workspace/optee_os/out/arm/export-ta_arm32/lib/libutee.a(assert.o)
 .group         0x0000000000000000        0x8 /workspace/optee_os/out/arm/export-ta_arm32/lib/libutee.a(assert.o)
 .group         0x0000000000000000        0x8 /workspace/optee_os/out/arm/export-ta_arm32/lib/libutee.a(assert.o)
 .group         0x0000000000000000        0x8 /workspace/optee_os/out/arm/export-ta_arm32/lib/libutee.a(assert.o)
 .group         0x0000000000000000        0x8 /workspace/optee_os/out/arm/export-ta_arm32/lib/libutee.a(assert.o)
 .group         0x0000000000000000        0x8 /workspace/optee_os/out/arm/export-ta_arm32/lib/libutee.a(assert.o)
 .group         0x0000000000000000        0x8 /workspace/optee_os/out/arm/export-ta_arm32/lib/libutee.a(assert.o)
 .group         0x0000000000000000        0x8 /workspace/optee_os/out/arm/export-ta_arm32/lib/libutee.a(assert.o)
 .group         0x0000000000000000        0x8 /workspace/optee_os/out/arm/export-ta_arm32/lib/libutee.a(assert.o)
 .group         0x0000000000000000        0x8 /workspace/optee_os/out/arm/export-ta_arm32/lib/libutee.a(assert.o)
 .group         0x0000000000000000        0x8 /workspace/optee_os/out/arm/export-ta_arm32/lib/libutee.a(assert.o)
 .group         0x0000000000000000        0x8 /workspace/optee_os/out/arm/export-ta_arm32/lib/libutee.a(assert.o)
 .group         0x0000000000000000        0x8 /workspace/optee_os/out/arm/export-ta_arm32/lib/libutee.a(assert.o)
 .group         0x0000000000000000        0x8 /workspace/optee_os/out/arm/export-ta_arm32/lib/libutee.a(assert.o)
 .debug_macro   0x0000000000000000      0x29f /workspace/optee_os/out/arm/export-ta_arm32/lib/libutee.a(assert.o)
 .debug_macro   0x0000000000000000       0xcd /workspace/optee_os/out/arm/export-ta_arm32/lib/libutee.a(assert.o)
 .debug_macro   0x0000000000000000       0x22 /workspace/optee_os/out/arm/export-ta_arm32/lib/libutee.a(assert.o)
 .debug_macro   0x0000000000000000      0x16d /workspace/optee_os/out/arm/export-ta_arm32/lib/libutee.a(assert.o)
 .debug_macro   0x0000000000000000       0x34 /workspace/optee_os/out/arm/export-ta_arm32/lib/libutee.a(assert.o)
 .debug_macro   0x0000000000000000       0x94 /workspace/optee_os/out/arm/export-ta_arm32/lib/libutee.a(assert.o)
 .debug_macro   0x0000000000000000       0x10 /workspace/optee_os/out/arm/export-ta_arm32/lib/libutee.a(assert.o)
 .debug_macro   0x0000000000000000      0x8ef /workspace/optee_os/out/arm/export-ta_arm32/lib/libutee.a(assert.o)
 .debug_macro   0x0000000000000000       0x7c /workspace/optee_os/out/arm/export-ta_arm32/lib/libutee.a(assert.o)
 .debug_macro   0x0000000000000000      0x184 /workspace/optee_os/out/arm/export-ta_arm32/lib/libutee.a(assert.o)
 .debug_macro   0x0000000000000000       0xc4 /workspace/optee_os/out/arm/export-ta_arm32/lib/libutee.a(assert.o)
 .debug_macro   0x0000000000000000       0x35 /workspace/optee_os/out/arm/export-ta_arm32/lib/libutee.a(assert.o)
 .debug_macro   0x0000000000000000       0x10 /workspace/optee_os/out/arm/export-ta_arm32/lib/libutee.a(assert.o)
 .debug_macro   0x0000000000000000       0x58 /workspace/optee_os/out/arm/export-ta_arm32/lib/libutee.a(assert.o)
 .debug_macro   0x0000000000000000       0xca /workspace/optee_os/out/arm/export-ta_arm32/lib/libutee.a(assert.o)
 .group         0x0000000000000000        0x8 /workspace/optee_os/out/arm/export-ta_arm32/lib/libutee.a(tee_api_operations.o)
 .group         0x0000000000000000        0x8 /workspace/optee_os/out/arm/export-ta_arm32/lib/libutee.a(tee_api_operations.o)
 .group         0x0000000000000000        0x8 /workspace/optee_os/out/arm/export-ta_arm32/lib/libutee.a(tee_api_operations.o)
 .group         0x0000000000000000        0x8 /workspace/optee_os/out/arm/export-ta_arm32/lib/libutee.a(tee_api_operations.o)
 .group         0x0000000000000000        0x8 /workspace/optee_os/out/arm/export-ta_arm32/lib/libutee.a(tee_api_operations.o)
 .group         0x0000000000000000        0x8 /workspace/optee_os/out/arm/export-ta_arm32/lib/libutee.a(tee_api_operations.o)
 .group         0x0000000000000000        0x8 /workspace/optee_os/out/arm/export-ta_arm32/lib/libutee.a(tee_api_operations.o)
 .group         0x0000000000000000        0x8 /workspace/optee_os/out/arm/export-ta_arm32/lib/libutee.a(tee_api_operations.o)
 .group         0x0000000000000000        0x8 /workspace/optee_os/out/arm/export-ta_arm32/lib/libutee.a(tee_api_operations.o)
 .group         0x0000000000000000        0x8 /workspace/optee_os/out/arm/export-ta_arm32/lib/libutee.a(tee_api_operations.o)
 .group         0x0000000000000000        0x8 /workspace/optee_os/out/arm/export-ta_arm32/lib/libutee.a(tee_api_operations.o)
 .group         0x0000000000000000        0x8 /workspace/optee_os/out/arm/export-ta_arm32/lib/libutee.a(tee_api_operations.o)
 .group         0x0000000000000000        0x8 /workspace/optee_os/out/arm/export-ta_arm32/lib/libutee.a(tee_api_operations.o)
 .group         0x0000000000000000        0x8 /workspace/optee_os/out/arm/export-ta_arm32/lib/libutee.a(tee_api_operations.o)
 .group         0x0000000000000000        0x8 /workspace/optee_os/out/arm/export-ta_arm32/lib/libutee.a(tee_api_operations.o)
 .group         0x0000000000000000        0x8 /workspace/optee_os/out/arm/export-ta_arm32/lib/libutee.a(tee_api_operations.o)
 .group         0x0000000000000000        0x8 /workspace/optee_os/out/arm/export-ta_arm32/lib/libutee.a(tee_api_operations.o)
 .group         0x0000000000000000        0x8 /workspace/optee_os/out/arm/export-ta_arm32/lib/libutee.a(tee_api_operations.o)
 .group         0x0000000000000000        0x8 /workspace/optee_os/out/arm/export-ta_arm32/lib/libutee.a(tee_api_operations.o)
 .debug_macro   0x0000000000000000      0x29f /workspace/optee_os/out/arm/export-ta_arm32/lib/libutee.a(tee_api_operations.o)
 .debug_macro   0x0000000000000000       0xcd /workspace/optee_os/out/arm/export-ta_arm32/lib/libutee.a(tee_api_operations.o)
 .debug_macro   0x0000000000000000      0x16d /workspace/optee_os/out/arm/export-ta_arm32/lib/libutee.a(tee_api_operations.o)
 .debug_macro   0x0000000000000000       0x7c /workspace/optee_os/out/arm/export-ta_arm32/lib/libutee.a(tee_api_operations.o)
 .debug_macro   0x0000000000000000      0x184 /workspace/optee_os/out/arm/export-ta_arm32/lib/libutee.a(tee_api_operations.o)
 .debug_macro   0x0000000000000000       0xc4 /workspace/optee_os/out/arm/export-ta_arm32/lib/libutee.a(tee_api_operations.o)
 .debug_macro   0x0000000000000000       0x22 /workspace/optee_os/out/arm/export-ta_arm32/lib/libutee.a(tee_api_operations.o)
 .debug_macro   0x0000000000000000       0x22 /workspace/optee_os/out/arm/export-ta_arm32/lib/libutee.a(tee_api_operations.o)
 .debug_macro   0x0000000000000000       0x10 /workspace/optee_os/out/arm/export-ta_arm32/lib/libutee.a(tee_api_operations.o)
 .debug_macro   0x0000000000000000       0x16 /workspace/optee_os/out/arm/export-ta_arm32/lib/libutee.a(tee_api_operations.o)
 .debug_macro   0x0000000000000000      0x8ef /workspace/optee_os/out/arm/export-ta_arm32/lib/libutee.a(tee_api_operations.o)
 .debug_macro   0x0000000000000000       0x35 /workspace/optee_os/out/arm/export-ta_arm32/lib/libutee.a(tee_api_operations.o)
 .debug_macro   0x0000000000000000       0x34 /workspace/optee_os/out/arm/export-ta_arm32/lib/libutee.a(tee_api_operations.o)
 .debug_macro   0x0000000000000000       0x94 /workspace/optee_os/out/arm/export-ta_arm32/lib/libutee.a(tee_api_operations.o)
 .debug_macro   0x0000000000000000       0xca /workspace/optee_os/out/arm/export-ta_arm32/lib/libutee.a(tee_api_operations.o)
 .debug_macro   0x0000000000000000       0x58 /workspace/optee_os/out/arm/export-ta_arm32/lib/libutee.a(tee_api_operations.o)
 .debug_macro   0x0000000000000000       0xca /workspace/optee_os/out/arm/export-ta_arm32/lib/libutee.a(tee_api_operations.o)
 .group         0x0000000000000000        0x8 /workspace/optee_os/out/arm/export-ta_arm32/lib/libutee.a(tee_api_panic.o)
 .group         0x0000000000000000        0x8 /workspace/optee_os/out/arm/export-ta_arm32/lib/libutee.a(tee_api_panic.o)
 .group         0x0000000000000000        0x8 /workspace/optee_os/out/arm/export-ta_arm32/lib/libutee.a(tee_api_panic.o)
 .group         0x0000000000000000        0x8 /workspace/optee_os/out/arm/export-ta_arm32/lib/libutee.a(tee_api_panic.o)
 .group         0x0000000000000000        0x8 /workspace/optee_os/out/arm/export-ta_arm32/lib/libutee.a(tee_api_panic.o)
 .group         0x0000000000000000        0x8 /workspace/optee_os/out/arm/export-ta_arm32/lib/libutee.a(tee_api_panic.o)
 .group         0x0000000000000000        0x8 /workspace/optee_os/out/arm/export-ta_arm32/lib/libutee.a(tee_api_panic.o)
 .group         0x0000000000000000        0x8 /workspace/optee_os/out/arm/export-ta_arm32/lib/libutee.a(tee_api_panic.o)
 .group         0x0000000000000000        0x8 /workspace/optee_os/out/arm/export-ta_arm32/lib/libutee.a(tee_api_panic.o)
 .group         0x0000000000000000        0x8 /workspace/optee_os/out/arm/export-ta_arm32/lib/libutee.a(tee_api_panic.o)
 .group         0x0000000000000000        0x8 /workspace/optee_os/out/arm/export-ta_arm32/lib/libutee.a(tee_api_panic.o)
 .group         0x0000000000000000        0x8 /workspace/optee_os/out/arm/export-ta_arm32/lib/libutee.a(tee_api_panic.o)
 .debug_macro   0x0000000000000000      0x29f /workspace/optee_os/out/arm/export-ta_arm32/lib/libutee.a(tee_api_panic.o)
 .debug_macro   0x0000000000000000      0x16d /workspace/optee_os/out/arm/export-ta_arm32/lib/libutee.a(tee_api_panic.o)
 .debug_macro   0x0000000000000000       0xcd /workspace/optee_os/out/arm/export-ta_arm32/lib/libutee.a(tee_api_panic.o)
 .debug_macro   0x0000000000000000      0x8ef /workspace/optee_os/out/arm/export-ta_arm32/lib/libutee.a(tee_api_panic.o)
 .debug_macro   0x0000000000000000       0x7c /workspace/optee_os/out/arm/export-ta_arm32/lib/libutee.a(tee_api_panic.o)
 .debug_macro   0x0000000000000000      0x184 /workspace/optee_os/out/arm/export-ta_arm32/lib/libutee.a(tee_api_panic.o)
 .debug_macro   0x0000000000000000       0xc4 /workspace/optee_os/out/arm/export-ta_arm32/lib/libutee.a(tee_api_panic.o)
 .debug_macro   0x0000000000000000       0x22 /workspace/optee_os/out/arm/export-ta_arm32/lib/libutee.a(tee_api_panic.o)
 .debug_macro   0x0000000000000000       0x35 /workspace/optee_os/out/arm/export-ta_arm32/lib/libutee.a(tee_api_panic.o)
 .debug_macro   0x0000000000000000       0x34 /workspace/optee_os/out/arm/export-ta_arm32/lib/libutee.a(tee_api_panic.o)
 .debug_macro   0x0000000000000000       0x94 /workspace/optee_os/out/arm/export-ta_arm32/lib/libutee.a(tee_api_panic.o)
 .group         0x0000000000000000        0x8 /workspace/optee_os/out/arm/export-ta_arm32/lib/libutee.a(user_ta_entry.o)
 .group         0x0000000000000000        0x8 /workspace/optee_os/out/arm/export-ta_arm32/lib/libutee.a(user_ta_entry.o)
 .group         0x0000000000000000        0x8 /workspace/optee_os/out/arm/export-ta_arm32/lib/libutee.a(user_ta_entry.o)
 .group         0x0000000000000000        0x8 /workspace/optee_os/out/arm/export-ta_arm32/lib/libutee.a(user_ta_entry.o)
 .group         0x0000000000000000        0x8 /workspace/optee_os/out/arm/export-ta_arm32/lib/libutee.a(user_ta_entry.o)
 .group         0x0000000000000000        0x8 /workspace/optee_os/out/arm/export-ta_arm32/lib/libutee.a(user_ta_entry.o)
 .group         0x0000000000000000        0x8 /workspace/optee_os/out/arm/export-ta_arm32/lib/libutee.a(user_ta_entry.o)
 .group         0x0000000000000000        0x8 /workspace/optee_os/out/arm/export-ta_arm32/lib/libutee.a(user_ta_entry.o)
 .group         0x0000000000000000        0x8 /workspace/optee_os/out/arm/export-ta_arm32/lib/libutee.a(user_ta_entry.o)
 .group         0x0000000000000000        0x8 /workspace/optee_os/out/arm/export-ta_arm32/lib/libutee.a(user_ta_entry.o)
 .group         0x0000000000000000        0x8 /workspace/optee_os/out/arm/export-ta_arm32/lib/libutee.a(user_ta_entry.o)
 .group         0x0000000000000000        0x8 /workspace/optee_os/out/arm/export-ta_arm32/lib/libutee.a(user_ta_entry.o)
 .group         0x0000000000000000        0x8 /workspace/optee_os/out/arm/export-ta_arm32/lib/libutee.a(user_ta_entry.o)
 .group         0x0000000000000000        0x8 /workspace/optee_os/out/arm/export-ta_arm32/lib/libutee.a(user_ta_entry.o)
 .group         0x0000000000000000        0x8 /workspace/optee_os/out/arm/export-ta_arm32/lib/libutee.a(user_ta_entry.o)
 .group         0x0000000000000000        0x8 /workspace/optee_os/out/arm/export-ta_arm32/lib/libutee.a(user_ta_entry.o)
 .group         0x0000000000000000        0x8 /workspace/optee_os/out/arm/export-ta_arm32/lib/libutee.a(user_ta_entry.o)
 .group         0x0000000000000000        0x8 /workspace/optee_os/out/arm/export-ta_arm32/lib/libutee.a(user_ta_entry.o)
 .group         0x0000000000000000        0x8 /workspace/optee_os/out/arm/export-ta_arm32/lib/libutee.a(user_ta_entry.o)
 .group         0x0000000000000000        0x8 /workspace/optee_os/out/arm/export-ta_arm32/lib/libutee.a(user_ta_entry.o)
 .group         0x0000000000000000        0x8 /workspace/optee_os/out/arm/export-ta_arm32/lib/libutee.a(user_ta_entry.o)
 .group         0x0000000000000000        0x8 /workspace/optee_os/out/arm/export-ta_arm32/lib/libutee.a(user_ta_entry.o)
 .debug_macro   0x0000000000000000      0x29f /workspace/optee_os/out/arm/export-ta_arm32/lib/libutee.a(user_ta_entry.o)
 .debug_macro   0x0000000000000000       0xcd /workspace/optee_os/out/arm/export-ta_arm32/lib/libutee.a(user_ta_entry.o)
 .debug_macro   0x0000000000000000       0x22 /workspace/optee_os/out/arm/export-ta_arm32/lib/libutee.a(user_ta_entry.o)
 .debug_macro   0x0000000000000000      0x16d /workspace/optee_os/out/arm/export-ta_arm32/lib/libutee.a(user_ta_entry.o)
 .debug_macro   0x0000000000000000       0x16 /workspace/optee_os/out/arm/export-ta_arm32/lib/libutee.a(user_ta_entry.o)
 .debug_macro   0x0000000000000000      0x8ef /workspace/optee_os/out/arm/export-ta_arm32/lib/libutee.a(user_ta_entry.o)
 .debug_macro   0x0000000000000000       0x7c /workspace/optee_os/out/arm/export-ta_arm32/lib/libutee.a(user_ta_entry.o)
 .debug_macro   0x0000000000000000      0x184 /workspace/optee_os/out/arm/export-ta_arm32/lib/libutee.a(user_ta_entry.o)
 .debug_macro   0x0000000000000000       0xc4 /workspace/optee_os/out/arm/export-ta_arm32/lib/libutee.a(user_ta_entry.o)
 .debug_macro   0x0000000000000000       0x35 /workspace/optee_os/out/arm/export-ta_arm32/lib/libutee.a(user_ta_entry.o)
 .debug_macro   0x0000000000000000       0x34 /workspace/optee_os/out/arm/export-ta_arm32/lib/libutee.a(user_ta_entry.o)
 .debug_macro   0x0000000000000000       0x94 /workspace/optee_os/out/arm/export-ta_arm32/lib/libutee.a(user_ta_entry.o)
 .debug_macro   0x0000000000000000       0x10 /workspace/optee_os/out/arm/export-ta_arm32/lib/libutee.a(user_ta_entry.o)
 .debug_macro   0x0000000000000000       0x58 /workspace/optee_os/out/arm/export-ta_arm32/lib/libutee.a(user_ta_entry.o)
 .debug_macro   0x0000000000000000       0xca /workspace/optee_os/out/arm/export-ta_arm32/lib/libutee.a(user_ta_entry.o)
 .debug_macro   0x0000000000000000       0xca /workspace/optee_os/out/arm/export-ta_arm32/lib/libutee.a(user_ta_entry.o)
 .debug_macro   0x0000000000000000       0x82 /workspace/optee_os/out/arm/export-ta_arm32/lib/libutee.a(user_ta_entry.o)
 .debug_macro   0x0000000000000000       0x22 /workspace/optee_os/out/arm/export-ta_arm32/lib/libutee.a(user_ta_entry.o)
 .debug_macro   0x0000000000000000       0x10 /workspace/optee_os/out/arm/export-ta_arm32/lib/libutee.a(user_ta_entry.o)
 .group         0x0000000000000000        0x8 /workspace/optee_os/out/arm/export-ta_arm32/lib/libutee.a(tee_api.o)
 .group         0x0000000000000000        0x8 /workspace/optee_os/out/arm/export-ta_arm32/lib/libutee.a(tee_api.o)
 .group         0x0000000000000000        0x8 /workspace/optee_os/out/arm/export-ta_arm32/lib/libutee.a(tee_api.o)
 .group         0x0000000000000000        0x8 /workspace/optee_os/out/arm/export-ta_arm32/lib/libutee.a(tee_api.o)
 .group         0x0000000000000000        0x8 /workspace/optee_os/out/arm/export-ta_arm32/lib/libutee.a(tee_api.o)
 .group         0x0000000000000000        0x8 /workspace/optee_os/out/arm/export-ta_arm32/lib/libutee.a(tee_api.o)
 .group         0x0000000000000000        0x8 /workspace/optee_os/out/arm/export-ta_arm32/lib/libutee.a(tee_api.o)
 .group         0x0000000000000000        0x8 /workspace/optee_os/out/arm/export-ta_arm32/lib/libutee.a(tee_api.o)
 .group         0x0000000000000000        0x8 /workspace/optee_os/out/arm/export-ta_arm32/lib/libutee.a(tee_api.o)
 .group         0x0000000000000000        0x8 /workspace/optee_os/out/arm/export-ta_arm32/lib/libutee.a(tee_api.o)
 .group         0x0000000000000000        0x8 /workspace/optee_os/out/arm/export-ta_arm32/lib/libutee.a(tee_api.o)
 .group         0x0000000000000000        0x8 /workspace/optee_os/out/arm/export-ta_arm32/lib/libutee.a(tee_api.o)
 .group         0x0000000000000000        0x8 /workspace/optee_os/out/arm/export-ta_arm32/lib/libutee.a(tee_api.o)
 .group         0x0000000000000000        0x8 /workspace/optee_os/out/arm/export-ta_arm32/lib/libutee.a(tee_api.o)
 .group         0x0000000000000000        0x8 /workspace/optee_os/out/arm/export-ta_arm32/lib/libutee.a(tee_api.o)
 .group         0x0000000000000000        0x8 /workspace/optee_os/out/arm/export-ta_arm32/lib/libutee.a(tee_api.o)
 .group         0x0000000000000000        0x8 /workspace/optee_os/out/arm/export-ta_arm32/lib/libutee.a(tee_api.o)
 .group         0x0000000000000000        0x8 /workspace/optee_os/out/arm/export-ta_arm32/lib/libutee.a(tee_api.o)
 .group         0x0000000000000000        0x8 /workspace/optee_os/out/arm/export-ta_arm32/lib/libutee.a(tee_api.o)
 .debug_macro   0x0000000000000000      0x29f /workspace/optee_os/out/arm/export-ta_arm32/lib/libutee.a(tee_api.o)
 .debug_macro   0x0000000000000000       0xcd /workspace/optee_os/out/arm/export-ta_arm32/lib/libutee.a(tee_api.o)
 .debug_macro   0x0000000000000000      0x16d /workspace/optee_os/out/arm/export-ta_arm32/lib/libutee.a(tee_api.o)
 .debug_macro   0x0000000000000000       0x7c /workspace/optee_os/out/arm/export-ta_arm32/lib/libutee.a(tee_api.o)
 .debug_macro   0x0000000000000000      0x184 /workspace/optee_os/out/arm/export-ta_arm32/lib/libutee.a(tee_api.o)
 .debug_macro   0x0000000000000000       0xc4 /workspace/optee_os/out/arm/export-ta_arm32/lib/libutee.a(tee_api.o)
 .debug_macro   0x0000000000000000       0x22 /workspace/optee_os/out/arm/export-ta_arm32/lib/libutee.a(tee_api.o)
 .debug_macro   0x0000000000000000       0x22 /workspace/optee_os/out/arm/export-ta_arm32/lib/libutee.a(tee_api.o)
 .debug_macro   0x0000000000000000       0x10 /workspace/optee_os/out/arm/export-ta_arm32/lib/libutee.a(tee_api.o)
 .debug_macro   0x0000000000000000       0x16 /workspace/optee_os/out/arm/export-ta_arm32/lib/libutee.a(tee_api.o)
 .debug_macro   0x0000000000000000      0x8ef /workspace/optee_os/out/arm/export-ta_arm32/lib/libutee.a(tee_api.o)
 .debug_macro   0x0000000000000000       0x35 /workspace/optee_os/out/arm/export-ta_arm32/lib/libutee.a(tee_api.o)
 .debug_macro   0x0000000000000000       0x34 /workspace/optee_os/out/arm/export-ta_arm32/lib/libutee.a(tee_api.o)
 .debug_macro   0x0000000000000000       0x94 /workspace/optee_os/out/arm/export-ta_arm32/lib/libutee.a(tee_api.o)
 .debug_macro   0x0000000000000000       0x58 /workspace/optee_os/out/arm/export-ta_arm32/lib/libutee.a(tee_api.o)
 .debug_macro   0x0000000000000000       0xca /workspace/optee_os/out/arm/export-ta_arm32/lib/libutee.a(tee_api.o)
 .debug_macro   0x0000000000000000       0xca /workspace/optee_os/out/arm/export-ta_arm32/lib/libutee.a(tee_api.o)
 .debug_macro   0x0000000000000000       0x82 /workspace/optee_os/out/arm/export-ta_arm32/lib/libutee.a(tee_api.o)
 .group         0x0000000000000000        0x8 /workspace/optee_os/out/arm/export-ta_arm32/lib/libutee.a(tee_api_objects.o)
 .group         0x0000000000000000        0x8 /workspace/optee_os/out/arm/export-ta_arm32/lib/libutee.a(tee_api_objects.o)
 .group         0x0000000000000000        0x8 /workspace/optee_os/out/arm/export-ta_arm32/lib/libutee.a(tee_api_objects.o)
 .group         0x0000000000000000        0x8 /workspace/optee_os/out/arm/export-ta_arm32/lib/libutee.a(tee_api_objects.o)
 .group         0x0000000000000000        0x8 /workspace/optee_os/out/arm/export-ta_arm32/lib/libutee.a(tee_api_objects.o)
 .group         0x0000000000000000        0x8 /workspace/optee_os/out/arm/export-ta_arm32/lib/libutee.a(tee_api_objects.o)
 .group         0x0000000000000000        0x8 /workspace/optee_os/out/arm/export-ta_arm32/lib/libutee.a(tee_api_objects.o)
 .group         0x0000000000000000        0x8 /workspace/optee_os/out/arm/export-ta_arm32/lib/libutee.a(tee_api_objects.o)
 .group         0x0000000000000000        0x8 /workspace/optee_os/out/arm/export-ta_arm32/lib/libutee.a(tee_api_objects.o)
 .group         0x0000000000000000        0x8 /workspace/optee_os/out/arm/export-ta_arm32/lib/libutee.a(tee_api_objects.o)
 .group         0x0000000000000000        0x8 /workspace/optee_os/out/arm/export-ta_arm32/lib/libutee.a(tee_api_objects.o)
 .group         0x0000000000000000        0x8 /workspace/optee_os/out/arm/export-ta_arm32/lib/libutee.a(tee_api_objects.o)
 .group         0x0000000000000000        0x8 /workspace/optee_os/out/arm/export-ta_arm32/lib/libutee.a(tee_api_objects.o)
 .group         0x0000000000000000        0x8 /workspace/optee_os/out/arm/export-ta_arm32/lib/libutee.a(tee_api_objects.o)
 .group         0x0000000000000000        0x8 /workspace/optee_os/out/arm/export-ta_arm32/lib/libutee.a(tee_api_objects.o)
 .debug_macro   0x0000000000000000      0x29f /workspace/optee_os/out/arm/export-ta_arm32/lib/libutee.a(tee_api_objects.o)
 .debug_macro   0x0000000000000000       0xcd /workspace/optee_os/out/arm/export-ta_arm32/lib/libutee.a(tee_api_objects.o)
 .debug_macro   0x0000000000000000      0x16d /workspace/optee_os/out/arm/export-ta_arm32/lib/libutee.a(tee_api_objects.o)
 .debug_macro   0x0000000000000000       0x7c /workspace/optee_os/out/arm/export-ta_arm32/lib/libutee.a(tee_api_objects.o)
 .debug_macro   0x0000000000000000      0x184 /workspace/optee_os/out/arm/export-ta_arm32/lib/libutee.a(tee_api_objects.o)
 .debug_macro   0x0000000000000000       0xc4 /workspace/optee_os/out/arm/export-ta_arm32/lib/libutee.a(tee_api_objects.o)
 .debug_macro   0x0000000000000000       0x22 /workspace/optee_os/out/arm/export-ta_arm32/lib/libutee.a(tee_api_objects.o)
 .debug_macro   0x0000000000000000       0x22 /workspace/optee_os/out/arm/export-ta_arm32/lib/libutee.a(tee_api_objects.o)
 .debug_macro   0x0000000000000000       0x10 /workspace/optee_os/out/arm/export-ta_arm32/lib/libutee.a(tee_api_objects.o)
 .debug_macro   0x0000000000000000       0x16 /workspace/optee_os/out/arm/export-ta_arm32/lib/libutee.a(tee_api_objects.o)
 .debug_macro   0x0000000000000000      0x8ef /workspace/optee_os/out/arm/export-ta_arm32/lib/libutee.a(tee_api_objects.o)
 .debug_macro   0x0000000000000000       0x35 /workspace/optee_os/out/arm/export-ta_arm32/lib/libutee.a(tee_api_objects.o)
 .debug_macro   0x0000000000000000       0x34 /workspace/optee_os/out/arm/export-ta_arm32/lib/libutee.a(tee_api_objects.o)
 .debug_macro   0x0000000000000000       0x94 /workspace/optee_os/out/arm/export-ta_arm32/lib/libutee.a(tee_api_objects.o)
 .group         0x0000000000000000        0x8 /workspace/optee_os/out/arm/export-ta_arm32/lib/libutee.a(tee_api_arith_mpi.o)
 .group         0x0000000000000000        0x8 /workspace/optee_os/out/arm/export-ta_arm32/lib/libutee.a(tee_api_arith_mpi.o)
 .group         0x0000000000000000        0x8 /workspace/optee_os/out/arm/export-ta_arm32/lib/libutee.a(tee_api_arith_mpi.o)
 .group         0x0000000000000000        0x8 /workspace/optee_os/out/arm/export-ta_arm32/lib/libutee.a(tee_api_arith_mpi.o)
 .group         0x0000000000000000        0x8 /workspace/optee_os/out/arm/export-ta_arm32/lib/libutee.a(tee_api_arith_mpi.o)
 .group         0x0000000000000000        0x8 /workspace/optee_os/out/arm/export-ta_arm32/lib/libutee.a(tee_api_arith_mpi.o)
 .group         0x0000000000000000        0x8 /workspace/optee_os/out/arm/export-ta_arm32/lib/libutee.a(tee_api_arith_mpi.o)
 .group         0x0000000000000000        0x8 /workspace/optee_os/out/arm/export-ta_arm32/lib/libutee.a(tee_api_arith_mpi.o)
 .group         0x0000000000000000        0x8 /workspace/optee_os/out/arm/export-ta_arm32/lib/libutee.a(tee_api_arith_mpi.o)
 .group         0x0000000000000000        0x8 /workspace/optee_os/out/arm/export-ta_arm32/lib/libutee.a(tee_api_arith_mpi.o)
 .group         0x0000000000000000        0x8 /workspace/optee_os/out/arm/export-ta_arm32/lib/libutee.a(tee_api_arith_mpi.o)
 .group         0x0000000000000000        0x8 /workspace/optee_os/out/arm/export-ta_arm32/lib/libutee.a(tee_api_arith_mpi.o)
 .group         0x0000000000000000        0x8 /workspace/optee_os/out/arm/export-ta_arm32/lib/libutee.a(tee_api_arith_mpi.o)
 .group         0x0000000000000000        0x8 /workspace/optee_os/out/arm/export-ta_arm32/lib/libutee.a(tee_api_arith_mpi.o)
 .group         0x0000000000000000        0x8 /workspace/optee_os/out/arm/export-ta_arm32/lib/libutee.a(tee_api_arith_mpi.o)
 .group         0x0000000000000000        0x8 /workspace/optee_os/out/arm/export-ta_arm32/lib/libutee.a(tee_api_arith_mpi.o)
 .group         0x0000000000000000        0x8 /workspace/optee_os/out/arm/export-ta_arm32/lib/libutee.a(tee_api_arith_mpi.o)
 .group         0x0000000000000000        0x8 /workspace/optee_os/out/arm/export-ta_arm32/lib/libutee.a(tee_api_arith_mpi.o)
 .group         0x0000000000000000        0x8 /workspace/optee_os/out/arm/export-ta_arm32/lib/libutee.a(tee_api_arith_mpi.o)
 .group         0x0000000000000000        0x8 /workspace/optee_os/out/arm/export-ta_arm32/lib/libutee.a(tee_api_arith_mpi.o)
 .group         0x0000000000000000        0x8 /workspace/optee_os/out/arm/export-ta_arm32/lib/libutee.a(tee_api_arith_mpi.o)
 .debug_macro   0x0000000000000000      0x29f /workspace/optee_os/out/arm/export-ta_arm32/lib/libutee.a(tee_api_arith_mpi.o)
 .debug_macro   0x0000000000000000       0xcd /workspace/optee_os/out/arm/export-ta_arm32/lib/libutee.a(tee_api_arith_mpi.o)
 .debug_macro   0x0000000000000000       0x22 /workspace/optee_os/out/arm/export-ta_arm32/lib/libutee.a(tee_api_arith_mpi.o)
 .debug_macro   0x0000000000000000      0x16d /workspace/optee_os/out/arm/export-ta_arm32/lib/libutee.a(tee_api_arith_mpi.o)
 .debug_macro   0x0000000000000000       0x34 /workspace/optee_os/out/arm/export-ta_arm32/lib/libutee.a(tee_api_arith_mpi.o)
 .debug_macro   0x0000000000000000       0x94 /workspace/optee_os/out/arm/export-ta_arm32/lib/libutee.a(tee_api_arith_mpi.o)
 .debug_macro   0x0000000000000000       0x10 /workspace/optee_os/out/arm/export-ta_arm32/lib/libutee.a(tee_api_arith_mpi.o)
 .debug_macro   0x0000000000000000       0x7c /workspace/optee_os/out/arm/export-ta_arm32/lib/libutee.a(tee_api_arith_mpi.o)
 .debug_macro   0x0000000000000000      0x184 /workspace/optee_os/out/arm/export-ta_arm32/lib/libutee.a(tee_api_arith_mpi.o)
 .debug_macro   0x0000000000000000       0xc4 /workspace/optee_os/out/arm/export-ta_arm32/lib/libutee.a(tee_api_arith_mpi.o)
 .debug_macro   0x0000000000000000       0x22 /workspace/optee_os/out/arm/export-ta_arm32/lib/libutee.a(tee_api_arith_mpi.o)
 .debug_macro   0x0000000000000000       0x58 /workspace/optee_os/out/arm/export-ta_arm32/lib/libutee.a(tee_api_arith_mpi.o)
 .debug_macro   0x0000000000000000       0x16 /workspace/optee_os/out/arm/export-ta_arm32/lib/libutee.a(tee_api_arith_mpi.o)
 .debug_macro   0x0000000000000000      0x8ef /workspace/optee_os/out/arm/export-ta_arm32/lib/libutee.a(tee_api_arith_mpi.o)
 .debug_macro   0x0000000000000000       0x35 /workspace/optee_os/out/arm/export-ta_arm32/lib/libutee.a(tee_api_arith_mpi.o)
 .debug_macro   0x0000000000000000       0x34 /workspace/optee_os/out/arm/export-ta_arm32/lib/libutee.a(tee_api_arith_mpi.o)
 .debug_macro   0x0000000000000000      0x1b0 /workspace/optee_os/out/arm/export-ta_arm32/lib/libutee.a(tee_api_arith_mpi.o)
 .debug_macro   0x0000000000000000       0xca /workspace/optee_os/out/arm/export-ta_arm32/lib/libutee.a(tee_api_arith_mpi.o)
 .group         0x0000000000000000        0x8 /workspace/optee_os/out/arm/export-ta_arm32/lib/libmbedtls.a(bignum.o)
 .group         0x0000000000000000        0x8 /workspace/optee_os/out/arm/export-ta_arm32/lib/libmbedtls.a(bignum.o)
 .group         0x0000000000000000        0x8 /workspace/optee_os/out/arm/export-ta_arm32/lib/libmbedtls.a(bignum.o)
 .group         0x0000000000000000        0x8 /workspace/optee_os/out/arm/export-ta_arm32/lib/libmbedtls.a(bignum.o)
 .group         0x0000000000000000        0x8 /workspace/optee_os/out/arm/export-ta_arm32/lib/libmbedtls.a(bignum.o)
 .group         0x0000000000000000        0x8 /workspace/optee_os/out/arm/export-ta_arm32/lib/libmbedtls.a(bignum.o)
 .group         0x0000000000000000        0x8 /workspace/optee_os/out/arm/export-ta_arm32/lib/libmbedtls.a(bignum.o)
 .group         0x0000000000000000        0x8 /workspace/optee_os/out/arm/export-ta_arm32/lib/libmbedtls.a(bignum.o)
 .group         0x0000000000000000        0x8 /workspace/optee_os/out/arm/export-ta_arm32/lib/libmbedtls.a(bignum.o)
 .group         0x0000000000000000        0x8 /workspace/optee_os/out/arm/export-ta_arm32/lib/libmbedtls.a(bignum.o)
 .group         0x0000000000000000        0x8 /workspace/optee_os/out/arm/export-ta_arm32/lib/libmbedtls.a(bignum.o)
 .group         0x0000000000000000        0x8 /workspace/optee_os/out/arm/export-ta_arm32/lib/libmbedtls.a(bignum.o)
 .group         0x0000000000000000        0x8 /workspace/optee_os/out/arm/export-ta_arm32/lib/libmbedtls.a(bignum.o)
 .group         0x0000000000000000        0x8 /workspace/optee_os/out/arm/export-ta_arm32/lib/libmbedtls.a(bignum.o)
 .group         0x0000000000000000        0x8 /workspace/optee_os/out/arm/export-ta_arm32/lib/libmbedtls.a(bignum.o)
 .debug_macro   0x0000000000000000      0x29f /workspace/optee_os/out/arm/export-ta_arm32/lib/libmbedtls.a(bignum.o)
 .debug_macro   0x0000000000000000      0x11e /workspace/optee_os/out/arm/export-ta_arm32/lib/libmbedtls.a(bignum.o)
 .debug_macro   0x0000000000000000       0x7c /workspace/optee_os/out/arm/export-ta_arm32/lib/libmbedtls.a(bignum.o)
 .debug_macro   0x0000000000000000      0x16d /workspace/optee_os/out/arm/export-ta_arm32/lib/libmbedtls.a(bignum.o)
 .debug_macro   0x0000000000000000      0x184 /workspace/optee_os/out/arm/export-ta_arm32/lib/libmbedtls.a(bignum.o)
 .debug_macro   0x0000000000000000       0x6b /workspace/optee_os/out/arm/export-ta_arm32/lib/libmbedtls.a(bignum.o)
 .debug_macro   0x0000000000000000       0x16 /workspace/optee_os/out/arm/export-ta_arm32/lib/libmbedtls.a(bignum.o)
 .debug_macro   0x0000000000000000       0x58 /workspace/optee_os/out/arm/export-ta_arm32/lib/libmbedtls.a(bignum.o)
 .debug_macro   0x0000000000000000       0xcd /workspace/optee_os/out/arm/export-ta_arm32/lib/libmbedtls.a(bignum.o)
 .debug_macro   0x0000000000000000       0xc4 /workspace/optee_os/out/arm/export-ta_arm32/lib/libmbedtls.a(bignum.o)
 .debug_macro   0x0000000000000000       0x22 /workspace/optee_os/out/arm/export-ta_arm32/lib/libmbedtls.a(bignum.o)
 .debug_macro   0x0000000000000000       0x22 /workspace/optee_os/out/arm/export-ta_arm32/lib/libmbedtls.a(bignum.o)
 .debug_macro   0x0000000000000000       0x10 /workspace/optee_os/out/arm/export-ta_arm32/lib/libmbedtls.a(bignum.o)
 .group         0x0000000000000000        0x8 /workspace/optee_os/out/arm/export-ta_arm32/lib/libutils.a(snprintf.o)
 .group         0x0000000000000000        0x8 /workspace/optee_os/out/arm/export-ta_arm32/lib/libutils.a(snprintf.o)
 .group         0x0000000000000000        0x8 /workspace/optee_os/out/arm/export-ta_arm32/lib/libutils.a(snprintf.o)
 .group         0x0000000000000000        0x8 /workspace/optee_os/out/arm/export-ta_arm32/lib/libutils.a(snprintf.o)
 .group         0x0000000000000000        0x8 /workspace/optee_os/out/arm/export-ta_arm32/lib/libutils.a(snprintf.o)
 .debug_macro   0x0000000000000000      0x29f /workspace/optee_os/out/arm/export-ta_arm32/lib/libutils.a(snprintf.o)
 .debug_macro   0x0000000000000000      0x16d /workspace/optee_os/out/arm/export-ta_arm32/lib/libutils.a(snprintf.o)
 .debug_macro   0x0000000000000000       0x58 /workspace/optee_os/out/arm/export-ta_arm32/lib/libutils.a(snprintf.o)
 .debug_macro   0x0000000000000000       0x22 /workspace/optee_os/out/arm/export-ta_arm32/lib/libutils.a(snprintf.o)
 .group         0x0000000000000000        0x8 /workspace/optee_os/out/arm/export-ta_arm32/lib/libutils.a(memcmp.o)
 .group         0x0000000000000000        0x8 /workspace/optee_os/out/arm/export-ta_arm32/lib/libutils.a(memcmp.o)
 .group         0x0000000000000000        0x8 /workspace/optee_os/out/arm/export-ta_arm32/lib/libutils.a(memcmp.o)
 .group         0x0000000000000000        0x8 /workspace/optee_os/out/arm/export-ta_arm32/lib/libutils.a(memcmp.o)
 .group         0x0000000000000000        0x8 /workspace/optee_os/out/arm/export-ta_arm32/lib/libutils.a(memcmp.o)
 .debug_macro   0x0000000000000000      0x29f /workspace/optee_os/out/arm/export-ta_arm32/lib/libutils.a(memcmp.o)
 .debug_macro   0x0000000000000000       0x7c /workspace/optee_os/out/arm/export-ta_arm32/lib/libutils.a(memcmp.o)
 .debug_macro   0x0000000000000000      0x16d /workspace/optee_os/out/arm/export-ta_arm32/lib/libutils.a(memcmp.o)
 .debug_macro   0x0000000000000000       0x16 /workspace/optee_os/out/arm/export-ta_arm32/lib/libutils.a(memcmp.o)
 .group         0x0000000000000000        0x8 /workspace/optee_os/out/arm/export-ta_arm32/lib/libutils.a(memmove.o)
 .group         0x0000000000000000        0x8 /workspace/optee_os/out/arm/export-ta_arm32/lib/libutils.a(memmove.o)
 .group         0x0000000000000000        0x8 /workspace/optee_os/out/arm/export-ta_arm32/lib/libutils.a(memmove.o)
 .group         0x0000000000000000        0x8 /workspace/optee_os/out/arm/export-ta_arm32/lib/libutils.a(memmove.o)
 .group         0x0000000000000000        0x8 /workspace/optee_os/out/arm/export-ta_arm32/lib/libutils.a(memmove.o)
 .group         0x0000000000000000        0x8 /workspace/optee_os/out/arm/export-ta_arm32/lib/libutils.a(memmove.o)
 .debug_macro   0x0000000000000000      0x29f /workspace/optee_os/out/arm/export-ta_arm32/lib/libutils.a(memmove.o)
 .debug_macro   0x0000000000000000      0x16d /workspace/optee_os/out/arm/export-ta_arm32/lib/libutils.a(memmove.o)
 .debug_macro   0x0000000000000000       0x16 /workspace/optee_os/out/arm/export-ta_arm32/lib/libutils.a(memmove.o)
 .debug_macro   0x0000000000000000       0x7c /workspace/optee_os/out/arm/export-ta_arm32/lib/libutils.a(memmove.o)
 .debug_macro   0x0000000000000000       0x7c /workspace/optee_os/out/arm/export-ta_arm32/lib/libutils.a(memmove.o)
 .group         0x0000000000000000        0x8 /workspace/optee_os/out/arm/export-ta_arm32/lib/libutils.a(buf_compare_ct.o)
 .group         0x0000000000000000        0x8 /workspace/optee_os/out/arm/export-ta_arm32/lib/libutils.a(buf_compare_ct.o)
 .group         0x0000000000000000        0x8 /workspace/optee_os/out/arm/export-ta_arm32/lib/libutils.a(buf_compare_ct.o)
 .group         0x0000000000000000        0x8 /workspace/optee_os/out/arm/export-ta_arm32/lib/libutils.a(buf_compare_ct.o)
 .debug_macro   0x0000000000000000      0x29f /workspace/optee_os/out/arm/export-ta_arm32/lib/libutils.a(buf_compare_ct.o)
 .debug_macro   0x0000000000000000      0x16d /workspace/optee_os/out/arm/export-ta_arm32/lib/libutils.a(buf_compare_ct.o)
 .debug_macro   0x0000000000000000       0x16 /workspace/optee_os/out/arm/export-ta_arm32/lib/libutils.a(buf_compare_ct.o)
 .group         0x0000000000000000        0x8 /workspace/optee_os/out/arm/export-ta_arm32/lib/libutils.a(mempool.o)
 .group         0x0000000000000000        0x8 /workspace/optee_os/out/arm/export-ta_arm32/lib/libutils.a(mempool.o)
 .group         0x0000000000000000        0x8 /workspace/optee_os/out/arm/export-ta_arm32/lib/libutils.a(mempool.o)
 .group         0x0000000000000000        0x8 /workspace/optee_os/out/arm/export-ta_arm32/lib/libutils.a(mempool.o)
 .group         0x0000000000000000        0x8 /workspace/optee_os/out/arm/export-ta_arm32/lib/libutils.a(mempool.o)
 .group         0x0000000000000000        0x8 /workspace/optee_os/out/arm/export-ta_arm32/lib/libutils.a(mempool.o)
 .group         0x0000000000000000        0x8 /workspace/optee_os/out/arm/export-ta_arm32/lib/libutils.a(mempool.o)
 .group         0x0000000000000000        0x8 /workspace/optee_os/out/arm/export-ta_arm32/lib/libutils.a(mempool.o)
 .group         0x0000000000000000        0x8 /workspace/optee_os/out/arm/export-ta_arm32/lib/libutils.a(mempool.o)
 .group         0x0000000000000000        0x8 /workspace/optee_os/out/arm/export-ta_arm32/lib/libutils.a(mempool.o)
 .group         0x0000000000000000        0x8 /workspace/optee_os/out/arm/export-ta_arm32/lib/libutils.a(mempool.o)
 .group         0x0000000000000000        0x8 /workspace/optee_os/out/arm/export-ta_arm32/lib/libutils.a(mempool.o)
 .group         0x0000000000000000        0x8 /workspace/optee_os/out/arm/export-ta_arm32/lib/libutils.a(mempool.o)
 .group         0x0000000000000000        0x8 /workspace/optee_os/out/arm/export-ta_arm32/lib/libutils.a(mempool.o)
 .group         0x0000000000000000        0x8 /workspace/optee_os/out/arm/export-ta_arm32/lib/libutils.a(mempool.o)
 .debug_macro   0x0000000000000000      0x29f /workspace/optee_os/out/arm/export-ta_arm32/lib/libutils.a(mempool.o)
 .debug_macro   0x0000000000000000       0xcd /workspace/optee_os/out/arm/export-ta_arm32/lib/libutils.a(mempool.o)
 .debug_macro   0x0000000000000000       0x22 /workspace/optee_os/out/arm/export-ta_arm32/lib/libutils.a(mempool.o)
 .debug_macro   0x0000000000000000      0x16d /workspace/optee_os/out/arm/export-ta_arm32/lib/libutils.a(mempool.o)
 .debug_macro   0x0000000000000000       0x34 /workspace/optee_os/out/arm/export-ta_arm32/lib/libutils.a(mempool.o)
 .debug_macro   0x0000000000000000       0x94 /workspace/optee_os/out/arm/export-ta_arm32/lib/libutils.a(mempool.o)
 .debug_macro   0x0000000000000000       0x10 /workspace/optee_os/out/arm/export-ta_arm32/lib/libutils.a(mempool.o)
 .debug_macro   0x0000000000000000       0x7c /workspace/optee_os/out/arm/export-ta_arm32/lib/libutils.a(mempool.o)
 .debug_macro   0x0000000000000000      0x184 /workspace/optee_os/out/arm/export-ta_arm32/lib/libutils.a(mempool.o)
 .debug_macro   0x0000000000000000       0xc4 /workspace/optee_os/out/arm/export-ta_arm32/lib/libutils.a(mempool.o)
 .debug_macro   0x0000000000000000       0x22 /workspace/optee_os/out/arm/export-ta_arm32/lib/libutils.a(mempool.o)
 .debug_macro   0x0000000000000000       0x10 /workspace/optee_os/out/arm/export-ta_arm32/lib/libutils.a(mempool.o)
 .debug_macro   0x0000000000000000       0x16 /workspace/optee_os/out/arm/export-ta_arm32/lib/libutils.a(mempool.o)
 .debug_macro   0x0000000000000000       0xca /workspace/optee_os/out/arm/export-ta_arm32/lib/libutils.a(mempool.o)

Memory Configuration

Name             Origin             Length             Attributes
*default*        0x0000000000000000 0xffffffffffffffff

Linker script and memory map


.ta_head        0x0000000000000000       0x20
 *(SORT(.ta_head))
 .ta_head       0x0000000000000000       0x20 ./user_ta_header.o
                0x0000000000000000                ta_head

.text           0x0000000000000020     0xcac8
                0x0000000000000020                __text_start = .
 *(SORT(.text) SORT(.text.*))
 .text          0x0000000000000020      0x490 ./blas_TA.o
                0x0000000000000020                fill_cpu_TA
                0x0000000000000034                copy_cpu_TA
                0x0000000000000050                mean_cpu_TA
                0x00000000000000c8                variance_cpu_TA
                0x000000000000018c                scal_cpu_TA
                0x00000000000001a8                axpy_cpu_TA
                0x00000000000001d0                normalize_cpu_TA
                0x0000000000000280                softmax_TA
                0x0000000000000324                softmax_cpu_TA
                0x0000000000000384                softmax_x_ent_cpu_TA
                0x00000000000003e4                smooth_l1_cpu_TA
                0x0000000000000448                l1_cpu_TA
                0x0000000000000488                l2_cpu_TA
 .text          0x00000000000004b0      0x7cc ./math_TA.o
                0x00000000000004b0                ta_max
                0x00000000000004c0                ta_pow
                0x00000000000004f8                ta_eee
                0x0000000000000590                ta_exp
                0x00000000000005e0                ta_rand
                0x0000000000000624                ta_floor
                0x000000000000063e                ta_sqrt
                0x00000000000006b0                F1
                0x00000000000006ba                F2
                0x00000000000006d6                simpson
                0x0000000000000758                asr
                0x0000000000000818                asr0
                0x0000000000000842                ta_ln
                0x0000000000000860                ta_log
                0x0000000000000888                ta_cos
                0x00000000000009f8                ta_sin
                0x0000000000000b68                ta_tan
                0x0000000000000b8c                reverse
                0x0000000000000bac                intToStr
                0x0000000000000bea                ftoa
                0x0000000000000c42                bubble_sort_top
 *fill*         0x0000000000000c7c        0x4 
 .text          0x0000000000000c80      0x6c8 ./activations_TA.o
                0x0000000000000c80                get_activation_string_TA
                0x0000000000000d2c                get_activation_TA
                0x0000000000000e54                activate_TA
                0x0000000000001134                activate_array_TA
                0x000000000000115e                gradient_TA
                0x0000000000001314                gradient_array_TA
 .text          0x0000000000001348      0x594 ./network_TA.o
                0x0000000000001348                make_network_TA
                0x0000000000001458                update_network_TA
                0x00000000000014d8                calc_network_cost_TA
                0x000000000000153c                forward_network_TA
                0x00000000000016b8                calc_network_loss_TA
                0x0000000000001780                backward_network_TA
 *fill*         0x00000000000018dc        0x4 
 .text          0x00000000000018e0       0xa4 ./diffprivate_TA.o
                0x00000000000018e0                diff_private_SGD
 .text          0x0000000000001984      0xa48 ./darknetp_ta.o
                0x0000000000001d8c                summary_array
                0x0000000000001e64                TA_CreateEntryPoint
                0x0000000000001e8c                TA_DestroyEntryPoint
                0x0000000000001eb4                TA_OpenSessionEntryPoint
                0x0000000000001f00                TA_CloseSessionEntryPoint
                0x0000000000001f28                TA_InvokeCommandEntryPoint
 .text          0x00000000000023cc      0x1b8 ./softmax_layer_TA.o
                0x00000000000023cc                forward_softmax_layer_TA
                0x0000000000002492                backward_softmax_layer_TA
                0x00000000000024b8                make_softmax_layer_TA_new
 .text          0x0000000000002584      0x4ec ./connected_layer_TA.o
                0x0000000000002584                forward_connected_layer_TA_new
                0x000000000000262c                backward_connected_layer_TA_new
                0x0000000000002700                update_connected_layer_TA_new
                0x00000000000027ce                make_connected_layer_TA_new
 .text          0x0000000000002a70      0x2f4 ./parser_TA.o
                0x0000000000002a70                aes_cbc_TA
                0x0000000000002b78                transpose_matrix_TA
                0x0000000000002bd6                load_weights_TA
                0x0000000000002cd8                save_weights_TA
 .text          0x0000000000002d64      0x2b8 ./gemm_TA.o
                0x0000000000002d64                gemm_nn_TA
                0x0000000000002dd0                gemm_nt_TA
                0x0000000000002e4c                gemm_tn_TA
                0x0000000000002ebc                gemm_tt_TA
                0x0000000000002f40                gemm_cpu_TA
                0x0000000000003010                gemm_TA
 .text          0x000000000000301c      0x320 ./maxpool_layer_TA.o
                0x000000000000301c                forward_maxpool_layer_TA_new
                0x00000000000031c0                backward_maxpool_layer_TA_new
                0x0000000000003208                make_maxpool_layer_TA
                0x00000000000032d0                resize_maxpool_layer_TA
 .text          0x000000000000333c      0x584 ./aes_TA.o
                0x000000000000377c                AES_init_ctx
                0x000000000000377e                AES_init_ctx_iv
                0x0000000000003798                AES_ctx_set_iv
                0x00000000000037a0                AES_ECB_encrypt
                0x00000000000037a8                AES_ECB_decrypt
                0x00000000000037b0                AES_CBC_encrypt_buffer
                0x00000000000037fc                AES_CBC_decrypt_buffer
                0x0000000000003858                AES_CTR_xcrypt_buffer
 .text          0x00000000000038c0      0x228 ./cost_layer_TA.o
                0x00000000000038c0                forward_cost_layer_TA
                0x0000000000003948                backward_cost_layer_TA
                0x000000000000396e                get_cost_type_TA
                0x0000000000003a08                get_cost_string_TA
                0x0000000000003a54                make_cost_layer_TA_new
 .text          0x0000000000003ae8      0x108 ./im2col_TA.o
                0x0000000000003ae8                im2col_get_pixel_TA
                0x0000000000003b24                im2col_cpu_TA
 .text          0x0000000000003bf0      0x4f4 ./batchnorm_layer_TA.o
                0x0000000000003bf0                forward_batchnorm_layer_TA
                0x0000000000003d18                backward_scale_cpu_TA
                0x0000000000003d8c                mean_delta_cpu_TA
                0x0000000000003e34                variance_delta_cpu_TA
                0x0000000000003f04                normalize_delta_cpu_TA
                0x0000000000004014                backward_batchnorm_layer_TA
 .text          0x00000000000040e4      0x1a8 ./dropout_layer_TA.o
                0x00000000000040e4                backward_dropout_layer_TA_new
                0x000000000000413c                forward_dropout_layer_TA_new
                0x00000000000041c0                make_dropout_layer_TA_new
                0x0000000000004270                resize_dropout_layer_TA
 .text          0x000000000000428c      0xa90 ./convolutional_layer_TA.o
                0x000000000000428c                update_convolutional_layer_TA_new
                0x000000000000435c                swap_binary_TA
                0x000000000000436e                add_bias_TA
                0x00000000000043c0                scale_bias_TA
                0x0000000000004412                backward_bias_TA
                0x000000000000446a                backward_convolutional_layer_TA_new
                0x0000000000004688                convolutional_out_height_TA
                0x00000000000046a6                convolutional_out_width_TA
                0x00000000000046c4                binarize_weights_TA
                0x000000000000473c                binarize_cpu_TA
                0x0000000000004768                forward_convolutional_layer_TA_new
                0x000000000000495c                make_convolutional_layer_TA_new
 .text          0x0000000000004d1c      0x190 ./avgpool_layer_TA.o
                0x0000000000004d1c                forward_avgpool_layer_TA_new
                0x0000000000004dac                backward_avgpool_layer_TA_new
                0x0000000000004e2a                make_avgpool_layer_TA
                0x0000000000004e9c                resize_avgpool_layer_TA
 .text          0x0000000000004eac      0x118 ./utils_TA.o
                0x0000000000004eac                sum_array_TA
                0x0000000000004ec8                rand_uniform_TA
                0x0000000000004efe                rand_normal_TA
 .text          0x0000000000004fc4      0xbdc /workspace/optee_os/out/arm/export-ta_arm32/lib/libutils.a(bget_malloc.o)
                0x00000000000050cc                bget
                0x0000000000005238                bgetz
                0x0000000000005294                brel
                0x000000000000548c                bgetr
                0x0000000000005508                bpool
                0x00000000000055a4                bstats
                0x0000000000005608                malloc_reset_stats
                0x000000000000561c                malloc_get_stats
                0x000000000000563c                malloc
                0x000000000000563e                free
                0x0000000000005650                calloc
                0x0000000000005698                realloc
                0x00000000000056d0                memalign
                0x0000000000005980                malloc_add_pool
                0x0000000000005a78                malloc_buffer_is_within_alloced
                0x0000000000005b54                malloc_buffer_overlaps_heap
 .text          0x0000000000005ba0      0x2bc /workspace/optee_os/out/arm/export-ta_arm32/lib/libutils.a(trace.o)
                0x0000000000005bee                trace_set_level
                0x0000000000005c0c                trace_get_level
                0x0000000000005c20                trace_printf
                0x0000000000005d5c                dhex_dump
 .text          0x0000000000005e5c      0x75c /workspace/optee_os/out/arm/export-ta_arm32/lib/libutils.a(snprintk.o)
                0x0000000000005e5c                __vsnprintf
                0x0000000000006590                vsnprintk
                0x000000000000659e                snprintk
 .text.__aeabi_ldivmod
                0x00000000000065b8       0x18 /workspace/optee_os/out/arm/export-ta_arm32/lib/libutils.a(arm32_aeabi_ldivmod_a32.o)
                0x00000000000065b8                __aeabi_ldivmod
 .text.__aeabi_uldivmod
                0x00000000000065d0       0x18 /workspace/optee_os/out/arm/export-ta_arm32/lib/libutils.a(arm32_aeabi_ldivmod_a32.o)
                0x00000000000065d0                __aeabi_uldivmod
 .text          0x00000000000065e8       0x9c /workspace/optee_os/out/arm/export-ta_arm32/lib/libutee.a(trace_ext.o)
                0x00000000000065e8                trace_ext_puts
                0x00000000000065fc                trace_ext_get_thread_id
                0x0000000000006602                printf
                0x000000000000663c                puts
                0x0000000000006660                putchar
 .text          0x0000000000006684       0x38 /workspace/optee_os/out/arm/export-ta_arm32/lib/libutee.a(assert.o)
                0x0000000000006684                _assert_log
                0x00000000000066ac                _assert_break
 .text          0x00000000000066bc     0x15c8 /workspace/optee_os/out/arm/export-ta_arm32/lib/libutee.a(tee_api_operations.o)
                0x000000000000681c                TEE_FreeOperation
                0x0000000000006842                TEE_AllocateOperation
                0x0000000000006d88                TEE_GetOperationInfo
                0x0000000000006daa                TEE_GetOperationInfoMultiple
                0x0000000000006e60                TEE_ResetOperation
                0x0000000000006ea0                TEE_SetOperationKey
                0x0000000000006f2c                TEE_SetOperationKey2
                0x0000000000007020                TEE_CopyOperation
                0x00000000000070c4                TEE_DigestUpdate
                0x00000000000070f4                TEE_DigestDoFinal
                0x0000000000007164                TEE_CipherInit
                0x00000000000071ba                TEE_CipherUpdate
                0x00000000000072a0                TEE_CipherDoFinal
                0x00000000000073b0                TEE_MACInit
                0x0000000000007406                TEE_MACUpdate
                0x0000000000007454                TEE_MACComputeFinal
                0x00000000000074bc                TEE_MACCompareFinal
                0x0000000000007520                TEE_AEInit
                0x0000000000007590                TEE_AEUpdateAAD
                0x00000000000075d6                TEE_AEUpdate
                0x00000000000076a4                TEE_AEEncryptFinal
                0x00000000000077bc                TEE_AEDecryptFinal
                0x00000000000078c4                TEE_AsymmetricEncrypt
                0x0000000000007980                TEE_AsymmetricDecrypt
                0x0000000000007a40                TEE_AsymmetricSignDigest
                0x0000000000007af4                TEE_AsymmetricVerifyDigest
                0x0000000000007ba0                TEE_DeriveKey
                0x0000000000007c5a                TEE_GenerateRandom
                0x0000000000007c6c                rand
 .text          0x0000000000007c84      0x214 /workspace/optee_os/out/arm/export-ta_arm32/lib/libutee.a(user_ta_entry.o)
                0x0000000000007d08                __utee_entry
 .text          0x0000000000007e98        0x0 /workspace/optee_os/out/arm/export-ta_arm32/lib/libutee.a(utee_syscalls_a32.o)
 .text.utee_panic
                0x0000000000007e98       0x14 /workspace/optee_os/out/arm/export-ta_arm32/lib/libutee.a(utee_syscalls_a32.o)
                0x0000000000007e98                utee_panic
 .text.utee_return
                0x0000000000007eac       0x14 /workspace/optee_os/out/arm/export-ta_arm32/lib/libutee.a(utee_syscalls_a32.o)
                0x0000000000007eac                utee_return
 .text.utee_log
                0x0000000000007ec0       0x14 /workspace/optee_os/out/arm/export-ta_arm32/lib/libutee.a(utee_syscalls_a32.o)
                0x0000000000007ec0                utee_log
 .text.__utee_panic
                0x0000000000007ed4       0x14 /workspace/optee_os/out/arm/export-ta_arm32/lib/libutee.a(utee_syscalls_a32.o)
                0x0000000000007ed4                __utee_panic
 .text.utee_get_property
                0x0000000000007ee8       0x18 /workspace/optee_os/out/arm/export-ta_arm32/lib/libutee.a(utee_syscalls_a32.o)
                0x0000000000007ee8                utee_get_property
 .text.utee_get_property_name_to_index
                0x0000000000007f00       0x14 /workspace/optee_os/out/arm/export-ta_arm32/lib/libutee.a(utee_syscalls_a32.o)
                0x0000000000007f00                utee_get_property_name_to_index
 .text.utee_open_ta_session
                0x0000000000007f14       0x18 /workspace/optee_os/out/arm/export-ta_arm32/lib/libutee.a(utee_syscalls_a32.o)
                0x0000000000007f14                utee_open_ta_session
 .text.utee_close_ta_session
                0x0000000000007f2c       0x14 /workspace/optee_os/out/arm/export-ta_arm32/lib/libutee.a(utee_syscalls_a32.o)
                0x0000000000007f2c                utee_close_ta_session
 .text.utee_invoke_ta_command
                0x0000000000007f40       0x18 /workspace/optee_os/out/arm/export-ta_arm32/lib/libutee.a(utee_syscalls_a32.o)
                0x0000000000007f40                utee_invoke_ta_command
 .text.utee_get_cancellation_flag
                0x0000000000007f58       0x14 /workspace/optee_os/out/arm/export-ta_arm32/lib/libutee.a(utee_syscalls_a32.o)
                0x0000000000007f58                utee_get_cancellation_flag
 .text.utee_check_access_rights
                0x0000000000007f6c       0x14 /workspace/optee_os/out/arm/export-ta_arm32/lib/libutee.a(utee_syscalls_a32.o)
                0x0000000000007f6c                utee_check_access_rights
 .text.utee_unmask_cancellation
                0x0000000000007f80       0x14 /workspace/optee_os/out/arm/export-ta_arm32/lib/libutee.a(utee_syscalls_a32.o)
                0x0000000000007f80                utee_unmask_cancellation
 .text.utee_mask_cancellation
                0x0000000000007f94       0x14 /workspace/optee_os/out/arm/export-ta_arm32/lib/libutee.a(utee_syscalls_a32.o)
                0x0000000000007f94                utee_mask_cancellation
 .text.utee_wait
                0x0000000000007fa8       0x14 /workspace/optee_os/out/arm/export-ta_arm32/lib/libutee.a(utee_syscalls_a32.o)
                0x0000000000007fa8                utee_wait
 .text.utee_get_time
                0x0000000000007fbc       0x14 /workspace/optee_os/out/arm/export-ta_arm32/lib/libutee.a(utee_syscalls_a32.o)
                0x0000000000007fbc                utee_get_time
 .text.utee_set_ta_time
                0x0000000000007fd0       0x14 /workspace/optee_os/out/arm/export-ta_arm32/lib/libutee.a(utee_syscalls_a32.o)
                0x0000000000007fd0                utee_set_ta_time
 .text.utee_cryp_state_alloc
                0x0000000000007fe4       0x18 /workspace/optee_os/out/arm/export-ta_arm32/lib/libutee.a(utee_syscalls_a32.o)
                0x0000000000007fe4                utee_cryp_state_alloc
 .text.utee_cryp_state_copy
                0x0000000000007ffc       0x14 /workspace/optee_os/out/arm/export-ta_arm32/lib/libutee.a(utee_syscalls_a32.o)
                0x0000000000007ffc                utee_cryp_state_copy
 .text.utee_cryp_state_free
                0x0000000000008010       0x14 /workspace/optee_os/out/arm/export-ta_arm32/lib/libutee.a(utee_syscalls_a32.o)
                0x0000000000008010                utee_cryp_state_free
 .text.utee_hash_init
                0x0000000000008024       0x14 /workspace/optee_os/out/arm/export-ta_arm32/lib/libutee.a(utee_syscalls_a32.o)
                0x0000000000008024                utee_hash_init
 .text.utee_hash_update
                0x0000000000008038       0x14 /workspace/optee_os/out/arm/export-ta_arm32/lib/libutee.a(utee_syscalls_a32.o)
                0x0000000000008038                utee_hash_update
 .text.utee_hash_final
                0x000000000000804c       0x18 /workspace/optee_os/out/arm/export-ta_arm32/lib/libutee.a(utee_syscalls_a32.o)
                0x000000000000804c                utee_hash_final
 .text.utee_cipher_init
                0x0000000000008064       0x14 /workspace/optee_os/out/arm/export-ta_arm32/lib/libutee.a(utee_syscalls_a32.o)
                0x0000000000008064                utee_cipher_init
 .text.utee_cipher_update
                0x0000000000008078       0x18 /workspace/optee_os/out/arm/export-ta_arm32/lib/libutee.a(utee_syscalls_a32.o)
                0x0000000000008078                utee_cipher_update
 .text.utee_cipher_final
                0x0000000000008090       0x18 /workspace/optee_os/out/arm/export-ta_arm32/lib/libutee.a(utee_syscalls_a32.o)
                0x0000000000008090                utee_cipher_final
 .text.utee_cryp_obj_get_info
                0x00000000000080a8       0x14 /workspace/optee_os/out/arm/export-ta_arm32/lib/libutee.a(utee_syscalls_a32.o)
                0x00000000000080a8                utee_cryp_obj_get_info
 .text.utee_cryp_obj_restrict_usage
                0x00000000000080bc       0x14 /workspace/optee_os/out/arm/export-ta_arm32/lib/libutee.a(utee_syscalls_a32.o)
                0x00000000000080bc                utee_cryp_obj_restrict_usage
 .text.utee_cryp_obj_get_attr
                0x00000000000080d0       0x14 /workspace/optee_os/out/arm/export-ta_arm32/lib/libutee.a(utee_syscalls_a32.o)
                0x00000000000080d0                utee_cryp_obj_get_attr
 .text.utee_cryp_obj_alloc
                0x00000000000080e4       0x14 /workspace/optee_os/out/arm/export-ta_arm32/lib/libutee.a(utee_syscalls_a32.o)
                0x00000000000080e4                utee_cryp_obj_alloc
 .text.utee_cryp_obj_close
                0x00000000000080f8       0x14 /workspace/optee_os/out/arm/export-ta_arm32/lib/libutee.a(utee_syscalls_a32.o)
                0x00000000000080f8                utee_cryp_obj_close
 .text.utee_cryp_obj_reset
                0x000000000000810c       0x14 /workspace/optee_os/out/arm/export-ta_arm32/lib/libutee.a(utee_syscalls_a32.o)
                0x000000000000810c                utee_cryp_obj_reset
 .text.utee_cryp_obj_populate
                0x0000000000008120       0x14 /workspace/optee_os/out/arm/export-ta_arm32/lib/libutee.a(utee_syscalls_a32.o)
                0x0000000000008120                utee_cryp_obj_populate
 .text.utee_cryp_obj_copy
                0x0000000000008134       0x14 /workspace/optee_os/out/arm/export-ta_arm32/lib/libutee.a(utee_syscalls_a32.o)
                0x0000000000008134                utee_cryp_obj_copy
 .text.utee_cryp_derive_key
                0x0000000000008148       0x14 /workspace/optee_os/out/arm/export-ta_arm32/lib/libutee.a(utee_syscalls_a32.o)
                0x0000000000008148                utee_cryp_derive_key
 .text.utee_cryp_random_number_generate
                0x000000000000815c       0x14 /workspace/optee_os/out/arm/export-ta_arm32/lib/libutee.a(utee_syscalls_a32.o)
                0x000000000000815c                utee_cryp_random_number_generate
 .text.utee_authenc_init
                0x0000000000008170       0x18 /workspace/optee_os/out/arm/export-ta_arm32/lib/libutee.a(utee_syscalls_a32.o)
                0x0000000000008170                utee_authenc_init
 .text.utee_authenc_update_aad
                0x0000000000008188       0x14 /workspace/optee_os/out/arm/export-ta_arm32/lib/libutee.a(utee_syscalls_a32.o)
                0x0000000000008188                utee_authenc_update_aad
 .text.utee_authenc_update_payload
                0x000000000000819c       0x18 /workspace/optee_os/out/arm/export-ta_arm32/lib/libutee.a(utee_syscalls_a32.o)
                0x000000000000819c                utee_authenc_update_payload
 .text.utee_authenc_enc_final
                0x00000000000081b4       0x18 /workspace/optee_os/out/arm/export-ta_arm32/lib/libutee.a(utee_syscalls_a32.o)
                0x00000000000081b4                utee_authenc_enc_final
 .text.utee_authenc_dec_final
                0x00000000000081cc       0x18 /workspace/optee_os/out/arm/export-ta_arm32/lib/libutee.a(utee_syscalls_a32.o)
                0x00000000000081cc                utee_authenc_dec_final
 .text.utee_asymm_operate
                0x00000000000081e4       0x18 /workspace/optee_os/out/arm/export-ta_arm32/lib/libutee.a(utee_syscalls_a32.o)
                0x00000000000081e4                utee_asymm_operate
 .text.utee_asymm_verify
                0x00000000000081fc       0x18 /workspace/optee_os/out/arm/export-ta_arm32/lib/libutee.a(utee_syscalls_a32.o)
                0x00000000000081fc                utee_asymm_verify
 .text.utee_storage_obj_open
                0x0000000000008214       0x18 /workspace/optee_os/out/arm/export-ta_arm32/lib/libutee.a(utee_syscalls_a32.o)
                0x0000000000008214                utee_storage_obj_open
 .text.utee_storage_obj_create
                0x000000000000822c       0x18 /workspace/optee_os/out/arm/export-ta_arm32/lib/libutee.a(utee_syscalls_a32.o)
                0x000000000000822c                utee_storage_obj_create
 .text.utee_storage_obj_del
                0x0000000000008244       0x14 /workspace/optee_os/out/arm/export-ta_arm32/lib/libutee.a(utee_syscalls_a32.o)
                0x0000000000008244                utee_storage_obj_del
 .text.utee_storage_obj_rename
                0x0000000000008258       0x14 /workspace/optee_os/out/arm/export-ta_arm32/lib/libutee.a(utee_syscalls_a32.o)
                0x0000000000008258                utee_storage_obj_rename
 .text.utee_storage_alloc_enum
                0x000000000000826c       0x14 /workspace/optee_os/out/arm/export-ta_arm32/lib/libutee.a(utee_syscalls_a32.o)
                0x000000000000826c                utee_storage_alloc_enum
 .text.utee_storage_free_enum
                0x0000000000008280       0x14 /workspace/optee_os/out/arm/export-ta_arm32/lib/libutee.a(utee_syscalls_a32.o)
                0x0000000000008280                utee_storage_free_enum
 .text.utee_storage_reset_enum
                0x0000000000008294       0x14 /workspace/optee_os/out/arm/export-ta_arm32/lib/libutee.a(utee_syscalls_a32.o)
                0x0000000000008294                utee_storage_reset_enum
 .text.utee_storage_start_enum
                0x00000000000082a8       0x14 /workspace/optee_os/out/arm/export-ta_arm32/lib/libutee.a(utee_syscalls_a32.o)
                0x00000000000082a8                utee_storage_start_enum
 .text.utee_storage_next_enum
                0x00000000000082bc       0x14 /workspace/optee_os/out/arm/export-ta_arm32/lib/libutee.a(utee_syscalls_a32.o)
                0x00000000000082bc                utee_storage_next_enum
 .text.utee_storage_obj_read
                0x00000000000082d0       0x14 /workspace/optee_os/out/arm/export-ta_arm32/lib/libutee.a(utee_syscalls_a32.o)
                0x00000000000082d0                utee_storage_obj_read
 .text.utee_storage_obj_write
                0x00000000000082e4       0x14 /workspace/optee_os/out/arm/export-ta_arm32/lib/libutee.a(utee_syscalls_a32.o)
                0x00000000000082e4                utee_storage_obj_write
 .text.utee_storage_obj_trunc
                0x00000000000082f8       0x14 /workspace/optee_os/out/arm/export-ta_arm32/lib/libutee.a(utee_syscalls_a32.o)
                0x00000000000082f8                utee_storage_obj_trunc
 .text.utee_storage_obj_seek
                0x000000000000830c       0x14 /workspace/optee_os/out/arm/export-ta_arm32/lib/libutee.a(utee_syscalls_a32.o)
                0x000000000000830c                utee_storage_obj_seek
 .text.utee_cryp_obj_generate_key
                0x0000000000008320       0x14 /workspace/optee_os/out/arm/export-ta_arm32/lib/libutee.a(utee_syscalls_a32.o)
                0x0000000000008320                utee_cryp_obj_generate_key
 .text.utee_cache_operation
                0x0000000000008334       0x14 /workspace/optee_os/out/arm/export-ta_arm32/lib/libutee.a(utee_syscalls_a32.o)
                0x0000000000008334                utee_cache_operation
 .text.__utee_mcount
                0x0000000000008348        0xc /workspace/optee_os/out/arm/export-ta_arm32/lib/libutee.a(gprof_a32.o)
                0x0000000000008348                __utee_mcount
 .text          0x0000000000008354      0x2e4 /workspace/optee_os/out/arm/export-ta_arm32/lib/libutee.a(tee_api.o)
                0x0000000000008354                __utee_from_param
                0x00000000000083a4                __utee_to_param
                0x00000000000083e2                TEE_OpenTASession
                0x0000000000008426                TEE_CloseTASession
                0x000000000000843a                TEE_InvokeTACommand
                0x00000000000084a0                TEE_GetCancellationFlag
                0x00000000000084bc                TEE_UnmaskCancellation
                0x00000000000084d8                TEE_MaskCancellation
                0x00000000000084f4                TEE_CheckMemoryAccessRights
                0x00000000000084fe                TEE_SetInstanceData
                0x000000000000850c                TEE_GetInstanceData
                0x0000000000008518                TEE_MemMove
                0x000000000000851c                TEE_MemCompare
                0x0000000000008520                TEE_MemFill
                0x0000000000008524                TEE_GetSystemTime
                0x000000000000853a                TEE_Wait
                0x0000000000008558                TEE_GetTAPersistentTime
                0x0000000000008594                TEE_SetTAPersistentTime
                0x00000000000085bc                TEE_GetREETime
                0x00000000000085d2                TEE_Malloc
                0x000000000000861c                TEE_Realloc
                0x0000000000008620                TEE_Free
                0x0000000000008624                TEE_CacheClean
                0x000000000000862a                TEE_CacheFlush
                0x0000000000008630                TEE_CacheInvalidate
 .text          0x0000000000008638      0x78c /workspace/optee_os/out/arm/export-ta_arm32/lib/libutee.a(tee_api_objects.o)
                0x0000000000008638                __utee_from_attr
                0x0000000000008672                TEE_GetObjectInfo
                0x000000000000869c                TEE_GetObjectInfo1
                0x00000000000086bc                TEE_RestrictObjectUsage1
                0x00000000000086dc                TEE_RestrictObjectUsage
                0x0000000000008708                TEE_GetObjectBufferAttribute
                0x0000000000008778                TEE_GetObjectValueAttribute
                0x00000000000087fc                TEE_CloseObject
                0x0000000000008810                TEE_AllocateTransientObject
                0x0000000000008840                TEE_FreeTransientObject
                0x0000000000008870                TEE_ResetTransientObject
                0x00000000000088a0                TEE_PopulateTransientObject
                0x0000000000008910                TEE_InitRefAttribute
                0x0000000000008932                TEE_InitValueAttribute
                0x0000000000008954                TEE_CopyObjectAttributes1
                0x00000000000089bc                TEE_CopyObjectAttributes
                0x00000000000089ec                TEE_GenerateKey
                0x0000000000008a34                TEE_OpenPersistentObject
                0x0000000000008a98                TEE_CreatePersistentObject
                0x0000000000008b30                TEE_CloseAndDeletePersistentObject1
                0x0000000000008b54                TEE_CloseAndDeletePersistentObject
                0x0000000000008b6a                TEE_RenamePersistentObject
                0x0000000000008bb0                TEE_AllocatePersistentObjectEnumerator
                0x0000000000008be8                TEE_FreePersistentObjectEnumerator
                0x0000000000008bfc                TEE_ResetPersistentObjectEnumerator
                0x0000000000008c10                TEE_StartPersistentObjectEnumerator
                0x0000000000008c3c                TEE_GetNextPersistentObject
                0x0000000000008c90                TEE_ReadObjectData
                0x0000000000008cd0                TEE_WriteObjectData
                0x0000000000008d10                TEE_TruncateObjectData
                0x0000000000008d48                TEE_SeekObjectData
 .text          0x0000000000008dc4     0x1014 /workspace/optee_os/out/arm/export-ta_arm32/lib/libutee.a(tee_api_arith_mpi.o)
                0x0000000000009370                _TEE_MathAPI_Init
                0x00000000000093b4                TEE_BigIntInit
                0x00000000000093f4                TEE_BigIntConvertFromOctetString
                0x0000000000009434                TEE_BigIntConvertToOctetString
                0x000000000000948c                TEE_BigIntConvertFromS32
                0x00000000000094c4                TEE_BigIntConvertToS32
                0x000000000000951c                TEE_BigIntCmp
                0x0000000000009550                TEE_BigIntCmpS32
                0x0000000000009660                TEE_BigIntShiftRight
                0x0000000000009754                TEE_BigIntGetBit
                0x000000000000977e                TEE_BigIntGetBitCount
                0x00000000000097a0                TEE_BigIntAdd
                0x00000000000097bc                TEE_BigIntSub
                0x00000000000097d8                TEE_BigIntNeg
                0x0000000000009830                TEE_BigIntMul
                0x00000000000098d4                TEE_BigIntSquare
                0x00000000000098da                TEE_BigIntDiv
                0x0000000000009988                TEE_BigIntMod
                0x00000000000099d8                TEE_BigIntAddMod
                0x00000000000099f4                TEE_BigIntSubMod
                0x0000000000009a10                TEE_BigIntMulMod
                0x0000000000009a2c                TEE_BigIntSquareMod
                0x0000000000009a34                TEE_BigIntInvMod
                0x0000000000009ad8                TEE_BigIntRelativePrime
                0x0000000000009b54                TEE_BigIntComputeExtendedGcd
                0x0000000000009ca8                TEE_BigIntIsProbablePrime
                0x0000000000009cd8                TEE_BigIntInitFMM
                0x0000000000009cdc                TEE_BigIntInitFMMContext
                0x0000000000009cde                TEE_BigIntFMMSizeInU32
                0x0000000000009ce6                TEE_BigIntFMMContextSizeInU32
                0x0000000000009cea                TEE_BigIntConvertToFMM
                0x0000000000009cee                TEE_BigIntConvertFromFMM
                0x0000000000009d38                TEE_BigIntComputeFMM
 .text.unlikely
                0x0000000000009dd8       0x20 /workspace/optee_os/out/arm/export-ta_arm32/lib/libutee.a(tee_api_arith_mpi.o)
 .text          0x0000000000009df8     0x2800 /workspace/optee_os/out/arm/export-ta_arm32/lib/libmbedtls.a(bignum.o)
                0x000000000000a368                mbedtls_mpi_init
                0x000000000000a37a                mbedtls_mpi_init_mempool
                0x000000000000a3a0                mbedtls_mpi_init_static
                0x000000000000a3b2                mbedtls_mpi_free
                0x000000000000a400                mbedtls_mpi_grow
                0x000000000000a4a8                mbedtls_mpi_shrink
                0x000000000000a574                mbedtls_mpi_copy
                0x000000000000a5ca                mbedtls_mpi_swap
                0x000000000000a5f8                mbedtls_mpi_safe_cond_assign
                0x000000000000a664                mbedtls_mpi_safe_cond_swap
                0x000000000000a6ea                mbedtls_mpi_lset
                0x000000000000a722                mbedtls_mpi_get_bit
                0x000000000000a742                mbedtls_mpi_set_bit
                0x000000000000a792                mbedtls_mpi_lsb
                0x000000000000a7c0                mbedtls_mpi_bitlen
                0x000000000000a802                mbedtls_mpi_size
                0x000000000000a80e                mbedtls_mpi_read_binary
                0x000000000000a874                mbedtls_mpi_write_binary
                0x000000000000a8ba                mbedtls_mpi_shift_l
                0x000000000000a952                mbedtls_mpi_shift_r
                0x000000000000a9ca                mbedtls_mpi_cmp_abs
                0x000000000000aa38                mbedtls_mpi_cmp_mpi
                0x000000000000aace                mbedtls_mpi_cmp_int
                0x000000000000aafe                mbedtls_mpi_add_abs
                0x000000000000abba                mbedtls_mpi_sub_abs
                0x000000000000ac3a                mbedtls_mpi_add_mpi
                0x000000000000ac82                mbedtls_mpi_sub_mpi
                0x000000000000acce                mbedtls_mpi_add_int
                0x000000000000acfe                mbedtls_mpi_sub_int
                0x000000000000ad2e                mbedtls_mpi_mul_mpi
                0x000000000000ae0a                mbedtls_mpi_mul_int
                0x000000000000ae28                mbedtls_mpi_read_string
                0x000000000000af54                mbedtls_mpi_div_mpi
                0x000000000000b2f6                mbedtls_mpi_div_int
                0x000000000000b324                mbedtls_mpi_mod_mpi
                0x000000000000b388                mbedtls_mpi_mod_int
                0x000000000000b42e                mbedtls_mpi_write_string
                0x000000000000b5b8                mbedtls_mpi_montg_init
                0x000000000000b5e0                mbedtls_mpi_montmul
                0x000000000000b6a4                mbedtls_mpi_montred
                0x000000000000b6c8                mbedtls_mpi_exp_mod
                0x000000000000bb0e                mbedtls_mpi_gcd
                0x000000000000bc22                mbedtls_mpi_fill_random
                0x000000000000be6a                mbedtls_mpi_inv_mod
                0x000000000000c13a                mbedtls_mpi_is_prime
                0x000000000000c196                mbedtls_mpi_gen_prime
                0x000000000000c2cc                mbedtls_mpi_self_test
 .text          0x000000000000c5f8      0x104 /workspace/optee_os/out/arm/export-ta_arm32/lib/libutils.a(mempool.o)
                0x000000000000c5f8                mempool_alloc_pool
                0x000000000000c63c                mempool_alloc
                0x000000000000c6a8                mempool_calloc
                0x000000000000c6cc                mempool_free
 .text          0x000000000000c6fc      0x100 ./col2im_TA.o
                0x000000000000c6fc                col2im_add_pixel_TA
                0x000000000000c734                col2im_cpu_TA
 .text          0x000000000000c7fc        0x4 ./user_ta_header.o
                0x000000000000c7fc                tahead_get_trace_level
 .text          0x000000000000c800       0x16 /workspace/optee_os/out/arm/export-ta_arm32/lib/libutils.a(memcpy.o)
                0x000000000000c800                memcpy
 .text          0x000000000000c816       0x10 /workspace/optee_os/out/arm/export-ta_arm32/lib/libutils.a(memset.o)
                0x000000000000c816                memset
 .text          0x000000000000c826       0x1a /workspace/optee_os/out/arm/export-ta_arm32/lib/libutils.a(strcmp.o)
                0x000000000000c826                strcmp
 .text          0x000000000000c840       0x24 /workspace/optee_os/out/arm/export-ta_arm32/lib/libutils.a(strncmp.o)
                0x000000000000c840                strncmp
 .text          0x000000000000c864        0x6 /workspace/optee_os/out/arm/export-ta_arm32/lib/libutils.a(aeabi_unwind.o)
                0x000000000000c864                __aeabi_unwind_cpp_pr0
                0x000000000000c866                __aeabi_unwind_cpp_pr1
                0x000000000000c868                __aeabi_unwind_cpp_pr2
 .text          0x000000000000c86a       0x1c /workspace/optee_os/out/arm/export-ta_arm32/lib/libutils.a(memchr.o)
                0x000000000000c86a                memchr
 .text          0x000000000000c886       0x10 /workspace/optee_os/out/arm/export-ta_arm32/lib/libutils.a(strlen.o)
                0x000000000000c886                strlen
 .text          0x000000000000c896      0x160 /workspace/optee_os/out/arm/export-ta_arm32/lib/libutils.a(arm32_aeabi_ldivmod.o)
                0x000000000000c896                __ul_divmod
                0x000000000000c90a                __l_divmod
 .text          0x000000000000c9f6        0x4 /workspace/optee_os/out/arm/export-ta_arm32/lib/libutee.a(tee_api_panic.o)
                0x000000000000c9f6                TEE_Panic
 .text          0x000000000000c9fa       0x2c /workspace/optee_os/out/arm/export-ta_arm32/lib/libutils.a(snprintf.o)
                0x000000000000c9fa                snprintf
                0x000000000000ca18                vsnprintf
 .text          0x000000000000ca26       0x1e /workspace/optee_os/out/arm/export-ta_arm32/lib/libutils.a(memcmp.o)
                0x000000000000ca26                memcmp
 .text          0x000000000000ca44       0x34 /workspace/optee_os/out/arm/export-ta_arm32/lib/libutils.a(memmove.o)
                0x000000000000ca44                memmove
 .text          0x000000000000ca78       0x2c /workspace/optee_os/out/arm/export-ta_arm32/lib/libutils.a(buf_compare_ct.o)
                0x000000000000ca78                buf_compare_ct
 .text          0x000000000000caa4        0x0 /workspace/optee_os/out/arm/export-ta_arm32/lib/libutils.a(arm32_aeabi_ldivmod_a32.o)
 .text          0x000000000000caa4        0x0 /workspace/optee_os/out/arm/export-ta_arm32/lib/libutee.a(gprof_a32.o)
 *fill*         0x000000000000caa4        0x4 
 .text.__stub   0x000000000000caa8       0x40 linker stubs
 *(SORT(.stub))
 *(SORT(.glue_7))
 .glue_7        0x000000000000cae8        0x0 linker stubs
 *(SORT(.glue_7t))
 .glue_7t       0x000000000000cae8        0x0 linker stubs
 *(SORT(.gnu.linkonce.t.*))
 *(SORT(.vfp11_veneer))
 .vfp11_veneer  0x000000000000cae8        0x0 linker stubs
                [!provide]                        PROVIDE (__gnu_mcount_nc, __utee_mcount)
                0x000000000000cae8                __text_end = .

.v4_bx          0x000000000000cae8        0x0
 .v4_bx         0x000000000000cae8        0x0 linker stubs

.iplt           0x000000000000cae8        0x0
 .iplt          0x000000000000cae8        0x0 ./darknetp_ta.o

.plt            0x000000000000cae8        0x0
 *(SORT(.plt))
 .plt           0x000000000000cae8        0x0 ./darknetp_ta.o

.eh_frame
 *(SORT(.eh_frame))

.rodata         0x000000000000cae8     0x15e6
 *(SORT(.gnu.linkonce.r.*))
 *(SORT(.rodata) SORT(.rodata.*))
 .rodata.user_ta_header.c
                0x000000000000cae8       0x1b ./user_ta_header.o
                0x000000000000cae8                ta_num_props
                0x000000000000cafc                ta_heap_size
                0x000000000000cb00                trace_ext_prefix
 *fill*         0x000000000000cb03        0x1 
 .rodata.lib/libmbedtls/mbedtls/library/bignum.c
                0x000000000000cb04      0x2c4 /workspace/optee_os/out/arm/export-ta_arm32/lib/libmbedtls.a(bignum.o)
 .rodata.darknetp_ta.c
                0x000000000000cdc8       0x6a ./darknetp_ta.o
 .rodata.str1.1.darknetp_ta.c
                0x000000000000ce32      0x18e ./darknetp_ta.o
 .rodata.softmax_layer_TA.c
                0x000000000000cfc0       0x1a ./softmax_layer_TA.o
 .rodata.str1.1.softmax_layer_TA.c
                0x000000000000cfda       0x26 ./softmax_layer_TA.o
 .rodata.parser_TA.c
                0x000000000000d000       0x2b ./parser_TA.o
 .rodata.str1.1.parser_TA.c
                0x000000000000d02b       0x23 ./parser_TA.o
 .rodata.str1.1.activations_TA.c
                0x000000000000d04e       0x4f ./activations_TA.o
                                         0x53 (size before relaxing)
 .rodata.network_TA.c
                0x000000000000d09d       0x15 ./network_TA.o
 .rodata.str1.1.network_TA.c
                0x000000000000d0b2       0x55 ./network_TA.o
 .rodata.aes_TA.c
                0x000000000000d107      0x20b ./aes_TA.o
 .rodata.cost_layer_TA.c
                0x000000000000d312       0x11 ./cost_layer_TA.o
 .rodata.str1.1.cost_layer_TA.c
                0x000000000000d323       0x4a ./cost_layer_TA.o
 .rodata.str1.1.user_ta_header.c
                0x000000000000d36d       0xfc ./user_ta_header.o
 .rodata.lib/libutils/isoc/bget_malloc.c
                0x000000000000d469       0x8a /workspace/optee_os/out/arm/export-ta_arm32/lib/libutils.a(bget_malloc.o)
 .rodata.str1.1.lib/libutils/isoc/bget_malloc.c
                0x000000000000d4f3      0x406 /workspace/optee_os/out/arm/export-ta_arm32/lib/libutils.a(bget_malloc.o)
                                        0x411 (size before relaxing)
 .rodata.lib/libutils/ext/trace.c
                0x000000000000d8f9        0xf /workspace/optee_os/out/arm/export-ta_arm32/lib/libutils.a(trace.o)
 .rodata.str1.1.lib/libutils/ext/trace.c
                0x000000000000d908       0x3a /workspace/optee_os/out/arm/export-ta_arm32/lib/libutils.a(trace.o)
                                         0x3d (size before relaxing)
 .rodata.lib/libutils/ext/snprintk.c
                0x000000000000d942       0x22 /workspace/optee_os/out/arm/export-ta_arm32/lib/libutils.a(snprintk.o)
 .rodata.str1.1.lib/libutils/ext/snprintk.c
                0x000000000000d964       0x38 /workspace/optee_os/out/arm/export-ta_arm32/lib/libutils.a(snprintk.o)
 .rodata.str1.1.lib/libutee/trace_ext.c
                0x000000000000d99c       0x38 /workspace/optee_os/out/arm/export-ta_arm32/lib/libutee.a(trace_ext.o)
                                          0x2 (size before relaxing)
 .rodata.str1.1.lib/libutee/assert.c
                0x000000000000d99c       0x27 /workspace/optee_os/out/arm/export-ta_arm32/lib/libutee.a(assert.o)
 .rodata.lib/libutee/tee_api.c
                0x000000000000d9c3        0xb /workspace/optee_os/out/arm/export-ta_arm32/lib/libutee.a(tee_api.o)
 .rodata.str1.1.lib/libutee/tee_api.c
                0x000000000000d9ce       0x11 /workspace/optee_os/out/arm/export-ta_arm32/lib/libutee.a(tee_api.o)
 .rodata.lib/libutee/tee_api_arith_mpi.c
                0x000000000000d9df      0x143 /workspace/optee_os/out/arm/export-ta_arm32/lib/libutee.a(tee_api_arith_mpi.o)
 .rodata.str1.1.lib/libutee/tee_api_arith_mpi.c
                0x000000000000db22       0xb7 /workspace/optee_os/out/arm/export-ta_arm32/lib/libutee.a(tee_api_arith_mpi.o)
 .rodata.str1.1.lib/libmbedtls/mbedtls/library/bignum.c
                0x000000000000dbd9      0x45d /workspace/optee_os/out/arm/export-ta_arm32/lib/libmbedtls.a(bignum.o)
 .rodata.lib/libutils/ext/mempool.c
                0x000000000000e036       0x21 /workspace/optee_os/out/arm/export-ta_arm32/lib/libutils.a(mempool.o)
 .rodata.str1.1.lib/libutils/ext/mempool.c
                0x000000000000e057       0x77 /workspace/optee_os/out/arm/export-ta_arm32/lib/libutils.a(mempool.o)

.ARM.extab      0x000000000000e0d0      0x2ec
 .ARM.extab     0x000000000000e0d0       0x24 ./darknetp_ta.o
 .ARM.extab     0x000000000000e0f4       0x3c ./blas_TA.o
 .ARM.extab     0x000000000000e130        0xc ./softmax_layer_TA.o
 .ARM.extab     0x000000000000e13c        0x0 ./col2im_TA.o
 .ARM.extab     0x000000000000e13c       0x30 ./connected_layer_TA.o
 .ARM.extab     0x000000000000e16c       0x84 ./math_TA.o
 .ARM.extab     0x000000000000e1f0        0x0 ./parser_TA.o
 .ARM.extab     0x000000000000e1f0       0x18 ./activations_TA.o
 .ARM.extab     0x000000000000e208        0x0 ./gemm_TA.o
 .ARM.extab     0x000000000000e208        0x0 ./maxpool_layer_TA.o
 .ARM.extab     0x000000000000e208       0x24 ./network_TA.o
 .ARM.extab     0x000000000000e22c        0x0 ./aes_TA.o
 .ARM.extab     0x000000000000e22c        0xc ./cost_layer_TA.o
 .ARM.extab     0x000000000000e238        0x0 ./im2col_TA.o
 .ARM.extab     0x000000000000e238       0x24 ./batchnorm_layer_TA.o
 .ARM.extab     0x000000000000e25c       0x18 ./dropout_layer_TA.o
 .ARM.extab     0x000000000000e274       0x34 ./convolutional_layer_TA.o
 .ARM.extab     0x000000000000e2a8        0x0 ./avgpool_layer_TA.o
 .ARM.extab     0x000000000000e2a8       0x18 ./utils_TA.o
 .ARM.extab     0x000000000000e2c0        0x0 ./diffprivate_TA.o
 .ARM.extab     0x000000000000e2c0        0x0 ./user_ta_header.o
 .ARM.extab     0x000000000000e2c0       0x18 /workspace/optee_os/out/arm/export-ta_arm32/lib/libutils.a(bget_malloc.o)
 .ARM.extab     0x000000000000e2d8        0x0 /workspace/optee_os/out/arm/export-ta_arm32/lib/libutils.a(memcpy.o)
 .ARM.extab     0x000000000000e2d8        0x0 /workspace/optee_os/out/arm/export-ta_arm32/lib/libutils.a(memset.o)
 .ARM.extab     0x000000000000e2d8        0x0 /workspace/optee_os/out/arm/export-ta_arm32/lib/libutils.a(strcmp.o)
 .ARM.extab     0x000000000000e2d8        0x0 /workspace/optee_os/out/arm/export-ta_arm32/lib/libutils.a(strncmp.o)
 .ARM.extab     0x000000000000e2d8        0xc /workspace/optee_os/out/arm/export-ta_arm32/lib/libutils.a(trace.o)
 .ARM.extab     0x000000000000e2e4        0x0 /workspace/optee_os/out/arm/export-ta_arm32/lib/libutils.a(aeabi_unwind.o)
 .ARM.extab     0x000000000000e2e4        0xc /workspace/optee_os/out/arm/export-ta_arm32/lib/libutils.a(snprintk.o)
 .ARM.extab     0x000000000000e2f0        0x0 /workspace/optee_os/out/arm/export-ta_arm32/lib/libutils.a(memchr.o)
 .ARM.extab     0x000000000000e2f0        0x0 /workspace/optee_os/out/arm/export-ta_arm32/lib/libutils.a(strlen.o)
 .ARM.extab     0x000000000000e2f0        0x0 /workspace/optee_os/out/arm/export-ta_arm32/lib/libutils.a(arm32_aeabi_ldivmod.o)
 .ARM.extab     0x000000000000e2f0        0xc /workspace/optee_os/out/arm/export-ta_arm32/lib/libutee.a(trace_ext.o)
 .ARM.extab     0x000000000000e2fc        0xc /workspace/optee_os/out/arm/export-ta_arm32/lib/libutee.a(assert.o)
 .ARM.extab     0x000000000000e308        0xc /workspace/optee_os/out/arm/export-ta_arm32/lib/libutee.a(tee_api_operations.o)
 .ARM.extab     0x000000000000e314        0x0 /workspace/optee_os/out/arm/export-ta_arm32/lib/libutee.a(tee_api_panic.o)
 .ARM.extab     0x000000000000e314        0x0 /workspace/optee_os/out/arm/export-ta_arm32/lib/libutee.a(user_ta_entry.o)
 .ARM.extab     0x000000000000e314       0x24 /workspace/optee_os/out/arm/export-ta_arm32/lib/libutee.a(tee_api.o)
 .ARM.extab     0x000000000000e338       0x30 /workspace/optee_os/out/arm/export-ta_arm32/lib/libutee.a(tee_api_objects.o)
 .ARM.extab     0x000000000000e368       0x24 /workspace/optee_os/out/arm/export-ta_arm32/lib/libutee.a(tee_api_arith_mpi.o)
 .ARM.extab     0x000000000000e38c       0x24 /workspace/optee_os/out/arm/export-ta_arm32/lib/libmbedtls.a(bignum.o)
 .ARM.extab     0x000000000000e3b0        0xc /workspace/optee_os/out/arm/export-ta_arm32/lib/libutils.a(snprintf.o)
 .ARM.extab     0x000000000000e3bc        0x0 /workspace/optee_os/out/arm/export-ta_arm32/lib/libutils.a(memcmp.o)
 .ARM.extab     0x000000000000e3bc        0x0 /workspace/optee_os/out/arm/export-ta_arm32/lib/libutils.a(memmove.o)
 .ARM.extab     0x000000000000e3bc        0x0 /workspace/optee_os/out/arm/export-ta_arm32/lib/libutils.a(buf_compare_ct.o)
 .ARM.extab     0x000000000000e3bc        0x0 /workspace/optee_os/out/arm/export-ta_arm32/lib/libutils.a(mempool.o)

.gnu.version_d  0x000000000000e3bc        0x0
 .gnu.version_d
                0x000000000000e3bc        0x0 ./darknetp_ta.o

.gnu.version    0x000000000000e3bc        0x0
 .gnu.version   0x000000000000e3bc        0x0 ./darknetp_ta.o

.gnu.version_r  0x000000000000e3bc        0x0
 .gnu.version_r
                0x000000000000e3bc        0x0 ./darknetp_ta.o

.ARM.extab.text.__aeabi_ldivmod
                0x000000000000e3bc        0xc
 .ARM.extab.text.__aeabi_ldivmod
                0x000000000000e3bc        0xc /workspace/optee_os/out/arm/export-ta_arm32/lib/libutils.a(arm32_aeabi_ldivmod_a32.o)

.ARM.extab.text.__aeabi_uldivmod
                0x000000000000e3c8        0xc
 .ARM.extab.text.__aeabi_uldivmod
                0x000000000000e3c8        0xc /workspace/optee_os/out/arm/export-ta_arm32/lib/libutils.a(arm32_aeabi_ldivmod_a32.o)

.ARM.extab.text.utee_panic
                0x000000000000e3d4        0xc
 .ARM.extab.text.utee_panic
                0x000000000000e3d4        0xc /workspace/optee_os/out/arm/export-ta_arm32/lib/libutee.a(utee_syscalls_a32.o)

.ARM.extab.text.utee_return
                0x000000000000e3e0        0x0
 .ARM.extab.text.utee_return
                0x000000000000e3e0        0x0 /workspace/optee_os/out/arm/export-ta_arm32/lib/libutee.a(utee_syscalls_a32.o)

.ARM.extab.text.utee_log
                0x000000000000e3e0        0x0
 .ARM.extab.text.utee_log
                0x000000000000e3e0        0x0 /workspace/optee_os/out/arm/export-ta_arm32/lib/libutee.a(utee_syscalls_a32.o)

.ARM.extab.text.__utee_panic
                0x000000000000e3e0        0x0
 .ARM.extab.text.__utee_panic
                0x000000000000e3e0        0x0 /workspace/optee_os/out/arm/export-ta_arm32/lib/libutee.a(utee_syscalls_a32.o)

.ARM.extab.text.utee_get_property
                0x000000000000e3e0        0x0
 .ARM.extab.text.utee_get_property
                0x000000000000e3e0        0x0 /workspace/optee_os/out/arm/export-ta_arm32/lib/libutee.a(utee_syscalls_a32.o)

.ARM.extab.text.utee_get_property_name_to_index
                0x000000000000e3e0        0x0
 .ARM.extab.text.utee_get_property_name_to_index
                0x000000000000e3e0        0x0 /workspace/optee_os/out/arm/export-ta_arm32/lib/libutee.a(utee_syscalls_a32.o)

.ARM.extab.text.utee_open_ta_session
                0x000000000000e3e0        0x0
 .ARM.extab.text.utee_open_ta_session
                0x000000000000e3e0        0x0 /workspace/optee_os/out/arm/export-ta_arm32/lib/libutee.a(utee_syscalls_a32.o)

.ARM.extab.text.utee_close_ta_session
                0x000000000000e3e0        0x0
 .ARM.extab.text.utee_close_ta_session
                0x000000000000e3e0        0x0 /workspace/optee_os/out/arm/export-ta_arm32/lib/libutee.a(utee_syscalls_a32.o)

.ARM.extab.text.utee_invoke_ta_command
                0x000000000000e3e0        0x0
 .ARM.extab.text.utee_invoke_ta_command
                0x000000000000e3e0        0x0 /workspace/optee_os/out/arm/export-ta_arm32/lib/libutee.a(utee_syscalls_a32.o)

.ARM.extab.text.utee_get_cancellation_flag
                0x000000000000e3e0        0x0
 .ARM.extab.text.utee_get_cancellation_flag
                0x000000000000e3e0        0x0 /workspace/optee_os/out/arm/export-ta_arm32/lib/libutee.a(utee_syscalls_a32.o)

.ARM.extab.text.utee_check_access_rights
                0x000000000000e3e0        0x0
 .ARM.extab.text.utee_check_access_rights
                0x000000000000e3e0        0x0 /workspace/optee_os/out/arm/export-ta_arm32/lib/libutee.a(utee_syscalls_a32.o)

.ARM.extab.text.utee_unmask_cancellation
                0x000000000000e3e0        0x0
 .ARM.extab.text.utee_unmask_cancellation
                0x000000000000e3e0        0x0 /workspace/optee_os/out/arm/export-ta_arm32/lib/libutee.a(utee_syscalls_a32.o)

.ARM.extab.text.utee_mask_cancellation
                0x000000000000e3e0        0x0
 .ARM.extab.text.utee_mask_cancellation
                0x000000000000e3e0        0x0 /workspace/optee_os/out/arm/export-ta_arm32/lib/libutee.a(utee_syscalls_a32.o)

.ARM.extab.text.utee_wait
                0x000000000000e3e0        0x0
 .ARM.extab.text.utee_wait
                0x000000000000e3e0        0x0 /workspace/optee_os/out/arm/export-ta_arm32/lib/libutee.a(utee_syscalls_a32.o)

.ARM.extab.text.utee_get_time
                0x000000000000e3e0        0x0
 .ARM.extab.text.utee_get_time
                0x000000000000e3e0        0x0 /workspace/optee_os/out/arm/export-ta_arm32/lib/libutee.a(utee_syscalls_a32.o)

.ARM.extab.text.utee_set_ta_time
                0x000000000000e3e0        0x0
 .ARM.extab.text.utee_set_ta_time
                0x000000000000e3e0        0x0 /workspace/optee_os/out/arm/export-ta_arm32/lib/libutee.a(utee_syscalls_a32.o)

.ARM.extab.text.utee_cryp_state_alloc
                0x000000000000e3e0        0x0
 .ARM.extab.text.utee_cryp_state_alloc
                0x000000000000e3e0        0x0 /workspace/optee_os/out/arm/export-ta_arm32/lib/libutee.a(utee_syscalls_a32.o)

.ARM.extab.text.utee_cryp_state_copy
                0x000000000000e3e0        0x0
 .ARM.extab.text.utee_cryp_state_copy
                0x000000000000e3e0        0x0 /workspace/optee_os/out/arm/export-ta_arm32/lib/libutee.a(utee_syscalls_a32.o)

.ARM.extab.text.utee_cryp_state_free
                0x000000000000e3e0        0x0
 .ARM.extab.text.utee_cryp_state_free
                0x000000000000e3e0        0x0 /workspace/optee_os/out/arm/export-ta_arm32/lib/libutee.a(utee_syscalls_a32.o)

.ARM.extab.text.utee_hash_init
                0x000000000000e3e0        0x0
 .ARM.extab.text.utee_hash_init
                0x000000000000e3e0        0x0 /workspace/optee_os/out/arm/export-ta_arm32/lib/libutee.a(utee_syscalls_a32.o)

.ARM.extab.text.utee_hash_update
                0x000000000000e3e0        0x0
 .ARM.extab.text.utee_hash_update
                0x000000000000e3e0        0x0 /workspace/optee_os/out/arm/export-ta_arm32/lib/libutee.a(utee_syscalls_a32.o)

.ARM.extab.text.utee_hash_final
                0x000000000000e3e0        0x0
 .ARM.extab.text.utee_hash_final
                0x000000000000e3e0        0x0 /workspace/optee_os/out/arm/export-ta_arm32/lib/libutee.a(utee_syscalls_a32.o)

.ARM.extab.text.utee_cipher_init
                0x000000000000e3e0        0x0
 .ARM.extab.text.utee_cipher_init
                0x000000000000e3e0        0x0 /workspace/optee_os/out/arm/export-ta_arm32/lib/libutee.a(utee_syscalls_a32.o)

.ARM.extab.text.utee_cipher_update
                0x000000000000e3e0        0x0
 .ARM.extab.text.utee_cipher_update
                0x000000000000e3e0        0x0 /workspace/optee_os/out/arm/export-ta_arm32/lib/libutee.a(utee_syscalls_a32.o)

.ARM.extab.text.utee_cipher_final
                0x000000000000e3e0        0x0
 .ARM.extab.text.utee_cipher_final
                0x000000000000e3e0        0x0 /workspace/optee_os/out/arm/export-ta_arm32/lib/libutee.a(utee_syscalls_a32.o)

.ARM.extab.text.utee_cryp_obj_get_info
                0x000000000000e3e0        0x0
 .ARM.extab.text.utee_cryp_obj_get_info
                0x000000000000e3e0        0x0 /workspace/optee_os/out/arm/export-ta_arm32/lib/libutee.a(utee_syscalls_a32.o)

.ARM.extab.text.utee_cryp_obj_restrict_usage
                0x000000000000e3e0        0x0
 .ARM.extab.text.utee_cryp_obj_restrict_usage
                0x000000000000e3e0        0x0 /workspace/optee_os/out/arm/export-ta_arm32/lib/libutee.a(utee_syscalls_a32.o)

.ARM.extab.text.utee_cryp_obj_get_attr
                0x000000000000e3e0        0x0
 .ARM.extab.text.utee_cryp_obj_get_attr
                0x000000000000e3e0        0x0 /workspace/optee_os/out/arm/export-ta_arm32/lib/libutee.a(utee_syscalls_a32.o)

.ARM.extab.text.utee_cryp_obj_alloc
                0x000000000000e3e0        0x0
 .ARM.extab.text.utee_cryp_obj_alloc
                0x000000000000e3e0        0x0 /workspace/optee_os/out/arm/export-ta_arm32/lib/libutee.a(utee_syscalls_a32.o)

.ARM.extab.text.utee_cryp_obj_close
                0x000000000000e3e0        0x0
 .ARM.extab.text.utee_cryp_obj_close
                0x000000000000e3e0        0x0 /workspace/optee_os/out/arm/export-ta_arm32/lib/libutee.a(utee_syscalls_a32.o)

.ARM.extab.text.utee_cryp_obj_reset
                0x000000000000e3e0        0x0
 .ARM.extab.text.utee_cryp_obj_reset
                0x000000000000e3e0        0x0 /workspace/optee_os/out/arm/export-ta_arm32/lib/libutee.a(utee_syscalls_a32.o)

.ARM.extab.text.utee_cryp_obj_populate
                0x000000000000e3e0        0x0
 .ARM.extab.text.utee_cryp_obj_populate
                0x000000000000e3e0        0x0 /workspace/optee_os/out/arm/export-ta_arm32/lib/libutee.a(utee_syscalls_a32.o)

.ARM.extab.text.utee_cryp_obj_copy
                0x000000000000e3e0        0x0
 .ARM.extab.text.utee_cryp_obj_copy
                0x000000000000e3e0        0x0 /workspace/optee_os/out/arm/export-ta_arm32/lib/libutee.a(utee_syscalls_a32.o)

.ARM.extab.text.utee_cryp_derive_key
                0x000000000000e3e0        0x0
 .ARM.extab.text.utee_cryp_derive_key
                0x000000000000e3e0        0x0 /workspace/optee_os/out/arm/export-ta_arm32/lib/libutee.a(utee_syscalls_a32.o)

.ARM.extab.text.utee_cryp_random_number_generate
                0x000000000000e3e0        0x0
 .ARM.extab.text.utee_cryp_random_number_generate
                0x000000000000e3e0        0x0 /workspace/optee_os/out/arm/export-ta_arm32/lib/libutee.a(utee_syscalls_a32.o)

.ARM.extab.text.utee_authenc_init
                0x000000000000e3e0        0x0
 .ARM.extab.text.utee_authenc_init
                0x000000000000e3e0        0x0 /workspace/optee_os/out/arm/export-ta_arm32/lib/libutee.a(utee_syscalls_a32.o)

.ARM.extab.text.utee_authenc_update_aad
                0x000000000000e3e0        0x0
 .ARM.extab.text.utee_authenc_update_aad
                0x000000000000e3e0        0x0 /workspace/optee_os/out/arm/export-ta_arm32/lib/libutee.a(utee_syscalls_a32.o)

.ARM.extab.text.utee_authenc_update_payload
                0x000000000000e3e0        0x0
 .ARM.extab.text.utee_authenc_update_payload
                0x000000000000e3e0        0x0 /workspace/optee_os/out/arm/export-ta_arm32/lib/libutee.a(utee_syscalls_a32.o)

.ARM.extab.text.utee_authenc_enc_final
                0x000000000000e3e0        0x0
 .ARM.extab.text.utee_authenc_enc_final
                0x000000000000e3e0        0x0 /workspace/optee_os/out/arm/export-ta_arm32/lib/libutee.a(utee_syscalls_a32.o)

.ARM.extab.text.utee_authenc_dec_final
                0x000000000000e3e0        0x0
 .ARM.extab.text.utee_authenc_dec_final
                0x000000000000e3e0        0x0 /workspace/optee_os/out/arm/export-ta_arm32/lib/libutee.a(utee_syscalls_a32.o)

.ARM.extab.text.utee_asymm_operate
                0x000000000000e3e0        0x0
 .ARM.extab.text.utee_asymm_operate
                0x000000000000e3e0        0x0 /workspace/optee_os/out/arm/export-ta_arm32/lib/libutee.a(utee_syscalls_a32.o)

.ARM.extab.text.utee_asymm_verify
                0x000000000000e3e0        0x0
 .ARM.extab.text.utee_asymm_verify
                0x000000000000e3e0        0x0 /workspace/optee_os/out/arm/export-ta_arm32/lib/libutee.a(utee_syscalls_a32.o)

.ARM.extab.text.utee_storage_obj_open
                0x000000000000e3e0        0x0
 .ARM.extab.text.utee_storage_obj_open
                0x000000000000e3e0        0x0 /workspace/optee_os/out/arm/export-ta_arm32/lib/libutee.a(utee_syscalls_a32.o)

.ARM.extab.text.utee_storage_obj_create
                0x000000000000e3e0        0x0
 .ARM.extab.text.utee_storage_obj_create
                0x000000000000e3e0        0x0 /workspace/optee_os/out/arm/export-ta_arm32/lib/libutee.a(utee_syscalls_a32.o)

.ARM.extab.text.utee_storage_obj_del
                0x000000000000e3e0        0x0
 .ARM.extab.text.utee_storage_obj_del
                0x000000000000e3e0        0x0 /workspace/optee_os/out/arm/export-ta_arm32/lib/libutee.a(utee_syscalls_a32.o)

.ARM.extab.text.utee_storage_obj_rename
                0x000000000000e3e0        0x0
 .ARM.extab.text.utee_storage_obj_rename
                0x000000000000e3e0        0x0 /workspace/optee_os/out/arm/export-ta_arm32/lib/libutee.a(utee_syscalls_a32.o)

.ARM.extab.text.utee_storage_alloc_enum
                0x000000000000e3e0        0x0
 .ARM.extab.text.utee_storage_alloc_enum
                0x000000000000e3e0        0x0 /workspace/optee_os/out/arm/export-ta_arm32/lib/libutee.a(utee_syscalls_a32.o)

.ARM.extab.text.utee_storage_free_enum
                0x000000000000e3e0        0x0
 .ARM.extab.text.utee_storage_free_enum
                0x000000000000e3e0        0x0 /workspace/optee_os/out/arm/export-ta_arm32/lib/libutee.a(utee_syscalls_a32.o)

.ARM.extab.text.utee_storage_reset_enum
                0x000000000000e3e0        0x0
 .ARM.extab.text.utee_storage_reset_enum
                0x000000000000e3e0        0x0 /workspace/optee_os/out/arm/export-ta_arm32/lib/libutee.a(utee_syscalls_a32.o)

.ARM.extab.text.utee_storage_start_enum
                0x000000000000e3e0        0x0
 .ARM.extab.text.utee_storage_start_enum
                0x000000000000e3e0        0x0 /workspace/optee_os/out/arm/export-ta_arm32/lib/libutee.a(utee_syscalls_a32.o)

.ARM.extab.text.utee_storage_next_enum
                0x000000000000e3e0        0x0
 .ARM.extab.text.utee_storage_next_enum
                0x000000000000e3e0        0x0 /workspace/optee_os/out/arm/export-ta_arm32/lib/libutee.a(utee_syscalls_a32.o)

.ARM.extab.text.utee_storage_obj_read
                0x000000000000e3e0        0x0
 .ARM.extab.text.utee_storage_obj_read
                0x000000000000e3e0        0x0 /workspace/optee_os/out/arm/export-ta_arm32/lib/libutee.a(utee_syscalls_a32.o)

.ARM.extab.text.utee_storage_obj_write
                0x000000000000e3e0        0x0
 .ARM.extab.text.utee_storage_obj_write
                0x000000000000e3e0        0x0 /workspace/optee_os/out/arm/export-ta_arm32/lib/libutee.a(utee_syscalls_a32.o)

.ARM.extab.text.utee_storage_obj_trunc
                0x000000000000e3e0        0x0
 .ARM.extab.text.utee_storage_obj_trunc
                0x000000000000e3e0        0x0 /workspace/optee_os/out/arm/export-ta_arm32/lib/libutee.a(utee_syscalls_a32.o)

.ARM.extab.text.utee_storage_obj_seek
                0x000000000000e3e0        0x0
 .ARM.extab.text.utee_storage_obj_seek
                0x000000000000e3e0        0x0 /workspace/optee_os/out/arm/export-ta_arm32/lib/libutee.a(utee_syscalls_a32.o)

.ARM.extab.text.utee_cryp_obj_generate_key
                0x000000000000e3e0        0x0
 .ARM.extab.text.utee_cryp_obj_generate_key
                0x000000000000e3e0        0x0 /workspace/optee_os/out/arm/export-ta_arm32/lib/libutee.a(utee_syscalls_a32.o)

.ARM.extab.text.utee_cache_operation
                0x000000000000e3e0        0x0
 .ARM.extab.text.utee_cache_operation
                0x000000000000e3e0        0x0 /workspace/optee_os/out/arm/export-ta_arm32/lib/libutee.a(utee_syscalls_a32.o)

.ARM.extab.text.unlikely
                0x000000000000e3e0        0xc
 .ARM.extab.text.unlikely
                0x000000000000e3e0        0xc /workspace/optee_os/out/arm/export-ta_arm32/lib/libutee.a(tee_api_arith_mpi.o)

.ARM.exidx      0x000000000000e3ec      0x9e8
 *(SORT(.ARM.exidx*) SORT(.gnu.linkonce.armexidx.*))
 .ARM.exidx     0x000000000000e544       0x58 ./darknetp_ta.o
                                         0x68 (size before relaxing)
 .ARM.exidx     0x000000000000e3ec       0x60 ./blas_TA.o
                                         0x68 (size before relaxing)
 .ARM.exidx     0x000000000000e59c       0x18 ./softmax_layer_TA.o
 .ARM.exidx     0x000000000000ed54       0x10 ./col2im_TA.o
 .ARM.exidx     0x000000000000e5b4       0x20 ./connected_layer_TA.o
 .ARM.exidx     0x000000000000e44c       0x90 ./math_TA.o
                                         0xa8 (size before relaxing)
 .ARM.exidx     0x000000000000e5d4       0x20 ./parser_TA.o
 .ARM.exidx     0x000000000000e4dc       0x30 ./activations_TA.o
 .ARM.exidx     0x000000000000e5f4       0x18 ./gemm_TA.o
                                         0x30 (size before relaxing)
 .ARM.exidx     0x000000000000e60c       0x20 ./maxpool_layer_TA.o
 .ARM.exidx     0x000000000000e50c       0x30 ./network_TA.o
 .ARM.exidx     0x000000000000e62c       0x58 ./aes_TA.o
                                         0x68 (size before relaxing)
 .ARM.exidx     0x000000000000e684       0x28 ./cost_layer_TA.o
 .ARM.exidx     0x000000000000e6ac       0x10 ./im2col_TA.o
 .ARM.exidx     0x000000000000e6bc       0x30 ./batchnorm_layer_TA.o
 .ARM.exidx     0x000000000000e6ec       0x20 ./dropout_layer_TA.o
 .ARM.exidx     0x000000000000e70c       0x50 ./convolutional_layer_TA.o
                                         0x60 (size before relaxing)
 .ARM.exidx     0x000000000000e75c       0x18 ./avgpool_layer_TA.o
                                         0x20 (size before relaxing)
 .ARM.exidx     0x000000000000e774       0x10 ./utils_TA.o
                                         0x18 (size before relaxing)
 .ARM.exidx     0x000000000000e53c        0x8 ./diffprivate_TA.o
 .ARM.exidx     0x000000000000ed64        0x8 ./user_ta_header.o
 .ARM.exidx     0x000000000000e784       0x88 /workspace/optee_os/out/arm/export-ta_arm32/lib/libutils.a(bget_malloc.o)
                                         0x98 (size before relaxing)
 .ARM.exidx     0x000000000000ed6c        0x8 /workspace/optee_os/out/arm/export-ta_arm32/lib/libutils.a(memcpy.o)
 .ARM.exidx     0x000000000000ed74        0x8 /workspace/optee_os/out/arm/export-ta_arm32/lib/libutils.a(memset.o)
 .ARM.exidx     0x000000000000ed7c        0x8 /workspace/optee_os/out/arm/export-ta_arm32/lib/libutils.a(strcmp.o)
 .ARM.exidx     0x000000000000ed84        0x0 /workspace/optee_os/out/arm/export-ta_arm32/lib/libutils.a(strncmp.o)
                                          0x8 (size before relaxing)
 .ARM.exidx     0x000000000000e80c       0x20 /workspace/optee_os/out/arm/export-ta_arm32/lib/libutils.a(trace.o)
                                         0x28 (size before relaxing)
 .ARM.exidx     0x000000000000ed84        0x8 /workspace/optee_os/out/arm/export-ta_arm32/lib/libutils.a(aeabi_unwind.o)
                                         0x18 (size before relaxing)
 .ARM.exidx     0x000000000000e82c       0x18 /workspace/optee_os/out/arm/export-ta_arm32/lib/libutils.a(snprintk.o)
 .ARM.exidx     0x000000000000ed8c        0x8 /workspace/optee_os/out/arm/export-ta_arm32/lib/libutils.a(memchr.o)
 .ARM.exidx     0x000000000000ed94        0x8 /workspace/optee_os/out/arm/export-ta_arm32/lib/libutils.a(strlen.o)
 .ARM.exidx.text.__aeabi_ldivmod
                0x000000000000e844        0x8 /workspace/optee_os/out/arm/export-ta_arm32/lib/libutils.a(arm32_aeabi_ldivmod_a32.o)
 .ARM.exidx.text.__aeabi_uldivmod
                0x000000000000e84c        0x8 /workspace/optee_os/out/arm/export-ta_arm32/lib/libutils.a(arm32_aeabi_ldivmod_a32.o)
 .ARM.exidx     0x000000000000ed9c        0x8 /workspace/optee_os/out/arm/export-ta_arm32/lib/libutils.a(arm32_aeabi_ldivmod.o)
                                         0x10 (size before relaxing)
 .ARM.exidx     0x000000000000e854       0x28 /workspace/optee_os/out/arm/export-ta_arm32/lib/libutee.a(trace_ext.o)
 .ARM.exidx     0x000000000000e87c       0x10 /workspace/optee_os/out/arm/export-ta_arm32/lib/libutee.a(assert.o)
 .ARM.exidx     0x000000000000e88c       0xd8 /workspace/optee_os/out/arm/export-ta_arm32/lib/libutee.a(tee_api_operations.o)
                                         0xf0 (size before relaxing)
 .ARM.exidx     0x000000000000eda4        0x8 /workspace/optee_os/out/arm/export-ta_arm32/lib/libutee.a(tee_api_panic.o)
 .ARM.exidx     0x000000000000e964       0x18 /workspace/optee_os/out/arm/export-ta_arm32/lib/libutee.a(user_ta_entry.o)
 .ARM.exidx.text.utee_panic
                0x000000000000e97c        0x8 /workspace/optee_os/out/arm/export-ta_arm32/lib/libutee.a(utee_syscalls_a32.o)
 .ARM.exidx.text.utee_return
                0x000000000000e984        0x8 /workspace/optee_os/out/arm/export-ta_arm32/lib/libutee.a(utee_syscalls_a32.o)
 .ARM.exidx.text.utee_log
                0x000000000000e98c        0x0 /workspace/optee_os/out/arm/export-ta_arm32/lib/libutee.a(utee_syscalls_a32.o)
                                          0x8 (size before relaxing)
 .ARM.exidx.text.__utee_panic
                0x000000000000e98c        0x0 /workspace/optee_os/out/arm/export-ta_arm32/lib/libutee.a(utee_syscalls_a32.o)
                                          0x8 (size before relaxing)
 .ARM.exidx.text.utee_get_property
                0x000000000000e98c        0x0 /workspace/optee_os/out/arm/export-ta_arm32/lib/libutee.a(utee_syscalls_a32.o)
                                          0x8 (size before relaxing)
 .ARM.exidx.text.utee_get_property_name_to_index
                0x000000000000e98c        0x0 /workspace/optee_os/out/arm/export-ta_arm32/lib/libutee.a(utee_syscalls_a32.o)
                                          0x8 (size before relaxing)
 .ARM.exidx.text.utee_open_ta_session
                0x000000000000e98c        0x0 /workspace/optee_os/out/arm/export-ta_arm32/lib/libutee.a(utee_syscalls_a32.o)
                                          0x8 (size before relaxing)
 .ARM.exidx.text.utee_close_ta_session
                0x000000000000e98c        0x0 /workspace/optee_os/out/arm/export-ta_arm32/lib/libutee.a(utee_syscalls_a32.o)
                                          0x8 (size before relaxing)
 .ARM.exidx.text.utee_invoke_ta_command
                0x000000000000e98c        0x0 /workspace/optee_os/out/arm/export-ta_arm32/lib/libutee.a(utee_syscalls_a32.o)
                                          0x8 (size before relaxing)
 .ARM.exidx.text.utee_get_cancellation_flag
                0x000000000000e98c        0x0 /workspace/optee_os/out/arm/export-ta_arm32/lib/libutee.a(utee_syscalls_a32.o)
                                          0x8 (size before relaxing)
 .ARM.exidx.text.utee_check_access_rights
                0x000000000000e98c        0x0 /workspace/optee_os/out/arm/export-ta_arm32/lib/libutee.a(utee_syscalls_a32.o)
                                          0x8 (size before relaxing)
 .ARM.exidx.text.utee_unmask_cancellation
                0x000000000000e98c        0x0 /workspace/optee_os/out/arm/export-ta_arm32/lib/libutee.a(utee_syscalls_a32.o)
                                          0x8 (size before relaxing)
 .ARM.exidx.text.utee_mask_cancellation
                0x000000000000e98c        0x0 /workspace/optee_os/out/arm/export-ta_arm32/lib/libutee.a(utee_syscalls_a32.o)
                                          0x8 (size before relaxing)
 .ARM.exidx.text.utee_wait
                0x000000000000e98c        0x0 /workspace/optee_os/out/arm/export-ta_arm32/lib/libutee.a(utee_syscalls_a32.o)
                                          0x8 (size before relaxing)
 .ARM.exidx.text.utee_get_time
                0x000000000000e98c        0x0 /workspace/optee_os/out/arm/export-ta_arm32/lib/libutee.a(utee_syscalls_a32.o)
                                          0x8 (size before relaxing)
 .ARM.exidx.text.utee_set_ta_time
                0x000000000000e98c        0x0 /workspace/optee_os/out/arm/export-ta_arm32/lib/libutee.a(utee_syscalls_a32.o)
                                          0x8 (size before relaxing)
 .ARM.exidx.text.utee_cryp_state_alloc
                0x000000000000e98c        0x0 /workspace/optee_os/out/arm/export-ta_arm32/lib/libutee.a(utee_syscalls_a32.o)
                                          0x8 (size before relaxing)
 .ARM.exidx.text.utee_cryp_state_copy
                0x000000000000e98c        0x0 /workspace/optee_os/out/arm/export-ta_arm32/lib/libutee.a(utee_syscalls_a32.o)
                                          0x8 (size before relaxing)
 .ARM.exidx.text.utee_cryp_state_free
                0x000000000000e98c        0x0 /workspace/optee_os/out/arm/export-ta_arm32/lib/libutee.a(utee_syscalls_a32.o)
                                          0x8 (size before relaxing)
 .ARM.exidx.text.utee_hash_init
                0x000000000000e98c        0x0 /workspace/optee_os/out/arm/export-ta_arm32/lib/libutee.a(utee_syscalls_a32.o)
                                          0x8 (size before relaxing)
 .ARM.exidx.text.utee_hash_update
                0x000000000000e98c        0x0 /workspace/optee_os/out/arm/export-ta_arm32/lib/libutee.a(utee_syscalls_a32.o)
                                          0x8 (size before relaxing)
 .ARM.exidx.text.utee_hash_final
                0x000000000000e98c        0x0 /workspace/optee_os/out/arm/export-ta_arm32/lib/libutee.a(utee_syscalls_a32.o)
                                          0x8 (size before relaxing)
 .ARM.exidx.text.utee_cipher_init
                0x000000000000e98c        0x0 /workspace/optee_os/out/arm/export-ta_arm32/lib/libutee.a(utee_syscalls_a32.o)
                                          0x8 (size before relaxing)
 .ARM.exidx.text.utee_cipher_update
                0x000000000000e98c        0x0 /workspace/optee_os/out/arm/export-ta_arm32/lib/libutee.a(utee_syscalls_a32.o)
                                          0x8 (size before relaxing)
 .ARM.exidx.text.utee_cipher_final
                0x000000000000e98c        0x0 /workspace/optee_os/out/arm/export-ta_arm32/lib/libutee.a(utee_syscalls_a32.o)
                                          0x8 (size before relaxing)
 .ARM.exidx.text.utee_cryp_obj_get_info
                0x000000000000e98c        0x0 /workspace/optee_os/out/arm/export-ta_arm32/lib/libutee.a(utee_syscalls_a32.o)
                                          0x8 (size before relaxing)
 .ARM.exidx.text.utee_cryp_obj_restrict_usage
                0x000000000000e98c        0x0 /workspace/optee_os/out/arm/export-ta_arm32/lib/libutee.a(utee_syscalls_a32.o)
                                          0x8 (size before relaxing)
 .ARM.exidx.text.utee_cryp_obj_get_attr
                0x000000000000e98c        0x0 /workspace/optee_os/out/arm/export-ta_arm32/lib/libutee.a(utee_syscalls_a32.o)
                                          0x8 (size before relaxing)
 .ARM.exidx.text.utee_cryp_obj_alloc
                0x000000000000e98c        0x0 /workspace/optee_os/out/arm/export-ta_arm32/lib/libutee.a(utee_syscalls_a32.o)
                                          0x8 (size before relaxing)
 .ARM.exidx.text.utee_cryp_obj_close
                0x000000000000e98c        0x0 /workspace/optee_os/out/arm/export-ta_arm32/lib/libutee.a(utee_syscalls_a32.o)
                                          0x8 (size before relaxing)
 .ARM.exidx.text.utee_cryp_obj_reset
                0x000000000000e98c        0x0 /workspace/optee_os/out/arm/export-ta_arm32/lib/libutee.a(utee_syscalls_a32.o)
                                          0x8 (size before relaxing)
 .ARM.exidx.text.utee_cryp_obj_populate
                0x000000000000e98c        0x0 /workspace/optee_os/out/arm/export-ta_arm32/lib/libutee.a(utee_syscalls_a32.o)
                                          0x8 (size before relaxing)
 .ARM.exidx.text.utee_cryp_obj_copy
                0x000000000000e98c        0x0 /workspace/optee_os/out/arm/export-ta_arm32/lib/libutee.a(utee_syscalls_a32.o)
                                          0x8 (size before relaxing)
 .ARM.exidx.text.utee_cryp_derive_key
                0x000000000000e98c        0x0 /workspace/optee_os/out/arm/export-ta_arm32/lib/libutee.a(utee_syscalls_a32.o)
                                          0x8 (size before relaxing)
 .ARM.exidx.text.utee_cryp_random_number_generate
                0x000000000000e98c        0x0 /workspace/optee_os/out/arm/export-ta_arm32/lib/libutee.a(utee_syscalls_a32.o)
                                          0x8 (size before relaxing)
 .ARM.exidx.text.utee_authenc_init
                0x000000000000e98c        0x0 /workspace/optee_os/out/arm/export-ta_arm32/lib/libutee.a(utee_syscalls_a32.o)
                                          0x8 (size before relaxing)
 .ARM.exidx.text.utee_authenc_update_aad
                0x000000000000e98c        0x0 /workspace/optee_os/out/arm/export-ta_arm32/lib/libutee.a(utee_syscalls_a32.o)
                                          0x8 (size before relaxing)
 .ARM.exidx.text.utee_authenc_update_payload
                0x000000000000e98c        0x0 /workspace/optee_os/out/arm/export-ta_arm32/lib/libutee.a(utee_syscalls_a32.o)
                                          0x8 (size before relaxing)
 .ARM.exidx.text.utee_authenc_enc_final
                0x000000000000e98c        0x0 /workspace/optee_os/out/arm/export-ta_arm32/lib/libutee.a(utee_syscalls_a32.o)
                                          0x8 (size before relaxing)
 .ARM.exidx.text.utee_authenc_dec_final
                0x000000000000e98c        0x0 /workspace/optee_os/out/arm/export-ta_arm32/lib/libutee.a(utee_syscalls_a32.o)
                                          0x8 (size before relaxing)
 .ARM.exidx.text.utee_asymm_operate
                0x000000000000e98c        0x0 /workspace/optee_os/out/arm/export-ta_arm32/lib/libutee.a(utee_syscalls_a32.o)
                                          0x8 (size before relaxing)
 .ARM.exidx.text.utee_asymm_verify
                0x000000000000e98c        0x0 /workspace/optee_os/out/arm/export-ta_arm32/lib/libutee.a(utee_syscalls_a32.o)
                                          0x8 (size before relaxing)
 .ARM.exidx.text.utee_storage_obj_open
                0x000000000000e98c        0x0 /workspace/optee_os/out/arm/export-ta_arm32/lib/libutee.a(utee_syscalls_a32.o)
                                          0x8 (size before relaxing)
 .ARM.exidx.text.utee_storage_obj_create
                0x000000000000e98c        0x0 /workspace/optee_os/out/arm/export-ta_arm32/lib/libutee.a(utee_syscalls_a32.o)
                                          0x8 (size before relaxing)
 .ARM.exidx.text.utee_storage_obj_del
                0x000000000000e98c        0x0 /workspace/optee_os/out/arm/export-ta_arm32/lib/libutee.a(utee_syscalls_a32.o)
                                          0x8 (size before relaxing)
 .ARM.exidx.text.utee_storage_obj_rename
                0x000000000000e98c        0x0 /workspace/optee_os/out/arm/export-ta_arm32/lib/libutee.a(utee_syscalls_a32.o)
                                          0x8 (size before relaxing)
 .ARM.exidx.text.utee_storage_alloc_enum
                0x000000000000e98c        0x0 /workspace/optee_os/out/arm/export-ta_arm32/lib/libutee.a(utee_syscalls_a32.o)
                                          0x8 (size before relaxing)
 .ARM.exidx.text.utee_storage_free_enum
                0x000000000000e98c        0x0 /workspace/optee_os/out/arm/export-ta_arm32/lib/libutee.a(utee_syscalls_a32.o)
                                          0x8 (size before relaxing)
 .ARM.exidx.text.utee_storage_reset_enum
                0x000000000000e98c        0x0 /workspace/optee_os/out/arm/export-ta_arm32/lib/libutee.a(utee_syscalls_a32.o)
                                          0x8 (size before relaxing)
 .ARM.exidx.text.utee_storage_start_enum
                0x000000000000e98c        0x0 /workspace/optee_os/out/arm/export-ta_arm32/lib/libutee.a(utee_syscalls_a32.o)
                                          0x8 (size before relaxing)
 .ARM.exidx.text.utee_storage_next_enum
                0x000000000000e98c        0x0 /workspace/optee_os/out/arm/export-ta_arm32/lib/libutee.a(utee_syscalls_a32.o)
                                          0x8 (size before relaxing)
 .ARM.exidx.text.utee_storage_obj_read
                0x000000000000e98c        0x0 /workspace/optee_os/out/arm/export-ta_arm32/lib/libutee.a(utee_syscalls_a32.o)
                                          0x8 (size before relaxing)
 .ARM.exidx.text.utee_storage_obj_write
                0x000000000000e98c        0x0 /workspace/optee_os/out/arm/export-ta_arm32/lib/libutee.a(utee_syscalls_a32.o)
                                          0x8 (size before relaxing)
 .ARM.exidx.text.utee_storage_obj_trunc
                0x000000000000e98c        0x0 /workspace/optee_os/out/arm/export-ta_arm32/lib/libutee.a(utee_syscalls_a32.o)
                                          0x8 (size before relaxing)
 .ARM.exidx.text.utee_storage_obj_seek
                0x000000000000e98c        0x0 /workspace/optee_os/out/arm/export-ta_arm32/lib/libutee.a(utee_syscalls_a32.o)
                                          0x8 (size before relaxing)
 .ARM.exidx.text.utee_cryp_obj_generate_key
                0x000000000000e98c        0x0 /workspace/optee_os/out/arm/export-ta_arm32/lib/libutee.a(utee_syscalls_a32.o)
                                          0x8 (size before relaxing)
 .ARM.exidx.text.utee_cache_operation
                0x000000000000e98c        0x8 /workspace/optee_os/out/arm/export-ta_arm32/lib/libutee.a(utee_syscalls_a32.o)
 .ARM.exidx     0x000000000000e994       0x68 /workspace/optee_os/out/arm/export-ta_arm32/lib/libutee.a(tee_api.o)
                                         0xc8 (size before relaxing)
 .ARM.exidx     0x000000000000e9fc       0xd0 /workspace/optee_os/out/arm/export-ta_arm32/lib/libutee.a(tee_api_objects.o)
                                         0xf8 (size before relaxing)
 .ARM.exidx.text.unlikely
                0x000000000000ebc4        0x8 /workspace/optee_os/out/arm/export-ta_arm32/lib/libutee.a(tee_api_arith_mpi.o)
 .ARM.exidx     0x000000000000eacc       0xf8 /workspace/optee_os/out/arm/export-ta_arm32/lib/libutee.a(tee_api_arith_mpi.o)
                                        0x150 (size before relaxing)
 .ARM.exidx     0x000000000000ebcc      0x168 /workspace/optee_os/out/arm/export-ta_arm32/lib/libmbedtls.a(bignum.o)
                                        0x1b0 (size before relaxing)
 .ARM.exidx     0x000000000000edac       0x10 /workspace/optee_os/out/arm/export-ta_arm32/lib/libutils.a(snprintf.o)
 .ARM.exidx     0x000000000000edbc        0x8 /workspace/optee_os/out/arm/export-ta_arm32/lib/libutils.a(memcmp.o)
 .ARM.exidx     0x000000000000edc4        0x0 /workspace/optee_os/out/arm/export-ta_arm32/lib/libutils.a(memmove.o)
                                          0x8 (size before relaxing)
 .ARM.exidx     0x000000000000edc4       0x10 /workspace/optee_os/out/arm/export-ta_arm32/lib/libutils.a(buf_compare_ct.o)
                                          0x8 (size before relaxing)
 .ARM.exidx     0x000000000000ed34       0x20 /workspace/optee_os/out/arm/export-ta_arm32/lib/libutils.a(mempool.o)

.ctors
 *(SORT(.ctors))

.dtors
 *(SORT(.dtors))

.got            0x000000000000edd4       0x50
 *(SORT(.got.plt))
 .got.plt       0x000000000000edd4        0xc ./darknetp_ta.o
                0x000000000000edd4                _GLOBAL_OFFSET_TABLE_
 *(SORT(.got))
 .got           0x000000000000ede0       0x44 ./darknetp_ta.o

.rel.text       0x000000000000ee24        0x0
 *(SORT(.rel.text))
 .rel.text      0x000000000000ee24        0x0 ./darknetp_ta.o
 *(SORT(.rel.gnu.linkonce.t*))

.rela.text
 *(SORT(.rela.text))
 *(SORT(.rela.gnu.linkonce.t*))

.rel.data
 *(SORT(.rel.data))
 *(SORT(.rel.gnu.linkonce.d*))

.rela.data
 *(SORT(.rela.data))
 *(SORT(.rela.gnu.linkonce.d*))

.rel.rodata
 *(SORT(.rel.rodata))
 *(SORT(.rel.gnu.linkonce.r*))

.rela.rodata
 *(SORT(.rela.rodata))
 *(SORT(.rela.gnu.linkonce.r*))

.rel.dyn        0x000000000000ee24       0xb8
 *(SORT(.rel.dyn))
 .rel.iplt      0x000000000000ee24        0x0 ./darknetp_ta.o
 .rel.data.rel.ro.local
                0x000000000000ee24       0x90 ./darknetp_ta.o
 .rel.ta_head   0x000000000000eeb4        0x8 ./darknetp_ta.o
 .rel.data.rel.local
                0x000000000000eebc       0x18 ./darknetp_ta.o
 .rel.data.rel  0x000000000000eed4        0x8 ./darknetp_ta.o

.rel.got        0x000000000000eedc       0x88
 *(SORT(.rel.got))
 .rel.got       0x000000000000eedc       0x88 ./darknetp_ta.o

.rela.got
 *(SORT(.rela.got))

.rel.ctors
 *(SORT(.rel.ctors))

.rela.ctors
 *(SORT(.rela.ctors))

.rel.dtors
 *(SORT(.rel.dtors))

.rela.dtors
 *(SORT(.rela.dtors))

.rel.init
 *(SORT(.rel.init))

.rela.init
 *(SORT(.rela.init))

.rel.fini
 *(SORT(.rel.fini))

.rela.fini
 *(SORT(.rela.fini))

.rel.bss
 *(SORT(.rel.bss))

.rela.bss
 *(SORT(.rela.bss))

.rel.plt        0x000000000000ef64        0x0
 *(SORT(.rel.plt))
 .rel.plt       0x000000000000ef64        0x0 ./darknetp_ta.o

.rela.plt
 *(SORT(.rela.plt))

.dynamic        0x000000000000ef64       0x80
 *(SORT(.dynamic))
 .dynamic       0x000000000000ef64       0x80 ./darknetp_ta.o
                0x000000000000ef64                _DYNAMIC

.dynsym         0x000000000000efe4      0x140
 *(SORT(.dynsym))
 .dynsym        0x000000000000efe4      0x140 ./darknetp_ta.o

.dynstr         0x000000000000f124      0x10f
 *(SORT(.dynstr))
 .dynstr        0x000000000000f124      0x10f ./darknetp_ta.o

.hash           0x000000000000f234       0x9c
 *(SORT(.hash))
 .hash          0x000000000000f234       0x9c ./darknetp_ta.o
                0x0000000000010000                . = ALIGN (0x1000)

.data           0x0000000000010000       0xa0
 *(SORT(.data) SORT(.data.*) SORT(.gnu.linkonce.d.*))
 .data          0x0000000000010000        0x4 ./darknetp_ta.o
                0x0000000000010000                norm_output
 .data          0x0000000000010004        0x4 ./network_TA.o
                0x0000000000010004                avg_loss
 .data          0x0000000000010008        0x4 ./user_ta_header.o
                0x0000000000010008                trace_level
 .data.rel.ro.local
                0x000000000001000c       0x6c ./user_ta_header.o
                0x000000000001000c                ta_props
 .data.rel.local
                0x0000000000010078       0x1c /workspace/optee_os/out/arm/export-ta_arm32/lib/libutils.a(bget_malloc.o)
 .data.rel      0x0000000000010094        0x4 /workspace/optee_os/out/arm/export-ta_arm32/lib/libutee.a(user_ta_entry.o)
                0x0000000000010094                _ref__utee_mcount
 .data.rel.local
                0x0000000000010098        0x8 /workspace/optee_os/out/arm/export-ta_arm32/lib/libutee.a(user_ta_entry.o)
 .data          0x00000000000100a0        0x0 ./blas_TA.o
 .data          0x00000000000100a0        0x0 ./softmax_layer_TA.o
 .data          0x00000000000100a0        0x0 ./col2im_TA.o
 .data          0x00000000000100a0        0x0 ./connected_layer_TA.o
 .data          0x00000000000100a0        0x0 ./math_TA.o
 .data          0x00000000000100a0        0x0 ./parser_TA.o
 .data          0x00000000000100a0        0x0 ./activations_TA.o
 .data          0x00000000000100a0        0x0 ./gemm_TA.o
 .data          0x00000000000100a0        0x0 ./maxpool_layer_TA.o
 .data          0x00000000000100a0        0x0 ./aes_TA.o
 .data          0x00000000000100a0        0x0 ./cost_layer_TA.o
 .data          0x00000000000100a0        0x0 ./im2col_TA.o
 .data          0x00000000000100a0        0x0 ./batchnorm_layer_TA.o
 .data          0x00000000000100a0        0x0 ./dropout_layer_TA.o
 .data          0x00000000000100a0        0x0 ./convolutional_layer_TA.o
 .data          0x00000000000100a0        0x0 ./avgpool_layer_TA.o
 .data          0x00000000000100a0        0x0 ./utils_TA.o
 .data          0x00000000000100a0        0x0 ./diffprivate_TA.o
 .data          0x00000000000100a0        0x0 /workspace/optee_os/out/arm/export-ta_arm32/lib/libutils.a(bget_malloc.o)
 .data          0x00000000000100a0        0x0 /workspace/optee_os/out/arm/export-ta_arm32/lib/libutils.a(memcpy.o)
 .data          0x00000000000100a0        0x0 /workspace/optee_os/out/arm/export-ta_arm32/lib/libutils.a(memset.o)
 .data          0x00000000000100a0        0x0 /workspace/optee_os/out/arm/export-ta_arm32/lib/libutils.a(strcmp.o)
 .data          0x00000000000100a0        0x0 /workspace/optee_os/out/arm/export-ta_arm32/lib/libutils.a(strncmp.o)
 .data          0x00000000000100a0        0x0 /workspace/optee_os/out/arm/export-ta_arm32/lib/libutils.a(trace.o)
 .data          0x00000000000100a0        0x0 /workspace/optee_os/out/arm/export-ta_arm32/lib/libutils.a(aeabi_unwind.o)
 .data          0x00000000000100a0        0x0 /workspace/optee_os/out/arm/export-ta_arm32/lib/libutils.a(snprintk.o)
 .data          0x00000000000100a0        0x0 /workspace/optee_os/out/arm/export-ta_arm32/lib/libutils.a(memchr.o)
 .data          0x00000000000100a0        0x0 /workspace/optee_os/out/arm/export-ta_arm32/lib/libutils.a(strlen.o)
 .data          0x00000000000100a0        0x0 /workspace/optee_os/out/arm/export-ta_arm32/lib/libutils.a(arm32_aeabi_ldivmod_a32.o)
 .data          0x00000000000100a0        0x0 /workspace/optee_os/out/arm/export-ta_arm32/lib/libutils.a(arm32_aeabi_ldivmod.o)
 .data          0x00000000000100a0        0x0 /workspace/optee_os/out/arm/export-ta_arm32/lib/libutee.a(trace_ext.o)
 .data          0x00000000000100a0        0x0 /workspace/optee_os/out/arm/export-ta_arm32/lib/libutee.a(assert.o)
 .data          0x00000000000100a0        0x0 /workspace/optee_os/out/arm/export-ta_arm32/lib/libutee.a(tee_api_operations.o)
 .data          0x00000000000100a0        0x0 /workspace/optee_os/out/arm/export-ta_arm32/lib/libutee.a(tee_api_panic.o)
 .data          0x00000000000100a0        0x0 /workspace/optee_os/out/arm/export-ta_arm32/lib/libutee.a(user_ta_entry.o)
 .data          0x00000000000100a0        0x0 /workspace/optee_os/out/arm/export-ta_arm32/lib/libutee.a(utee_syscalls_a32.o)
 .data          0x00000000000100a0        0x0 /workspace/optee_os/out/arm/export-ta_arm32/lib/libutee.a(gprof_a32.o)
 .data          0x00000000000100a0        0x0 /workspace/optee_os/out/arm/export-ta_arm32/lib/libutee.a(tee_api.o)
 .data          0x00000000000100a0        0x0 /workspace/optee_os/out/arm/export-ta_arm32/lib/libutee.a(tee_api_objects.o)
 .data          0x00000000000100a0        0x0 /workspace/optee_os/out/arm/export-ta_arm32/lib/libutee.a(tee_api_arith_mpi.o)
 .data          0x00000000000100a0        0x0 /workspace/optee_os/out/arm/export-ta_arm32/lib/libmbedtls.a(bignum.o)
 .data          0x00000000000100a0        0x0 /workspace/optee_os/out/arm/export-ta_arm32/lib/libutils.a(snprintf.o)
 .data          0x00000000000100a0        0x0 /workspace/optee_os/out/arm/export-ta_arm32/lib/libutils.a(memcmp.o)
 .data          0x00000000000100a0        0x0 /workspace/optee_os/out/arm/export-ta_arm32/lib/libutils.a(memmove.o)
 .data          0x00000000000100a0        0x0 /workspace/optee_os/out/arm/export-ta_arm32/lib/libutils.a(buf_compare_ct.o)
 .data          0x00000000000100a0        0x0 /workspace/optee_os/out/arm/export-ta_arm32/lib/libutils.a(mempool.o)

.igot.plt       0x00000000000100a0        0x0
 .igot.plt      0x00000000000100a0        0x0 ./darknetp_ta.o

.bss            0x00000000000100a0   0xa02178
 *(SORT(.bss) SORT(.bss.*) SORT(.gnu.linkonce.b.*) SORT(COMMON))
 .bss           0x00000000000100a0       0x10 ./darknetp_ta.o
                0x00000000000100a0                netnum
                0x00000000000100a4                netta_truth
                0x00000000000100a8                debug_summary_com
                0x00000000000100ac                debug_summary_pass
 .bss           0x00000000000100b0       0xf0 ./network_TA.o
                0x00000000000100b0                netta
                0x000000000001018c                err_sum
                0x0000000000010190                roundnum
                0x0000000000010194                ta_net_input
                0x0000000000010198                ta_net_delta
                0x000000000001019c                ta_net_output
 .bss           0x00000000000101a0        0x8 ./utils_TA.o
 .bss           0x00000000000101a8       0x40 /workspace/optee_os/out/arm/export-ta_arm32/lib/libutils.a(bget_malloc.o)
 .bss           0x00000000000101e8       0x28 /workspace/optee_os/out/arm/export-ta_arm32/lib/libutee.a(user_ta_entry.o)
                0x00000000000101ec                ta_param_types
                0x00000000000101f0                ta_params
 .bss           0x0000000000010210        0x4 /workspace/optee_os/out/arm/export-ta_arm32/lib/libutee.a(tee_api.o)
 .bss           0x0000000000010214     0x2000 /workspace/optee_os/out/arm/export-ta_arm32/lib/libutee.a(tee_api_arith_mpi.o)
 .bss           0x0000000000012214        0x4 /workspace/optee_os/out/arm/export-ta_arm32/lib/libmbedtls.a(bignum.o)
                0x0000000000012214                mbedtls_mpi_mempool
 .bss           0x0000000000012218        0x0 ./blas_TA.o
 .bss           0x0000000000012218        0x0 ./softmax_layer_TA.o
 .bss           0x0000000000012218        0x0 ./col2im_TA.o
 .bss           0x0000000000012218        0x0 ./connected_layer_TA.o
 .bss           0x0000000000012218        0x0 ./math_TA.o
 .bss           0x0000000000012218        0x0 ./parser_TA.o
 .bss           0x0000000000012218        0x0 ./activations_TA.o
 .bss           0x0000000000012218        0x0 ./gemm_TA.o
 .bss           0x0000000000012218        0x0 ./maxpool_layer_TA.o
 .bss           0x0000000000012218        0x0 ./aes_TA.o
 .bss           0x0000000000012218        0x0 ./cost_layer_TA.o
 .bss           0x0000000000012218        0x0 ./im2col_TA.o
 .bss           0x0000000000012218        0x0 ./batchnorm_layer_TA.o
 .bss           0x0000000000012218        0x0 ./dropout_layer_TA.o
 .bss           0x0000000000012218        0x0 ./convolutional_layer_TA.o
 .bss           0x0000000000012218        0x0 ./avgpool_layer_TA.o
 .bss           0x0000000000012218        0x0 ./diffprivate_TA.o
 .bss           0x0000000000012218   0xa00000 ./user_ta_header.o
                0x0000000000012218                ta_heap
 .bss           0x0000000000a12218        0x0 /workspace/optee_os/out/arm/export-ta_arm32/lib/libutils.a(memcpy.o)
 .bss           0x0000000000a12218        0x0 /workspace/optee_os/out/arm/export-ta_arm32/lib/libutils.a(memset.o)
 .bss           0x0000000000a12218        0x0 /workspace/optee_os/out/arm/export-ta_arm32/lib/libutils.a(strcmp.o)
 .bss           0x0000000000a12218        0x0 /workspace/optee_os/out/arm/export-ta_arm32/lib/libutils.a(strncmp.o)
 .bss           0x0000000000a12218        0x0 /workspace/optee_os/out/arm/export-ta_arm32/lib/libutils.a(trace.o)
 .bss           0x0000000000a12218        0x0 /workspace/optee_os/out/arm/export-ta_arm32/lib/libutils.a(aeabi_unwind.o)
 .bss           0x0000000000a12218        0x0 /workspace/optee_os/out/arm/export-ta_arm32/lib/libutils.a(snprintk.o)
 .bss           0x0000000000a12218        0x0 /workspace/optee_os/out/arm/export-ta_arm32/lib/libutils.a(memchr.o)
 .bss           0x0000000000a12218        0x0 /workspace/optee_os/out/arm/export-ta_arm32/lib/libutils.a(strlen.o)
 .bss           0x0000000000a12218        0x0 /workspace/optee_os/out/arm/export-ta_arm32/lib/libutils.a(arm32_aeabi_ldivmod_a32.o)
 .bss           0x0000000000a12218        0x0 /workspace/optee_os/out/arm/export-ta_arm32/lib/libutils.a(arm32_aeabi_ldivmod.o)
 .bss           0x0000000000a12218        0x0 /workspace/optee_os/out/arm/export-ta_arm32/lib/libutee.a(trace_ext.o)
 .bss           0x0000000000a12218        0x0 /workspace/optee_os/out/arm/export-ta_arm32/lib/libutee.a(assert.o)
 .bss           0x0000000000a12218        0x0 /workspace/optee_os/out/arm/export-ta_arm32/lib/libutee.a(tee_api_operations.o)
 .bss           0x0000000000a12218        0x0 /workspace/optee_os/out/arm/export-ta_arm32/lib/libutee.a(tee_api_panic.o)
 .bss           0x0000000000a12218        0x0 /workspace/optee_os/out/arm/export-ta_arm32/lib/libutee.a(utee_syscalls_a32.o)
 .bss           0x0000000000a12218        0x0 /workspace/optee_os/out/arm/export-ta_arm32/lib/libutee.a(gprof_a32.o)
 .bss           0x0000000000a12218        0x0 /workspace/optee_os/out/arm/export-ta_arm32/lib/libutee.a(tee_api_objects.o)
 .bss           0x0000000000a12218        0x0 /workspace/optee_os/out/arm/export-ta_arm32/lib/libutils.a(snprintf.o)
 .bss           0x0000000000a12218        0x0 /workspace/optee_os/out/arm/export-ta_arm32/lib/libutils.a(memcmp.o)
 .bss           0x0000000000a12218        0x0 /workspace/optee_os/out/arm/export-ta_arm32/lib/libutils.a(memmove.o)
 .bss           0x0000000000a12218        0x0 /workspace/optee_os/out/arm/export-ta_arm32/lib/libutils.a(buf_compare_ct.o)
 .bss           0x0000000000a12218        0x0 /workspace/optee_os/out/arm/export-ta_arm32/lib/libutils.a(mempool.o)
                0x0000000000a12218                . = ALIGN (0x8)
                0x0000000000a12218                __gprof_buf_start = .
                0x0000000000a12218                . = (. + DEFINED (__gnu_mcount_nc)?(((__text_end - __text_start) * 0x88) / 0x64):0x0)
                0x0000000000a12218                __gprof_buf_end = .

.dynbss         0x0000000000a12218        0x0
 .dynbss        0x0000000000a12218        0x0 ./darknetp_ta.o

/DISCARD/
 *(SORT(.interp))
LOAD ./darknetp_ta.o
LOAD ./blas_TA.o
LOAD ./softmax_layer_TA.o
LOAD ./col2im_TA.o
LOAD ./connected_layer_TA.o
LOAD ./math_TA.o
LOAD ./parser_TA.o
LOAD ./activations_TA.o
LOAD ./gemm_TA.o
LOAD ./maxpool_layer_TA.o
LOAD ./network_TA.o
LOAD ./aes_TA.o
LOAD ./cost_layer_TA.o
LOAD ./im2col_TA.o
LOAD ./batchnorm_layer_TA.o
LOAD ./dropout_layer_TA.o
LOAD ./convolutional_layer_TA.o
LOAD ./avgpool_layer_TA.o
LOAD ./utils_TA.o
LOAD ./diffprivate_TA.o
LOAD ./user_ta_header.o
START GROUP
LOAD /workspace/optee_os/out/arm/export-ta_arm32/lib/libutils.a
LOAD /workspace/optee_os/out/arm/export-ta_arm32/lib/libutee.a
LOAD /workspace/optee_os/out/arm/export-ta_arm32/lib/libmbedtls.a
END GROUP
OUTPUT(7fc5c039-0542-4ee1-80af-b4eab2f1998d.elf elf32-littlearm)

.debug_info     0x0000000000000000    0x27685
 .debug_info    0x0000000000000000     0x2d1c ./darknetp_ta.o
 .debug_info    0x0000000000002d1c      0x839 ./blas_TA.o
 .debug_info    0x0000000000003555     0x13bb ./softmax_layer_TA.o
 .debug_info    0x0000000000004910      0x27a ./col2im_TA.o
 .debug_info    0x0000000000004b8a     0x18cf ./connected_layer_TA.o
 .debug_info    0x0000000000006459      0xc4d ./math_TA.o
 .debug_info    0x00000000000070a6     0x15a5 ./parser_TA.o
 .debug_info    0x000000000000864b      0xae7 ./activations_TA.o
 .debug_info    0x0000000000009132     0x15e5 ./gemm_TA.o
 .debug_info    0x000000000000a717     0x139a ./maxpool_layer_TA.o
 .debug_info    0x000000000000bab1     0x1774 ./network_TA.o
 .debug_info    0x000000000000d225      0xccc ./aes_TA.o
 .debug_info    0x000000000000def1     0x13bf ./cost_layer_TA.o
 .debug_info    0x000000000000f2b0      0x25a ./im2col_TA.o
 .debug_info    0x000000000000f50a     0x17f2 ./batchnorm_layer_TA.o
 .debug_info    0x0000000000010cfc     0x12c6 ./dropout_layer_TA.o
 .debug_info    0x0000000000011fc2     0x1fe7 ./convolutional_layer_TA.o
 .debug_info    0x0000000000013fa9     0x1243 ./avgpool_layer_TA.o
 .debug_info    0x00000000000151ec      0x28b ./utils_TA.o
 .debug_info    0x0000000000015477      0x1ed ./diffprivate_TA.o
 .debug_info    0x0000000000015664     0x1347 ./user_ta_header.o
 .debug_info    0x00000000000169ab     0x1a73 /workspace/optee_os/out/arm/export-ta_arm32/lib/libutils.a(bget_malloc.o)
 .debug_info    0x000000000001841e       0xc9 /workspace/optee_os/out/arm/export-ta_arm32/lib/libutils.a(memcpy.o)
 .debug_info    0x00000000000184e7       0x9c /workspace/optee_os/out/arm/export-ta_arm32/lib/libutils.a(memset.o)
 .debug_info    0x0000000000018583       0x80 /workspace/optee_os/out/arm/export-ta_arm32/lib/libutils.a(strcmp.o)
 .debug_info    0x0000000000018603       0x98 /workspace/optee_os/out/arm/export-ta_arm32/lib/libutils.a(strncmp.o)
 .debug_info    0x000000000001869b      0x694 /workspace/optee_os/out/arm/export-ta_arm32/lib/libutils.a(trace.o)
 .debug_info    0x0000000000018d2f       0x4f /workspace/optee_os/out/arm/export-ta_arm32/lib/libutils.a(aeabi_unwind.o)
 .debug_info    0x0000000000018d7e      0x694 /workspace/optee_os/out/arm/export-ta_arm32/lib/libutils.a(snprintk.o)
 .debug_info    0x0000000000019412       0xbd /workspace/optee_os/out/arm/export-ta_arm32/lib/libutils.a(memchr.o)
 .debug_info    0x00000000000194cf       0x8d /workspace/optee_os/out/arm/export-ta_arm32/lib/libutils.a(strlen.o)
 .debug_info    0x000000000001955c       0x79 /workspace/optee_os/out/arm/export-ta_arm32/lib/libutils.a(arm32_aeabi_ldivmod_a32.o)
 .debug_info    0x00000000000195d5      0x2cf /workspace/optee_os/out/arm/export-ta_arm32/lib/libutils.a(arm32_aeabi_ldivmod.o)
 .debug_info    0x00000000000198a4      0x2c1 /workspace/optee_os/out/arm/export-ta_arm32/lib/libutee.a(trace_ext.o)
 .debug_info    0x0000000000019b65      0x189 /workspace/optee_os/out/arm/export-ta_arm32/lib/libutee.a(assert.o)
 .debug_info    0x0000000000019cee     0x257d /workspace/optee_os/out/arm/export-ta_arm32/lib/libutee.a(tee_api_operations.o)
 .debug_info    0x000000000001c26b      0x107 /workspace/optee_os/out/arm/export-ta_arm32/lib/libutee.a(tee_api_panic.o)
 .debug_info    0x000000000001c372      0xab3 /workspace/optee_os/out/arm/export-ta_arm32/lib/libutee.a(user_ta_entry.o)
 .debug_info    0x000000000001ce25       0x6d /workspace/optee_os/out/arm/export-ta_arm32/lib/libutee.a(utee_syscalls_a32.o)
 .debug_info    0x000000000001ce92       0x6f /workspace/optee_os/out/arm/export-ta_arm32/lib/libutee.a(gprof_a32.o)
 .debug_info    0x000000000001cf01      0xea8 /workspace/optee_os/out/arm/export-ta_arm32/lib/libutee.a(tee_api.o)
 .debug_info    0x000000000001dda9     0x171b /workspace/optee_os/out/arm/export-ta_arm32/lib/libutee.a(tee_api_objects.o)
 .debug_info    0x000000000001f4c4     0x3558 /workspace/optee_os/out/arm/export-ta_arm32/lib/libutee.a(tee_api_arith_mpi.o)
 .debug_info    0x0000000000022a1c     0x445c /workspace/optee_os/out/arm/export-ta_arm32/lib/libmbedtls.a(bignum.o)
 .debug_info    0x0000000000026e78      0x19b /workspace/optee_os/out/arm/export-ta_arm32/lib/libutils.a(snprintf.o)
 .debug_info    0x0000000000027013       0xb6 /workspace/optee_os/out/arm/export-ta_arm32/lib/libutils.a(memcmp.o)
 .debug_info    0x00000000000270c9       0xc7 /workspace/optee_os/out/arm/export-ta_arm32/lib/libutils.a(memmove.o)
 .debug_info    0x0000000000027190       0xc5 /workspace/optee_os/out/arm/export-ta_arm32/lib/libutils.a(buf_compare_ct.o)
 .debug_info    0x0000000000027255      0x430 /workspace/optee_os/out/arm/export-ta_arm32/lib/libutils.a(mempool.o)

.debug_abbrev   0x0000000000000000     0x570c
 .debug_abbrev  0x0000000000000000      0x481 ./darknetp_ta.o
 .debug_abbrev  0x0000000000000481      0x135 ./blas_TA.o
 .debug_abbrev  0x00000000000005b6      0x254 ./softmax_layer_TA.o
 .debug_abbrev  0x000000000000080a      0x114 ./col2im_TA.o
 .debug_abbrev  0x000000000000091e      0x24a ./connected_layer_TA.o
 .debug_abbrev  0x0000000000000b68      0x2a9 ./math_TA.o
 .debug_abbrev  0x0000000000000e11      0x260 ./parser_TA.o
 .debug_abbrev  0x0000000000001071      0x175 ./activations_TA.o
 .debug_abbrev  0x00000000000011e6      0x1e9 ./gemm_TA.o
 .debug_abbrev  0x00000000000013cf      0x252 ./maxpool_layer_TA.o
 .debug_abbrev  0x0000000000001621      0x2ae ./network_TA.o
 .debug_abbrev  0x00000000000018cf      0x285 ./aes_TA.o
 .debug_abbrev  0x0000000000001b54      0x231 ./cost_layer_TA.o
 .debug_abbrev  0x0000000000001d85      0x107 ./im2col_TA.o
 .debug_abbrev  0x0000000000001e8c      0x21b ./batchnorm_layer_TA.o
 .debug_abbrev  0x00000000000020a7      0x24c ./dropout_layer_TA.o
 .debug_abbrev  0x00000000000022f3      0x38a ./convolutional_layer_TA.o
 .debug_abbrev  0x000000000000267d      0x227 ./avgpool_layer_TA.o
 .debug_abbrev  0x00000000000028a4      0x126 ./utils_TA.o
 .debug_abbrev  0x00000000000029ca       0xef ./diffprivate_TA.o
 .debug_abbrev  0x0000000000002ab9      0x1ef ./user_ta_header.o
 .debug_abbrev  0x0000000000002ca8      0x40a /workspace/optee_os/out/arm/export-ta_arm32/lib/libutils.a(bget_malloc.o)
 .debug_abbrev  0x00000000000030b2       0xa7 /workspace/optee_os/out/arm/export-ta_arm32/lib/libutils.a(memcpy.o)
 .debug_abbrev  0x0000000000003159       0x93 /workspace/optee_os/out/arm/export-ta_arm32/lib/libutils.a(memset.o)
 .debug_abbrev  0x00000000000031ec       0x68 /workspace/optee_os/out/arm/export-ta_arm32/lib/libutils.a(strcmp.o)
 .debug_abbrev  0x0000000000003254       0x75 /workspace/optee_os/out/arm/export-ta_arm32/lib/libutils.a(strncmp.o)
 .debug_abbrev  0x00000000000032c9      0x27e /workspace/optee_os/out/arm/export-ta_arm32/lib/libutils.a(trace.o)
 .debug_abbrev  0x0000000000003547       0x47 /workspace/optee_os/out/arm/export-ta_arm32/lib/libutils.a(aeabi_unwind.o)
 .debug_abbrev  0x000000000000358e      0x26f /workspace/optee_os/out/arm/export-ta_arm32/lib/libutils.a(snprintk.o)
 .debug_abbrev  0x00000000000037fd       0xae /workspace/optee_os/out/arm/export-ta_arm32/lib/libutils.a(memchr.o)
 .debug_abbrev  0x00000000000038ab       0x84 /workspace/optee_os/out/arm/export-ta_arm32/lib/libutils.a(strlen.o)
 .debug_abbrev  0x000000000000392f       0x12 /workspace/optee_os/out/arm/export-ta_arm32/lib/libutils.a(arm32_aeabi_ldivmod_a32.o)
 .debug_abbrev  0x0000000000003941      0x12f /workspace/optee_os/out/arm/export-ta_arm32/lib/libutils.a(arm32_aeabi_ldivmod.o)
 .debug_abbrev  0x0000000000003a70      0x183 /workspace/optee_os/out/arm/export-ta_arm32/lib/libutee.a(trace_ext.o)
 .debug_abbrev  0x0000000000003bf3       0xca /workspace/optee_os/out/arm/export-ta_arm32/lib/libutee.a(assert.o)
 .debug_abbrev  0x0000000000003cbd      0x36f /workspace/optee_os/out/arm/export-ta_arm32/lib/libutee.a(tee_api_operations.o)
 .debug_abbrev  0x000000000000402c       0xb4 /workspace/optee_os/out/arm/export-ta_arm32/lib/libutee.a(tee_api_panic.o)
 .debug_abbrev  0x00000000000040e0      0x2da /workspace/optee_os/out/arm/export-ta_arm32/lib/libutee.a(user_ta_entry.o)
 .debug_abbrev  0x00000000000043ba       0x12 /workspace/optee_os/out/arm/export-ta_arm32/lib/libutee.a(utee_syscalls_a32.o)
 .debug_abbrev  0x00000000000043cc       0x14 /workspace/optee_os/out/arm/export-ta_arm32/lib/libutee.a(gprof_a32.o)
 .debug_abbrev  0x00000000000043e0      0x2b4 /workspace/optee_os/out/arm/export-ta_arm32/lib/libutee.a(tee_api.o)
 .debug_abbrev  0x0000000000004694      0x326 /workspace/optee_os/out/arm/export-ta_arm32/lib/libutee.a(tee_api_objects.o)
 .debug_abbrev  0x00000000000049ba      0x47a /workspace/optee_os/out/arm/export-ta_arm32/lib/libutee.a(tee_api_arith_mpi.o)
 .debug_abbrev  0x0000000000004e34      0x47a /workspace/optee_os/out/arm/export-ta_arm32/lib/libmbedtls.a(bignum.o)
 .debug_abbrev  0x00000000000052ae      0x101 /workspace/optee_os/out/arm/export-ta_arm32/lib/libutils.a(snprintf.o)
 .debug_abbrev  0x00000000000053af       0x82 /workspace/optee_os/out/arm/export-ta_arm32/lib/libutils.a(memcmp.o)
 .debug_abbrev  0x0000000000005431       0x9f /workspace/optee_os/out/arm/export-ta_arm32/lib/libutils.a(memmove.o)
 .debug_abbrev  0x00000000000054d0       0x82 /workspace/optee_os/out/arm/export-ta_arm32/lib/libutils.a(buf_compare_ct.o)
 .debug_abbrev  0x0000000000005552      0x1ba /workspace/optee_os/out/arm/export-ta_arm32/lib/libutils.a(mempool.o)

.debug_loc      0x0000000000000000    0x19229
 .debug_loc     0x0000000000000000     0x18d8 ./darknetp_ta.o
 .debug_loc     0x00000000000018d8      0xb9a ./blas_TA.o
 .debug_loc     0x0000000000002472      0x223 ./softmax_layer_TA.o
 .debug_loc     0x0000000000002695      0x333 ./col2im_TA.o
 .debug_loc     0x00000000000029c8      0x373 ./connected_layer_TA.o
 .debug_loc     0x0000000000002d3b      0xd08 ./math_TA.o
 .debug_loc     0x0000000000003a43      0x58c ./parser_TA.o
 .debug_loc     0x0000000000003fcf      0xb84 ./activations_TA.o
 .debug_loc     0x0000000000004b53      0x899 ./gemm_TA.o
 .debug_loc     0x00000000000053ec      0x4f6 ./maxpool_layer_TA.o
 .debug_loc     0x00000000000058e2      0x6e7 ./network_TA.o
 .debug_loc     0x0000000000005fc9      0xbfe ./aes_TA.o
 .debug_loc     0x0000000000006bc7      0x23f ./cost_layer_TA.o
 .debug_loc     0x0000000000006e06      0x374 ./im2col_TA.o
 .debug_loc     0x000000000000717a      0x530 ./batchnorm_layer_TA.o
 .debug_loc     0x00000000000076aa      0x240 ./dropout_layer_TA.o
 .debug_loc     0x00000000000078ea      0x8dd ./convolutional_layer_TA.o
 .debug_loc     0x00000000000081c7      0x1d6 ./avgpool_layer_TA.o
 .debug_loc     0x000000000000839d      0x18c ./utils_TA.o
 .debug_loc     0x0000000000008529      0x161 ./diffprivate_TA.o
 .debug_loc     0x000000000000868a     0x2164 /workspace/optee_os/out/arm/export-ta_arm32/lib/libutils.a(bget_malloc.o)
 .debug_loc     0x000000000000a7ee       0xa0 /workspace/optee_os/out/arm/export-ta_arm32/lib/libutils.a(memcpy.o)
 .debug_loc     0x000000000000a88e       0x4c /workspace/optee_os/out/arm/export-ta_arm32/lib/libutils.a(memset.o)
 .debug_loc     0x000000000000a8da       0x73 /workspace/optee_os/out/arm/export-ta_arm32/lib/libutils.a(strcmp.o)
 .debug_loc     0x000000000000a94d       0xe3 /workspace/optee_os/out/arm/export-ta_arm32/lib/libutils.a(strncmp.o)
 .debug_loc     0x000000000000aa30      0x45f /workspace/optee_os/out/arm/export-ta_arm32/lib/libutils.a(trace.o)
 .debug_loc     0x000000000000ae8f      0xf53 /workspace/optee_os/out/arm/export-ta_arm32/lib/libutils.a(snprintk.o)
 .debug_loc     0x000000000000bde2       0xfa /workspace/optee_os/out/arm/export-ta_arm32/lib/libutils.a(memchr.o)
 .debug_loc     0x000000000000bedc       0x57 /workspace/optee_os/out/arm/export-ta_arm32/lib/libutils.a(strlen.o)
 .debug_loc     0x000000000000bf33      0x870 /workspace/optee_os/out/arm/export-ta_arm32/lib/libutils.a(arm32_aeabi_ldivmod.o)
 .debug_loc     0x000000000000c7a3       0x9f /workspace/optee_os/out/arm/export-ta_arm32/lib/libutee.a(trace_ext.o)
 .debug_loc     0x000000000000c842       0xb4 /workspace/optee_os/out/arm/export-ta_arm32/lib/libutee.a(assert.o)
 .debug_loc     0x000000000000c8f6     0x29c9 /workspace/optee_os/out/arm/export-ta_arm32/lib/libutee.a(tee_api_operations.o)
 .debug_loc     0x000000000000f2bf       0x21 /workspace/optee_os/out/arm/export-ta_arm32/lib/libutee.a(tee_api_panic.o)
 .debug_loc     0x000000000000f2e0      0x53a /workspace/optee_os/out/arm/export-ta_arm32/lib/libutee.a(user_ta_entry.o)
 .debug_loc     0x000000000000f81a      0x7e0 /workspace/optee_os/out/arm/export-ta_arm32/lib/libutee.a(tee_api.o)
 .debug_loc     0x000000000000fffa     0x1215 /workspace/optee_os/out/arm/export-ta_arm32/lib/libutee.a(tee_api_objects.o)
 .debug_loc     0x000000000001120f     0x273e /workspace/optee_os/out/arm/export-ta_arm32/lib/libutee.a(tee_api_arith_mpi.o)
 .debug_loc     0x000000000001394d     0x5126 /workspace/optee_os/out/arm/export-ta_arm32/lib/libmbedtls.a(bignum.o)
 .debug_loc     0x0000000000018a73       0xb8 /workspace/optee_os/out/arm/export-ta_arm32/lib/libutils.a(snprintf.o)
 .debug_loc     0x0000000000018b2b      0x13c /workspace/optee_os/out/arm/export-ta_arm32/lib/libutils.a(memcmp.o)
 .debug_loc     0x0000000000018c67      0x10a /workspace/optee_os/out/arm/export-ta_arm32/lib/libutils.a(memmove.o)
 .debug_loc     0x0000000000018d71      0x16c /workspace/optee_os/out/arm/export-ta_arm32/lib/libutils.a(buf_compare_ct.o)
 .debug_loc     0x0000000000018edd      0x34c /workspace/optee_os/out/arm/export-ta_arm32/lib/libutils.a(mempool.o)

.debug_aranges  0x0000000000000000      0x7f0
 .debug_aranges
                0x0000000000000000       0x20 ./darknetp_ta.o
 .debug_aranges
                0x0000000000000020       0x20 ./blas_TA.o
 .debug_aranges
                0x0000000000000040       0x20 ./softmax_layer_TA.o
 .debug_aranges
                0x0000000000000060       0x20 ./col2im_TA.o
 .debug_aranges
                0x0000000000000080       0x20 ./connected_layer_TA.o
 .debug_aranges
                0x00000000000000a0       0x20 ./math_TA.o
 .debug_aranges
                0x00000000000000c0       0x20 ./parser_TA.o
 .debug_aranges
                0x00000000000000e0       0x20 ./activations_TA.o
 .debug_aranges
                0x0000000000000100       0x20 ./gemm_TA.o
 .debug_aranges
                0x0000000000000120       0x20 ./maxpool_layer_TA.o
 .debug_aranges
                0x0000000000000140       0x20 ./network_TA.o
 .debug_aranges
                0x0000000000000160       0x20 ./aes_TA.o
 .debug_aranges
                0x0000000000000180       0x20 ./cost_layer_TA.o
 .debug_aranges
                0x00000000000001a0       0x20 ./im2col_TA.o
 .debug_aranges
                0x00000000000001c0       0x20 ./batchnorm_layer_TA.o
 .debug_aranges
                0x00000000000001e0       0x20 ./dropout_layer_TA.o
 .debug_aranges
                0x0000000000000200       0x20 ./convolutional_layer_TA.o
 .debug_aranges
                0x0000000000000220       0x20 ./avgpool_layer_TA.o
 .debug_aranges
                0x0000000000000240       0x20 ./utils_TA.o
 .debug_aranges
                0x0000000000000260       0x20 ./diffprivate_TA.o
 .debug_aranges
                0x0000000000000280       0x20 ./user_ta_header.o
 .debug_aranges
                0x00000000000002a0       0x20 /workspace/optee_os/out/arm/export-ta_arm32/lib/libutils.a(bget_malloc.o)
 .debug_aranges
                0x00000000000002c0       0x20 /workspace/optee_os/out/arm/export-ta_arm32/lib/libutils.a(memcpy.o)
 .debug_aranges
                0x00000000000002e0       0x20 /workspace/optee_os/out/arm/export-ta_arm32/lib/libutils.a(memset.o)
 .debug_aranges
                0x0000000000000300       0x20 /workspace/optee_os/out/arm/export-ta_arm32/lib/libutils.a(strcmp.o)
 .debug_aranges
                0x0000000000000320       0x20 /workspace/optee_os/out/arm/export-ta_arm32/lib/libutils.a(strncmp.o)
 .debug_aranges
                0x0000000000000340       0x20 /workspace/optee_os/out/arm/export-ta_arm32/lib/libutils.a(trace.o)
 .debug_aranges
                0x0000000000000360       0x20 /workspace/optee_os/out/arm/export-ta_arm32/lib/libutils.a(aeabi_unwind.o)
 .debug_aranges
                0x0000000000000380       0x20 /workspace/optee_os/out/arm/export-ta_arm32/lib/libutils.a(snprintk.o)
 .debug_aranges
                0x00000000000003a0       0x20 /workspace/optee_os/out/arm/export-ta_arm32/lib/libutils.a(memchr.o)
 .debug_aranges
                0x00000000000003c0       0x20 /workspace/optee_os/out/arm/export-ta_arm32/lib/libutils.a(strlen.o)
 .debug_aranges
                0x00000000000003e0       0x28 /workspace/optee_os/out/arm/export-ta_arm32/lib/libutils.a(arm32_aeabi_ldivmod_a32.o)
 .debug_aranges
                0x0000000000000408       0x20 /workspace/optee_os/out/arm/export-ta_arm32/lib/libutils.a(arm32_aeabi_ldivmod.o)
 .debug_aranges
                0x0000000000000428       0x20 /workspace/optee_os/out/arm/export-ta_arm32/lib/libutee.a(trace_ext.o)
 .debug_aranges
                0x0000000000000448       0x20 /workspace/optee_os/out/arm/export-ta_arm32/lib/libutee.a(assert.o)
 .debug_aranges
                0x0000000000000468       0x20 /workspace/optee_os/out/arm/export-ta_arm32/lib/libutee.a(tee_api_operations.o)
 .debug_aranges
                0x0000000000000488       0x20 /workspace/optee_os/out/arm/export-ta_arm32/lib/libutee.a(tee_api_panic.o)
 .debug_aranges
                0x00000000000004a8       0x20 /workspace/optee_os/out/arm/export-ta_arm32/lib/libutee.a(user_ta_entry.o)
 .debug_aranges
                0x00000000000004c8      0x1e0 /workspace/optee_os/out/arm/export-ta_arm32/lib/libutee.a(utee_syscalls_a32.o)
 .debug_aranges
                0x00000000000006a8       0x20 /workspace/optee_os/out/arm/export-ta_arm32/lib/libutee.a(gprof_a32.o)
 .debug_aranges
                0x00000000000006c8       0x20 /workspace/optee_os/out/arm/export-ta_arm32/lib/libutee.a(tee_api.o)
 .debug_aranges
                0x00000000000006e8       0x20 /workspace/optee_os/out/arm/export-ta_arm32/lib/libutee.a(tee_api_objects.o)
 .debug_aranges
                0x0000000000000708       0x28 /workspace/optee_os/out/arm/export-ta_arm32/lib/libutee.a(tee_api_arith_mpi.o)
 .debug_aranges
                0x0000000000000730       0x20 /workspace/optee_os/out/arm/export-ta_arm32/lib/libmbedtls.a(bignum.o)
 .debug_aranges
                0x0000000000000750       0x20 /workspace/optee_os/out/arm/export-ta_arm32/lib/libutils.a(snprintf.o)
 .debug_aranges
                0x0000000000000770       0x20 /workspace/optee_os/out/arm/export-ta_arm32/lib/libutils.a(memcmp.o)
 .debug_aranges
                0x0000000000000790       0x20 /workspace/optee_os/out/arm/export-ta_arm32/lib/libutils.a(memmove.o)
 .debug_aranges
                0x00000000000007b0       0x20 /workspace/optee_os/out/arm/export-ta_arm32/lib/libutils.a(buf_compare_ct.o)
 .debug_aranges
                0x00000000000007d0       0x20 /workspace/optee_os/out/arm/export-ta_arm32/lib/libutils.a(mempool.o)

.debug_ranges   0x0000000000000000     0x10f8
 .debug_ranges  0x0000000000000000      0x1c0 ./darknetp_ta.o
 .debug_ranges  0x00000000000001c0       0xd8 ./blas_TA.o
 .debug_ranges  0x0000000000000298       0x18 ./softmax_layer_TA.o
 .debug_ranges  0x00000000000002b0       0x18 ./col2im_TA.o
 .debug_ranges  0x00000000000002c8       0x30 ./math_TA.o
 .debug_ranges  0x00000000000002f8       0x68 ./parser_TA.o
 .debug_ranges  0x0000000000000360      0x130 ./activations_TA.o
 .debug_ranges  0x0000000000000490       0x60 ./gemm_TA.o
 .debug_ranges  0x00000000000004f0       0x78 ./maxpool_layer_TA.o
 .debug_ranges  0x0000000000000568       0x90 ./network_TA.o
 .debug_ranges  0x00000000000005f8       0xb0 ./aes_TA.o
 .debug_ranges  0x00000000000006a8       0x18 ./cost_layer_TA.o
 .debug_ranges  0x00000000000006c0       0x18 ./im2col_TA.o
 .debug_ranges  0x00000000000006d8       0xb0 ./batchnorm_layer_TA.o
 .debug_ranges  0x0000000000000788       0x48 ./dropout_layer_TA.o
 .debug_ranges  0x00000000000007d0       0x98 ./convolutional_layer_TA.o
 .debug_ranges  0x0000000000000868       0x90 ./avgpool_layer_TA.o
 .debug_ranges  0x00000000000008f8       0x40 ./diffprivate_TA.o
 .debug_ranges  0x0000000000000938      0x148 /workspace/optee_os/out/arm/export-ta_arm32/lib/libutils.a(bget_malloc.o)
 .debug_ranges  0x0000000000000a80       0x38 /workspace/optee_os/out/arm/export-ta_arm32/lib/libutils.a(trace.o)
 .debug_ranges  0x0000000000000ab8       0x40 /workspace/optee_os/out/arm/export-ta_arm32/lib/libutils.a(snprintk.o)
 .debug_ranges  0x0000000000000af8       0x20 /workspace/optee_os/out/arm/export-ta_arm32/lib/libutils.a(arm32_aeabi_ldivmod_a32.o)
 .debug_ranges  0x0000000000000b18       0x80 /workspace/optee_os/out/arm/export-ta_arm32/lib/libutils.a(arm32_aeabi_ldivmod.o)
 .debug_ranges  0x0000000000000b98       0x68 /workspace/optee_os/out/arm/export-ta_arm32/lib/libutee.a(tee_api_operations.o)
 .debug_ranges  0x0000000000000c00       0xc0 /workspace/optee_os/out/arm/export-ta_arm32/lib/libutee.a(user_ta_entry.o)
 .debug_ranges  0x0000000000000cc0      0x1d8 /workspace/optee_os/out/arm/export-ta_arm32/lib/libutee.a(utee_syscalls_a32.o)
 .debug_ranges  0x0000000000000e98       0x18 /workspace/optee_os/out/arm/export-ta_arm32/lib/libutee.a(tee_api.o)
 .debug_ranges  0x0000000000000eb0      0x1a0 /workspace/optee_os/out/arm/export-ta_arm32/lib/libutee.a(tee_api_arith_mpi.o)
 .debug_ranges  0x0000000000001050       0xa8 /workspace/optee_os/out/arm/export-ta_arm32/lib/libmbedtls.a(bignum.o)

.debug_macro    0x0000000000000000    0x1f647
 .debug_macro   0x0000000000000000      0x1e4 ./darknetp_ta.o
 .debug_macro   0x00000000000001e4      0x970 ./darknetp_ta.o
 .debug_macro   0x0000000000000b54      0x16d ./darknetp_ta.o
 .debug_macro   0x0000000000000cc1       0xcd ./darknetp_ta.o
 .debug_macro   0x0000000000000d8e      0x8ef ./darknetp_ta.o
 .debug_macro   0x000000000000167d       0x7c ./darknetp_ta.o
 .debug_macro   0x00000000000016f9      0x184 ./darknetp_ta.o
 .debug_macro   0x000000000000187d       0xc4 ./darknetp_ta.o
 .debug_macro   0x0000000000001941       0x22 ./darknetp_ta.o
 .debug_macro   0x0000000000001963       0x35 ./darknetp_ta.o
 .debug_macro   0x0000000000001998       0x34 ./darknetp_ta.o
 .debug_macro   0x00000000000019cc       0x94 ./darknetp_ta.o
 .debug_macro   0x0000000000001a60       0x10 ./darknetp_ta.o
 .debug_macro   0x0000000000001a70       0x58 ./darknetp_ta.o
 .debug_macro   0x0000000000001ac8       0xca ./darknetp_ta.o
 .debug_macro   0x0000000000001b92       0x22 ./darknetp_ta.o
 .debug_macro   0x0000000000001bb4       0x16 ./darknetp_ta.o
 .debug_macro   0x0000000000001bca       0x88 ./darknetp_ta.o
 .debug_macro   0x0000000000001c52       0x2e ./darknetp_ta.o
 .debug_macro   0x0000000000001c80      0x118 ./blas_TA.o
 .debug_macro   0x0000000000001d98      0x970 ./blas_TA.o
 .debug_macro   0x0000000000002708       0x10 ./blas_TA.o
 .debug_macro   0x0000000000002718      0x182 ./softmax_layer_TA.o
 .debug_macro   0x000000000000289a      0x970 ./softmax_layer_TA.o
 .debug_macro   0x000000000000320a       0x36 ./col2im_TA.o
 .debug_macro   0x0000000000003240      0x970 ./col2im_TA.o
 .debug_macro   0x0000000000003bb0      0x1c4 ./connected_layer_TA.o
 .debug_macro   0x0000000000003d74      0x970 ./connected_layer_TA.o
 .debug_macro   0x00000000000046e4      0x12e ./math_TA.o
 .debug_macro   0x0000000000004812      0x970 ./math_TA.o
 .debug_macro   0x0000000000005182      0x14b ./parser_TA.o
 .debug_macro   0x00000000000052cd      0x970 ./parser_TA.o
 .debug_macro   0x0000000000005c3d       0x10 ./parser_TA.o
 .debug_macro   0x0000000000005c4d       0x2e ./parser_TA.o
 .debug_macro   0x0000000000005c7b       0xed ./activations_TA.o
 .debug_macro   0x0000000000005d68      0x970 ./activations_TA.o
 .debug_macro   0x00000000000066d8      0x105 ./gemm_TA.o
 .debug_macro   0x00000000000067dd      0x970 ./gemm_TA.o
 .debug_macro   0x000000000000714d      0x15f ./maxpool_layer_TA.o
 .debug_macro   0x00000000000072ac      0x970 ./maxpool_layer_TA.o
 .debug_macro   0x0000000000007c1c      0x179 ./network_TA.o
 .debug_macro   0x0000000000007d95      0x970 ./network_TA.o
 .debug_macro   0x0000000000008705       0x7f ./aes_TA.o
 .debug_macro   0x0000000000008784      0x970 ./aes_TA.o
 .debug_macro   0x00000000000090f4      0x173 ./cost_layer_TA.o
 .debug_macro   0x0000000000009267      0x970 ./cost_layer_TA.o
 .debug_macro   0x0000000000009bd7       0x37 ./im2col_TA.o
 .debug_macro   0x0000000000009c0e      0x970 ./im2col_TA.o
 .debug_macro   0x000000000000a57e      0x105 ./batchnorm_layer_TA.o
 .debug_macro   0x000000000000a683      0x970 ./batchnorm_layer_TA.o
 .debug_macro   0x000000000000aff3      0x169 ./dropout_layer_TA.o
 .debug_macro   0x000000000000b15c      0x970 ./dropout_layer_TA.o
 .debug_macro   0x000000000000bacc      0x1bf ./convolutional_layer_TA.o
 .debug_macro   0x000000000000bc8b      0x970 ./convolutional_layer_TA.o
 .debug_macro   0x000000000000c5fb      0x15f ./avgpool_layer_TA.o
 .debug_macro   0x000000000000c75a      0x970 ./avgpool_layer_TA.o
 .debug_macro   0x000000000000d0ca       0xe6 ./utils_TA.o
 .debug_macro   0x000000000000d1b0      0x970 ./utils_TA.o
 .debug_macro   0x000000000000db20       0xf7 ./diffprivate_TA.o
 .debug_macro   0x000000000000dc17      0x970 ./diffprivate_TA.o
 .debug_macro   0x000000000000e587      0x18d ./user_ta_header.o
 .debug_macro   0x000000000000e714      0x970 ./user_ta_header.o
 .debug_macro   0x000000000000f084       0xca ./user_ta_header.o
 .debug_macro   0x000000000000f14e       0x82 ./user_ta_header.o
 .debug_macro   0x000000000000f1d0       0x22 ./user_ta_header.o
 .debug_macro   0x000000000000f1f2      0x13f /workspace/optee_os/out/arm/export-ta_arm32/lib/libutils.a(bget_malloc.o)
 .debug_macro   0x000000000000f331      0x93a /workspace/optee_os/out/arm/export-ta_arm32/lib/libutils.a(bget_malloc.o)
 .debug_macro   0x000000000000fc6b      0x29f /workspace/optee_os/out/arm/export-ta_arm32/lib/libutils.a(bget_malloc.o)
 .debug_macro   0x000000000000ff0a       0x10 /workspace/optee_os/out/arm/export-ta_arm32/lib/libutils.a(bget_malloc.o)
 .debug_macro   0x000000000000ff1a       0x16 /workspace/optee_os/out/arm/export-ta_arm32/lib/libutils.a(bget_malloc.o)
 .debug_macro   0x000000000000ff30       0x3c /workspace/optee_os/out/arm/export-ta_arm32/lib/libutils.a(bget_malloc.o)
 .debug_macro   0x000000000000ff6c       0x57 /workspace/optee_os/out/arm/export-ta_arm32/lib/libutils.a(memcpy.o)
 .debug_macro   0x000000000000ffc3      0x93a /workspace/optee_os/out/arm/export-ta_arm32/lib/libutils.a(memcpy.o)
 .debug_macro   0x00000000000108fd       0x7c /workspace/optee_os/out/arm/export-ta_arm32/lib/libutils.a(memcpy.o)
 .debug_macro   0x0000000000010979       0x51 /workspace/optee_os/out/arm/export-ta_arm32/lib/libutils.a(memset.o)
 .debug_macro   0x00000000000109ca      0x93a /workspace/optee_os/out/arm/export-ta_arm32/lib/libutils.a(memset.o)
 .debug_macro   0x0000000000011304       0x54 /workspace/optee_os/out/arm/export-ta_arm32/lib/libutils.a(strcmp.o)
 .debug_macro   0x0000000000011358      0x93a /workspace/optee_os/out/arm/export-ta_arm32/lib/libutils.a(strcmp.o)
 .debug_macro   0x0000000000011c92       0x54 /workspace/optee_os/out/arm/export-ta_arm32/lib/libutils.a(strncmp.o)
 .debug_macro   0x0000000000011ce6      0x93a /workspace/optee_os/out/arm/export-ta_arm32/lib/libutils.a(strncmp.o)
 .debug_macro   0x0000000000012620       0xdd /workspace/optee_os/out/arm/export-ta_arm32/lib/libutils.a(trace.o)
 .debug_macro   0x00000000000126fd      0x93a /workspace/optee_os/out/arm/export-ta_arm32/lib/libutils.a(trace.o)
 .debug_macro   0x0000000000013037       0xc4 /workspace/optee_os/out/arm/export-ta_arm32/lib/libutils.a(trace.o)
 .debug_macro   0x00000000000130fb       0x1a /workspace/optee_os/out/arm/export-ta_arm32/lib/libutils.a(aeabi_unwind.o)
 .debug_macro   0x0000000000013115      0x93a /workspace/optee_os/out/arm/export-ta_arm32/lib/libutils.a(aeabi_unwind.o)
 .debug_macro   0x0000000000013a4f      0x134 /workspace/optee_os/out/arm/export-ta_arm32/lib/libutils.a(snprintk.o)
 .debug_macro   0x0000000000013b83      0x93a /workspace/optee_os/out/arm/export-ta_arm32/lib/libutils.a(snprintk.o)
 .debug_macro   0x00000000000144bd       0x66 /workspace/optee_os/out/arm/export-ta_arm32/lib/libutils.a(memchr.o)
 .debug_macro   0x0000000000014523      0x93a /workspace/optee_os/out/arm/export-ta_arm32/lib/libutils.a(memchr.o)
 .debug_macro   0x0000000000014e5d       0x5a /workspace/optee_os/out/arm/export-ta_arm32/lib/libutils.a(strlen.o)
 .debug_macro   0x0000000000014eb7      0x93a /workspace/optee_os/out/arm/export-ta_arm32/lib/libutils.a(strlen.o)
 .debug_macro   0x00000000000157f1       0x1a /workspace/optee_os/out/arm/export-ta_arm32/lib/libutils.a(arm32_aeabi_ldivmod.o)
 .debug_macro   0x000000000001580b      0x93a /workspace/optee_os/out/arm/export-ta_arm32/lib/libutils.a(arm32_aeabi_ldivmod.o)
 .debug_macro   0x0000000000016145       0xf1 /workspace/optee_os/out/arm/export-ta_arm32/lib/libutee.a(trace_ext.o)
 .debug_macro   0x0000000000016236      0x93a /workspace/optee_os/out/arm/export-ta_arm32/lib/libutee.a(trace_ext.o)
 .debug_macro   0x0000000000016b70      0x106 /workspace/optee_os/out/arm/export-ta_arm32/lib/libutee.a(assert.o)
 .debug_macro   0x0000000000016c76      0x93a /workspace/optee_os/out/arm/export-ta_arm32/lib/libutee.a(assert.o)
 .debug_macro   0x00000000000175b0      0x177 /workspace/optee_os/out/arm/export-ta_arm32/lib/libutee.a(tee_api_operations.o)
 .debug_macro   0x0000000000017727      0x93a /workspace/optee_os/out/arm/export-ta_arm32/lib/libutee.a(tee_api_operations.o)
 .debug_macro   0x0000000000018061      0x1b0 /workspace/optee_os/out/arm/export-ta_arm32/lib/libutee.a(tee_api_operations.o)
 .debug_macro   0x0000000000018211       0xb4 /workspace/optee_os/out/arm/export-ta_arm32/lib/libutee.a(tee_api_panic.o)
 .debug_macro   0x00000000000182c5      0x93a /workspace/optee_os/out/arm/export-ta_arm32/lib/libutee.a(tee_api_panic.o)
 .debug_macro   0x0000000000018bff      0x18e /workspace/optee_os/out/arm/export-ta_arm32/lib/libutee.a(user_ta_entry.o)
 .debug_macro   0x0000000000018d8d      0x93a /workspace/optee_os/out/arm/export-ta_arm32/lib/libutee.a(user_ta_entry.o)
 .debug_macro   0x00000000000196c7      0x2d4 /workspace/optee_os/out/arm/export-ta_arm32/lib/libutee.a(user_ta_entry.o)
 .debug_macro   0x000000000001999b       0x34 /workspace/optee_os/out/arm/export-ta_arm32/lib/libutee.a(user_ta_entry.o)
 .debug_macro   0x00000000000199cf      0x16f /workspace/optee_os/out/arm/export-ta_arm32/lib/libutee.a(tee_api.o)
 .debug_macro   0x0000000000019b3e      0x93a /workspace/optee_os/out/arm/export-ta_arm32/lib/libutee.a(tee_api.o)
 .debug_macro   0x000000000001a478      0x139 /workspace/optee_os/out/arm/export-ta_arm32/lib/libutee.a(tee_api_objects.o)
 .debug_macro   0x000000000001a5b1      0x93a /workspace/optee_os/out/arm/export-ta_arm32/lib/libutee.a(tee_api_objects.o)
 .debug_macro   0x000000000001aeeb      0x19c /workspace/optee_os/out/arm/export-ta_arm32/lib/libutee.a(tee_api_arith_mpi.o)
 .debug_macro   0x000000000001b087      0x93a /workspace/optee_os/out/arm/export-ta_arm32/lib/libutee.a(tee_api_arith_mpi.o)
 .debug_macro   0x000000000001b9c1      0x11e /workspace/optee_os/out/arm/export-ta_arm32/lib/libutee.a(tee_api_arith_mpi.o)
 .debug_macro   0x000000000001badf       0x6b /workspace/optee_os/out/arm/export-ta_arm32/lib/libutee.a(tee_api_arith_mpi.o)
 .debug_macro   0x000000000001bb4a      0x165 /workspace/optee_os/out/arm/export-ta_arm32/lib/libmbedtls.a(bignum.o)
 .debug_macro   0x000000000001bcaf      0x93a /workspace/optee_os/out/arm/export-ta_arm32/lib/libmbedtls.a(bignum.o)
 .debug_macro   0x000000000001c5e9       0x19 /workspace/optee_os/out/arm/export-ta_arm32/lib/libmbedtls.a(bignum.o)
 .debug_macro   0x000000000001c602       0x4d /workspace/optee_os/out/arm/export-ta_arm32/lib/libutils.a(snprintf.o)
 .debug_macro   0x000000000001c64f      0x93a /workspace/optee_os/out/arm/export-ta_arm32/lib/libutils.a(snprintf.o)
 .debug_macro   0x000000000001cf89       0x51 /workspace/optee_os/out/arm/export-ta_arm32/lib/libutils.a(memcmp.o)
 .debug_macro   0x000000000001cfda      0x93a /workspace/optee_os/out/arm/export-ta_arm32/lib/libutils.a(memcmp.o)
 .debug_macro   0x000000000001d914       0x64 /workspace/optee_os/out/arm/export-ta_arm32/lib/libutils.a(memmove.o)
 .debug_macro   0x000000000001d978      0x93a /workspace/optee_os/out/arm/export-ta_arm32/lib/libutils.a(memmove.o)
 .debug_macro   0x000000000001e2b2       0x36 /workspace/optee_os/out/arm/export-ta_arm32/lib/libutils.a(buf_compare_ct.o)
 .debug_macro   0x000000000001e2e8      0x93a /workspace/optee_os/out/arm/export-ta_arm32/lib/libutils.a(buf_compare_ct.o)
 .debug_macro   0x000000000001ec22       0xeb /workspace/optee_os/out/arm/export-ta_arm32/lib/libutils.a(mempool.o)
 .debug_macro   0x000000000001ed0d      0x93a /workspace/optee_os/out/arm/export-ta_arm32/lib/libutils.a(mempool.o)

.debug_line     0x0000000000000000     0x9e24
 .debug_line    0x0000000000000000      0x642 ./darknetp_ta.o
 .debug_line    0x0000000000000642      0x422 ./blas_TA.o
 .debug_line    0x0000000000000a64      0x351 ./softmax_layer_TA.o
 .debug_line    0x0000000000000db5      0x184 ./col2im_TA.o
 .debug_line    0x0000000000000f39      0x44e ./connected_layer_TA.o
 .debug_line    0x0000000000001387      0x3d5 ./math_TA.o
 .debug_line    0x000000000000175c      0x332 ./parser_TA.o
 .debug_line    0x0000000000001a8e      0x33c ./activations_TA.o
 .debug_line    0x0000000000001dca      0x34a ./gemm_TA.o
 .debug_line    0x0000000000002114      0x3bf ./maxpool_layer_TA.o
 .debug_line    0x00000000000024d3      0x42e ./network_TA.o
 .debug_line    0x0000000000002901      0x3ce ./aes_TA.o
 .debug_line    0x0000000000002ccf      0x345 ./cost_layer_TA.o
 .debug_line    0x0000000000003014      0x176 ./im2col_TA.o
 .debug_line    0x000000000000318a      0x396 ./batchnorm_layer_TA.o
 .debug_line    0x0000000000003520      0x36f ./dropout_layer_TA.o
 .debug_line    0x000000000000388f      0x605 ./convolutional_layer_TA.o
 .debug_line    0x0000000000003e94      0x358 ./avgpool_layer_TA.o
 .debug_line    0x00000000000041ec      0x24e ./utils_TA.o
 .debug_line    0x000000000000443a      0x253 ./diffprivate_TA.o
 .debug_line    0x000000000000468d      0x30a ./user_ta_header.o
 .debug_line    0x0000000000004997      0x558 /workspace/optee_os/out/arm/export-ta_arm32/lib/libutils.a(bget_malloc.o)
 .debug_line    0x0000000000004eef      0x158 /workspace/optee_os/out/arm/export-ta_arm32/lib/libutils.a(memcpy.o)
 .debug_line    0x0000000000005047      0x157 /workspace/optee_os/out/arm/export-ta_arm32/lib/libutils.a(memset.o)
 .debug_line    0x000000000000519e      0x169 /workspace/optee_os/out/arm/export-ta_arm32/lib/libutils.a(strcmp.o)
 .debug_line    0x0000000000005307      0x16f /workspace/optee_os/out/arm/export-ta_arm32/lib/libutils.a(strncmp.o)
 .debug_line    0x0000000000005476      0x2c1 /workspace/optee_os/out/arm/export-ta_arm32/lib/libutils.a(trace.o)
 .debug_line    0x0000000000005737       0x7e /workspace/optee_os/out/arm/export-ta_arm32/lib/libutils.a(aeabi_unwind.o)
 .debug_line    0x00000000000057b5      0x344 /workspace/optee_os/out/arm/export-ta_arm32/lib/libutils.a(snprintk.o)
 .debug_line    0x0000000000005af9      0x165 /workspace/optee_os/out/arm/export-ta_arm32/lib/libutils.a(memchr.o)
 .debug_line    0x0000000000005c5e      0x161 /workspace/optee_os/out/arm/export-ta_arm32/lib/libutils.a(strlen.o)
 .debug_line    0x0000000000005dbf       0x7d /workspace/optee_os/out/arm/export-ta_arm32/lib/libutils.a(arm32_aeabi_ldivmod_a32.o)
 .debug_line    0x0000000000005e3c      0x10c /workspace/optee_os/out/arm/export-ta_arm32/lib/libutils.a(arm32_aeabi_ldivmod.o)
 .debug_line    0x0000000000005f48      0x272 /workspace/optee_os/out/arm/export-ta_arm32/lib/libutee.a(trace_ext.o)
 .debug_line    0x00000000000061ba      0x274 /workspace/optee_os/out/arm/export-ta_arm32/lib/libutee.a(assert.o)
 .debug_line    0x000000000000642e      0x975 /workspace/optee_os/out/arm/export-ta_arm32/lib/libutee.a(tee_api_operations.o)
 .debug_line    0x0000000000006da3      0x1ee /workspace/optee_os/out/arm/export-ta_arm32/lib/libutee.a(tee_api_panic.o)
 .debug_line    0x0000000000006f91      0x42b /workspace/optee_os/out/arm/export-ta_arm32/lib/libutee.a(user_ta_entry.o)
 .debug_line    0x00000000000073bc      0x446 /workspace/optee_os/out/arm/export-ta_arm32/lib/libutee.a(utee_syscalls_a32.o)
 .debug_line    0x0000000000007802       0x58 /workspace/optee_os/out/arm/export-ta_arm32/lib/libutee.a(gprof_a32.o)
 .debug_line    0x000000000000785a      0x3a7 /workspace/optee_os/out/arm/export-ta_arm32/lib/libutee.a(tee_api.o)
 .debug_line    0x0000000000007c01      0x4a7 /workspace/optee_os/out/arm/export-ta_arm32/lib/libutee.a(tee_api_objects.o)
 .debug_line    0x00000000000080a8      0x7de /workspace/optee_os/out/arm/export-ta_arm32/lib/libutee.a(tee_api_arith_mpi.o)
 .debug_line    0x0000000000008886      0xdd6 /workspace/optee_os/out/arm/export-ta_arm32/lib/libmbedtls.a(bignum.o)
 .debug_line    0x000000000000965c      0x16b /workspace/optee_os/out/arm/export-ta_arm32/lib/libutils.a(snprintf.o)
 .debug_line    0x00000000000097c7      0x15a /workspace/optee_os/out/arm/export-ta_arm32/lib/libutils.a(memcmp.o)
 .debug_line    0x0000000000009921      0x16e /workspace/optee_os/out/arm/export-ta_arm32/lib/libutils.a(memmove.o)
 .debug_line    0x0000000000009a8f      0x150 /workspace/optee_os/out/arm/export-ta_arm32/lib/libutils.a(buf_compare_ct.o)
 .debug_line    0x0000000000009bdf      0x245 /workspace/optee_os/out/arm/export-ta_arm32/lib/libutils.a(mempool.o)

.debug_str      0x0000000000000000    0x13755
 .debug_str     0x0000000000000000     0x8c75 ./darknetp_ta.o
                                       0x8f41 (size before relaxing)
 .debug_str     0x0000000000008c75      0x21c ./blas_TA.o
                                       0x45be (size before relaxing)
 .debug_str     0x0000000000008e91       0x9f ./softmax_layer_TA.o
                                       0x8833 (size before relaxing)
 .debug_str     0x0000000000008f30       0xc3 ./col2im_TA.o
                                       0x2d00 (size before relaxing)
 .debug_str     0x0000000000008ff3      0x14c ./connected_layer_TA.o
                                       0x890d (size before relaxing)
 .debug_str     0x000000000000913f       0xde ./math_TA.o
                                       0x7cf8 (size before relaxing)
 .debug_str     0x000000000000921d      0x11d ./parser_TA.o
                                       0x51fe (size before relaxing)
 .debug_str     0x000000000000933a      0x224 ./activations_TA.o
                                       0x40f2 (size before relaxing)
 .debug_str     0x000000000000955e       0x64 ./gemm_TA.o
                                       0x4821 (size before relaxing)
 .debug_str     0x00000000000095c2       0xb3 ./maxpool_layer_TA.o
                                       0x8740 (size before relaxing)
 .debug_str     0x0000000000009675       0x70 ./network_TA.o
                                       0x89bf (size before relaxing)
 .debug_str     0x00000000000096e5      0x21b ./aes_TA.o
                                       0x3517 (size before relaxing)
 .debug_str     0x0000000000009900       0x6c ./cost_layer_TA.o
                                       0x8758 (size before relaxing)
 .debug_str     0x000000000000996c       0x53 ./im2col_TA.o
                                       0x2c4f (size before relaxing)
 .debug_str     0x00000000000099bf       0x99 ./batchnorm_layer_TA.o
                                       0x48ec (size before relaxing)
 .debug_str     0x0000000000009a58       0x8f ./dropout_layer_TA.o
                                       0x8731 (size before relaxing)
 .debug_str     0x0000000000009ae7      0x157 ./convolutional_layer_TA.o
                                       0x8921 (size before relaxing)
 .debug_str     0x0000000000009c3e       0x8e ./avgpool_layer_TA.o
                                       0x870f (size before relaxing)
 .debug_str     0x0000000000009ccc       0x32 ./utils_TA.o
                                       0x3e39 (size before relaxing)
 .debug_str     0x0000000000009cfe       0x5c ./diffprivate_TA.o
                                       0x3e50 (size before relaxing)
 .debug_str     0x0000000000009d5a      0xd66 ./user_ta_header.o
                                       0x955a (size before relaxing)
 .debug_str     0x000000000000aac0      0xf6a /workspace/optee_os/out/arm/export-ta_arm32/lib/libutils.a(bget_malloc.o)
                                       0x59e3 (size before relaxing)
 .debug_str     0x000000000000ba2a      0x3ab /workspace/optee_os/out/arm/export-ta_arm32/lib/libutils.a(memcpy.o)
                                       0x36a4 (size before relaxing)
 .debug_str     0x000000000000bdd5       0xb8 /workspace/optee_os/out/arm/export-ta_arm32/lib/libutils.a(memset.o)
                                       0x3641 (size before relaxing)
 .debug_str     0x000000000000be8d       0x8a /workspace/optee_os/out/arm/export-ta_arm32/lib/libutils.a(strcmp.o)
                                       0x383c (size before relaxing)
 .debug_str     0x000000000000bf17       0xa5 /workspace/optee_os/out/arm/export-ta_arm32/lib/libutils.a(strncmp.o)
                                       0x3848 (size before relaxing)
 .debug_str     0x000000000000bfbc      0x161 /workspace/optee_os/out/arm/export-ta_arm32/lib/libutils.a(trace.o)
                                       0x539e (size before relaxing)
 .debug_str     0x000000000000c11d       0xa3 /workspace/optee_os/out/arm/export-ta_arm32/lib/libutils.a(aeabi_unwind.o)
                                       0x3112 (size before relaxing)
 .debug_str     0x000000000000c1c0      0x5a9 /workspace/optee_os/out/arm/export-ta_arm32/lib/libutils.a(snprintk.o)
                                       0x4321 (size before relaxing)
 .debug_str     0x000000000000c769       0xaf /workspace/optee_os/out/arm/export-ta_arm32/lib/libutils.a(memchr.o)
                                       0x389f (size before relaxing)
 .debug_str     0x000000000000c818       0x50 /workspace/optee_os/out/arm/export-ta_arm32/lib/libutils.a(strlen.o)
                                       0x383c (size before relaxing)
 .debug_str     0x000000000000c868       0xb9 /workspace/optee_os/out/arm/export-ta_arm32/lib/libutils.a(arm32_aeabi_ldivmod.o)
                                       0x3164 (size before relaxing)
 .debug_str     0x000000000000c921       0x7c /workspace/optee_os/out/arm/export-ta_arm32/lib/libutee.a(trace_ext.o)
                                       0x8608 (size before relaxing)
 .debug_str     0x000000000000c99d       0x4b /workspace/optee_os/out/arm/export-ta_arm32/lib/libutee.a(assert.o)
                                       0x84fc (size before relaxing)
 .debug_str     0x000000000000c9e8     0x1590 /workspace/optee_os/out/arm/export-ta_arm32/lib/libutee.a(tee_api_operations.o)
                                       0xa1c8 (size before relaxing)
 .debug_str     0x000000000000df78       0x4e /workspace/optee_os/out/arm/export-ta_arm32/lib/libutee.a(tee_api_panic.o)
                                       0x7d6c (size before relaxing)
 .debug_str     0x000000000000dfc6     0x35d2 /workspace/optee_os/out/arm/export-ta_arm32/lib/libutee.a(user_ta_entry.o)
                                       0xc7ae (size before relaxing)
 .debug_str     0x0000000000011598      0x417 /workspace/optee_os/out/arm/export-ta_arm32/lib/libutee.a(tee_api.o)
                                       0x9514 (size before relaxing)
 .debug_str     0x00000000000119af      0x619 /workspace/optee_os/out/arm/export-ta_arm32/lib/libutee.a(tee_api_objects.o)
                                       0x86a7 (size before relaxing)
 .debug_str     0x0000000000011fc8      0xf97 /workspace/optee_os/out/arm/export-ta_arm32/lib/libutee.a(tee_api_arith_mpi.o)
                                       0xa375 (size before relaxing)
 .debug_str     0x0000000000012f5f      0x5ce /workspace/optee_os/out/arm/export-ta_arm32/lib/libmbedtls.a(bignum.o)
                                       0x56ca (size before relaxing)
 .debug_str     0x000000000001352d       0x46 /workspace/optee_os/out/arm/export-ta_arm32/lib/libutils.a(snprintf.o)
                                       0x35a1 (size before relaxing)
 .debug_str     0x0000000000013573       0x50 /workspace/optee_os/out/arm/export-ta_arm32/lib/libutils.a(memcmp.o)
                                       0x3671 (size before relaxing)
 .debug_str     0x00000000000135c3       0x5b /workspace/optee_os/out/arm/export-ta_arm32/lib/libutils.a(memmove.o)
                                       0x388b (size before relaxing)
 .debug_str     0x000000000001361e       0x50 /workspace/optee_os/out/arm/export-ta_arm32/lib/libutils.a(buf_compare_ct.o)
                                       0x344f (size before relaxing)
 .debug_str     0x000000000001366e       0xe7 /workspace/optee_os/out/arm/export-ta_arm32/lib/libutils.a(mempool.o)
                                       0x53a3 (size before relaxing)

.comment        0x0000000000000000       0x24
 .comment       0x0000000000000000       0x24 ./darknetp_ta.o
                                         0x25 (size before relaxing)
 .comment       0x0000000000000024       0x25 ./blas_TA.o
 .comment       0x0000000000000024       0x25 ./softmax_layer_TA.o
 .comment       0x0000000000000024       0x25 ./col2im_TA.o
 .comment       0x0000000000000024       0x25 ./connected_layer_TA.o
 .comment       0x0000000000000024       0x25 ./math_TA.o
 .comment       0x0000000000000024       0x25 ./parser_TA.o
 .comment       0x0000000000000024       0x25 ./activations_TA.o
 .comment       0x0000000000000024       0x25 ./gemm_TA.o
 .comment       0x0000000000000024       0x25 ./maxpool_layer_TA.o
 .comment       0x0000000000000024       0x25 ./network_TA.o
 .comment       0x0000000000000024       0x25 ./aes_TA.o
 .comment       0x0000000000000024       0x25 ./cost_layer_TA.o
 .comment       0x0000000000000024       0x25 ./im2col_TA.o
 .comment       0x0000000000000024       0x25 ./batchnorm_layer_TA.o
 .comment       0x0000000000000024       0x25 ./dropout_layer_TA.o
 .comment       0x0000000000000024       0x25 ./convolutional_layer_TA.o
 .comment       0x0000000000000024       0x25 ./avgpool_layer_TA.o
 .comment       0x0000000000000024       0x25 ./utils_TA.o
 .comment       0x0000000000000024       0x25 ./diffprivate_TA.o
 .comment       0x0000000000000024       0x25 ./user_ta_header.o
 .comment       0x0000000000000024       0x25 /workspace/optee_os/out/arm/export-ta_arm32/lib/libutils.a(bget_malloc.o)
 .comment       0x0000000000000024       0x25 /workspace/optee_os/out/arm/export-ta_arm32/lib/libutils.a(memcpy.o)
 .comment       0x0000000000000024       0x25 /workspace/optee_os/out/arm/export-ta_arm32/lib/libutils.a(memset.o)
 .comment       0x0000000000000024       0x25 /workspace/optee_os/out/arm/export-ta_arm32/lib/libutils.a(strcmp.o)
 .comment       0x0000000000000024       0x25 /workspace/optee_os/out/arm/export-ta_arm32/lib/libutils.a(strncmp.o)
 .comment       0x0000000000000024       0x25 /workspace/optee_os/out/arm/export-ta_arm32/lib/libutils.a(trace.o)
 .comment       0x0000000000000024       0x25 /workspace/optee_os/out/arm/export-ta_arm32/lib/libutils.a(aeabi_unwind.o)
 .comment       0x0000000000000024       0x25 /workspace/optee_os/out/arm/export-ta_arm32/lib/libutils.a(snprintk.o)
 .comment       0x0000000000000024       0x25 /workspace/optee_os/out/arm/export-ta_arm32/lib/libutils.a(memchr.o)
 .comment       0x0000000000000024       0x25 /workspace/optee_os/out/arm/export-ta_arm32/lib/libutils.a(strlen.o)
 .comment       0x0000000000000024       0x25 /workspace/optee_os/out/arm/export-ta_arm32/lib/libutils.a(arm32_aeabi_ldivmod.o)
 .comment       0x0000000000000024       0x25 /workspace/optee_os/out/arm/export-ta_arm32/lib/libutee.a(trace_ext.o)
 .comment       0x0000000000000024       0x25 /workspace/optee_os/out/arm/export-ta_arm32/lib/libutee.a(assert.o)
 .comment       0x0000000000000024       0x25 /workspace/optee_os/out/arm/export-ta_arm32/lib/libutee.a(tee_api_operations.o)
 .comment       0x0000000000000024       0x25 /workspace/optee_os/out/arm/export-ta_arm32/lib/libutee.a(tee_api_panic.o)
 .comment       0x0000000000000024       0x25 /workspace/optee_os/out/arm/export-ta_arm32/lib/libutee.a(user_ta_entry.o)
 .comment       0x0000000000000024       0x25 /workspace/optee_os/out/arm/export-ta_arm32/lib/libutee.a(tee_api.o)
 .comment       0x0000000000000024       0x25 /workspace/optee_os/out/arm/export-ta_arm32/lib/libutee.a(tee_api_objects.o)
 .comment       0x0000000000000024       0x25 /workspace/optee_os/out/arm/export-ta_arm32/lib/libutee.a(tee_api_arith_mpi.o)
 .comment       0x0000000000000024       0x25 /workspace/optee_os/out/arm/export-ta_arm32/lib/libmbedtls.a(bignum.o)
 .comment       0x0000000000000024       0x25 /workspace/optee_os/out/arm/export-ta_arm32/lib/libutils.a(snprintf.o)
 .comment       0x0000000000000024       0x25 /workspace/optee_os/out/arm/export-ta_arm32/lib/libutils.a(memcmp.o)
 .comment       0x0000000000000024       0x25 /workspace/optee_os/out/arm/export-ta_arm32/lib/libutils.a(memmove.o)
 .comment       0x0000000000000024       0x25 /workspace/optee_os/out/arm/export-ta_arm32/lib/libutils.a(buf_compare_ct.o)
 .comment       0x0000000000000024       0x25 /workspace/optee_os/out/arm/export-ta_arm32/lib/libutils.a(mempool.o)

.note.GNU-stack
                0x0000000000000000        0x0
 .note.GNU-stack
                0x0000000000000000        0x0 ./darknetp_ta.o
 .note.GNU-stack
                0x0000000000000000        0x0 ./blas_TA.o
 .note.GNU-stack
                0x0000000000000000        0x0 ./softmax_layer_TA.o
 .note.GNU-stack
                0x0000000000000000        0x0 ./col2im_TA.o
 .note.GNU-stack
                0x0000000000000000        0x0 ./connected_layer_TA.o
 .note.GNU-stack
                0x0000000000000000        0x0 ./math_TA.o
 .note.GNU-stack
                0x0000000000000000        0x0 ./parser_TA.o
 .note.GNU-stack
                0x0000000000000000        0x0 ./activations_TA.o
 .note.GNU-stack
                0x0000000000000000        0x0 ./gemm_TA.o
 .note.GNU-stack
                0x0000000000000000        0x0 ./maxpool_layer_TA.o
 .note.GNU-stack
                0x0000000000000000        0x0 ./network_TA.o
 .note.GNU-stack
                0x0000000000000000        0x0 ./aes_TA.o
 .note.GNU-stack
                0x0000000000000000        0x0 ./cost_layer_TA.o
 .note.GNU-stack
                0x0000000000000000        0x0 ./im2col_TA.o
 .note.GNU-stack
                0x0000000000000000        0x0 ./batchnorm_layer_TA.o
 .note.GNU-stack
                0x0000000000000000        0x0 ./dropout_layer_TA.o
 .note.GNU-stack
                0x0000000000000000        0x0 ./convolutional_layer_TA.o
 .note.GNU-stack
                0x0000000000000000        0x0 ./avgpool_layer_TA.o
 .note.GNU-stack
                0x0000000000000000        0x0 ./utils_TA.o
 .note.GNU-stack
                0x0000000000000000        0x0 ./diffprivate_TA.o
 .note.GNU-stack
                0x0000000000000000        0x0 ./user_ta_header.o
 .note.GNU-stack
                0x0000000000000000        0x0 /workspace/optee_os/out/arm/export-ta_arm32/lib/libutils.a(bget_malloc.o)
 .note.GNU-stack
                0x0000000000000000        0x0 /workspace/optee_os/out/arm/export-ta_arm32/lib/libutils.a(memcpy.o)
 .note.GNU-stack
                0x0000000000000000        0x0 /workspace/optee_os/out/arm/export-ta_arm32/lib/libutils.a(memset.o)
 .note.GNU-stack
                0x0000000000000000        0x0 /workspace/optee_os/out/arm/export-ta_arm32/lib/libutils.a(strcmp.o)
 .note.GNU-stack
                0x0000000000000000        0x0 /workspace/optee_os/out/arm/export-ta_arm32/lib/libutils.a(strncmp.o)
 .note.GNU-stack
                0x0000000000000000        0x0 /workspace/optee_os/out/arm/export-ta_arm32/lib/libutils.a(trace.o)
 .note.GNU-stack
                0x0000000000000000        0x0 /workspace/optee_os/out/arm/export-ta_arm32/lib/libutils.a(aeabi_unwind.o)
 .note.GNU-stack
                0x0000000000000000        0x0 /workspace/optee_os/out/arm/export-ta_arm32/lib/libutils.a(snprintk.o)
 .note.GNU-stack
                0x0000000000000000        0x0 /workspace/optee_os/out/arm/export-ta_arm32/lib/libutils.a(memchr.o)
 .note.GNU-stack
                0x0000000000000000        0x0 /workspace/optee_os/out/arm/export-ta_arm32/lib/libutils.a(strlen.o)
 .note.GNU-stack
                0x0000000000000000        0x0 /workspace/optee_os/out/arm/export-ta_arm32/lib/libutils.a(arm32_aeabi_ldivmod.o)
 .note.GNU-stack
                0x0000000000000000        0x0 /workspace/optee_os/out/arm/export-ta_arm32/lib/libutee.a(trace_ext.o)
 .note.GNU-stack
                0x0000000000000000        0x0 /workspace/optee_os/out/arm/export-ta_arm32/lib/libutee.a(assert.o)
 .note.GNU-stack
                0x0000000000000000        0x0 /workspace/optee_os/out/arm/export-ta_arm32/lib/libutee.a(tee_api_operations.o)
 .note.GNU-stack
                0x0000000000000000        0x0 /workspace/optee_os/out/arm/export-ta_arm32/lib/libutee.a(tee_api_panic.o)
 .note.GNU-stack
                0x0000000000000000        0x0 /workspace/optee_os/out/arm/export-ta_arm32/lib/libutee.a(user_ta_entry.o)
 .note.GNU-stack
                0x0000000000000000        0x0 /workspace/optee_os/out/arm/export-ta_arm32/lib/libutee.a(tee_api.o)
 .note.GNU-stack
                0x0000000000000000        0x0 /workspace/optee_os/out/arm/export-ta_arm32/lib/libutee.a(tee_api_objects.o)
 .note.GNU-stack
                0x0000000000000000        0x0 /workspace/optee_os/out/arm/export-ta_arm32/lib/libutee.a(tee_api_arith_mpi.o)
 .note.GNU-stack
                0x0000000000000000        0x0 /workspace/optee_os/out/arm/export-ta_arm32/lib/libmbedtls.a(bignum.o)
 .note.GNU-stack
                0x0000000000000000        0x0 /workspace/optee_os/out/arm/export-ta_arm32/lib/libutils.a(snprintf.o)
 .note.GNU-stack
                0x0000000000000000        0x0 /workspace/optee_os/out/arm/export-ta_arm32/lib/libutils.a(memcmp.o)
 .note.GNU-stack
                0x0000000000000000        0x0 /workspace/optee_os/out/arm/export-ta_arm32/lib/libutils.a(memmove.o)
 .note.GNU-stack
                0x0000000000000000        0x0 /workspace/optee_os/out/arm/export-ta_arm32/lib/libutils.a(buf_compare_ct.o)
 .note.GNU-stack
                0x0000000000000000        0x0 /workspace/optee_os/out/arm/export-ta_arm32/lib/libutils.a(mempool.o)

.ARM.attributes
                0x0000000000000000       0x36
 .ARM.attributes
                0x0000000000000000       0x38 ./darknetp_ta.o
 .ARM.attributes
                0x0000000000000038       0x38 ./blas_TA.o
 .ARM.attributes
                0x0000000000000070       0x38 ./softmax_layer_TA.o
 .ARM.attributes
                0x00000000000000a8       0x38 ./col2im_TA.o
 .ARM.attributes
                0x00000000000000e0       0x38 ./connected_layer_TA.o
 .ARM.attributes
                0x0000000000000118       0x38 ./math_TA.o
 .ARM.attributes
                0x0000000000000150       0x38 ./parser_TA.o
 .ARM.attributes
                0x0000000000000188       0x38 ./activations_TA.o
 .ARM.attributes
                0x00000000000001c0       0x38 ./gemm_TA.o
 .ARM.attributes
                0x00000000000001f8       0x38 ./maxpool_layer_TA.o
 .ARM.attributes
                0x0000000000000230       0x38 ./network_TA.o
 .ARM.attributes
                0x0000000000000268       0x38 ./aes_TA.o
 .ARM.attributes
                0x00000000000002a0       0x38 ./cost_layer_TA.o
 .ARM.attributes
                0x00000000000002d8       0x38 ./im2col_TA.o
 .ARM.attributes
                0x0000000000000310       0x38 ./batchnorm_layer_TA.o
 .ARM.attributes
                0x0000000000000348       0x38 ./dropout_layer_TA.o
 .ARM.attributes
                0x0000000000000380       0x38 ./convolutional_layer_TA.o
 .ARM.attributes
                0x00000000000003b8       0x38 ./avgpool_layer_TA.o
 .ARM.attributes
                0x00000000000003f0       0x38 ./utils_TA.o
 .ARM.attributes
                0x0000000000000428       0x38 ./diffprivate_TA.o
 .ARM.attributes
                0x0000000000000460       0x38 ./user_ta_header.o
 .ARM.attributes
                0x0000000000000498       0x38 /workspace/optee_os/out/arm/export-ta_arm32/lib/libutils.a(bget_malloc.o)
 .ARM.attributes
                0x00000000000004d0       0x38 /workspace/optee_os/out/arm/export-ta_arm32/lib/libutils.a(memcpy.o)
 .ARM.attributes
                0x0000000000000508       0x38 /workspace/optee_os/out/arm/export-ta_arm32/lib/libutils.a(memset.o)
 .ARM.attributes
                0x0000000000000540       0x38 /workspace/optee_os/out/arm/export-ta_arm32/lib/libutils.a(strcmp.o)
 .ARM.attributes
                0x0000000000000578       0x38 /workspace/optee_os/out/arm/export-ta_arm32/lib/libutils.a(strncmp.o)
 .ARM.attributes
                0x00000000000005b0       0x38 /workspace/optee_os/out/arm/export-ta_arm32/lib/libutils.a(trace.o)
 .ARM.attributes
                0x00000000000005e8       0x38 /workspace/optee_os/out/arm/export-ta_arm32/lib/libutils.a(aeabi_unwind.o)
 .ARM.attributes
                0x0000000000000620       0x38 /workspace/optee_os/out/arm/export-ta_arm32/lib/libutils.a(snprintk.o)
 .ARM.attributes
                0x0000000000000658       0x38 /workspace/optee_os/out/arm/export-ta_arm32/lib/libutils.a(memchr.o)
 .ARM.attributes
                0x0000000000000690       0x38 /workspace/optee_os/out/arm/export-ta_arm32/lib/libutils.a(strlen.o)
 .ARM.attributes
                0x00000000000006c8       0x2a /workspace/optee_os/out/arm/export-ta_arm32/lib/libutils.a(arm32_aeabi_ldivmod_a32.o)
 .ARM.attributes
                0x00000000000006f2       0x38 /workspace/optee_os/out/arm/export-ta_arm32/lib/libutils.a(arm32_aeabi_ldivmod.o)
 .ARM.attributes
                0x000000000000072a       0x38 /workspace/optee_os/out/arm/export-ta_arm32/lib/libutee.a(trace_ext.o)
 .ARM.attributes
                0x0000000000000762       0x38 /workspace/optee_os/out/arm/export-ta_arm32/lib/libutee.a(assert.o)
 .ARM.attributes
                0x000000000000079a       0x38 /workspace/optee_os/out/arm/export-ta_arm32/lib/libutee.a(tee_api_operations.o)
 .ARM.attributes
                0x00000000000007d2       0x38 /workspace/optee_os/out/arm/export-ta_arm32/lib/libutee.a(tee_api_panic.o)
 .ARM.attributes
                0x000000000000080a       0x38 /workspace/optee_os/out/arm/export-ta_arm32/lib/libutee.a(user_ta_entry.o)
 .ARM.attributes
                0x0000000000000842       0x2a /workspace/optee_os/out/arm/export-ta_arm32/lib/libutee.a(utee_syscalls_a32.o)
 .ARM.attributes
                0x000000000000086c       0x2a /workspace/optee_os/out/arm/export-ta_arm32/lib/libutee.a(gprof_a32.o)
 .ARM.attributes
                0x0000000000000896       0x38 /workspace/optee_os/out/arm/export-ta_arm32/lib/libutee.a(tee_api.o)
 .ARM.attributes
                0x00000000000008ce       0x38 /workspace/optee_os/out/arm/export-ta_arm32/lib/libutee.a(tee_api_objects.o)
 .ARM.attributes
                0x0000000000000906       0x38 /workspace/optee_os/out/arm/export-ta_arm32/lib/libutee.a(tee_api_arith_mpi.o)
 .ARM.attributes
                0x000000000000093e       0x38 /workspace/optee_os/out/arm/export-ta_arm32/lib/libmbedtls.a(bignum.o)
 .ARM.attributes
                0x0000000000000976       0x38 /workspace/optee_os/out/arm/export-ta_arm32/lib/libutils.a(snprintf.o)
 .ARM.attributes
                0x00000000000009ae       0x38 /workspace/optee_os/out/arm/export-ta_arm32/lib/libutils.a(memcmp.o)
 .ARM.attributes
                0x00000000000009e6       0x38 /workspace/optee_os/out/arm/export-ta_arm32/lib/libutils.a(memmove.o)
 .ARM.attributes
                0x0000000000000a1e       0x38 /workspace/optee_os/out/arm/export-ta_arm32/lib/libutils.a(buf_compare_ct.o)
 .ARM.attributes
                0x0000000000000a56       0x38 /workspace/optee_os/out/arm/export-ta_arm32/lib/libutils.a(mempool.o)

.debug_frame    0x0000000000000000     0x37c8
 .debug_frame   0x0000000000000000      0x2a8 ./darknetp_ta.o
 .debug_frame   0x00000000000002a8      0x228 ./blas_TA.o
 .debug_frame   0x00000000000004d0       0xb4 ./softmax_layer_TA.o
 .debug_frame   0x0000000000000584       0x5c ./col2im_TA.o
 .debug_frame   0x00000000000005e0      0x128 ./connected_layer_TA.o
 .debug_frame   0x0000000000000708      0x304 ./math_TA.o
 .debug_frame   0x0000000000000a0c       0xdc ./parser_TA.o
 .debug_frame   0x0000000000000ae8       0xfc ./activations_TA.o
 .debug_frame   0x0000000000000be4      0x140 ./gemm_TA.o
 .debug_frame   0x0000000000000d24       0xc4 ./maxpool_layer_TA.o
 .debug_frame   0x0000000000000de8      0x194 ./network_TA.o
 .debug_frame   0x0000000000000f7c      0x1b0 ./aes_TA.o
 .debug_frame   0x000000000000112c       0xd4 ./cost_layer_TA.o
 .debug_frame   0x0000000000001200       0x5c ./im2col_TA.o
 .debug_frame   0x000000000000125c      0x1bc ./batchnorm_layer_TA.o
 .debug_frame   0x0000000000001418       0xc0 ./dropout_layer_TA.o
 .debug_frame   0x00000000000014d8      0x230 ./convolutional_layer_TA.o
 .debug_frame   0x0000000000001708       0xbc ./avgpool_layer_TA.o
 .debug_frame   0x00000000000017c4       0x90 ./utils_TA.o
 .debug_frame   0x0000000000001854       0x48 ./diffprivate_TA.o
 .debug_frame   0x000000000000189c       0x20 ./user_ta_header.o
 .debug_frame   0x00000000000018bc      0x218 /workspace/optee_os/out/arm/export-ta_arm32/lib/libutils.a(bget_malloc.o)
 .debug_frame   0x0000000000001ad4       0x28 /workspace/optee_os/out/arm/export-ta_arm32/lib/libutils.a(memcpy.o)
 .debug_frame   0x0000000000001afc       0x20 /workspace/optee_os/out/arm/export-ta_arm32/lib/libutils.a(memset.o)
 .debug_frame   0x0000000000001b1c       0x28 /workspace/optee_os/out/arm/export-ta_arm32/lib/libutils.a(strcmp.o)
 .debug_frame   0x0000000000001b44       0x28 /workspace/optee_os/out/arm/export-ta_arm32/lib/libutils.a(strncmp.o)
 .debug_frame   0x0000000000001b6c       0xc4 /workspace/optee_os/out/arm/export-ta_arm32/lib/libutils.a(trace.o)
 .debug_frame   0x0000000000001c30       0x40 /workspace/optee_os/out/arm/export-ta_arm32/lib/libutils.a(aeabi_unwind.o)
 .debug_frame   0x0000000000001c70       0x84 /workspace/optee_os/out/arm/export-ta_arm32/lib/libutils.a(snprintk.o)
 .debug_frame   0x0000000000001cf4       0x28 /workspace/optee_os/out/arm/export-ta_arm32/lib/libutils.a(memchr.o)
 .debug_frame   0x0000000000001d1c       0x20 /workspace/optee_os/out/arm/export-ta_arm32/lib/libutils.a(strlen.o)
 .debug_frame   0x0000000000001d3c       0x58 /workspace/optee_os/out/arm/export-ta_arm32/lib/libutils.a(arm32_aeabi_ldivmod.o)
 .debug_frame   0x0000000000001d94       0xac /workspace/optee_os/out/arm/export-ta_arm32/lib/libutee.a(trace_ext.o)
 .debug_frame   0x0000000000001e40       0x40 /workspace/optee_os/out/arm/export-ta_arm32/lib/libutee.a(assert.o)
 .debug_frame   0x0000000000001e80      0x4bc /workspace/optee_os/out/arm/export-ta_arm32/lib/libutee.a(tee_api_operations.o)
 .debug_frame   0x000000000000233c       0x20 /workspace/optee_os/out/arm/export-ta_arm32/lib/libutee.a(tee_api_panic.o)
 .debug_frame   0x000000000000235c       0x5c /workspace/optee_os/out/arm/export-ta_arm32/lib/libutee.a(user_ta_entry.o)
 .debug_frame   0x00000000000023b8      0x26c /workspace/optee_os/out/arm/export-ta_arm32/lib/libutee.a(tee_api.o)
 .debug_frame   0x0000000000002624      0x3e4 /workspace/optee_os/out/arm/export-ta_arm32/lib/libutee.a(tee_api_objects.o)
 .debug_frame   0x0000000000002a08      0x544 /workspace/optee_os/out/arm/export-ta_arm32/lib/libutee.a(tee_api_arith_mpi.o)
 .debug_frame   0x0000000000002f4c      0x728 /workspace/optee_os/out/arm/export-ta_arm32/lib/libmbedtls.a(bignum.o)
 .debug_frame   0x0000000000003674       0x58 /workspace/optee_os/out/arm/export-ta_arm32/lib/libutils.a(snprintf.o)
 .debug_frame   0x00000000000036cc       0x28 /workspace/optee_os/out/arm/export-ta_arm32/lib/libutils.a(memcmp.o)
 .debug_frame   0x00000000000036f4       0x28 /workspace/optee_os/out/arm/export-ta_arm32/lib/libutils.a(memmove.o)
 .debug_frame   0x000000000000371c       0x2c /workspace/optee_os/out/arm/export-ta_arm32/lib/libutils.a(buf_compare_ct.o)
 .debug_frame   0x0000000000003748       0x80 /workspace/optee_os/out/arm/export-ta_arm32/lib/libutils.a(mempool.o)
