
f4e750bb-1437-4fbf-8785-8d3580c34994.elf:     file format elf32-littlearm
f4e750bb-1437-4fbf-8785-8d3580c34994.elf
architecture: armv8-a, flags 0x00000150:
HAS_SYMS, DYNAMIC, D_PAGED
start address 0x00000020

Program Header:
0x70000001 off    0x00017950 vaddr 0x00007950 paddr 0x00007950 align 2**2
         filesz 0x00000558 memsz 0x00000558 flags r--
    LOAD off    0x00010000 vaddr 0x00000000 paddr 0x00000000 align 2**16
         filesz 0x000066c8 memsz 0x000066c8 flags r-x
    LOAD off    0x000166c8 vaddr 0x000066c8 paddr 0x000066c8 align 2**16
         filesz 0x000019dc memsz 0x000019dc flags r--
    LOAD off    0x00019000 vaddr 0x00009000 paddr 0x00009000 align 2**16
         filesz 0x00000084 memsz 0x0000a0f8 flags rw-
 DYNAMIC off    0x00017fd0 vaddr 0x00007fd0 paddr 0x00007fd0 align 2**2
         filesz 0x00000088 memsz 0x00000088 flags rw-

Dynamic Section:
  HASH                 0x0000808c
  GNU_HASH             0x00007908
  STRTAB               0x00008088
  SYMTAB               0x00008058
  STRSZ                0x00000001
  SYMENT               0x00000010
  DEBUG                0x00000000
  REL                  0x00007ee0
  RELSZ                0x000000f0
  RELENT               0x00000008
  FLAGS_1              0x08000000
  RELCOUNT             0x00000013
private flags = 0x5000400: [Version5 EABI] [hard-float ABI]

Sections:
Idx Name          Size      VMA       LMA       File off  Algn
  0 .ta_head      00000020  00000000  00000000  00010000  2**3
                  CONTENTS, ALLOC, LOAD, DATA
  1 .text         000066a8  00000020  00000020  00010020  2**3
                  CONTENTS, ALLOC, LOAD, READONLY, CODE
  2 .rodata       0000114d  000066c8  000066c8  000166c8  2**2
                  CONTENTS, ALLOC, LOAD, READONLY, DATA
  3 .ARM.extab    000000f0  00007818  00007818  00017818  2**2
                  CONTENTS, ALLOC, LOAD, READONLY, DATA
  4 .gnu.hash     00000018  00007908  00007908  00017908  2**2
                  CONTENTS, ALLOC, LOAD, READONLY, DATA
  5 .ARM.extab.text.__aeabi_ldivmod 0000000c  00007920  00007920  00017920  2**2
                  CONTENTS, ALLOC, LOAD, READONLY, DATA
  6 .ARM.extab.text.__aeabi_uldivmod 0000000c  0000792c  0000792c  0001792c  2**2
                  CONTENTS, ALLOC, LOAD, READONLY, DATA
  7 .ARM.extab.text.utee_panic 0000000c  00007938  00007938  00017938  2**2
                  CONTENTS, ALLOC, LOAD, READONLY, DATA
  8 .ARM.extab.text.unlikely 0000000c  00007944  00007944  00017944  2**2
                  CONTENTS, ALLOC, LOAD, READONLY, DATA
  9 .ARM.exidx    00000558  00007950  00007950  00017950  2**2
                  CONTENTS, ALLOC, LOAD, READONLY, DATA
 10 .got          00000038  00007ea8  00007ea8  00017ea8  2**2
                  CONTENTS, ALLOC, LOAD, DATA
 11 .dynsym       00000030  00008058  00008058  00018058  2**2
                  CONTENTS, ALLOC, LOAD, READONLY, DATA
 12 .rel.got      00000058  00007f78  00007f78  00017f78  2**2
                  CONTENTS, ALLOC, LOAD, READONLY, DATA
 13 .dynamic      00000088  00007fd0  00007fd0  00017fd0  2**2
                  CONTENTS, ALLOC, LOAD, DATA
 14 .dynstr       00000001  00008088  00008088  00018088  2**0
                  CONTENTS, ALLOC, LOAD, READONLY, DATA
 15 .hash         00000018  0000808c  0000808c  0001808c  2**2
                  CONTENTS, ALLOC, LOAD, READONLY, DATA
 16 .data         00000084  00009000  00009000  00019000  2**2
                  CONTENTS, ALLOC, LOAD, DATA
 17 .bss          0000a074  00009084  00009084  00019084  2**2
                  ALLOC
 18 .debug_info   0000f44d  00000000  00000000  00019084  2**0
                  CONTENTS, READONLY, DEBUGGING, OCTETS
 19 .debug_abbrev 000029f5  00000000  00000000  000284d1  2**0
                  CONTENTS, READONLY, DEBUGGING, OCTETS
 20 .debug_loclists 0000044f  00000000  00000000  0002aec6  2**0
                  CONTENTS, READONLY, DEBUGGING, OCTETS
 21 .debug_aranges 00000530  00000000  00000000  0002b318  2**3
                  CONTENTS, READONLY, DEBUGGING, OCTETS
 22 .debug_rnglists 0000003b  00000000  00000000  0002b848  2**0
                  CONTENTS, READONLY, DEBUGGING, OCTETS
 23 .debug_macro  000112a1  00000000  00000000  0002b883  2**0
                  CONTENTS, READONLY, DEBUGGING, OCTETS
 24 .debug_line   00004db8  00000000  00000000  0003cb24  2**0
                  CONTENTS, READONLY, DEBUGGING, OCTETS
 25 .debug_str    00011b24  00000000  00000000  000418dc  2**0
                  CONTENTS, READONLY, DEBUGGING, OCTETS
 26 .comment      0000004f  00000000  00000000  00053400  2**0
                  CONTENTS, READONLY
 27 .ARM.attributes 00000031  00000000  00000000  0005344f  2**0
                  CONTENTS, READONLY
 28 .debug_frame  00001a90  00000000  00000000  00053480  2**2
                  CONTENTS, READONLY, DEBUGGING, OCTETS
 29 .rel.dyn      00000098  00007ee0  00007ee0  00017ee0  2**2
                  CONTENTS, ALLOC, LOAD, READONLY, DATA
 30 .debug_loc    0000df14  00000000  00000000  00054f10  2**0
                  CONTENTS, READONLY, DEBUGGING, OCTETS
 31 .debug_ranges 00000758  00000000  00000000  00062e28  2**3
                  CONTENTS, READONLY, DEBUGGING, OCTETS
SYMBOL TABLE:
00000000 l    d  .ta_head	00000000 .ta_head
00000020 l    d  .text	00000000 .text
000066c8 l    d  .rodata	00000000 .rodata
00007818 l    d  .ARM.extab	00000000 .ARM.extab
00007908 l    d  .gnu.hash	00000000 .gnu.hash
00007920 l    d  .ARM.extab.text.__aeabi_ldivmod	00000000 .ARM.extab.text.__aeabi_ldivmod
0000792c l    d  .ARM.extab.text.__aeabi_uldivmod	00000000 .ARM.extab.text.__aeabi_uldivmod
00007938 l    d  .ARM.extab.text.utee_panic	00000000 .ARM.extab.text.utee_panic
00007944 l    d  .ARM.extab.text.unlikely	00000000 .ARM.extab.text.unlikely
00007950 l    d  .ARM.exidx	00000000 .ARM.exidx
00007ea8 l    d  .got	00000000 .got
00007f78 l    d  .rel.got	00000000 .rel.got
00007fd0 l    d  .dynamic	00000000 .dynamic
00008058 l    d  .dynsym	00000000 .dynsym
00008088 l    d  .dynstr	00000000 .dynstr
0000808c l    d  .hash	00000000 .hash
00009000 l    d  .data	00000000 .data
00009084 l    d  .bss	00000000 .bss
00000000 l    d  .debug_info	00000000 .debug_info
00000000 l    d  .debug_abbrev	00000000 .debug_abbrev
00000000 l    d  .debug_loclists	00000000 .debug_loclists
00000000 l    d  .debug_aranges	00000000 .debug_aranges
00000000 l    d  .debug_rnglists	00000000 .debug_rnglists
00000000 l    d  .debug_macro	00000000 .debug_macro
00000000 l    d  .debug_line	00000000 .debug_line
00000000 l    d  .debug_str	00000000 .debug_str
00000000 l    d  .comment	00000000 .comment
00000000 l    d  .ARM.attributes	00000000 .ARM.attributes
00000000 l    d  .debug_frame	00000000 .debug_frame
00007ee0 l    d  .rel.dyn	00000000 .rel.dyn
00000000 l    d  .debug_loc	00000000 .debug_loc
00000000 l    d  .debug_ranges	00000000 .debug_ranges
00000000 l    df *ABS*	00000000 user_ta_header.c
000066cc l     O .rodata	00000004 __compound_literal.4
000066d0 l     O .rodata	00000004 __compound_literal.3
000066d4 l     O .rodata	00000001 __compound_literal.2
000066d5 l     O .rodata	00000001 __compound_literal.1
000066d6 l     O .rodata	00000001 __compound_literal.0
00000000 l    df *ABS*	00000000 secure_storage_ta.c
00006a9e l     O .rodata	00000012 __func__.2
00006ab0 l     O .rodata	00000010 __func__.1
00006ac0 l     O .rodata	0000000e __func__.0
00006ace l     O .rodata	0000001b __func__.3
00000000 l    df *ABS*	00000000 trace.c
000002d4 l     F .text	0000004e append
00006bae l     O .rodata	00000005 lvl_strs.5561
00006bb3 l     O .rodata	0000000a __func__.5615
00000000 l    df *ABS*	00000000 snprintk.c
00006bf7 l     O .rodata	00000011 HEXDIGITS
00006c08 l     O .rodata	00000011 hexdigits
00000000 l    df *ABS*	00000000 arm32_aeabi_ldivmod_a32.o
00000000 l    df *ABS*	00000000 trace_ext.c
00000000 l    df *ABS*	00000000 tee_api.c
00006c51 l     O .rodata	0000000b __func__.6728
00009084 l     O .bss	00000004 tee_api_instance_data
00000000 l    df *ABS*	00000000 tee_api_objects.c
00000000 l    df *ABS*	00000000 user_ta_entry.c
00001828 l     F .text	0000001c ta_header_get_session
00001844 l     F .text	00000068 ta_header_remove_session
00009088 l     O .bss	00000001 init_done
00009060 l     O .data	00000008 ta_sessions
00000000 l    df *ABS*	00000000 utee_syscalls_a32.o
00000000 l    df *ABS*	00000000 gprof_a32.o
00000000 l    df *ABS*	00000000 tee_api_arith_mpi.c
00002f0c l     F .text	00000020 api_panic
00001ef8 l     F .text	00000020 mpi_panic
00001f18 l     F .text	00000044 get_const_mpi
00001f5c l     F .text	00000010 mpi_is_odd
00001f6c l     F .text	00000016 rng_read
00001f82 l     F .text	0000001c put_mpi
00001f9e l     F .text	0000045a mpi_egcd
000023f8 l     F .text	00000024 get_mpi
0000241c l     F .text	00000088 bigint_binary
000090b0 l     O .bss	00002000 data.6728
000026aa l     F .text	000000ea bigint_binary_mod
00006c6d l     O .rodata	0000000e __func__.6757
00006c7b l     O .rodata	00000009 __func__.6996
00006c84 l     O .rodata	0000000e __func__.6856
00006c92 l     O .rodata	00000012 __func__.6729
00006ca4 l     O .rodata	0000000f __func__.6767
00006cb3 l     O .rodata	0000001f __func__.6785
00006cd2 l     O .rodata	00000019 __func__.6792
00006ceb l     O .rodata	00000012 __func__.6867
00006cfd l     O .rodata	00000015 __func__.6822
00006d12 l     O .rodata	0000000e __func__.6894
00006d20 l     O .rodata	0000000e __func__.6922
00006d2e l     O .rodata	0000000e __func__.6928
00006d3c l     O .rodata	00000011 __func__.6957
00006d4d l     O .rodata	00000018 __func__.6973
00006d65 l     O .rodata	0000001d __func__.7053
00006d82 l     O .rodata	00000019 __func__.7103
00006d9b l     O .rodata	00000015 __func__.7117
00000000 l    df *ABS*	00000000 bignum.c
00002f2c l     F .text	00000038 mpi_get_digit
00002f64 l     F .text	0000005e mpi_sub_hlp
00002fc2 l     F .text	00000492 mpi_mul_hlp
00003454 l     F .text	00000048 mbedtls_mpi_mod_int.part.1
000044f6 l     F .text	0000006c mpi_write_hlp
0000469c l     F .text	00000050 mpi_check_small_factors
00004d88 l     F .text	00000216 mpi_miller_rabin
000066e0 l     O .rodata	000002a0 small_prime
00006980 l     O .rodata	00000024 gcd_pairs
00000000 l    df *ABS*	00000000 bget_malloc.c
0000572c l     F .text	00000030 raw_malloc_return_hook.isra.3
0000575c l     F .text	000000d8 create_free_block.constprop.11
00005968 l     F .text	00000038 raw_malloc.constprop.15
000072c4 l     O .rodata	00000012 __func__.5854
000072d6 l     O .rodata	00000005 __func__.5710
000072db l     O .rodata	00000006 __func__.5725
000072e1 l     O .rodata	00000005 __func__.5742
000072e6 l     O .rodata	00000006 __func__.5734
000072ec l     O .rodata	00000006 __func__.5751
000072f2 l     O .rodata	00000007 __func__.5761
000072f9 l     O .rodata	0000000d __func__.5890
00007306 l     O .rodata	0000000c __func__.5864
00007312 l     O .rodata	0000000b __func__.5875
0000731d l     O .rodata	00000010 __func__.5942
0000732d l     O .rodata	0000000e __func__.5896
0000733b l     O .rodata	00000013 __func__.5802
0000b0b4 l     O .bss	00000038 mstats
0000b0ec l     O .bss	00000004 malloc_pool_len
0000b0f0 l     O .bss	00000004 malloc_pool
00009068 l     O .data	0000001c malloc_poolset
00000000 l    df *ABS*	00000000 mempool.c
00007756 l     O .rodata	00000013 __func__.5618
00007769 l     O .rodata	0000000e __func__.5627
00000000 l    df *ABS*	00000000 assert.c
00000000 l    df *ABS*	00000000 stack_check.c
00000000 l    df *ABS*	00000000 aeabi_unwind.c
00000000 l    df *ABS*	00000000 memchr.c
00000000 l    df *ABS*	00000000 strlen.c
00000000 l    df *ABS*	00000000 arm32_aeabi_ldivmod.c
00000000 l    df *ABS*	00000000 tee_api_panic.c
00000000 l    df *ABS*	00000000 snprintf.c
00000000 l    df *ABS*	00000000 memcmp.c
00000000 l    df *ABS*	00000000 memcpy.c
00000000 l    df *ABS*	00000000 memmove.c
00000000 l    df *ABS*	00000000 memset.c
00000000 l    df *ABS*	00000000 
00007fd0 l     O *ABS*	00000000 _DYNAMIC
00007ea8 l     O *ABS*	00000000 _GLOBAL_OFFSET_TABLE_
00006688 l     F .text	00000010 __utee_cache_operation_from_thumb
00006698 l     F .text	00000010 __utee_check_access_rights_from_thumb
000066a8 l     F .text	00000010 __utee_panic_from_thumb
000066b8 l     F .text	00000010 __utee_log_from_thumb
00000d94 g     F .text	00000022 putchar
00001304 g     F .text	00000070 TEE_PopulateTransientObject
00002e1e g     F .text	00000004 TEE_BigIntConvertToFMM
00002b60 g     F .text	00000008 TEE_BigIntSquareMod
00002794 g     F .text	000000f4 TEE_BigIntShiftRight
00001dd0 g     F .text	00000018 utee_storage_obj_create
00003534 g     F .text	000000a8 mbedtls_mpi_grow
000064f0 g     F .text	000000ec __l_divmod
00001a50 g     F .text	00000014 utee_return
00001080 g     F .text	00000004 TEE_Realloc
00000d36 g     F .text	0000003a printf
00001a64 g     F .text	00000014 utee_log
00001374 g     F .text	00000022 TEE_InitRefAttribute
00000e9e g     F .text	00000066 TEE_InvokeTACommand
000034ae g     F .text	00000026 mbedtls_mpi_init_mempool
000039a8 g     F .text	00000046 mbedtls_mpi_write_binary
00000cc4 g     F .text	0000000e vsnprintk
00003e32 g     F .text	00000030 mbedtls_mpi_sub_int
00006640 g     F .text	00000034 memmove
000065e0 g     F .text	0000001e snprintf
00002684 g     F .text	00000026 TEE_BigIntCmpS32
00009058 g     O .data	00000004 __stack_chk_guard
00001396 g     F .text	00000022 TEE_InitValueAttribute
000035dc g     F .text	000000cc mbedtls_mpi_shrink
0000644a g     F .text	00000002 __aeabi_unwind_cpp_pr0
000028d4 g     F .text	0000001c TEE_BigIntAdd
00001aa4 g     F .text	00000014 utee_get_property_name_to_index
000066d8 g     O .rodata	00000004 ta_heap_size
000012d4 g     F .text	00000030 TEE_ResetTransientObject
00001b88 g     F .text	00000018 utee_cryp_state_alloc
00001d58 g     F .text	00000018 utee_authenc_enc_final
00003f5c g     F .text	0000012c mbedtls_mpi_read_string
0000290c g     F .text	00000058 TEE_BigIntNeg
00000020 g       .text	00000000 __text_start
00001674 g     F .text	0000002c TEE_StartPersistentObjectEnumerator
00003a86 g     F .text	00000078 mbedtls_mpi_shift_r
000062bc g     F .text	0000004c malloc_buffer_overlaps_heap
00002b28 g     F .text	0000001c TEE_BigIntSubMod
000052ca g     F .text	00000136 mbedtls_mpi_gen_prime
00003856 g     F .text	00000020 mbedtls_mpi_get_bit
00003942 g     F .text	00000066 mbedtls_mpi_read_binary
00000354 g     F .text	0000013c trace_printf
00004714 g     F .text	000000c4 mbedtls_mpi_montmul
0000662a g     F .text	00000016 memcpy
00001bb4 g     F .text	00000014 utee_cryp_state_free
00002e22 g     F .text	0000004a TEE_BigIntConvertFromFMM
000065dc g     F .text	00000004 TEE_Panic
00000d04 g     F .text	00000018 __aeabi_uldivmod
00000d70 g     F .text	00000024 puts
00002e6c g     F .text	000000a0 TEE_BigIntComputeFMM
00005d84 g     F .text	00000020 malloc_get_stats
00001c34 g     F .text	00000018 utee_cipher_final
00001020 g     F .text	00000016 TEE_GetREETime
00001614 g     F .text	00000038 TEE_AllocatePersistentObjectEnumerator
00009004 g     O .data	00000054 ta_props
00005da4 g     F .text	00000002 malloc
00001c9c g     F .text	00000014 utee_cryp_obj_close
00001450 g     F .text	00000048 TEE_GenerateKey
000065fe g     F .text	0000000e vsnprintf
00009000 g     O .data	00000004 trace_level
00002650 g     F .text	00000034 TEE_BigIntCmp
000066c8 g     O .rodata	00000004 ta_num_props
00005bf4 g     F .text	0000007c bgetr
00001d40 g     F .text	00000018 utee_authenc_update_payload
000063dc g     F .text	0000002e mempool_free
00002568 g     F .text	00000058 TEE_BigIntConvertToOctetString
00001ed8 g     F .text	00000014 utee_cache_operation
000038f4 g     F .text	00000042 mbedtls_mpi_bitlen
00001d14 g     F .text	00000018 utee_authenc_init
00002888 g     F .text	0000002a TEE_BigIntGetBit
000066dc g     O .rodata	00000003 trace_ext_prefix
000059a0 g     F .text	0000005c bgetz
00000f70 g     F .text	0000000c TEE_GetInstanceData
00000f9e g     F .text	0000001e TEE_Wait
00001e88 g     F .text	00000014 utee_storage_obj_write
00003e62 g     F .text	000000dc mbedtls_mpi_mul_mpi
0000644e g     F .text	00000002 __aeabi_unwind_cpp_pr2
0000108e g     F .text	00000006 TEE_CacheFlush
00000024 g     F .text	00000002 TA_DestroyEntryPoint
0000349c g     F .text	00000012 mbedtls_mpi_init
000038c6 g     F .text	0000002e mbedtls_mpi_lsb
0000640c g     F .text	00000028 _assert_log
00002e1a g     F .text	00000004 TEE_BigIntFMMContextSizeInU32
000015ce g     F .text	00000046 TEE_RenamePersistentObject
000024a4 g     F .text	00000044 _TEE_MathAPI_Init
00003d6e g     F .text	00000048 mbedtls_mpi_add_mpi
00001e60 g     F .text	00000014 utee_storage_next_enum
00006448 g     F .text	00000002 __stack_chk_fail
0000b0f4 g     O .bss	00008000 ta_heap
00002b68 g     F .text	000000a4 TEE_BigIntInvMod
0000002a g     F .text	00000002 TA_CloseSessionEntryPoint
00001498 g     F .text	00000064 TEE_OpenPersistentObject
00003db6 g     F .text	0000004c mbedtls_mpi_sub_mpi
00001a78 g     F .text	00000014 __utee_panic
00001ba0 g     F .text	00000014 utee_cryp_state_copy
0000002c g     F .text	000002a8 TA_InvokeCommandEntryPoint
0000634c g     F .text	0000006c mempool_alloc
00001c88 g     F .text	00000014 utee_cryp_obj_alloc
00001b74 g     F .text	00000014 utee_set_ta_time
00001c74 g     F .text	00000014 utee_cryp_obj_get_attr
000063b8 g     F .text	00000024 mempool_calloc
00001420 g     F .text	00000030 TEE_CopyObjectAttributes
00005db8 g     F .text	00000048 calloc
00001036 g     F .text	0000004a TEE_Malloc
00001b38 g     F .text	00000014 utee_mask_cancellation
00001cb0 g     F .text	00000014 utee_cryp_obj_reset
00000f58 g     F .text	0000000a TEE_CheckMemoryAccessRights
000130f8 g       .bss	00000000 __gprof_buf_end
0000647c g     F .text	00000074 __ul_divmod
0000381e g     F .text	00000038 mbedtls_mpi_lset
000016f4 g     F .text	00000040 TEE_ReadObjectData
0000116c g     F .text	00000070 TEE_GetObjectBufferAttribute
00000026 g     F .text	00000004 TA_OpenSessionEntryPoint
00001e4c g     F .text	00000014 utee_storage_start_enum
00001dfc g     F .text	00000014 utee_storage_obj_rename
0000908c g     O .bss	00000004 ta_param_types
0000442a g     F .text	0000002e mbedtls_mpi_div_int
0000109c g     F .text	0000003a __utee_from_attr
00002ddc g     F .text	00000030 TEE_BigIntIsProbablePrime
00003f3e g     F .text	0000001e mbedtls_mpi_mul_int
00001594 g     F .text	00000024 TEE_CloseAndDeletePersistentObject1
000047fc g     F .text	00000446 mbedtls_mpi_exp_mod
0000372c g     F .text	0000006c mbedtls_mpi_safe_cond_assign
00001a8c g     F .text	00000018 utee_get_property
000024e8 g     F .text	00000040 TEE_BigIntInit
00000f7c g     F .text	00000004 TEE_MemMove
00002528 g     F .text	00000040 TEE_BigIntConvertFromOctetString
0000905c g     O .data	00000004 _ref__utee_mcount
00003afe g     F .text	0000006e mbedtls_mpi_cmp_abs
00006450 g     F .text	0000001c memchr
00000f20 g     F .text	0000001c TEE_UnmaskCancellation
000010d6 g     F .text	0000002a TEE_GetObjectInfo
00005400 g     F .text	0000032c mbedtls_mpi_self_test
00001de8 g     F .text	00000014 utee_storage_obj_del
00001eb0 g     F .text	00000014 utee_storage_obj_seek
000012a4 g     F .text	00000030 TEE_FreeTransientObject
00003c02 g     F .text	00000030 mbedtls_mpi_cmp_int
00001bdc g     F .text	00000014 utee_hash_update
00001eec  w    F .text	0000000c __utee_mcount
00002abc g     F .text	00000050 TEE_BigIntMod
000044bc g     F .text	0000003a mbedtls_mpi_mod_int
00001ad0 g     F .text	00000014 utee_close_ta_session
00002a0e g     F .text	000000ae TEE_BigIntDiv
000036a8 g     F .text	00000056 mbedtls_mpi_copy
00005d70 g     F .text	00000014 malloc_reset_stats
00001c1c g     F .text	00000018 utee_cipher_update
00001120 g     F .text	00000020 TEE_RestrictObjectUsage1
00005e00 g     F .text	00000038 realloc
000036fe g     F .text	0000002e mbedtls_mpi_swap
00006308 g     F .text	00000044 mempool_alloc_pool
00001da0 g     F .text	00000018 utee_asymm_verify
00002964 g     F .text	000000a4 TEE_BigIntMul
000039ee g     F .text	00000098 mbedtls_mpi_shift_l
00003b6c g     F .text	00000096 mbedtls_mpi_cmp_mpi
00000f84 g     F .text	00000004 TEE_MemFill
0000660c g     F .text	0000001e memcmp
000060e8 g     F .text	000000f8 malloc_add_pool
00000340 g     F .text	00000014 trace_get_level
00003c32 g     F .text	000000bc mbedtls_mpi_add_abs
00001d00 g     F .text	00000014 utee_cryp_random_number_generate
00001140 g     F .text	0000002c TEE_RestrictObjectUsage
00002e12 g     F .text	00000008 TEE_BigIntFMMSizeInU32
00002e0c g     F .text	00000004 TEE_BigIntInitFMM
00001d88 g     F .text	00000018 utee_asymm_operate
00001260 g     F .text	00000014 TEE_CloseObject
000018ac g     F .text	00000190 __utee_entry
000066c8 g       .text	00000000 __text_end
00002c0c g     F .text	0000007c TEE_BigIntRelativePrime
00004458 g     F .text	00000064 mbedtls_mpi_mod_mpi
00005c70 g     F .text	0000009c bpool
00000f04 g     F .text	0000001c TEE_GetCancellationFlag
00004c42 g     F .text	00000114 mbedtls_mpi_gcd
00000ff8 g     F .text	00000028 TEE_SetTAPersistentTime
00006674 g     F .text	00000010 memset
00000fbc g     F .text	0000003c TEE_GetTAPersistentTime
00000490 g     F .text	00000100 dhex_dump
000014fc g     F .text	00000098 TEE_CreatePersistentObject
00000f3c g     F .text	0000001c TEE_MaskCancellation
00001e74 g     F .text	00000014 utee_storage_obj_read
00001774 g     F .text	00000038 TEE_TruncateObjectData
00001cc4 g     F .text	00000014 utee_cryp_obj_populate
00001100 g     F .text	00000020 TEE_GetObjectInfo1
00000322 g     F .text	0000001e trace_set_level
00001c4c g     F .text	00000014 utee_cryp_obj_get_info
000011dc g     F .text	00000084 TEE_GetObjectValueAttribute
00001e10 g     F .text	00000014 utee_storage_alloc_enum
00001e38 g     F .text	00000014 utee_storage_reset_enum
00001e9c g     F .text	00000014 utee_storage_obj_trunc
000025f8 g     F .text	00000058 TEE_BigIntConvertToS32
000028f0 g     F .text	0000001c TEE_BigIntSub
00001afc g     F .text	00000014 utee_get_cancellation_flag
00001bc8 g     F .text	00000014 utee_hash_init
00006444 g     F .text	00000004 tahead_get_trace_level
00000db8 g     F .text	00000050 __utee_from_param
000017ac g     F .text	0000007c TEE_SeekObjectData
00000e08 g     F .text	0000003e __utee_to_param
000047d8 g     F .text	00000024 mbedtls_mpi_montred
00005e38 g     F .text	000002b0 memalign
000025c0 g     F .text	00000038 TEE_BigIntConvertFromS32
00003e02 g     F .text	00000030 mbedtls_mpi_add_int
00001c60 g     F .text	00000014 utee_cryp_obj_restrict_usage
000061e0 g     F .text	000000dc malloc_buffer_is_within_alloced
00001cd8 g     F .text	00000014 utee_cryp_obj_copy
00002e10 g     F .text	00000002 TEE_BigIntInitFMMContext
00001cec g     F .text	00000014 utee_cryp_derive_key
00001d70 g     F .text	00000018 utee_authenc_dec_final
00001660 g     F .text	00000014 TEE_ResetPersistentObjectEnumerator
00001734 g     F .text	00000040 TEE_WriteObjectData
00002a08 g     F .text	00000006 TEE_BigIntSquare
00000020 g     F .text	00000004 TA_CreateEntryPoint
000046ec g     F .text	00000028 mbedtls_mpi_montg_init
00000cd2 g     F .text	0000001a snprintk
000028b2 g     F .text	00000022 TEE_BigIntGetBitCount
00002b44 g     F .text	0000001c TEE_BigIntMulMod
00004f9e g     F .text	000002d0 mbedtls_mpi_inv_mod
00009090 g     O .bss	00000020 ta_params
00004088 g     F .text	000003a2 mbedtls_mpi_div_mpi
00003936 g     F .text	0000000c mbedtls_mpi_size
00005834 g     F .text	00000134 bget
00001274 g     F .text	00000030 TEE_AllocateTransientObject
00003876 g     F .text	00000050 mbedtls_mpi_set_bit
000034d4 g     F .text	00000012 mbedtls_mpi_init_static
00001084 g     F .text	00000004 TEE_Free
0000526e g     F .text	0000005c mbedtls_mpi_is_prime
00001094 g     F .text	00000006 TEE_CacheInvalidate
00001c08 g     F .text	00000014 utee_cipher_init
00006434 g     F .text	00000010 _assert_break
00002b0c g     F .text	0000001c TEE_BigIntAddMod
00001e24 g     F .text	00000014 utee_storage_free_enum
00001d2c g     F .text	00000014 utee_authenc_update_aad
00000f80 g     F .text	00000004 TEE_MemCompare
00000590 g     F .text	00000734 __vsnprintf
0000164c g     F .text	00000014 TEE_FreePersistentObjectEnumerator
00001a3c g     F .text	00000014 utee_panic
00000e46 g     F .text	00000044 TEE_OpenTASession
00000d1c g     F .text	00000014 trace_ext_puts
00000d30 g     F .text	00000006 trace_ext_get_thread_id
000015b8 g     F .text	00000016 TEE_CloseAndDeletePersistentObject
000034e6 g     F .text	0000004e mbedtls_mpi_free
00001088 g     F .text	00000006 TEE_CacheClean
00001ab8 g     F .text	00000018 utee_open_ta_session
00003798 g     F .text	00000086 mbedtls_mpi_safe_cond_swap
000013b8 g     F .text	00000068 TEE_CopyObjectAttributes1
00001bf0 g     F .text	00000018 utee_hash_final
0000646c g     F .text	00000010 strlen
00002c88 g     F .text	00000154 TEE_BigIntComputeExtendedGcd
0000644c g     F .text	00000002 __aeabi_unwind_cpp_pr1
00001db8 g     F .text	00000018 utee_storage_obj_open
00001ae4 g     F .text	00000018 utee_invoke_ta_command
00001b4c g     F .text	00000014 utee_wait
00000f88 g     F .text	00000016 TEE_GetSystemTime
00000000 g     O .ta_head	00000020 ta_head
000059fc g     F .text	000001f8 brel
00003cee g     F .text	00000080 mbedtls_mpi_sub_abs
00001b60 g     F .text	00000014 utee_get_time
00004d56 g     F .text	00000032 mbedtls_mpi_fill_random
00000f62 g     F .text	0000000e TEE_SetInstanceData
00001b24 g     F .text	00000014 utee_unmask_cancellation
00000cec g     F .text	00000018 __aeabi_ldivmod
00001b10 g     F .text	00000014 utee_check_access_rights
00004562 g     F .text	0000013a mbedtls_mpi_write_string
000016a0 g     F .text	00000054 TEE_GetNextPersistentObject
00001ec4 g     F .text	00000014 utee_cryp_obj_generate_key
00000e8a g     F .text	00000014 TEE_CloseTASession
000130f8 g       .bss	00000000 __gprof_buf_start
00005da6 g     F .text	00000012 free
00005d0c g     F .text	00000064 bstats
0000b0b0 g     O .bss	00000004 mbedtls_mpi_mempool



Disassembly of section .text:

00000020 <TA_CreateEntryPoint>:
TA_CreateEntryPoint():
/workspace/benchmark/secure_storage/ta/secure_storage_ta.c:234
      20:	2000      	movs	r0, #0
      22:	4770      	bx	lr

00000024 <TA_DestroyEntryPoint>:
TA_DestroyEntryPoint():
/workspace/benchmark/secure_storage/ta/secure_storage_ta.c:239
      24:	4770      	bx	lr

00000026 <TA_OpenSessionEntryPoint>:
TA_OpenSessionEntryPoint():
/workspace/benchmark/secure_storage/ta/secure_storage_ta.c:247
      26:	2000      	movs	r0, #0
      28:	4770      	bx	lr

0000002a <TA_CloseSessionEntryPoint>:
TA_CloseSessionEntryPoint():
/workspace/benchmark/secure_storage/ta/secure_storage_ta.c:252
      2a:	4770      	bx	lr

0000002c <TA_InvokeCommandEntryPoint>:
TA_InvokeCommandEntryPoint():
/workspace/benchmark/secure_storage/ta/secure_storage_ta.c:258
      2c:	e92d 43f0 	stmdb	sp!, {r4, r5, r6, r7, r8, r9, lr}
      30:	4614      	mov	r4, r2
      32:	4a97      	ldr	r2, [pc, #604]	; (290 <TA_InvokeCommandEntryPoint+0x264>)
      34:	461d      	mov	r5, r3
      36:	4b97      	ldr	r3, [pc, #604]	; (294 <TA_InvokeCommandEntryPoint+0x268>)
      38:	447a      	add	r2, pc
      3a:	b08f      	sub	sp, #60	; 0x3c
      3c:	460e      	mov	r6, r1
/workspace/benchmark/secure_storage/ta/secure_storage_ta.c:259
      3e:	2901      	cmp	r1, #1
/workspace/benchmark/secure_storage/ta/secure_storage_ta.c:258
      40:	58d3      	ldr	r3, [r2, r3]
      42:	681b      	ldr	r3, [r3, #0]
      44:	930d      	str	r3, [sp, #52]	; 0x34
      46:	f04f 0300 	mov.w	r3, #0
/workspace/benchmark/secure_storage/ta/secure_storage_ta.c:259
      4a:	d036      	beq.n	ba <TA_InvokeCommandEntryPoint+0x8e>
      4c:	2902      	cmp	r1, #2
      4e:	f000 80d7 	beq.w	200 <TA_InvokeCommandEntryPoint+0x1d4>
      52:	2900      	cmp	r1, #0
      54:	f040 8100 	bne.w	258 <TA_InvokeCommandEntryPoint+0x22c>
read_raw_object():
/workspace/benchmark/secure_storage/ta/secure_storage_ta.c:164
      58:	2c65      	cmp	r4, #101	; 0x65
      5a:	f040 80fb 	bne.w	254 <TA_InvokeCommandEntryPoint+0x228>
/workspace/benchmark/secure_storage/ta/secure_storage_ta.c:167
      5e:	686c      	ldr	r4, [r5, #4]
/workspace/benchmark/secure_storage/ta/secure_storage_ta.c:168
      60:	4620      	mov	r0, r4
      62:	f000 ffe8 	bl	1036 <TEE_Malloc>
/workspace/benchmark/secure_storage/ta/secure_storage_ta.c:169
      66:	4607      	mov	r7, r0
      68:	b388      	cbz	r0, ce <TA_InvokeCommandEntryPoint+0xa2>
/workspace/benchmark/secure_storage/ta/secure_storage_ta.c:172
      6a:	6829      	ldr	r1, [r5, #0]
      6c:	4622      	mov	r2, r4
      6e:	f000 ff85 	bl	f7c <TEE_MemMove>
/workspace/benchmark/secure_storage/ta/secure_storage_ta.c:174
      72:	f8d5 800c 	ldr.w	r8, [r5, #12]
/workspace/benchmark/secure_storage/ta/secure_storage_ta.c:175
      76:	4631      	mov	r1, r6
      78:	4640      	mov	r0, r8
      7a:	f000 ffdc 	bl	1036 <TEE_Malloc>
/workspace/benchmark/secure_storage/ta/secure_storage_ta.c:176
      7e:	4606      	mov	r6, r0
      80:	b328      	cbz	r0, ce <TA_InvokeCommandEntryPoint+0xa2>
/workspace/benchmark/secure_storage/ta/secure_storage_ta.c:183
      82:	ab04      	add	r3, sp, #16
      84:	4622      	mov	r2, r4
      86:	9300      	str	r3, [sp, #0]
      88:	4639      	mov	r1, r7
      8a:	2311      	movs	r3, #17
      8c:	2001      	movs	r0, #1
      8e:	f001 fa03 	bl	1498 <TEE_OpenPersistentObject>
/workspace/benchmark/secure_storage/ta/secure_storage_ta.c:188
      92:	4604      	mov	r4, r0
      94:	2800      	cmp	r0, #0
      96:	d074      	beq.n	182 <TA_InvokeCommandEntryPoint+0x156>
/workspace/benchmark/secure_storage/ta/secure_storage_ta.c:189
      98:	4b7f      	ldr	r3, [pc, #508]	; (298 <TA_InvokeCommandEntryPoint+0x26c>)
      9a:	21bd      	movs	r1, #189	; 0xbd
      9c:	9001      	str	r0, [sp, #4]
      9e:	487f      	ldr	r0, [pc, #508]	; (29c <TA_InvokeCommandEntryPoint+0x270>)
      a0:	447b      	add	r3, pc
      a2:	9300      	str	r3, [sp, #0]
      a4:	2301      	movs	r3, #1
      a6:	4478      	add	r0, pc
      a8:	461a      	mov	r2, r3
      aa:	3012      	adds	r0, #18
      ac:	f000 f952 	bl	354 <trace_printf>
/workspace/benchmark/secure_storage/ta/secure_storage_ta.c:225
      b0:	4638      	mov	r0, r7
      b2:	f000 ffe7 	bl	1084 <TEE_Free>
delete_object():
/workspace/benchmark/secure_storage/ta/secure_storage_ta.c:73
      b6:	4630      	mov	r0, r6
      b8:	e03a      	b.n	130 <TA_InvokeCommandEntryPoint+0x104>
create_raw_object():
/workspace/benchmark/secure_storage/ta/secure_storage_ta.c:96
      ba:	2c55      	cmp	r4, #85	; 0x55
      bc:	f040 80ca 	bne.w	254 <TA_InvokeCommandEntryPoint+0x228>
/workspace/benchmark/secure_storage/ta/secure_storage_ta.c:99
      c0:	686c      	ldr	r4, [r5, #4]
/workspace/benchmark/secure_storage/ta/secure_storage_ta.c:100
      c2:	2100      	movs	r1, #0
      c4:	4620      	mov	r0, r4
      c6:	f000 ffb6 	bl	1036 <TEE_Malloc>
/workspace/benchmark/secure_storage/ta/secure_storage_ta.c:101
      ca:	4680      	mov	r8, r0
      cc:	b908      	cbnz	r0, d2 <TA_InvokeCommandEntryPoint+0xa6>
delete_object():
/workspace/benchmark/secure_storage/ta/secure_storage_ta.c:54
      ce:	4c6c      	ldr	r4, [pc, #432]	; (280 <TA_InvokeCommandEntryPoint+0x254>)
TA_InvokeCommandEntryPoint():
/workspace/benchmark/secure_storage/ta/secure_storage_ta.c:265
      d0:	e030      	b.n	134 <TA_InvokeCommandEntryPoint+0x108>
create_raw_object():
/workspace/benchmark/secure_storage/ta/secure_storage_ta.c:104
      d2:	6829      	ldr	r1, [r5, #0]
      d4:	4622      	mov	r2, r4
      d6:	f000 ff51 	bl	f7c <TEE_MemMove>
/workspace/benchmark/secure_storage/ta/secure_storage_ta.c:106
      da:	f8d5 900c 	ldr.w	r9, [r5, #12]
/workspace/benchmark/secure_storage/ta/secure_storage_ta.c:107
      de:	2100      	movs	r1, #0
      e0:	4648      	mov	r0, r9
      e2:	f000 ffa8 	bl	1036 <TEE_Malloc>
/workspace/benchmark/secure_storage/ta/secure_storage_ta.c:108
      e6:	4607      	mov	r7, r0
      e8:	2800      	cmp	r0, #0
      ea:	d0f0      	beq.n	ce <TA_InvokeCommandEntryPoint+0xa2>
/workspace/benchmark/secure_storage/ta/secure_storage_ta.c:110
      ec:	68a9      	ldr	r1, [r5, #8]
      ee:	464a      	mov	r2, r9
      f0:	f000 ff44 	bl	f7c <TEE_MemMove>
/workspace/benchmark/secure_storage/ta/secure_storage_ta.c:120
      f4:	ab06      	add	r3, sp, #24
      f6:	4622      	mov	r2, r4
      f8:	9303      	str	r3, [sp, #12]
      fa:	4641      	mov	r1, r8
      fc:	2300      	movs	r3, #0
      fe:	4630      	mov	r0, r6
     100:	9302      	str	r3, [sp, #8]
     102:	9301      	str	r3, [sp, #4]
     104:	9300      	str	r3, [sp, #0]
     106:	f240 4307 	movw	r3, #1031	; 0x407
     10a:	f001 f9f7 	bl	14fc <TEE_CreatePersistentObject>
/workspace/benchmark/secure_storage/ta/secure_storage_ta.c:126
     10e:	4604      	mov	r4, r0
     110:	b1e8      	cbz	r0, 14e <TA_InvokeCommandEntryPoint+0x122>
/workspace/benchmark/secure_storage/ta/secure_storage_ta.c:127
     112:	4b63      	ldr	r3, [pc, #396]	; (2a0 <TA_InvokeCommandEntryPoint+0x274>)
     114:	4632      	mov	r2, r6
     116:	9001      	str	r0, [sp, #4]
     118:	217f      	movs	r1, #127	; 0x7f
     11a:	4862      	ldr	r0, [pc, #392]	; (2a4 <TA_InvokeCommandEntryPoint+0x278>)
     11c:	447b      	add	r3, pc
     11e:	9300      	str	r3, [sp, #0]
     120:	4633      	mov	r3, r6
     122:	4478      	add	r0, pc
     124:	f000 f916 	bl	354 <trace_printf>
/workspace/benchmark/secure_storage/ta/secure_storage_ta.c:140
     128:	4640      	mov	r0, r8
     12a:	f000 ffab 	bl	1084 <TEE_Free>
/workspace/benchmark/secure_storage/ta/secure_storage_ta.c:141
     12e:	4638      	mov	r0, r7
delete_object():
/workspace/benchmark/secure_storage/ta/secure_storage_ta.c:73
     130:	f000 ffa8 	bl	1084 <TEE_Free>
TA_InvokeCommandEntryPoint():
/workspace/benchmark/secure_storage/ta/secure_storage_ta.c:258
     134:	4a5c      	ldr	r2, [pc, #368]	; (2a8 <TA_InvokeCommandEntryPoint+0x27c>)
/workspace/benchmark/secure_storage/ta/secure_storage_ta.c:270
     136:	4b57      	ldr	r3, [pc, #348]	; (294 <TA_InvokeCommandEntryPoint+0x268>)
/workspace/benchmark/secure_storage/ta/secure_storage_ta.c:258
     138:	447a      	add	r2, pc
/workspace/benchmark/secure_storage/ta/secure_storage_ta.c:270
     13a:	58d3      	ldr	r3, [r2, r3]
     13c:	681a      	ldr	r2, [r3, #0]
     13e:	9b0d      	ldr	r3, [sp, #52]	; 0x34
     140:	405a      	eors	r2, r3
     142:	f04f 0300 	mov.w	r3, #0
     146:	f000 8096 	beq.w	276 <TA_InvokeCommandEntryPoint+0x24a>
     14a:	f006 f97d 	bl	6448 <__stack_chk_fail>
create_raw_object():
/workspace/benchmark/secure_storage/ta/secure_storage_ta.c:133
     14e:	9806      	ldr	r0, [sp, #24]
     150:	464a      	mov	r2, r9
     152:	4639      	mov	r1, r7
     154:	f001 faee 	bl	1734 <TEE_WriteObjectData>
/workspace/benchmark/secure_storage/ta/secure_storage_ta.c:134
     158:	4604      	mov	r4, r0
     15a:	b170      	cbz	r0, 17a <TA_InvokeCommandEntryPoint+0x14e>
/workspace/benchmark/secure_storage/ta/secure_storage_ta.c:135
     15c:	9001      	str	r0, [sp, #4]
     15e:	4632      	mov	r2, r6
     160:	4b52      	ldr	r3, [pc, #328]	; (2ac <TA_InvokeCommandEntryPoint+0x280>)
     162:	2187      	movs	r1, #135	; 0x87
     164:	4852      	ldr	r0, [pc, #328]	; (2b0 <TA_InvokeCommandEntryPoint+0x284>)
     166:	447b      	add	r3, pc
     168:	9300      	str	r3, [sp, #0]
     16a:	4478      	add	r0, pc
     16c:	4633      	mov	r3, r6
     16e:	f000 f8f1 	bl	354 <trace_printf>
/workspace/benchmark/secure_storage/ta/secure_storage_ta.c:136
     172:	9806      	ldr	r0, [sp, #24]
     174:	f001 fa0e 	bl	1594 <TEE_CloseAndDeletePersistentObject1>
     178:	e7d6      	b.n	128 <TA_InvokeCommandEntryPoint+0xfc>
/workspace/benchmark/secure_storage/ta/secure_storage_ta.c:138
     17a:	9806      	ldr	r0, [sp, #24]
     17c:	f001 f870 	bl	1260 <TEE_CloseObject>
     180:	e7d2      	b.n	128 <TA_InvokeCommandEntryPoint+0xfc>
read_raw_object():
/workspace/benchmark/secure_storage/ta/secure_storage_ta.c:195
     182:	9804      	ldr	r0, [sp, #16]
     184:	a906      	add	r1, sp, #24
     186:	f000 ffbb 	bl	1100 <TEE_GetObjectInfo1>
/workspace/benchmark/secure_storage/ta/secure_storage_ta.c:196
     18a:	4604      	mov	r4, r0
     18c:	b178      	cbz	r0, 1ae <TA_InvokeCommandEntryPoint+0x182>
/workspace/benchmark/secure_storage/ta/secure_storage_ta.c:197
     18e:	4b49      	ldr	r3, [pc, #292]	; (2b4 <TA_InvokeCommandEntryPoint+0x288>)
     190:	21c5      	movs	r1, #197	; 0xc5
     192:	9001      	str	r0, [sp, #4]
     194:	4848      	ldr	r0, [pc, #288]	; (2b8 <TA_InvokeCommandEntryPoint+0x28c>)
     196:	447b      	add	r3, pc
     198:	9300      	str	r3, [sp, #0]
     19a:	2301      	movs	r3, #1
     19c:	4478      	add	r0, pc
     19e:	461a      	mov	r2, r3
     1a0:	3012      	adds	r0, #18
     1a2:	f000 f8d7 	bl	354 <trace_printf>
/workspace/benchmark/secure_storage/ta/secure_storage_ta.c:224
     1a6:	9804      	ldr	r0, [sp, #16]
     1a8:	f001 f85a 	bl	1260 <TEE_CloseObject>
     1ac:	e780      	b.n	b0 <TA_InvokeCommandEntryPoint+0x84>
/workspace/benchmark/secure_storage/ta/secure_storage_ta.c:201
     1ae:	9a0a      	ldr	r2, [sp, #40]	; 0x28
/workspace/benchmark/secure_storage/ta/secure_storage_ta.c:211
     1b0:	9804      	ldr	r0, [sp, #16]
/workspace/benchmark/secure_storage/ta/secure_storage_ta.c:201
     1b2:	4590      	cmp	r8, r2
     1b4:	d202      	bcs.n	1bc <TA_InvokeCommandEntryPoint+0x190>
/workspace/benchmark/secure_storage/ta/secure_storage_ta.c:207
     1b6:	4c33      	ldr	r4, [pc, #204]	; (284 <TA_InvokeCommandEntryPoint+0x258>)
/workspace/benchmark/secure_storage/ta/secure_storage_ta.c:206
     1b8:	60ea      	str	r2, [r5, #12]
/workspace/benchmark/secure_storage/ta/secure_storage_ta.c:208
     1ba:	e7f4      	b.n	1a6 <TA_InvokeCommandEntryPoint+0x17a>
/workspace/benchmark/secure_storage/ta/secure_storage_ta.c:211
     1bc:	ab05      	add	r3, sp, #20
     1be:	4631      	mov	r1, r6
     1c0:	f001 fa98 	bl	16f4 <TEE_ReadObjectData>
/workspace/benchmark/secure_storage/ta/secure_storage_ta.c:213
     1c4:	4604      	mov	r4, r0
     1c6:	b180      	cbz	r0, 1ea <TA_InvokeCommandEntryPoint+0x1be>
/workspace/benchmark/secure_storage/ta/secure_storage_ta.c:216
     1c8:	9b0a      	ldr	r3, [sp, #40]	; 0x28
     1ca:	21d8      	movs	r1, #216	; 0xd8
     1cc:	9303      	str	r3, [sp, #12]
     1ce:	9b05      	ldr	r3, [sp, #20]
     1d0:	9302      	str	r3, [sp, #8]
     1d2:	483a      	ldr	r0, [pc, #232]	; (2bc <TA_InvokeCommandEntryPoint+0x290>)
     1d4:	4b3a      	ldr	r3, [pc, #232]	; (2c0 <TA_InvokeCommandEntryPoint+0x294>)
     1d6:	4478      	add	r0, pc
     1d8:	9401      	str	r4, [sp, #4]
     1da:	447b      	add	r3, pc
     1dc:	9300      	str	r3, [sp, #0]
     1de:	2301      	movs	r3, #1
     1e0:	3012      	adds	r0, #18
     1e2:	461a      	mov	r2, r3
     1e4:	f000 f8b6 	bl	354 <trace_printf>
/workspace/benchmark/secure_storage/ta/secure_storage_ta.c:218
     1e8:	e7dd      	b.n	1a6 <TA_InvokeCommandEntryPoint+0x17a>
/workspace/benchmark/secure_storage/ta/secure_storage_ta.c:214
     1ea:	9a05      	ldr	r2, [sp, #20]
     1ec:	4631      	mov	r1, r6
     1ee:	68a8      	ldr	r0, [r5, #8]
     1f0:	f000 fec4 	bl	f7c <TEE_MemMove>
/workspace/benchmark/secure_storage/ta/secure_storage_ta.c:215
     1f4:	9b0a      	ldr	r3, [sp, #40]	; 0x28
     1f6:	9a05      	ldr	r2, [sp, #20]
     1f8:	4293      	cmp	r3, r2
     1fa:	d1e5      	bne.n	1c8 <TA_InvokeCommandEntryPoint+0x19c>
/workspace/benchmark/secure_storage/ta/secure_storage_ta.c:222
     1fc:	60eb      	str	r3, [r5, #12]
     1fe:	e7d2      	b.n	1a6 <TA_InvokeCommandEntryPoint+0x17a>
delete_object():
/workspace/benchmark/secure_storage/ta/secure_storage_ta.c:48
     200:	2c05      	cmp	r4, #5
     202:	d127      	bne.n	254 <TA_InvokeCommandEntryPoint+0x228>
/workspace/benchmark/secure_storage/ta/secure_storage_ta.c:51
     204:	686f      	ldr	r7, [r5, #4]
/workspace/benchmark/secure_storage/ta/secure_storage_ta.c:52
     206:	2100      	movs	r1, #0
     208:	4638      	mov	r0, r7
     20a:	f000 ff14 	bl	1036 <TEE_Malloc>
/workspace/benchmark/secure_storage/ta/secure_storage_ta.c:53
     20e:	4606      	mov	r6, r0
     210:	2800      	cmp	r0, #0
     212:	f43f af5c 	beq.w	ce <TA_InvokeCommandEntryPoint+0xa2>
/workspace/benchmark/secure_storage/ta/secure_storage_ta.c:56
     216:	6829      	ldr	r1, [r5, #0]
     218:	463a      	mov	r2, r7
     21a:	f000 feaf 	bl	f7c <TEE_MemMove>
/workspace/benchmark/secure_storage/ta/secure_storage_ta.c:61
     21e:	ab06      	add	r3, sp, #24
     220:	463a      	mov	r2, r7
     222:	9300      	str	r3, [sp, #0]
     224:	4631      	mov	r1, r6
     226:	4623      	mov	r3, r4
     228:	2001      	movs	r0, #1
     22a:	f001 f935 	bl	1498 <TEE_OpenPersistentObject>
/workspace/benchmark/secure_storage/ta/secure_storage_ta.c:66
     22e:	4604      	mov	r4, r0
     230:	b160      	cbz	r0, 24c <TA_InvokeCommandEntryPoint+0x220>
/workspace/benchmark/secure_storage/ta/secure_storage_ta.c:67
     232:	9001      	str	r0, [sp, #4]
     234:	2143      	movs	r1, #67	; 0x43
     236:	4b23      	ldr	r3, [pc, #140]	; (2c4 <TA_InvokeCommandEntryPoint+0x298>)
     238:	4823      	ldr	r0, [pc, #140]	; (2c8 <TA_InvokeCommandEntryPoint+0x29c>)
     23a:	447b      	add	r3, pc
     23c:	9300      	str	r3, [sp, #0]
     23e:	4478      	add	r0, pc
     240:	2301      	movs	r3, #1
     242:	461a      	mov	r2, r3
     244:	3022      	adds	r0, #34	; 0x22
     246:	f000 f885 	bl	354 <trace_printf>
/workspace/benchmark/secure_storage/ta/secure_storage_ta.c:68
     24a:	e734      	b.n	b6 <TA_InvokeCommandEntryPoint+0x8a>
/workspace/benchmark/secure_storage/ta/secure_storage_ta.c:72
     24c:	9806      	ldr	r0, [sp, #24]
     24e:	f001 f9a1 	bl	1594 <TEE_CloseAndDeletePersistentObject1>
     252:	e730      	b.n	b6 <TA_InvokeCommandEntryPoint+0x8a>
/workspace/benchmark/secure_storage/ta/secure_storage_ta.c:49
     254:	4c0c      	ldr	r4, [pc, #48]	; (288 <TA_InvokeCommandEntryPoint+0x25c>)
     256:	e76d      	b.n	134 <TA_InvokeCommandEntryPoint+0x108>
TA_InvokeCommandEntryPoint():
/workspace/benchmark/secure_storage/ta/secure_storage_ta.c:267
     258:	4b1c      	ldr	r3, [pc, #112]	; (2cc <TA_InvokeCommandEntryPoint+0x2a0>)
     25a:	481d      	ldr	r0, [pc, #116]	; (2d0 <TA_InvokeCommandEntryPoint+0x2a4>)
     25c:	447b      	add	r3, pc
     25e:	9300      	str	r3, [sp, #0]
     260:	4478      	add	r0, pc
     262:	2301      	movs	r3, #1
     264:	9101      	str	r1, [sp, #4]
     266:	461a      	mov	r2, r3
     268:	3030      	adds	r0, #48	; 0x30
     26a:	f240 110b 	movw	r1, #267	; 0x10b
/workspace/benchmark/secure_storage/ta/secure_storage_ta.c:268
     26e:	4c07      	ldr	r4, [pc, #28]	; (28c <TA_InvokeCommandEntryPoint+0x260>)
/workspace/benchmark/secure_storage/ta/secure_storage_ta.c:267
     270:	f000 f870 	bl	354 <trace_printf>
/workspace/benchmark/secure_storage/ta/secure_storage_ta.c:268
     274:	e75e      	b.n	134 <TA_InvokeCommandEntryPoint+0x108>
/workspace/benchmark/secure_storage/ta/secure_storage_ta.c:270
     276:	4620      	mov	r0, r4
     278:	b00f      	add	sp, #60	; 0x3c
     27a:	e8bd 83f0 	ldmia.w	sp!, {r4, r5, r6, r7, r8, r9, pc}
     27e:	bf00      	nop
     280:	ffff000c 	.word	0xffff000c
     284:	ffff0010 	.word	0xffff0010
     288:	ffff0006 	.word	0xffff0006
     28c:	ffff000a 	.word	0xffff000a
     290:	00007e6c 	.word	0x00007e6c
     294:	0000000c 	.word	0x0000000c
     298:	0000694b 	.word	0x0000694b
     29c:	000069f4 	.word	0x000069f4
     2a0:	00006884 	.word	0x00006884
     2a4:	00006978 	.word	0x00006978
     2a8:	00007d6c 	.word	0x00007d6c
     2ac:	00006863 	.word	0x00006863
     2b0:	00006930 	.word	0x00006930
     2b4:	00006882 	.word	0x00006882
     2b8:	000068fe 	.word	0x000068fe
     2bc:	000068c4 	.word	0x000068c4
     2c0:	0000686d 	.word	0x0000686d
     2c4:	000067b1 	.word	0x000067b1
     2c8:	0000685c 	.word	0x0000685c
     2cc:	0000681d 	.word	0x0000681d
     2d0:	0000683a 	.word	0x0000683a

000002d4 <append>:
append():
/mnt/disk/raspbian-tee/optee_os/lib/libutils/ext/trace.c:198
     2d4:	b40e      	push	{r1, r2, r3}
/mnt/disk/raspbian-tee/optee_os/lib/libutils/ext/trace.c:203
     2d6:	f8d0 3100 	ldr.w	r3, [r0, #256]	; 0x100
/mnt/disk/raspbian-tee/optee_os/lib/libutils/ext/trace.c:198
     2da:	b533      	push	{r0, r1, r4, r5, lr}
     2dc:	4604      	mov	r4, r0
/mnt/disk/raspbian-tee/optee_os/lib/libutils/ext/trace.c:203
     2de:	b90b      	cbnz	r3, 2e4 <append+0x10>
/mnt/disk/raspbian-tee/optee_os/lib/libutils/ext/trace.c:204
     2e0:	f8c4 0100 	str.w	r0, [r4, #256]	; 0x100
/mnt/disk/raspbian-tee/optee_os/lib/libutils/ext/trace.c:205
     2e4:	f8d4 0100 	ldr.w	r0, [r4, #256]	; 0x100
/mnt/disk/raspbian-tee/optee_os/lib/libutils/ext/trace.c:206
     2e8:	ab06      	add	r3, sp, #24
/mnt/disk/raspbian-tee/optee_os/lib/libutils/ext/trace.c:207
     2ea:	9a05      	ldr	r2, [sp, #20]
/mnt/disk/raspbian-tee/optee_os/lib/libutils/ext/trace.c:205
     2ec:	1b05      	subs	r5, r0, r4
/mnt/disk/raspbian-tee/optee_os/lib/libutils/ext/trace.c:206
     2ee:	9301      	str	r3, [sp, #4]
/mnt/disk/raspbian-tee/optee_os/lib/libutils/ext/trace.c:205
     2f0:	f5c5 7580 	rsb	r5, r5, #256	; 0x100
/mnt/disk/raspbian-tee/optee_os/lib/libutils/ext/trace.c:207
     2f4:	4629      	mov	r1, r5
     2f6:	f000 fce5 	bl	cc4 <vsnprintk>
/mnt/disk/raspbian-tee/optee_os/lib/libutils/ext/trace.c:209
     2fa:	2800      	cmp	r0, #0
     2fc:	db0f      	blt.n	31e <append+0x4a>
/mnt/disk/raspbian-tee/optee_os/lib/libutils/ext/trace.c:213
     2fe:	4285      	cmp	r5, r0
     300:	dd0d      	ble.n	31e <append+0x4a>
/mnt/disk/raspbian-tee/optee_os/lib/libutils/ext/trace.c:217
     302:	4285      	cmp	r5, r0
     304:	bfa8      	it	ge
     306:	4605      	movge	r5, r0
     308:	f8d4 0100 	ldr.w	r0, [r4, #256]	; 0x100
     30c:	4405      	add	r5, r0
/mnt/disk/raspbian-tee/optee_os/lib/libutils/ext/trace.c:218
     30e:	2001      	movs	r0, #1
/mnt/disk/raspbian-tee/optee_os/lib/libutils/ext/trace.c:217
     310:	f8c4 5100 	str.w	r5, [r4, #256]	; 0x100
/mnt/disk/raspbian-tee/optee_os/lib/libutils/ext/trace.c:219
     314:	b002      	add	sp, #8
     316:	e8bd 4030 	ldmia.w	sp!, {r4, r5, lr}
     31a:	b003      	add	sp, #12
     31c:	4770      	bx	lr
/mnt/disk/raspbian-tee/optee_os/lib/libutils/ext/trace.c:211
     31e:	2000      	movs	r0, #0
     320:	e7f8      	b.n	314 <append+0x40>

00000322 <trace_set_level>:
trace_set_level():
/mnt/disk/raspbian-tee/optee_os/lib/libutils/ext/trace.c:25
     322:	4b05      	ldr	r3, [pc, #20]	; (338 <trace_set_level+0x16>)
/mnt/disk/raspbian-tee/optee_os/lib/libutils/ext/trace.c:26
     324:	2804      	cmp	r0, #4
     326:	4a05      	ldr	r2, [pc, #20]	; (33c <trace_set_level+0x1a>)
/mnt/disk/raspbian-tee/optee_os/lib/libutils/ext/trace.c:25
     328:	447b      	add	r3, pc
     32a:	589b      	ldr	r3, [r3, r2]
/mnt/disk/raspbian-tee/optee_os/lib/libutils/ext/trace.c:26
     32c:	d801      	bhi.n	332 <trace_set_level+0x10>
/mnt/disk/raspbian-tee/optee_os/lib/libutils/ext/trace.c:27
     32e:	6018      	str	r0, [r3, #0]
     330:	4770      	bx	lr
/mnt/disk/raspbian-tee/optee_os/lib/libutils/ext/trace.c:29
     332:	2204      	movs	r2, #4
     334:	601a      	str	r2, [r3, #0]
     336:	4770      	bx	lr
     338:	00007b7c 	.word	0x00007b7c
     33c:	00000014 	.word	0x00000014

00000340 <trace_get_level>:
trace_get_level():
/mnt/disk/raspbian-tee/optee_os/lib/libutils/ext/trace.c:33
     340:	4b02      	ldr	r3, [pc, #8]	; (34c <trace_get_level+0xc>)
/mnt/disk/raspbian-tee/optee_os/lib/libutils/ext/trace.c:34
     342:	4a03      	ldr	r2, [pc, #12]	; (350 <trace_get_level+0x10>)
/mnt/disk/raspbian-tee/optee_os/lib/libutils/ext/trace.c:33
     344:	447b      	add	r3, pc
/mnt/disk/raspbian-tee/optee_os/lib/libutils/ext/trace.c:34
     346:	589b      	ldr	r3, [r3, r2]
/mnt/disk/raspbian-tee/optee_os/lib/libutils/ext/trace.c:35
     348:	6818      	ldr	r0, [r3, #0]
     34a:	4770      	bx	lr
     34c:	00007b60 	.word	0x00007b60
     350:	00000014 	.word	0x00000014

00000354 <trace_printf>:
trace_printf():
/mnt/disk/raspbian-tee/optee_os/lib/libutils/ext/trace.c:97
     354:	e92d 47f0 	stmdb	sp!, {r4, r5, r6, r7, r8, r9, sl, lr}
     358:	4607      	mov	r7, r0
     35a:	f8df 910c 	ldr.w	r9, [pc, #268]	; 468 <trace_printf+0x114>
     35e:	b0c6      	sub	sp, #280	; 0x118
     360:	4688      	mov	r8, r1
     362:	44f9      	add	r9, pc
     364:	4614      	mov	r4, r2
/mnt/disk/raspbian-tee/optee_os/lib/libutils/ext/trace.c:103
     366:	469a      	mov	sl, r3
     368:	2b00      	cmp	r3, #0
     36a:	d06a      	beq.n	442 <trace_printf+0xee>
/mnt/disk/raspbian-tee/optee_os/lib/libutils/ext/trace.c:103 (discriminator 1)
     36c:	4b3f      	ldr	r3, [pc, #252]	; (46c <trace_printf+0x118>)
     36e:	f859 3003 	ldr.w	r3, [r9, r3]
     372:	681b      	ldr	r3, [r3, #0]
     374:	4293      	cmp	r3, r2
     376:	db61      	blt.n	43c <trace_printf+0xe8>
trace_level_to_string():
/mnt/disk/raspbian-tee/optee_os/lib/libutils/ext/trace.c:52
     378:	4613      	mov	r3, r2
     37a:	2a04      	cmp	r2, #4
/mnt/disk/raspbian-tee/optee_os/lib/libutils/ext/trace.c:55
     37c:	4a3c      	ldr	r2, [pc, #240]	; (470 <trace_printf+0x11c>)
/mnt/disk/raspbian-tee/optee_os/lib/libutils/ext/trace.c:52
     37e:	bf88      	it	hi
     380:	2300      	movhi	r3, #0
/mnt/disk/raspbian-tee/optee_os/lib/libutils/ext/trace.c:55
     382:	447a      	add	r2, pc
     384:	5cd3      	ldrb	r3, [r2, r3]
trace_printf():
/mnt/disk/raspbian-tee/optee_os/lib/libutils/ext/trace.c:107
     386:	4a3b      	ldr	r2, [pc, #236]	; (474 <trace_printf+0x120>)
     388:	ad06      	add	r5, sp, #24
     38a:	f44f 7180 	mov.w	r1, #256	; 0x100
     38e:	4628      	mov	r0, r5
     390:	447a      	add	r2, pc
     392:	f000 fc9e 	bl	cd2 <snprintk>
/mnt/disk/raspbian-tee/optee_os/lib/libutils/ext/trace.c:109
     396:	1e06      	subs	r6, r0, #0
     398:	db50      	blt.n	43c <trace_printf+0xe8>
/mnt/disk/raspbian-tee/optee_os/lib/libutils/ext/trace.c:114
     39a:	4b37      	ldr	r3, [pc, #220]	; (478 <trace_printf+0x124>)
     39c:	f5c6 7180 	rsb	r1, r6, #256	; 0x100
     3a0:	4a36      	ldr	r2, [pc, #216]	; (47c <trace_printf+0x128>)
     3a2:	19a8      	adds	r0, r5, r6
     3a4:	447a      	add	r2, pc
     3a6:	f859 3003 	ldr.w	r3, [r9, r3]
     3aa:	9303      	str	r3, [sp, #12]
     3ac:	f000 fc91 	bl	cd2 <snprintk>
/mnt/disk/raspbian-tee/optee_os/lib/libutils/ext/trace.c:116
     3b0:	2800      	cmp	r0, #0
     3b2:	db43      	blt.n	43c <trace_printf+0xe8>
/mnt/disk/raspbian-tee/optee_os/lib/libutils/ext/trace.c:118
     3b4:	4406      	add	r6, r0
/mnt/disk/raspbian-tee/optee_os/lib/libutils/ext/trace.c:120
     3b6:	f1ba 0f00 	cmp.w	sl, #0
     3ba:	d04b      	beq.n	454 <trace_printf+0x100>
/mnt/disk/raspbian-tee/optee_os/lib/libutils/ext/trace.c:120 (discriminator 1)
     3bc:	231a      	movs	r3, #26
     3be:	fa23 f404 	lsr.w	r4, r3, r4
     3c2:	07e3      	lsls	r3, r4, #31
     3c4:	d546      	bpl.n	454 <trace_printf+0x100>
print_thread_id():
/mnt/disk/raspbian-tee/optee_os/lib/libutils/ext/trace.c:65
     3c6:	f000 fcb3 	bl	d30 <trace_ext_get_thread_id>
trace_printf():
/mnt/disk/raspbian-tee/optee_os/lib/libutils/ext/trace.c:122
     3ca:	19ac      	adds	r4, r5, r6
     3cc:	f5c6 7980 	rsb	r9, r6, #256	; 0x100
print_thread_id():
/mnt/disk/raspbian-tee/optee_os/lib/libutils/ext/trace.c:67
     3d0:	2800      	cmp	r0, #0
     3d2:	db38      	blt.n	446 <trace_printf+0xf2>
/mnt/disk/raspbian-tee/optee_os/lib/libutils/ext/trace.c:68
     3d4:	4a2a      	ldr	r2, [pc, #168]	; (480 <trace_printf+0x12c>)
     3d6:	2301      	movs	r3, #1
     3d8:	9000      	str	r0, [sp, #0]
     3da:	447a      	add	r2, pc
/mnt/disk/raspbian-tee/optee_os/lib/libutils/ext/trace.c:70
     3dc:	4649      	mov	r1, r9
     3de:	4620      	mov	r0, r4
     3e0:	f000 fc77 	bl	cd2 <snprintk>
trace_printf():
/mnt/disk/raspbian-tee/optee_os/lib/libutils/ext/trace.c:129
     3e4:	2800      	cmp	r0, #0
     3e6:	db29      	blt.n	43c <trace_printf+0xe8>
/mnt/disk/raspbian-tee/optee_os/lib/libutils/ext/trace.c:131
     3e8:	1984      	adds	r4, r0, r6
/mnt/disk/raspbian-tee/optee_os/lib/libutils/ext/trace.c:133
     3ea:	b167      	cbz	r7, 406 <trace_printf+0xb2>
/mnt/disk/raspbian-tee/optee_os/lib/libutils/ext/trace.c:134
     3ec:	4a25      	ldr	r2, [pc, #148]	; (484 <trace_printf+0x130>)
     3ee:	463b      	mov	r3, r7
     3f0:	f8cd 8000 	str.w	r8, [sp]
     3f4:	f5c4 7180 	rsb	r1, r4, #256	; 0x100
     3f8:	447a      	add	r2, pc
     3fa:	1928      	adds	r0, r5, r4
     3fc:	f000 fc69 	bl	cd2 <snprintk>
/mnt/disk/raspbian-tee/optee_os/lib/libutils/ext/trace.c:136
     400:	2800      	cmp	r0, #0
     402:	db1b      	blt.n	43c <trace_printf+0xe8>
/mnt/disk/raspbian-tee/optee_os/lib/libutils/ext/trace.c:138
     404:	4404      	add	r4, r0
/mnt/disk/raspbian-tee/optee_os/lib/libutils/ext/trace.c:148
     406:	ab4f      	add	r3, sp, #316	; 0x13c
/mnt/disk/raspbian-tee/optee_os/lib/libutils/ext/trace.c:149
     408:	f5c4 7180 	rsb	r1, r4, #256	; 0x100
     40c:	1928      	adds	r0, r5, r4
     40e:	9a4e      	ldr	r2, [sp, #312]	; 0x138
/mnt/disk/raspbian-tee/optee_os/lib/libutils/ext/trace.c:148
     410:	9305      	str	r3, [sp, #20]
/mnt/disk/raspbian-tee/optee_os/lib/libutils/ext/trace.c:149
     412:	f000 fc57 	bl	cc4 <vsnprintk>
/mnt/disk/raspbian-tee/optee_os/lib/libutils/ext/trace.c:151
     416:	2800      	cmp	r0, #0
/mnt/disk/raspbian-tee/optee_os/lib/libutils/ext/trace.c:157
     418:	f04f 030a 	mov.w	r3, #10
/mnt/disk/raspbian-tee/optee_os/lib/libutils/ext/trace.c:152
     41c:	bfc8      	it	gt
     41e:	1824      	addgt	r4, r4, r0
     420:	2cfe      	cmp	r4, #254	; 0xfe
     422:	bf28      	it	cs
     424:	24fe      	movcs	r4, #254	; 0xfe
/mnt/disk/raspbian-tee/optee_os/lib/libutils/ext/trace.c:157
     426:	552b      	strb	r3, [r5, r4]
/mnt/disk/raspbian-tee/optee_os/lib/libutils/ext/trace.c:158
     428:	b114      	cbz	r4, 430 <trace_printf+0xdc>
/mnt/disk/raspbian-tee/optee_os/lib/libutils/ext/trace.c:158 (discriminator 1)
     42a:	5d2b      	ldrb	r3, [r5, r4]
     42c:	2b0a      	cmp	r3, #10
     42e:	d019      	beq.n	464 <trace_printf+0x110>
/mnt/disk/raspbian-tee/optee_os/lib/libutils/ext/trace.c:161
     430:	442c      	add	r4, r5
/mnt/disk/raspbian-tee/optee_os/lib/libutils/ext/trace.c:163
     432:	4628      	mov	r0, r5
/mnt/disk/raspbian-tee/optee_os/lib/libutils/ext/trace.c:161
     434:	2300      	movs	r3, #0
     436:	70a3      	strb	r3, [r4, #2]
/mnt/disk/raspbian-tee/optee_os/lib/libutils/ext/trace.c:163
     438:	f000 fc70 	bl	d1c <trace_ext_puts>
/mnt/disk/raspbian-tee/optee_os/lib/libutils/ext/trace.c:164
     43c:	b046      	add	sp, #280	; 0x118
     43e:	e8bd 87f0 	ldmia.w	sp!, {r4, r5, r6, r7, r8, r9, sl, pc}
trace_level_to_string():
/mnt/disk/raspbian-tee/optee_os/lib/libutils/ext/trace.c:50
     442:	234d      	movs	r3, #77	; 0x4d
     444:	e79f      	b.n	386 <trace_printf+0x32>
print_thread_id():
/mnt/disk/raspbian-tee/optee_os/lib/libutils/ext/trace.c:70
     446:	4b10      	ldr	r3, [pc, #64]	; (488 <trace_printf+0x134>)
     448:	4a10      	ldr	r2, [pc, #64]	; (48c <trace_printf+0x138>)
     44a:	447b      	add	r3, pc
     44c:	9300      	str	r3, [sp, #0]
     44e:	447a      	add	r2, pc
     450:	2301      	movs	r3, #1
     452:	e7c3      	b.n	3dc <trace_printf+0x88>
trace_printf():
/mnt/disk/raspbian-tee/optee_os/lib/libutils/ext/trace.c:142
     454:	2efe      	cmp	r6, #254	; 0xfe
     456:	d8f1      	bhi.n	43c <trace_printf+0xe8>
/mnt/disk/raspbian-tee/optee_os/lib/libutils/ext/trace.c:144
     458:	1c74      	adds	r4, r6, #1
     45a:	2320      	movs	r3, #32
     45c:	55ab      	strb	r3, [r5, r6]
/mnt/disk/raspbian-tee/optee_os/lib/libutils/ext/trace.c:145
     45e:	2300      	movs	r3, #0
     460:	552b      	strb	r3, [r5, r4]
     462:	e7d0      	b.n	406 <trace_printf+0xb2>
/mnt/disk/raspbian-tee/optee_os/lib/libutils/ext/trace.c:159
     464:	3c01      	subs	r4, #1
     466:	e7df      	b.n	428 <trace_printf+0xd4>
     468:	00007b42 	.word	0x00007b42
     46c:	00000014 	.word	0x00000014
     470:	00006828 	.word	0x00006828
     474:	00006829 	.word	0x00006829
     478:	00000018 	.word	0x00000018
     47c:	00006819 	.word	0x00006819
     480:	000067e7 	.word	0x000067e7
     484:	000067d4 	.word	0x000067d4
     488:	00006e75 	.word	0x00006e75
     48c:	00006779 	.word	0x00006779

00000490 <dhex_dump>:
dhex_dump():
/mnt/disk/raspbian-tee/optee_os/lib/libutils/ext/trace.c:225
     490:	e92d 4ff0 	stmdb	sp!, {r4, r5, r6, r7, r8, r9, sl, fp, lr}
     494:	4690      	mov	r8, r2
     496:	4a35      	ldr	r2, [pc, #212]	; (56c <dhex_dump+0xdc>)
     498:	468a      	mov	sl, r1
/mnt/disk/raspbian-tee/optee_os/lib/libutils/ext/trace.c:231
     49a:	4935      	ldr	r1, [pc, #212]	; (570 <dhex_dump+0xe0>)
/mnt/disk/raspbian-tee/optee_os/lib/libutils/ext/trace.c:225
     49c:	447a      	add	r2, pc
     49e:	b0c7      	sub	sp, #284	; 0x11c
     4a0:	4681      	mov	r9, r0
/mnt/disk/raspbian-tee/optee_os/lib/libutils/ext/trace.c:231
     4a2:	5852      	ldr	r2, [r2, r1]
     4a4:	6812      	ldr	r2, [r2, #0]
     4a6:	4542      	cmp	r2, r8
     4a8:	db1d      	blt.n	4e6 <dhex_dump+0x56>
     4aa:	461e      	mov	r6, r3
/mnt/disk/raspbian-tee/optee_os/lib/libutils/ext/trace.c:240
     4ac:	4b31      	ldr	r3, [pc, #196]	; (574 <dhex_dump+0xe4>)
/mnt/disk/raspbian-tee/optee_os/lib/libutils/ext/trace.c:232
     4ae:	ad05      	add	r5, sp, #20
/mnt/disk/raspbian-tee/optee_os/lib/libutils/ext/trace.c:235
     4b0:	f8df b0c4 	ldr.w	fp, [pc, #196]	; 578 <dhex_dump+0xe8>
/mnt/disk/raspbian-tee/optee_os/lib/libutils/ext/trace.c:240
     4b4:	447b      	add	r3, pc
     4b6:	9302      	str	r3, [sp, #8]
/mnt/disk/raspbian-tee/optee_os/lib/libutils/ext/trace.c:248
     4b8:	4b30      	ldr	r3, [pc, #192]	; (57c <dhex_dump+0xec>)
/mnt/disk/raspbian-tee/optee_os/lib/libutils/ext/trace.c:235
     4ba:	44fb      	add	fp, pc
/mnt/disk/raspbian-tee/optee_os/lib/libutils/ext/trace.c:232
     4bc:	2400      	movs	r4, #0
     4be:	f8c5 4100 	str.w	r4, [r5, #256]	; 0x100
/mnt/disk/raspbian-tee/optee_os/lib/libutils/ext/trace.c:248
     4c2:	447b      	add	r3, pc
     4c4:	9303      	str	r3, [sp, #12]
/mnt/disk/raspbian-tee/optee_os/lib/libutils/ext/trace.c:233 (discriminator 1)
     4c6:	9b50      	ldr	r3, [sp, #320]	; 0x140
     4c8:	429c      	cmp	r4, r3
     4ca:	db0f      	blt.n	4ec <dhex_dump+0x5c>
/mnt/disk/raspbian-tee/optee_os/lib/libutils/ext/trace.c:253
     4cc:	f8d5 3100 	ldr.w	r3, [r5, #256]	; 0x100
     4d0:	b14b      	cbz	r3, 4e6 <dhex_dump+0x56>
/mnt/disk/raspbian-tee/optee_os/lib/libutils/ext/trace.c:255
     4d2:	4b2b      	ldr	r3, [pc, #172]	; (580 <dhex_dump+0xf0>)
     4d4:	4642      	mov	r2, r8
     4d6:	9501      	str	r5, [sp, #4]
     4d8:	4651      	mov	r1, sl
     4da:	447b      	add	r3, pc
     4dc:	4648      	mov	r0, r9
     4de:	9300      	str	r3, [sp, #0]
     4e0:	2301      	movs	r3, #1
     4e2:	f7ff ff37 	bl	354 <trace_printf>
/mnt/disk/raspbian-tee/optee_os/lib/libutils/ext/trace.c:263
     4e6:	b047      	add	sp, #284	; 0x11c
     4e8:	e8bd 8ff0 	ldmia.w	sp!, {r4, r5, r6, r7, r8, r9, sl, fp, pc}
/mnt/disk/raspbian-tee/optee_os/lib/libutils/ext/trace.c:234
     4ec:	f014 070f 	ands.w	r7, r4, #15
     4f0:	d013      	beq.n	51a <dhex_dump+0x8a>
/mnt/disk/raspbian-tee/optee_os/lib/libutils/ext/trace.c:240
     4f2:	f816 2b01 	ldrb.w	r2, [r6], #1
     4f6:	4628      	mov	r0, r5
     4f8:	9902      	ldr	r1, [sp, #8]
     4fa:	f7ff feeb 	bl	2d4 <append>
/mnt/disk/raspbian-tee/optee_os/lib/libutils/ext/trace.c:241
     4fe:	b9a8      	cbnz	r0, 52c <dhex_dump+0x9c>
/mnt/disk/raspbian-tee/optee_os/lib/libutils/ext/trace.c:262
     500:	4820      	ldr	r0, [pc, #128]	; (584 <dhex_dump+0xf4>)
     502:	2203      	movs	r2, #3
     504:	4b20      	ldr	r3, [pc, #128]	; (588 <dhex_dump+0xf8>)
     506:	f44f 7183 	mov.w	r1, #262	; 0x106
     50a:	4478      	add	r0, pc
     50c:	447b      	add	r3, pc
     50e:	3005      	adds	r0, #5
     510:	9300      	str	r3, [sp, #0]
     512:	2301      	movs	r3, #1
     514:	f7ff ff1e 	bl	354 <trace_printf>
     518:	e7e5      	b.n	4e6 <dhex_dump+0x56>
/mnt/disk/raspbian-tee/optee_os/lib/libutils/ext/trace.c:235
     51a:	4633      	mov	r3, r6
     51c:	2208      	movs	r2, #8
     51e:	4659      	mov	r1, fp
     520:	4628      	mov	r0, r5
     522:	f7ff fed7 	bl	2d4 <append>
/mnt/disk/raspbian-tee/optee_os/lib/libutils/ext/trace.c:237
     526:	2800      	cmp	r0, #0
     528:	d1e3      	bne.n	4f2 <dhex_dump+0x62>
     52a:	e7e9      	b.n	500 <dhex_dump+0x70>
/mnt/disk/raspbian-tee/optee_os/lib/libutils/ext/trace.c:243
     52c:	4263      	negs	r3, r4
     52e:	f003 030f 	and.w	r3, r3, #15
     532:	bf58      	it	pl
     534:	425f      	negpl	r7, r3
     536:	2f07      	cmp	r7, #7
     538:	d108      	bne.n	54c <dhex_dump+0xbc>
/mnt/disk/raspbian-tee/optee_os/lib/libutils/ext/trace.c:244
     53a:	4914      	ldr	r1, [pc, #80]	; (58c <dhex_dump+0xfc>)
     53c:	4628      	mov	r0, r5
     53e:	4479      	add	r1, pc
     540:	f7ff fec8 	bl	2d4 <append>
/mnt/disk/raspbian-tee/optee_os/lib/libutils/ext/trace.c:245
     544:	2800      	cmp	r0, #0
     546:	d0db      	beq.n	500 <dhex_dump+0x70>
/mnt/disk/raspbian-tee/optee_os/lib/libutils/ext/trace.c:233 (discriminator 2)
     548:	3401      	adds	r4, #1
     54a:	e7bc      	b.n	4c6 <dhex_dump+0x36>
/mnt/disk/raspbian-tee/optee_os/lib/libutils/ext/trace.c:247
     54c:	2f0f      	cmp	r7, #15
     54e:	d1fb      	bne.n	548 <dhex_dump+0xb8>
/mnt/disk/raspbian-tee/optee_os/lib/libutils/ext/trace.c:248
     550:	9b03      	ldr	r3, [sp, #12]
     552:	4642      	mov	r2, r8
     554:	9300      	str	r3, [sp, #0]
     556:	4651      	mov	r1, sl
     558:	2301      	movs	r3, #1
     55a:	9501      	str	r5, [sp, #4]
     55c:	4648      	mov	r0, r9
     55e:	f7ff fef9 	bl	354 <trace_printf>
/mnt/disk/raspbian-tee/optee_os/lib/libutils/ext/trace.c:250
     562:	2300      	movs	r3, #0
     564:	f8c5 3100 	str.w	r3, [r5, #256]	; 0x100
     568:	e7ee      	b.n	548 <dhex_dump+0xb8>
     56a:	bf00      	nop
     56c:	00007a08 	.word	0x00007a08
     570:	00000014 	.word	0x00000014
     574:	0000671f 	.word	0x0000671f
     578:	0000671f 	.word	0x0000671f
     57c:	0000671f 	.word	0x0000671f
     580:	00006707 	.word	0x00006707
     584:	000066a0 	.word	0x000066a0
     588:	000066d8 	.word	0x000066d8
     58c:	000066a1 	.word	0x000066a1

00000590 <__vsnprintf>:
__vsnprintf():
/mnt/disk/raspbian-tee/optee_os/lib/libutils/ext/snprintk.c:137
     590:	e92d 4ff0 	stmdb	sp!, {r4, r5, r6, r7, r8, r9, sl, fp, lr}
/mnt/disk/raspbian-tee/optee_os/lib/libutils/ext/snprintk.c:141
     594:	4680      	mov	r8, r0
     596:	461f      	mov	r7, r3
/mnt/disk/raspbian-tee/optee_os/lib/libutils/ext/snprintk.c:137
     598:	b09f      	sub	sp, #124	; 0x7c
kprintf():
/mnt/disk/raspbian-tee/optee_os/lib/libutils/ext/snprintk.c:269
     59a:	2300      	movs	r3, #0
__vsnprintf():
/mnt/disk/raspbian-tee/optee_os/lib/libutils/ext/snprintk.c:137
     59c:	920b      	str	r2, [sp, #44]	; 0x2c
     59e:	f89d 20a0 	ldrb.w	r2, [sp, #160]	; 0xa0
     5a2:	9213      	str	r2, [sp, #76]	; 0x4c
/mnt/disk/raspbian-tee/optee_os/lib/libutils/ext/snprintk.c:141
     5a4:	4602      	mov	r2, r0
     5a6:	440a      	add	r2, r1
/mnt/disk/raspbian-tee/optee_os/lib/libutils/ext/snprintk.c:137
     5a8:	9010      	str	r0, [sp, #64]	; 0x40
     5aa:	9112      	str	r1, [sp, #72]	; 0x48
/mnt/disk/raspbian-tee/optee_os/lib/libutils/ext/snprintk.c:141
     5ac:	920e      	str	r2, [sp, #56]	; 0x38
kprintf():
/mnt/disk/raspbian-tee/optee_os/lib/libutils/ext/snprintk.c:269
     5ae:	930f      	str	r3, [sp, #60]	; 0x3c
/mnt/disk/raspbian-tee/optee_os/lib/libutils/ext/snprintk.c:267
     5b0:	930c      	str	r3, [sp, #48]	; 0x30
/mnt/disk/raspbian-tee/optee_os/lib/libutils/ext/snprintk.c:275
     5b2:	9b0b      	ldr	r3, [sp, #44]	; 0x2c
     5b4:	781b      	ldrb	r3, [r3, #0]
     5b6:	2b25      	cmp	r3, #37	; 0x25
     5b8:	d024      	beq.n	604 <__vsnprintf+0x74>
     5ba:	b993      	cbnz	r3, 5e2 <__vsnprintf+0x52>
__vsnprintf():
/mnt/disk/raspbian-tee/optee_os/lib/libutils/ext/snprintk.c:143
     5bc:	9b10      	ldr	r3, [sp, #64]	; 0x40
     5be:	b163      	cbz	r3, 5da <__vsnprintf+0x4a>
/mnt/disk/raspbian-tee/optee_os/lib/libutils/ext/snprintk.c:143 (discriminator 1)
     5c0:	9b12      	ldr	r3, [sp, #72]	; 0x48
     5c2:	b153      	cbz	r3, 5da <__vsnprintf+0x4a>
/mnt/disk/raspbian-tee/optee_os/lib/libutils/ext/snprintk.c:145
     5c4:	9a0c      	ldr	r2, [sp, #48]	; 0x30
     5c6:	4293      	cmp	r3, r2
     5c8:	f04f 0300 	mov.w	r3, #0
/mnt/disk/raspbian-tee/optee_os/lib/libutils/ext/snprintk.c:146
     5cc:	9a10      	ldr	r2, [sp, #64]	; 0x40
/mnt/disk/raspbian-tee/optee_os/lib/libutils/ext/snprintk.c:145
     5ce:	f200 835f 	bhi.w	c90 <__vsnprintf+0x700>
/mnt/disk/raspbian-tee/optee_os/lib/libutils/ext/snprintk.c:146
     5d2:	9912      	ldr	r1, [sp, #72]	; 0x48
     5d4:	440a      	add	r2, r1
     5d6:	f802 3c01 	strb.w	r3, [r2, #-1]
/mnt/disk/raspbian-tee/optee_os/lib/libutils/ext/snprintk.c:151
     5da:	980c      	ldr	r0, [sp, #48]	; 0x30
     5dc:	b01f      	add	sp, #124	; 0x7c
     5de:	e8bd 8ff0 	ldmia.w	sp!, {r4, r5, r6, r7, r8, r9, sl, fp, pc}
kprintf():
/mnt/disk/raspbian-tee/optee_os/lib/libutils/ext/snprintk.c:276
     5e2:	9a0c      	ldr	r2, [sp, #48]	; 0x30
     5e4:	3201      	adds	r2, #1
     5e6:	920c      	str	r2, [sp, #48]	; 0x30
/mnt/disk/raspbian-tee/optee_os/lib/libutils/ext/snprintk.c:277
     5e8:	f1b8 0f00 	cmp.w	r8, #0
     5ec:	d006      	beq.n	5fc <__vsnprintf+0x6c>
     5ee:	9a0e      	ldr	r2, [sp, #56]	; 0x38
     5f0:	4542      	cmp	r2, r8
     5f2:	d903      	bls.n	5fc <__vsnprintf+0x6c>
     5f4:	f888 3000 	strb.w	r3, [r8]
     5f8:	f108 0801 	add.w	r8, r8, #1
/mnt/disk/raspbian-tee/optee_os/lib/libutils/ext/snprintk.c:275
     5fc:	9b0b      	ldr	r3, [sp, #44]	; 0x2c
     5fe:	3301      	adds	r3, #1
     600:	930b      	str	r3, [sp, #44]	; 0x2c
     602:	e7d6      	b.n	5b2 <__vsnprintf+0x22>
/mnt/disk/raspbian-tee/optee_os/lib/libutils/ext/snprintk.c:282
     604:	9b0b      	ldr	r3, [sp, #44]	; 0x2c
/mnt/disk/raspbian-tee/optee_os/lib/libutils/ext/snprintk.c:288
     606:	f04f 0a00 	mov.w	sl, #0
/mnt/disk/raspbian-tee/optee_os/lib/libutils/ext/snprintk.c:282
     60a:	463a      	mov	r2, r7
/mnt/disk/raspbian-tee/optee_os/lib/libutils/ext/snprintk.c:287
     60c:	f04f 3bff 	mov.w	fp, #4294967295	; 0xffffffff
/mnt/disk/raspbian-tee/optee_os/lib/libutils/ext/snprintk.c:282
     610:	3301      	adds	r3, #1
/mnt/disk/raspbian-tee/optee_os/lib/libutils/ext/snprintk.c:284
     612:	4656      	mov	r6, sl
/mnt/disk/raspbian-tee/optee_os/lib/libutils/ext/snprintk.c:286
     614:	f8cd a034 	str.w	sl, [sp, #52]	; 0x34
/mnt/disk/raspbian-tee/optee_os/lib/libutils/ext/snprintk.c:290
     618:	f893 9000 	ldrb.w	r9, [r3]
     61c:	1c59      	adds	r1, r3, #1
     61e:	910b      	str	r1, [sp, #44]	; 0x2c
/mnt/disk/raspbian-tee/optee_os/lib/libutils/ext/snprintk.c:291
     620:	f1b9 0f63 	cmp.w	r9, #99	; 0x63
     624:	f000 8163 	beq.w	8ee <__vsnprintf+0x35e>
     628:	f300 8095 	bgt.w	756 <__vsnprintf+0x1c6>
     62c:	f1b9 0f30 	cmp.w	r9, #48	; 0x30
     630:	f000 8147 	beq.w	8c2 <__vsnprintf+0x332>
     634:	dc26      	bgt.n	684 <__vsnprintf+0xf4>
     636:	f1b9 0f2a 	cmp.w	r9, #42	; 0x2a
     63a:	f000 8119 	beq.w	870 <__vsnprintf+0x2e0>
     63e:	dc13      	bgt.n	668 <__vsnprintf+0xd8>
     640:	f1b9 0f20 	cmp.w	r9, #32
     644:	f000 810a 	beq.w	85c <__vsnprintf+0x2cc>
     648:	f1b9 0f23 	cmp.w	r9, #35	; 0x23
     64c:	f000 810d 	beq.w	86a <__vsnprintf+0x2da>
/mnt/disk/raspbian-tee/optee_os/lib/libutils/ext/snprintk.c:541
     650:	f1b9 0f00 	cmp.w	r9, #0
     654:	d0b2      	beq.n	5bc <__vsnprintf+0x2c>
/mnt/disk/raspbian-tee/optee_os/lib/libutils/ext/snprintk.c:545
     656:	ab1e      	add	r3, sp, #120	; 0x78
     658:	4617      	mov	r7, r2
/mnt/disk/raspbian-tee/optee_os/lib/libutils/ext/snprintk.c:546
     65a:	f04f 0b01 	mov.w	fp, #1
/mnt/disk/raspbian-tee/optee_os/lib/libutils/ext/snprintk.c:545
     65e:	f803 9d28 	strb.w	r9, [r3, #-40]!
     662:	e0c0      	b.n	7e6 <__vsnprintf+0x256>
/mnt/disk/raspbian-tee/optee_os/lib/libutils/ext/snprintk.c:311
     664:	461a      	mov	r2, r3
     666:	e00b      	b.n	680 <__vsnprintf+0xf0>
/mnt/disk/raspbian-tee/optee_os/lib/libutils/ext/snprintk.c:291
     668:	f1b9 0f2d 	cmp.w	r9, #45	; 0x2d
     66c:	f000 8109 	beq.w	882 <__vsnprintf+0x2f2>
     670:	f1b9 0f2e 	cmp.w	r9, #46	; 0x2e
     674:	f000 8108 	beq.w	888 <__vsnprintf+0x2f8>
     678:	f1b9 0f2b 	cmp.w	r9, #43	; 0x2b
     67c:	d1e8      	bne.n	650 <__vsnprintf+0xc0>
/mnt/disk/raspbian-tee/optee_os/lib/libutils/ext/snprintk.c:319
     67e:	46ca      	mov	sl, r9
/mnt/disk/raspbian-tee/optee_os/lib/libutils/ext/snprintk.c:322
     680:	9b0b      	ldr	r3, [sp, #44]	; 0x2c
     682:	e7c9      	b.n	618 <__vsnprintf+0x88>
/mnt/disk/raspbian-tee/optee_os/lib/libutils/ext/snprintk.c:291
     684:	f1b9 0f44 	cmp.w	r9, #68	; 0x44
     688:	f000 818a 	beq.w	9a0 <__vsnprintf+0x410>
     68c:	dc14      	bgt.n	6b8 <__vsnprintf+0x128>
     68e:	f1b9 0f39 	cmp.w	r9, #57	; 0x39
     692:	dcdd      	bgt.n	650 <__vsnprintf+0xc0>
     694:	2300      	movs	r3, #0
     696:	930d      	str	r3, [sp, #52]	; 0x34
/mnt/disk/raspbian-tee/optee_os/lib/libutils/ext/snprintk.c:346
     698:	9b0d      	ldr	r3, [sp, #52]	; 0x34
     69a:	f1a9 0930 	sub.w	r9, r9, #48	; 0x30
     69e:	210a      	movs	r1, #10
     6a0:	fb01 9303 	mla	r3, r1, r3, r9
     6a4:	930d      	str	r3, [sp, #52]	; 0x34
/mnt/disk/raspbian-tee/optee_os/lib/libutils/ext/snprintk.c:347
     6a6:	9b0b      	ldr	r3, [sp, #44]	; 0x2c
     6a8:	f813 9b01 	ldrb.w	r9, [r3], #1
     6ac:	930b      	str	r3, [sp, #44]	; 0x2c
/mnt/disk/raspbian-tee/optee_os/lib/libutils/ext/snprintk.c:348
     6ae:	f1a9 0330 	sub.w	r3, r9, #48	; 0x30
     6b2:	2b09      	cmp	r3, #9
     6b4:	d9f0      	bls.n	698 <__vsnprintf+0x108>
     6b6:	e7b3      	b.n	620 <__vsnprintf+0x90>
/mnt/disk/raspbian-tee/optee_os/lib/libutils/ext/snprintk.c:291
     6b8:	f1b9 0f55 	cmp.w	r9, #85	; 0x55
     6bc:	f000 823d 	beq.w	b3a <__vsnprintf+0x5aa>
     6c0:	f1b9 0f58 	cmp.w	r9, #88	; 0x58
     6c4:	f000 80ab 	beq.w	81e <__vsnprintf+0x28e>
     6c8:	f1b9 0f4f 	cmp.w	r9, #79	; 0x4f
     6cc:	d1c0      	bne.n	650 <__vsnprintf+0xc0>
/mnt/disk/raspbian-tee/optee_os/lib/libutils/ext/snprintk.c:408
     6ce:	f046 0610 	orr.w	r6, r6, #16
/mnt/disk/raspbian-tee/optee_os/lib/libutils/ext/snprintk.c:411
     6d2:	0635      	lsls	r5, r6, #24
     6d4:	f140 81c0 	bpl.w	a58 <__vsnprintf+0x4c8>
     6d8:	3207      	adds	r2, #7
     6da:	f022 0207 	bic.w	r2, r2, #7
     6de:	f102 0708 	add.w	r7, r2, #8
     6e2:	e9d2 4500 	ldrd	r4, r5, [r2]
/mnt/disk/raspbian-tee/optee_os/lib/libutils/ext/snprintk.c:488
     6e6:	f04f 0a00 	mov.w	sl, #0
     6ea:	f1bb 3fff 	cmp.w	fp, #4294967295	; 0xffffffff
     6ee:	d011      	beq.n	714 <__vsnprintf+0x184>
     6f0:	4653      	mov	r3, sl
/mnt/disk/raspbian-tee/optee_os/lib/libutils/ext/snprintk.c:489
     6f2:	f426 6680 	bic.w	r6, r6, #1024	; 0x400
/mnt/disk/raspbian-tee/optee_os/lib/libutils/ext/snprintk.c:497
     6f6:	ea54 0205 	orrs.w	r2, r4, r5
     6fa:	d105      	bne.n	708 <__vsnprintf+0x178>
     6fc:	f1bb 0f00 	cmp.w	fp, #0
     700:	f000 8269 	beq.w	bd6 <__vsnprintf+0x646>
     704:	2400      	movs	r4, #0
     706:	2500      	movs	r5, #0
/mnt/disk/raspbian-tee/optee_os/lib/libutils/ext/snprintk.c:503
     708:	2b01      	cmp	r3, #1
     70a:	f000 8161 	beq.w	9d0 <__vsnprintf+0x440>
     70e:	2b02      	cmp	r3, #2
     710:	f000 81f8 	beq.w	b04 <__vsnprintf+0x574>
/mnt/disk/raspbian-tee/optee_os/lib/libutils/ext/snprintk.c:488
     714:	f10d 0275 	add.w	r2, sp, #117	; 0x75
/mnt/disk/raspbian-tee/optee_os/lib/libutils/ext/snprintk.c:507
     718:	08e0      	lsrs	r0, r4, #3
     71a:	ea4f 0cd5 	mov.w	ip, r5, lsr #3
     71e:	ea40 7045 	orr.w	r0, r0, r5, lsl #29
/mnt/disk/raspbian-tee/optee_os/lib/libutils/ext/snprintk.c:506
     722:	f004 0107 	and.w	r1, r4, #7
/mnt/disk/raspbian-tee/optee_os/lib/libutils/ext/snprintk.c:507
     726:	4665      	mov	r5, ip
     728:	4604      	mov	r4, r0
/mnt/disk/raspbian-tee/optee_os/lib/libutils/ext/snprintk.c:506
     72a:	3130      	adds	r1, #48	; 0x30
     72c:	1e53      	subs	r3, r2, #1
     72e:	f802 1c01 	strb.w	r1, [r2, #-1]
/mnt/disk/raspbian-tee/optee_os/lib/libutils/ext/snprintk.c:508
     732:	ea54 0005 	orrs.w	r0, r4, r5
     736:	f040 8239 	bne.w	bac <__vsnprintf+0x61c>
/mnt/disk/raspbian-tee/optee_os/lib/libutils/ext/snprintk.c:510
     73a:	07f5      	lsls	r5, r6, #31
     73c:	d505      	bpl.n	74a <__vsnprintf+0x1ba>
     73e:	2930      	cmp	r1, #48	; 0x30
     740:	d003      	beq.n	74a <__vsnprintf+0x1ba>
/mnt/disk/raspbian-tee/optee_os/lib/libutils/ext/snprintk.c:511
     742:	2130      	movs	r1, #48	; 0x30
     744:	f803 1c01 	strb.w	r1, [r3, #-1]
     748:	1e93      	subs	r3, r2, #2
/mnt/disk/raspbian-tee/optee_os/lib/libutils/ext/snprintk.c:537
     74a:	f10d 0275 	add.w	r2, sp, #117	; 0x75
     74e:	4658      	mov	r0, fp
     750:	eba2 0b03 	sub.w	fp, r2, r3
     754:	e0d5      	b.n	902 <__vsnprintf+0x372>
/mnt/disk/raspbian-tee/optee_os/lib/libutils/ext/snprintk.c:291
     756:	f1b9 0f6f 	cmp.w	r9, #111	; 0x6f
     75a:	d0ba      	beq.n	6d2 <__vsnprintf+0x142>
     75c:	dc1e      	bgt.n	79c <__vsnprintf+0x20c>
     75e:	f1b9 0f69 	cmp.w	r9, #105	; 0x69
     762:	f000 811f 	beq.w	9a4 <__vsnprintf+0x414>
     766:	dc0a      	bgt.n	77e <__vsnprintf+0x1ee>
     768:	f1b9 0f64 	cmp.w	r9, #100	; 0x64
     76c:	f000 811a 	beq.w	9a4 <__vsnprintf+0x414>
     770:	f1b9 0f68 	cmp.w	r9, #104	; 0x68
     774:	f47f af6c 	bne.w	650 <__vsnprintf+0xc0>
/mnt/disk/raspbian-tee/optee_os/lib/libutils/ext/snprintk.c:352
     778:	f046 0640 	orr.w	r6, r6, #64	; 0x40
     77c:	e780      	b.n	680 <__vsnprintf+0xf0>
/mnt/disk/raspbian-tee/optee_os/lib/libutils/ext/snprintk.c:291
     77e:	f1b9 0f6c 	cmp.w	r9, #108	; 0x6c
     782:	f000 80a1 	beq.w	8c8 <__vsnprintf+0x338>
     786:	f1b9 0f6e 	cmp.w	r9, #110	; 0x6e
     78a:	f000 8146 	beq.w	a1a <__vsnprintf+0x48a>
     78e:	f1b9 0f6a 	cmp.w	r9, #106	; 0x6a
     792:	f47f af5d 	bne.w	650 <__vsnprintf+0xc0>
/mnt/disk/raspbian-tee/optee_os/lib/libutils/ext/snprintk.c:355
     796:	f046 0680 	orr.w	r6, r6, #128	; 0x80
     79a:	e771      	b.n	680 <__vsnprintf+0xf0>
/mnt/disk/raspbian-tee/optee_os/lib/libutils/ext/snprintk.c:291
     79c:	f1b9 0f74 	cmp.w	r9, #116	; 0x74
     7a0:	f000 809f 	beq.w	8e2 <__vsnprintf+0x352>
     7a4:	dc22      	bgt.n	7ec <__vsnprintf+0x25c>
     7a6:	f1b9 0f71 	cmp.w	r9, #113	; 0x71
     7aa:	f000 8094 	beq.w	8d6 <__vsnprintf+0x346>
     7ae:	f2c0 8167 	blt.w	a80 <__vsnprintf+0x4f0>
     7b2:	f1b9 0f73 	cmp.w	r9, #115	; 0x73
     7b6:	f47f af4b 	bne.w	650 <__vsnprintf+0xc0>
/mnt/disk/raspbian-tee/optee_os/lib/libutils/ext/snprintk.c:442
     7ba:	6813      	ldr	r3, [r2, #0]
     7bc:	1d17      	adds	r7, r2, #4
     7be:	b913      	cbnz	r3, 7c6 <__vsnprintf+0x236>
/mnt/disk/raspbian-tee/optee_os/lib/libutils/ext/snprintk.c:444
     7c0:	f8df 34ec 	ldr.w	r3, [pc, #1260]	; cb0 <__vsnprintf+0x720>
     7c4:	447b      	add	r3, pc
/mnt/disk/raspbian-tee/optee_os/lib/libutils/ext/snprintk.c:445
     7c6:	f1bb 3fff 	cmp.w	fp, #4294967295	; 0xffffffff
     7ca:	f000 81ad 	beq.w	b28 <__vsnprintf+0x598>
/mnt/disk/raspbian-tee/optee_os/lib/libutils/ext/snprintk.c:451
     7ce:	4618      	mov	r0, r3
     7d0:	465a      	mov	r2, fp
     7d2:	2100      	movs	r1, #0
     7d4:	9311      	str	r3, [sp, #68]	; 0x44
     7d6:	f005 fe3b 	bl	6450 <memchr>
/mnt/disk/raspbian-tee/optee_os/lib/libutils/ext/snprintk.c:453
     7da:	9b11      	ldr	r3, [sp, #68]	; 0x44
     7dc:	b120      	cbz	r0, 7e8 <__vsnprintf+0x258>
/mnt/disk/raspbian-tee/optee_os/lib/libutils/ext/snprintk.c:454
     7de:	1ac0      	subs	r0, r0, r3
     7e0:	4583      	cmp	fp, r0
     7e2:	bfa8      	it	ge
     7e4:	4683      	movge	fp, r0
/mnt/disk/raspbian-tee/optee_os/lib/libutils/ext/snprintk.c:285
     7e6:	2000      	movs	r0, #0
/mnt/disk/raspbian-tee/optee_os/lib/libutils/ext/snprintk.c:461
     7e8:	4682      	mov	sl, r0
     7ea:	e08a      	b.n	902 <__vsnprintf+0x372>
/mnt/disk/raspbian-tee/optee_os/lib/libutils/ext/snprintk.c:291
     7ec:	f1b9 0f78 	cmp.w	r9, #120	; 0x78
     7f0:	f000 81c2 	beq.w	b78 <__vsnprintf+0x5e8>
     7f4:	f1b9 0f7a 	cmp.w	r9, #122	; 0x7a
     7f8:	d076      	beq.n	8e8 <__vsnprintf+0x358>
     7fa:	f1b9 0f75 	cmp.w	r9, #117	; 0x75
     7fe:	f47f af27 	bne.w	650 <__vsnprintf+0xc0>
/mnt/disk/raspbian-tee/optee_os/lib/libutils/ext/snprintk.c:467
     802:	f016 0380 	ands.w	r3, r6, #128	; 0x80
     806:	f000 819b 	beq.w	b40 <__vsnprintf+0x5b0>
     80a:	3207      	adds	r2, #7
     80c:	f022 0207 	bic.w	r2, r2, #7
     810:	f102 0708 	add.w	r7, r2, #8
     814:	e9d2 4500 	ldrd	r4, r5, [r2]
/mnt/disk/raspbian-tee/optee_os/lib/libutils/ext/snprintk.c:482
     818:	f04f 0a00 	mov.w	sl, #0
     81c:	e0d4      	b.n	9c8 <__vsnprintf+0x438>
/mnt/disk/raspbian-tee/optee_os/lib/libutils/ext/snprintk.c:471
     81e:	f8df 3494 	ldr.w	r3, [pc, #1172]	; cb4 <__vsnprintf+0x724>
     822:	447b      	add	r3, pc
/mnt/disk/raspbian-tee/optee_os/lib/libutils/ext/snprintk.c:474
     824:	930f      	str	r3, [sp, #60]	; 0x3c
/mnt/disk/raspbian-tee/optee_os/lib/libutils/ext/snprintk.c:475
     826:	0637      	lsls	r7, r6, #24
     828:	f140 81aa 	bpl.w	b80 <__vsnprintf+0x5f0>
     82c:	3207      	adds	r2, #7
     82e:	f022 0207 	bic.w	r2, r2, #7
     832:	f102 0708 	add.w	r7, r2, #8
     836:	e9d2 4500 	ldrd	r4, r5, [r2]
/mnt/disk/raspbian-tee/optee_os/lib/libutils/ext/snprintk.c:478
     83a:	07f3      	lsls	r3, r6, #31
     83c:	f140 815c 	bpl.w	af8 <__vsnprintf+0x568>
     840:	ea54 0305 	orrs.w	r3, r4, r5
     844:	f000 822d 	beq.w	ca2 <__vsnprintf+0x712>
/mnt/disk/raspbian-tee/optee_os/lib/libutils/ext/snprintk.c:479
     848:	f046 0602 	orr.w	r6, r6, #2
/mnt/disk/raspbian-tee/optee_os/lib/libutils/ext/snprintk.c:488
     84c:	f1bb 3fff 	cmp.w	fp, #4294967295	; 0xffffffff
     850:	f000 822a 	beq.w	ca8 <__vsnprintf+0x718>
     854:	f04f 0a00 	mov.w	sl, #0
     858:	2302      	movs	r3, #2
     85a:	e74a      	b.n	6f2 <__vsnprintf+0x162>
/mnt/disk/raspbian-tee/optee_os/lib/libutils/ext/snprintk.c:299
     85c:	f1ba 0f00 	cmp.w	sl, #0
     860:	f04f 0320 	mov.w	r3, #32
     864:	bf08      	it	eq
     866:	469a      	moveq	sl, r3
     868:	e70a      	b.n	680 <__vsnprintf+0xf0>
/mnt/disk/raspbian-tee/optee_os/lib/libutils/ext/snprintk.c:302
     86a:	f046 0601 	orr.w	r6, r6, #1
     86e:	e707      	b.n	680 <__vsnprintf+0xf0>
/mnt/disk/raspbian-tee/optee_os/lib/libutils/ext/snprintk.c:311
     870:	1d13      	adds	r3, r2, #4
     872:	6812      	ldr	r2, [r2, #0]
     874:	920d      	str	r2, [sp, #52]	; 0x34
     876:	2a00      	cmp	r2, #0
     878:	f6bf aef4 	bge.w	664 <__vsnprintf+0xd4>
/mnt/disk/raspbian-tee/optee_os/lib/libutils/ext/snprintk.c:313
     87c:	4252      	negs	r2, r2
     87e:	920d      	str	r2, [sp, #52]	; 0x34
/mnt/disk/raspbian-tee/optee_os/lib/libutils/ext/snprintk.c:311
     880:	461a      	mov	r2, r3
/mnt/disk/raspbian-tee/optee_os/lib/libutils/ext/snprintk.c:316
     882:	f046 0604 	orr.w	r6, r6, #4
     886:	e6fb      	b.n	680 <__vsnprintf+0xf0>
/mnt/disk/raspbian-tee/optee_os/lib/libutils/ext/snprintk.c:322
     888:	990b      	ldr	r1, [sp, #44]	; 0x2c
     88a:	9b0b      	ldr	r3, [sp, #44]	; 0x2c
     88c:	f891 9000 	ldrb.w	r9, [r1]
     890:	3301      	adds	r3, #1
     892:	f1b9 0f2a 	cmp.w	r9, #42	; 0x2a
     896:	d00e      	beq.n	8b6 <__vsnprintf+0x326>
     898:	f04f 0b00 	mov.w	fp, #0
/mnt/disk/raspbian-tee/optee_os/lib/libutils/ext/snprintk.c:330
     89c:	930b      	str	r3, [sp, #44]	; 0x2c
/mnt/disk/raspbian-tee/optee_os/lib/libutils/ext/snprintk.c:328
     89e:	f1a9 0330 	sub.w	r3, r9, #48	; 0x30
     8a2:	2b09      	cmp	r3, #9
     8a4:	f63f aebc 	bhi.w	620 <__vsnprintf+0x90>
/mnt/disk/raspbian-tee/optee_os/lib/libutils/ext/snprintk.c:329
     8a8:	210a      	movs	r1, #10
     8aa:	fb01 3b0b 	mla	fp, r1, fp, r3
/mnt/disk/raspbian-tee/optee_os/lib/libutils/ext/snprintk.c:330
     8ae:	9b0b      	ldr	r3, [sp, #44]	; 0x2c
     8b0:	f813 9b01 	ldrb.w	r9, [r3], #1
     8b4:	e7f2      	b.n	89c <__vsnprintf+0x30c>
/mnt/disk/raspbian-tee/optee_os/lib/libutils/ext/snprintk.c:324
     8b6:	6811      	ldr	r1, [r2, #0]
/mnt/disk/raspbian-tee/optee_os/lib/libutils/ext/snprintk.c:323
     8b8:	3204      	adds	r2, #4
/mnt/disk/raspbian-tee/optee_os/lib/libutils/ext/snprintk.c:322
     8ba:	930b      	str	r3, [sp, #44]	; 0x2c
/mnt/disk/raspbian-tee/optee_os/lib/libutils/ext/snprintk.c:324
     8bc:	ea41 7be1 	orr.w	fp, r1, r1, asr #31
     8c0:	e6de      	b.n	680 <__vsnprintf+0xf0>
/mnt/disk/raspbian-tee/optee_os/lib/libutils/ext/snprintk.c:340
     8c2:	f446 6680 	orr.w	r6, r6, #1024	; 0x400
     8c6:	e6db      	b.n	680 <__vsnprintf+0xf0>
/mnt/disk/raspbian-tee/optee_os/lib/libutils/ext/snprintk.c:358
     8c8:	9b0b      	ldr	r3, [sp, #44]	; 0x2c
     8ca:	781b      	ldrb	r3, [r3, #0]
     8cc:	2b6c      	cmp	r3, #108	; 0x6c
     8ce:	d105      	bne.n	8dc <__vsnprintf+0x34c>
/mnt/disk/raspbian-tee/optee_os/lib/libutils/ext/snprintk.c:359
     8d0:	9b0b      	ldr	r3, [sp, #44]	; 0x2c
     8d2:	3301      	adds	r3, #1
     8d4:	930b      	str	r3, [sp, #44]	; 0x2c
/mnt/disk/raspbian-tee/optee_os/lib/libutils/ext/snprintk.c:366
     8d6:	f046 0620 	orr.w	r6, r6, #32
     8da:	e6d1      	b.n	680 <__vsnprintf+0xf0>
/mnt/disk/raspbian-tee/optee_os/lib/libutils/ext/snprintk.c:362
     8dc:	f046 0610 	orr.w	r6, r6, #16
     8e0:	e6ce      	b.n	680 <__vsnprintf+0xf0>
/mnt/disk/raspbian-tee/optee_os/lib/libutils/ext/snprintk.c:369
     8e2:	f446 7680 	orr.w	r6, r6, #256	; 0x100
     8e6:	e6cb      	b.n	680 <__vsnprintf+0xf0>
/mnt/disk/raspbian-tee/optee_os/lib/libutils/ext/snprintk.c:372
     8e8:	f446 7600 	orr.w	r6, r6, #512	; 0x200
     8ec:	e6c8      	b.n	680 <__vsnprintf+0xf0>
/mnt/disk/raspbian-tee/optee_os/lib/libutils/ext/snprintk.c:375
     8ee:	ab1e      	add	r3, sp, #120	; 0x78
/mnt/disk/raspbian-tee/optee_os/lib/libutils/ext/snprintk.c:285
     8f0:	f04f 0a00 	mov.w	sl, #0
/mnt/disk/raspbian-tee/optee_os/lib/libutils/ext/snprintk.c:375
     8f4:	1d17      	adds	r7, r2, #4
/mnt/disk/raspbian-tee/optee_os/lib/libutils/ext/snprintk.c:376
     8f6:	f04f 0b01 	mov.w	fp, #1
/mnt/disk/raspbian-tee/optee_os/lib/libutils/ext/snprintk.c:375
     8fa:	6812      	ldr	r2, [r2, #0]
/mnt/disk/raspbian-tee/optee_os/lib/libutils/ext/snprintk.c:377
     8fc:	4650      	mov	r0, sl
/mnt/disk/raspbian-tee/optee_os/lib/libutils/ext/snprintk.c:375
     8fe:	f803 2d28 	strb.w	r2, [r3, #-40]!
/mnt/disk/raspbian-tee/optee_os/lib/libutils/ext/snprintk.c:565
     902:	4558      	cmp	r0, fp
     904:	4602      	mov	r2, r0
     906:	bfb8      	it	lt
     908:	465a      	movlt	r2, fp
/mnt/disk/raspbian-tee/optee_os/lib/libutils/ext/snprintk.c:566
     90a:	f1ba 0f00 	cmp.w	sl, #0
     90e:	f000 8165 	beq.w	bdc <__vsnprintf+0x64c>
/mnt/disk/raspbian-tee/optee_os/lib/libutils/ext/snprintk.c:567
     912:	3201      	adds	r2, #1
/mnt/disk/raspbian-tee/optee_os/lib/libutils/ext/snprintk.c:572
     914:	990d      	ldr	r1, [sp, #52]	; 0x34
     916:	9c0c      	ldr	r4, [sp, #48]	; 0x30
     918:	4291      	cmp	r1, r2
     91a:	bfb8      	it	lt
     91c:	4611      	movlt	r1, r2
     91e:	440c      	add	r4, r1
/mnt/disk/raspbian-tee/optee_os/lib/libutils/ext/snprintk.c:575
     920:	f240 4104 	movw	r1, #1028	; 0x404
/mnt/disk/raspbian-tee/optee_os/lib/libutils/ext/snprintk.c:572
     924:	940c      	str	r4, [sp, #48]	; 0x30
/mnt/disk/raspbian-tee/optee_os/lib/libutils/ext/snprintk.c:575
     926:	ea16 0401 	ands.w	r4, r6, r1
     92a:	d106      	bne.n	93a <__vsnprintf+0x3aa>
/mnt/disk/raspbian-tee/optee_os/lib/libutils/ext/snprintk.c:576
     92c:	990d      	ldr	r1, [sp, #52]	; 0x34
/mnt/disk/raspbian-tee/optee_os/lib/libutils/ext/snprintk.c:578
     92e:	f04f 0c20 	mov.w	ip, #32
/mnt/disk/raspbian-tee/optee_os/lib/libutils/ext/snprintk.c:576
     932:	1a89      	subs	r1, r1, r2
/mnt/disk/raspbian-tee/optee_os/lib/libutils/ext/snprintk.c:577
     934:	2900      	cmp	r1, #0
     936:	f300 8155 	bgt.w	be4 <__vsnprintf+0x654>
/mnt/disk/raspbian-tee/optee_os/lib/libutils/ext/snprintk.c:582
     93a:	f1ba 0f00 	cmp.w	sl, #0
     93e:	f000 8166 	beq.w	c0e <__vsnprintf+0x67e>
/mnt/disk/raspbian-tee/optee_os/lib/libutils/ext/snprintk.c:583
     942:	f1b8 0f00 	cmp.w	r8, #0
     946:	f040 8159 	bne.w	bfc <__vsnprintf+0x66c>
/mnt/disk/raspbian-tee/optee_os/lib/libutils/ext/snprintk.c:586
     94a:	f04f 0800 	mov.w	r8, #0
/mnt/disk/raspbian-tee/optee_os/lib/libutils/ext/snprintk.c:590
     94e:	f5b4 6f80 	cmp.w	r4, #1024	; 0x400
     952:	d105      	bne.n	960 <__vsnprintf+0x3d0>
/mnt/disk/raspbian-tee/optee_os/lib/libutils/ext/snprintk.c:591
     954:	990d      	ldr	r1, [sp, #52]	; 0x34
/mnt/disk/raspbian-tee/optee_os/lib/libutils/ext/snprintk.c:593
     956:	2430      	movs	r4, #48	; 0x30
/mnt/disk/raspbian-tee/optee_os/lib/libutils/ext/snprintk.c:591
     958:	1a89      	subs	r1, r1, r2
/mnt/disk/raspbian-tee/optee_os/lib/libutils/ext/snprintk.c:592
     95a:	2900      	cmp	r1, #0
     95c:	f300 8173 	bgt.w	c46 <__vsnprintf+0x6b6>
/mnt/disk/raspbian-tee/optee_os/lib/libutils/ext/snprintk.c:597
     960:	eba0 000b 	sub.w	r0, r0, fp
/mnt/disk/raspbian-tee/optee_os/lib/libutils/ext/snprintk.c:599
     964:	2130      	movs	r1, #48	; 0x30
/mnt/disk/raspbian-tee/optee_os/lib/libutils/ext/snprintk.c:598
     966:	2800      	cmp	r0, #0
     968:	f300 8179 	bgt.w	c5e <__vsnprintf+0x6ce>
     96c:	eb03 010b 	add.w	r1, r3, fp
/mnt/disk/raspbian-tee/optee_os/lib/libutils/ext/snprintk.c:602
     970:	428b      	cmp	r3, r1
     972:	f040 8180 	bne.w	c76 <__vsnprintf+0x6e6>
/mnt/disk/raspbian-tee/optee_os/lib/libutils/ext/snprintk.c:605
     976:	0773      	lsls	r3, r6, #29
     978:	f57f ae1b 	bpl.w	5b2 <__vsnprintf+0x22>
/mnt/disk/raspbian-tee/optee_os/lib/libutils/ext/snprintk.c:606
     97c:	9b0d      	ldr	r3, [sp, #52]	; 0x34
     97e:	1a9b      	subs	r3, r3, r2
/mnt/disk/raspbian-tee/optee_os/lib/libutils/ext/snprintk.c:608
     980:	2220      	movs	r2, #32
/mnt/disk/raspbian-tee/optee_os/lib/libutils/ext/snprintk.c:607
     982:	2b00      	cmp	r3, #0
     984:	f77f ae15 	ble.w	5b2 <__vsnprintf+0x22>
/mnt/disk/raspbian-tee/optee_os/lib/libutils/ext/snprintk.c:608
     988:	f1b8 0f00 	cmp.w	r8, #0
     98c:	d006      	beq.n	99c <__vsnprintf+0x40c>
     98e:	990e      	ldr	r1, [sp, #56]	; 0x38
     990:	4541      	cmp	r1, r8
     992:	d903      	bls.n	99c <__vsnprintf+0x40c>
     994:	f888 2000 	strb.w	r2, [r8]
     998:	f108 0801 	add.w	r8, r8, #1
     99c:	3b01      	subs	r3, #1
     99e:	e7f0      	b.n	982 <__vsnprintf+0x3f2>
/mnt/disk/raspbian-tee/optee_os/lib/libutils/ext/snprintk.c:380
     9a0:	f046 0610 	orr.w	r6, r6, #16
/mnt/disk/raspbian-tee/optee_os/lib/libutils/ext/snprintk.c:384
     9a4:	0631      	lsls	r1, r6, #24
     9a6:	d523      	bpl.n	9f0 <__vsnprintf+0x460>
     9a8:	3207      	adds	r2, #7
     9aa:	f022 0207 	bic.w	r2, r2, #7
     9ae:	f102 0708 	add.w	r7, r2, #8
     9b2:	e9d2 4500 	ldrd	r4, r5, [r2]
/mnt/disk/raspbian-tee/optee_os/lib/libutils/ext/snprintk.c:385
     9b6:	2c00      	cmp	r4, #0
     9b8:	f175 0300 	sbcs.w	r3, r5, #0
     9bc:	da04      	bge.n	9c8 <__vsnprintf+0x438>
/mnt/disk/raspbian-tee/optee_os/lib/libutils/ext/snprintk.c:386
     9be:	4264      	negs	r4, r4
/mnt/disk/raspbian-tee/optee_os/lib/libutils/ext/snprintk.c:387
     9c0:	f04f 0a2d 	mov.w	sl, #45	; 0x2d
/mnt/disk/raspbian-tee/optee_os/lib/libutils/ext/snprintk.c:386
     9c4:	eb65 0545 	sbc.w	r5, r5, r5, lsl #1
/mnt/disk/raspbian-tee/optee_os/lib/libutils/ext/snprintk.c:488
     9c8:	f1bb 3fff 	cmp.w	fp, #4294967295	; 0xffffffff
     9cc:	f040 80ec 	bne.w	ba8 <__vsnprintf+0x618>
/mnt/disk/raspbian-tee/optee_os/lib/libutils/ext/snprintk.c:508
     9d0:	f10d 0375 	add.w	r3, sp, #117	; 0x75
     9d4:	9311      	str	r3, [sp, #68]	; 0x44
     9d6:	9b11      	ldr	r3, [sp, #68]	; 0x44
/mnt/disk/raspbian-tee/optee_os/lib/libutils/ext/snprintk.c:516
     9d8:	2d00      	cmp	r5, #0
     9da:	bf08      	it	eq
     9dc:	2c0a      	cmpeq	r4, #10
     9de:	f103 33ff 	add.w	r3, r3, #4294967295	; 0xffffffff
     9e2:	f080 80e5 	bcs.w	bb0 <__vsnprintf+0x620>
/mnt/disk/raspbian-tee/optee_os/lib/libutils/ext/snprintk.c:520
     9e6:	9a11      	ldr	r2, [sp, #68]	; 0x44
     9e8:	3430      	adds	r4, #48	; 0x30
     9ea:	f802 4c01 	strb.w	r4, [r2, #-1]
     9ee:	e6ac      	b.n	74a <__vsnprintf+0x1ba>
/mnt/disk/raspbian-tee/optee_os/lib/libutils/ext/snprintk.c:384
     9f0:	05f3      	lsls	r3, r6, #23
     9f2:	d503      	bpl.n	9fc <__vsnprintf+0x46c>
     9f4:	1d17      	adds	r7, r2, #4
     9f6:	6814      	ldr	r4, [r2, #0]
     9f8:	17e5      	asrs	r5, r4, #31
     9fa:	e7dc      	b.n	9b6 <__vsnprintf+0x426>
     9fc:	05b7      	lsls	r7, r6, #22
     9fe:	d4f9      	bmi.n	9f4 <__vsnprintf+0x464>
     a00:	06b5      	lsls	r5, r6, #26
     a02:	d4d1      	bmi.n	9a8 <__vsnprintf+0x418>
     a04:	f016 0f10 	tst.w	r6, #16
     a08:	f102 0704 	add.w	r7, r2, #4
     a0c:	d1f3      	bne.n	9f6 <__vsnprintf+0x466>
     a0e:	f016 0f40 	tst.w	r6, #64	; 0x40
     a12:	6814      	ldr	r4, [r2, #0]
     a14:	d0f0      	beq.n	9f8 <__vsnprintf+0x468>
     a16:	b224      	sxth	r4, r4
     a18:	e7ee      	b.n	9f8 <__vsnprintf+0x468>
/mnt/disk/raspbian-tee/optee_os/lib/libutils/ext/snprintk.c:392
     a1a:	f016 0f80 	tst.w	r6, #128	; 0x80
     a1e:	f102 0704 	add.w	r7, r2, #4
     a22:	d006      	beq.n	a32 <__vsnprintf+0x4a2>
/mnt/disk/raspbian-tee/optee_os/lib/libutils/ext/snprintk.c:399
     a24:	6813      	ldr	r3, [r2, #0]
     a26:	9a0c      	ldr	r2, [sp, #48]	; 0x30
     a28:	4610      	mov	r0, r2
     a2a:	17d1      	asrs	r1, r2, #31
     a2c:	e9c3 0100 	strd	r0, r1, [r3]
     a30:	e5bf      	b.n	5b2 <__vsnprintf+0x22>
/mnt/disk/raspbian-tee/optee_os/lib/libutils/ext/snprintk.c:394
     a32:	05f4      	lsls	r4, r6, #23
     a34:	d503      	bpl.n	a3e <__vsnprintf+0x4ae>
/mnt/disk/raspbian-tee/optee_os/lib/libutils/ext/snprintk.c:405
     a36:	6813      	ldr	r3, [r2, #0]
     a38:	9a0c      	ldr	r2, [sp, #48]	; 0x30
     a3a:	601a      	str	r2, [r3, #0]
     a3c:	e5b9      	b.n	5b2 <__vsnprintf+0x22>
/mnt/disk/raspbian-tee/optee_os/lib/libutils/ext/snprintk.c:396
     a3e:	05b0      	lsls	r0, r6, #22
     a40:	d4f9      	bmi.n	a36 <__vsnprintf+0x4a6>
/mnt/disk/raspbian-tee/optee_os/lib/libutils/ext/snprintk.c:398
     a42:	06b1      	lsls	r1, r6, #26
     a44:	d4ee      	bmi.n	a24 <__vsnprintf+0x494>
/mnt/disk/raspbian-tee/optee_os/lib/libutils/ext/snprintk.c:400
     a46:	06f3      	lsls	r3, r6, #27
     a48:	d4f5      	bmi.n	a36 <__vsnprintf+0x4a6>
/mnt/disk/raspbian-tee/optee_os/lib/libutils/ext/snprintk.c:402
     a4a:	0676      	lsls	r6, r6, #25
     a4c:	d5f3      	bpl.n	a36 <__vsnprintf+0x4a6>
/mnt/disk/raspbian-tee/optee_os/lib/libutils/ext/snprintk.c:403
     a4e:	6813      	ldr	r3, [r2, #0]
     a50:	f8bd 2030 	ldrh.w	r2, [sp, #48]	; 0x30
     a54:	801a      	strh	r2, [r3, #0]
     a56:	e5ac      	b.n	5b2 <__vsnprintf+0x22>
/mnt/disk/raspbian-tee/optee_os/lib/libutils/ext/snprintk.c:411
     a58:	05f4      	lsls	r4, r6, #23
     a5a:	d502      	bpl.n	a62 <__vsnprintf+0x4d2>
     a5c:	1d17      	adds	r7, r2, #4
     a5e:	6814      	ldr	r4, [r2, #0]
     a60:	e00c      	b.n	a7c <__vsnprintf+0x4ec>
     a62:	05b0      	lsls	r0, r6, #22
     a64:	d4fa      	bmi.n	a5c <__vsnprintf+0x4cc>
     a66:	06b1      	lsls	r1, r6, #26
     a68:	f53f ae36 	bmi.w	6d8 <__vsnprintf+0x148>
     a6c:	f016 0f10 	tst.w	r6, #16
     a70:	f102 0704 	add.w	r7, r2, #4
     a74:	d1f3      	bne.n	a5e <__vsnprintf+0x4ce>
     a76:	0673      	lsls	r3, r6, #25
     a78:	d5f1      	bpl.n	a5e <__vsnprintf+0x4ce>
     a7a:	8814      	ldrh	r4, [r2, #0]
     a7c:	2500      	movs	r5, #0
     a7e:	e632      	b.n	6e6 <__vsnprintf+0x156>
/mnt/disk/raspbian-tee/optee_os/lib/libutils/ext/snprintk.c:415
     a80:	9b13      	ldr	r3, [sp, #76]	; 0x4c
     a82:	2b00      	cmp	r3, #0
     a84:	d02d      	beq.n	ae2 <__vsnprintf+0x552>
     a86:	9b0b      	ldr	r3, [sp, #44]	; 0x2c
     a88:	781b      	ldrb	r3, [r3, #0]
     a8a:	2b55      	cmp	r3, #85	; 0x55
     a8c:	d129      	bne.n	ae2 <__vsnprintf+0x552>
     a8e:	9b0b      	ldr	r3, [sp, #44]	; 0x2c
     a90:	785b      	ldrb	r3, [r3, #1]
     a92:	2b6c      	cmp	r3, #108	; 0x6c
     a94:	d125      	bne.n	ae2 <__vsnprintf+0x552>
/mnt/disk/raspbian-tee/optee_os/lib/libutils/ext/snprintk.c:420
     a96:	9b0b      	ldr	r3, [sp, #44]	; 0x2c
/mnt/disk/raspbian-tee/optee_os/lib/libutils/ext/snprintk.c:421
     a98:	1d17      	adds	r7, r2, #4
uuid2str():
/mnt/disk/raspbian-tee/optee_os/lib/libutils/ext/snprintk.c:223
     a9a:	ac14      	add	r4, sp, #80	; 0x50
     a9c:	2125      	movs	r1, #37	; 0x25
kprintf():
/mnt/disk/raspbian-tee/optee_os/lib/libutils/ext/snprintk.c:420
     a9e:	3302      	adds	r3, #2
     aa0:	930b      	str	r3, [sp, #44]	; 0x2c
/mnt/disk/raspbian-tee/optee_os/lib/libutils/ext/snprintk.c:421
     aa2:	6813      	ldr	r3, [r2, #0]
uuid2str():
/mnt/disk/raspbian-tee/optee_os/lib/libutils/ext/snprintk.c:223
     aa4:	4620      	mov	r0, r4
     aa6:	7bda      	ldrb	r2, [r3, #15]
     aa8:	9209      	str	r2, [sp, #36]	; 0x24
     aaa:	7b9a      	ldrb	r2, [r3, #14]
     aac:	9208      	str	r2, [sp, #32]
     aae:	7b5a      	ldrb	r2, [r3, #13]
     ab0:	9207      	str	r2, [sp, #28]
     ab2:	7b1a      	ldrb	r2, [r3, #12]
     ab4:	9206      	str	r2, [sp, #24]
     ab6:	7ada      	ldrb	r2, [r3, #11]
     ab8:	9205      	str	r2, [sp, #20]
     aba:	7a9a      	ldrb	r2, [r3, #10]
     abc:	9204      	str	r2, [sp, #16]
     abe:	7a5a      	ldrb	r2, [r3, #9]
     ac0:	9203      	str	r2, [sp, #12]
     ac2:	7a1a      	ldrb	r2, [r3, #8]
     ac4:	9202      	str	r2, [sp, #8]
     ac6:	88da      	ldrh	r2, [r3, #6]
     ac8:	9201      	str	r2, [sp, #4]
     aca:	889a      	ldrh	r2, [r3, #4]
     acc:	9200      	str	r2, [sp, #0]
     ace:	4a7a      	ldr	r2, [pc, #488]	; (cb8 <__vsnprintf+0x728>)
     ad0:	681b      	ldr	r3, [r3, #0]
     ad2:	447a      	add	r2, pc
     ad4:	f000 f8fd 	bl	cd2 <snprintk>
     ad8:	4683      	mov	fp, r0
kprintf():
/mnt/disk/raspbian-tee/optee_os/lib/libutils/ext/snprintk.c:285
     ada:	2000      	movs	r0, #0
/mnt/disk/raspbian-tee/optee_os/lib/libutils/ext/snprintk.c:423
     adc:	4623      	mov	r3, r4
/mnt/disk/raspbian-tee/optee_os/lib/libutils/ext/snprintk.c:424
     ade:	4682      	mov	sl, r0
     ae0:	e70f      	b.n	902 <__vsnprintf+0x372>
/mnt/disk/raspbian-tee/optee_os/lib/libutils/ext/snprintk.c:437
     ae2:	4b76      	ldr	r3, [pc, #472]	; (cbc <__vsnprintf+0x72c>)
/mnt/disk/raspbian-tee/optee_os/lib/libutils/ext/snprintk.c:435
     ae4:	1d17      	adds	r7, r2, #4
     ae6:	6814      	ldr	r4, [r2, #0]
     ae8:	2500      	movs	r5, #0
/mnt/disk/raspbian-tee/optee_os/lib/libutils/ext/snprintk.c:437
     aea:	447b      	add	r3, pc
/mnt/disk/raspbian-tee/optee_os/lib/libutils/ext/snprintk.c:438
     aec:	f046 0602 	orr.w	r6, r6, #2
/mnt/disk/raspbian-tee/optee_os/lib/libutils/ext/snprintk.c:439
     af0:	f04f 0978 	mov.w	r9, #120	; 0x78
/mnt/disk/raspbian-tee/optee_os/lib/libutils/ext/snprintk.c:437
     af4:	3311      	adds	r3, #17
     af6:	930f      	str	r3, [sp, #60]	; 0x3c
/mnt/disk/raspbian-tee/optee_os/lib/libutils/ext/snprintk.c:488
     af8:	f1bb 3fff 	cmp.w	fp, #4294967295	; 0xffffffff
     afc:	f47f aeaa 	bne.w	854 <__vsnprintf+0x2c4>
     b00:	f04f 0a00 	mov.w	sl, #0
     b04:	f10d 0375 	add.w	r3, sp, #117	; 0x75
/mnt/disk/raspbian-tee/optee_os/lib/libutils/ext/snprintk.c:525
     b08:	f004 020f 	and.w	r2, r4, #15
     b0c:	990f      	ldr	r1, [sp, #60]	; 0x3c
     b0e:	5c8a      	ldrb	r2, [r1, r2]
/mnt/disk/raspbian-tee/optee_os/lib/libutils/ext/snprintk.c:526
     b10:	0929      	lsrs	r1, r5, #4
/mnt/disk/raspbian-tee/optee_os/lib/libutils/ext/snprintk.c:525
     b12:	f803 2d01 	strb.w	r2, [r3, #-1]!
/mnt/disk/raspbian-tee/optee_os/lib/libutils/ext/snprintk.c:526
     b16:	0922      	lsrs	r2, r4, #4
     b18:	ea42 7205 	orr.w	r2, r2, r5, lsl #28
     b1c:	460d      	mov	r5, r1
     b1e:	4614      	mov	r4, r2
/mnt/disk/raspbian-tee/optee_os/lib/libutils/ext/snprintk.c:527
     b20:	ea54 0205 	orrs.w	r2, r4, r5
     b24:	d1f0      	bne.n	b08 <__vsnprintf+0x578>
     b26:	e610      	b.n	74a <__vsnprintf+0x1ba>
/mnt/disk/raspbian-tee/optee_os/lib/libutils/ext/snprintk.c:460
     b28:	4618      	mov	r0, r3
     b2a:	9311      	str	r3, [sp, #68]	; 0x44
     b2c:	f005 fc9e 	bl	646c <strlen>
     b30:	4683      	mov	fp, r0
/mnt/disk/raspbian-tee/optee_os/lib/libutils/ext/snprintk.c:285
     b32:	2000      	movs	r0, #0
     b34:	9b11      	ldr	r3, [sp, #68]	; 0x44
/mnt/disk/raspbian-tee/optee_os/lib/libutils/ext/snprintk.c:461
     b36:	4682      	mov	sl, r0
     b38:	e6e3      	b.n	902 <__vsnprintf+0x372>
/mnt/disk/raspbian-tee/optee_os/lib/libutils/ext/snprintk.c:464
     b3a:	f046 0610 	orr.w	r6, r6, #16
     b3e:	e660      	b.n	802 <__vsnprintf+0x272>
/mnt/disk/raspbian-tee/optee_os/lib/libutils/ext/snprintk.c:467
     b40:	f416 7a80 	ands.w	sl, r6, #256	; 0x100
     b44:	d003      	beq.n	b4e <__vsnprintf+0x5be>
     b46:	6814      	ldr	r4, [r2, #0]
     b48:	1d17      	adds	r7, r2, #4
     b4a:	2500      	movs	r5, #0
     b4c:	e664      	b.n	818 <__vsnprintf+0x288>
     b4e:	f416 7300 	ands.w	r3, r6, #512	; 0x200
     b52:	d003      	beq.n	b5c <__vsnprintf+0x5cc>
     b54:	1d17      	adds	r7, r2, #4
     b56:	6814      	ldr	r4, [r2, #0]
     b58:	2500      	movs	r5, #0
     b5a:	e735      	b.n	9c8 <__vsnprintf+0x438>
     b5c:	f016 0a20 	ands.w	sl, r6, #32
     b60:	f47f ae53 	bne.w	80a <__vsnprintf+0x27a>
     b64:	f016 0310 	ands.w	r3, r6, #16
     b68:	f102 0704 	add.w	r7, r2, #4
     b6c:	d1f3      	bne.n	b56 <__vsnprintf+0x5c6>
     b6e:	f016 0a40 	ands.w	sl, r6, #64	; 0x40
     b72:	d0f0      	beq.n	b56 <__vsnprintf+0x5c6>
     b74:	8814      	ldrh	r4, [r2, #0]
     b76:	e7e8      	b.n	b4a <__vsnprintf+0x5ba>
/mnt/disk/raspbian-tee/optee_os/lib/libutils/ext/snprintk.c:474
     b78:	4b51      	ldr	r3, [pc, #324]	; (cc0 <__vsnprintf+0x730>)
     b7a:	447b      	add	r3, pc
     b7c:	3311      	adds	r3, #17
     b7e:	e651      	b.n	824 <__vsnprintf+0x294>
/mnt/disk/raspbian-tee/optee_os/lib/libutils/ext/snprintk.c:475
     b80:	05f5      	lsls	r5, r6, #23
     b82:	d502      	bpl.n	b8a <__vsnprintf+0x5fa>
     b84:	1d17      	adds	r7, r2, #4
     b86:	6814      	ldr	r4, [r2, #0]
     b88:	e00c      	b.n	ba4 <__vsnprintf+0x614>
     b8a:	05b4      	lsls	r4, r6, #22
     b8c:	d4fa      	bmi.n	b84 <__vsnprintf+0x5f4>
     b8e:	06b0      	lsls	r0, r6, #26
     b90:	f53f ae4c 	bmi.w	82c <__vsnprintf+0x29c>
     b94:	f016 0f10 	tst.w	r6, #16
     b98:	f102 0704 	add.w	r7, r2, #4
     b9c:	d1f3      	bne.n	b86 <__vsnprintf+0x5f6>
     b9e:	0671      	lsls	r1, r6, #25
     ba0:	d5f1      	bpl.n	b86 <__vsnprintf+0x5f6>
     ba2:	8814      	ldrh	r4, [r2, #0]
     ba4:	2500      	movs	r5, #0
     ba6:	e648      	b.n	83a <__vsnprintf+0x2aa>
/mnt/disk/raspbian-tee/optee_os/lib/libutils/ext/snprintk.c:488
     ba8:	2301      	movs	r3, #1
     baa:	e5a2      	b.n	6f2 <__vsnprintf+0x162>
/mnt/disk/raspbian-tee/optee_os/lib/libutils/ext/snprintk.c:508
     bac:	461a      	mov	r2, r3
     bae:	e5b3      	b.n	718 <__vsnprintf+0x188>
/mnt/disk/raspbian-tee/optee_os/lib/libutils/ext/snprintk.c:517
     bb0:	9311      	str	r3, [sp, #68]	; 0x44
     bb2:	4620      	mov	r0, r4
     bb4:	4629      	mov	r1, r5
     bb6:	220a      	movs	r2, #10
     bb8:	2300      	movs	r3, #0
     bba:	f000 e8a4 	blx	d04 <__aeabi_uldivmod>
     bbe:	9b11      	ldr	r3, [sp, #68]	; 0x44
     bc0:	3230      	adds	r2, #48	; 0x30
/mnt/disk/raspbian-tee/optee_os/lib/libutils/ext/snprintk.c:518
     bc2:	4620      	mov	r0, r4
     bc4:	4629      	mov	r1, r5
/mnt/disk/raspbian-tee/optee_os/lib/libutils/ext/snprintk.c:517
     bc6:	701a      	strb	r2, [r3, #0]
/mnt/disk/raspbian-tee/optee_os/lib/libutils/ext/snprintk.c:518
     bc8:	220a      	movs	r2, #10
     bca:	2300      	movs	r3, #0
     bcc:	f000 e89a 	blx	d04 <__aeabi_uldivmod>
     bd0:	4604      	mov	r4, r0
     bd2:	460d      	mov	r5, r1
     bd4:	e6ff      	b.n	9d6 <__vsnprintf+0x446>
/mnt/disk/raspbian-tee/optee_os/lib/libutils/ext/snprintk.c:496
     bd6:	f10d 0375 	add.w	r3, sp, #117	; 0x75
     bda:	e5b6      	b.n	74a <__vsnprintf+0x1ba>
/mnt/disk/raspbian-tee/optee_os/lib/libutils/ext/snprintk.c:568
     bdc:	07b4      	lsls	r4, r6, #30
/mnt/disk/raspbian-tee/optee_os/lib/libutils/ext/snprintk.c:569
     bde:	bf48      	it	mi
     be0:	3202      	addmi	r2, #2
     be2:	e697      	b.n	914 <__vsnprintf+0x384>
/mnt/disk/raspbian-tee/optee_os/lib/libutils/ext/snprintk.c:578
     be4:	f1b8 0f00 	cmp.w	r8, #0
     be8:	d006      	beq.n	bf8 <__vsnprintf+0x668>
     bea:	9d0e      	ldr	r5, [sp, #56]	; 0x38
     bec:	4545      	cmp	r5, r8
     bee:	d903      	bls.n	bf8 <__vsnprintf+0x668>
     bf0:	f888 c000 	strb.w	ip, [r8]
     bf4:	f108 0801 	add.w	r8, r8, #1
     bf8:	3901      	subs	r1, #1
     bfa:	e69b      	b.n	934 <__vsnprintf+0x3a4>
/mnt/disk/raspbian-tee/optee_os/lib/libutils/ext/snprintk.c:583
     bfc:	990e      	ldr	r1, [sp, #56]	; 0x38
     bfe:	4541      	cmp	r1, r8
     c00:	f67f aea5 	bls.w	94e <__vsnprintf+0x3be>
     c04:	f888 a000 	strb.w	sl, [r8]
     c08:	f108 0801 	add.w	r8, r8, #1
     c0c:	e69f      	b.n	94e <__vsnprintf+0x3be>
/mnt/disk/raspbian-tee/optee_os/lib/libutils/ext/snprintk.c:584
     c0e:	07b1      	lsls	r1, r6, #30
     c10:	f57f ae9d 	bpl.w	94e <__vsnprintf+0x3be>
/mnt/disk/raspbian-tee/optee_os/lib/libutils/ext/snprintk.c:585
     c14:	f1b8 0f00 	cmp.w	r8, #0
     c18:	f43f ae97 	beq.w	94a <__vsnprintf+0x3ba>
     c1c:	990e      	ldr	r1, [sp, #56]	; 0x38
     c1e:	4541      	cmp	r1, r8
     c20:	f67f ae95 	bls.w	94e <__vsnprintf+0x3be>
     c24:	2130      	movs	r1, #48	; 0x30
     c26:	f888 1000 	strb.w	r1, [r8]
/mnt/disk/raspbian-tee/optee_os/lib/libutils/ext/snprintk.c:586
     c2a:	f118 0101 	adds.w	r1, r8, #1
     c2e:	f43f ae8c 	beq.w	94a <__vsnprintf+0x3ba>
     c32:	9d0e      	ldr	r5, [sp, #56]	; 0x38
     c34:	428d      	cmp	r5, r1
     c36:	d904      	bls.n	c42 <__vsnprintf+0x6b2>
     c38:	f888 9001 	strb.w	r9, [r8, #1]
     c3c:	f108 0802 	add.w	r8, r8, #2
     c40:	e685      	b.n	94e <__vsnprintf+0x3be>
     c42:	4688      	mov	r8, r1
     c44:	e683      	b.n	94e <__vsnprintf+0x3be>
/mnt/disk/raspbian-tee/optee_os/lib/libutils/ext/snprintk.c:593
     c46:	f1b8 0f00 	cmp.w	r8, #0
     c4a:	d006      	beq.n	c5a <__vsnprintf+0x6ca>
     c4c:	9d0e      	ldr	r5, [sp, #56]	; 0x38
     c4e:	4545      	cmp	r5, r8
     c50:	d903      	bls.n	c5a <__vsnprintf+0x6ca>
     c52:	f888 4000 	strb.w	r4, [r8]
     c56:	f108 0801 	add.w	r8, r8, #1
     c5a:	3901      	subs	r1, #1
     c5c:	e67d      	b.n	95a <__vsnprintf+0x3ca>
/mnt/disk/raspbian-tee/optee_os/lib/libutils/ext/snprintk.c:599
     c5e:	f1b8 0f00 	cmp.w	r8, #0
     c62:	d006      	beq.n	c72 <__vsnprintf+0x6e2>
     c64:	9c0e      	ldr	r4, [sp, #56]	; 0x38
     c66:	4544      	cmp	r4, r8
     c68:	d903      	bls.n	c72 <__vsnprintf+0x6e2>
     c6a:	f888 1000 	strb.w	r1, [r8]
     c6e:	f108 0801 	add.w	r8, r8, #1
     c72:	3801      	subs	r0, #1
     c74:	e677      	b.n	966 <__vsnprintf+0x3d6>
/mnt/disk/raspbian-tee/optee_os/lib/libutils/ext/snprintk.c:603
     c76:	f1b8 0f00 	cmp.w	r8, #0
     c7a:	d007      	beq.n	c8c <__vsnprintf+0x6fc>
     c7c:	980e      	ldr	r0, [sp, #56]	; 0x38
     c7e:	4540      	cmp	r0, r8
     c80:	d904      	bls.n	c8c <__vsnprintf+0x6fc>
     c82:	7818      	ldrb	r0, [r3, #0]
     c84:	f108 0801 	add.w	r8, r8, #1
     c88:	f808 0c01 	strb.w	r0, [r8, #-1]
/mnt/disk/raspbian-tee/optee_os/lib/libutils/ext/snprintk.c:602
     c8c:	3301      	adds	r3, #1
     c8e:	e66f      	b.n	970 <__vsnprintf+0x3e0>
__vsnprintf():
/mnt/disk/raspbian-tee/optee_os/lib/libutils/ext/snprintk.c:148
     c90:	990c      	ldr	r1, [sp, #48]	; 0x30
     c92:	5453      	strb	r3, [r2, r1]
/mnt/disk/raspbian-tee/optee_os/lib/libutils/ext/snprintk.c:150
     c94:	e4a1      	b.n	5da <__vsnprintf+0x4a>
kprintf():
/mnt/disk/raspbian-tee/optee_os/lib/libutils/ext/snprintk.c:489
     c96:	f426 6680 	bic.w	r6, r6, #1024	; 0x400
/mnt/disk/raspbian-tee/optee_os/lib/libutils/ext/snprintk.c:482
     c9a:	f04f 0a00 	mov.w	sl, #0
/mnt/disk/raspbian-tee/optee_os/lib/libutils/ext/snprintk.c:476
     c9e:	2302      	movs	r3, #2
     ca0:	e52c      	b.n	6fc <__vsnprintf+0x16c>
/mnt/disk/raspbian-tee/optee_os/lib/libutils/ext/snprintk.c:488
     ca2:	f1bb 3fff 	cmp.w	fp, #4294967295	; 0xffffffff
     ca6:	d1f6      	bne.n	c96 <__vsnprintf+0x706>
     ca8:	f04f 3bff 	mov.w	fp, #4294967295	; 0xffffffff
     cac:	e728      	b.n	b00 <__vsnprintf+0x570>
     cae:	bf00      	nop
     cb0:	00006451 	.word	0x00006451
     cb4:	000063d1 	.word	0x000063d1
     cb8:	0000614a 	.word	0x0000614a
     cbc:	00006109 	.word	0x00006109
     cc0:	00006079 	.word	0x00006079

00000cc4 <vsnprintk>:
vsnprintk():
/mnt/disk/raspbian-tee/optee_os/lib/libutils/ext/snprintk.c:129
     cc4:	b513      	push	{r0, r1, r4, lr}
/mnt/disk/raspbian-tee/optee_os/lib/libutils/ext/snprintk.c:130
     cc6:	2401      	movs	r4, #1
     cc8:	9400      	str	r4, [sp, #0]
     cca:	f7ff fc61 	bl	590 <__vsnprintf>
/mnt/disk/raspbian-tee/optee_os/lib/libutils/ext/snprintk.c:131
     cce:	b002      	add	sp, #8
     cd0:	bd10      	pop	{r4, pc}

00000cd2 <snprintk>:
snprintk():
/mnt/disk/raspbian-tee/optee_os/lib/libutils/ext/snprintk.c:112
     cd2:	b40c      	push	{r2, r3}
     cd4:	b507      	push	{r0, r1, r2, lr}
     cd6:	ab04      	add	r3, sp, #16
     cd8:	f853 2b04 	ldr.w	r2, [r3], #4
/mnt/disk/raspbian-tee/optee_os/lib/libutils/ext/snprintk.c:116
     cdc:	9301      	str	r3, [sp, #4]
/mnt/disk/raspbian-tee/optee_os/lib/libutils/ext/snprintk.c:117
     cde:	f7ff fff1 	bl	cc4 <vsnprintk>
/mnt/disk/raspbian-tee/optee_os/lib/libutils/ext/snprintk.c:121
     ce2:	b003      	add	sp, #12
     ce4:	f85d eb04 	ldr.w	lr, [sp], #4
     ce8:	b002      	add	sp, #8
     cea:	4770      	bx	lr

00000cec <__aeabi_ldivmod>:
__aeabi_ldivmod():
/mnt/disk/raspbian-tee/optee_os/lib/libutils/isoc/arch/arm/arm32_aeabi_ldivmod_a32.S:24
     cec:	e92d5000 	push	{ip, lr}
/mnt/disk/raspbian-tee/optee_os/lib/libutils/isoc/arch/arm/arm32_aeabi_ldivmod_a32.S:26
     cf0:	e92d000f 	push	{r0, r1, r2, r3}
/mnt/disk/raspbian-tee/optee_os/lib/libutils/isoc/arch/arm/arm32_aeabi_ldivmod_a32.S:28
     cf4:	e1a0000d 	mov	r0, sp
/mnt/disk/raspbian-tee/optee_os/lib/libutils/isoc/arch/arm/arm32_aeabi_ldivmod_a32.S:29
     cf8:	fa0015fc 	blx	64f0 <__l_divmod>
/mnt/disk/raspbian-tee/optee_os/lib/libutils/isoc/arch/arm/arm32_aeabi_ldivmod_a32.S:30
     cfc:	e8bd000f 	pop	{r0, r1, r2, r3}
/mnt/disk/raspbian-tee/optee_os/lib/libutils/isoc/arch/arm/arm32_aeabi_ldivmod_a32.S:31
     d00:	e8bd9000 	pop	{ip, pc}

00000d04 <__aeabi_uldivmod>:
__aeabi_uldivmod():
/mnt/disk/raspbian-tee/optee_os/lib/libutils/isoc/arch/arm/arm32_aeabi_ldivmod_a32.S:42
     d04:	e92d5000 	push	{ip, lr}
/mnt/disk/raspbian-tee/optee_os/lib/libutils/isoc/arch/arm/arm32_aeabi_ldivmod_a32.S:44
     d08:	e92d000f 	push	{r0, r1, r2, r3}
/mnt/disk/raspbian-tee/optee_os/lib/libutils/isoc/arch/arm/arm32_aeabi_ldivmod_a32.S:46
     d0c:	e1a0000d 	mov	r0, sp
/mnt/disk/raspbian-tee/optee_os/lib/libutils/isoc/arch/arm/arm32_aeabi_ldivmod_a32.S:47
     d10:	fa0015d9 	blx	647c <__ul_divmod>
/mnt/disk/raspbian-tee/optee_os/lib/libutils/isoc/arch/arm/arm32_aeabi_ldivmod_a32.S:48
     d14:	e8bd000f 	pop	{r0, r1, r2, r3}
/mnt/disk/raspbian-tee/optee_os/lib/libutils/isoc/arch/arm/arm32_aeabi_ldivmod_a32.S:49
     d18:	e8bd9000 	pop	{ip, pc}

00000d1c <trace_ext_puts>:
trace_ext_puts():
/mnt/disk/raspbian-tee/optee_os/lib/libutee/trace_ext.c:17
     d1c:	b510      	push	{r4, lr}
     d1e:	4604      	mov	r4, r0
/mnt/disk/raspbian-tee/optee_os/lib/libutee/trace_ext.c:18
     d20:	f005 fba4 	bl	646c <strlen>
     d24:	4601      	mov	r1, r0
     d26:	4620      	mov	r0, r4
/mnt/disk/raspbian-tee/optee_os/lib/libutee/trace_ext.c:19
     d28:	e8bd 4010 	ldmia.w	sp!, {r4, lr}
/mnt/disk/raspbian-tee/optee_os/lib/libutee/trace_ext.c:18
     d2c:	f005 bcc4 	b.w	66b8 <__utee_log_from_thumb>

00000d30 <trace_ext_get_thread_id>:
trace_ext_get_thread_id():
/mnt/disk/raspbian-tee/optee_os/lib/libutee/trace_ext.c:24
     d30:	f04f 30ff 	mov.w	r0, #4294967295	; 0xffffffff
     d34:	4770      	bx	lr

00000d36 <printf>:
printf():
/mnt/disk/raspbian-tee/optee_os/lib/libutee/trace_ext.c:32
     d36:	b40f      	push	{r0, r1, r2, r3}
     d38:	b530      	push	{r4, r5, lr}
     d3a:	b0c3      	sub	sp, #268	; 0x10c
/mnt/disk/raspbian-tee/optee_os/lib/libutee/trace_ext.c:37
     d3c:	f7ff fb00 	bl	340 <trace_get_level>
     d40:	2800      	cmp	r0, #0
     d42:	dd13      	ble.n	d6c <printf+0x36>
/mnt/disk/raspbian-tee/optee_os/lib/libutee/trace_ext.c:41
     d44:	ad02      	add	r5, sp, #8
/mnt/disk/raspbian-tee/optee_os/lib/libutee/trace_ext.c:40
     d46:	ab47      	add	r3, sp, #284	; 0x11c
/mnt/disk/raspbian-tee/optee_os/lib/libutee/trace_ext.c:41
     d48:	9a46      	ldr	r2, [sp, #280]	; 0x118
     d4a:	f44f 7180 	mov.w	r1, #256	; 0x100
     d4e:	4628      	mov	r0, r5
/mnt/disk/raspbian-tee/optee_os/lib/libutee/trace_ext.c:40
     d50:	9301      	str	r3, [sp, #4]
/mnt/disk/raspbian-tee/optee_os/lib/libutee/trace_ext.c:41
     d52:	f005 fc54 	bl	65fe <vsnprintf>
/mnt/disk/raspbian-tee/optee_os/lib/libutee/trace_ext.c:44
     d56:	1e04      	subs	r4, r0, #0
     d58:	db02      	blt.n	d60 <printf+0x2a>
/mnt/disk/raspbian-tee/optee_os/lib/libutee/trace_ext.c:47
     d5a:	4628      	mov	r0, r5
     d5c:	f7ff ffde 	bl	d1c <trace_ext_puts>
/mnt/disk/raspbian-tee/optee_os/lib/libutee/trace_ext.c:50
     d60:	4620      	mov	r0, r4
     d62:	b043      	add	sp, #268	; 0x10c
     d64:	e8bd 4030 	ldmia.w	sp!, {r4, r5, lr}
     d68:	b004      	add	sp, #16
     d6a:	4770      	bx	lr
/mnt/disk/raspbian-tee/optee_os/lib/libutee/trace_ext.c:38
     d6c:	2400      	movs	r4, #0
     d6e:	e7f7      	b.n	d60 <printf+0x2a>

00000d70 <puts>:
puts():
/mnt/disk/raspbian-tee/optee_os/lib/libutee/trace_ext.c:53
     d70:	b510      	push	{r4, lr}
     d72:	4604      	mov	r4, r0
/mnt/disk/raspbian-tee/optee_os/lib/libutee/trace_ext.c:54
     d74:	f7ff fae4 	bl	340 <trace_get_level>
     d78:	2800      	cmp	r0, #0
     d7a:	dd06      	ble.n	d8a <puts+0x1a>
/mnt/disk/raspbian-tee/optee_os/lib/libutee/trace_ext.c:55
     d7c:	4620      	mov	r0, r4
     d7e:	f7ff ffcd 	bl	d1c <trace_ext_puts>
/mnt/disk/raspbian-tee/optee_os/lib/libutee/trace_ext.c:56
     d82:	4803      	ldr	r0, [pc, #12]	; (d90 <puts+0x20>)
     d84:	4478      	add	r0, pc
     d86:	f7ff ffc9 	bl	d1c <trace_ext_puts>
/mnt/disk/raspbian-tee/optee_os/lib/libutee/trace_ext.c:59
     d8a:	2001      	movs	r0, #1
     d8c:	bd10      	pop	{r4, pc}
     d8e:	bf00      	nop
     d90:	0000653a 	.word	0x0000653a

00000d94 <putchar>:
putchar():
/mnt/disk/raspbian-tee/optee_os/lib/libutee/trace_ext.c:62
     d94:	b513      	push	{r0, r1, r4, lr}
/mnt/disk/raspbian-tee/optee_os/lib/libutee/trace_ext.c:63
     d96:	2300      	movs	r3, #0
/mnt/disk/raspbian-tee/optee_os/lib/libutee/trace_ext.c:62
     d98:	4604      	mov	r4, r0
/mnt/disk/raspbian-tee/optee_os/lib/libutee/trace_ext.c:63
     d9a:	f88d 0004 	strb.w	r0, [sp, #4]
     d9e:	f88d 3005 	strb.w	r3, [sp, #5]
/mnt/disk/raspbian-tee/optee_os/lib/libutee/trace_ext.c:65
     da2:	f7ff facd 	bl	340 <trace_get_level>
     da6:	2800      	cmp	r0, #0
     da8:	dd02      	ble.n	db0 <putchar+0x1c>
/mnt/disk/raspbian-tee/optee_os/lib/libutee/trace_ext.c:66
     daa:	a801      	add	r0, sp, #4
     dac:	f7ff ffb6 	bl	d1c <trace_ext_puts>
/mnt/disk/raspbian-tee/optee_os/lib/libutee/trace_ext.c:73
     db0:	b2e0      	uxtb	r0, r4
     db2:	b002      	add	sp, #8
     db4:	bd10      	pop	{r4, pc}
     db6:	bf00      	nop

00000db8 <__utee_from_param>:
__utee_from_param():
/mnt/disk/raspbian-tee/optee_os/lib/libutee/tee_api.c:23
     db8:	2300      	movs	r3, #0
/mnt/disk/raspbian-tee/optee_os/lib/libutee/tee_api.c:20
     dba:	b5f0      	push	{r4, r5, r6, r7, lr}
     dbc:	4694      	mov	ip, r2
     dbe:	4615      	mov	r5, r2
/mnt/disk/raspbian-tee/optee_os/lib/libutee/tee_api.c:39
     dc0:	2600      	movs	r6, #0
     dc2:	2700      	movs	r7, #0
/mnt/disk/raspbian-tee/optee_os/lib/libutee/tee_api.c:35
     dc4:	461a      	mov	r2, r3
/mnt/disk/raspbian-tee/optee_os/lib/libutee/tee_api.c:23
     dc6:	e880 000a 	stmia.w	r0, {r1, r3}
/mnt/disk/raspbian-tee/optee_os/lib/libutee/tee_api.c:25
     dca:	fa21 f403 	lsr.w	r4, r1, r3
     dce:	f004 040f 	and.w	r4, r4, #15
     dd2:	3c01      	subs	r4, #1
     dd4:	2c06      	cmp	r4, #6
     dd6:	d812      	bhi.n	dfe <__utee_from_param+0x46>
     dd8:	e8df f004 	tbb	[pc, r4]
     ddc:	11040404 	.word	0x11040404
     de0:	0404      	.short	0x0404
     de2:	04          	.byte	0x04
     de3:	00          	.byte	0x00
/mnt/disk/raspbian-tee/optee_os/lib/libutee/tee_api.c:35
     de4:	f85c 4013 	ldr.w	r4, [ip, r3, lsl #1]
     de8:	6084      	str	r4, [r0, #8]
     dea:	60c2      	str	r2, [r0, #12]
/mnt/disk/raspbian-tee/optee_os/lib/libutee/tee_api.c:36
     dec:	686c      	ldr	r4, [r5, #4]
     dee:	6104      	str	r4, [r0, #16]
     df0:	6142      	str	r2, [r0, #20]
     df2:	3304      	adds	r3, #4
     df4:	3508      	adds	r5, #8
     df6:	3010      	adds	r0, #16
/mnt/disk/raspbian-tee/optee_os/lib/libutee/tee_api.c:24 (discriminator 2)
     df8:	2b10      	cmp	r3, #16
     dfa:	d1e6      	bne.n	dca <__utee_from_param+0x12>
/mnt/disk/raspbian-tee/optee_os/lib/libutee/tee_api.c:44
     dfc:	bdf0      	pop	{r4, r5, r6, r7, pc}
/mnt/disk/raspbian-tee/optee_os/lib/libutee/tee_api.c:39
     dfe:	e9c0 6702 	strd	r6, r7, [r0, #8]
/mnt/disk/raspbian-tee/optee_os/lib/libutee/tee_api.c:40
     e02:	e9c0 6704 	strd	r6, r7, [r0, #16]
/mnt/disk/raspbian-tee/optee_os/lib/libutee/tee_api.c:41
     e06:	e7f4      	b.n	df2 <__utee_from_param+0x3a>

00000e08 <__utee_to_param>:
__utee_to_param():
/mnt/disk/raspbian-tee/optee_os/lib/libutee/tee_api.c:48
     e08:	b5f0      	push	{r4, r5, r6, r7, lr}
/mnt/disk/raspbian-tee/optee_os/lib/libutee/tee_api.c:50
     e0a:	2300      	movs	r3, #0
     e0c:	6816      	ldr	r6, [r2, #0]
     e0e:	4605      	mov	r5, r0
/mnt/disk/raspbian-tee/optee_os/lib/libutee/tee_api.c:56
     e10:	fa26 f403 	lsr.w	r4, r6, r3
/mnt/disk/raspbian-tee/optee_os/lib/libutee/tee_api.c:53
     e14:	f8d2 c008 	ldr.w	ip, [r2, #8]
/mnt/disk/raspbian-tee/optee_os/lib/libutee/tee_api.c:56
     e18:	f004 040f 	and.w	r4, r4, #15
/mnt/disk/raspbian-tee/optee_os/lib/libutee/tee_api.c:54
     e1c:	6917      	ldr	r7, [r2, #16]
/mnt/disk/raspbian-tee/optee_os/lib/libutee/tee_api.c:56
     e1e:	3c01      	subs	r4, #1
     e20:	2c06      	cmp	r4, #6
     e22:	d808      	bhi.n	e36 <__utee_to_param+0x2e>
     e24:	e8df f004 	tbb	[pc, r4]
     e28:	07040404 	.word	0x07040404
     e2c:	0404      	.short	0x0404
     e2e:	04          	.byte	0x04
     e2f:	00          	.byte	0x00
/mnt/disk/raspbian-tee/optee_os/lib/libutee/tee_api.c:66
     e30:	f840 c013 	str.w	ip, [r0, r3, lsl #1]
/mnt/disk/raspbian-tee/optee_os/lib/libutee/tee_api.c:67
     e34:	606f      	str	r7, [r5, #4]
     e36:	3304      	adds	r3, #4
     e38:	3210      	adds	r2, #16
     e3a:	3508      	adds	r5, #8
/mnt/disk/raspbian-tee/optee_os/lib/libutee/tee_api.c:52 (discriminator 2)
     e3c:	2b10      	cmp	r3, #16
     e3e:	d1e7      	bne.n	e10 <__utee_to_param+0x8>
/mnt/disk/raspbian-tee/optee_os/lib/libutee/tee_api.c:74
     e40:	b101      	cbz	r1, e44 <__utee_to_param+0x3c>
/mnt/disk/raspbian-tee/optee_os/lib/libutee/tee_api.c:75
     e42:	600e      	str	r6, [r1, #0]
     e44:	bdf0      	pop	{r4, r5, r6, r7, pc}

00000e46 <TEE_OpenTASession>:
TEE_OpenTASession():
/mnt/disk/raspbian-tee/optee_os/lib/libutee/tee_api.c:84
     e46:	b5f0      	push	{r4, r5, r6, r7, lr}
     e48:	4605      	mov	r5, r0
     e4a:	460f      	mov	r7, r1
     e4c:	b097      	sub	sp, #92	; 0x5c
     e4e:	4611      	mov	r1, r2
/mnt/disk/raspbian-tee/optee_os/lib/libutee/tee_api.c:89
     e50:	ac04      	add	r4, sp, #16
     e52:	461a      	mov	r2, r3
     e54:	4620      	mov	r0, r4
/mnt/disk/raspbian-tee/optee_os/lib/libutee/tee_api.c:84
     e56:	461e      	mov	r6, r3
/mnt/disk/raspbian-tee/optee_os/lib/libutee/tee_api.c:89
     e58:	f7ff ffae 	bl	db8 <__utee_from_param>
/mnt/disk/raspbian-tee/optee_os/lib/libutee/tee_api.c:90
     e5c:	9b1d      	ldr	r3, [sp, #116]	; 0x74
     e5e:	9300      	str	r3, [sp, #0]
     e60:	4622      	mov	r2, r4
     e62:	4639      	mov	r1, r7
     e64:	4628      	mov	r0, r5
     e66:	ab03      	add	r3, sp, #12
     e68:	f000 ee26 	blx	1ab8 <utee_open_ta_session>
/mnt/disk/raspbian-tee/optee_os/lib/libutee/tee_api.c:92
     e6c:	4622      	mov	r2, r4
/mnt/disk/raspbian-tee/optee_os/lib/libutee/tee_api.c:90
     e6e:	4605      	mov	r5, r0
/mnt/disk/raspbian-tee/optee_os/lib/libutee/tee_api.c:92
     e70:	2100      	movs	r1, #0
     e72:	4630      	mov	r0, r6
     e74:	f7ff ffc8 	bl	e08 <__utee_to_param>
/mnt/disk/raspbian-tee/optee_os/lib/libutee/tee_api.c:98
     e78:	b10d      	cbz	r5, e7e <TEE_OpenTASession+0x38>
/mnt/disk/raspbian-tee/optee_os/lib/libutee/tee_api.c:99
     e7a:	2300      	movs	r3, #0
     e7c:	9303      	str	r3, [sp, #12]
/mnt/disk/raspbian-tee/optee_os/lib/libutee/tee_api.c:101
     e7e:	9b1c      	ldr	r3, [sp, #112]	; 0x70
/mnt/disk/raspbian-tee/optee_os/lib/libutee/tee_api.c:103
     e80:	4628      	mov	r0, r5
/mnt/disk/raspbian-tee/optee_os/lib/libutee/tee_api.c:101
     e82:	9a03      	ldr	r2, [sp, #12]
     e84:	601a      	str	r2, [r3, #0]
/mnt/disk/raspbian-tee/optee_os/lib/libutee/tee_api.c:103
     e86:	b017      	add	sp, #92	; 0x5c
     e88:	bdf0      	pop	{r4, r5, r6, r7, pc}

00000e8a <TEE_CloseTASession>:
TEE_CloseTASession():
/mnt/disk/raspbian-tee/optee_os/lib/libutee/tee_api.c:106
     e8a:	b508      	push	{r3, lr}
/mnt/disk/raspbian-tee/optee_os/lib/libutee/tee_api.c:107
     e8c:	b130      	cbz	r0, e9c <TEE_CloseTASession+0x12>
/mnt/disk/raspbian-tee/optee_os/lib/libutee/tee_api.c:108
     e8e:	f000 ee20 	blx	1ad0 <utee_close_ta_session>
/mnt/disk/raspbian-tee/optee_os/lib/libutee/tee_api.c:110
     e92:	b118      	cbz	r0, e9c <TEE_CloseTASession+0x12>
/mnt/disk/raspbian-tee/optee_os/lib/libutee/tee_api.c:113
     e94:	e8bd 4008 	ldmia.w	sp!, {r3, lr}
/mnt/disk/raspbian-tee/optee_os/lib/libutee/tee_api.c:111
     e98:	f005 bba0 	b.w	65dc <TEE_Panic>
     e9c:	bd08      	pop	{r3, pc}

00000e9e <TEE_InvokeTACommand>:
TEE_InvokeTACommand():
/mnt/disk/raspbian-tee/optee_os/lib/libutee/tee_api.c:120
     e9e:	e92d 41f0 	stmdb	sp!, {r4, r5, r6, r7, r8, lr}
     ea2:	4604      	mov	r4, r0
     ea4:	460f      	mov	r7, r1
     ea6:	b096      	sub	sp, #88	; 0x58
/mnt/disk/raspbian-tee/optee_os/lib/libutee/tee_api.c:125
     ea8:	4619      	mov	r1, r3
     eaa:	ad04      	add	r5, sp, #16
/mnt/disk/raspbian-tee/optee_os/lib/libutee/tee_api.c:120
     eac:	4690      	mov	r8, r2
/mnt/disk/raspbian-tee/optee_os/lib/libutee/tee_api.c:125
     eae:	4628      	mov	r0, r5
/mnt/disk/raspbian-tee/optee_os/lib/libutee/tee_api.c:120
     eb0:	9e1d      	ldr	r6, [sp, #116]	; 0x74
/mnt/disk/raspbian-tee/optee_os/lib/libutee/tee_api.c:125
     eb2:	9a1c      	ldr	r2, [sp, #112]	; 0x70
     eb4:	f7ff ff80 	bl	db8 <__utee_from_param>
/mnt/disk/raspbian-tee/optee_os/lib/libutee/tee_api.c:126
     eb8:	ab03      	add	r3, sp, #12
     eba:	4642      	mov	r2, r8
     ebc:	9300      	str	r3, [sp, #0]
     ebe:	4639      	mov	r1, r7
     ec0:	462b      	mov	r3, r5
     ec2:	4620      	mov	r0, r4
     ec4:	f000 ee0e 	blx	1ae4 <utee_invoke_ta_command>
/mnt/disk/raspbian-tee/optee_os/lib/libutee/tee_api.c:129
     ec8:	462a      	mov	r2, r5
/mnt/disk/raspbian-tee/optee_os/lib/libutee/tee_api.c:126
     eca:	4604      	mov	r4, r0
/mnt/disk/raspbian-tee/optee_os/lib/libutee/tee_api.c:129
     ecc:	2100      	movs	r1, #0
     ece:	981c      	ldr	r0, [sp, #112]	; 0x70
     ed0:	f7ff ff9a 	bl	e08 <__utee_to_param>
     ed4:	9b03      	ldr	r3, [sp, #12]
/mnt/disk/raspbian-tee/optee_os/lib/libutee/tee_api.c:131
     ed6:	b106      	cbz	r6, eda <TEE_InvokeTACommand+0x3c>
/mnt/disk/raspbian-tee/optee_os/lib/libutee/tee_api.c:132
     ed8:	6033      	str	r3, [r6, #0]
/mnt/disk/raspbian-tee/optee_os/lib/libutee/tee_api.c:134
     eda:	2b04      	cmp	r3, #4
     edc:	d009      	beq.n	ef2 <TEE_InvokeTACommand+0x54>
/mnt/disk/raspbian-tee/optee_os/lib/libutee/tee_api.c:137
     ede:	b144      	cbz	r4, ef2 <TEE_InvokeTACommand+0x54>
/mnt/disk/raspbian-tee/optee_os/lib/libutee/tee_api.c:137 (discriminator 1)
     ee0:	4b06      	ldr	r3, [pc, #24]	; (efc <TEE_InvokeTACommand+0x5e>)
     ee2:	429c      	cmp	r4, r3
     ee4:	d005      	beq.n	ef2 <TEE_InvokeTACommand+0x54>
/mnt/disk/raspbian-tee/optee_os/lib/libutee/tee_api.c:138
     ee6:	4b06      	ldr	r3, [pc, #24]	; (f00 <TEE_InvokeTACommand+0x62>)
     ee8:	429c      	cmp	r4, r3
     eea:	d002      	beq.n	ef2 <TEE_InvokeTACommand+0x54>
/mnt/disk/raspbian-tee/optee_os/lib/libutee/tee_api.c:140
     eec:	4620      	mov	r0, r4
     eee:	f005 fb75 	bl	65dc <TEE_Panic>
/mnt/disk/raspbian-tee/optee_os/lib/libutee/tee_api.c:143
     ef2:	4620      	mov	r0, r4
     ef4:	b016      	add	sp, #88	; 0x58
     ef6:	e8bd 81f0 	ldmia.w	sp!, {r4, r5, r6, r7, r8, pc}
     efa:	bf00      	nop
     efc:	ffff000c 	.word	0xffff000c
     f00:	ffff3024 	.word	0xffff3024

00000f04 <TEE_GetCancellationFlag>:
TEE_GetCancellationFlag():
/mnt/disk/raspbian-tee/optee_os/lib/libutee/tee_api.c:148
     f04:	b507      	push	{r0, r1, r2, lr}
/mnt/disk/raspbian-tee/optee_os/lib/libutee/tee_api.c:150
     f06:	a801      	add	r0, sp, #4
     f08:	f000 edf8 	blx	1afc <utee_get_cancellation_flag>
/mnt/disk/raspbian-tee/optee_os/lib/libutee/tee_api.c:152
     f0c:	b108      	cbz	r0, f12 <TEE_GetCancellationFlag+0xe>
/mnt/disk/raspbian-tee/optee_os/lib/libutee/tee_api.c:153
     f0e:	2300      	movs	r3, #0
     f10:	9301      	str	r3, [sp, #4]
/mnt/disk/raspbian-tee/optee_os/lib/libutee/tee_api.c:155
     f12:	9801      	ldr	r0, [sp, #4]
     f14:	3000      	adds	r0, #0
     f16:	bf18      	it	ne
     f18:	2001      	movne	r0, #1
     f1a:	b003      	add	sp, #12
     f1c:	f85d fb04 	ldr.w	pc, [sp], #4

00000f20 <TEE_UnmaskCancellation>:
TEE_UnmaskCancellation():
/mnt/disk/raspbian-tee/optee_os/lib/libutee/tee_api.c:158
     f20:	b507      	push	{r0, r1, r2, lr}
/mnt/disk/raspbian-tee/optee_os/lib/libutee/tee_api.c:160
     f22:	a801      	add	r0, sp, #4
     f24:	f000 edfe 	blx	1b24 <utee_unmask_cancellation>
/mnt/disk/raspbian-tee/optee_os/lib/libutee/tee_api.c:162
     f28:	b108      	cbz	r0, f2e <TEE_UnmaskCancellation+0xe>
/mnt/disk/raspbian-tee/optee_os/lib/libutee/tee_api.c:163
     f2a:	f005 fb57 	bl	65dc <TEE_Panic>
/mnt/disk/raspbian-tee/optee_os/lib/libutee/tee_api.c:165
     f2e:	9801      	ldr	r0, [sp, #4]
     f30:	3000      	adds	r0, #0
     f32:	bf18      	it	ne
     f34:	2001      	movne	r0, #1
     f36:	b003      	add	sp, #12
     f38:	f85d fb04 	ldr.w	pc, [sp], #4

00000f3c <TEE_MaskCancellation>:
TEE_MaskCancellation():
/mnt/disk/raspbian-tee/optee_os/lib/libutee/tee_api.c:168
     f3c:	b507      	push	{r0, r1, r2, lr}
/mnt/disk/raspbian-tee/optee_os/lib/libutee/tee_api.c:170
     f3e:	a801      	add	r0, sp, #4
     f40:	f000 edfa 	blx	1b38 <utee_mask_cancellation>
/mnt/disk/raspbian-tee/optee_os/lib/libutee/tee_api.c:172
     f44:	b108      	cbz	r0, f4a <TEE_MaskCancellation+0xe>
/mnt/disk/raspbian-tee/optee_os/lib/libutee/tee_api.c:173
     f46:	f005 fb49 	bl	65dc <TEE_Panic>
/mnt/disk/raspbian-tee/optee_os/lib/libutee/tee_api.c:175
     f4a:	9801      	ldr	r0, [sp, #4]
     f4c:	3000      	adds	r0, #0
     f4e:	bf18      	it	ne
     f50:	2001      	movne	r0, #1
     f52:	b003      	add	sp, #12
     f54:	f85d fb04 	ldr.w	pc, [sp], #4

00000f58 <TEE_CheckMemoryAccessRights>:
TEE_CheckMemoryAccessRights():
/mnt/disk/raspbian-tee/optee_os/lib/libutee/tee_api.c:184
     f58:	b10a      	cbz	r2, f5e <TEE_CheckMemoryAccessRights+0x6>
/mnt/disk/raspbian-tee/optee_os/lib/libutee/tee_api.c:188
     f5a:	f005 bb9d 	b.w	6698 <__utee_check_access_rights_from_thumb>
/mnt/disk/raspbian-tee/optee_os/lib/libutee/tee_api.c:200
     f5e:	4610      	mov	r0, r2
     f60:	4770      	bx	lr

00000f62 <TEE_SetInstanceData>:
TEE_SetInstanceData():
/mnt/disk/raspbian-tee/optee_os/lib/libutee/tee_api.c:204
     f62:	4b02      	ldr	r3, [pc, #8]	; (f6c <TEE_SetInstanceData+0xa>)
     f64:	447b      	add	r3, pc
     f66:	6018      	str	r0, [r3, #0]
     f68:	4770      	bx	lr
     f6a:	bf00      	nop
     f6c:	0000811c 	.word	0x0000811c

00000f70 <TEE_GetInstanceData>:
TEE_GetInstanceData():
/mnt/disk/raspbian-tee/optee_os/lib/libutee/tee_api.c:210
     f70:	4b01      	ldr	r3, [pc, #4]	; (f78 <TEE_GetInstanceData+0x8>)
     f72:	447b      	add	r3, pc
     f74:	6818      	ldr	r0, [r3, #0]
     f76:	4770      	bx	lr
     f78:	0000810e 	.word	0x0000810e

00000f7c <TEE_MemMove>:
TEE_MemMove():
/mnt/disk/raspbian-tee/optee_os/lib/libutee/tee_api.c:214
     f7c:	f005 bb60 	b.w	6640 <memmove>

00000f80 <TEE_MemCompare>:
TEE_MemCompare():
/mnt/disk/raspbian-tee/optee_os/lib/libutee/tee_api.c:219
     f80:	f005 bb44 	b.w	660c <memcmp>

00000f84 <TEE_MemFill>:
TEE_MemFill():
/mnt/disk/raspbian-tee/optee_os/lib/libutee/tee_api.c:224
     f84:	f005 bb76 	b.w	6674 <memset>

00000f88 <TEE_GetSystemTime>:
TEE_GetSystemTime():
/mnt/disk/raspbian-tee/optee_os/lib/libutee/tee_api.c:230
     f88:	b508      	push	{r3, lr}
/mnt/disk/raspbian-tee/optee_os/lib/libutee/tee_api.c:231
     f8a:	4601      	mov	r1, r0
     f8c:	2000      	movs	r0, #0
     f8e:	f000 ede8 	blx	1b60 <utee_get_time>
/mnt/disk/raspbian-tee/optee_os/lib/libutee/tee_api.c:233
     f92:	b118      	cbz	r0, f9c <TEE_GetSystemTime+0x14>
/mnt/disk/raspbian-tee/optee_os/lib/libutee/tee_api.c:235
     f94:	e8bd 4008 	ldmia.w	sp!, {r3, lr}
/mnt/disk/raspbian-tee/optee_os/lib/libutee/tee_api.c:234
     f98:	f005 bb20 	b.w	65dc <TEE_Panic>
     f9c:	bd08      	pop	{r3, pc}

00000f9e <TEE_Wait>:
TEE_Wait():
/mnt/disk/raspbian-tee/optee_os/lib/libutee/tee_api.c:238
     f9e:	b510      	push	{r4, lr}
/mnt/disk/raspbian-tee/optee_os/lib/libutee/tee_api.c:239
     fa0:	f000 edd4 	blx	1b4c <utee_wait>
/mnt/disk/raspbian-tee/optee_os/lib/libutee/tee_api.c:241
     fa4:	4604      	mov	r4, r0
     fa6:	b120      	cbz	r0, fb2 <TEE_Wait+0x14>
/mnt/disk/raspbian-tee/optee_os/lib/libutee/tee_api.c:241 (discriminator 1)
     fa8:	4b03      	ldr	r3, [pc, #12]	; (fb8 <TEE_Wait+0x1a>)
     faa:	4298      	cmp	r0, r3
     fac:	d001      	beq.n	fb2 <TEE_Wait+0x14>
/mnt/disk/raspbian-tee/optee_os/lib/libutee/tee_api.c:242
     fae:	f005 fb15 	bl	65dc <TEE_Panic>
/mnt/disk/raspbian-tee/optee_os/lib/libutee/tee_api.c:245
     fb2:	4620      	mov	r0, r4
     fb4:	bd10      	pop	{r4, pc}
     fb6:	bf00      	nop
     fb8:	ffff0002 	.word	0xffff0002

00000fbc <TEE_GetTAPersistentTime>:
TEE_GetTAPersistentTime():
/mnt/disk/raspbian-tee/optee_os/lib/libutee/tee_api.c:248
     fbc:	b538      	push	{r3, r4, r5, lr}
/mnt/disk/raspbian-tee/optee_os/lib/libutee/tee_api.c:251
     fbe:	4601      	mov	r1, r0
/mnt/disk/raspbian-tee/optee_os/lib/libutee/tee_api.c:248
     fc0:	4605      	mov	r5, r0
/mnt/disk/raspbian-tee/optee_os/lib/libutee/tee_api.c:251
     fc2:	2001      	movs	r0, #1
     fc4:	f000 edcc 	blx	1b60 <utee_get_time>
/mnt/disk/raspbian-tee/optee_os/lib/libutee/tee_api.c:253
     fc8:	4604      	mov	r4, r0
     fca:	b170      	cbz	r0, fea <TEE_GetTAPersistentTime+0x2e>
/mnt/disk/raspbian-tee/optee_os/lib/libutee/tee_api.c:253 (discriminator 1)
     fcc:	4b08      	ldr	r3, [pc, #32]	; (ff0 <TEE_GetTAPersistentTime+0x34>)
     fce:	4298      	cmp	r0, r3
     fd0:	d00b      	beq.n	fea <TEE_GetTAPersistentTime+0x2e>
/mnt/disk/raspbian-tee/optee_os/lib/libutee/tee_api.c:254
     fd2:	2300      	movs	r3, #0
     fd4:	602b      	str	r3, [r5, #0]
/mnt/disk/raspbian-tee/optee_os/lib/libutee/tee_api.c:255
     fd6:	606b      	str	r3, [r5, #4]
/mnt/disk/raspbian-tee/optee_os/lib/libutee/tee_api.c:258
     fd8:	f500 4330 	add.w	r3, r0, #45056	; 0xb000
     fdc:	2b01      	cmp	r3, #1
     fde:	d904      	bls.n	fea <TEE_GetTAPersistentTime+0x2e>
/mnt/disk/raspbian-tee/optee_os/lib/libutee/tee_api.c:261
     fe0:	4b04      	ldr	r3, [pc, #16]	; (ff4 <TEE_GetTAPersistentTime+0x38>)
     fe2:	4298      	cmp	r0, r3
     fe4:	d001      	beq.n	fea <TEE_GetTAPersistentTime+0x2e>
/mnt/disk/raspbian-tee/optee_os/lib/libutee/tee_api.c:263
     fe6:	f005 faf9 	bl	65dc <TEE_Panic>
/mnt/disk/raspbian-tee/optee_os/lib/libutee/tee_api.c:266
     fea:	4620      	mov	r0, r4
     fec:	bd38      	pop	{r3, r4, r5, pc}
     fee:	bf00      	nop
     ff0:	ffff300f 	.word	0xffff300f
     ff4:	ffff000c 	.word	0xffff000c

00000ff8 <TEE_SetTAPersistentTime>:
TEE_SetTAPersistentTime():
/mnt/disk/raspbian-tee/optee_os/lib/libutee/tee_api.c:269
     ff8:	b510      	push	{r4, lr}
/mnt/disk/raspbian-tee/optee_os/lib/libutee/tee_api.c:272
     ffa:	f000 edbc 	blx	1b74 <utee_set_ta_time>
/mnt/disk/raspbian-tee/optee_os/lib/libutee/tee_api.c:274
     ffe:	4604      	mov	r4, r0
    1000:	b138      	cbz	r0, 1012 <TEE_SetTAPersistentTime+0x1a>
/mnt/disk/raspbian-tee/optee_os/lib/libutee/tee_api.c:274 (discriminator 1)
    1002:	4b05      	ldr	r3, [pc, #20]	; (1018 <TEE_SetTAPersistentTime+0x20>)
    1004:	4298      	cmp	r0, r3
    1006:	d004      	beq.n	1012 <TEE_SetTAPersistentTime+0x1a>
/mnt/disk/raspbian-tee/optee_os/lib/libutee/tee_api.c:275
    1008:	4b04      	ldr	r3, [pc, #16]	; (101c <TEE_SetTAPersistentTime+0x24>)
    100a:	4298      	cmp	r0, r3
    100c:	d001      	beq.n	1012 <TEE_SetTAPersistentTime+0x1a>
/mnt/disk/raspbian-tee/optee_os/lib/libutee/tee_api.c:277
    100e:	f005 fae5 	bl	65dc <TEE_Panic>
/mnt/disk/raspbian-tee/optee_os/lib/libutee/tee_api.c:280
    1012:	4620      	mov	r0, r4
    1014:	bd10      	pop	{r4, pc}
    1016:	bf00      	nop
    1018:	ffff000c 	.word	0xffff000c
    101c:	ffff3041 	.word	0xffff3041

00001020 <TEE_GetREETime>:
TEE_GetREETime():
/mnt/disk/raspbian-tee/optee_os/lib/libutee/tee_api.c:283
    1020:	b508      	push	{r3, lr}
/mnt/disk/raspbian-tee/optee_os/lib/libutee/tee_api.c:284
    1022:	4601      	mov	r1, r0
    1024:	2002      	movs	r0, #2
    1026:	f000 ed9c 	blx	1b60 <utee_get_time>
/mnt/disk/raspbian-tee/optee_os/lib/libutee/tee_api.c:286
    102a:	b118      	cbz	r0, 1034 <TEE_GetREETime+0x14>
/mnt/disk/raspbian-tee/optee_os/lib/libutee/tee_api.c:288
    102c:	e8bd 4008 	ldmia.w	sp!, {r3, lr}
/mnt/disk/raspbian-tee/optee_os/lib/libutee/tee_api.c:287
    1030:	f005 bad4 	b.w	65dc <TEE_Panic>
    1034:	bd08      	pop	{r3, pc}

00001036 <TEE_Malloc>:
TEE_Malloc():
/mnt/disk/raspbian-tee/optee_os/lib/libutee/tee_api.c:291
    1036:	b507      	push	{r0, r1, r2, lr}
/mnt/disk/raspbian-tee/optee_os/lib/libutee/tee_api.c:292
    1038:	b931      	cbnz	r1, 1048 <TEE_Malloc+0x12>
/mnt/disk/raspbian-tee/optee_os/lib/libutee/tee_api.c:293
    103a:	4601      	mov	r1, r0
    103c:	2001      	movs	r0, #1
/mnt/disk/raspbian-tee/optee_os/lib/libutee/tee_api.c:300
    103e:	b003      	add	sp, #12
    1040:	f85d eb04 	ldr.w	lr, [sp], #4
/mnt/disk/raspbian-tee/optee_os/lib/libutee/tee_api.c:293
    1044:	f004 beb8 	b.w	5db8 <calloc>
/mnt/disk/raspbian-tee/optee_os/lib/libutee/tee_api.c:294
    1048:	f1b1 4f00 	cmp.w	r1, #2147483648	; 0x80000000
    104c:	d104      	bne.n	1058 <TEE_Malloc+0x22>
/mnt/disk/raspbian-tee/optee_os/lib/libutee/tee_api.c:300
    104e:	b003      	add	sp, #12
    1050:	f85d eb04 	ldr.w	lr, [sp], #4
/mnt/disk/raspbian-tee/optee_os/lib/libutee/tee_api.c:295
    1054:	f004 bea6 	b.w	5da4 <malloc>
/mnt/disk/raspbian-tee/optee_os/lib/libutee/tee_api.c:297
    1058:	4b07      	ldr	r3, [pc, #28]	; (1078 <TEE_Malloc+0x42>)
    105a:	4808      	ldr	r0, [pc, #32]	; (107c <TEE_Malloc+0x46>)
    105c:	447b      	add	r3, pc
    105e:	9300      	str	r3, [sp, #0]
    1060:	2301      	movs	r3, #1
    1062:	9101      	str	r1, [sp, #4]
    1064:	461a      	mov	r2, r3
    1066:	f240 1129 	movw	r1, #297	; 0x129
    106a:	4478      	add	r0, pc
    106c:	f7ff f972 	bl	354 <trace_printf>
/mnt/disk/raspbian-tee/optee_os/lib/libutee/tee_api.c:300
    1070:	2000      	movs	r0, #0
    1072:	b003      	add	sp, #12
    1074:	f85d fb04 	ldr.w	pc, [sp], #4
    1078:	00005bfc 	.word	0x00005bfc
    107c:	00005be3 	.word	0x00005be3

00001080 <TEE_Realloc>:
TEE_Realloc():
/mnt/disk/raspbian-tee/optee_os/lib/libutee/tee_api.c:304
    1080:	f004 bebe 	b.w	5e00 <realloc>

00001084 <TEE_Free>:
TEE_Free():
/mnt/disk/raspbian-tee/optee_os/lib/libutee/tee_api.c:309
    1084:	f004 be8f 	b.w	5da6 <free>

00001088 <TEE_CacheClean>:
TEE_CacheClean():
/mnt/disk/raspbian-tee/optee_os/lib/libutee/tee_api.c:315
    1088:	2200      	movs	r2, #0
    108a:	f005 bafd 	b.w	6688 <__utee_cache_operation_from_thumb>

0000108e <TEE_CacheFlush>:
TEE_CacheFlush():
/mnt/disk/raspbian-tee/optee_os/lib/libutee/tee_api.c:319
    108e:	2201      	movs	r2, #1
    1090:	f005 bafa 	b.w	6688 <__utee_cache_operation_from_thumb>

00001094 <TEE_CacheInvalidate>:
TEE_CacheInvalidate():
/mnt/disk/raspbian-tee/optee_os/lib/libutee/tee_api.c:324
    1094:	2202      	movs	r2, #2
    1096:	f005 baf7 	b.w	6688 <__utee_cache_operation_from_thumb>
    109a:	bf00      	nop

0000109c <__utee_from_attr>:
__utee_from_attr():
/mnt/disk/raspbian-tee/optee_os/lib/libutee/tee_api_objects.c:19
    109c:	2318      	movs	r3, #24
    109e:	b530      	push	{r4, r5, lr}
/mnt/disk/raspbian-tee/optee_os/lib/libutee/tee_api_objects.c:25
    10a0:	2400      	movs	r4, #0
    10a2:	fb03 0202 	mla	r2, r3, r2, r0
/mnt/disk/raspbian-tee/optee_os/lib/libutee/tee_api_objects.c:22 (discriminator 1)
    10a6:	4290      	cmp	r0, r2
    10a8:	d100      	bne.n	10ac <__utee_from_attr+0x10>
/mnt/disk/raspbian-tee/optee_os/lib/libutee/tee_api_objects.c:32
    10aa:	bd30      	pop	{r4, r5, pc}
/mnt/disk/raspbian-tee/optee_os/lib/libutee/tee_api_objects.c:23
    10ac:	680b      	ldr	r3, [r1, #0]
    10ae:	6103      	str	r3, [r0, #16]
/mnt/disk/raspbian-tee/optee_os/lib/libutee/tee_api_objects.c:24
    10b0:	f013 5300 	ands.w	r3, r3, #536870912	; 0x20000000
    10b4:	d008      	beq.n	10c8 <__utee_from_attr+0x2c>
/mnt/disk/raspbian-tee/optee_os/lib/libutee/tee_api_objects.c:25
    10b6:	684b      	ldr	r3, [r1, #4]
    10b8:	e880 0018 	stmia.w	r0, {r3, r4}
/mnt/disk/raspbian-tee/optee_os/lib/libutee/tee_api_objects.c:26
    10bc:	688b      	ldr	r3, [r1, #8]
    10be:	6083      	str	r3, [r0, #8]
    10c0:	60c4      	str	r4, [r0, #12]
    10c2:	310c      	adds	r1, #12
    10c4:	3018      	adds	r0, #24
    10c6:	e7ee      	b.n	10a6 <__utee_from_attr+0xa>
/mnt/disk/raspbian-tee/optee_os/lib/libutee/tee_api_objects.c:28
    10c8:	684d      	ldr	r5, [r1, #4]
    10ca:	6005      	str	r5, [r0, #0]
    10cc:	6043      	str	r3, [r0, #4]
/mnt/disk/raspbian-tee/optee_os/lib/libutee/tee_api_objects.c:29
    10ce:	688d      	ldr	r5, [r1, #8]
    10d0:	6085      	str	r5, [r0, #8]
    10d2:	60c3      	str	r3, [r0, #12]
    10d4:	e7f5      	b.n	10c2 <__utee_from_attr+0x26>

000010d6 <TEE_GetObjectInfo>:
TEE_GetObjectInfo():
/mnt/disk/raspbian-tee/optee_os/lib/libutee/tee_api_objects.c:42
    10d6:	b510      	push	{r4, lr}
    10d8:	460c      	mov	r4, r1
/mnt/disk/raspbian-tee/optee_os/lib/libutee/tee_api_objects.c:45
    10da:	f000 edb8 	blx	1c4c <utee_cryp_obj_get_info>
/mnt/disk/raspbian-tee/optee_os/lib/libutee/tee_api_objects.c:47
    10de:	b108      	cbz	r0, 10e4 <TEE_GetObjectInfo+0xe>
/mnt/disk/raspbian-tee/optee_os/lib/libutee/tee_api_objects.c:48
    10e0:	f005 fa7c 	bl	65dc <TEE_Panic>
/mnt/disk/raspbian-tee/optee_os/lib/libutee/tee_api_objects.c:50
    10e4:	6822      	ldr	r2, [r4, #0]
    10e6:	4b05      	ldr	r3, [pc, #20]	; (10fc <TEE_GetObjectInfo+0x26>)
    10e8:	429a      	cmp	r2, r3
    10ea:	d106      	bne.n	10fa <TEE_GetObjectInfo+0x24>
/mnt/disk/raspbian-tee/optee_os/lib/libutee/tee_api_objects.c:51
    10ec:	2300      	movs	r3, #0
    10ee:	6063      	str	r3, [r4, #4]
/mnt/disk/raspbian-tee/optee_os/lib/libutee/tee_api_objects.c:52
    10f0:	60a3      	str	r3, [r4, #8]
/mnt/disk/raspbian-tee/optee_os/lib/libutee/tee_api_objects.c:53
    10f2:	60e3      	str	r3, [r4, #12]
/mnt/disk/raspbian-tee/optee_os/lib/libutee/tee_api_objects.c:54
    10f4:	6123      	str	r3, [r4, #16]
/mnt/disk/raspbian-tee/optee_os/lib/libutee/tee_api_objects.c:55
    10f6:	6163      	str	r3, [r4, #20]
/mnt/disk/raspbian-tee/optee_os/lib/libutee/tee_api_objects.c:56
    10f8:	61a3      	str	r3, [r4, #24]
    10fa:	bd10      	pop	{r4, pc}
    10fc:	a00000be 	.word	0xa00000be

00001100 <TEE_GetObjectInfo1>:
TEE_GetObjectInfo1():
/mnt/disk/raspbian-tee/optee_os/lib/libutee/tee_api_objects.c:61
    1100:	b510      	push	{r4, lr}
/mnt/disk/raspbian-tee/optee_os/lib/libutee/tee_api_objects.c:64
    1102:	f000 eda4 	blx	1c4c <utee_cryp_obj_get_info>
/mnt/disk/raspbian-tee/optee_os/lib/libutee/tee_api_objects.c:66
    1106:	4604      	mov	r4, r0
    1108:	b130      	cbz	r0, 1118 <TEE_GetObjectInfo1+0x18>
/mnt/disk/raspbian-tee/optee_os/lib/libutee/tee_api_objects.c:66 (discriminator 1)
    110a:	4b04      	ldr	r3, [pc, #16]	; (111c <TEE_GetObjectInfo1+0x1c>)
    110c:	f020 0202 	bic.w	r2, r0, #2
    1110:	429a      	cmp	r2, r3
    1112:	d001      	beq.n	1118 <TEE_GetObjectInfo1+0x18>
/mnt/disk/raspbian-tee/optee_os/lib/libutee/tee_api_objects.c:69
    1114:	f005 fa62 	bl	65dc <TEE_Panic>
/mnt/disk/raspbian-tee/optee_os/lib/libutee/tee_api_objects.c:72
    1118:	4620      	mov	r0, r4
    111a:	bd10      	pop	{r4, pc}
    111c:	f0100001 	.word	0xf0100001

00001120 <TEE_RestrictObjectUsage1>:
TEE_RestrictObjectUsage1():
/mnt/disk/raspbian-tee/optee_os/lib/libutee/tee_api_objects.c:96
    1120:	b510      	push	{r4, lr}
/mnt/disk/raspbian-tee/optee_os/lib/libutee/tee_api_objects.c:99
    1122:	f000 ed9e 	blx	1c60 <utee_cryp_obj_restrict_usage>
/mnt/disk/raspbian-tee/optee_os/lib/libutee/tee_api_objects.c:101
    1126:	4604      	mov	r4, r0
    1128:	b130      	cbz	r0, 1138 <TEE_RestrictObjectUsage1+0x18>
/mnt/disk/raspbian-tee/optee_os/lib/libutee/tee_api_objects.c:101 (discriminator 1)
    112a:	4b04      	ldr	r3, [pc, #16]	; (113c <TEE_RestrictObjectUsage1+0x1c>)
    112c:	f020 0202 	bic.w	r2, r0, #2
    1130:	429a      	cmp	r2, r3
    1132:	d001      	beq.n	1138 <TEE_RestrictObjectUsage1+0x18>
/mnt/disk/raspbian-tee/optee_os/lib/libutee/tee_api_objects.c:104
    1134:	f005 fa52 	bl	65dc <TEE_Panic>
/mnt/disk/raspbian-tee/optee_os/lib/libutee/tee_api_objects.c:107
    1138:	4620      	mov	r0, r4
    113a:	bd10      	pop	{r4, pc}
    113c:	f0100001 	.word	0xf0100001

00001140 <TEE_RestrictObjectUsage>:
TEE_RestrictObjectUsage():
/mnt/disk/raspbian-tee/optee_os/lib/libutee/tee_api_objects.c:81
    1140:	b530      	push	{r4, r5, lr}
    1142:	460d      	mov	r5, r1
    1144:	4604      	mov	r4, r0
    1146:	b089      	sub	sp, #36	; 0x24
/mnt/disk/raspbian-tee/optee_os/lib/libutee/tee_api_objects.c:85
    1148:	a901      	add	r1, sp, #4
    114a:	f000 ed80 	blx	1c4c <utee_cryp_obj_get_info>
/mnt/disk/raspbian-tee/optee_os/lib/libutee/tee_api_objects.c:86
    114e:	4b06      	ldr	r3, [pc, #24]	; (1168 <TEE_RestrictObjectUsage+0x28>)
    1150:	9a01      	ldr	r2, [sp, #4]
    1152:	429a      	cmp	r2, r3
    1154:	d006      	beq.n	1164 <TEE_RestrictObjectUsage+0x24>
/mnt/disk/raspbian-tee/optee_os/lib/libutee/tee_api_objects.c:89
    1156:	4629      	mov	r1, r5
    1158:	4620      	mov	r0, r4
    115a:	f7ff ffe1 	bl	1120 <TEE_RestrictObjectUsage1>
/mnt/disk/raspbian-tee/optee_os/lib/libutee/tee_api_objects.c:91
    115e:	b108      	cbz	r0, 1164 <TEE_RestrictObjectUsage+0x24>
/mnt/disk/raspbian-tee/optee_os/lib/libutee/tee_api_objects.c:92
    1160:	f005 fa3c 	bl	65dc <TEE_Panic>
/mnt/disk/raspbian-tee/optee_os/lib/libutee/tee_api_objects.c:93
    1164:	b009      	add	sp, #36	; 0x24
    1166:	bd30      	pop	{r4, r5, pc}
    1168:	a00000be 	.word	0xa00000be

0000116c <TEE_GetObjectBufferAttribute>:
TEE_GetObjectBufferAttribute():
/mnt/disk/raspbian-tee/optee_os/lib/libutee/tee_api_objects.c:112
    116c:	e92d 41f0 	stmdb	sp!, {r4, r5, r6, r7, r8, lr}
    1170:	460e      	mov	r6, r1
    1172:	4607      	mov	r7, r0
    1174:	b08a      	sub	sp, #40	; 0x28
    1176:	4690      	mov	r8, r2
/mnt/disk/raspbian-tee/optee_os/lib/libutee/tee_api_objects.c:117
    1178:	a903      	add	r1, sp, #12
/mnt/disk/raspbian-tee/optee_os/lib/libutee/tee_api_objects.c:112
    117a:	461d      	mov	r5, r3
/mnt/disk/raspbian-tee/optee_os/lib/libutee/tee_api_objects.c:117
    117c:	f000 ed66 	blx	1c4c <utee_cryp_obj_get_info>
/mnt/disk/raspbian-tee/optee_os/lib/libutee/tee_api_objects.c:118
    1180:	4604      	mov	r4, r0
    1182:	b970      	cbnz	r0, 11a2 <TEE_GetObjectBufferAttribute+0x36>
/mnt/disk/raspbian-tee/optee_os/lib/libutee/tee_api_objects.c:122
    1184:	00b3      	lsls	r3, r6, #2
    1186:	d422      	bmi.n	11ce <TEE_GetObjectBufferAttribute+0x62>
/mnt/disk/raspbian-tee/optee_os/lib/libutee/tee_api_objects.c:127
    1188:	682b      	ldr	r3, [r5, #0]
/mnt/disk/raspbian-tee/optee_os/lib/libutee/tee_api_objects.c:128
    118a:	4642      	mov	r2, r8
/mnt/disk/raspbian-tee/optee_os/lib/libutee/tee_api_objects.c:127
    118c:	e88d 0018 	stmia.w	sp, {r3, r4}
/mnt/disk/raspbian-tee/optee_os/lib/libutee/tee_api_objects.c:128
    1190:	4631      	mov	r1, r6
    1192:	466b      	mov	r3, sp
    1194:	4638      	mov	r0, r7
    1196:	f000 ed6e 	blx	1c74 <utee_cryp_obj_get_attr>
/mnt/disk/raspbian-tee/optee_os/lib/libutee/tee_api_objects.c:130
    119a:	9b00      	ldr	r3, [sp, #0]
    119c:	602b      	str	r3, [r5, #0]
/mnt/disk/raspbian-tee/optee_os/lib/libutee/tee_api_objects.c:133
    119e:	4604      	mov	r4, r0
    11a0:	b188      	cbz	r0, 11c6 <TEE_GetObjectBufferAttribute+0x5a>
/mnt/disk/raspbian-tee/optee_os/lib/libutee/tee_api_objects.c:133 (discriminator 1)
    11a2:	4b0c      	ldr	r3, [pc, #48]	; (11d4 <TEE_GetObjectBufferAttribute+0x68>)
    11a4:	429c      	cmp	r4, r3
    11a6:	d00e      	beq.n	11c6 <TEE_GetObjectBufferAttribute+0x5a>
/mnt/disk/raspbian-tee/optee_os/lib/libutee/tee_api_objects.c:134
    11a8:	3308      	adds	r3, #8
    11aa:	429c      	cmp	r4, r3
    11ac:	d00b      	beq.n	11c6 <TEE_GetObjectBufferAttribute+0x5a>
/mnt/disk/raspbian-tee/optee_os/lib/libutee/tee_api_objects.c:135
    11ae:	f1a3 637e 	sub.w	r3, r3, #266338304	; 0xfe00000
    11b2:	f1a3 130f 	sub.w	r3, r3, #983055	; 0xf000f
    11b6:	429c      	cmp	r4, r3
    11b8:	d005      	beq.n	11c6 <TEE_GetObjectBufferAttribute+0x5a>
/mnt/disk/raspbian-tee/optee_os/lib/libutee/tee_api_objects.c:136
    11ba:	3302      	adds	r3, #2
    11bc:	429c      	cmp	r4, r3
    11be:	d002      	beq.n	11c6 <TEE_GetObjectBufferAttribute+0x5a>
/mnt/disk/raspbian-tee/optee_os/lib/libutee/tee_api_objects.c:138
    11c0:	4620      	mov	r0, r4
    11c2:	f005 fa0b 	bl	65dc <TEE_Panic>
/mnt/disk/raspbian-tee/optee_os/lib/libutee/tee_api_objects.c:141
    11c6:	4620      	mov	r0, r4
    11c8:	b00a      	add	sp, #40	; 0x28
    11ca:	e8bd 81f0 	ldmia.w	sp!, {r4, r5, r6, r7, r8, pc}
/mnt/disk/raspbian-tee/optee_os/lib/libutee/tee_api_objects.c:123
    11ce:	4c02      	ldr	r4, [pc, #8]	; (11d8 <TEE_GetObjectBufferAttribute+0x6c>)
    11d0:	e7f6      	b.n	11c0 <TEE_GetObjectBufferAttribute+0x54>
    11d2:	bf00      	nop
    11d4:	ffff0008 	.word	0xffff0008
    11d8:	ffff0006 	.word	0xffff0006

000011dc <TEE_GetObjectValueAttribute>:
TEE_GetObjectValueAttribute():
/mnt/disk/raspbian-tee/optee_os/lib/libutee/tee_api_objects.c:146
    11dc:	e92d 41f0 	stmdb	sp!, {r4, r5, r6, r7, r8, lr}
    11e0:	460f      	mov	r7, r1
    11e2:	4680      	mov	r8, r0
    11e4:	b08c      	sub	sp, #48	; 0x30
    11e6:	4616      	mov	r6, r2
/mnt/disk/raspbian-tee/optee_os/lib/libutee/tee_api_objects.c:152
    11e8:	a905      	add	r1, sp, #20
/mnt/disk/raspbian-tee/optee_os/lib/libutee/tee_api_objects.c:150
    11ea:	2208      	movs	r2, #8
/mnt/disk/raspbian-tee/optee_os/lib/libutee/tee_api_objects.c:146
    11ec:	461d      	mov	r5, r3
/mnt/disk/raspbian-tee/optee_os/lib/libutee/tee_api_objects.c:150
    11ee:	2300      	movs	r3, #0
    11f0:	e9cd 2300 	strd	r2, r3, [sp]
/mnt/disk/raspbian-tee/optee_os/lib/libutee/tee_api_objects.c:152
    11f4:	f000 ed2a 	blx	1c4c <utee_cryp_obj_get_info>
/mnt/disk/raspbian-tee/optee_os/lib/libutee/tee_api_objects.c:153
    11f8:	4604      	mov	r4, r0
    11fa:	b948      	cbnz	r0, 1210 <TEE_GetObjectValueAttribute+0x34>
/mnt/disk/raspbian-tee/optee_os/lib/libutee/tee_api_objects.c:157
    11fc:	00bb      	lsls	r3, r7, #2
    11fe:	d527      	bpl.n	1250 <TEE_GetObjectValueAttribute+0x74>
/mnt/disk/raspbian-tee/optee_os/lib/libutee/tee_api_objects.c:162
    1200:	466b      	mov	r3, sp
    1202:	aa03      	add	r2, sp, #12
    1204:	4639      	mov	r1, r7
    1206:	4640      	mov	r0, r8
    1208:	f000 ed34 	blx	1c74 <utee_cryp_obj_get_attr>
/mnt/disk/raspbian-tee/optee_os/lib/libutee/tee_api_objects.c:166
    120c:	4604      	mov	r4, r0
    120e:	b158      	cbz	r0, 1228 <TEE_GetObjectValueAttribute+0x4c>
/mnt/disk/raspbian-tee/optee_os/lib/libutee/tee_api_objects.c:166 (discriminator 1)
    1210:	4b10      	ldr	r3, [pc, #64]	; (1254 <TEE_GetObjectValueAttribute+0x78>)
    1212:	429c      	cmp	r4, r3
    1214:	d008      	beq.n	1228 <TEE_GetObjectValueAttribute+0x4c>
/mnt/disk/raspbian-tee/optee_os/lib/libutee/tee_api_objects.c:167
    1216:	4b10      	ldr	r3, [pc, #64]	; (1258 <TEE_GetObjectValueAttribute+0x7c>)
    1218:	429c      	cmp	r4, r3
    121a:	d005      	beq.n	1228 <TEE_GetObjectValueAttribute+0x4c>
/mnt/disk/raspbian-tee/optee_os/lib/libutee/tee_api_objects.c:168
    121c:	3302      	adds	r3, #2
    121e:	429c      	cmp	r4, r3
    1220:	d002      	beq.n	1228 <TEE_GetObjectValueAttribute+0x4c>
/mnt/disk/raspbian-tee/optee_os/lib/libutee/tee_api_objects.c:170
    1222:	4620      	mov	r0, r4
    1224:	f005 f9da 	bl	65dc <TEE_Panic>
/mnt/disk/raspbian-tee/optee_os/lib/libutee/tee_api_objects.c:172
    1228:	e9dd 2300 	ldrd	r2, r3, [sp]
    122c:	2b00      	cmp	r3, #0
    122e:	bf08      	it	eq
    1230:	2a08      	cmpeq	r2, #8
    1232:	d002      	beq.n	123a <TEE_GetObjectValueAttribute+0x5e>
/mnt/disk/raspbian-tee/optee_os/lib/libutee/tee_api_objects.c:173
    1234:	2000      	movs	r0, #0
    1236:	f005 f9d1 	bl	65dc <TEE_Panic>
/mnt/disk/raspbian-tee/optee_os/lib/libutee/tee_api_objects.c:175
    123a:	b92c      	cbnz	r4, 1248 <TEE_GetObjectValueAttribute+0x6c>
/mnt/disk/raspbian-tee/optee_os/lib/libutee/tee_api_objects.c:176
    123c:	b10e      	cbz	r6, 1242 <TEE_GetObjectValueAttribute+0x66>
/mnt/disk/raspbian-tee/optee_os/lib/libutee/tee_api_objects.c:177
    123e:	9b03      	ldr	r3, [sp, #12]
    1240:	6033      	str	r3, [r6, #0]
/mnt/disk/raspbian-tee/optee_os/lib/libutee/tee_api_objects.c:178
    1242:	b10d      	cbz	r5, 1248 <TEE_GetObjectValueAttribute+0x6c>
/mnt/disk/raspbian-tee/optee_os/lib/libutee/tee_api_objects.c:179
    1244:	9b04      	ldr	r3, [sp, #16]
    1246:	602b      	str	r3, [r5, #0]
/mnt/disk/raspbian-tee/optee_os/lib/libutee/tee_api_objects.c:183
    1248:	4620      	mov	r0, r4
    124a:	b00c      	add	sp, #48	; 0x30
    124c:	e8bd 81f0 	ldmia.w	sp!, {r4, r5, r6, r7, r8, pc}
/mnt/disk/raspbian-tee/optee_os/lib/libutee/tee_api_objects.c:158
    1250:	4c02      	ldr	r4, [pc, #8]	; (125c <TEE_GetObjectValueAttribute+0x80>)
    1252:	e7e6      	b.n	1222 <TEE_GetObjectValueAttribute+0x46>
    1254:	ffff0008 	.word	0xffff0008
    1258:	f0100001 	.word	0xf0100001
    125c:	ffff0006 	.word	0xffff0006

00001260 <TEE_CloseObject>:
TEE_CloseObject():
/mnt/disk/raspbian-tee/optee_os/lib/libutee/tee_api_objects.c:186
    1260:	b508      	push	{r3, lr}
/mnt/disk/raspbian-tee/optee_os/lib/libutee/tee_api_objects.c:189
    1262:	b130      	cbz	r0, 1272 <TEE_CloseObject+0x12>
/mnt/disk/raspbian-tee/optee_os/lib/libutee/tee_api_objects.c:192
    1264:	f000 ed1a 	blx	1c9c <utee_cryp_obj_close>
/mnt/disk/raspbian-tee/optee_os/lib/libutee/tee_api_objects.c:193
    1268:	b118      	cbz	r0, 1272 <TEE_CloseObject+0x12>
/mnt/disk/raspbian-tee/optee_os/lib/libutee/tee_api_objects.c:195
    126a:	e8bd 4008 	ldmia.w	sp!, {r3, lr}
/mnt/disk/raspbian-tee/optee_os/lib/libutee/tee_api_objects.c:194
    126e:	f005 b9b5 	b.w	65dc <TEE_Panic>
    1272:	bd08      	pop	{r3, pc}

00001274 <TEE_AllocateTransientObject>:
TEE_AllocateTransientObject():
/mnt/disk/raspbian-tee/optee_os/lib/libutee/tee_api_objects.c:202
    1274:	b537      	push	{r0, r1, r2, r4, r5, lr}
    1276:	4615      	mov	r5, r2
/mnt/disk/raspbian-tee/optee_os/lib/libutee/tee_api_objects.c:206
    1278:	aa01      	add	r2, sp, #4
    127a:	f000 ed06 	blx	1c88 <utee_cryp_obj_alloc>
/mnt/disk/raspbian-tee/optee_os/lib/libutee/tee_api_objects.c:208
    127e:	4604      	mov	r4, r0
    1280:	b150      	cbz	r0, 1298 <TEE_AllocateTransientObject+0x24>
/mnt/disk/raspbian-tee/optee_os/lib/libutee/tee_api_objects.c:208 (discriminator 1)
    1282:	4b07      	ldr	r3, [pc, #28]	; (12a0 <TEE_AllocateTransientObject+0x2c>)
    1284:	4298      	cmp	r0, r3
    1286:	d004      	beq.n	1292 <TEE_AllocateTransientObject+0x1e>
/mnt/disk/raspbian-tee/optee_os/lib/libutee/tee_api_objects.c:209
    1288:	3b02      	subs	r3, #2
    128a:	4298      	cmp	r0, r3
    128c:	d001      	beq.n	1292 <TEE_AllocateTransientObject+0x1e>
/mnt/disk/raspbian-tee/optee_os/lib/libutee/tee_api_objects.c:211
    128e:	f005 f9a5 	bl	65dc <TEE_Panic>
/mnt/disk/raspbian-tee/optee_os/lib/libutee/tee_api_objects.c:217
    1292:	4620      	mov	r0, r4
    1294:	b003      	add	sp, #12
    1296:	bd30      	pop	{r4, r5, pc}
/mnt/disk/raspbian-tee/optee_os/lib/libutee/tee_api_objects.c:214
    1298:	9b01      	ldr	r3, [sp, #4]
    129a:	602b      	str	r3, [r5, #0]
    129c:	e7f9      	b.n	1292 <TEE_AllocateTransientObject+0x1e>
    129e:	bf00      	nop
    12a0:	ffff000c 	.word	0xffff000c

000012a4 <TEE_FreeTransientObject>:
TEE_FreeTransientObject():
/mnt/disk/raspbian-tee/optee_os/lib/libutee/tee_api_objects.c:220
    12a4:	b510      	push	{r4, lr}
/mnt/disk/raspbian-tee/optee_os/lib/libutee/tee_api_objects.c:224
    12a6:	4604      	mov	r4, r0
/mnt/disk/raspbian-tee/optee_os/lib/libutee/tee_api_objects.c:220
    12a8:	b088      	sub	sp, #32
/mnt/disk/raspbian-tee/optee_os/lib/libutee/tee_api_objects.c:224
    12aa:	b188      	cbz	r0, 12d0 <TEE_FreeTransientObject+0x2c>
/mnt/disk/raspbian-tee/optee_os/lib/libutee/tee_api_objects.c:227
    12ac:	a901      	add	r1, sp, #4
    12ae:	f000 ecce 	blx	1c4c <utee_cryp_obj_get_info>
/mnt/disk/raspbian-tee/optee_os/lib/libutee/tee_api_objects.c:228
    12b2:	b108      	cbz	r0, 12b8 <TEE_FreeTransientObject+0x14>
/mnt/disk/raspbian-tee/optee_os/lib/libutee/tee_api_objects.c:229
    12b4:	f005 f992 	bl	65dc <TEE_Panic>
/mnt/disk/raspbian-tee/optee_os/lib/libutee/tee_api_objects.c:231
    12b8:	9b07      	ldr	r3, [sp, #28]
    12ba:	03db      	lsls	r3, r3, #15
    12bc:	d502      	bpl.n	12c4 <TEE_FreeTransientObject+0x20>
/mnt/disk/raspbian-tee/optee_os/lib/libutee/tee_api_objects.c:232
    12be:	2000      	movs	r0, #0
    12c0:	f005 f98c 	bl	65dc <TEE_Panic>
/mnt/disk/raspbian-tee/optee_os/lib/libutee/tee_api_objects.c:234
    12c4:	4620      	mov	r0, r4
    12c6:	f000 ecea 	blx	1c9c <utee_cryp_obj_close>
/mnt/disk/raspbian-tee/optee_os/lib/libutee/tee_api_objects.c:235
    12ca:	b108      	cbz	r0, 12d0 <TEE_FreeTransientObject+0x2c>
/mnt/disk/raspbian-tee/optee_os/lib/libutee/tee_api_objects.c:236
    12cc:	f005 f986 	bl	65dc <TEE_Panic>
/mnt/disk/raspbian-tee/optee_os/lib/libutee/tee_api_objects.c:237
    12d0:	b008      	add	sp, #32
    12d2:	bd10      	pop	{r4, pc}

000012d4 <TEE_ResetTransientObject>:
TEE_ResetTransientObject():
/mnt/disk/raspbian-tee/optee_os/lib/libutee/tee_api_objects.c:240
    12d4:	b510      	push	{r4, lr}
/mnt/disk/raspbian-tee/optee_os/lib/libutee/tee_api_objects.c:244
    12d6:	4604      	mov	r4, r0
/mnt/disk/raspbian-tee/optee_os/lib/libutee/tee_api_objects.c:240
    12d8:	b088      	sub	sp, #32
/mnt/disk/raspbian-tee/optee_os/lib/libutee/tee_api_objects.c:244
    12da:	b188      	cbz	r0, 1300 <TEE_ResetTransientObject+0x2c>
/mnt/disk/raspbian-tee/optee_os/lib/libutee/tee_api_objects.c:247
    12dc:	a901      	add	r1, sp, #4
    12de:	f000 ecb6 	blx	1c4c <utee_cryp_obj_get_info>
/mnt/disk/raspbian-tee/optee_os/lib/libutee/tee_api_objects.c:248
    12e2:	b108      	cbz	r0, 12e8 <TEE_ResetTransientObject+0x14>
/mnt/disk/raspbian-tee/optee_os/lib/libutee/tee_api_objects.c:249
    12e4:	f005 f97a 	bl	65dc <TEE_Panic>
/mnt/disk/raspbian-tee/optee_os/lib/libutee/tee_api_objects.c:251
    12e8:	9b07      	ldr	r3, [sp, #28]
    12ea:	03db      	lsls	r3, r3, #15
    12ec:	d502      	bpl.n	12f4 <TEE_ResetTransientObject+0x20>
/mnt/disk/raspbian-tee/optee_os/lib/libutee/tee_api_objects.c:252
    12ee:	2000      	movs	r0, #0
    12f0:	f005 f974 	bl	65dc <TEE_Panic>
/mnt/disk/raspbian-tee/optee_os/lib/libutee/tee_api_objects.c:254
    12f4:	4620      	mov	r0, r4
    12f6:	f000 ecdc 	blx	1cb0 <utee_cryp_obj_reset>
/mnt/disk/raspbian-tee/optee_os/lib/libutee/tee_api_objects.c:255
    12fa:	b108      	cbz	r0, 1300 <TEE_ResetTransientObject+0x2c>
/mnt/disk/raspbian-tee/optee_os/lib/libutee/tee_api_objects.c:256
    12fc:	f005 f96e 	bl	65dc <TEE_Panic>
/mnt/disk/raspbian-tee/optee_os/lib/libutee/tee_api_objects.c:257
    1300:	b008      	add	sp, #32
    1302:	bd10      	pop	{r4, pc}

00001304 <TEE_PopulateTransientObject>:
TEE_PopulateTransientObject():
/mnt/disk/raspbian-tee/optee_os/lib/libutee/tee_api_objects.c:265
    1304:	2318      	movs	r3, #24
/mnt/disk/raspbian-tee/optee_os/lib/libutee/tee_api_objects.c:262
    1306:	e92d 41f0 	stmdb	sp!, {r4, r5, r6, r7, r8, lr}
    130a:	4688      	mov	r8, r1
    130c:	b088      	sub	sp, #32
/mnt/disk/raspbian-tee/optee_os/lib/libutee/tee_api_objects.c:265
    130e:	4353      	muls	r3, r2
/mnt/disk/raspbian-tee/optee_os/lib/libutee/tee_api_objects.c:262
    1310:	af00      	add	r7, sp, #0
/mnt/disk/raspbian-tee/optee_os/lib/libutee/tee_api_objects.c:267
    1312:	1d39      	adds	r1, r7, #4
/mnt/disk/raspbian-tee/optee_os/lib/libutee/tee_api_objects.c:262
    1314:	4606      	mov	r6, r0
/mnt/disk/raspbian-tee/optee_os/lib/libutee/tee_api_objects.c:265
    1316:	3308      	adds	r3, #8
/mnt/disk/raspbian-tee/optee_os/lib/libutee/tee_api_objects.c:262
    1318:	4614      	mov	r4, r2
/mnt/disk/raspbian-tee/optee_os/lib/libutee/tee_api_objects.c:265
    131a:	ebad 0d03 	sub.w	sp, sp, r3
    131e:	466d      	mov	r5, sp
/mnt/disk/raspbian-tee/optee_os/lib/libutee/tee_api_objects.c:267
    1320:	f000 ec94 	blx	1c4c <utee_cryp_obj_get_info>
/mnt/disk/raspbian-tee/optee_os/lib/libutee/tee_api_objects.c:268
    1324:	b108      	cbz	r0, 132a <TEE_PopulateTransientObject+0x26>
/mnt/disk/raspbian-tee/optee_os/lib/libutee/tee_api_objects.c:269
    1326:	f005 f959 	bl	65dc <TEE_Panic>
/mnt/disk/raspbian-tee/optee_os/lib/libutee/tee_api_objects.c:272
    132a:	69fb      	ldr	r3, [r7, #28]
    132c:	03da      	lsls	r2, r3, #15
    132e:	d502      	bpl.n	1336 <TEE_PopulateTransientObject+0x32>
/mnt/disk/raspbian-tee/optee_os/lib/libutee/tee_api_objects.c:273
    1330:	2000      	movs	r0, #0
    1332:	f005 f953 	bl	65dc <TEE_Panic>
/mnt/disk/raspbian-tee/optee_os/lib/libutee/tee_api_objects.c:276
    1336:	69fb      	ldr	r3, [r7, #28]
    1338:	039b      	lsls	r3, r3, #14
    133a:	d502      	bpl.n	1342 <TEE_PopulateTransientObject+0x3e>
/mnt/disk/raspbian-tee/optee_os/lib/libutee/tee_api_objects.c:277
    133c:	2000      	movs	r0, #0
    133e:	f005 f94d 	bl	65dc <TEE_Panic>
/mnt/disk/raspbian-tee/optee_os/lib/libutee/tee_api_objects.c:279
    1342:	4622      	mov	r2, r4
    1344:	4641      	mov	r1, r8
    1346:	4628      	mov	r0, r5
    1348:	f7ff fea8 	bl	109c <__utee_from_attr>
/mnt/disk/raspbian-tee/optee_os/lib/libutee/tee_api_objects.c:280
    134c:	4622      	mov	r2, r4
    134e:	4629      	mov	r1, r5
    1350:	4630      	mov	r0, r6
    1352:	f000 ecb8 	blx	1cc4 <utee_cryp_obj_populate>
/mnt/disk/raspbian-tee/optee_os/lib/libutee/tee_api_objects.c:281
    1356:	4604      	mov	r4, r0
    1358:	b120      	cbz	r0, 1364 <TEE_PopulateTransientObject+0x60>
/mnt/disk/raspbian-tee/optee_os/lib/libutee/tee_api_objects.c:281 (discriminator 1)
    135a:	4b05      	ldr	r3, [pc, #20]	; (1370 <TEE_PopulateTransientObject+0x6c>)
    135c:	4298      	cmp	r0, r3
    135e:	d001      	beq.n	1364 <TEE_PopulateTransientObject+0x60>
/mnt/disk/raspbian-tee/optee_os/lib/libutee/tee_api_objects.c:282
    1360:	f005 f93c 	bl	65dc <TEE_Panic>
/mnt/disk/raspbian-tee/optee_os/lib/libutee/tee_api_objects.c:284
    1364:	4620      	mov	r0, r4
    1366:	3720      	adds	r7, #32
    1368:	46bd      	mov	sp, r7
    136a:	e8bd 81f0 	ldmia.w	sp!, {r4, r5, r6, r7, r8, pc}
    136e:	bf00      	nop
    1370:	ffff0006 	.word	0xffff0006

00001374 <TEE_InitRefAttribute>:
TEE_InitRefAttribute():
/mnt/disk/raspbian-tee/optee_os/lib/libutee/tee_api_objects.c:288
    1374:	b5f8      	push	{r3, r4, r5, r6, r7, lr}
    1376:	460d      	mov	r5, r1
    1378:	4617      	mov	r7, r2
    137a:	461e      	mov	r6, r3
/mnt/disk/raspbian-tee/optee_os/lib/libutee/tee_api_objects.c:289
    137c:	4604      	mov	r4, r0
    137e:	b908      	cbnz	r0, 1384 <TEE_InitRefAttribute+0x10>
/mnt/disk/raspbian-tee/optee_os/lib/libutee/tee_api_objects.c:290
    1380:	f005 f92c 	bl	65dc <TEE_Panic>
/mnt/disk/raspbian-tee/optee_os/lib/libutee/tee_api_objects.c:291
    1384:	00ab      	lsls	r3, r5, #2
    1386:	d502      	bpl.n	138e <TEE_InitRefAttribute+0x1a>
/mnt/disk/raspbian-tee/optee_os/lib/libutee/tee_api_objects.c:292
    1388:	2000      	movs	r0, #0
    138a:	f005 f927 	bl	65dc <TEE_Panic>
/mnt/disk/raspbian-tee/optee_os/lib/libutee/tee_api_objects.c:294
    138e:	e884 00a0 	stmia.w	r4, {r5, r7}
/mnt/disk/raspbian-tee/optee_os/lib/libutee/tee_api_objects.c:295
    1392:	60a6      	str	r6, [r4, #8]
    1394:	bdf8      	pop	{r3, r4, r5, r6, r7, pc}

00001396 <TEE_InitValueAttribute>:
TEE_InitValueAttribute():
/mnt/disk/raspbian-tee/optee_os/lib/libutee/tee_api_objects.c:300
    1396:	b5f8      	push	{r3, r4, r5, r6, r7, lr}
    1398:	460d      	mov	r5, r1
    139a:	4617      	mov	r7, r2
    139c:	461e      	mov	r6, r3
/mnt/disk/raspbian-tee/optee_os/lib/libutee/tee_api_objects.c:301
    139e:	4604      	mov	r4, r0
    13a0:	b908      	cbnz	r0, 13a6 <TEE_InitValueAttribute+0x10>
/mnt/disk/raspbian-tee/optee_os/lib/libutee/tee_api_objects.c:302
    13a2:	f005 f91b 	bl	65dc <TEE_Panic>
/mnt/disk/raspbian-tee/optee_os/lib/libutee/tee_api_objects.c:303
    13a6:	f015 5000 	ands.w	r0, r5, #536870912	; 0x20000000
    13aa:	d101      	bne.n	13b0 <TEE_InitValueAttribute+0x1a>
/mnt/disk/raspbian-tee/optee_os/lib/libutee/tee_api_objects.c:304
    13ac:	f005 f916 	bl	65dc <TEE_Panic>
/mnt/disk/raspbian-tee/optee_os/lib/libutee/tee_api_objects.c:306
    13b0:	e884 00a0 	stmia.w	r4, {r5, r7}
/mnt/disk/raspbian-tee/optee_os/lib/libutee/tee_api_objects.c:307
    13b4:	60a6      	str	r6, [r4, #8]
    13b6:	bdf8      	pop	{r3, r4, r5, r6, r7, pc}

000013b8 <TEE_CopyObjectAttributes1>:
TEE_CopyObjectAttributes1():
/mnt/disk/raspbian-tee/optee_os/lib/libutee/tee_api_objects.c:333
    13b8:	b570      	push	{r4, r5, r6, lr}
    13ba:	460d      	mov	r5, r1
    13bc:	4606      	mov	r6, r0
    13be:	b08e      	sub	sp, #56	; 0x38
/mnt/disk/raspbian-tee/optee_os/lib/libutee/tee_api_objects.c:338
    13c0:	4669      	mov	r1, sp
    13c2:	f000 ec44 	blx	1c4c <utee_cryp_obj_get_info>
/mnt/disk/raspbian-tee/optee_os/lib/libutee/tee_api_objects.c:339
    13c6:	4604      	mov	r4, r0
    13c8:	b9e0      	cbnz	r0, 1404 <TEE_CopyObjectAttributes1+0x4c>
/mnt/disk/raspbian-tee/optee_os/lib/libutee/tee_api_objects.c:342
    13ca:	a907      	add	r1, sp, #28
    13cc:	4628      	mov	r0, r5
    13ce:	f000 ec3e 	blx	1c4c <utee_cryp_obj_get_info>
/mnt/disk/raspbian-tee/optee_os/lib/libutee/tee_api_objects.c:343
    13d2:	4604      	mov	r4, r0
    13d4:	b9b0      	cbnz	r0, 1404 <TEE_CopyObjectAttributes1+0x4c>
/mnt/disk/raspbian-tee/optee_os/lib/libutee/tee_api_objects.c:346
    13d6:	9b0d      	ldr	r3, [sp, #52]	; 0x34
    13d8:	0399      	lsls	r1, r3, #14
    13da:	d401      	bmi.n	13e0 <TEE_CopyObjectAttributes1+0x28>
/mnt/disk/raspbian-tee/optee_os/lib/libutee/tee_api_objects.c:347
    13dc:	f005 f8fe 	bl	65dc <TEE_Panic>
/mnt/disk/raspbian-tee/optee_os/lib/libutee/tee_api_objects.c:349
    13e0:	9b06      	ldr	r3, [sp, #24]
    13e2:	03da      	lsls	r2, r3, #15
    13e4:	d502      	bpl.n	13ec <TEE_CopyObjectAttributes1+0x34>
/mnt/disk/raspbian-tee/optee_os/lib/libutee/tee_api_objects.c:350
    13e6:	2000      	movs	r0, #0
    13e8:	f005 f8f8 	bl	65dc <TEE_Panic>
/mnt/disk/raspbian-tee/optee_os/lib/libutee/tee_api_objects.c:352
    13ec:	9b06      	ldr	r3, [sp, #24]
    13ee:	039b      	lsls	r3, r3, #14
    13f0:	d502      	bpl.n	13f8 <TEE_CopyObjectAttributes1+0x40>
/mnt/disk/raspbian-tee/optee_os/lib/libutee/tee_api_objects.c:353
    13f2:	2000      	movs	r0, #0
    13f4:	f005 f8f2 	bl	65dc <TEE_Panic>
/mnt/disk/raspbian-tee/optee_os/lib/libutee/tee_api_objects.c:355
    13f8:	4629      	mov	r1, r5
    13fa:	4630      	mov	r0, r6
    13fc:	f000 ec6c 	blx	1cd8 <utee_cryp_obj_copy>
/mnt/disk/raspbian-tee/optee_os/lib/libutee/tee_api_objects.c:359
    1400:	4604      	mov	r4, r0
    1402:	b140      	cbz	r0, 1416 <TEE_CopyObjectAttributes1+0x5e>
/mnt/disk/raspbian-tee/optee_os/lib/libutee/tee_api_objects.c:359 (discriminator 1)
    1404:	4b05      	ldr	r3, [pc, #20]	; (141c <TEE_CopyObjectAttributes1+0x64>)
    1406:	429c      	cmp	r4, r3
    1408:	d005      	beq.n	1416 <TEE_CopyObjectAttributes1+0x5e>
/mnt/disk/raspbian-tee/optee_os/lib/libutee/tee_api_objects.c:360
    140a:	3302      	adds	r3, #2
    140c:	429c      	cmp	r4, r3
    140e:	d002      	beq.n	1416 <TEE_CopyObjectAttributes1+0x5e>
/mnt/disk/raspbian-tee/optee_os/lib/libutee/tee_api_objects.c:362
    1410:	4620      	mov	r0, r4
    1412:	f005 f8e3 	bl	65dc <TEE_Panic>
/mnt/disk/raspbian-tee/optee_os/lib/libutee/tee_api_objects.c:365
    1416:	4620      	mov	r0, r4
    1418:	b00e      	add	sp, #56	; 0x38
    141a:	bd70      	pop	{r4, r5, r6, pc}
    141c:	f0100001 	.word	0xf0100001

00001420 <TEE_CopyObjectAttributes>:
TEE_CopyObjectAttributes():
/mnt/disk/raspbian-tee/optee_os/lib/libutee/tee_api_objects.c:318
    1420:	b530      	push	{r4, r5, lr}
    1422:	460c      	mov	r4, r1
    1424:	4605      	mov	r5, r0
    1426:	b089      	sub	sp, #36	; 0x24
/mnt/disk/raspbian-tee/optee_os/lib/libutee/tee_api_objects.c:322
    1428:	4620      	mov	r0, r4
    142a:	a901      	add	r1, sp, #4
    142c:	f000 ec0e 	blx	1c4c <utee_cryp_obj_get_info>
/mnt/disk/raspbian-tee/optee_os/lib/libutee/tee_api_objects.c:323
    1430:	4b06      	ldr	r3, [pc, #24]	; (144c <TEE_CopyObjectAttributes+0x2c>)
    1432:	9a01      	ldr	r2, [sp, #4]
    1434:	429a      	cmp	r2, r3
    1436:	d006      	beq.n	1446 <TEE_CopyObjectAttributes+0x26>
/mnt/disk/raspbian-tee/optee_os/lib/libutee/tee_api_objects.c:326
    1438:	4621      	mov	r1, r4
    143a:	4628      	mov	r0, r5
    143c:	f7ff ffbc 	bl	13b8 <TEE_CopyObjectAttributes1>
/mnt/disk/raspbian-tee/optee_os/lib/libutee/tee_api_objects.c:327
    1440:	b108      	cbz	r0, 1446 <TEE_CopyObjectAttributes+0x26>
/mnt/disk/raspbian-tee/optee_os/lib/libutee/tee_api_objects.c:328
    1442:	f005 f8cb 	bl	65dc <TEE_Panic>
/mnt/disk/raspbian-tee/optee_os/lib/libutee/tee_api_objects.c:329
    1446:	b009      	add	sp, #36	; 0x24
    1448:	bd30      	pop	{r4, r5, pc}
    144a:	bf00      	nop
    144c:	a00000be 	.word	0xa00000be

00001450 <TEE_GenerateKey>:
TEE_GenerateKey():
/mnt/disk/raspbian-tee/optee_os/lib/libutee/tee_api_objects.c:369
    1450:	e92d 41f0 	stmdb	sp!, {r4, r5, r6, r7, r8, lr}
    1454:	4688      	mov	r8, r1
    1456:	4611      	mov	r1, r2
/mnt/disk/raspbian-tee/optee_os/lib/libutee/tee_api_objects.c:371
    1458:	2218      	movs	r2, #24
/mnt/disk/raspbian-tee/optee_os/lib/libutee/tee_api_objects.c:369
    145a:	af00      	add	r7, sp, #0
    145c:	461c      	mov	r4, r3
    145e:	4606      	mov	r6, r0
/mnt/disk/raspbian-tee/optee_os/lib/libutee/tee_api_objects.c:371
    1460:	435a      	muls	r2, r3
    1462:	3208      	adds	r2, #8
    1464:	ebad 0d02 	sub.w	sp, sp, r2
/mnt/disk/raspbian-tee/optee_os/lib/libutee/tee_api_objects.c:373
    1468:	461a      	mov	r2, r3
    146a:	4668      	mov	r0, sp
    146c:	f7ff fe16 	bl	109c <__utee_from_attr>
/mnt/disk/raspbian-tee/optee_os/lib/libutee/tee_api_objects.c:374
    1470:	4623      	mov	r3, r4
    1472:	466a      	mov	r2, sp
    1474:	4641      	mov	r1, r8
    1476:	4630      	mov	r0, r6
    1478:	f000 ed24 	blx	1ec4 <utee_cryp_obj_generate_key>
/mnt/disk/raspbian-tee/optee_os/lib/libutee/tee_api_objects.c:377
    147c:	4604      	mov	r4, r0
    147e:	b120      	cbz	r0, 148a <TEE_GenerateKey+0x3a>
/mnt/disk/raspbian-tee/optee_os/lib/libutee/tee_api_objects.c:377 (discriminator 1)
    1480:	4b04      	ldr	r3, [pc, #16]	; (1494 <TEE_GenerateKey+0x44>)
    1482:	4298      	cmp	r0, r3
    1484:	d001      	beq.n	148a <TEE_GenerateKey+0x3a>
/mnt/disk/raspbian-tee/optee_os/lib/libutee/tee_api_objects.c:378
    1486:	f005 f8a9 	bl	65dc <TEE_Panic>
/mnt/disk/raspbian-tee/optee_os/lib/libutee/tee_api_objects.c:381
    148a:	4620      	mov	r0, r4
    148c:	46bd      	mov	sp, r7
    148e:	e8bd 81f0 	ldmia.w	sp!, {r4, r5, r6, r7, r8, pc}
    1492:	bf00      	nop
    1494:	ffff0006 	.word	0xffff0006

00001498 <TEE_OpenPersistentObject>:
TEE_OpenPersistentObject():
/mnt/disk/raspbian-tee/optee_os/lib/libutee/tee_api_objects.c:388
    1498:	b530      	push	{r4, r5, lr}
    149a:	b085      	sub	sp, #20
    149c:	9d08      	ldr	r5, [sp, #32]
/mnt/disk/raspbian-tee/optee_os/lib/libutee/tee_api_objects.c:392
    149e:	b919      	cbnz	r1, 14a8 <TEE_OpenPersistentObject+0x10>
    14a0:	4c12      	ldr	r4, [pc, #72]	; (14ec <TEE_OpenPersistentObject+0x54>)
/mnt/disk/raspbian-tee/optee_os/lib/libutee/tee_api_objects.c:422
    14a2:	4620      	mov	r0, r4
    14a4:	b005      	add	sp, #20
    14a6:	bd30      	pop	{r4, r5, pc}
/mnt/disk/raspbian-tee/optee_os/lib/libutee/tee_api_objects.c:397
    14a8:	2a40      	cmp	r2, #64	; 0x40
    14aa:	d809      	bhi.n	14c0 <TEE_OpenPersistentObject+0x28>
/mnt/disk/raspbian-tee/optee_os/lib/libutee/tee_api_objects.c:402
    14ac:	b145      	cbz	r5, 14c0 <TEE_OpenPersistentObject+0x28>
/mnt/disk/raspbian-tee/optee_os/lib/libutee/tee_api_objects.c:407
    14ae:	ac03      	add	r4, sp, #12
    14b0:	9400      	str	r4, [sp, #0]
    14b2:	f000 ec82 	blx	1db8 <utee_storage_obj_open>
/mnt/disk/raspbian-tee/optee_os/lib/libutee/tee_api_objects.c:409
    14b6:	4604      	mov	r4, r0
    14b8:	b920      	cbnz	r0, 14c4 <TEE_OpenPersistentObject+0x2c>
/mnt/disk/raspbian-tee/optee_os/lib/libutee/tee_api_objects.c:410
    14ba:	9b03      	ldr	r3, [sp, #12]
    14bc:	602b      	str	r3, [r5, #0]
    14be:	e7f0      	b.n	14a2 <TEE_OpenPersistentObject+0xa>
    14c0:	4c0b      	ldr	r4, [pc, #44]	; (14f0 <TEE_OpenPersistentObject+0x58>)
    14c2:	e00e      	b.n	14e2 <TEE_OpenPersistentObject+0x4a>
/mnt/disk/raspbian-tee/optee_os/lib/libutee/tee_api_objects.c:413
    14c4:	4b09      	ldr	r3, [pc, #36]	; (14ec <TEE_OpenPersistentObject+0x54>)
    14c6:	4298      	cmp	r0, r3
    14c8:	d0ea      	beq.n	14a0 <TEE_OpenPersistentObject+0x8>
/mnt/disk/raspbian-tee/optee_os/lib/libutee/tee_api_objects.c:414
    14ca:	4b0a      	ldr	r3, [pc, #40]	; (14f4 <TEE_OpenPersistentObject+0x5c>)
    14cc:	429c      	cmp	r4, r3
    14ce:	d0e8      	beq.n	14a2 <TEE_OpenPersistentObject+0xa>
/mnt/disk/raspbian-tee/optee_os/lib/libutee/tee_api_objects.c:415
    14d0:	3309      	adds	r3, #9
    14d2:	429c      	cmp	r4, r3
    14d4:	d0e5      	beq.n	14a2 <TEE_OpenPersistentObject+0xa>
/mnt/disk/raspbian-tee/optee_os/lib/libutee/tee_api_objects.c:416
    14d6:	4b08      	ldr	r3, [pc, #32]	; (14f8 <TEE_OpenPersistentObject+0x60>)
    14d8:	429c      	cmp	r4, r3
    14da:	d0e2      	beq.n	14a2 <TEE_OpenPersistentObject+0xa>
/mnt/disk/raspbian-tee/optee_os/lib/libutee/tee_api_objects.c:417
    14dc:	3302      	adds	r3, #2
    14de:	429c      	cmp	r4, r3
    14e0:	d0df      	beq.n	14a2 <TEE_OpenPersistentObject+0xa>
/mnt/disk/raspbian-tee/optee_os/lib/libutee/tee_api_objects.c:419
    14e2:	4620      	mov	r0, r4
    14e4:	f005 f87a 	bl	65dc <TEE_Panic>
/mnt/disk/raspbian-tee/optee_os/lib/libutee/tee_api_objects.c:421
    14e8:	e7db      	b.n	14a2 <TEE_OpenPersistentObject+0xa>
    14ea:	bf00      	nop
    14ec:	ffff0008 	.word	0xffff0008
    14f0:	ffff0006 	.word	0xffff0006
    14f4:	ffff0003 	.word	0xffff0003
    14f8:	f0100001 	.word	0xf0100001

000014fc <TEE_CreatePersistentObject>:
TEE_CreatePersistentObject():
/mnt/disk/raspbian-tee/optee_os/lib/libutee/tee_api_objects.c:430
    14fc:	b530      	push	{r4, r5, lr}
    14fe:	b087      	sub	sp, #28
    1500:	9c0d      	ldr	r4, [sp, #52]	; 0x34
/mnt/disk/raspbian-tee/optee_os/lib/libutee/tee_api_objects.c:434
    1502:	2900      	cmp	r1, #0
    1504:	d033      	beq.n	156e <TEE_CreatePersistentObject+0x72>
/mnt/disk/raspbian-tee/optee_os/lib/libutee/tee_api_objects.c:439
    1506:	2a40      	cmp	r2, #64	; 0x40
    1508:	d835      	bhi.n	1576 <TEE_CreatePersistentObject+0x7a>
/mnt/disk/raspbian-tee/optee_os/lib/libutee/tee_api_objects.c:444
    150a:	ad05      	add	r5, sp, #20
    150c:	9503      	str	r5, [sp, #12]
    150e:	9d0c      	ldr	r5, [sp, #48]	; 0x30
    1510:	9502      	str	r5, [sp, #8]
    1512:	9d0b      	ldr	r5, [sp, #44]	; 0x2c
    1514:	9501      	str	r5, [sp, #4]
    1516:	9d0a      	ldr	r5, [sp, #40]	; 0x28
    1518:	9500      	str	r5, [sp, #0]
    151a:	f000 ec5a 	blx	1dd0 <utee_storage_obj_create>
/mnt/disk/raspbian-tee/optee_os/lib/libutee/tee_api_objects.c:447
    151e:	b970      	cbnz	r0, 153e <TEE_CreatePersistentObject+0x42>
/mnt/disk/raspbian-tee/optee_os/lib/libutee/tee_api_objects.c:448
    1520:	b11c      	cbz	r4, 152a <TEE_CreatePersistentObject+0x2e>
/mnt/disk/raspbian-tee/optee_os/lib/libutee/tee_api_objects.c:449
    1522:	9b05      	ldr	r3, [sp, #20]
    1524:	6023      	str	r3, [r4, #0]
/mnt/disk/raspbian-tee/optee_os/lib/libutee/tee_api_objects.c:468
    1526:	b007      	add	sp, #28
    1528:	bd30      	pop	{r4, r5, pc}
/mnt/disk/raspbian-tee/optee_os/lib/libutee/tee_api_objects.c:451
    152a:	9805      	ldr	r0, [sp, #20]
    152c:	f000 ebb6 	blx	1c9c <utee_cryp_obj_close>
/mnt/disk/raspbian-tee/optee_os/lib/libutee/tee_api_objects.c:452
    1530:	2800      	cmp	r0, #0
    1532:	d0f8      	beq.n	1526 <TEE_CreatePersistentObject+0x2a>
/mnt/disk/raspbian-tee/optee_os/lib/libutee/tee_api_objects.c:458
    1534:	4b12      	ldr	r3, [pc, #72]	; (1580 <TEE_CreatePersistentObject+0x84>)
    1536:	4298      	cmp	r0, r3
    1538:	d106      	bne.n	1548 <TEE_CreatePersistentObject+0x4c>
/mnt/disk/raspbian-tee/optee_os/lib/libutee/tee_api_objects.c:467
    153a:	4811      	ldr	r0, [pc, #68]	; (1580 <TEE_CreatePersistentObject+0x84>)
    153c:	e7f3      	b.n	1526 <TEE_CreatePersistentObject+0x2a>
/mnt/disk/raspbian-tee/optee_os/lib/libutee/tee_api_objects.c:456
    153e:	2c00      	cmp	r4, #0
    1540:	d0f8      	beq.n	1534 <TEE_CreatePersistentObject+0x38>
/mnt/disk/raspbian-tee/optee_os/lib/libutee/tee_api_objects.c:457
    1542:	2300      	movs	r3, #0
    1544:	6023      	str	r3, [r4, #0]
    1546:	e7f5      	b.n	1534 <TEE_CreatePersistentObject+0x38>
/mnt/disk/raspbian-tee/optee_os/lib/libutee/tee_api_objects.c:458 (discriminator 1)
    1548:	4b0e      	ldr	r3, [pc, #56]	; (1584 <TEE_CreatePersistentObject+0x88>)
    154a:	4298      	cmp	r0, r3
    154c:	d0eb      	beq.n	1526 <TEE_CreatePersistentObject+0x2a>
/mnt/disk/raspbian-tee/optee_os/lib/libutee/tee_api_objects.c:459
    154e:	3309      	adds	r3, #9
    1550:	4298      	cmp	r0, r3
    1552:	d0e8      	beq.n	1526 <TEE_CreatePersistentObject+0x2a>
/mnt/disk/raspbian-tee/optee_os/lib/libutee/tee_api_objects.c:460
    1554:	4b0c      	ldr	r3, [pc, #48]	; (1588 <TEE_CreatePersistentObject+0x8c>)
    1556:	4298      	cmp	r0, r3
    1558:	d0e5      	beq.n	1526 <TEE_CreatePersistentObject+0x2a>
/mnt/disk/raspbian-tee/optee_os/lib/libutee/tee_api_objects.c:461
    155a:	4b0c      	ldr	r3, [pc, #48]	; (158c <TEE_CreatePersistentObject+0x90>)
    155c:	4298      	cmp	r0, r3
    155e:	d0e2      	beq.n	1526 <TEE_CreatePersistentObject+0x2a>
/mnt/disk/raspbian-tee/optee_os/lib/libutee/tee_api_objects.c:462
    1560:	3302      	adds	r3, #2
    1562:	4298      	cmp	r0, r3
    1564:	d0df      	beq.n	1526 <TEE_CreatePersistentObject+0x2a>
/mnt/disk/raspbian-tee/optee_os/lib/libutee/tee_api_objects.c:465
    1566:	f005 f839 	bl	65dc <TEE_Panic>
/mnt/disk/raspbian-tee/optee_os/lib/libutee/tee_api_objects.c:467
    156a:	2000      	movs	r0, #0
    156c:	e7db      	b.n	1526 <TEE_CreatePersistentObject+0x2a>
/mnt/disk/raspbian-tee/optee_os/lib/libutee/tee_api_objects.c:456
    156e:	2c00      	cmp	r4, #0
    1570:	d0e3      	beq.n	153a <TEE_CreatePersistentObject+0x3e>
/mnt/disk/raspbian-tee/optee_os/lib/libutee/tee_api_objects.c:435
    1572:	4803      	ldr	r0, [pc, #12]	; (1580 <TEE_CreatePersistentObject+0x84>)
    1574:	e7e5      	b.n	1542 <TEE_CreatePersistentObject+0x46>
/mnt/disk/raspbian-tee/optee_os/lib/libutee/tee_api_objects.c:440
    1576:	4806      	ldr	r0, [pc, #24]	; (1590 <TEE_CreatePersistentObject+0x94>)
/mnt/disk/raspbian-tee/optee_os/lib/libutee/tee_api_objects.c:456
    1578:	2c00      	cmp	r4, #0
    157a:	d1e2      	bne.n	1542 <TEE_CreatePersistentObject+0x46>
    157c:	e7f3      	b.n	1566 <TEE_CreatePersistentObject+0x6a>
    157e:	bf00      	nop
    1580:	ffff0008 	.word	0xffff0008
    1584:	ffff0003 	.word	0xffff0003
    1588:	ffff3041 	.word	0xffff3041
    158c:	f0100001 	.word	0xf0100001
    1590:	ffff0006 	.word	0xffff0006

00001594 <TEE_CloseAndDeletePersistentObject1>:
TEE_CloseAndDeletePersistentObject1():
/mnt/disk/raspbian-tee/optee_os/lib/libutee/tee_api_objects.c:490
    1594:	b510      	push	{r4, lr}
/mnt/disk/raspbian-tee/optee_os/lib/libutee/tee_api_objects.c:493
    1596:	b150      	cbz	r0, 15ae <TEE_CloseAndDeletePersistentObject1+0x1a>
/mnt/disk/raspbian-tee/optee_os/lib/libutee/tee_api_objects.c:496
    1598:	f000 ec26 	blx	1de8 <utee_storage_obj_del>
/mnt/disk/raspbian-tee/optee_os/lib/libutee/tee_api_objects.c:498
    159c:	4604      	mov	r4, r0
    159e:	b120      	cbz	r0, 15aa <TEE_CloseAndDeletePersistentObject1+0x16>
    15a0:	4b04      	ldr	r3, [pc, #16]	; (15b4 <TEE_CloseAndDeletePersistentObject1+0x20>)
    15a2:	4298      	cmp	r0, r3
    15a4:	d001      	beq.n	15aa <TEE_CloseAndDeletePersistentObject1+0x16>
/mnt/disk/raspbian-tee/optee_os/lib/libutee/tee_api_objects.c:499
    15a6:	f005 f819 	bl	65dc <TEE_Panic>
/mnt/disk/raspbian-tee/optee_os/lib/libutee/tee_api_objects.c:502
    15aa:	4620      	mov	r0, r4
    15ac:	bd10      	pop	{r4, pc}
/mnt/disk/raspbian-tee/optee_os/lib/libutee/tee_api_objects.c:494
    15ae:	4c01      	ldr	r4, [pc, #4]	; (15b4 <TEE_CloseAndDeletePersistentObject1+0x20>)
    15b0:	e7fb      	b.n	15aa <TEE_CloseAndDeletePersistentObject1+0x16>
    15b2:	bf00      	nop
    15b4:	f0100003 	.word	0xf0100003

000015b8 <TEE_CloseAndDeletePersistentObject>:
TEE_CloseAndDeletePersistentObject():
/mnt/disk/raspbian-tee/optee_os/lib/libutee/tee_api_objects.c:477
    15b8:	b508      	push	{r3, lr}
/mnt/disk/raspbian-tee/optee_os/lib/libutee/tee_api_objects.c:480
    15ba:	b138      	cbz	r0, 15cc <TEE_CloseAndDeletePersistentObject+0x14>
/mnt/disk/raspbian-tee/optee_os/lib/libutee/tee_api_objects.c:483
    15bc:	f7ff ffea 	bl	1594 <TEE_CloseAndDeletePersistentObject1>
/mnt/disk/raspbian-tee/optee_os/lib/libutee/tee_api_objects.c:485
    15c0:	b120      	cbz	r0, 15cc <TEE_CloseAndDeletePersistentObject+0x14>
/mnt/disk/raspbian-tee/optee_os/lib/libutee/tee_api_objects.c:486
    15c2:	2000      	movs	r0, #0
/mnt/disk/raspbian-tee/optee_os/lib/libutee/tee_api_objects.c:487
    15c4:	e8bd 4008 	ldmia.w	sp!, {r3, lr}
/mnt/disk/raspbian-tee/optee_os/lib/libutee/tee_api_objects.c:486
    15c8:	f005 b808 	b.w	65dc <TEE_Panic>
    15cc:	bd08      	pop	{r3, pc}

000015ce <TEE_RenamePersistentObject>:
TEE_RenamePersistentObject():
/mnt/disk/raspbian-tee/optee_os/lib/libutee/tee_api_objects.c:508
    15ce:	b510      	push	{r4, lr}
/mnt/disk/raspbian-tee/optee_os/lib/libutee/tee_api_objects.c:511
    15d0:	b1a0      	cbz	r0, 15fc <TEE_RenamePersistentObject+0x2e>
/mnt/disk/raspbian-tee/optee_os/lib/libutee/tee_api_objects.c:516
    15d2:	b1a9      	cbz	r1, 1600 <TEE_RenamePersistentObject+0x32>
/mnt/disk/raspbian-tee/optee_os/lib/libutee/tee_api_objects.c:521
    15d4:	2a40      	cmp	r2, #64	; 0x40
    15d6:	d813      	bhi.n	1600 <TEE_RenamePersistentObject+0x32>
/mnt/disk/raspbian-tee/optee_os/lib/libutee/tee_api_objects.c:526
    15d8:	f000 ec10 	blx	1dfc <utee_storage_obj_rename>
/mnt/disk/raspbian-tee/optee_os/lib/libutee/tee_api_objects.c:530
    15dc:	4604      	mov	r4, r0
    15de:	b158      	cbz	r0, 15f8 <TEE_RenamePersistentObject+0x2a>
/mnt/disk/raspbian-tee/optee_os/lib/libutee/tee_api_objects.c:530 (discriminator 1)
    15e0:	4b08      	ldr	r3, [pc, #32]	; (1604 <TEE_RenamePersistentObject+0x36>)
    15e2:	4298      	cmp	r0, r3
    15e4:	d008      	beq.n	15f8 <TEE_RenamePersistentObject+0x2a>
/mnt/disk/raspbian-tee/optee_os/lib/libutee/tee_api_objects.c:531
    15e6:	4b08      	ldr	r3, [pc, #32]	; (1608 <TEE_RenamePersistentObject+0x3a>)
    15e8:	4298      	cmp	r0, r3
    15ea:	d005      	beq.n	15f8 <TEE_RenamePersistentObject+0x2a>
/mnt/disk/raspbian-tee/optee_os/lib/libutee/tee_api_objects.c:532
    15ec:	3302      	adds	r3, #2
    15ee:	4298      	cmp	r0, r3
    15f0:	d002      	beq.n	15f8 <TEE_RenamePersistentObject+0x2a>
/mnt/disk/raspbian-tee/optee_os/lib/libutee/tee_api_objects.c:534
    15f2:	4620      	mov	r0, r4
    15f4:	f004 fff2 	bl	65dc <TEE_Panic>
/mnt/disk/raspbian-tee/optee_os/lib/libutee/tee_api_objects.c:537
    15f8:	4620      	mov	r0, r4
    15fa:	bd10      	pop	{r4, pc}
/mnt/disk/raspbian-tee/optee_os/lib/libutee/tee_api_objects.c:512
    15fc:	4c03      	ldr	r4, [pc, #12]	; (160c <TEE_RenamePersistentObject+0x3e>)
    15fe:	e7f8      	b.n	15f2 <TEE_RenamePersistentObject+0x24>
/mnt/disk/raspbian-tee/optee_os/lib/libutee/tee_api_objects.c:517
    1600:	4c03      	ldr	r4, [pc, #12]	; (1610 <TEE_RenamePersistentObject+0x42>)
    1602:	e7f6      	b.n	15f2 <TEE_RenamePersistentObject+0x24>
    1604:	ffff0003 	.word	0xffff0003
    1608:	f0100001 	.word	0xf0100001
    160c:	ffff0008 	.word	0xffff0008
    1610:	ffff0006 	.word	0xffff0006

00001614 <TEE_AllocatePersistentObjectEnumerator>:
TEE_AllocatePersistentObjectEnumerator():
/mnt/disk/raspbian-tee/optee_os/lib/libutee/tee_api_objects.c:541
    1614:	b537      	push	{r0, r1, r2, r4, r5, lr}
/mnt/disk/raspbian-tee/optee_os/lib/libutee/tee_api_objects.c:545
    1616:	4605      	mov	r5, r0
    1618:	b190      	cbz	r0, 1640 <TEE_AllocatePersistentObjectEnumerator+0x2c>
/mnt/disk/raspbian-tee/optee_os/lib/libutee/tee_api_objects.c:548
    161a:	a801      	add	r0, sp, #4
    161c:	f000 ebf8 	blx	1e10 <utee_storage_alloc_enum>
/mnt/disk/raspbian-tee/optee_os/lib/libutee/tee_api_objects.c:550
    1620:	4604      	mov	r4, r0
    1622:	b108      	cbz	r0, 1628 <TEE_AllocatePersistentObjectEnumerator+0x14>
/mnt/disk/raspbian-tee/optee_os/lib/libutee/tee_api_objects.c:551
    1624:	2300      	movs	r3, #0
    1626:	9301      	str	r3, [sp, #4]
/mnt/disk/raspbian-tee/optee_os/lib/libutee/tee_api_objects.c:553
    1628:	9b01      	ldr	r3, [sp, #4]
    162a:	602b      	str	r3, [r5, #0]
/mnt/disk/raspbian-tee/optee_os/lib/libutee/tee_api_objects.c:555
    162c:	b12c      	cbz	r4, 163a <TEE_AllocatePersistentObjectEnumerator+0x26>
/mnt/disk/raspbian-tee/optee_os/lib/libutee/tee_api_objects.c:555 (discriminator 1)
    162e:	4b05      	ldr	r3, [pc, #20]	; (1644 <TEE_AllocatePersistentObjectEnumerator+0x30>)
    1630:	429c      	cmp	r4, r3
    1632:	d002      	beq.n	163a <TEE_AllocatePersistentObjectEnumerator+0x26>
/mnt/disk/raspbian-tee/optee_os/lib/libutee/tee_api_objects.c:557
    1634:	4620      	mov	r0, r4
    1636:	f004 ffd1 	bl	65dc <TEE_Panic>
/mnt/disk/raspbian-tee/optee_os/lib/libutee/tee_api_objects.c:560
    163a:	4620      	mov	r0, r4
    163c:	b003      	add	sp, #12
    163e:	bd30      	pop	{r4, r5, pc}
/mnt/disk/raspbian-tee/optee_os/lib/libutee/tee_api_objects.c:546
    1640:	4c01      	ldr	r4, [pc, #4]	; (1648 <TEE_AllocatePersistentObjectEnumerator+0x34>)
    1642:	e7fa      	b.n	163a <TEE_AllocatePersistentObjectEnumerator+0x26>
    1644:	ffff0003 	.word	0xffff0003
    1648:	ffff0006 	.word	0xffff0006

0000164c <TEE_FreePersistentObjectEnumerator>:
TEE_FreePersistentObjectEnumerator():
/mnt/disk/raspbian-tee/optee_os/lib/libutee/tee_api_objects.c:563
    164c:	b508      	push	{r3, lr}
/mnt/disk/raspbian-tee/optee_os/lib/libutee/tee_api_objects.c:566
    164e:	b130      	cbz	r0, 165e <TEE_FreePersistentObjectEnumerator+0x12>
/mnt/disk/raspbian-tee/optee_os/lib/libutee/tee_api_objects.c:569
    1650:	f000 ebe8 	blx	1e24 <utee_storage_free_enum>
/mnt/disk/raspbian-tee/optee_os/lib/libutee/tee_api_objects.c:571
    1654:	b118      	cbz	r0, 165e <TEE_FreePersistentObjectEnumerator+0x12>
/mnt/disk/raspbian-tee/optee_os/lib/libutee/tee_api_objects.c:573
    1656:	e8bd 4008 	ldmia.w	sp!, {r3, lr}
/mnt/disk/raspbian-tee/optee_os/lib/libutee/tee_api_objects.c:572
    165a:	f004 bfbf 	b.w	65dc <TEE_Panic>
    165e:	bd08      	pop	{r3, pc}

00001660 <TEE_ResetPersistentObjectEnumerator>:
TEE_ResetPersistentObjectEnumerator():
/mnt/disk/raspbian-tee/optee_os/lib/libutee/tee_api_objects.c:576
    1660:	b508      	push	{r3, lr}
/mnt/disk/raspbian-tee/optee_os/lib/libutee/tee_api_objects.c:579
    1662:	b130      	cbz	r0, 1672 <TEE_ResetPersistentObjectEnumerator+0x12>
/mnt/disk/raspbian-tee/optee_os/lib/libutee/tee_api_objects.c:582
    1664:	f000 ebe8 	blx	1e38 <utee_storage_reset_enum>
/mnt/disk/raspbian-tee/optee_os/lib/libutee/tee_api_objects.c:584
    1668:	b118      	cbz	r0, 1672 <TEE_ResetPersistentObjectEnumerator+0x12>
/mnt/disk/raspbian-tee/optee_os/lib/libutee/tee_api_objects.c:586
    166a:	e8bd 4008 	ldmia.w	sp!, {r3, lr}
/mnt/disk/raspbian-tee/optee_os/lib/libutee/tee_api_objects.c:585
    166e:	f004 bfb5 	b.w	65dc <TEE_Panic>
    1672:	bd08      	pop	{r3, pc}

00001674 <TEE_StartPersistentObjectEnumerator>:
TEE_StartPersistentObjectEnumerator():
/mnt/disk/raspbian-tee/optee_os/lib/libutee/tee_api_objects.c:591
    1674:	b510      	push	{r4, lr}
/mnt/disk/raspbian-tee/optee_os/lib/libutee/tee_api_objects.c:594
    1676:	f000 ebea 	blx	1e4c <utee_storage_start_enum>
/mnt/disk/raspbian-tee/optee_os/lib/libutee/tee_api_objects.c:597
    167a:	4604      	mov	r4, r0
    167c:	b148      	cbz	r0, 1692 <TEE_StartPersistentObjectEnumerator+0x1e>
/mnt/disk/raspbian-tee/optee_os/lib/libutee/tee_api_objects.c:597 (discriminator 1)
    167e:	4b06      	ldr	r3, [pc, #24]	; (1698 <TEE_StartPersistentObjectEnumerator+0x24>)
    1680:	4298      	cmp	r0, r3
    1682:	d006      	beq.n	1692 <TEE_StartPersistentObjectEnumerator+0x1e>
/mnt/disk/raspbian-tee/optee_os/lib/libutee/tee_api_objects.c:598
    1684:	4b05      	ldr	r3, [pc, #20]	; (169c <TEE_StartPersistentObjectEnumerator+0x28>)
    1686:	f020 0202 	bic.w	r2, r0, #2
    168a:	429a      	cmp	r2, r3
    168c:	d001      	beq.n	1692 <TEE_StartPersistentObjectEnumerator+0x1e>
/mnt/disk/raspbian-tee/optee_os/lib/libutee/tee_api_objects.c:601
    168e:	f004 ffa5 	bl	65dc <TEE_Panic>
/mnt/disk/raspbian-tee/optee_os/lib/libutee/tee_api_objects.c:604
    1692:	4620      	mov	r0, r4
    1694:	bd10      	pop	{r4, pc}
    1696:	bf00      	nop
    1698:	ffff0008 	.word	0xffff0008
    169c:	f0100001 	.word	0xf0100001

000016a0 <TEE_GetNextPersistentObject>:
TEE_GetNextPersistentObject():
/mnt/disk/raspbian-tee/optee_os/lib/libutee/tee_api_objects.c:609
    16a0:	b510      	push	{r4, lr}
    16a2:	461c      	mov	r4, r3
    16a4:	b08a      	sub	sp, #40	; 0x28
/mnt/disk/raspbian-tee/optee_os/lib/libutee/tee_api_objects.c:615
    16a6:	b1e2      	cbz	r2, 16e2 <TEE_GetNextPersistentObject+0x42>
/mnt/disk/raspbian-tee/optee_os/lib/libutee/tee_api_objects.c:620
    16a8:	b1db      	cbz	r3, 16e2 <TEE_GetNextPersistentObject+0x42>
/mnt/disk/raspbian-tee/optee_os/lib/libutee/tee_api_objects.c:625
    16aa:	b901      	cbnz	r1, 16ae <TEE_GetNextPersistentObject+0xe>
/mnt/disk/raspbian-tee/optee_os/lib/libutee/tee_api_objects.c:628
    16ac:	a903      	add	r1, sp, #12
/mnt/disk/raspbian-tee/optee_os/lib/libutee/tee_api_objects.c:629
    16ae:	6823      	ldr	r3, [r4, #0]
    16b0:	9300      	str	r3, [sp, #0]
    16b2:	2300      	movs	r3, #0
    16b4:	9301      	str	r3, [sp, #4]
/mnt/disk/raspbian-tee/optee_os/lib/libutee/tee_api_objects.c:630
    16b6:	466b      	mov	r3, sp
    16b8:	f000 ebd2 	blx	1e60 <utee_storage_next_enum>
/mnt/disk/raspbian-tee/optee_os/lib/libutee/tee_api_objects.c:632
    16bc:	9b00      	ldr	r3, [sp, #0]
    16be:	6023      	str	r3, [r4, #0]
/mnt/disk/raspbian-tee/optee_os/lib/libutee/tee_api_objects.c:635
    16c0:	4604      	mov	r4, r0
    16c2:	b158      	cbz	r0, 16dc <TEE_GetNextPersistentObject+0x3c>
/mnt/disk/raspbian-tee/optee_os/lib/libutee/tee_api_objects.c:635 (discriminator 1)
    16c4:	4b08      	ldr	r3, [pc, #32]	; (16e8 <TEE_GetNextPersistentObject+0x48>)
    16c6:	4298      	cmp	r0, r3
    16c8:	d008      	beq.n	16dc <TEE_GetNextPersistentObject+0x3c>
/mnt/disk/raspbian-tee/optee_os/lib/libutee/tee_api_objects.c:636
    16ca:	4b08      	ldr	r3, [pc, #32]	; (16ec <TEE_GetNextPersistentObject+0x4c>)
    16cc:	4298      	cmp	r0, r3
    16ce:	d005      	beq.n	16dc <TEE_GetNextPersistentObject+0x3c>
/mnt/disk/raspbian-tee/optee_os/lib/libutee/tee_api_objects.c:637
    16d0:	3302      	adds	r3, #2
    16d2:	4298      	cmp	r0, r3
    16d4:	d002      	beq.n	16dc <TEE_GetNextPersistentObject+0x3c>
/mnt/disk/raspbian-tee/optee_os/lib/libutee/tee_api_objects.c:639
    16d6:	4620      	mov	r0, r4
    16d8:	f004 ff80 	bl	65dc <TEE_Panic>
/mnt/disk/raspbian-tee/optee_os/lib/libutee/tee_api_objects.c:642
    16dc:	4620      	mov	r0, r4
    16de:	b00a      	add	sp, #40	; 0x28
    16e0:	bd10      	pop	{r4, pc}
    16e2:	4c03      	ldr	r4, [pc, #12]	; (16f0 <TEE_GetNextPersistentObject+0x50>)
    16e4:	e7f7      	b.n	16d6 <TEE_GetNextPersistentObject+0x36>
    16e6:	bf00      	nop
    16e8:	ffff0008 	.word	0xffff0008
    16ec:	f0100001 	.word	0xf0100001
    16f0:	ffff0006 	.word	0xffff0006

000016f4 <TEE_ReadObjectData>:
TEE_ReadObjectData():
/mnt/disk/raspbian-tee/optee_os/lib/libutee/tee_api_objects.c:648
    16f4:	b513      	push	{r0, r1, r4, lr}
    16f6:	461c      	mov	r4, r3
/mnt/disk/raspbian-tee/optee_os/lib/libutee/tee_api_objects.c:652
    16f8:	b1b0      	cbz	r0, 1728 <TEE_ReadObjectData+0x34>
/mnt/disk/raspbian-tee/optee_os/lib/libutee/tee_api_objects.c:657
    16fa:	681b      	ldr	r3, [r3, #0]
    16fc:	9300      	str	r3, [sp, #0]
    16fe:	2300      	movs	r3, #0
    1700:	9301      	str	r3, [sp, #4]
/mnt/disk/raspbian-tee/optee_os/lib/libutee/tee_api_objects.c:658
    1702:	466b      	mov	r3, sp
    1704:	f000 ebb6 	blx	1e74 <utee_storage_obj_read>
/mnt/disk/raspbian-tee/optee_os/lib/libutee/tee_api_objects.c:660
    1708:	9b00      	ldr	r3, [sp, #0]
    170a:	6023      	str	r3, [r4, #0]
/mnt/disk/raspbian-tee/optee_os/lib/libutee/tee_api_objects.c:663
    170c:	4604      	mov	r4, r0
    170e:	b140      	cbz	r0, 1722 <TEE_ReadObjectData+0x2e>
/mnt/disk/raspbian-tee/optee_os/lib/libutee/tee_api_objects.c:663 (discriminator 1)
    1710:	4b06      	ldr	r3, [pc, #24]	; (172c <TEE_ReadObjectData+0x38>)
    1712:	4298      	cmp	r0, r3
    1714:	d005      	beq.n	1722 <TEE_ReadObjectData+0x2e>
/mnt/disk/raspbian-tee/optee_os/lib/libutee/tee_api_objects.c:664
    1716:	3302      	adds	r3, #2
    1718:	4298      	cmp	r0, r3
    171a:	d002      	beq.n	1722 <TEE_ReadObjectData+0x2e>
/mnt/disk/raspbian-tee/optee_os/lib/libutee/tee_api_objects.c:666
    171c:	4620      	mov	r0, r4
    171e:	f004 ff5d 	bl	65dc <TEE_Panic>
/mnt/disk/raspbian-tee/optee_os/lib/libutee/tee_api_objects.c:669
    1722:	4620      	mov	r0, r4
    1724:	b002      	add	sp, #8
    1726:	bd10      	pop	{r4, pc}
/mnt/disk/raspbian-tee/optee_os/lib/libutee/tee_api_objects.c:653
    1728:	4c01      	ldr	r4, [pc, #4]	; (1730 <TEE_ReadObjectData+0x3c>)
    172a:	e7f7      	b.n	171c <TEE_ReadObjectData+0x28>
    172c:	f0100001 	.word	0xf0100001
    1730:	ffff0006 	.word	0xffff0006

00001734 <TEE_WriteObjectData>:
TEE_WriteObjectData():
/mnt/disk/raspbian-tee/optee_os/lib/libutee/tee_api_objects.c:673
    1734:	b510      	push	{r4, lr}
/mnt/disk/raspbian-tee/optee_os/lib/libutee/tee_api_objects.c:676
    1736:	b1a0      	cbz	r0, 1762 <TEE_WriteObjectData+0x2e>
/mnt/disk/raspbian-tee/optee_os/lib/libutee/tee_api_objects.c:686
    1738:	f000 eba6 	blx	1e88 <utee_storage_obj_write>
/mnt/disk/raspbian-tee/optee_os/lib/libutee/tee_api_objects.c:689
    173c:	4604      	mov	r4, r0
    173e:	b170      	cbz	r0, 175e <TEE_WriteObjectData+0x2a>
/mnt/disk/raspbian-tee/optee_os/lib/libutee/tee_api_objects.c:689 (discriminator 1)
    1740:	4b09      	ldr	r3, [pc, #36]	; (1768 <TEE_WriteObjectData+0x34>)
    1742:	4298      	cmp	r0, r3
    1744:	d00b      	beq.n	175e <TEE_WriteObjectData+0x2a>
/mnt/disk/raspbian-tee/optee_os/lib/libutee/tee_api_objects.c:690
    1746:	3b32      	subs	r3, #50	; 0x32
    1748:	4298      	cmp	r0, r3
    174a:	d008      	beq.n	175e <TEE_WriteObjectData+0x2a>
/mnt/disk/raspbian-tee/optee_os/lib/libutee/tee_api_objects.c:691
    174c:	4b07      	ldr	r3, [pc, #28]	; (176c <TEE_WriteObjectData+0x38>)
    174e:	4298      	cmp	r0, r3
    1750:	d005      	beq.n	175e <TEE_WriteObjectData+0x2a>
/mnt/disk/raspbian-tee/optee_os/lib/libutee/tee_api_objects.c:692
    1752:	3302      	adds	r3, #2
    1754:	4298      	cmp	r0, r3
    1756:	d002      	beq.n	175e <TEE_WriteObjectData+0x2a>
/mnt/disk/raspbian-tee/optee_os/lib/libutee/tee_api_objects.c:694
    1758:	4620      	mov	r0, r4
    175a:	f004 ff3f 	bl	65dc <TEE_Panic>
/mnt/disk/raspbian-tee/optee_os/lib/libutee/tee_api_objects.c:697
    175e:	4620      	mov	r0, r4
    1760:	bd10      	pop	{r4, pc}
/mnt/disk/raspbian-tee/optee_os/lib/libutee/tee_api_objects.c:677
    1762:	4c03      	ldr	r4, [pc, #12]	; (1770 <TEE_WriteObjectData+0x3c>)
    1764:	e7f8      	b.n	1758 <TEE_WriteObjectData+0x24>
    1766:	bf00      	nop
    1768:	ffff3041 	.word	0xffff3041
    176c:	f0100001 	.word	0xf0100001
    1770:	ffff0006 	.word	0xffff0006

00001774 <TEE_TruncateObjectData>:
TEE_TruncateObjectData():
/mnt/disk/raspbian-tee/optee_os/lib/libutee/tee_api_objects.c:700
    1774:	b510      	push	{r4, lr}
/mnt/disk/raspbian-tee/optee_os/lib/libutee/tee_api_objects.c:703
    1776:	b188      	cbz	r0, 179c <TEE_TruncateObjectData+0x28>
/mnt/disk/raspbian-tee/optee_os/lib/libutee/tee_api_objects.c:708
    1778:	f000 eb90 	blx	1e9c <utee_storage_obj_trunc>
/mnt/disk/raspbian-tee/optee_os/lib/libutee/tee_api_objects.c:711
    177c:	4604      	mov	r4, r0
    177e:	b158      	cbz	r0, 1798 <TEE_TruncateObjectData+0x24>
/mnt/disk/raspbian-tee/optee_os/lib/libutee/tee_api_objects.c:711 (discriminator 1)
    1780:	4b07      	ldr	r3, [pc, #28]	; (17a0 <TEE_TruncateObjectData+0x2c>)
    1782:	4298      	cmp	r0, r3
    1784:	d008      	beq.n	1798 <TEE_TruncateObjectData+0x24>
/mnt/disk/raspbian-tee/optee_os/lib/libutee/tee_api_objects.c:712
    1786:	4b07      	ldr	r3, [pc, #28]	; (17a4 <TEE_TruncateObjectData+0x30>)
    1788:	4298      	cmp	r0, r3
    178a:	d005      	beq.n	1798 <TEE_TruncateObjectData+0x24>
/mnt/disk/raspbian-tee/optee_os/lib/libutee/tee_api_objects.c:713
    178c:	3302      	adds	r3, #2
    178e:	4298      	cmp	r0, r3
    1790:	d002      	beq.n	1798 <TEE_TruncateObjectData+0x24>
/mnt/disk/raspbian-tee/optee_os/lib/libutee/tee_api_objects.c:715
    1792:	4620      	mov	r0, r4
    1794:	f004 ff22 	bl	65dc <TEE_Panic>
/mnt/disk/raspbian-tee/optee_os/lib/libutee/tee_api_objects.c:718
    1798:	4620      	mov	r0, r4
    179a:	bd10      	pop	{r4, pc}
/mnt/disk/raspbian-tee/optee_os/lib/libutee/tee_api_objects.c:704
    179c:	4c02      	ldr	r4, [pc, #8]	; (17a8 <TEE_TruncateObjectData+0x34>)
    179e:	e7f8      	b.n	1792 <TEE_TruncateObjectData+0x1e>
    17a0:	ffff3041 	.word	0xffff3041
    17a4:	f0100001 	.word	0xf0100001
    17a8:	ffff0006 	.word	0xffff0006

000017ac <TEE_SeekObjectData>:
TEE_SeekObjectData():
/mnt/disk/raspbian-tee/optee_os/lib/libutee/tee_api_objects.c:722
    17ac:	b5f0      	push	{r4, r5, r6, r7, lr}
    17ae:	460d      	mov	r5, r1
    17b0:	4616      	mov	r6, r2
    17b2:	b089      	sub	sp, #36	; 0x24
/mnt/disk/raspbian-tee/optee_os/lib/libutee/tee_api_objects.c:726
    17b4:	4607      	mov	r7, r0
    17b6:	b368      	cbz	r0, 1814 <TEE_SeekObjectData+0x68>
/mnt/disk/raspbian-tee/optee_os/lib/libutee/tee_api_objects.c:731
    17b8:	a901      	add	r1, sp, #4
    17ba:	f000 ea48 	blx	1c4c <utee_cryp_obj_get_info>
/mnt/disk/raspbian-tee/optee_os/lib/libutee/tee_api_objects.c:732
    17be:	4604      	mov	r4, r0
    17c0:	b9d8      	cbnz	r0, 17fa <TEE_SeekObjectData+0x4e>
/mnt/disk/raspbian-tee/optee_os/lib/libutee/tee_api_objects.c:735
    17c2:	2e01      	cmp	r6, #1
    17c4:	d004      	beq.n	17d0 <TEE_SeekObjectData+0x24>
    17c6:	d310      	bcc.n	17ea <TEE_SeekObjectData+0x3e>
    17c8:	2e02      	cmp	r6, #2
    17ca:	d00a      	beq.n	17e2 <TEE_SeekObjectData+0x36>
/mnt/disk/raspbian-tee/optee_os/lib/libutee/tee_api_objects.c:761
    17cc:	4c12      	ldr	r4, [pc, #72]	; (1818 <TEE_SeekObjectData+0x6c>)
    17ce:	e017      	b.n	1800 <TEE_SeekObjectData+0x54>
/mnt/disk/raspbian-tee/optee_os/lib/libutee/tee_api_objects.c:743
    17d0:	2d00      	cmp	r5, #0
    17d2:	dd0a      	ble.n	17ea <TEE_SeekObjectData+0x3e>
/mnt/disk/raspbian-tee/optee_os/lib/libutee/tee_api_objects.c:743 (discriminator 1)
    17d4:	9b06      	ldr	r3, [sp, #24]
    17d6:	42dd      	cmn	r5, r3
    17d8:	d307      	bcc.n	17ea <TEE_SeekObjectData+0x3e>
/mnt/disk/raspbian-tee/optee_os/lib/libutee/tee_api_objects.c:727
    17da:	4c10      	ldr	r4, [pc, #64]	; (181c <TEE_SeekObjectData+0x70>)
/mnt/disk/raspbian-tee/optee_os/lib/libutee/tee_api_objects.c:775
    17dc:	4620      	mov	r0, r4
    17de:	b009      	add	sp, #36	; 0x24
    17e0:	bdf0      	pop	{r4, r5, r6, r7, pc}
/mnt/disk/raspbian-tee/optee_os/lib/libutee/tee_api_objects.c:753
    17e2:	2d00      	cmp	r5, #0
    17e4:	dd01      	ble.n	17ea <TEE_SeekObjectData+0x3e>
/mnt/disk/raspbian-tee/optee_os/lib/libutee/tee_api_objects.c:753 (discriminator 1)
    17e6:	9b05      	ldr	r3, [sp, #20]
    17e8:	e7f5      	b.n	17d6 <TEE_SeekObjectData+0x2a>
/mnt/disk/raspbian-tee/optee_os/lib/libutee/tee_api_objects.c:765
    17ea:	4632      	mov	r2, r6
    17ec:	4629      	mov	r1, r5
    17ee:	4638      	mov	r0, r7
    17f0:	f000 eb5e 	blx	1eb0 <utee_storage_obj_seek>
/mnt/disk/raspbian-tee/optee_os/lib/libutee/tee_api_objects.c:768
    17f4:	4604      	mov	r4, r0
    17f6:	2800      	cmp	r0, #0
    17f8:	d0f0      	beq.n	17dc <TEE_SeekObjectData+0x30>
/mnt/disk/raspbian-tee/optee_os/lib/libutee/tee_api_objects.c:768 (discriminator 1)
    17fa:	4b08      	ldr	r3, [pc, #32]	; (181c <TEE_SeekObjectData+0x70>)
    17fc:	429c      	cmp	r4, r3
    17fe:	d0ec      	beq.n	17da <TEE_SeekObjectData+0x2e>
/mnt/disk/raspbian-tee/optee_os/lib/libutee/tee_api_objects.c:769
    1800:	4b07      	ldr	r3, [pc, #28]	; (1820 <TEE_SeekObjectData+0x74>)
    1802:	429c      	cmp	r4, r3
    1804:	d0ea      	beq.n	17dc <TEE_SeekObjectData+0x30>
/mnt/disk/raspbian-tee/optee_os/lib/libutee/tee_api_objects.c:770
    1806:	3302      	adds	r3, #2
    1808:	429c      	cmp	r4, r3
    180a:	d0e7      	beq.n	17dc <TEE_SeekObjectData+0x30>
/mnt/disk/raspbian-tee/optee_os/lib/libutee/tee_api_objects.c:772
    180c:	4620      	mov	r0, r4
    180e:	f004 fee5 	bl	65dc <TEE_Panic>
/mnt/disk/raspbian-tee/optee_os/lib/libutee/tee_api_objects.c:774
    1812:	e7e3      	b.n	17dc <TEE_SeekObjectData+0x30>
/mnt/disk/raspbian-tee/optee_os/lib/libutee/tee_api_objects.c:727
    1814:	4c03      	ldr	r4, [pc, #12]	; (1824 <TEE_SeekObjectData+0x78>)
    1816:	e7f9      	b.n	180c <TEE_SeekObjectData+0x60>
    1818:	ffff0008 	.word	0xffff0008
    181c:	ffff300f 	.word	0xffff300f
    1820:	f0100001 	.word	0xf0100001
    1824:	ffff0006 	.word	0xffff0006

00001828 <ta_header_get_session>:
ta_header_get_session():
/mnt/disk/raspbian-tee/optee_os/lib/libutee/arch/arm/user_ta_entry.c:81
    1828:	4b05      	ldr	r3, [pc, #20]	; (1840 <ta_header_get_session+0x18>)
    182a:	447b      	add	r3, pc
    182c:	681b      	ldr	r3, [r3, #0]
/mnt/disk/raspbian-tee/optee_os/lib/libutee/arch/arm/user_ta_entry.c:81 (discriminator 1)
    182e:	b90b      	cbnz	r3, 1834 <ta_header_get_session+0xc>
/mnt/disk/raspbian-tee/optee_os/lib/libutee/arch/arm/user_ta_entry.c:86
    1830:	4618      	mov	r0, r3
    1832:	4770      	bx	lr
/mnt/disk/raspbian-tee/optee_os/lib/libutee/arch/arm/user_ta_entry.c:82
    1834:	681a      	ldr	r2, [r3, #0]
    1836:	4282      	cmp	r2, r0
    1838:	d0fa      	beq.n	1830 <ta_header_get_session+0x8>
/mnt/disk/raspbian-tee/optee_os/lib/libutee/arch/arm/user_ta_entry.c:81 (discriminator 2)
    183a:	689b      	ldr	r3, [r3, #8]
    183c:	e7f7      	b.n	182e <ta_header_get_session+0x6>
    183e:	bf00      	nop
    1840:	00007832 	.word	0x00007832

00001844 <ta_header_remove_session>:
ta_header_remove_session():
/mnt/disk/raspbian-tee/optee_os/lib/libutee/arch/arm/user_ta_entry.c:119
    1844:	4b14      	ldr	r3, [pc, #80]	; (1898 <ta_header_remove_session+0x54>)
/mnt/disk/raspbian-tee/optee_os/lib/libutee/arch/arm/user_ta_entry.c:115
    1846:	b510      	push	{r4, lr}
/mnt/disk/raspbian-tee/optee_os/lib/libutee/arch/arm/user_ta_entry.c:119
    1848:	447b      	add	r3, pc
/mnt/disk/raspbian-tee/optee_os/lib/libutee/arch/arm/user_ta_entry.c:115
    184a:	4c14      	ldr	r4, [pc, #80]	; (189c <ta_header_remove_session+0x58>)
/mnt/disk/raspbian-tee/optee_os/lib/libutee/arch/arm/user_ta_entry.c:119
    184c:	681b      	ldr	r3, [r3, #0]
/mnt/disk/raspbian-tee/optee_os/lib/libutee/arch/arm/user_ta_entry.c:115
    184e:	447c      	add	r4, pc
/mnt/disk/raspbian-tee/optee_os/lib/libutee/arch/arm/user_ta_entry.c:119 (discriminator 1)
    1850:	b903      	cbnz	r3, 1854 <ta_header_remove_session+0x10>
    1852:	bd10      	pop	{r4, pc}
/mnt/disk/raspbian-tee/optee_os/lib/libutee/arch/arm/user_ta_entry.c:120
    1854:	681a      	ldr	r2, [r3, #0]
    1856:	4282      	cmp	r2, r0
    1858:	689a      	ldr	r2, [r3, #8]
    185a:	d11b      	bne.n	1894 <ta_header_remove_session+0x50>
    185c:	68d9      	ldr	r1, [r3, #12]
/mnt/disk/raspbian-tee/optee_os/lib/libutee/arch/arm/user_ta_entry.c:121
    185e:	b1aa      	cbz	r2, 188c <ta_header_remove_session+0x48>
/mnt/disk/raspbian-tee/optee_os/lib/libutee/arch/arm/user_ta_entry.c:121 (discriminator 1)
    1860:	60d1      	str	r1, [r2, #12]
/mnt/disk/raspbian-tee/optee_os/lib/libutee/arch/arm/user_ta_entry.c:121 (discriminator 4)
    1862:	68d9      	ldr	r1, [r3, #12]
/mnt/disk/raspbian-tee/optee_os/lib/libutee/arch/arm/user_ta_entry.c:122 (discriminator 4)
    1864:	4618      	mov	r0, r3
/mnt/disk/raspbian-tee/optee_os/lib/libutee/arch/arm/user_ta_entry.c:121 (discriminator 4)
    1866:	600a      	str	r2, [r1, #0]
/mnt/disk/raspbian-tee/optee_os/lib/libutee/arch/arm/user_ta_entry.c:122 (discriminator 4)
    1868:	f7ff fc0c 	bl	1084 <TEE_Free>
/mnt/disk/raspbian-tee/optee_os/lib/libutee/arch/arm/user_ta_entry.c:127 (discriminator 4)
    186c:	4b0c      	ldr	r3, [pc, #48]	; (18a0 <ta_header_remove_session+0x5c>)
    186e:	447b      	add	r3, pc
    1870:	681b      	ldr	r3, [r3, #0]
    1872:	2b00      	cmp	r3, #0
    1874:	d1ed      	bne.n	1852 <ta_header_remove_session+0xe>
/mnt/disk/raspbian-tee/optee_os/lib/libutee/arch/arm/user_ta_entry.c:125 (discriminator 1)
    1876:	4b0b      	ldr	r3, [pc, #44]	; (18a4 <ta_header_remove_session+0x60>)
    1878:	58e3      	ldr	r3, [r4, r3]
    187a:	695b      	ldr	r3, [r3, #20]
    187c:	f003 0314 	and.w	r3, r3, #20
/mnt/disk/raspbian-tee/optee_os/lib/libutee/arch/arm/user_ta_entry.c:127 (discriminator 1)
    1880:	2b14      	cmp	r3, #20
    1882:	d0e6      	beq.n	1852 <ta_header_remove_session+0xe>
/mnt/disk/raspbian-tee/optee_os/lib/libutee/arch/arm/user_ta_entry.c:133
    1884:	e8bd 4010 	ldmia.w	sp!, {r4, lr}
uninit_instance():
/mnt/disk/raspbian-tee/optee_os/lib/libutee/arch/arm/user_ta_entry.c:63
    1888:	f7fe bbcc 	b.w	24 <TA_DestroyEntryPoint>
ta_header_remove_session():
/mnt/disk/raspbian-tee/optee_os/lib/libutee/arch/arm/user_ta_entry.c:121 (discriminator 2)
    188c:	4806      	ldr	r0, [pc, #24]	; (18a8 <ta_header_remove_session+0x64>)
    188e:	4478      	add	r0, pc
    1890:	6041      	str	r1, [r0, #4]
    1892:	e7e6      	b.n	1862 <ta_header_remove_session+0x1e>
/mnt/disk/raspbian-tee/optee_os/lib/libutee/arch/arm/user_ta_entry.c:119 (discriminator 2)
    1894:	4613      	mov	r3, r2
    1896:	e7db      	b.n	1850 <ta_header_remove_session+0xc>
    1898:	00007814 	.word	0x00007814
    189c:	00006656 	.word	0x00006656
    18a0:	000077ee 	.word	0x000077ee
    18a4:	00000030 	.word	0x00000030
    18a8:	000077ce 	.word	0x000077ce

000018ac <__utee_entry>:
__utee_entry():
/mnt/disk/raspbian-tee/optee_os/lib/libutee/arch/arm/user_ta_entry.c:200
    18ac:	b580      	push	{r7, lr}
    18ae:	4616      	mov	r6, r2
    18b0:	4c5a      	ldr	r4, [pc, #360]	; (1a1c <__utee_entry+0x170>)
    18b2:	b08c      	sub	sp, #48	; 0x30
    18b4:	460f      	mov	r7, r1
    18b6:	447c      	add	r4, pc
    18b8:	4698      	mov	r8, r3
/mnt/disk/raspbian-tee/optee_os/lib/libutee/arch/arm/user_ta_entry.c:211
    18ba:	2801      	cmp	r0, #1
    18bc:	d074      	beq.n	19a8 <__utee_entry+0xfc>
    18be:	d307      	bcc.n	18d0 <__utee_entry+0x24>
    18c0:	2802      	cmp	r0, #2
    18c2:	d07e      	beq.n	19c2 <__utee_entry+0x116>
/mnt/disk/raspbian-tee/optee_os/lib/libutee/arch/arm/user_ta_entry.c:223
    18c4:	2000      	movs	r0, #0
/mnt/disk/raspbian-tee/optee_os/lib/libutee/arch/arm/user_ta_entry.c:222
    18c6:	f04f 34ff 	mov.w	r4, #4294967295	; 0xffffffff
/mnt/disk/raspbian-tee/optee_os/lib/libutee/arch/arm/user_ta_entry.c:223
    18ca:	f004 fe87 	bl	65dc <TEE_Panic>
/mnt/disk/raspbian-tee/optee_os/lib/libutee/arch/arm/user_ta_entry.c:224
    18ce:	e026      	b.n	191e <__utee_entry+0x72>
ta_header_add_session():
/mnt/disk/raspbian-tee/optee_os/lib/libutee/arch/arm/user_ta_entry.c:90
    18d0:	4608      	mov	r0, r1
    18d2:	f7ff ffa9 	bl	1828 <ta_header_get_session>
/mnt/disk/raspbian-tee/optee_os/lib/libutee/arch/arm/user_ta_entry.c:93
    18d6:	2800      	cmp	r0, #0
    18d8:	d138      	bne.n	194c <__utee_entry+0xa0>
/mnt/disk/raspbian-tee/optee_os/lib/libutee/arch/arm/user_ta_entry.c:96
    18da:	4b51      	ldr	r3, [pc, #324]	; (1a20 <__utee_entry+0x174>)
    18dc:	447b      	add	r3, pc
    18de:	781a      	ldrb	r2, [r3, #0]
    18e0:	b13a      	cbz	r2, 18f2 <__utee_entry+0x46>
/mnt/disk/raspbian-tee/optee_os/lib/libutee/arch/arm/user_ta_entry.c:103
    18e2:	f04f 4100 	mov.w	r1, #2147483648	; 0x80000000
    18e6:	2010      	movs	r0, #16
    18e8:	f7ff fba5 	bl	1036 <TEE_Malloc>
/mnt/disk/raspbian-tee/optee_os/lib/libutee/arch/arm/user_ta_entry.c:105
    18ec:	bb18      	cbnz	r0, 1936 <__utee_entry+0x8a>
/mnt/disk/raspbian-tee/optee_os/lib/libutee/arch/arm/user_ta_entry.c:106
    18ee:	4c49      	ldr	r4, [pc, #292]	; (1a14 <__utee_entry+0x168>)
    18f0:	e015      	b.n	191e <__utee_entry+0x72>
/mnt/disk/raspbian-tee/optee_os/lib/libutee/arch/arm/user_ta_entry.c:97
    18f2:	2201      	movs	r2, #1
    18f4:	701a      	strb	r2, [r3, #0]
init_instance():
/mnt/disk/raspbian-tee/optee_os/lib/libutee/arch/arm/user_ta_entry.c:53
    18f6:	f004 fda5 	bl	6444 <tahead_get_trace_level>
    18fa:	f7fe fd12 	bl	322 <trace_set_level>
/mnt/disk/raspbian-tee/optee_os/lib/libutee/arch/arm/user_ta_entry.c:55
    18fe:	4b49      	ldr	r3, [pc, #292]	; (1a24 <__utee_entry+0x178>)
    1900:	4a49      	ldr	r2, [pc, #292]	; (1a28 <__utee_entry+0x17c>)
    1902:	58e3      	ldr	r3, [r4, r3]
    1904:	58a2      	ldr	r2, [r4, r2]
    1906:	9201      	str	r2, [sp, #4]
    1908:	6819      	ldr	r1, [r3, #0]
    190a:	4610      	mov	r0, r2
    190c:	f004 fbec 	bl	60e8 <malloc_add_pool>
/mnt/disk/raspbian-tee/optee_os/lib/libutee/arch/arm/user_ta_entry.c:56
    1910:	f000 fdc8 	bl	24a4 <_TEE_MathAPI_Init>
/mnt/disk/raspbian-tee/optee_os/lib/libutee/arch/arm/user_ta_entry.c:57
    1914:	f7fe fb84 	bl	20 <TA_CreateEntryPoint>
ta_header_add_session():
/mnt/disk/raspbian-tee/optee_os/lib/libutee/arch/arm/user_ta_entry.c:99
    1918:	4604      	mov	r4, r0
    191a:	2800      	cmp	r0, #0
    191c:	d0e1      	beq.n	18e2 <__utee_entry+0x36>
ta_header_save_params():
/mnt/disk/raspbian-tee/optee_os/lib/libutee/arch/arm/user_ta_entry.c:69
    191e:	4843      	ldr	r0, [pc, #268]	; (1a2c <__utee_entry+0x180>)
    1920:	2100      	movs	r1, #0
/mnt/disk/raspbian-tee/optee_os/lib/libutee/arch/arm/user_ta_entry.c:74
    1922:	2220      	movs	r2, #32
/mnt/disk/raspbian-tee/optee_os/lib/libutee/arch/arm/user_ta_entry.c:69
    1924:	4478      	add	r0, pc
/mnt/disk/raspbian-tee/optee_os/lib/libutee/arch/arm/user_ta_entry.c:74
    1926:	3008      	adds	r0, #8
/mnt/disk/raspbian-tee/optee_os/lib/libutee/arch/arm/user_ta_entry.c:69
    1928:	f840 1c04 	str.w	r1, [r0, #-4]
/mnt/disk/raspbian-tee/optee_os/lib/libutee/arch/arm/user_ta_entry.c:74
    192c:	f004 fea2 	bl	6674 <memset>
__utee_entry():
/mnt/disk/raspbian-tee/optee_os/lib/libutee/arch/arm/user_ta_entry.c:227
    1930:	4620      	mov	r0, r4
    1932:	f000 e88e 	blx	1a50 <utee_return>
ta_header_add_session():
/mnt/disk/raspbian-tee/optee_os/lib/libutee/arch/arm/user_ta_entry.c:108
    1936:	2300      	movs	r3, #0
    1938:	6043      	str	r3, [r0, #4]
/mnt/disk/raspbian-tee/optee_os/lib/libutee/arch/arm/user_ta_entry.c:109
    193a:	6083      	str	r3, [r0, #8]
    193c:	4b3c      	ldr	r3, [pc, #240]	; (1a30 <__utee_entry+0x184>)
/mnt/disk/raspbian-tee/optee_os/lib/libutee/arch/arm/user_ta_entry.c:107
    193e:	6007      	str	r7, [r0, #0]
/mnt/disk/raspbian-tee/optee_os/lib/libutee/arch/arm/user_ta_entry.c:109
    1940:	447b      	add	r3, pc
    1942:	685a      	ldr	r2, [r3, #4]
    1944:	60c2      	str	r2, [r0, #12]
    1946:	6010      	str	r0, [r2, #0]
    1948:	3008      	adds	r0, #8
    194a:	6058      	str	r0, [r3, #4]
entry_open_session():
/mnt/disk/raspbian-tee/optee_os/lib/libutee/arch/arm/user_ta_entry.c:147
    194c:	4638      	mov	r0, r7
    194e:	f7ff ff6b 	bl	1828 <ta_header_get_session>
/mnt/disk/raspbian-tee/optee_os/lib/libutee/arch/arm/user_ta_entry.c:148
    1952:	4681      	mov	r9, r0
    1954:	b908      	cbnz	r0, 195a <__utee_entry+0xae>
entry_close_session():
/mnt/disk/raspbian-tee/optee_os/lib/libutee/arch/arm/user_ta_entry.c:169
    1956:	4c30      	ldr	r4, [pc, #192]	; (1a18 <__utee_entry+0x16c>)
    1958:	e7e1      	b.n	191e <__utee_entry+0x72>
entry_open_session():
/mnt/disk/raspbian-tee/optee_os/lib/libutee/arch/arm/user_ta_entry.c:151
    195a:	f10d 0810 	add.w	r8, sp, #16
ta_header_save_params():
/mnt/disk/raspbian-tee/optee_os/lib/libutee/arch/arm/user_ta_entry.c:69
    195e:	4c35      	ldr	r4, [pc, #212]	; (1a34 <__utee_entry+0x188>)
/mnt/disk/raspbian-tee/optee_os/lib/libutee/arch/arm/user_ta_entry.c:72
    1960:	4645      	mov	r5, r8
entry_open_session():
/mnt/disk/raspbian-tee/optee_os/lib/libutee/arch/arm/user_ta_entry.c:151
    1962:	4632      	mov	r2, r6
    1964:	a903      	add	r1, sp, #12
    1966:	4640      	mov	r0, r8
ta_header_save_params():
/mnt/disk/raspbian-tee/optee_os/lib/libutee/arch/arm/user_ta_entry.c:69
    1968:	447c      	add	r4, pc
entry_open_session():
/mnt/disk/raspbian-tee/optee_os/lib/libutee/arch/arm/user_ta_entry.c:151
    196a:	f7ff fa4d 	bl	e08 <__utee_to_param>
ta_header_save_params():
/mnt/disk/raspbian-tee/optee_os/lib/libutee/arch/arm/user_ta_entry.c:72
    196e:	cd0f      	ldmia	r5!, {r0, r1, r2, r3}
    1970:	3408      	adds	r4, #8
entry_open_session():
/mnt/disk/raspbian-tee/optee_os/lib/libutee/arch/arm/user_ta_entry.c:152
    1972:	f8dd c00c 	ldr.w	ip, [sp, #12]
ta_header_save_params():
/mnt/disk/raspbian-tee/optee_os/lib/libutee/arch/arm/user_ta_entry.c:69
    1976:	f844 cc04 	str.w	ip, [r4, #-4]
/mnt/disk/raspbian-tee/optee_os/lib/libutee/arch/arm/user_ta_entry.c:72
    197a:	c40f      	stmia	r4!, {r0, r1, r2, r3}
    197c:	e895 000f 	ldmia.w	r5, {r0, r1, r2, r3}
    1980:	e884 000f 	stmia.w	r4, {r0, r1, r2, r3}
entry_open_session():
/mnt/disk/raspbian-tee/optee_os/lib/libutee/arch/arm/user_ta_entry.c:154
    1984:	f109 0204 	add.w	r2, r9, #4
    1988:	4641      	mov	r1, r8
    198a:	4660      	mov	r0, ip
    198c:	f7fe fb4b 	bl	26 <TA_OpenSessionEntryPoint>
/mnt/disk/raspbian-tee/optee_os/lib/libutee/arch/arm/user_ta_entry.c:157
    1990:	4642      	mov	r2, r8
/mnt/disk/raspbian-tee/optee_os/lib/libutee/arch/arm/user_ta_entry.c:154
    1992:	4604      	mov	r4, r0
/mnt/disk/raspbian-tee/optee_os/lib/libutee/arch/arm/user_ta_entry.c:157
    1994:	9903      	ldr	r1, [sp, #12]
    1996:	4630      	mov	r0, r6
    1998:	f7ff fa0e 	bl	db8 <__utee_from_param>
/mnt/disk/raspbian-tee/optee_os/lib/libutee/arch/arm/user_ta_entry.c:159
    199c:	2c00      	cmp	r4, #0
    199e:	d0be      	beq.n	191e <__utee_entry+0x72>
/mnt/disk/raspbian-tee/optee_os/lib/libutee/arch/arm/user_ta_entry.c:160
    19a0:	4638      	mov	r0, r7
    19a2:	f7ff ff4f 	bl	1844 <ta_header_remove_session>
    19a6:	e7ba      	b.n	191e <__utee_entry+0x72>
entry_close_session():
/mnt/disk/raspbian-tee/optee_os/lib/libutee/arch/arm/user_ta_entry.c:166
    19a8:	4608      	mov	r0, r1
    19aa:	f7ff ff3d 	bl	1828 <ta_header_get_session>
/mnt/disk/raspbian-tee/optee_os/lib/libutee/arch/arm/user_ta_entry.c:168
    19ae:	2800      	cmp	r0, #0
    19b0:	d0d1      	beq.n	1956 <__utee_entry+0xaa>
/mnt/disk/raspbian-tee/optee_os/lib/libutee/arch/arm/user_ta_entry.c:171
    19b2:	6840      	ldr	r0, [r0, #4]
/mnt/disk/raspbian-tee/optee_os/lib/libutee/arch/arm/user_ta_entry.c:174
    19b4:	2400      	movs	r4, #0
/mnt/disk/raspbian-tee/optee_os/lib/libutee/arch/arm/user_ta_entry.c:171
    19b6:	f7fe fb38 	bl	2a <TA_CloseSessionEntryPoint>
/mnt/disk/raspbian-tee/optee_os/lib/libutee/arch/arm/user_ta_entry.c:173
    19ba:	4638      	mov	r0, r7
    19bc:	f7ff ff42 	bl	1844 <ta_header_remove_session>
    19c0:	e7ad      	b.n	191e <__utee_entry+0x72>
entry_invoke_command():
/mnt/disk/raspbian-tee/optee_os/lib/libutee/arch/arm/user_ta_entry.c:183
    19c2:	4608      	mov	r0, r1
    19c4:	f7ff ff30 	bl	1828 <ta_header_get_session>
/mnt/disk/raspbian-tee/optee_os/lib/libutee/arch/arm/user_ta_entry.c:185
    19c8:	4681      	mov	r9, r0
    19ca:	2800      	cmp	r0, #0
    19cc:	d0c3      	beq.n	1956 <__utee_entry+0xaa>
/mnt/disk/raspbian-tee/optee_os/lib/libutee/arch/arm/user_ta_entry.c:188
    19ce:	af04      	add	r7, sp, #16
ta_header_save_params():
/mnt/disk/raspbian-tee/optee_os/lib/libutee/arch/arm/user_ta_entry.c:69
    19d0:	4c19      	ldr	r4, [pc, #100]	; (1a38 <__utee_entry+0x18c>)
/mnt/disk/raspbian-tee/optee_os/lib/libutee/arch/arm/user_ta_entry.c:72
    19d2:	463d      	mov	r5, r7
entry_invoke_command():
/mnt/disk/raspbian-tee/optee_os/lib/libutee/arch/arm/user_ta_entry.c:188
    19d4:	4632      	mov	r2, r6
    19d6:	a903      	add	r1, sp, #12
    19d8:	4638      	mov	r0, r7
ta_header_save_params():
/mnt/disk/raspbian-tee/optee_os/lib/libutee/arch/arm/user_ta_entry.c:69
    19da:	447c      	add	r4, pc
entry_invoke_command():
/mnt/disk/raspbian-tee/optee_os/lib/libutee/arch/arm/user_ta_entry.c:188
    19dc:	f7ff fa14 	bl	e08 <__utee_to_param>
ta_header_save_params():
/mnt/disk/raspbian-tee/optee_os/lib/libutee/arch/arm/user_ta_entry.c:72
    19e0:	cd0f      	ldmia	r5!, {r0, r1, r2, r3}
    19e2:	3408      	adds	r4, #8
entry_invoke_command():
/mnt/disk/raspbian-tee/optee_os/lib/libutee/arch/arm/user_ta_entry.c:189
    19e4:	f8dd c00c 	ldr.w	ip, [sp, #12]
ta_header_save_params():
/mnt/disk/raspbian-tee/optee_os/lib/libutee/arch/arm/user_ta_entry.c:69
    19e8:	f844 cc04 	str.w	ip, [r4, #-4]
/mnt/disk/raspbian-tee/optee_os/lib/libutee/arch/arm/user_ta_entry.c:72
    19ec:	c40f      	stmia	r4!, {r0, r1, r2, r3}
    19ee:	e895 000f 	ldmia.w	r5, {r0, r1, r2, r3}
    19f2:	e884 000f 	stmia.w	r4, {r0, r1, r2, r3}
entry_invoke_command():
/mnt/disk/raspbian-tee/optee_os/lib/libutee/arch/arm/user_ta_entry.c:191
    19f6:	4662      	mov	r2, ip
    19f8:	4641      	mov	r1, r8
    19fa:	463b      	mov	r3, r7
    19fc:	f8d9 0004 	ldr.w	r0, [r9, #4]
    1a00:	f7fe fb14 	bl	2c <TA_InvokeCommandEntryPoint>
/mnt/disk/raspbian-tee/optee_os/lib/libutee/arch/arm/user_ta_entry.c:194
    1a04:	463a      	mov	r2, r7
/mnt/disk/raspbian-tee/optee_os/lib/libutee/arch/arm/user_ta_entry.c:191
    1a06:	4604      	mov	r4, r0
/mnt/disk/raspbian-tee/optee_os/lib/libutee/arch/arm/user_ta_entry.c:194
    1a08:	9903      	ldr	r1, [sp, #12]
    1a0a:	4630      	mov	r0, r6
    1a0c:	f7ff f9d4 	bl	db8 <__utee_from_param>
    1a10:	e785      	b.n	191e <__utee_entry+0x72>
    1a12:	bf00      	nop
    1a14:	ffff000c 	.word	0xffff000c
    1a18:	ffff0007 	.word	0xffff0007
    1a1c:	000065ee 	.word	0x000065ee
    1a20:	000077a8 	.word	0x000077a8
    1a24:	00000010 	.word	0x00000010
    1a28:	00000024 	.word	0x00000024
    1a2c:	00007760 	.word	0x00007760
    1a30:	0000771c 	.word	0x0000771c
    1a34:	0000771c 	.word	0x0000771c
    1a38:	000076aa 	.word	0x000076aa

00001a3c <utee_panic>:
utee_panic():
/mnt/disk/raspbian-tee/optee_os/lib/libutee/arch/arm/utee_syscalls_a32.S:47
    1a3c:	e92d4fff 	push	{r0, r1, r2, r3, r4, r5, r6, r7, r8, r9, sl, fp, lr}
/mnt/disk/raspbian-tee/optee_os/lib/libutee/arch/arm/utee_syscalls_a32.S:49
    1a40:	e1a0e00f 	mov	lr, pc
/mnt/disk/raspbian-tee/optee_os/lib/libutee/arch/arm/utee_syscalls_a32.S:50
    1a44:	e52de004 	push	{lr}		; (str lr, [sp, #-4]!)
/mnt/disk/raspbian-tee/optee_os/lib/libutee/arch/arm/utee_syscalls_a32.S:52
    1a48:	e1a0100d 	mov	r1, sp
/mnt/disk/raspbian-tee/optee_os/lib/libutee/arch/arm/utee_syscalls_a32.S:53
    1a4c:	eb000009 	bl	1a78 <__utee_panic>

00001a50 <utee_return>:
utee_return():
/mnt/disk/raspbian-tee/optee_os/lib/libutee/arch/arm/utee_syscalls_asm.S:8
    1a50:	e92d40e0 	push	{r5, r6, r7, lr}
    1a54:	e3a07000 	mov	r7, #0
    1a58:	e3a06000 	mov	r6, #0
    1a5c:	ef000000 	svc	0x00000000
    1a60:	e8bd80e0 	pop	{r5, r6, r7, pc}

00001a64 <utee_log>:
utee_log():
/mnt/disk/raspbian-tee/optee_os/lib/libutee/arch/arm/utee_syscalls_asm.S:10
    1a64:	e92d40e0 	push	{r5, r6, r7, lr}
    1a68:	e3a07001 	mov	r7, #1
    1a6c:	e3a06000 	mov	r6, #0
    1a70:	ef000000 	svc	0x00000000
    1a74:	e8bd80e0 	pop	{r5, r6, r7, pc}

00001a78 <__utee_panic>:
__utee_panic():
/mnt/disk/raspbian-tee/optee_os/lib/libutee/arch/arm/utee_syscalls_asm.S:12
    1a78:	e92d40e0 	push	{r5, r6, r7, lr}
    1a7c:	e3a07002 	mov	r7, #2
    1a80:	e3a06000 	mov	r6, #0
    1a84:	ef000000 	svc	0x00000000
    1a88:	e8bd80e0 	pop	{r5, r6, r7, pc}

00001a8c <utee_get_property>:
utee_get_property():
/mnt/disk/raspbian-tee/optee_os/lib/libutee/arch/arm/utee_syscalls_asm.S:14
    1a8c:	e92d40e0 	push	{r5, r6, r7, lr}
    1a90:	e3a07003 	mov	r7, #3
    1a94:	e3a06003 	mov	r6, #3
    1a98:	e28d5010 	add	r5, sp, #16
    1a9c:	ef000000 	svc	0x00000000
    1aa0:	e8bd80e0 	pop	{r5, r6, r7, pc}

00001aa4 <utee_get_property_name_to_index>:
utee_get_property_name_to_index():
/mnt/disk/raspbian-tee/optee_os/lib/libutee/arch/arm/utee_syscalls_asm.S:16
    1aa4:	e92d40e0 	push	{r5, r6, r7, lr}
    1aa8:	e3a07004 	mov	r7, #4
    1aac:	e3a06000 	mov	r6, #0
    1ab0:	ef000000 	svc	0x00000000
    1ab4:	e8bd80e0 	pop	{r5, r6, r7, pc}

00001ab8 <utee_open_ta_session>:
utee_open_ta_session():
/mnt/disk/raspbian-tee/optee_os/lib/libutee/arch/arm/utee_syscalls_asm.S:19
    1ab8:	e92d40e0 	push	{r5, r6, r7, lr}
    1abc:	e3a07005 	mov	r7, #5
    1ac0:	e3a06001 	mov	r6, #1
    1ac4:	e28d5010 	add	r5, sp, #16
    1ac8:	ef000000 	svc	0x00000000
    1acc:	e8bd80e0 	pop	{r5, r6, r7, pc}

00001ad0 <utee_close_ta_session>:
utee_close_ta_session():
/mnt/disk/raspbian-tee/optee_os/lib/libutee/arch/arm/utee_syscalls_asm.S:21
    1ad0:	e92d40e0 	push	{r5, r6, r7, lr}
    1ad4:	e3a07006 	mov	r7, #6
    1ad8:	e3a06000 	mov	r6, #0
    1adc:	ef000000 	svc	0x00000000
    1ae0:	e8bd80e0 	pop	{r5, r6, r7, pc}

00001ae4 <utee_invoke_ta_command>:
utee_invoke_ta_command():
/mnt/disk/raspbian-tee/optee_os/lib/libutee/arch/arm/utee_syscalls_asm.S:23
    1ae4:	e92d40e0 	push	{r5, r6, r7, lr}
    1ae8:	e3a07007 	mov	r7, #7
    1aec:	e3a06001 	mov	r6, #1
    1af0:	e28d5010 	add	r5, sp, #16
    1af4:	ef000000 	svc	0x00000000
    1af8:	e8bd80e0 	pop	{r5, r6, r7, pc}

00001afc <utee_get_cancellation_flag>:
utee_get_cancellation_flag():
/mnt/disk/raspbian-tee/optee_os/lib/libutee/arch/arm/utee_syscalls_asm.S:25
    1afc:	e92d40e0 	push	{r5, r6, r7, lr}
    1b00:	e3a07009 	mov	r7, #9
    1b04:	e3a06000 	mov	r6, #0
    1b08:	ef000000 	svc	0x00000000
    1b0c:	e8bd80e0 	pop	{r5, r6, r7, pc}

00001b10 <utee_check_access_rights>:
utee_check_access_rights():
/mnt/disk/raspbian-tee/optee_os/lib/libutee/arch/arm/utee_syscalls_asm.S:28
    1b10:	e92d40e0 	push	{r5, r6, r7, lr}
    1b14:	e3a07008 	mov	r7, #8
    1b18:	e3a06000 	mov	r6, #0
    1b1c:	ef000000 	svc	0x00000000
    1b20:	e8bd80e0 	pop	{r5, r6, r7, pc}

00001b24 <utee_unmask_cancellation>:
utee_unmask_cancellation():
/mnt/disk/raspbian-tee/optee_os/lib/libutee/arch/arm/utee_syscalls_asm.S:30
    1b24:	e92d40e0 	push	{r5, r6, r7, lr}
    1b28:	e3a0700a 	mov	r7, #10
    1b2c:	e3a06000 	mov	r6, #0
    1b30:	ef000000 	svc	0x00000000
    1b34:	e8bd80e0 	pop	{r5, r6, r7, pc}

00001b38 <utee_mask_cancellation>:
utee_mask_cancellation():
/mnt/disk/raspbian-tee/optee_os/lib/libutee/arch/arm/utee_syscalls_asm.S:32
    1b38:	e92d40e0 	push	{r5, r6, r7, lr}
    1b3c:	e3a0700b 	mov	r7, #11
    1b40:	e3a06000 	mov	r6, #0
    1b44:	ef000000 	svc	0x00000000
    1b48:	e8bd80e0 	pop	{r5, r6, r7, pc}

00001b4c <utee_wait>:
utee_wait():
/mnt/disk/raspbian-tee/optee_os/lib/libutee/arch/arm/utee_syscalls_asm.S:34
    1b4c:	e92d40e0 	push	{r5, r6, r7, lr}
    1b50:	e3a0700c 	mov	r7, #12
    1b54:	e3a06000 	mov	r6, #0
    1b58:	ef000000 	svc	0x00000000
    1b5c:	e8bd80e0 	pop	{r5, r6, r7, pc}

00001b60 <utee_get_time>:
utee_get_time():
/mnt/disk/raspbian-tee/optee_os/lib/libutee/arch/arm/utee_syscalls_asm.S:36
    1b60:	e92d40e0 	push	{r5, r6, r7, lr}
    1b64:	e3a0700d 	mov	r7, #13
    1b68:	e3a06000 	mov	r6, #0
    1b6c:	ef000000 	svc	0x00000000
    1b70:	e8bd80e0 	pop	{r5, r6, r7, pc}

00001b74 <utee_set_ta_time>:
utee_set_ta_time():
/mnt/disk/raspbian-tee/optee_os/lib/libutee/arch/arm/utee_syscalls_asm.S:38
    1b74:	e92d40e0 	push	{r5, r6, r7, lr}
    1b78:	e3a0700e 	mov	r7, #14
    1b7c:	e3a06000 	mov	r6, #0
    1b80:	ef000000 	svc	0x00000000
    1b84:	e8bd80e0 	pop	{r5, r6, r7, pc}

00001b88 <utee_cryp_state_alloc>:
utee_cryp_state_alloc():
/mnt/disk/raspbian-tee/optee_os/lib/libutee/arch/arm/utee_syscalls_asm.S:40
    1b88:	e92d40e0 	push	{r5, r6, r7, lr}
    1b8c:	e3a0700f 	mov	r7, #15
    1b90:	e3a06001 	mov	r6, #1
    1b94:	e28d5010 	add	r5, sp, #16
    1b98:	ef000000 	svc	0x00000000
    1b9c:	e8bd80e0 	pop	{r5, r6, r7, pc}

00001ba0 <utee_cryp_state_copy>:
utee_cryp_state_copy():
/mnt/disk/raspbian-tee/optee_os/lib/libutee/arch/arm/utee_syscalls_asm.S:42
    1ba0:	e92d40e0 	push	{r5, r6, r7, lr}
    1ba4:	e3a07010 	mov	r7, #16
    1ba8:	e3a06000 	mov	r6, #0
    1bac:	ef000000 	svc	0x00000000
    1bb0:	e8bd80e0 	pop	{r5, r6, r7, pc}

00001bb4 <utee_cryp_state_free>:
utee_cryp_state_free():
/mnt/disk/raspbian-tee/optee_os/lib/libutee/arch/arm/utee_syscalls_asm.S:44
    1bb4:	e92d40e0 	push	{r5, r6, r7, lr}
    1bb8:	e3a07011 	mov	r7, #17
    1bbc:	e3a06000 	mov	r6, #0
    1bc0:	ef000000 	svc	0x00000000
    1bc4:	e8bd80e0 	pop	{r5, r6, r7, pc}

00001bc8 <utee_hash_init>:
utee_hash_init():
/mnt/disk/raspbian-tee/optee_os/lib/libutee/arch/arm/utee_syscalls_asm.S:46
    1bc8:	e92d40e0 	push	{r5, r6, r7, lr}
    1bcc:	e3a07012 	mov	r7, #18
    1bd0:	e3a06000 	mov	r6, #0
    1bd4:	ef000000 	svc	0x00000000
    1bd8:	e8bd80e0 	pop	{r5, r6, r7, pc}

00001bdc <utee_hash_update>:
utee_hash_update():
/mnt/disk/raspbian-tee/optee_os/lib/libutee/arch/arm/utee_syscalls_asm.S:48
    1bdc:	e92d40e0 	push	{r5, r6, r7, lr}
    1be0:	e3a07013 	mov	r7, #19
    1be4:	e3a06000 	mov	r6, #0
    1be8:	ef000000 	svc	0x00000000
    1bec:	e8bd80e0 	pop	{r5, r6, r7, pc}

00001bf0 <utee_hash_final>:
utee_hash_final():
/mnt/disk/raspbian-tee/optee_os/lib/libutee/arch/arm/utee_syscalls_asm.S:50
    1bf0:	e92d40e0 	push	{r5, r6, r7, lr}
    1bf4:	e3a07014 	mov	r7, #20
    1bf8:	e3a06001 	mov	r6, #1
    1bfc:	e28d5010 	add	r5, sp, #16
    1c00:	ef000000 	svc	0x00000000
    1c04:	e8bd80e0 	pop	{r5, r6, r7, pc}

00001c08 <utee_cipher_init>:
utee_cipher_init():
/mnt/disk/raspbian-tee/optee_os/lib/libutee/arch/arm/utee_syscalls_asm.S:52
    1c08:	e92d40e0 	push	{r5, r6, r7, lr}
    1c0c:	e3a07015 	mov	r7, #21
    1c10:	e3a06000 	mov	r6, #0
    1c14:	ef000000 	svc	0x00000000
    1c18:	e8bd80e0 	pop	{r5, r6, r7, pc}

00001c1c <utee_cipher_update>:
utee_cipher_update():
/mnt/disk/raspbian-tee/optee_os/lib/libutee/arch/arm/utee_syscalls_asm.S:54
    1c1c:	e92d40e0 	push	{r5, r6, r7, lr}
    1c20:	e3a07016 	mov	r7, #22
    1c24:	e3a06001 	mov	r6, #1
    1c28:	e28d5010 	add	r5, sp, #16
    1c2c:	ef000000 	svc	0x00000000
    1c30:	e8bd80e0 	pop	{r5, r6, r7, pc}

00001c34 <utee_cipher_final>:
utee_cipher_final():
/mnt/disk/raspbian-tee/optee_os/lib/libutee/arch/arm/utee_syscalls_asm.S:56
    1c34:	e92d40e0 	push	{r5, r6, r7, lr}
    1c38:	e3a07017 	mov	r7, #23
    1c3c:	e3a06001 	mov	r6, #1
    1c40:	e28d5010 	add	r5, sp, #16
    1c44:	ef000000 	svc	0x00000000
    1c48:	e8bd80e0 	pop	{r5, r6, r7, pc}

00001c4c <utee_cryp_obj_get_info>:
utee_cryp_obj_get_info():
/mnt/disk/raspbian-tee/optee_os/lib/libutee/arch/arm/utee_syscalls_asm.S:58
    1c4c:	e92d40e0 	push	{r5, r6, r7, lr}
    1c50:	e3a07018 	mov	r7, #24
    1c54:	e3a06000 	mov	r6, #0
    1c58:	ef000000 	svc	0x00000000
    1c5c:	e8bd80e0 	pop	{r5, r6, r7, pc}

00001c60 <utee_cryp_obj_restrict_usage>:
utee_cryp_obj_restrict_usage():
/mnt/disk/raspbian-tee/optee_os/lib/libutee/arch/arm/utee_syscalls_asm.S:60
    1c60:	e92d40e0 	push	{r5, r6, r7, lr}
    1c64:	e3a07019 	mov	r7, #25
    1c68:	e3a06000 	mov	r6, #0
    1c6c:	ef000000 	svc	0x00000000
    1c70:	e8bd80e0 	pop	{r5, r6, r7, pc}

00001c74 <utee_cryp_obj_get_attr>:
utee_cryp_obj_get_attr():
/mnt/disk/raspbian-tee/optee_os/lib/libutee/arch/arm/utee_syscalls_asm.S:63
    1c74:	e92d40e0 	push	{r5, r6, r7, lr}
    1c78:	e3a0701a 	mov	r7, #26
    1c7c:	e3a06000 	mov	r6, #0
    1c80:	ef000000 	svc	0x00000000
    1c84:	e8bd80e0 	pop	{r5, r6, r7, pc}

00001c88 <utee_cryp_obj_alloc>:
utee_cryp_obj_alloc():
/mnt/disk/raspbian-tee/optee_os/lib/libutee/arch/arm/utee_syscalls_asm.S:65
    1c88:	e92d40e0 	push	{r5, r6, r7, lr}
    1c8c:	e3a0701b 	mov	r7, #27
    1c90:	e3a06000 	mov	r6, #0
    1c94:	ef000000 	svc	0x00000000
    1c98:	e8bd80e0 	pop	{r5, r6, r7, pc}

00001c9c <utee_cryp_obj_close>:
utee_cryp_obj_close():
/mnt/disk/raspbian-tee/optee_os/lib/libutee/arch/arm/utee_syscalls_asm.S:67
    1c9c:	e92d40e0 	push	{r5, r6, r7, lr}
    1ca0:	e3a0701c 	mov	r7, #28
    1ca4:	e3a06000 	mov	r6, #0
    1ca8:	ef000000 	svc	0x00000000
    1cac:	e8bd80e0 	pop	{r5, r6, r7, pc}

00001cb0 <utee_cryp_obj_reset>:
utee_cryp_obj_reset():
/mnt/disk/raspbian-tee/optee_os/lib/libutee/arch/arm/utee_syscalls_asm.S:69
    1cb0:	e92d40e0 	push	{r5, r6, r7, lr}
    1cb4:	e3a0701d 	mov	r7, #29
    1cb8:	e3a06000 	mov	r6, #0
    1cbc:	ef000000 	svc	0x00000000
    1cc0:	e8bd80e0 	pop	{r5, r6, r7, pc}

00001cc4 <utee_cryp_obj_populate>:
utee_cryp_obj_populate():
/mnt/disk/raspbian-tee/optee_os/lib/libutee/arch/arm/utee_syscalls_asm.S:71
    1cc4:	e92d40e0 	push	{r5, r6, r7, lr}
    1cc8:	e3a0701e 	mov	r7, #30
    1ccc:	e3a06000 	mov	r6, #0
    1cd0:	ef000000 	svc	0x00000000
    1cd4:	e8bd80e0 	pop	{r5, r6, r7, pc}

00001cd8 <utee_cryp_obj_copy>:
utee_cryp_obj_copy():
/mnt/disk/raspbian-tee/optee_os/lib/libutee/arch/arm/utee_syscalls_asm.S:73
    1cd8:	e92d40e0 	push	{r5, r6, r7, lr}
    1cdc:	e3a0701f 	mov	r7, #31
    1ce0:	e3a06000 	mov	r6, #0
    1ce4:	ef000000 	svc	0x00000000
    1ce8:	e8bd80e0 	pop	{r5, r6, r7, pc}

00001cec <utee_cryp_derive_key>:
utee_cryp_derive_key():
/mnt/disk/raspbian-tee/optee_os/lib/libutee/arch/arm/utee_syscalls_asm.S:75
    1cec:	e92d40e0 	push	{r5, r6, r7, lr}
    1cf0:	e3a07020 	mov	r7, #32
    1cf4:	e3a06000 	mov	r6, #0
    1cf8:	ef000000 	svc	0x00000000
    1cfc:	e8bd80e0 	pop	{r5, r6, r7, pc}

00001d00 <utee_cryp_random_number_generate>:
utee_cryp_random_number_generate():
/mnt/disk/raspbian-tee/optee_os/lib/libutee/arch/arm/utee_syscalls_asm.S:77
    1d00:	e92d40e0 	push	{r5, r6, r7, lr}
    1d04:	e3a07021 	mov	r7, #33	; 0x21
    1d08:	e3a06000 	mov	r6, #0
    1d0c:	ef000000 	svc	0x00000000
    1d10:	e8bd80e0 	pop	{r5, r6, r7, pc}

00001d14 <utee_authenc_init>:
utee_authenc_init():
/mnt/disk/raspbian-tee/optee_os/lib/libutee/arch/arm/utee_syscalls_asm.S:80
    1d14:	e92d40e0 	push	{r5, r6, r7, lr}
    1d18:	e3a07022 	mov	r7, #34	; 0x22
    1d1c:	e3a06002 	mov	r6, #2
    1d20:	e28d5010 	add	r5, sp, #16
    1d24:	ef000000 	svc	0x00000000
    1d28:	e8bd80e0 	pop	{r5, r6, r7, pc}

00001d2c <utee_authenc_update_aad>:
utee_authenc_update_aad():
/mnt/disk/raspbian-tee/optee_os/lib/libutee/arch/arm/utee_syscalls_asm.S:82
    1d2c:	e92d40e0 	push	{r5, r6, r7, lr}
    1d30:	e3a07023 	mov	r7, #35	; 0x23
    1d34:	e3a06000 	mov	r6, #0
    1d38:	ef000000 	svc	0x00000000
    1d3c:	e8bd80e0 	pop	{r5, r6, r7, pc}

00001d40 <utee_authenc_update_payload>:
utee_authenc_update_payload():
/mnt/disk/raspbian-tee/optee_os/lib/libutee/arch/arm/utee_syscalls_asm.S:84
    1d40:	e92d40e0 	push	{r5, r6, r7, lr}
    1d44:	e3a07024 	mov	r7, #36	; 0x24
    1d48:	e3a06001 	mov	r6, #1
    1d4c:	e28d5010 	add	r5, sp, #16
    1d50:	ef000000 	svc	0x00000000
    1d54:	e8bd80e0 	pop	{r5, r6, r7, pc}

00001d58 <utee_authenc_enc_final>:
utee_authenc_enc_final():
/mnt/disk/raspbian-tee/optee_os/lib/libutee/arch/arm/utee_syscalls_asm.S:87
    1d58:	e92d40e0 	push	{r5, r6, r7, lr}
    1d5c:	e3a07025 	mov	r7, #37	; 0x25
    1d60:	e3a06003 	mov	r6, #3
    1d64:	e28d5010 	add	r5, sp, #16
    1d68:	ef000000 	svc	0x00000000
    1d6c:	e8bd80e0 	pop	{r5, r6, r7, pc}

00001d70 <utee_authenc_dec_final>:
utee_authenc_dec_final():
/mnt/disk/raspbian-tee/optee_os/lib/libutee/arch/arm/utee_syscalls_asm.S:89
    1d70:	e92d40e0 	push	{r5, r6, r7, lr}
    1d74:	e3a07026 	mov	r7, #38	; 0x26
    1d78:	e3a06003 	mov	r6, #3
    1d7c:	e28d5010 	add	r5, sp, #16
    1d80:	ef000000 	svc	0x00000000
    1d84:	e8bd80e0 	pop	{r5, r6, r7, pc}

00001d88 <utee_asymm_operate>:
utee_asymm_operate():
/mnt/disk/raspbian-tee/optee_os/lib/libutee/arch/arm/utee_syscalls_asm.S:91
    1d88:	e92d40e0 	push	{r5, r6, r7, lr}
    1d8c:	e3a07027 	mov	r7, #39	; 0x27
    1d90:	e3a06003 	mov	r6, #3
    1d94:	e28d5010 	add	r5, sp, #16
    1d98:	ef000000 	svc	0x00000000
    1d9c:	e8bd80e0 	pop	{r5, r6, r7, pc}

00001da0 <utee_asymm_verify>:
utee_asymm_verify():
/mnt/disk/raspbian-tee/optee_os/lib/libutee/arch/arm/utee_syscalls_asm.S:93
    1da0:	e92d40e0 	push	{r5, r6, r7, lr}
    1da4:	e3a07028 	mov	r7, #40	; 0x28
    1da8:	e3a06003 	mov	r6, #3
    1dac:	e28d5010 	add	r5, sp, #16
    1db0:	ef000000 	svc	0x00000000
    1db4:	e8bd80e0 	pop	{r5, r6, r7, pc}

00001db8 <utee_storage_obj_open>:
utee_storage_obj_open():
/mnt/disk/raspbian-tee/optee_os/lib/libutee/arch/arm/utee_syscalls_asm.S:95
    1db8:	e92d40e0 	push	{r5, r6, r7, lr}
    1dbc:	e3a07029 	mov	r7, #41	; 0x29
    1dc0:	e3a06001 	mov	r6, #1
    1dc4:	e28d5010 	add	r5, sp, #16
    1dc8:	ef000000 	svc	0x00000000
    1dcc:	e8bd80e0 	pop	{r5, r6, r7, pc}

00001dd0 <utee_storage_obj_create>:
utee_storage_obj_create():
/mnt/disk/raspbian-tee/optee_os/lib/libutee/arch/arm/utee_syscalls_asm.S:97
    1dd0:	e92d40e0 	push	{r5, r6, r7, lr}
    1dd4:	e3a0702a 	mov	r7, #42	; 0x2a
    1dd8:	e3a06004 	mov	r6, #4
    1ddc:	e28d5010 	add	r5, sp, #16
    1de0:	ef000000 	svc	0x00000000
    1de4:	e8bd80e0 	pop	{r5, r6, r7, pc}

00001de8 <utee_storage_obj_del>:
utee_storage_obj_del():
/mnt/disk/raspbian-tee/optee_os/lib/libutee/arch/arm/utee_syscalls_asm.S:99
    1de8:	e92d40e0 	push	{r5, r6, r7, lr}
    1dec:	e3a0702b 	mov	r7, #43	; 0x2b
    1df0:	e3a06000 	mov	r6, #0
    1df4:	ef000000 	svc	0x00000000
    1df8:	e8bd80e0 	pop	{r5, r6, r7, pc}

00001dfc <utee_storage_obj_rename>:
utee_storage_obj_rename():
/mnt/disk/raspbian-tee/optee_os/lib/libutee/arch/arm/utee_syscalls_asm.S:101
    1dfc:	e92d40e0 	push	{r5, r6, r7, lr}
    1e00:	e3a0702c 	mov	r7, #44	; 0x2c
    1e04:	e3a06000 	mov	r6, #0
    1e08:	ef000000 	svc	0x00000000
    1e0c:	e8bd80e0 	pop	{r5, r6, r7, pc}

00001e10 <utee_storage_alloc_enum>:
utee_storage_alloc_enum():
/mnt/disk/raspbian-tee/optee_os/lib/libutee/arch/arm/utee_syscalls_asm.S:103
    1e10:	e92d40e0 	push	{r5, r6, r7, lr}
    1e14:	e3a0702d 	mov	r7, #45	; 0x2d
    1e18:	e3a06000 	mov	r6, #0
    1e1c:	ef000000 	svc	0x00000000
    1e20:	e8bd80e0 	pop	{r5, r6, r7, pc}

00001e24 <utee_storage_free_enum>:
utee_storage_free_enum():
/mnt/disk/raspbian-tee/optee_os/lib/libutee/arch/arm/utee_syscalls_asm.S:105
    1e24:	e92d40e0 	push	{r5, r6, r7, lr}
    1e28:	e3a0702e 	mov	r7, #46	; 0x2e
    1e2c:	e3a06000 	mov	r6, #0
    1e30:	ef000000 	svc	0x00000000
    1e34:	e8bd80e0 	pop	{r5, r6, r7, pc}

00001e38 <utee_storage_reset_enum>:
utee_storage_reset_enum():
/mnt/disk/raspbian-tee/optee_os/lib/libutee/arch/arm/utee_syscalls_asm.S:107
    1e38:	e92d40e0 	push	{r5, r6, r7, lr}
    1e3c:	e3a0702f 	mov	r7, #47	; 0x2f
    1e40:	e3a06000 	mov	r6, #0
    1e44:	ef000000 	svc	0x00000000
    1e48:	e8bd80e0 	pop	{r5, r6, r7, pc}

00001e4c <utee_storage_start_enum>:
utee_storage_start_enum():
/mnt/disk/raspbian-tee/optee_os/lib/libutee/arch/arm/utee_syscalls_asm.S:109
    1e4c:	e92d40e0 	push	{r5, r6, r7, lr}
    1e50:	e3a07030 	mov	r7, #48	; 0x30
    1e54:	e3a06000 	mov	r6, #0
    1e58:	ef000000 	svc	0x00000000
    1e5c:	e8bd80e0 	pop	{r5, r6, r7, pc}

00001e60 <utee_storage_next_enum>:
utee_storage_next_enum():
/mnt/disk/raspbian-tee/optee_os/lib/libutee/arch/arm/utee_syscalls_asm.S:111
    1e60:	e92d40e0 	push	{r5, r6, r7, lr}
    1e64:	e3a07031 	mov	r7, #49	; 0x31
    1e68:	e3a06000 	mov	r6, #0
    1e6c:	ef000000 	svc	0x00000000
    1e70:	e8bd80e0 	pop	{r5, r6, r7, pc}

00001e74 <utee_storage_obj_read>:
utee_storage_obj_read():
/mnt/disk/raspbian-tee/optee_os/lib/libutee/arch/arm/utee_syscalls_asm.S:113
    1e74:	e92d40e0 	push	{r5, r6, r7, lr}
    1e78:	e3a07032 	mov	r7, #50	; 0x32
    1e7c:	e3a06000 	mov	r6, #0
    1e80:	ef000000 	svc	0x00000000
    1e84:	e8bd80e0 	pop	{r5, r6, r7, pc}

00001e88 <utee_storage_obj_write>:
utee_storage_obj_write():
/mnt/disk/raspbian-tee/optee_os/lib/libutee/arch/arm/utee_syscalls_asm.S:115
    1e88:	e92d40e0 	push	{r5, r6, r7, lr}
    1e8c:	e3a07033 	mov	r7, #51	; 0x33
    1e90:	e3a06000 	mov	r6, #0
    1e94:	ef000000 	svc	0x00000000
    1e98:	e8bd80e0 	pop	{r5, r6, r7, pc}

00001e9c <utee_storage_obj_trunc>:
utee_storage_obj_trunc():
/mnt/disk/raspbian-tee/optee_os/lib/libutee/arch/arm/utee_syscalls_asm.S:117
    1e9c:	e92d40e0 	push	{r5, r6, r7, lr}
    1ea0:	e3a07034 	mov	r7, #52	; 0x34
    1ea4:	e3a06000 	mov	r6, #0
    1ea8:	ef000000 	svc	0x00000000
    1eac:	e8bd80e0 	pop	{r5, r6, r7, pc}

00001eb0 <utee_storage_obj_seek>:
utee_storage_obj_seek():
/mnt/disk/raspbian-tee/optee_os/lib/libutee/arch/arm/utee_syscalls_asm.S:119
    1eb0:	e92d40e0 	push	{r5, r6, r7, lr}
    1eb4:	e3a07035 	mov	r7, #53	; 0x35
    1eb8:	e3a06000 	mov	r6, #0
    1ebc:	ef000000 	svc	0x00000000
    1ec0:	e8bd80e0 	pop	{r5, r6, r7, pc}

00001ec4 <utee_cryp_obj_generate_key>:
utee_cryp_obj_generate_key():
/mnt/disk/raspbian-tee/optee_os/lib/libutee/arch/arm/utee_syscalls_asm.S:121
    1ec4:	e92d40e0 	push	{r5, r6, r7, lr}
    1ec8:	e3a07036 	mov	r7, #54	; 0x36
    1ecc:	e3a06000 	mov	r6, #0
    1ed0:	ef000000 	svc	0x00000000
    1ed4:	e8bd80e0 	pop	{r5, r6, r7, pc}

00001ed8 <utee_cache_operation>:
utee_cache_operation():
/mnt/disk/raspbian-tee/optee_os/lib/libutee/arch/arm/utee_syscalls_asm.S:124
    1ed8:	e92d40e0 	push	{r5, r6, r7, lr}
    1edc:	e3a07046 	mov	r7, #70	; 0x46
    1ee0:	e3a06000 	mov	r6, #0
    1ee4:	ef000000 	svc	0x00000000
    1ee8:	e8bd80e0 	pop	{r5, r6, r7, pc}

00001eec <__utee_mcount>:
__utee_mcount():
/mnt/disk/raspbian-tee/optee_os/lib/libutee/arch/arm/gprof/gprof_a32.S:49
    1eec:	e52de004 	push	{lr}		; (str lr, [sp, #-4]!)
/mnt/disk/raspbian-tee/optee_os/lib/libutee/arch/arm/gprof/gprof_a32.S:50
    1ef0:	e8bd5000 	pop	{ip, lr}
/mnt/disk/raspbian-tee/optee_os/lib/libutee/arch/arm/gprof/gprof_a32.S:51
    1ef4:	e12fff1c 	bx	ip

00001ef8 <mpi_panic>:
mpi_panic():
/mnt/disk/raspbian-tee/optee_os/lib/libutee/tee_api_arith_mpi.c:29
    1ef8:	b508      	push	{r3, lr}
/mnt/disk/raspbian-tee/optee_os/lib/libutee/tee_api_arith_mpi.c:30
    1efa:	4613      	mov	r3, r2
    1efc:	460a      	mov	r2, r1
    1efe:	4601      	mov	r1, r0
    1f00:	4804      	ldr	r0, [pc, #16]	; (1f14 <mpi_panic+0x1c>)
    1f02:	4478      	add	r0, pc
    1f04:	f7fe ff17 	bl	d36 <printf>
/mnt/disk/raspbian-tee/optee_os/lib/libutee/tee_api_arith_mpi.c:31
    1f08:	4801      	ldr	r0, [pc, #4]	; (1f10 <mpi_panic+0x18>)
    1f0a:	f004 fb67 	bl	65dc <TEE_Panic>
    1f0e:	e7fe      	b.n	1f0e <mpi_panic+0x16>
    1f10:	00b16127 	.word	0x00b16127
    1f14:	00004eca 	.word	0x00004eca

00001f18 <get_const_mpi>:
get_const_mpi():
/mnt/disk/raspbian-tee/optee_os/lib/libutee/tee_api_arith_mpi.c:110
    1f18:	b530      	push	{r4, r5, lr}
init_static_mpi():
/mnt/disk/raspbian-tee/optee_os/lib/libutee/tee_api_arith_mpi.c:65
    1f1a:	3108      	adds	r1, #8
    1f1c:	f831 2c02 	ldrh.w	r2, [r1, #-2]
get_const_mpi():
/mnt/disk/raspbian-tee/optee_os/lib/libutee/tee_api_arith_mpi.c:110
    1f20:	b087      	sub	sp, #28
init_static_mpi():
/mnt/disk/raspbian-tee/optee_os/lib/libutee/tee_api_arith_mpi.c:65
    1f22:	f831 3c04 	ldrh.w	r3, [r1, #-4]
    1f26:	ac03      	add	r4, sp, #12
get_const_mpi():
/mnt/disk/raspbian-tee/optee_os/lib/libutee/tee_api_arith_mpi.c:110
    1f28:	4605      	mov	r5, r0
init_static_mpi():
/mnt/disk/raspbian-tee/optee_os/lib/libutee/tee_api_arith_mpi.c:65
    1f2a:	4620      	mov	r0, r4
    1f2c:	9200      	str	r2, [sp, #0]
    1f2e:	f851 2c08 	ldr.w	r2, [r1, #-8]
    1f32:	f001 facf 	bl	34d4 <mbedtls_mpi_init_static>
get_mpi():
/mnt/disk/raspbian-tee/optee_os/lib/libutee/tee_api_arith_mpi.c:99
    1f36:	4628      	mov	r0, r5
    1f38:	f001 fab9 	bl	34ae <mbedtls_mpi_init_mempool>
get_const_mpi():
/mnt/disk/raspbian-tee/optee_os/lib/libutee/tee_api_arith_mpi.c:115
    1f3c:	4621      	mov	r1, r4
    1f3e:	4628      	mov	r0, r5
    1f40:	f001 fbb2 	bl	36a8 <mbedtls_mpi_copy>
    1f44:	4602      	mov	r2, r0
    1f46:	b120      	cbz	r0, 1f52 <get_const_mpi+0x3a>
/mnt/disk/raspbian-tee/optee_os/lib/libutee/tee_api_arith_mpi.c:115 (discriminator 1)
    1f48:	4803      	ldr	r0, [pc, #12]	; (1f58 <get_const_mpi+0x40>)
    1f4a:	2173      	movs	r1, #115	; 0x73
    1f4c:	4478      	add	r0, pc
    1f4e:	f7ff ffd3 	bl	1ef8 <mpi_panic>
/mnt/disk/raspbian-tee/optee_os/lib/libutee/tee_api_arith_mpi.c:116
    1f52:	b007      	add	sp, #28
    1f54:	bd30      	pop	{r4, r5, pc}
    1f56:	bf00      	nop
    1f58:	00004d1d 	.word	0x00004d1d

00001f5c <mpi_is_odd>:
mpi_is_odd():
/mnt/disk/raspbian-tee/optee_os/lib/libutee/tee_api_arith_mpi.c:599
    1f5c:	b508      	push	{r3, lr}
/mnt/disk/raspbian-tee/optee_os/lib/libutee/tee_api_arith_mpi.c:600
    1f5e:	2100      	movs	r1, #0
    1f60:	f001 fc79 	bl	3856 <mbedtls_mpi_get_bit>
/mnt/disk/raspbian-tee/optee_os/lib/libutee/tee_api_arith_mpi.c:601
    1f64:	3000      	adds	r0, #0
    1f66:	bf18      	it	ne
    1f68:	2001      	movne	r0, #1
    1f6a:	bd08      	pop	{r3, pc}

00001f6c <rng_read>:
rng_read():
/mnt/disk/raspbian-tee/optee_os/lib/libutee/tee_api_arith_mpi.c:763
    1f6c:	b508      	push	{r3, lr}
    1f6e:	4608      	mov	r0, r1
/mnt/disk/raspbian-tee/optee_os/lib/libutee/tee_api_arith_mpi.c:764
    1f70:	4611      	mov	r1, r2
    1f72:	f7ff eec6 	blx	1d00 <utee_cryp_random_number_generate>
    1f76:	2800      	cmp	r0, #0
/mnt/disk/raspbian-tee/optee_os/lib/libutee/tee_api_arith_mpi.c:767
    1f78:	f06f 0001 	mvn.w	r0, #1
    1f7c:	bf08      	it	eq
    1f7e:	2000      	moveq	r0, #0
    1f80:	bd08      	pop	{r3, pc}

00001f82 <put_mpi>:
put_mpi():
/mnt/disk/raspbian-tee/optee_os/lib/libutee/tee_api_arith_mpi.c:128
    1f82:	7842      	ldrb	r2, [r0, #1]
    1f84:	2a02      	cmp	r2, #2
    1f86:	d108      	bne.n	1f9a <put_mpi+0x18>
/mnt/disk/raspbian-tee/optee_os/lib/libutee/tee_api_arith_mpi.c:129
    1f88:	6882      	ldr	r2, [r0, #8]
/mnt/disk/raspbian-tee/optee_os/lib/libutee/tee_api_arith_mpi.c:131
    1f8a:	f990 1000 	ldrsb.w	r1, [r0]
/mnt/disk/raspbian-tee/optee_os/lib/libutee/tee_api_arith_mpi.c:132
    1f8e:	8883      	ldrh	r3, [r0, #4]
/mnt/disk/raspbian-tee/optee_os/lib/libutee/tee_api_arith_mpi.c:131
    1f90:	f842 1c08 	str.w	r1, [r2, #-8]
/mnt/disk/raspbian-tee/optee_os/lib/libutee/tee_api_arith_mpi.c:132
    1f94:	f822 3c02 	strh.w	r3, [r2, #-2]
    1f98:	4770      	bx	lr
/mnt/disk/raspbian-tee/optee_os/lib/libutee/tee_api_arith_mpi.c:134
    1f9a:	f001 baa4 	b.w	34e6 <mbedtls_mpi_free>

00001f9e <mpi_egcd>:
mpi_egcd():
/mnt/disk/raspbian-tee/optee_os/lib/libutee/tee_api_arith_mpi.c:614
    1f9e:	e92d 4ff0 	stmdb	sp!, {r4, r5, r6, r7, r8, r9, sl, fp, lr}
    1fa2:	4681      	mov	r9, r0
    1fa4:	b09b      	sub	sp, #108	; 0x6c
get_mpi():
/mnt/disk/raspbian-tee/optee_os/lib/libutee/tee_api_arith_mpi.c:99
    1fa6:	f10d 0814 	add.w	r8, sp, #20
    1faa:	af08      	add	r7, sp, #32
    1fac:	4640      	mov	r0, r8
    1fae:	ad0b      	add	r5, sp, #44	; 0x2c
mpi_egcd():
/mnt/disk/raspbian-tee/optee_os/lib/libutee/tee_api_arith_mpi.c:614
    1fb0:	9102      	str	r1, [sp, #8]
get_mpi():
/mnt/disk/raspbian-tee/optee_os/lib/libutee/tee_api_arith_mpi.c:99
    1fb2:	ac0e      	add	r4, sp, #56	; 0x38
mpi_egcd():
/mnt/disk/raspbian-tee/optee_os/lib/libutee/tee_api_arith_mpi.c:614
    1fb4:	9203      	str	r2, [sp, #12]
get_mpi():
/mnt/disk/raspbian-tee/optee_os/lib/libutee/tee_api_arith_mpi.c:99
    1fb6:	f10d 0a44 	add.w	sl, sp, #68	; 0x44
mpi_egcd():
/mnt/disk/raspbian-tee/optee_os/lib/libutee/tee_api_arith_mpi.c:614
    1fba:	9301      	str	r3, [sp, #4]
get_mpi():
/mnt/disk/raspbian-tee/optee_os/lib/libutee/tee_api_arith_mpi.c:99
    1fbc:	f001 fa77 	bl	34ae <mbedtls_mpi_init_mempool>
    1fc0:	4638      	mov	r0, r7
    1fc2:	f10d 0b50 	add.w	fp, sp, #80	; 0x50
    1fc6:	f001 fa72 	bl	34ae <mbedtls_mpi_init_mempool>
    1fca:	4628      	mov	r0, r5
    1fcc:	f001 fa6f 	bl	34ae <mbedtls_mpi_init_mempool>
    1fd0:	4620      	mov	r0, r4
    1fd2:	f001 fa6c 	bl	34ae <mbedtls_mpi_init_mempool>
    1fd6:	4650      	mov	r0, sl
    1fd8:	f001 fa69 	bl	34ae <mbedtls_mpi_init_mempool>
    1fdc:	ae17      	add	r6, sp, #92	; 0x5c
    1fde:	4658      	mov	r0, fp
    1fe0:	f001 fa65 	bl	34ae <mbedtls_mpi_init_mempool>
    1fe4:	4630      	mov	r0, r6
    1fe6:	f001 fa62 	bl	34ae <mbedtls_mpi_init_mempool>
mpi_egcd():
/mnt/disk/raspbian-tee/optee_os/lib/libutee/tee_api_arith_mpi.c:633
    1fea:	2100      	movs	r1, #0
    1fec:	9824      	ldr	r0, [sp, #144]	; 0x90
    1fee:	f001 fe08 	bl	3c02 <mbedtls_mpi_cmp_int>
    1ff2:	bb20      	cbnz	r0, 203e <mpi_egcd+0xa0>
/mnt/disk/raspbian-tee/optee_os/lib/libutee/tee_api_arith_mpi.c:634
    1ff4:	2101      	movs	r1, #1
    1ff6:	9802      	ldr	r0, [sp, #8]
    1ff8:	f001 fc11 	bl	381e <mbedtls_mpi_lset>
    1ffc:	4602      	mov	r2, r0
    1ffe:	b130      	cbz	r0, 200e <mpi_egcd+0x70>
/mnt/disk/raspbian-tee/optee_os/lib/libutee/tee_api_arith_mpi.c:634 (discriminator 1)
    2000:	48dd      	ldr	r0, [pc, #884]	; (2378 <mpi_egcd+0x3da>)
    2002:	f240 217a 	movw	r1, #634	; 0x27a
    2006:	4478      	add	r0, pc
/mnt/disk/raspbian-tee/optee_os/lib/libutee/tee_api_arith_mpi.c:635 (discriminator 1)
    2008:	300e      	adds	r0, #14
    200a:	f7ff ff75 	bl	1ef8 <mpi_panic>
/mnt/disk/raspbian-tee/optee_os/lib/libutee/tee_api_arith_mpi.c:635
    200e:	4601      	mov	r1, r0
    2010:	9803      	ldr	r0, [sp, #12]
    2012:	f001 fc04 	bl	381e <mbedtls_mpi_lset>
    2016:	4602      	mov	r2, r0
    2018:	b120      	cbz	r0, 2024 <mpi_egcd+0x86>
/mnt/disk/raspbian-tee/optee_os/lib/libutee/tee_api_arith_mpi.c:635 (discriminator 1)
    201a:	48d8      	ldr	r0, [pc, #864]	; (237c <mpi_egcd+0x3de>)
    201c:	f240 217b 	movw	r1, #635	; 0x27b
    2020:	4478      	add	r0, pc
    2022:	e7f1      	b.n	2008 <mpi_egcd+0x6a>
/mnt/disk/raspbian-tee/optee_os/lib/libutee/tee_api_arith_mpi.c:636
    2024:	9901      	ldr	r1, [sp, #4]
    2026:	4648      	mov	r0, r9
    2028:	f001 fb3e 	bl	36a8 <mbedtls_mpi_copy>
    202c:	4602      	mov	r2, r0
    202e:	2800      	cmp	r0, #0
    2030:	f000 818a 	beq.w	2348 <mpi_egcd+0x3aa>
/mnt/disk/raspbian-tee/optee_os/lib/libutee/tee_api_arith_mpi.c:636 (discriminator 1)
    2034:	48d2      	ldr	r0, [pc, #840]	; (2380 <mpi_egcd+0x3e2>)
    2036:	f44f 711f 	mov.w	r1, #636	; 0x27c
    203a:	4478      	add	r0, pc
    203c:	e7e4      	b.n	2008 <mpi_egcd+0x6a>
/mnt/disk/raspbian-tee/optee_os/lib/libutee/tee_api_arith_mpi.c:640
    203e:	9901      	ldr	r1, [sp, #4]
    2040:	4650      	mov	r0, sl
    2042:	f001 fb31 	bl	36a8 <mbedtls_mpi_copy>
    2046:	4602      	mov	r2, r0
    2048:	b120      	cbz	r0, 2054 <mpi_egcd+0xb6>
/mnt/disk/raspbian-tee/optee_os/lib/libutee/tee_api_arith_mpi.c:640 (discriminator 1)
    204a:	48ce      	ldr	r0, [pc, #824]	; (2384 <mpi_egcd+0x3e6>)
    204c:	f44f 7120 	mov.w	r1, #640	; 0x280
    2050:	4478      	add	r0, pc
    2052:	e7d9      	b.n	2008 <mpi_egcd+0x6a>
/mnt/disk/raspbian-tee/optee_os/lib/libutee/tee_api_arith_mpi.c:641
    2054:	9924      	ldr	r1, [sp, #144]	; 0x90
    2056:	4658      	mov	r0, fp
    2058:	f001 fb26 	bl	36a8 <mbedtls_mpi_copy>
    205c:	4602      	mov	r2, r0
    205e:	b178      	cbz	r0, 2080 <mpi_egcd+0xe2>
/mnt/disk/raspbian-tee/optee_os/lib/libutee/tee_api_arith_mpi.c:641 (discriminator 1)
    2060:	48c9      	ldr	r0, [pc, #804]	; (2388 <mpi_egcd+0x3ea>)
    2062:	f240 2181 	movw	r1, #641	; 0x281
    2066:	4478      	add	r0, pc
    2068:	e7ce      	b.n	2008 <mpi_egcd+0x6a>
/mnt/disk/raspbian-tee/optee_os/lib/libutee/tee_api_arith_mpi.c:647
    206a:	2101      	movs	r1, #1
    206c:	4658      	mov	r0, fp
    206e:	f001 fd0a 	bl	3a86 <mbedtls_mpi_shift_r>
    2072:	4602      	mov	r2, r0
    2074:	b128      	cbz	r0, 2082 <mpi_egcd+0xe4>
/mnt/disk/raspbian-tee/optee_os/lib/libutee/tee_api_arith_mpi.c:647 (discriminator 1)
    2076:	48c5      	ldr	r0, [pc, #788]	; (238c <mpi_egcd+0x3ee>)
    2078:	f240 2187 	movw	r1, #647	; 0x287
    207c:	4478      	add	r0, pc
    207e:	e7c3      	b.n	2008 <mpi_egcd+0x6a>
    2080:	9001      	str	r0, [sp, #4]
mpi_is_even():
/mnt/disk/raspbian-tee/optee_os/lib/libutee/tee_api_arith_mpi.c:605
    2082:	4650      	mov	r0, sl
    2084:	f7ff ff6a 	bl	1f5c <mpi_is_odd>
mpi_egcd():
/mnt/disk/raspbian-tee/optee_os/lib/libutee/tee_api_arith_mpi.c:644
    2088:	b150      	cbz	r0, 20a0 <mpi_egcd+0x102>
/mnt/disk/raspbian-tee/optee_os/lib/libutee/tee_api_arith_mpi.c:650
    208a:	4651      	mov	r1, sl
    208c:	4630      	mov	r0, r6
    208e:	f001 fb0b 	bl	36a8 <mbedtls_mpi_copy>
    2092:	4602      	mov	r2, r0
    2094:	b1c0      	cbz	r0, 20c8 <mpi_egcd+0x12a>
/mnt/disk/raspbian-tee/optee_os/lib/libutee/tee_api_arith_mpi.c:650 (discriminator 1)
    2096:	48be      	ldr	r0, [pc, #760]	; (2390 <mpi_egcd+0x3f2>)
    2098:	f240 218a 	movw	r1, #650	; 0x28a
    209c:	4478      	add	r0, pc
    209e:	e7b3      	b.n	2008 <mpi_egcd+0x6a>
mpi_is_even():
/mnt/disk/raspbian-tee/optee_os/lib/libutee/tee_api_arith_mpi.c:605
    20a0:	4658      	mov	r0, fp
    20a2:	f7ff ff5b 	bl	1f5c <mpi_is_odd>
mpi_egcd():
/mnt/disk/raspbian-tee/optee_os/lib/libutee/tee_api_arith_mpi.c:644
    20a6:	2800      	cmp	r0, #0
    20a8:	d1ef      	bne.n	208a <mpi_egcd+0xec>
/mnt/disk/raspbian-tee/optee_os/lib/libutee/tee_api_arith_mpi.c:645
    20aa:	9b01      	ldr	r3, [sp, #4]
/mnt/disk/raspbian-tee/optee_os/lib/libutee/tee_api_arith_mpi.c:646
    20ac:	2101      	movs	r1, #1
    20ae:	4650      	mov	r0, sl
/mnt/disk/raspbian-tee/optee_os/lib/libutee/tee_api_arith_mpi.c:645
    20b0:	3301      	adds	r3, #1
    20b2:	9301      	str	r3, [sp, #4]
/mnt/disk/raspbian-tee/optee_os/lib/libutee/tee_api_arith_mpi.c:646
    20b4:	f001 fce7 	bl	3a86 <mbedtls_mpi_shift_r>
    20b8:	4602      	mov	r2, r0
    20ba:	2800      	cmp	r0, #0
    20bc:	d0d5      	beq.n	206a <mpi_egcd+0xcc>
/mnt/disk/raspbian-tee/optee_os/lib/libutee/tee_api_arith_mpi.c:646 (discriminator 1)
    20be:	48b5      	ldr	r0, [pc, #724]	; (2394 <mpi_egcd+0x3f6>)
    20c0:	f240 2186 	movw	r1, #646	; 0x286
    20c4:	4478      	add	r0, pc
    20c6:	e79f      	b.n	2008 <mpi_egcd+0x6a>
/mnt/disk/raspbian-tee/optee_os/lib/libutee/tee_api_arith_mpi.c:651
    20c8:	4659      	mov	r1, fp
    20ca:	4648      	mov	r0, r9
    20cc:	f001 faec 	bl	36a8 <mbedtls_mpi_copy>
    20d0:	4602      	mov	r2, r0
    20d2:	b120      	cbz	r0, 20de <mpi_egcd+0x140>
/mnt/disk/raspbian-tee/optee_os/lib/libutee/tee_api_arith_mpi.c:651 (discriminator 1)
    20d4:	48b0      	ldr	r0, [pc, #704]	; (2398 <mpi_egcd+0x3fa>)
    20d6:	f240 218b 	movw	r1, #651	; 0x28b
    20da:	4478      	add	r0, pc
    20dc:	e794      	b.n	2008 <mpi_egcd+0x6a>
/mnt/disk/raspbian-tee/optee_os/lib/libutee/tee_api_arith_mpi.c:652
    20de:	2101      	movs	r1, #1
    20e0:	4640      	mov	r0, r8
    20e2:	f001 fb9c 	bl	381e <mbedtls_mpi_lset>
    20e6:	4602      	mov	r2, r0
    20e8:	b120      	cbz	r0, 20f4 <mpi_egcd+0x156>
/mnt/disk/raspbian-tee/optee_os/lib/libutee/tee_api_arith_mpi.c:652 (discriminator 1)
    20ea:	48ac      	ldr	r0, [pc, #688]	; (239c <mpi_egcd+0x3fe>)
    20ec:	f44f 7123 	mov.w	r1, #652	; 0x28c
    20f0:	4478      	add	r0, pc
    20f2:	e789      	b.n	2008 <mpi_egcd+0x6a>
/mnt/disk/raspbian-tee/optee_os/lib/libutee/tee_api_arith_mpi.c:653
    20f4:	4601      	mov	r1, r0
    20f6:	4638      	mov	r0, r7
    20f8:	f001 fb91 	bl	381e <mbedtls_mpi_lset>
    20fc:	4602      	mov	r2, r0
    20fe:	b120      	cbz	r0, 210a <mpi_egcd+0x16c>
/mnt/disk/raspbian-tee/optee_os/lib/libutee/tee_api_arith_mpi.c:653 (discriminator 1)
    2100:	48a7      	ldr	r0, [pc, #668]	; (23a0 <mpi_egcd+0x402>)
    2102:	f240 218d 	movw	r1, #653	; 0x28d
    2106:	4478      	add	r0, pc
    2108:	e77e      	b.n	2008 <mpi_egcd+0x6a>
/mnt/disk/raspbian-tee/optee_os/lib/libutee/tee_api_arith_mpi.c:654
    210a:	4601      	mov	r1, r0
    210c:	4628      	mov	r0, r5
    210e:	f001 fb86 	bl	381e <mbedtls_mpi_lset>
    2112:	4602      	mov	r2, r0
    2114:	b120      	cbz	r0, 2120 <mpi_egcd+0x182>
/mnt/disk/raspbian-tee/optee_os/lib/libutee/tee_api_arith_mpi.c:654 (discriminator 1)
    2116:	48a3      	ldr	r0, [pc, #652]	; (23a4 <mpi_egcd+0x406>)
    2118:	f240 218e 	movw	r1, #654	; 0x28e
    211c:	4478      	add	r0, pc
    211e:	e773      	b.n	2008 <mpi_egcd+0x6a>
/mnt/disk/raspbian-tee/optee_os/lib/libutee/tee_api_arith_mpi.c:655
    2120:	2101      	movs	r1, #1
    2122:	4620      	mov	r0, r4
    2124:	f001 fb7b 	bl	381e <mbedtls_mpi_lset>
    2128:	4602      	mov	r2, r0
    212a:	2800      	cmp	r0, #0
    212c:	f000 80e4 	beq.w	22f8 <mpi_egcd+0x35a>
/mnt/disk/raspbian-tee/optee_os/lib/libutee/tee_api_arith_mpi.c:655 (discriminator 1)
    2130:	489d      	ldr	r0, [pc, #628]	; (23a8 <mpi_egcd+0x40a>)
    2132:	f240 218f 	movw	r1, #655	; 0x28f
    2136:	4478      	add	r0, pc
    2138:	e766      	b.n	2008 <mpi_egcd+0x6a>
/mnt/disk/raspbian-tee/optee_os/lib/libutee/tee_api_arith_mpi.c:659
    213a:	2101      	movs	r1, #1
    213c:	4630      	mov	r0, r6
    213e:	f001 fca2 	bl	3a86 <mbedtls_mpi_shift_r>
    2142:	4602      	mov	r2, r0
    2144:	b120      	cbz	r0, 2150 <mpi_egcd+0x1b2>
/mnt/disk/raspbian-tee/optee_os/lib/libutee/tee_api_arith_mpi.c:659 (discriminator 1)
    2146:	4899      	ldr	r0, [pc, #612]	; (23ac <mpi_egcd+0x40e>)
    2148:	f240 2193 	movw	r1, #659	; 0x293
    214c:	4478      	add	r0, pc
    214e:	e75b      	b.n	2008 <mpi_egcd+0x6a>
/mnt/disk/raspbian-tee/optee_os/lib/libutee/tee_api_arith_mpi.c:660
    2150:	4640      	mov	r0, r8
    2152:	f7ff ff03 	bl	1f5c <mpi_is_odd>
    2156:	b158      	cbz	r0, 2170 <mpi_egcd+0x1d2>
/mnt/disk/raspbian-tee/optee_os/lib/libutee/tee_api_arith_mpi.c:661
    2158:	465a      	mov	r2, fp
    215a:	4641      	mov	r1, r8
    215c:	4640      	mov	r0, r8
    215e:	f001 fe06 	bl	3d6e <mbedtls_mpi_add_mpi>
    2162:	4602      	mov	r2, r0
    2164:	b1a0      	cbz	r0, 2190 <mpi_egcd+0x1f2>
/mnt/disk/raspbian-tee/optee_os/lib/libutee/tee_api_arith_mpi.c:661 (discriminator 1)
    2166:	4892      	ldr	r0, [pc, #584]	; (23b0 <mpi_egcd+0x412>)
    2168:	f240 2195 	movw	r1, #661	; 0x295
    216c:	4478      	add	r0, pc
    216e:	e74b      	b.n	2008 <mpi_egcd+0x6a>
/mnt/disk/raspbian-tee/optee_os/lib/libutee/tee_api_arith_mpi.c:660 (discriminator 1)
    2170:	4638      	mov	r0, r7
    2172:	f7ff fef3 	bl	1f5c <mpi_is_odd>
    2176:	2800      	cmp	r0, #0
    2178:	d1ee      	bne.n	2158 <mpi_egcd+0x1ba>
/mnt/disk/raspbian-tee/optee_os/lib/libutee/tee_api_arith_mpi.c:664
    217a:	2101      	movs	r1, #1
    217c:	4640      	mov	r0, r8
    217e:	f001 fc82 	bl	3a86 <mbedtls_mpi_shift_r>
    2182:	4602      	mov	r2, r0
    2184:	b188      	cbz	r0, 21aa <mpi_egcd+0x20c>
/mnt/disk/raspbian-tee/optee_os/lib/libutee/tee_api_arith_mpi.c:664 (discriminator 1)
    2186:	488b      	ldr	r0, [pc, #556]	; (23b4 <mpi_egcd+0x416>)
    2188:	f44f 7126 	mov.w	r1, #664	; 0x298
    218c:	4478      	add	r0, pc
    218e:	e73b      	b.n	2008 <mpi_egcd+0x6a>
/mnt/disk/raspbian-tee/optee_os/lib/libutee/tee_api_arith_mpi.c:662
    2190:	4652      	mov	r2, sl
    2192:	4639      	mov	r1, r7
    2194:	4638      	mov	r0, r7
    2196:	f001 fe0e 	bl	3db6 <mbedtls_mpi_sub_mpi>
    219a:	4602      	mov	r2, r0
    219c:	2800      	cmp	r0, #0
    219e:	d0ec      	beq.n	217a <mpi_egcd+0x1dc>
/mnt/disk/raspbian-tee/optee_os/lib/libutee/tee_api_arith_mpi.c:662 (discriminator 1)
    21a0:	4885      	ldr	r0, [pc, #532]	; (23b8 <mpi_egcd+0x41a>)
    21a2:	f240 2196 	movw	r1, #662	; 0x296
    21a6:	4478      	add	r0, pc
    21a8:	e72e      	b.n	2008 <mpi_egcd+0x6a>
/mnt/disk/raspbian-tee/optee_os/lib/libutee/tee_api_arith_mpi.c:665
    21aa:	2101      	movs	r1, #1
    21ac:	4638      	mov	r0, r7
    21ae:	f001 fc6a 	bl	3a86 <mbedtls_mpi_shift_r>
    21b2:	4602      	mov	r2, r0
    21b4:	b120      	cbz	r0, 21c0 <mpi_egcd+0x222>
