
8aaaf200-2450-11e4-abe2-0002a5d5c51b.elf:     file format elf32-littlearm
8aaaf200-2450-11e4-abe2-0002a5d5c51b.elf
architecture: armv8-a, flags 0x00000150:
HAS_SYMS, DYNAMIC, D_PAGED
start address 0x00000020

Program Header:
0x70000001 off    0x00017b6c vaddr 0x00007b6c paddr 0x00007b6c align 2**2
         filesz 0x00000500 memsz 0x00000500 flags r--
    LOAD off    0x00010000 vaddr 0x00000000 paddr 0x00000000 align 2**16
         filesz 0x000068e8 memsz 0x000068e8 flags r-x
    LOAD off    0x000168e8 vaddr 0x000068e8 paddr 0x000068e8 align 2**16
         filesz 0x000019a0 memsz 0x000019a0 flags r--
    LOAD off    0x00019000 vaddr 0x00009000 paddr 0x00009000 align 2**16
         filesz 0x0000009c memsz 0x0000a110 flags rw-
 DYNAMIC off    0x000181b4 vaddr 0x000081b4 paddr 0x000081b4 align 2**2
         filesz 0x00000088 memsz 0x00000088 flags rw-

Dynamic Section:
  HASH                 0x00008270
  GNU_HASH             0x00007b24
  STRTAB               0x0000826c
  SYMTAB               0x0000823c
  STRSZ                0x00000001
  SYMENT               0x00000010
  DEBUG                0x00000000
  REL                  0x000080a4
  RELSZ                0x00000110
  RELENT               0x00000008
  FLAGS_1              0x08000000
  RELCOUNT             0x00000017
private flags = 0x5000400: [Version5 EABI] [hard-float ABI]

Sections:
Idx Name          Size      VMA       LMA       File off  Algn
  0 .ta_head      00000020  00000000  00000000  00010000  2**3
                  CONTENTS, ALLOC, LOAD, DATA
  1 .text         000068c8  00000020  00000020  00010020  2**3
                  CONTENTS, ALLOC, LOAD, READONLY, CODE
  2 .rodata       00001155  000068e8  000068e8  000168e8  2**2
                  CONTENTS, ALLOC, LOAD, READONLY, DATA
  3 .ARM.extab    000000e4  00007a40  00007a40  00017a40  2**2
                  CONTENTS, ALLOC, LOAD, READONLY, DATA
  4 .gnu.hash     00000018  00007b24  00007b24  00017b24  2**2
                  CONTENTS, ALLOC, LOAD, READONLY, DATA
  5 .ARM.extab.text.__aeabi_ldivmod 0000000c  00007b3c  00007b3c  00017b3c  2**2
                  CONTENTS, ALLOC, LOAD, READONLY, DATA
  6 .ARM.extab.text.__aeabi_uldivmod 0000000c  00007b48  00007b48  00017b48  2**2
                  CONTENTS, ALLOC, LOAD, READONLY, DATA
  7 .ARM.extab.text.utee_panic 0000000c  00007b54  00007b54  00017b54  2**2
                  CONTENTS, ALLOC, LOAD, READONLY, DATA
  8 .ARM.extab.text.unlikely 0000000c  00007b60  00007b60  00017b60  2**2
                  CONTENTS, ALLOC, LOAD, READONLY, DATA
  9 .ARM.exidx    00000500  00007b6c  00007b6c  00017b6c  2**2
                  CONTENTS, ALLOC, LOAD, READONLY, DATA
 10 .got          00000038  0000806c  0000806c  0001806c  2**2
                  CONTENTS, ALLOC, LOAD, DATA
 11 .dynsym       00000030  0000823c  0000823c  0001823c  2**2
                  CONTENTS, ALLOC, LOAD, READONLY, DATA
 12 .rel.got      00000058  0000815c  0000815c  0001815c  2**2
                  CONTENTS, ALLOC, LOAD, READONLY, DATA
 13 .dynamic      00000088  000081b4  000081b4  000181b4  2**2
                  CONTENTS, ALLOC, LOAD, DATA
 14 .dynstr       00000001  0000826c  0000826c  0001826c  2**0
                  CONTENTS, ALLOC, LOAD, READONLY, DATA
 15 .hash         00000018  00008270  00008270  00018270  2**2
                  CONTENTS, ALLOC, LOAD, READONLY, DATA
 16 .data         0000009c  00009000  00009000  00019000  2**2
                  CONTENTS, ALLOC, LOAD, DATA
 17 .bss          0000a074  0000909c  0000909c  0001909c  2**2
                  ALLOC
 18 .debug_info   0000eb77  00000000  00000000  0001909c  2**0
                  CONTENTS, READONLY, DEBUGGING, OCTETS
 19 .debug_abbrev 00002915  00000000  00000000  00027c13  2**0
                  CONTENTS, READONLY, DEBUGGING, OCTETS
 20 .debug_loclists 00000773  00000000  00000000  0002a528  2**0
                  CONTENTS, READONLY, DEBUGGING, OCTETS
 21 .debug_aranges 00000530  00000000  00000000  0002aca0  2**3
                  CONTENTS, READONLY, DEBUGGING, OCTETS
 22 .debug_rnglists 0000003d  00000000  00000000  0002b1d0  2**0
                  CONTENTS, READONLY, DEBUGGING, OCTETS
 23 .debug_macro  000111d9  00000000  00000000  0002b20d  2**0
                  CONTENTS, READONLY, DEBUGGING, OCTETS
 24 .debug_line   00004f0d  00000000  00000000  0003c3e6  2**0
                  CONTENTS, READONLY, DEBUGGING, OCTETS
 25 .debug_str    000114c1  00000000  00000000  000412f3  2**0
                  CONTENTS, READONLY, DEBUGGING, OCTETS
 26 .comment      0000004f  00000000  00000000  000527b4  2**0
                  CONTENTS, READONLY
 27 .ARM.attributes 00000031  00000000  00000000  00052803  2**0
                  CONTENTS, READONLY
 28 .debug_frame  000018e4  00000000  00000000  00052834  2**2
                  CONTENTS, READONLY, DEBUGGING, OCTETS
 29 .rel.dyn      000000b8  000080a4  000080a4  000180a4  2**2
                  CONTENTS, ALLOC, LOAD, READONLY, DATA
 30 .debug_loc    0000cd72  00000000  00000000  00054118  2**0
                  CONTENTS, READONLY, DEBUGGING, OCTETS
 31 .debug_ranges 00000758  00000000  00000000  00060e90  2**3
                  CONTENTS, READONLY, DEBUGGING, OCTETS
SYMBOL TABLE:
00000000 l    d  .ta_head	00000000 .ta_head
00000020 l    d  .text	00000000 .text
000068e8 l    d  .rodata	00000000 .rodata
00007a40 l    d  .ARM.extab	00000000 .ARM.extab
00007b24 l    d  .gnu.hash	00000000 .gnu.hash
00007b3c l    d  .ARM.extab.text.__aeabi_ldivmod	00000000 .ARM.extab.text.__aeabi_ldivmod
00007b48 l    d  .ARM.extab.text.__aeabi_uldivmod	00000000 .ARM.extab.text.__aeabi_uldivmod
00007b54 l    d  .ARM.extab.text.utee_panic	00000000 .ARM.extab.text.utee_panic
00007b60 l    d  .ARM.extab.text.unlikely	00000000 .ARM.extab.text.unlikely
00007b6c l    d  .ARM.exidx	00000000 .ARM.exidx
0000806c l    d  .got	00000000 .got
0000815c l    d  .rel.got	00000000 .rel.got
000081b4 l    d  .dynamic	00000000 .dynamic
0000823c l    d  .dynsym	00000000 .dynsym
0000826c l    d  .dynstr	00000000 .dynstr
00008270 l    d  .hash	00000000 .hash
00009000 l    d  .data	00000000 .data
0000909c l    d  .bss	00000000 .bss
00000000 l    d  .debug_info	00000000 .debug_info
00000000 l    d  .debug_abbrev	00000000 .debug_abbrev
00000000 l    d  .debug_loclists	00000000 .debug_loclists
00000000 l    d  .debug_aranges	00000000 .debug_aranges
00000000 l    d  .debug_rnglists	00000000 .debug_rnglists
00000000 l    d  .debug_macro	00000000 .debug_macro
00000000 l    d  .debug_line	00000000 .debug_line
00000000 l    d  .debug_str	00000000 .debug_str
00000000 l    d  .comment	00000000 .comment
00000000 l    d  .ARM.attributes	00000000 .ARM.attributes
00000000 l    d  .debug_frame	00000000 .debug_frame
000080a4 l    d  .rel.dyn	00000000 .rel.dyn
00000000 l    d  .debug_loc	00000000 .debug_loc
00000000 l    d  .debug_ranges	00000000 .debug_ranges
00000000 l    df *ABS*	00000000 user_ta_header.c
000068ec l     O .rodata	00000004 __compound_literal.5
000068f0 l     O .rodata	00000004 __compound_literal.4
000068f4 l     O .rodata	00000004 __compound_literal.3
000068f8 l     O .rodata	00000001 __compound_literal.2
000068f9 l     O .rodata	00000001 __compound_literal.1
000068fa l     O .rodata	00000001 __compound_literal.0
00000000 l    df *ABS*	00000000 entry.c
00000370 l     F .text	00000158 output
000008f4 l     F .text	0000027c shared_memory
00006c1a l     O .rodata	00000014 __func__.9
00006c2e l     O .rodata	00000015 __func__.8
00006c43 l     O .rodata	00000019 __func__.7
00006c5c l     O .rodata	0000001a __func__.6
00006c76 l     O .rodata	00000007 __func__.2
00006c7d l     O .rodata	0000000b __func__.5
00006c88 l     O .rodata	0000000a __func__.4
00006c92 l     O .rodata	0000000b __func__.3
00006c9d l     O .rodata	0000000e __func__.0
00006cab l     O .rodata	00000006 __func__.1
00000000 l    df *ABS*	00000000 snprintk.c
00006dd9 l     O .rodata	00000011 HEXDIGITS
00006dea l     O .rodata	00000011 hexdigits
00000000 l    df *ABS*	00000000 trace.c
000013c0 l     F .text	0000004e append
00006e33 l     O .rodata	00000005 lvl_strs.5561
00006e38 l     O .rodata	0000000a __func__.5615
00000000 l    df *ABS*	00000000 arm32_aeabi_ldivmod_a32.o
00000000 l    df *ABS*	00000000 trace_ext.c
00000000 l    df *ABS*	00000000 tee_api.c
00006e79 l     O .rodata	0000000b __func__.6728
0000909c l     O .bss	00000004 tee_api_instance_data
00000000 l    df *ABS*	00000000 user_ta_entry.c
00001a2c l     F .text	0000001c ta_header_get_session
00001a48 l     F .text	00000068 ta_header_remove_session
000090a0 l     O .bss	00000001 init_done
00009078 l     O .data	00000008 ta_sessions
00000000 l    df *ABS*	00000000 utee_syscalls_a32.o
00000000 l    df *ABS*	00000000 gprof_a32.o
00000000 l    df *ABS*	00000000 tee_api_arith_mpi.c
00003110 l     F .text	00000020 api_panic
000020fc l     F .text	00000020 mpi_panic
0000211c l     F .text	00000044 get_const_mpi
00002160 l     F .text	00000010 mpi_is_odd
00002170 l     F .text	00000016 rng_read
00002186 l     F .text	0000001c put_mpi
000021a2 l     F .text	0000045a mpi_egcd
000025fc l     F .text	00000024 get_mpi
00002620 l     F .text	00000088 bigint_binary
000090c8 l     O .bss	00002000 data.6728
000028ae l     F .text	000000ea bigint_binary_mod
00006e95 l     O .rodata	0000000e __func__.6757
00006ea3 l     O .rodata	00000009 __func__.6996
00006eac l     O .rodata	0000000e __func__.6856
00006eba l     O .rodata	00000012 __func__.6729
00006ecc l     O .rodata	0000000f __func__.6767
00006edb l     O .rodata	0000001f __func__.6785
00006efa l     O .rodata	00000019 __func__.6792
00006f13 l     O .rodata	00000012 __func__.6867
00006f25 l     O .rodata	00000015 __func__.6822
00006f3a l     O .rodata	0000000e __func__.6894
00006f48 l     O .rodata	0000000e __func__.6922
00006f56 l     O .rodata	0000000e __func__.6928
00006f64 l     O .rodata	00000011 __func__.6957
00006f75 l     O .rodata	00000018 __func__.6973
00006f8d l     O .rodata	0000001d __func__.7053
00006faa l     O .rodata	00000019 __func__.7103
00006fc3 l     O .rodata	00000015 __func__.7117
00000000 l    df *ABS*	00000000 bignum.c
00003130 l     F .text	00000038 mpi_get_digit
00003168 l     F .text	0000005e mpi_sub_hlp
000031c6 l     F .text	00000492 mpi_mul_hlp
00003658 l     F .text	00000048 mbedtls_mpi_mod_int.part.1
000046fa l     F .text	0000006c mpi_write_hlp
000048a0 l     F .text	00000050 mpi_check_small_factors
00004f8c l     F .text	00000216 mpi_miller_rabin
00006904 l     O .rodata	000002a0 small_prime
00006ba4 l     O .rodata	00000024 gcd_pairs
00000000 l    df *ABS*	00000000 bget_malloc.c
00005930 l     F .text	00000030 raw_malloc_return_hook.isra.3
00005960 l     F .text	000000d8 create_free_block.constprop.11
00005b6c l     F .text	00000038 raw_malloc.constprop.15
000074ec l     O .rodata	00000012 __func__.5854
000074fe l     O .rodata	00000005 __func__.5710
00007503 l     O .rodata	00000006 __func__.5725
00007509 l     O .rodata	00000005 __func__.5742
0000750e l     O .rodata	00000006 __func__.5734
00007514 l     O .rodata	00000006 __func__.5751
0000751a l     O .rodata	00000007 __func__.5761
00007521 l     O .rodata	0000000d __func__.5890
0000752e l     O .rodata	0000000c __func__.5864
0000753a l     O .rodata	0000000b __func__.5875
00007545 l     O .rodata	00000010 __func__.5942
00007555 l     O .rodata	0000000e __func__.5896
00007563 l     O .rodata	00000013 __func__.5802
0000b0cc l     O .bss	00000038 mstats
0000b104 l     O .bss	00000004 malloc_pool_len
0000b108 l     O .bss	00000004 malloc_pool
00009080 l     O .data	0000001c malloc_poolset
00000000 l    df *ABS*	00000000 mempool.c
0000797e l     O .rodata	00000013 __func__.5618
00007991 l     O .rodata	0000000e __func__.5627
00000000 l    df *ABS*	00000000 assert.c
00000000 l    df *ABS*	00000000 snprintf.c
00000000 l    df *ABS*	00000000 stack_check.c
00000000 l    df *ABS*	00000000 memcpy.c
00000000 l    df *ABS*	00000000 memset.c
00000000 l    df *ABS*	00000000 strcmp.c
00000000 l    df *ABS*	00000000 strlen.c
00000000 l    df *ABS*	00000000 aeabi_unwind.c
00000000 l    df *ABS*	00000000 memchr.c
00000000 l    df *ABS*	00000000 arm32_aeabi_ldivmod.c
00000000 l    df *ABS*	00000000 tee_api_panic.c
00000000 l    df *ABS*	00000000 memcmp.c
00000000 l    df *ABS*	00000000 memmove.c
00000000 l    df *ABS*	00000000 
000081b4 l     O *ABS*	00000000 _DYNAMIC
0000806c l     O *ABS*	00000000 _GLOBAL_OFFSET_TABLE_
000068a8 l     F .text	00000010 __utee_log_from_thumb
000068b8 l     F .text	00000010 __utee_cache_operation_from_thumb
000068c8 l     F .text	00000010 __utee_panic_from_thumb
000068d8 l     F .text	00000010 __utee_check_access_rights_from_thumb
00001724 g     F .text	00000022 putchar
00003022 g     F .text	00000004 TEE_BigIntConvertToFMM
00002d64 g     F .text	00000008 TEE_BigIntSquareMod
00002998 g     F .text	000000f4 TEE_BigIntShiftRight
00001fd4 g     F .text	00000018 utee_storage_obj_create
00003738 g     F .text	000000a8 mbedtls_mpi_grow
00006760 g     F .text	000000ec __l_divmod
00001c54 g     F .text	00000014 utee_return
00001a10 g     F .text	00000004 TEE_Realloc
000016c6 g     F .text	0000003a printf
00001c68 g     F .text	00000014 utee_log
0000182e g     F .text	00000066 TEE_InvokeTACommand
000036b2 g     F .text	00000026 mbedtls_mpi_init_mempool
00003bac g     F .text	00000046 mbedtls_mpi_write_binary
000001e4 g     F .text	00000104 produce
00001398 g     F .text	0000000e vsnprintk
00004036 g     F .text	00000030 mbedtls_mpi_sub_int
0000686e g     F .text	00000034 memmove
0000664c g     F .text	0000001e snprintf
00002888 g     F .text	00000026 TEE_BigIntCmpS32
00009070 g     O .data	00000004 __stack_chk_guard
000037e0 g     F .text	000000cc mbedtls_mpi_shrink
000066ca g     F .text	00000002 __aeabi_unwind_cpp_pr0
00002ad8 g     F .text	0000001c TEE_BigIntAdd
00001ca8 g     F .text	00000014 utee_get_property_name_to_index
000068fc g     O .rodata	00000004 ta_heap_size
00001d8c g     F .text	00000018 utee_cryp_state_alloc
00001f5c g     F .text	00000018 utee_authenc_enc_final
00004160 g     F .text	0000012c mbedtls_mpi_read_string
00002b10 g     F .text	00000058 TEE_BigIntNeg
00000020 g       .text	00000000 __text_start
00003c8a g     F .text	00000078 mbedtls_mpi_shift_r
000064c0 g     F .text	0000004c malloc_buffer_overlaps_heap
00002d2c g     F .text	0000001c TEE_BigIntSubMod
000054ce g     F .text	00000136 mbedtls_mpi_gen_prime
00003a5a g     F .text	00000020 mbedtls_mpi_get_bit
00003b46 g     F .text	00000066 mbedtls_mpi_read_binary
00001440 g     F .text	0000013c trace_printf
00004918 g     F .text	000000c4 mbedtls_mpi_montmul
0000667a g     F .text	00000016 memcpy
00001db8 g     F .text	00000014 utee_cryp_state_free
00003026 g     F .text	0000004a TEE_BigIntConvertFromFMM
0000684c g     F .text	00000004 TEE_Panic
00001694 g     F .text	00000018 __aeabi_uldivmod
00001700 g     F .text	00000024 puts
00003070 g     F .text	000000a0 TEE_BigIntComputeFMM
00005f88 g     F .text	00000020 malloc_get_stats
00001e38 g     F .text	00000018 utee_cipher_final
000019b0 g     F .text	00000016 TEE_GetREETime
00009004 g     O .data	0000006c ta_props
00005fa8 g     F .text	00000002 malloc
00001ea0 g     F .text	00000014 utee_cryp_obj_close
0000666a g     F .text	0000000e vsnprintf
00009000 g     O .data	00000004 trace_level
00002854 g     F .text	00000034 TEE_BigIntCmp
000068e8 g     O .rodata	00000004 ta_num_props
00005df8 g     F .text	0000007c bgetr
00001f44 g     F .text	00000018 utee_authenc_update_payload
000065e0 g     F .text	0000002e mempool_free
0000276c g     F .text	00000058 TEE_BigIntConvertToOctetString
000020dc g     F .text	00000014 utee_cache_operation
00003af8 g     F .text	00000042 mbedtls_mpi_bitlen
00001f18 g     F .text	00000018 utee_authenc_init
00002a8c g     F .text	0000002a TEE_BigIntGetBit
00006900 g     O .rodata	00000003 trace_ext_prefix
00005ba4 g     F .text	0000005c bgetz
00001900 g     F .text	0000000c TEE_GetInstanceData
0000192e g     F .text	0000001e TEE_Wait
0000208c g     F .text	00000014 utee_storage_obj_write
00004066 g     F .text	000000dc mbedtls_mpi_mul_mpi
000066ce g     F .text	00000002 __aeabi_unwind_cpp_pr2
00001a1e g     F .text	00000006 TEE_CacheFlush
00000048 g     F .text	00000028 TA_DestroyEntryPoint
000036a0 g     F .text	00000012 mbedtls_mpi_init
00003aca g     F .text	0000002e mbedtls_mpi_lsb
00006610 g     F .text	00000028 _assert_log
0000301e g     F .text	00000004 TEE_BigIntFMMContextSizeInU32
000000e4 g     F .text	00000002 enc
000026a8 g     F .text	00000044 _TEE_MathAPI_Init
00003f72 g     F .text	00000048 mbedtls_mpi_add_mpi
00002064 g     F .text	00000014 utee_storage_next_enum
00006678 g     F .text	00000002 __stack_chk_fail
0000b10c g     O .bss	00008000 ta_heap
00002d6c g     F .text	000000a4 TEE_BigIntInvMod
000000bc g     F .text	00000028 TA_CloseSessionEntryPoint
00003fba g     F .text	0000004c mbedtls_mpi_sub_mpi
00001c7c g     F .text	00000014 __utee_panic
00001da4 g     F .text	00000014 utee_cryp_state_copy
00000b70 g     F .text	000000f4 TA_InvokeCommandEntryPoint
00006550 g     F .text	0000006c mempool_alloc
00000518 g     F .text	00000098 produce_i0
00001e8c g     F .text	00000014 utee_cryp_obj_alloc
00001d78 g     F .text	00000014 utee_set_ta_time
00001e78 g     F .text	00000014 utee_cryp_obj_get_attr
000065bc g     F .text	00000024 mempool_calloc
00005fbc g     F .text	00000048 calloc
000019c6 g     F .text	0000004a TEE_Malloc
00001d3c g     F .text	00000014 utee_mask_cancellation
00001eb4 g     F .text	00000014 utee_cryp_obj_reset
000018e8 g     F .text	0000000a TEE_CheckMemoryAccessRights
00013110 g       .bss	00000000 __gprof_buf_end
000066ec g     F .text	00000074 __ul_divmod
00003a22 g     F .text	00000038 mbedtls_mpi_lset
00000070 g     F .text	0000004c TA_OpenSessionEntryPoint
00002050 g     F .text	00000014 utee_storage_start_enum
00002000 g     F .text	00000014 utee_storage_obj_rename
000090a4 g     O .bss	00000004 ta_param_types
0000462e g     F .text	0000002e mbedtls_mpi_div_int
00002fe0 g     F .text	00000030 TEE_BigIntIsProbablePrime
00004142 g     F .text	0000001e mbedtls_mpi_mul_int
00004a00 g     F .text	00000446 mbedtls_mpi_exp_mod
00003930 g     F .text	0000006c mbedtls_mpi_safe_cond_assign
00001c90 g     F .text	00000018 utee_get_property
000026ec g     F .text	00000040 TEE_BigIntInit
0000190c g     F .text	00000004 TEE_MemMove
0000272c g     F .text	00000040 TEE_BigIntConvertFromOctetString
00009074 g     O .data	00000004 _ref__utee_mcount
00003d02 g     F .text	0000006e mbedtls_mpi_cmp_abs
000000e8 g     F .text	000000fc produce_2
000066d0 g     F .text	0000001c memchr
000018b0 g     F .text	0000001c TEE_UnmaskCancellation
00005604 g     F .text	0000032c mbedtls_mpi_self_test
00001fec g     F .text	00000014 utee_storage_obj_del
000020b4 g     F .text	00000014 utee_storage_obj_seek
00003e06 g     F .text	00000030 mbedtls_mpi_cmp_int
00001de0 g     F .text	00000014 utee_hash_update
000000e6 g     F .text	00000002 dec
00000708 g     F .text	000001ec produce_s3
000020f0  w    F .text	0000000c __utee_mcount
00002cc0 g     F .text	00000050 TEE_BigIntMod
000046c0 g     F .text	0000003a mbedtls_mpi_mod_int
00001cd4 g     F .text	00000014 utee_close_ta_session
00002c12 g     F .text	000000ae TEE_BigIntDiv
000038ac g     F .text	00000056 mbedtls_mpi_copy
00005f74 g     F .text	00000014 malloc_reset_stats
00001e20 g     F .text	00000018 utee_cipher_update
00006004 g     F .text	00000038 realloc
00003902 g     F .text	0000002e mbedtls_mpi_swap
00000638 g     F .text	000000d0 produce_s
0000650c g     F .text	00000044 mempool_alloc_pool
00001fa4 g     F .text	00000018 utee_asymm_verify
00002b68 g     F .text	000000a4 TEE_BigIntMul
00003bf2 g     F .text	00000098 mbedtls_mpi_shift_l
00003d70 g     F .text	00000096 mbedtls_mpi_cmp_mpi
00001914 g     F .text	00000004 TEE_MemFill
00006850 g     F .text	0000001e memcmp
000062ec g     F .text	000000f8 malloc_add_pool
0000142c g     F .text	00000014 trace_get_level
00003e36 g     F .text	000000bc mbedtls_mpi_add_abs
00001f04 g     F .text	00000014 utee_cryp_random_number_generate
00003016 g     F .text	00000008 TEE_BigIntFMMSizeInU32
00003010 g     F .text	00000004 TEE_BigIntInitFMM
00001f8c g     F .text	00000018 utee_asymm_operate
00001ab0 g     F .text	00000190 __utee_entry
000068e8 g       .text	00000000 __text_end
00002e10 g     F .text	0000007c TEE_BigIntRelativePrime
0000465c g     F .text	00000064 mbedtls_mpi_mod_mpi
00005e74 g     F .text	0000009c bpool
00001894 g     F .text	0000001c TEE_GetCancellationFlag
00004e46 g     F .text	00000114 mbedtls_mpi_gcd
00001988 g     F .text	00000028 TEE_SetTAPersistentTime
00006690 g     F .text	00000010 memset
0000194c g     F .text	0000003c TEE_GetTAPersistentTime
000004c8 g     F .text	00000050 produce_i2
0000157c g     F .text	00000100 dhex_dump
000018cc g     F .text	0000001c TEE_MaskCancellation
00002078 g     F .text	00000014 utee_storage_obj_read
00001ec8 g     F .text	00000014 utee_cryp_obj_populate
0000140e g     F .text	0000001e trace_set_level
00001e50 g     F .text	00000014 utee_cryp_obj_get_info
00002014 g     F .text	00000014 utee_storage_alloc_enum
0000203c g     F .text	00000014 utee_storage_reset_enum
000020a0 g     F .text	00000014 utee_storage_obj_trunc
000066a0 g     F .text	0000001a strcmp
000027fc g     F .text	00000058 TEE_BigIntConvertToS32
00002af4 g     F .text	0000001c TEE_BigIntSub
00001d00 g     F .text	00000014 utee_get_cancellation_flag
00001dcc g     F .text	00000014 utee_hash_init
00006648 g     F .text	00000004 tahead_get_trace_level
00001748 g     F .text	00000050 __utee_from_param
00001798 g     F .text	0000003e __utee_to_param
000049dc g     F .text	00000024 mbedtls_mpi_montred
0000603c g     F .text	000002b0 memalign
000027c4 g     F .text	00000038 TEE_BigIntConvertFromS32
00004006 g     F .text	00000030 mbedtls_mpi_add_int
00001e64 g     F .text	00000014 utee_cryp_obj_restrict_usage
000063e4 g     F .text	000000dc malloc_buffer_is_within_alloced
00001edc g     F .text	00000014 utee_cryp_obj_copy
00003014 g     F .text	00000002 TEE_BigIntInitFMMContext
00001ef0 g     F .text	00000014 utee_cryp_derive_key
00001f74 g     F .text	00000018 utee_authenc_dec_final
00002c0c g     F .text	00000006 TEE_BigIntSquare
00000020 g     F .text	00000028 TA_CreateEntryPoint
000048f0 g     F .text	00000028 mbedtls_mpi_montg_init
000013a6 g     F .text	0000001a snprintk
00002ab6 g     F .text	00000022 TEE_BigIntGetBitCount
00002d48 g     F .text	0000001c TEE_BigIntMulMod
000051a2 g     F .text	000002d0 mbedtls_mpi_inv_mod
000090a8 g     O .bss	00000020 ta_params
0000428c g     F .text	000003a2 mbedtls_mpi_div_mpi
00003b3a g     F .text	0000000c mbedtls_mpi_size
00005a38 g     F .text	00000134 bget
00003a7a g     F .text	00000050 mbedtls_mpi_set_bit
000036d8 g     F .text	00000012 mbedtls_mpi_init_static
00001a14 g     F .text	00000004 TEE_Free
00005472 g     F .text	0000005c mbedtls_mpi_is_prime
00001a24 g     F .text	00000006 TEE_CacheInvalidate
00001e0c g     F .text	00000014 utee_cipher_init
00006638 g     F .text	00000010 _assert_break
00002d10 g     F .text	0000001c TEE_BigIntAddMod
00002028 g     F .text	00000014 utee_storage_free_enum
00001f30 g     F .text	00000014 utee_authenc_update_aad
00001910 g     F .text	00000004 TEE_MemCompare
00000c64 g     F .text	00000734 __vsnprintf
00001c40 g     F .text	00000014 utee_panic
000017d6 g     F .text	00000044 TEE_OpenTASession
000016ac g     F .text	00000014 trace_ext_puts
000016c0 g     F .text	00000006 trace_ext_get_thread_id
000036ea g     F .text	0000004e mbedtls_mpi_free
00001a18 g     F .text	00000006 TEE_CacheClean
00001cbc g     F .text	00000018 utee_open_ta_session
0000399c g     F .text	00000086 mbedtls_mpi_safe_cond_swap
000005ca g     F .text	0000006e produce_s2
00001df4 g     F .text	00000018 utee_hash_final
000066ba g     F .text	00000010 strlen
00002e8c g     F .text	00000154 TEE_BigIntComputeExtendedGcd
000066cc g     F .text	00000002 __aeabi_unwind_cpp_pr1
00001fbc g     F .text	00000018 utee_storage_obj_open
00001ce8 g     F .text	00000018 utee_invoke_ta_command
00001d50 g     F .text	00000014 utee_wait
00001918 g     F .text	00000016 TEE_GetSystemTime
00000000 g     O .ta_head	00000020 ta_head
00005c00 g     F .text	000001f8 brel
00003ef2 g     F .text	00000080 mbedtls_mpi_sub_abs
00001d64 g     F .text	00000014 utee_get_time
00004f5a g     F .text	00000032 mbedtls_mpi_fill_random
000018f2 g     F .text	0000000e TEE_SetInstanceData
00001d28 g     F .text	00000014 utee_unmask_cancellation
0000167c g     F .text	00000018 __aeabi_ldivmod
00001d14 g     F .text	00000014 utee_check_access_rights
00004766 g     F .text	0000013a mbedtls_mpi_write_string
000005b0 g     F .text	0000001a produce_i3
000020c8 g     F .text	00000014 utee_cryp_obj_generate_key
0000181a g     F .text	00000014 TEE_CloseTASession
000002e8 g     F .text	00000088 produce_3
00013110 g       .bss	00000000 __gprof_buf_start
00005faa g     F .text	00000012 free
00005f10 g     F .text	00000064 bstats
0000b0c8 g     O .bss	00000004 mbedtls_mpi_mempool



Disassembly of section .text:

00000020 <TA_CreateEntryPoint>:
TA_CreateEntryPoint():
/workspace/benchmark/bad-partitioning/ta/entry.c:40
      20:	b507      	push	{r0, r1, r2, lr}
/workspace/benchmark/bad-partitioning/ta/entry.c:41
      22:	2203      	movs	r2, #3
      24:	4b06      	ldr	r3, [pc, #24]	; (40 <TA_CreateEntryPoint+0x20>)
      26:	4807      	ldr	r0, [pc, #28]	; (44 <TA_CreateEntryPoint+0x24>)
      28:	2129      	movs	r1, #41	; 0x29
      2a:	447b      	add	r3, pc
      2c:	9300      	str	r3, [sp, #0]
      2e:	4478      	add	r0, pc
      30:	2301      	movs	r3, #1
      32:	f001 fa05 	bl	1440 <trace_printf>
/workspace/benchmark/bad-partitioning/ta/entry.c:44
      36:	2000      	movs	r0, #0
      38:	b003      	add	sp, #12
      3a:	f85d fb04 	ldr.w	pc, [sp], #4
      3e:	bf00      	nop
      40:	00006b9a 	.word	0x00006b9a
      44:	00006be8 	.word	0x00006be8

00000048 <TA_DestroyEntryPoint>:
TA_DestroyEntryPoint():
/workspace/benchmark/bad-partitioning/ta/entry.c:51
      48:	b507      	push	{r0, r1, r2, lr}
/workspace/benchmark/bad-partitioning/ta/entry.c:52
      4a:	2203      	movs	r2, #3
      4c:	4806      	ldr	r0, [pc, #24]	; (68 <TA_DestroyEntryPoint+0x20>)
      4e:	4b07      	ldr	r3, [pc, #28]	; (6c <TA_DestroyEntryPoint+0x24>)
      50:	2134      	movs	r1, #52	; 0x34
      52:	4478      	add	r0, pc
      54:	447b      	add	r3, pc
      56:	3014      	adds	r0, #20
      58:	9300      	str	r3, [sp, #0]
      5a:	2301      	movs	r3, #1
      5c:	f001 f9f0 	bl	1440 <trace_printf>
/workspace/benchmark/bad-partitioning/ta/entry.c:53
      60:	b003      	add	sp, #12
      62:	f85d fb04 	ldr.w	pc, [sp], #4
      66:	bf00      	nop
      68:	00006bc4 	.word	0x00006bc4
      6c:	00006b70 	.word	0x00006b70

00000070 <TA_OpenSessionEntryPoint>:
TA_OpenSessionEntryPoint():
/workspace/benchmark/bad-partitioning/ta/entry.c:64
      70:	b537      	push	{r0, r1, r2, r4, r5, lr}
      72:	4604      	mov	r4, r0
/workspace/benchmark/bad-partitioning/ta/entry.c:70
      74:	4d0e      	ldr	r5, [pc, #56]	; (b0 <TA_OpenSessionEntryPoint+0x40>)
      76:	4b0f      	ldr	r3, [pc, #60]	; (b4 <TA_OpenSessionEntryPoint+0x44>)
      78:	2203      	movs	r2, #3
      7a:	447d      	add	r5, pc
      7c:	2146      	movs	r1, #70	; 0x46
      7e:	3529      	adds	r5, #41	; 0x29
      80:	447b      	add	r3, pc
      82:	4628      	mov	r0, r5
      84:	9300      	str	r3, [sp, #0]
      86:	2301      	movs	r3, #1
      88:	f001 f9da 	bl	1440 <trace_printf>
/workspace/benchmark/bad-partitioning/ta/entry.c:72
      8c:	b95c      	cbnz	r4, a6 <TA_OpenSessionEntryPoint+0x36>
/workspace/benchmark/bad-partitioning/ta/entry.c:83
      8e:	4b0a      	ldr	r3, [pc, #40]	; (b8 <TA_OpenSessionEntryPoint+0x48>)
      90:	2202      	movs	r2, #2
      92:	2153      	movs	r1, #83	; 0x53
      94:	4628      	mov	r0, r5
      96:	447b      	add	r3, pc
      98:	9300      	str	r3, [sp, #0]
      9a:	2301      	movs	r3, #1
      9c:	f001 f9d0 	bl	1440 <trace_printf>
/workspace/benchmark/bad-partitioning/ta/entry.c:87
      a0:	4620      	mov	r0, r4
      a2:	b003      	add	sp, #12
      a4:	bd30      	pop	{r4, r5, pc}
/workspace/benchmark/bad-partitioning/ta/entry.c:73
      a6:	4c01      	ldr	r4, [pc, #4]	; (ac <TA_OpenSessionEntryPoint+0x3c>)
      a8:	e7fa      	b.n	a0 <TA_OpenSessionEntryPoint+0x30>
      aa:	bf00      	nop
      ac:	ffff0006 	.word	0xffff0006
      b0:	00006b9c 	.word	0x00006b9c
      b4:	00006b44 	.word	0x00006b44
      b8:	00006b3e 	.word	0x00006b3e

000000bc <TA_CloseSessionEntryPoint>:
TA_CloseSessionEntryPoint():
/workspace/benchmark/bad-partitioning/ta/entry.c:94
      bc:	b507      	push	{r0, r1, r2, lr}
/workspace/benchmark/bad-partitioning/ta/entry.c:96
      be:	2202      	movs	r2, #2
      c0:	4806      	ldr	r0, [pc, #24]	; (dc <TA_CloseSessionEntryPoint+0x20>)
      c2:	4b07      	ldr	r3, [pc, #28]	; (e0 <TA_CloseSessionEntryPoint+0x24>)
      c4:	2160      	movs	r1, #96	; 0x60
      c6:	4478      	add	r0, pc
      c8:	447b      	add	r3, pc
      ca:	3042      	adds	r0, #66	; 0x42
      cc:	9300      	str	r3, [sp, #0]
      ce:	2301      	movs	r3, #1
      d0:	f001 f9b6 	bl	1440 <trace_printf>
/workspace/benchmark/bad-partitioning/ta/entry.c:97
      d4:	b003      	add	sp, #12
      d6:	f85d fb04 	ldr.w	pc, [sp], #4
      da:	bf00      	nop
      dc:	00006b50 	.word	0x00006b50
      e0:	00006b1a 	.word	0x00006b1a

000000e4 <enc>:
enc():
/workspace/benchmark/bad-partitioning/ta/entry.c:102
      e4:	4770      	bx	lr

000000e6 <dec>:
dec():
/workspace/benchmark/bad-partitioning/ta/entry.c:102
      e6:	4770      	bx	lr

000000e8 <produce_2>:
produce_2():
/workspace/benchmark/bad-partitioning/ta/entry.c:110
      e8:	4a36      	ldr	r2, [pc, #216]	; (1c4 <produce_2+0xdc>)
      ea:	4b37      	ldr	r3, [pc, #220]	; (1c8 <produce_2+0xe0>)
      ec:	e92d 41f0 	stmdb	sp!, {r4, r5, r6, r7, r8, lr}
      f0:	447a      	add	r2, pc
/workspace/benchmark/bad-partitioning/ta/entry.c:112
      f2:	4936      	ldr	r1, [pc, #216]	; (1cc <produce_2+0xe4>)
/workspace/benchmark/bad-partitioning/ta/entry.c:110
      f4:	f5ad 6dfc 	sub.w	sp, sp, #2016	; 0x7e0
      f8:	4604      	mov	r4, r0
      fa:	58d3      	ldr	r3, [r2, r3]
/workspace/benchmark/bad-partitioning/ta/entry.c:112
      fc:	ad03      	add	r5, sp, #12
      fe:	2207      	movs	r2, #7
     100:	4479      	add	r1, pc
     102:	4628      	mov	r0, r5
/workspace/benchmark/bad-partitioning/ta/entry.c:110
     104:	681b      	ldr	r3, [r3, #0]
     106:	f8cd 37dc 	str.w	r3, [sp, #2012]	; 0x7dc
     10a:	f04f 0300 	mov.w	r3, #0
/workspace/benchmark/bad-partitioning/ta/entry.c:112
     10e:	f006 fab4 	bl	667a <memcpy>
     112:	2100      	movs	r1, #0
     114:	f240 32e1 	movw	r2, #993	; 0x3e1
     118:	f10d 0013 	add.w	r0, sp, #19
     11c:	f006 fab8 	bl	6690 <memset>
/workspace/benchmark/bad-partitioning/ta/entry.c:113
     120:	492b      	ldr	r1, [pc, #172]	; (1d0 <produce_2+0xe8>)
     122:	aefd      	add	r6, sp, #1012	; 0x3f4
     124:	2205      	movs	r2, #5
     126:	4479      	add	r1, pc
     128:	4630      	mov	r0, r6
     12a:	f006 faa6 	bl	667a <memcpy>
/workspace/benchmark/bad-partitioning/ta/entry.c:117
     12e:	f8df 80a4 	ldr.w	r8, [pc, #164]	; 1d4 <produce_2+0xec>
/workspace/benchmark/bad-partitioning/ta/entry.c:113
     132:	2100      	movs	r1, #0
     134:	f240 32e3 	movw	r2, #995	; 0x3e3
     138:	f20d 30f9 	addw	r0, sp, #1017	; 0x3f9
/workspace/benchmark/bad-partitioning/ta/entry.c:121
     13c:	4f26      	ldr	r7, [pc, #152]	; (1d8 <produce_2+0xf0>)
/workspace/benchmark/bad-partitioning/ta/entry.c:113
     13e:	f006 faa7 	bl	6690 <memset>
/workspace/benchmark/bad-partitioning/ta/entry.c:116
     142:	4628      	mov	r0, r5
     144:	f006 fab9 	bl	66ba <strlen>
/workspace/benchmark/bad-partitioning/ta/entry.c:117
     148:	44f8      	add	r8, pc
/workspace/benchmark/bad-partitioning/ta/entry.c:116
     14a:	4602      	mov	r2, r0
     14c:	4629      	mov	r1, r5
     14e:	68a0      	ldr	r0, [r4, #8]
/workspace/benchmark/bad-partitioning/ta/entry.c:121
     150:	447f      	add	r7, pc
/workspace/benchmark/bad-partitioning/ta/entry.c:116
     152:	f001 fbdb 	bl	190c <TEE_MemMove>
/workspace/benchmark/bad-partitioning/ta/entry.c:117
     156:	6961      	ldr	r1, [r4, #20]
     158:	462b      	mov	r3, r5
     15a:	4642      	mov	r2, r8
     15c:	6920      	ldr	r0, [r4, #16]
     15e:	f006 fa75 	bl	664c <snprintf>
/workspace/benchmark/bad-partitioning/ta/entry.c:121
     162:	6961      	ldr	r1, [r4, #20]
/workspace/benchmark/bad-partitioning/ta/entry.c:119
     164:	230a      	movs	r3, #10
/workspace/benchmark/bad-partitioning/ta/entry.c:121
     166:	463a      	mov	r2, r7
/workspace/benchmark/bad-partitioning/ta/entry.c:119
     168:	6023      	str	r3, [r4, #0]
/workspace/benchmark/bad-partitioning/ta/entry.c:121
     16a:	462b      	mov	r3, r5
     16c:	6920      	ldr	r0, [r4, #16]
     16e:	9600      	str	r6, [sp, #0]
     170:	f006 fa6c 	bl	664c <snprintf>
/workspace/benchmark/bad-partitioning/ta/entry.c:122
     174:	4a19      	ldr	r2, [pc, #100]	; (1dc <produce_2+0xf4>)
     176:	6961      	ldr	r1, [r4, #20]
     178:	2364      	movs	r3, #100	; 0x64
     17a:	447a      	add	r2, pc
     17c:	9301      	str	r3, [sp, #4]
     17e:	6920      	ldr	r0, [r4, #16]
     180:	462b      	mov	r3, r5
     182:	9600      	str	r6, [sp, #0]
     184:	f006 fa62 	bl	664c <snprintf>
/workspace/benchmark/bad-partitioning/ta/entry.c:125
     188:	6961      	ldr	r1, [r4, #20]
     18a:	462b      	mov	r3, r5
     18c:	4642      	mov	r2, r8
     18e:	6920      	ldr	r0, [r4, #16]
     190:	f006 fa5c 	bl	664c <snprintf>
/workspace/benchmark/bad-partitioning/ta/entry.c:126
     194:	462b      	mov	r3, r5
     196:	463a      	mov	r2, r7
     198:	6961      	ldr	r1, [r4, #20]
     19a:	6920      	ldr	r0, [r4, #16]
     19c:	9600      	str	r6, [sp, #0]
     19e:	f006 fa55 	bl	664c <snprintf>
/workspace/benchmark/bad-partitioning/ta/entry.c:110
     1a2:	4a0f      	ldr	r2, [pc, #60]	; (1e0 <produce_2+0xf8>)
/workspace/benchmark/bad-partitioning/ta/entry.c:127
     1a4:	4b08      	ldr	r3, [pc, #32]	; (1c8 <produce_2+0xe0>)
/workspace/benchmark/bad-partitioning/ta/entry.c:110
     1a6:	447a      	add	r2, pc
/workspace/benchmark/bad-partitioning/ta/entry.c:127
     1a8:	58d3      	ldr	r3, [r2, r3]
     1aa:	681a      	ldr	r2, [r3, #0]
     1ac:	f8dd 37dc 	ldr.w	r3, [sp, #2012]	; 0x7dc
     1b0:	405a      	eors	r2, r3
     1b2:	f04f 0300 	mov.w	r3, #0
     1b6:	d001      	beq.n	1bc <produce_2+0xd4>
     1b8:	f006 fa5e 	bl	6678 <__stack_chk_fail>
     1bc:	f50d 6dfc 	add.w	sp, sp, #2016	; 0x7e0
     1c0:	e8bd 81f0 	ldmia.w	sp!, {r4, r5, r6, r7, r8, pc}
     1c4:	00007f78 	.word	0x00007f78
     1c8:	0000000c 	.word	0x0000000c
     1cc:	00006afb 	.word	0x00006afb
     1d0:	00006adc 	.word	0x00006adc
     1d4:	00006aa7 	.word	0x00006aa7
     1d8:	00006a9c 	.word	0x00006a9c
     1dc:	00006a78 	.word	0x00006a78
     1e0:	00007ec2 	.word	0x00007ec2

000001e4 <produce>:
produce():
/workspace/benchmark/bad-partitioning/ta/entry.c:130
     1e4:	4a38      	ldr	r2, [pc, #224]	; (2c8 <produce+0xe4>)
     1e6:	4b39      	ldr	r3, [pc, #228]	; (2cc <produce+0xe8>)
     1e8:	e92d 41f0 	stmdb	sp!, {r4, r5, r6, r7, r8, lr}
     1ec:	447a      	add	r2, pc
/workspace/benchmark/bad-partitioning/ta/entry.c:132
     1ee:	4938      	ldr	r1, [pc, #224]	; (2d0 <produce+0xec>)
/workspace/benchmark/bad-partitioning/ta/entry.c:130
     1f0:	f5ad 6dfc 	sub.w	sp, sp, #2016	; 0x7e0
     1f4:	4604      	mov	r4, r0
     1f6:	58d3      	ldr	r3, [r2, r3]
/workspace/benchmark/bad-partitioning/ta/entry.c:132
     1f8:	ad03      	add	r5, sp, #12
     1fa:	2207      	movs	r2, #7
     1fc:	4479      	add	r1, pc
     1fe:	4628      	mov	r0, r5
/workspace/benchmark/bad-partitioning/ta/entry.c:130
     200:	681b      	ldr	r3, [r3, #0]
     202:	f8cd 37dc 	str.w	r3, [sp, #2012]	; 0x7dc
     206:	f04f 0300 	mov.w	r3, #0
/workspace/benchmark/bad-partitioning/ta/entry.c:132
     20a:	f006 fa36 	bl	667a <memcpy>
     20e:	2100      	movs	r1, #0
     210:	f240 32e1 	movw	r2, #993	; 0x3e1
     214:	f10d 0013 	add.w	r0, sp, #19
     218:	f006 fa3a 	bl	6690 <memset>
/workspace/benchmark/bad-partitioning/ta/entry.c:133
     21c:	492d      	ldr	r1, [pc, #180]	; (2d4 <produce+0xf0>)
     21e:	aefd      	add	r6, sp, #1012	; 0x3f4
     220:	2205      	movs	r2, #5
     222:	4479      	add	r1, pc
     224:	4630      	mov	r0, r6
     226:	f006 fa28 	bl	667a <memcpy>
/workspace/benchmark/bad-partitioning/ta/entry.c:137
     22a:	f8df 80ac 	ldr.w	r8, [pc, #172]	; 2d8 <produce+0xf4>
/workspace/benchmark/bad-partitioning/ta/entry.c:133
     22e:	2100      	movs	r1, #0
     230:	f240 32e3 	movw	r2, #995	; 0x3e3
     234:	f20d 30f9 	addw	r0, sp, #1017	; 0x3f9
/workspace/benchmark/bad-partitioning/ta/entry.c:137
     238:	44f8      	add	r8, pc
/workspace/benchmark/bad-partitioning/ta/entry.c:133
     23a:	f006 fa29 	bl	6690 <memset>
/workspace/benchmark/bad-partitioning/ta/entry.c:136
     23e:	4628      	mov	r0, r5
     240:	f006 fa3b 	bl	66ba <strlen>
/workspace/benchmark/bad-partitioning/ta/entry.c:143
     244:	4f25      	ldr	r7, [pc, #148]	; (2dc <produce+0xf8>)
/workspace/benchmark/bad-partitioning/ta/entry.c:136
     246:	4602      	mov	r2, r0
     248:	4629      	mov	r1, r5
     24a:	68a0      	ldr	r0, [r4, #8]
/workspace/benchmark/bad-partitioning/ta/entry.c:143
     24c:	447f      	add	r7, pc
/workspace/benchmark/bad-partitioning/ta/entry.c:136
     24e:	f001 fb5d 	bl	190c <TEE_MemMove>
/workspace/benchmark/bad-partitioning/ta/entry.c:137
     252:	6961      	ldr	r1, [r4, #20]
     254:	4642      	mov	r2, r8
     256:	462b      	mov	r3, r5
     258:	6920      	ldr	r0, [r4, #16]
     25a:	f006 f9f7 	bl	664c <snprintf>
/workspace/benchmark/bad-partitioning/ta/entry.c:139
     25e:	230a      	movs	r3, #10
/workspace/benchmark/bad-partitioning/ta/entry.c:141
     260:	4620      	mov	r0, r4
/workspace/benchmark/bad-partitioning/ta/entry.c:139
     262:	6023      	str	r3, [r4, #0]
/workspace/benchmark/bad-partitioning/ta/entry.c:141
     264:	f7ff ff40 	bl	e8 <produce_2>
/workspace/benchmark/bad-partitioning/ta/entry.c:143
     268:	6961      	ldr	r1, [r4, #20]
     26a:	462b      	mov	r3, r5
     26c:	463a      	mov	r2, r7
     26e:	6920      	ldr	r0, [r4, #16]
     270:	9600      	str	r6, [sp, #0]
     272:	f006 f9eb 	bl	664c <snprintf>
/workspace/benchmark/bad-partitioning/ta/entry.c:144
     276:	4a1a      	ldr	r2, [pc, #104]	; (2e0 <produce+0xfc>)
     278:	6961      	ldr	r1, [r4, #20]
     27a:	2364      	movs	r3, #100	; 0x64
     27c:	447a      	add	r2, pc
     27e:	9301      	str	r3, [sp, #4]
     280:	6920      	ldr	r0, [r4, #16]
     282:	462b      	mov	r3, r5
     284:	9600      	str	r6, [sp, #0]
     286:	f006 f9e1 	bl	664c <snprintf>
/workspace/benchmark/bad-partitioning/ta/entry.c:147
     28a:	6961      	ldr	r1, [r4, #20]
     28c:	462b      	mov	r3, r5
     28e:	4642      	mov	r2, r8
     290:	6920      	ldr	r0, [r4, #16]
     292:	f006 f9db 	bl	664c <snprintf>
/workspace/benchmark/bad-partitioning/ta/entry.c:148
     296:	462b      	mov	r3, r5
     298:	463a      	mov	r2, r7
     29a:	6961      	ldr	r1, [r4, #20]
     29c:	6920      	ldr	r0, [r4, #16]
     29e:	9600      	str	r6, [sp, #0]
     2a0:	f006 f9d4 	bl	664c <snprintf>
/workspace/benchmark/bad-partitioning/ta/entry.c:130
     2a4:	4a0f      	ldr	r2, [pc, #60]	; (2e4 <produce+0x100>)
/workspace/benchmark/bad-partitioning/ta/entry.c:149
     2a6:	4b09      	ldr	r3, [pc, #36]	; (2cc <produce+0xe8>)
/workspace/benchmark/bad-partitioning/ta/entry.c:130
     2a8:	447a      	add	r2, pc
/workspace/benchmark/bad-partitioning/ta/entry.c:149
     2aa:	58d3      	ldr	r3, [r2, r3]
     2ac:	681a      	ldr	r2, [r3, #0]
     2ae:	f8dd 37dc 	ldr.w	r3, [sp, #2012]	; 0x7dc
     2b2:	405a      	eors	r2, r3
     2b4:	f04f 0300 	mov.w	r3, #0
     2b8:	d001      	beq.n	2be <produce+0xda>
     2ba:	f006 f9dd 	bl	6678 <__stack_chk_fail>
     2be:	f50d 6dfc 	add.w	sp, sp, #2016	; 0x7e0
     2c2:	e8bd 81f0 	ldmia.w	sp!, {r4, r5, r6, r7, r8, pc}
     2c6:	bf00      	nop
     2c8:	00007e7c 	.word	0x00007e7c
     2cc:	0000000c 	.word	0x0000000c
     2d0:	000069ff 	.word	0x000069ff
     2d4:	000069e0 	.word	0x000069e0
     2d8:	000069b7 	.word	0x000069b7
     2dc:	000069a0 	.word	0x000069a0
     2e0:	00006976 	.word	0x00006976
     2e4:	00007dc0 	.word	0x00007dc0

000002e8 <produce_3>:
produce_3():
/workspace/benchmark/bad-partitioning/ta/entry.c:152
     2e8:	4a1c      	ldr	r2, [pc, #112]	; (35c <produce_3+0x74>)
     2ea:	4b1d      	ldr	r3, [pc, #116]	; (360 <produce_3+0x78>)
     2ec:	b570      	push	{r4, r5, r6, lr}
     2ee:	447a      	add	r2, pc
     2f0:	460e      	mov	r6, r1
     2f2:	f5ad 7d7c 	sub.w	sp, sp, #1008	; 0x3f0
/workspace/benchmark/bad-partitioning/ta/entry.c:153
     2f6:	491b      	ldr	r1, [pc, #108]	; (364 <produce_3+0x7c>)
/workspace/benchmark/bad-partitioning/ta/entry.c:152
     2f8:	58d3      	ldr	r3, [r2, r3]
/workspace/benchmark/bad-partitioning/ta/entry.c:153
     2fa:	ac01      	add	r4, sp, #4
/workspace/benchmark/bad-partitioning/ta/entry.c:152
     2fc:	4605      	mov	r5, r0
/workspace/benchmark/bad-partitioning/ta/entry.c:153
     2fe:	2207      	movs	r2, #7
     300:	4479      	add	r1, pc
     302:	4620      	mov	r0, r4
/workspace/benchmark/bad-partitioning/ta/entry.c:152
     304:	681b      	ldr	r3, [r3, #0]
     306:	93fb      	str	r3, [sp, #1004]	; 0x3ec
     308:	f04f 0300 	mov.w	r3, #0
/workspace/benchmark/bad-partitioning/ta/entry.c:153
     30c:	f006 f9b5 	bl	667a <memcpy>
     310:	2100      	movs	r1, #0
     312:	f240 32e1 	movw	r2, #993	; 0x3e1
     316:	f10d 000b 	add.w	r0, sp, #11
     31a:	f006 f9b9 	bl	6690 <memset>
/workspace/benchmark/bad-partitioning/ta/entry.c:154
     31e:	4620      	mov	r0, r4
     320:	f006 f9cb 	bl	66ba <strlen>
     324:	4621      	mov	r1, r4
     326:	4602      	mov	r2, r0
     328:	4628      	mov	r0, r5
     32a:	f001 faef 	bl	190c <TEE_MemMove>
/workspace/benchmark/bad-partitioning/ta/entry.c:155
     32e:	4a0e      	ldr	r2, [pc, #56]	; (368 <produce_3+0x80>)
     330:	4623      	mov	r3, r4
     332:	4631      	mov	r1, r6
     334:	447a      	add	r2, pc
     336:	4628      	mov	r0, r5
     338:	f006 f988 	bl	664c <snprintf>
/workspace/benchmark/bad-partitioning/ta/entry.c:152
     33c:	4a0b      	ldr	r2, [pc, #44]	; (36c <produce_3+0x84>)
/workspace/benchmark/bad-partitioning/ta/entry.c:156
     33e:	4b08      	ldr	r3, [pc, #32]	; (360 <produce_3+0x78>)
/workspace/benchmark/bad-partitioning/ta/entry.c:152
     340:	447a      	add	r2, pc
/workspace/benchmark/bad-partitioning/ta/entry.c:156
     342:	58d3      	ldr	r3, [r2, r3]
     344:	681a      	ldr	r2, [r3, #0]
     346:	9bfb      	ldr	r3, [sp, #1004]	; 0x3ec
     348:	405a      	eors	r2, r3
     34a:	f04f 0300 	mov.w	r3, #0
     34e:	d001      	beq.n	354 <produce_3+0x6c>
     350:	f006 f992 	bl	6678 <__stack_chk_fail>
     354:	f50d 7d7c 	add.w	sp, sp, #1008	; 0x3f0
     358:	bd70      	pop	{r4, r5, r6, pc}
     35a:	bf00      	nop
     35c:	00007d7a 	.word	0x00007d7a
     360:	0000000c 	.word	0x0000000c
     364:	000068fb 	.word	0x000068fb
     368:	000068bb 	.word	0x000068bb
     36c:	00007d28 	.word	0x00007d28

00000370 <output>:
output():
/workspace/benchmark/bad-partitioning/ta/entry.c:160
     370:	4a4b      	ldr	r2, [pc, #300]	; (4a0 <output+0x130>)
     372:	4b4c      	ldr	r3, [pc, #304]	; (4a4 <output+0x134>)
     374:	447a      	add	r2, pc
     376:	e92d 47f0 	stmdb	sp!, {r4, r5, r6, r7, r8, r9, sl, lr}
     37a:	4605      	mov	r5, r0
     37c:	f5ad 6dfc 	sub.w	sp, sp, #2016	; 0x7e0
/workspace/benchmark/bad-partitioning/ta/entry.c:166
     380:	4849      	ldr	r0, [pc, #292]	; (4a8 <output+0x138>)
/workspace/benchmark/bad-partitioning/ta/entry.c:160
     382:	58d3      	ldr	r3, [r2, r3]
     384:	460c      	mov	r4, r1
/workspace/benchmark/bad-partitioning/ta/entry.c:166
     386:	4478      	add	r0, pc
     388:	2203      	movs	r2, #3
/workspace/benchmark/bad-partitioning/ta/entry.c:160
     38a:	681b      	ldr	r3, [r3, #0]
     38c:	f8cd 37dc 	str.w	r3, [sp, #2012]	; 0x7dc
     390:	f04f 0300 	mov.w	r3, #0
/workspace/benchmark/bad-partitioning/ta/entry.c:166
     394:	4b45      	ldr	r3, [pc, #276]	; (4ac <output+0x13c>)
     396:	21a6      	movs	r1, #166	; 0xa6
     398:	305c      	adds	r0, #92	; 0x5c
     39a:	447b      	add	r3, pc
     39c:	9300      	str	r3, [sp, #0]
     39e:	2301      	movs	r3, #1
     3a0:	f001 f84e 	bl	1440 <trace_printf>
/workspace/benchmark/bad-partitioning/ta/entry.c:168
     3a4:	f247 7373 	movw	r3, #30579	; 0x7773
     3a8:	429d      	cmp	r5, r3
     3aa:	d170      	bne.n	48e <output+0x11e>
/workspace/benchmark/bad-partitioning/ta/entry.c:171
     3ac:	4940      	ldr	r1, [pc, #256]	; (4b0 <output+0x140>)
     3ae:	ad03      	add	r5, sp, #12
     3b0:	2207      	movs	r2, #7
     3b2:	4628      	mov	r0, r5
     3b4:	4479      	add	r1, pc
/workspace/benchmark/bad-partitioning/ta/entry.c:172
     3b6:	aefd      	add	r6, sp, #1012	; 0x3f4
/workspace/benchmark/bad-partitioning/ta/entry.c:171
     3b8:	f006 f95f 	bl	667a <memcpy>
     3bc:	2100      	movs	r1, #0
     3be:	f240 32e1 	movw	r2, #993	; 0x3e1
     3c2:	f10d 0013 	add.w	r0, sp, #19
     3c6:	f006 f963 	bl	6690 <memset>
/workspace/benchmark/bad-partitioning/ta/entry.c:172
     3ca:	493a      	ldr	r1, [pc, #232]	; (4b4 <output+0x144>)
     3cc:	2205      	movs	r2, #5
     3ce:	4630      	mov	r0, r6
     3d0:	4479      	add	r1, pc
/workspace/benchmark/bad-partitioning/ta/entry.c:176
     3d2:	f8df 90e4 	ldr.w	r9, [pc, #228]	; 4b8 <output+0x148>
/workspace/benchmark/bad-partitioning/ta/entry.c:172
     3d6:	f006 f950 	bl	667a <memcpy>
     3da:	2100      	movs	r1, #0
     3dc:	f240 32e3 	movw	r2, #995	; 0x3e3
     3e0:	f20d 30f9 	addw	r0, sp, #1017	; 0x3f9
     3e4:	f006 f954 	bl	6690 <memset>
/workspace/benchmark/bad-partitioning/ta/entry.c:175
     3e8:	4628      	mov	r0, r5
     3ea:	f006 f966 	bl	66ba <strlen>
/workspace/benchmark/bad-partitioning/ta/entry.c:176
     3ee:	44f9      	add	r9, pc
/workspace/benchmark/bad-partitioning/ta/entry.c:175
     3f0:	4602      	mov	r2, r0
     3f2:	4629      	mov	r1, r5
     3f4:	68a0      	ldr	r0, [r4, #8]
/workspace/benchmark/bad-partitioning/ta/entry.c:185
     3f6:	f04f 0a64 	mov.w	sl, #100	; 0x64
/workspace/benchmark/bad-partitioning/ta/entry.c:175
     3fa:	f001 fa87 	bl	190c <TEE_MemMove>
/workspace/benchmark/bad-partitioning/ta/entry.c:176
     3fe:	464a      	mov	r2, r9
     400:	6961      	ldr	r1, [r4, #20]
     402:	462b      	mov	r3, r5
     404:	6920      	ldr	r0, [r4, #16]
     406:	f006 f921 	bl	664c <snprintf>
/workspace/benchmark/bad-partitioning/ta/entry.c:184
     40a:	f8df 80b0 	ldr.w	r8, [pc, #176]	; 4bc <output+0x14c>
/workspace/benchmark/bad-partitioning/ta/entry.c:179
     40e:	6863      	ldr	r3, [r4, #4]
/workspace/benchmark/bad-partitioning/ta/entry.c:181
     410:	4620      	mov	r0, r4
/workspace/benchmark/bad-partitioning/ta/entry.c:179
     412:	6023      	str	r3, [r4, #0]
/workspace/benchmark/bad-partitioning/ta/entry.c:184
     414:	44f8      	add	r8, pc
/workspace/benchmark/bad-partitioning/ta/entry.c:185
     416:	4f2a      	ldr	r7, [pc, #168]	; (4c0 <output+0x150>)
/workspace/benchmark/bad-partitioning/ta/entry.c:181
     418:	f7ff fee4 	bl	1e4 <produce>
/workspace/benchmark/bad-partitioning/ta/entry.c:182
     41c:	68e1      	ldr	r1, [r4, #12]
     41e:	68a0      	ldr	r0, [r4, #8]
/workspace/benchmark/bad-partitioning/ta/entry.c:185
     420:	447f      	add	r7, pc
/workspace/benchmark/bad-partitioning/ta/entry.c:182
     422:	f7ff ff61 	bl	2e8 <produce_3>
/workspace/benchmark/bad-partitioning/ta/entry.c:184
     426:	6961      	ldr	r1, [r4, #20]
     428:	462b      	mov	r3, r5
     42a:	4642      	mov	r2, r8
     42c:	6920      	ldr	r0, [r4, #16]
     42e:	9600      	str	r6, [sp, #0]
     430:	f006 f90c 	bl	664c <snprintf>
/workspace/benchmark/bad-partitioning/ta/entry.c:185
     434:	6961      	ldr	r1, [r4, #20]
     436:	462b      	mov	r3, r5
     438:	463a      	mov	r2, r7
     43a:	6920      	ldr	r0, [r4, #16]
     43c:	e9cd 6a00 	strd	r6, sl, [sp]
     440:	f006 f904 	bl	664c <snprintf>
/workspace/benchmark/bad-partitioning/ta/entry.c:189
     444:	6961      	ldr	r1, [r4, #20]
/workspace/benchmark/bad-partitioning/ta/entry.c:186
     446:	236e      	movs	r3, #110	; 0x6e
/workspace/benchmark/bad-partitioning/ta/entry.c:189
     448:	464a      	mov	r2, r9
/workspace/benchmark/bad-partitioning/ta/entry.c:186
     44a:	6023      	str	r3, [r4, #0]
/workspace/benchmark/bad-partitioning/ta/entry.c:189
     44c:	462b      	mov	r3, r5
     44e:	6920      	ldr	r0, [r4, #16]
     450:	f006 f8fc 	bl	664c <snprintf>
/workspace/benchmark/bad-partitioning/ta/entry.c:190
     454:	6961      	ldr	r1, [r4, #20]
     456:	462b      	mov	r3, r5
     458:	4642      	mov	r2, r8
     45a:	6920      	ldr	r0, [r4, #16]
     45c:	9600      	str	r6, [sp, #0]
     45e:	f006 f8f5 	bl	664c <snprintf>
/workspace/benchmark/bad-partitioning/ta/entry.c:191
     462:	6961      	ldr	r1, [r4, #20]
     464:	6920      	ldr	r0, [r4, #16]
     466:	462b      	mov	r3, r5
     468:	463a      	mov	r2, r7
     46a:	e9cd 6a00 	strd	r6, sl, [sp]
     46e:	f006 f8ed 	bl	664c <snprintf>
/workspace/benchmark/bad-partitioning/ta/entry.c:193
     472:	2000      	movs	r0, #0
/workspace/benchmark/bad-partitioning/ta/entry.c:160
     474:	4a13      	ldr	r2, [pc, #76]	; (4c4 <output+0x154>)
/workspace/benchmark/bad-partitioning/ta/entry.c:194
     476:	4b0b      	ldr	r3, [pc, #44]	; (4a4 <output+0x134>)
/workspace/benchmark/bad-partitioning/ta/entry.c:160
     478:	447a      	add	r2, pc
/workspace/benchmark/bad-partitioning/ta/entry.c:194
     47a:	58d3      	ldr	r3, [r2, r3]
     47c:	681a      	ldr	r2, [r3, #0]
     47e:	f8dd 37dc 	ldr.w	r3, [sp, #2012]	; 0x7dc
     482:	405a      	eors	r2, r3
     484:	f04f 0300 	mov.w	r3, #0
     488:	d003      	beq.n	492 <output+0x122>
     48a:	f006 f8f5 	bl	6678 <__stack_chk_fail>
/workspace/benchmark/bad-partitioning/ta/entry.c:169
     48e:	4803      	ldr	r0, [pc, #12]	; (49c <output+0x12c>)
     490:	e7f0      	b.n	474 <output+0x104>
/workspace/benchmark/bad-partitioning/ta/entry.c:194
     492:	f50d 6dfc 	add.w	sp, sp, #2016	; 0x7e0
     496:	e8bd 87f0 	ldmia.w	sp!, {r4, r5, r6, r7, r8, r9, sl, pc}
     49a:	bf00      	nop
     49c:	ffff0006 	.word	0xffff0006
     4a0:	00007cf4 	.word	0x00007cf4
     4a4:	0000000c 	.word	0x0000000c
     4a8:	00006890 	.word	0x00006890
     4ac:	0000682a 	.word	0x0000682a
     4b0:	00006847 	.word	0x00006847
     4b4:	00006832 	.word	0x00006832
     4b8:	00006801 	.word	0x00006801
     4bc:	000067d8 	.word	0x000067d8
     4c0:	000067d2 	.word	0x000067d2
     4c4:	00007bf0 	.word	0x00007bf0

000004c8 <produce_i2>:
produce_i2():
/workspace/benchmark/bad-partitioning/ta/entry.c:197
     4c8:	e92d 43f8 	stmdb	sp!, {r3, r4, r5, r6, r7, r8, r9, lr}
     4cc:	4681      	mov	r9, r0
     4ce:	4688      	mov	r8, r1
/workspace/benchmark/bad-partitioning/ta/entry.c:198
     4d0:	f44f 707a 	mov.w	r0, #1000	; 0x3e8
     4d4:	2100      	movs	r1, #0
/workspace/benchmark/bad-partitioning/ta/entry.c:197
     4d6:	4617      	mov	r7, r2
     4d8:	461e      	mov	r6, r3
     4da:	9d0a      	ldr	r5, [sp, #40]	; 0x28
/workspace/benchmark/bad-partitioning/ta/entry.c:198
     4dc:	f001 fa73 	bl	19c6 <TEE_Malloc>
/workspace/benchmark/bad-partitioning/ta/entry.c:201
     4e0:	2100      	movs	r1, #0
/workspace/benchmark/bad-partitioning/ta/entry.c:198
     4e2:	4604      	mov	r4, r0
/workspace/benchmark/bad-partitioning/ta/entry.c:201
     4e4:	4648      	mov	r0, r9
     4e6:	f001 fa6e 	bl	19c6 <TEE_Malloc>
/workspace/benchmark/bad-partitioning/ta/entry.c:202
     4ea:	2100      	movs	r1, #0
     4ec:	4640      	mov	r0, r8
     4ee:	f001 fa6a 	bl	19c6 <TEE_Malloc>
/workspace/benchmark/bad-partitioning/ta/entry.c:204
     4f2:	2100      	movs	r1, #0
/workspace/benchmark/bad-partitioning/ta/entry.c:204 (discriminator 1)
     4f4:	42b1      	cmp	r1, r6
     4f6:	db0b      	blt.n	510 <produce_i2+0x48>
/workspace/benchmark/bad-partitioning/ta/entry.c:208
     4f8:	69ea      	ldr	r2, [r5, #28]
     4fa:	4620      	mov	r0, r4
     4fc:	69a9      	ldr	r1, [r5, #24]
     4fe:	f001 fa05 	bl	190c <TEE_MemMove>
/workspace/benchmark/bad-partitioning/ta/entry.c:212
     502:	696a      	ldr	r2, [r5, #20]
     504:	6929      	ldr	r1, [r5, #16]
     506:	4620      	mov	r0, r4
/workspace/benchmark/bad-partitioning/ta/entry.c:213
     508:	e8bd 43f8 	ldmia.w	sp!, {r3, r4, r5, r6, r7, r8, r9, lr}
/workspace/benchmark/bad-partitioning/ta/entry.c:212
     50c:	f001 b9fe 	b.w	190c <TEE_MemMove>
/workspace/benchmark/bad-partitioning/ta/entry.c:205 (discriminator 3)
     510:	5c7b      	ldrb	r3, [r7, r1]
     512:	5463      	strb	r3, [r4, r1]
/workspace/benchmark/bad-partitioning/ta/entry.c:204 (discriminator 3)
     514:	3101      	adds	r1, #1
     516:	e7ed      	b.n	4f4 <produce_i2+0x2c>

00000518 <produce_i0>:
produce_i0():
/workspace/benchmark/bad-partitioning/ta/entry.c:216
     518:	e92d 4ff0 	stmdb	sp!, {r4, r5, r6, r7, r8, r9, sl, fp, lr}
     51c:	4680      	mov	r8, r0
     51e:	4689      	mov	r9, r1
     520:	b085      	sub	sp, #20
/workspace/benchmark/bad-partitioning/ta/entry.c:217
     522:	2100      	movs	r1, #0
     524:	f44f 707a 	mov.w	r0, #1000	; 0x3e8
/workspace/benchmark/bad-partitioning/ta/entry.c:216
     528:	461e      	mov	r6, r3
     52a:	4615      	mov	r5, r2
     52c:	e9dd a70e 	ldrd	sl, r7, [sp, #56]	; 0x38
     530:	f8dd b040 	ldr.w	fp, [sp, #64]	; 0x40
/workspace/benchmark/bad-partitioning/ta/entry.c:217
     534:	f001 fa47 	bl	19c6 <TEE_Malloc>
/workspace/benchmark/bad-partitioning/ta/entry.c:220
     538:	2100      	movs	r1, #0
/workspace/benchmark/bad-partitioning/ta/entry.c:217
     53a:	4604      	mov	r4, r0
/workspace/benchmark/bad-partitioning/ta/entry.c:220
     53c:	4640      	mov	r0, r8
     53e:	f001 fa42 	bl	19c6 <TEE_Malloc>
/workspace/benchmark/bad-partitioning/ta/entry.c:221
     542:	2100      	movs	r1, #0
     544:	4648      	mov	r0, r9
     546:	f001 fa3e 	bl	19c6 <TEE_Malloc>
/workspace/benchmark/bad-partitioning/ta/entry.c:223
     54a:	2300      	movs	r3, #0
/workspace/benchmark/bad-partitioning/ta/entry.c:223 (discriminator 1)
     54c:	42b3      	cmp	r3, r6
     54e:	db28      	blt.n	5a2 <produce_i0+0x8a>
/workspace/benchmark/bad-partitioning/ta/entry.c:227
     550:	463a      	mov	r2, r7
     552:	4651      	mov	r1, sl
     554:	4620      	mov	r0, r4
     556:	f001 f9d9 	bl	190c <TEE_MemMove>
/workspace/benchmark/bad-partitioning/ta/entry.c:229
     55a:	4633      	mov	r3, r6
     55c:	462a      	mov	r2, r5
     55e:	4649      	mov	r1, r9
     560:	4640      	mov	r0, r8
     562:	f8cd b008 	str.w	fp, [sp, #8]
     566:	9701      	str	r7, [sp, #4]
     568:	f8cd a000 	str.w	sl, [sp]
     56c:	f7ff ffac 	bl	4c8 <produce_i2>
/workspace/benchmark/bad-partitioning/ta/entry.c:233
     570:	f5b7 7f7a 	cmp.w	r7, #1000	; 0x3e8
     574:	dc19      	bgt.n	5aa <produce_i0+0x92>
/workspace/benchmark/bad-partitioning/ta/entry.c:238
     576:	4632      	mov	r2, r6
     578:	4629      	mov	r1, r5
     57a:	4620      	mov	r0, r4
     57c:	f001 f9c6 	bl	190c <TEE_MemMove>
/workspace/benchmark/bad-partitioning/ta/entry.c:239
     580:	463a      	mov	r2, r7
     582:	4651      	mov	r1, sl
     584:	4620      	mov	r0, r4
     586:	f001 f9c1 	bl	190c <TEE_MemMove>
/workspace/benchmark/bad-partitioning/ta/entry.c:241
     58a:	f5b6 7f7a 	cmp.w	r6, #1000	; 0x3e8
     58e:	db0c      	blt.n	5aa <produce_i0+0x92>
/workspace/benchmark/bad-partitioning/ta/entry.c:246
     590:	f44f 727a 	mov.w	r2, #1000	; 0x3e8
     594:	4621      	mov	r1, r4
     596:	4628      	mov	r0, r5
/workspace/benchmark/bad-partitioning/ta/entry.c:247
     598:	b005      	add	sp, #20
     59a:	e8bd 4ff0 	ldmia.w	sp!, {r4, r5, r6, r7, r8, r9, sl, fp, lr}
/workspace/benchmark/bad-partitioning/ta/entry.c:246
     59e:	f001 b9b5 	b.w	190c <TEE_MemMove>
/workspace/benchmark/bad-partitioning/ta/entry.c:224 (discriminator 3)
     5a2:	5cea      	ldrb	r2, [r5, r3]
     5a4:	54e2      	strb	r2, [r4, r3]
/workspace/benchmark/bad-partitioning/ta/entry.c:223 (discriminator 3)
     5a6:	3301      	adds	r3, #1
     5a8:	e7d0      	b.n	54c <produce_i0+0x34>
/workspace/benchmark/bad-partitioning/ta/entry.c:247
     5aa:	b005      	add	sp, #20
     5ac:	e8bd 8ff0 	ldmia.w	sp!, {r4, r5, r6, r7, r8, r9, sl, fp, pc}

000005b0 <produce_i3>:
produce_i3():
/workspace/benchmark/bad-partitioning/ta/entry.c:250
     5b0:	b510      	push	{r4, lr}
/workspace/benchmark/bad-partitioning/ta/entry.c:251
     5b2:	2100      	movs	r1, #0
/workspace/benchmark/bad-partitioning/ta/entry.c:250
     5b4:	4604      	mov	r4, r0
/workspace/benchmark/bad-partitioning/ta/entry.c:251
     5b6:	f44f 707a 	mov.w	r0, #1000	; 0x3e8
     5ba:	f001 fa04 	bl	19c6 <TEE_Malloc>
/workspace/benchmark/bad-partitioning/ta/entry.c:254
     5be:	4620      	mov	r0, r4
     5c0:	2100      	movs	r1, #0
/workspace/benchmark/bad-partitioning/ta/entry.c:265
     5c2:	e8bd 4010 	ldmia.w	sp!, {r4, lr}
/workspace/benchmark/bad-partitioning/ta/entry.c:254
     5c6:	f001 b9fe 	b.w	19c6 <TEE_Malloc>

000005ca <produce_s2>:
produce_s2():
/workspace/benchmark/bad-partitioning/ta/entry.c:318
     5ca:	b537      	push	{r0, r1, r2, r4, r5, lr}
     5cc:	4604      	mov	r4, r0
     5ce:	460d      	mov	r5, r1
/workspace/benchmark/bad-partitioning/ta/entry.c:319
     5d0:	4601      	mov	r1, r0
     5d2:	4813      	ldr	r0, [pc, #76]	; (620 <produce_s2+0x56>)
     5d4:	4478      	add	r0, pc
     5d6:	f006 f863 	bl	66a0 <strcmp>
     5da:	b958      	cbnz	r0, 5f4 <produce_s2+0x2a>
/workspace/benchmark/bad-partitioning/ta/entry.c:321
     5dc:	4811      	ldr	r0, [pc, #68]	; (624 <produce_s2+0x5a>)
     5de:	2202      	movs	r2, #2
     5e0:	4b11      	ldr	r3, [pc, #68]	; (628 <produce_s2+0x5e>)
     5e2:	f240 1141 	movw	r1, #321	; 0x141
     5e6:	4478      	add	r0, pc
     5e8:	447b      	add	r3, pc
     5ea:	3063      	adds	r0, #99	; 0x63
     5ec:	9300      	str	r3, [sp, #0]
     5ee:	2301      	movs	r3, #1
     5f0:	f000 ff26 	bl	1440 <trace_printf>
/workspace/benchmark/bad-partitioning/ta/entry.c:324
     5f4:	490d      	ldr	r1, [pc, #52]	; (62c <produce_s2+0x62>)
     5f6:	462a      	mov	r2, r5
     5f8:	4620      	mov	r0, r4
     5fa:	4479      	add	r1, pc
     5fc:	f001 f988 	bl	1910 <TEE_MemCompare>
     600:	b958      	cbnz	r0, 61a <produce_s2+0x50>
/workspace/benchmark/bad-partitioning/ta/entry.c:327
     602:	480b      	ldr	r0, [pc, #44]	; (630 <produce_s2+0x66>)
     604:	2202      	movs	r2, #2
     606:	4b0b      	ldr	r3, [pc, #44]	; (634 <produce_s2+0x6a>)
     608:	f240 1147 	movw	r1, #327	; 0x147
     60c:	4478      	add	r0, pc
     60e:	447b      	add	r3, pc
     610:	3063      	adds	r0, #99	; 0x63
     612:	9300      	str	r3, [sp, #0]
     614:	2301      	movs	r3, #1
     616:	f000 ff13 	bl	1440 <trace_printf>
/workspace/benchmark/bad-partitioning/ta/entry.c:330
     61a:	b003      	add	sp, #12
     61c:	bd30      	pop	{r4, r5, pc}
     61e:	bf00      	nop
     620:	00006627 	.word	0x00006627
     624:	00006630 	.word	0x00006630
     628:	0000661f 	.word	0x0000661f
     62c:	00006601 	.word	0x00006601
     630:	0000660a 	.word	0x0000660a
     634:	00006601 	.word	0x00006601

00000638 <produce_s>:
produce_s():
/workspace/benchmark/bad-partitioning/ta/entry.c:333
     638:	4a2a      	ldr	r2, [pc, #168]	; (6e4 <produce_s+0xac>)
     63a:	4b2b      	ldr	r3, [pc, #172]	; (6e8 <produce_s+0xb0>)
     63c:	447a      	add	r2, pc
     63e:	b570      	push	{r4, r5, r6, lr}
     640:	4604      	mov	r4, r0
     642:	460d      	mov	r5, r1
/workspace/benchmark/bad-partitioning/ta/entry.c:334
     644:	4601      	mov	r1, r0
     646:	4829      	ldr	r0, [pc, #164]	; (6ec <produce_s+0xb4>)
/workspace/benchmark/bad-partitioning/ta/entry.c:333
     648:	f5ad 7d7e 	sub.w	sp, sp, #1016	; 0x3f8
     64c:	58d3      	ldr	r3, [r2, r3]
/workspace/benchmark/bad-partitioning/ta/entry.c:334
     64e:	4478      	add	r0, pc
/workspace/benchmark/bad-partitioning/ta/entry.c:333
     650:	681b      	ldr	r3, [r3, #0]
     652:	93fd      	str	r3, [sp, #1012]	; 0x3f4
     654:	f04f 0300 	mov.w	r3, #0
/workspace/benchmark/bad-partitioning/ta/entry.c:334
     658:	f006 f822 	bl	66a0 <strcmp>
     65c:	b958      	cbnz	r0, 676 <produce_s+0x3e>
/workspace/benchmark/bad-partitioning/ta/entry.c:336
     65e:	4824      	ldr	r0, [pc, #144]	; (6f0 <produce_s+0xb8>)
     660:	2202      	movs	r2, #2
     662:	4b24      	ldr	r3, [pc, #144]	; (6f4 <produce_s+0xbc>)
     664:	f44f 71a8 	mov.w	r1, #336	; 0x150
     668:	4478      	add	r0, pc
     66a:	447b      	add	r3, pc
     66c:	306e      	adds	r0, #110	; 0x6e
     66e:	9300      	str	r3, [sp, #0]
     670:	2301      	movs	r3, #1
     672:	f000 fee5 	bl	1440 <trace_printf>
/workspace/benchmark/bad-partitioning/ta/entry.c:340
     676:	4920      	ldr	r1, [pc, #128]	; (6f8 <produce_s+0xc0>)
     678:	462a      	mov	r2, r5
     67a:	4620      	mov	r0, r4
     67c:	4479      	add	r1, pc
     67e:	f001 f947 	bl	1910 <TEE_MemCompare>
     682:	b958      	cbnz	r0, 69c <produce_s+0x64>
/workspace/benchmark/bad-partitioning/ta/entry.c:343
     684:	481d      	ldr	r0, [pc, #116]	; (6fc <produce_s+0xc4>)
     686:	2202      	movs	r2, #2
     688:	4b1d      	ldr	r3, [pc, #116]	; (700 <produce_s+0xc8>)
     68a:	f240 1157 	movw	r1, #343	; 0x157
     68e:	4478      	add	r0, pc
     690:	447b      	add	r3, pc
     692:	306e      	adds	r0, #110	; 0x6e
     694:	9300      	str	r3, [sp, #0]
     696:	2301      	movs	r3, #1
     698:	f000 fed2 	bl	1440 <trace_printf>
/workspace/benchmark/bad-partitioning/ta/entry.c:346
     69c:	f5b5 7f7a 	cmp.w	r5, #1000	; 0x3e8
     6a0:	dc10      	bgt.n	6c4 <produce_s+0x8c>
/workspace/benchmark/bad-partitioning/ta/entry.c:349
     6a2:	2100      	movs	r1, #0
     6a4:	f44f 7279 	mov.w	r2, #996	; 0x3e4
     6a8:	ae03      	add	r6, sp, #12
     6aa:	a804      	add	r0, sp, #16
     6ac:	9103      	str	r1, [sp, #12]
     6ae:	f005 ffef 	bl	6690 <memset>
/workspace/benchmark/bad-partitioning/ta/entry.c:350
     6b2:	4621      	mov	r1, r4
     6b4:	462a      	mov	r2, r5
     6b6:	4630      	mov	r0, r6
     6b8:	f001 f928 	bl	190c <TEE_MemMove>
/workspace/benchmark/bad-partitioning/ta/entry.c:352
     6bc:	4629      	mov	r1, r5
     6be:	4620      	mov	r0, r4
     6c0:	f7ff ff83 	bl	5ca <produce_s2>
/workspace/benchmark/bad-partitioning/ta/entry.c:333
     6c4:	4a0f      	ldr	r2, [pc, #60]	; (704 <produce_s+0xcc>)
/workspace/benchmark/bad-partitioning/ta/entry.c:353
     6c6:	4b08      	ldr	r3, [pc, #32]	; (6e8 <produce_s+0xb0>)
/workspace/benchmark/bad-partitioning/ta/entry.c:333
     6c8:	447a      	add	r2, pc
/workspace/benchmark/bad-partitioning/ta/entry.c:353
     6ca:	58d3      	ldr	r3, [r2, r3]
     6cc:	681a      	ldr	r2, [r3, #0]
     6ce:	9bfd      	ldr	r3, [sp, #1012]	; 0x3f4
     6d0:	405a      	eors	r2, r3
     6d2:	f04f 0300 	mov.w	r3, #0
     6d6:	d001      	beq.n	6dc <produce_s+0xa4>
     6d8:	f005 ffce 	bl	6678 <__stack_chk_fail>
     6dc:	f50d 7d7e 	add.w	sp, sp, #1016	; 0x3f8
     6e0:	bd70      	pop	{r4, r5, r6, pc}
     6e2:	bf00      	nop
     6e4:	00007a2c 	.word	0x00007a2c
     6e8:	0000000c 	.word	0x0000000c
     6ec:	000065ad 	.word	0x000065ad
     6f0:	000065ae 	.word	0x000065ae
     6f4:	0000659d 	.word	0x0000659d
     6f8:	0000657f 	.word	0x0000657f
     6fc:	00006588 	.word	0x00006588
     700:	0000657f 	.word	0x0000657f
     704:	000079a0 	.word	0x000079a0

00000708 <produce_s3>:
produce_s3():
/workspace/benchmark/bad-partitioning/ta/entry.c:356
     708:	4a5f      	ldr	r2, [pc, #380]	; (888 <produce_s3+0x180>)
     70a:	4b60      	ldr	r3, [pc, #384]	; (88c <produce_s3+0x184>)
     70c:	447a      	add	r2, pc
     70e:	b570      	push	{r4, r5, r6, lr}
     710:	4604      	mov	r4, r0
/workspace/benchmark/bad-partitioning/ta/entry.c:358
     712:	e9d0 5600 	ldrd	r5, r6, [r0]
/workspace/benchmark/bad-partitioning/ta/entry.c:356
     716:	f5ad 7d7e 	sub.w	sp, sp, #1016	; 0x3f8
/workspace/benchmark/bad-partitioning/ta/entry.c:359
     71a:	485d      	ldr	r0, [pc, #372]	; (890 <produce_s3+0x188>)
/workspace/benchmark/bad-partitioning/ta/entry.c:356
     71c:	58d3      	ldr	r3, [r2, r3]
/workspace/benchmark/bad-partitioning/ta/entry.c:359
     71e:	4629      	mov	r1, r5
     720:	4478      	add	r0, pc
/workspace/benchmark/bad-partitioning/ta/entry.c:356
     722:	681b      	ldr	r3, [r3, #0]
     724:	93fd      	str	r3, [sp, #1012]	; 0x3f4
     726:	f04f 0300 	mov.w	r3, #0
/workspace/benchmark/bad-partitioning/ta/entry.c:359
     72a:	f005 ffb9 	bl	66a0 <strcmp>
     72e:	b958      	cbnz	r0, 748 <produce_s3+0x40>
/workspace/benchmark/bad-partitioning/ta/entry.c:361
     730:	4858      	ldr	r0, [pc, #352]	; (894 <produce_s3+0x18c>)
     732:	2202      	movs	r2, #2
     734:	4b58      	ldr	r3, [pc, #352]	; (898 <produce_s3+0x190>)
     736:	f240 1169 	movw	r1, #361	; 0x169
     73a:	4478      	add	r0, pc
     73c:	447b      	add	r3, pc
     73e:	3078      	adds	r0, #120	; 0x78
     740:	9300      	str	r3, [sp, #0]
     742:	2301      	movs	r3, #1
     744:	f000 fe7c 	bl	1440 <trace_printf>
/workspace/benchmark/bad-partitioning/ta/entry.c:366
     748:	4954      	ldr	r1, [pc, #336]	; (89c <produce_s3+0x194>)
     74a:	6862      	ldr	r2, [r4, #4]
     74c:	6820      	ldr	r0, [r4, #0]
     74e:	4479      	add	r1, pc
     750:	f001 f8de 	bl	1910 <TEE_MemCompare>
     754:	b958      	cbnz	r0, 76e <produce_s3+0x66>
/workspace/benchmark/bad-partitioning/ta/entry.c:369
     756:	4852      	ldr	r0, [pc, #328]	; (8a0 <produce_s3+0x198>)
     758:	2202      	movs	r2, #2
     75a:	4b52      	ldr	r3, [pc, #328]	; (8a4 <produce_s3+0x19c>)
     75c:	f240 1171 	movw	r1, #369	; 0x171
     760:	4478      	add	r0, pc
     762:	447b      	add	r3, pc
     764:	3078      	adds	r0, #120	; 0x78
     766:	9300      	str	r3, [sp, #0]
     768:	2301      	movs	r3, #1
     76a:	f000 fe69 	bl	1440 <trace_printf>
/workspace/benchmark/bad-partitioning/ta/entry.c:372
     76e:	484e      	ldr	r0, [pc, #312]	; (8a8 <produce_s3+0x1a0>)
     770:	e9d4 1200 	ldrd	r1, r2, [r4]
     774:	4478      	add	r0, pc
     776:	f001 f8cb 	bl	1910 <TEE_MemCompare>
     77a:	b958      	cbnz	r0, 794 <produce_s3+0x8c>
/workspace/benchmark/bad-partitioning/ta/entry.c:375
     77c:	484b      	ldr	r0, [pc, #300]	; (8ac <produce_s3+0x1a4>)
     77e:	2202      	movs	r2, #2
     780:	4b4b      	ldr	r3, [pc, #300]	; (8b0 <produce_s3+0x1a8>)
     782:	f240 1177 	movw	r1, #375	; 0x177
     786:	4478      	add	r0, pc
     788:	447b      	add	r3, pc
     78a:	3078      	adds	r0, #120	; 0x78
     78c:	9300      	str	r3, [sp, #0]
     78e:	2301      	movs	r3, #1
     790:	f000 fe56 	bl	1440 <trace_printf>
/workspace/benchmark/bad-partitioning/ta/entry.c:378
     794:	4847      	ldr	r0, [pc, #284]	; (8b4 <produce_s3+0x1ac>)
     796:	4632      	mov	r2, r6
     798:	4629      	mov	r1, r5
     79a:	4478      	add	r0, pc
     79c:	f001 f8b8 	bl	1910 <TEE_MemCompare>
     7a0:	b958      	cbnz	r0, 7ba <produce_s3+0xb2>
/workspace/benchmark/bad-partitioning/ta/entry.c:381
     7a2:	4845      	ldr	r0, [pc, #276]	; (8b8 <produce_s3+0x1b0>)
     7a4:	2202      	movs	r2, #2
     7a6:	4b45      	ldr	r3, [pc, #276]	; (8bc <produce_s3+0x1b4>)
     7a8:	f240 117d 	movw	r1, #381	; 0x17d
     7ac:	4478      	add	r0, pc
     7ae:	447b      	add	r3, pc
     7b0:	3078      	adds	r0, #120	; 0x78
     7b2:	9300      	str	r3, [sp, #0]
     7b4:	2301      	movs	r3, #1
     7b6:	f000 fe43 	bl	1440 <trace_printf>
/workspace/benchmark/bad-partitioning/ta/entry.c:384
     7ba:	4941      	ldr	r1, [pc, #260]	; (8c0 <produce_s3+0x1b8>)
     7bc:	6820      	ldr	r0, [r4, #0]
     7be:	4479      	add	r1, pc
     7c0:	f005 ff6e 	bl	66a0 <strcmp>
     7c4:	b958      	cbnz	r0, 7de <produce_s3+0xd6>
/workspace/benchmark/bad-partitioning/ta/entry.c:386
     7c6:	483f      	ldr	r0, [pc, #252]	; (8c4 <produce_s3+0x1bc>)
     7c8:	2202      	movs	r2, #2
     7ca:	4b3f      	ldr	r3, [pc, #252]	; (8c8 <produce_s3+0x1c0>)
     7cc:	f44f 71c1 	mov.w	r1, #386	; 0x182
     7d0:	4478      	add	r0, pc
     7d2:	447b      	add	r3, pc
     7d4:	3078      	adds	r0, #120	; 0x78
     7d6:	9300      	str	r3, [sp, #0]
     7d8:	2301      	movs	r3, #1
     7da:	f000 fe31 	bl	1440 <trace_printf>
/workspace/benchmark/bad-partitioning/ta/entry.c:389
     7de:	483b      	ldr	r0, [pc, #236]	; (8cc <produce_s3+0x1c4>)
     7e0:	6821      	ldr	r1, [r4, #0]
     7e2:	4478      	add	r0, pc
     7e4:	f005 ff5c 	bl	66a0 <strcmp>
     7e8:	b958      	cbnz	r0, 802 <produce_s3+0xfa>
/workspace/benchmark/bad-partitioning/ta/entry.c:390
     7ea:	4839      	ldr	r0, [pc, #228]	; (8d0 <produce_s3+0x1c8>)
     7ec:	2202      	movs	r2, #2
     7ee:	4b39      	ldr	r3, [pc, #228]	; (8d4 <produce_s3+0x1cc>)
     7f0:	f44f 71c3 	mov.w	r1, #390	; 0x186
     7f4:	4478      	add	r0, pc
     7f6:	447b      	add	r3, pc
     7f8:	3078      	adds	r0, #120	; 0x78
     7fa:	9300      	str	r3, [sp, #0]
     7fc:	2301      	movs	r3, #1
     7fe:	f000 fe1f 	bl	1440 <trace_printf>
/workspace/benchmark/bad-partitioning/ta/entry.c:393
     802:	4935      	ldr	r1, [pc, #212]	; (8d8 <produce_s3+0x1d0>)
     804:	4628      	mov	r0, r5
     806:	4479      	add	r1, pc
     808:	f005 ff4a 	bl	66a0 <strcmp>
     80c:	b958      	cbnz	r0, 826 <produce_s3+0x11e>
/workspace/benchmark/bad-partitioning/ta/entry.c:394
     80e:	4833      	ldr	r0, [pc, #204]	; (8dc <produce_s3+0x1d4>)
     810:	2202      	movs	r2, #2
     812:	4b33      	ldr	r3, [pc, #204]	; (8e0 <produce_s3+0x1d8>)
     814:	f44f 71c5 	mov.w	r1, #394	; 0x18a
     818:	4478      	add	r0, pc
     81a:	447b      	add	r3, pc
     81c:	3078      	adds	r0, #120	; 0x78
     81e:	9300      	str	r3, [sp, #0]
     820:	2301      	movs	r3, #1
     822:	f000 fe0d 	bl	1440 <trace_printf>
/workspace/benchmark/bad-partitioning/ta/entry.c:397
     826:	f5b6 7f7a 	cmp.w	r6, #1000	; 0x3e8
     82a:	d81e      	bhi.n	86a <produce_s3+0x162>
/workspace/benchmark/bad-partitioning/ta/entry.c:400
     82c:	ad03      	add	r5, sp, #12
     82e:	2100      	movs	r1, #0
     830:	f44f 7279 	mov.w	r2, #996	; 0x3e4
     834:	a804      	add	r0, sp, #16
     836:	6029      	str	r1, [r5, #0]
     838:	f005 ff2a 	bl	6690 <memset>
/workspace/benchmark/bad-partitioning/ta/entry.c:401
     83c:	e9d4 1200 	ldrd	r1, r2, [r4]
     840:	4628      	mov	r0, r5
     842:	f001 f863 	bl	190c <TEE_MemMove>
/workspace/benchmark/bad-partitioning/ta/entry.c:403
     846:	4827      	ldr	r0, [pc, #156]	; (8e4 <produce_s3+0x1dc>)
     848:	4629      	mov	r1, r5
     84a:	4478      	add	r0, pc
     84c:	f005 ff28 	bl	66a0 <strcmp>
     850:	b158      	cbz	r0, 86a <produce_s3+0x162>
/workspace/benchmark/bad-partitioning/ta/entry.c:405
     852:	4825      	ldr	r0, [pc, #148]	; (8e8 <produce_s3+0x1e0>)
     854:	2202      	movs	r2, #2
     856:	4b25      	ldr	r3, [pc, #148]	; (8ec <produce_s3+0x1e4>)
     858:	f240 1195 	movw	r1, #405	; 0x195
     85c:	4478      	add	r0, pc
     85e:	447b      	add	r3, pc
     860:	3078      	adds	r0, #120	; 0x78
     862:	9300      	str	r3, [sp, #0]
     864:	2301      	movs	r3, #1
     866:	f000 fdeb 	bl	1440 <trace_printf>
/workspace/benchmark/bad-partitioning/ta/entry.c:356
     86a:	4a21      	ldr	r2, [pc, #132]	; (8f0 <produce_s3+0x1e8>)
/workspace/benchmark/bad-partitioning/ta/entry.c:409
     86c:	4b07      	ldr	r3, [pc, #28]	; (88c <produce_s3+0x184>)
/workspace/benchmark/bad-partitioning/ta/entry.c:356
     86e:	447a      	add	r2, pc
/workspace/benchmark/bad-partitioning/ta/entry.c:409
     870:	58d3      	ldr	r3, [r2, r3]
     872:	681a      	ldr	r2, [r3, #0]
     874:	9bfd      	ldr	r3, [sp, #1012]	; 0x3f4
     876:	405a      	eors	r2, r3
     878:	f04f 0300 	mov.w	r3, #0
     87c:	d001      	beq.n	882 <produce_s3+0x17a>
     87e:	f005 fefb 	bl	6678 <__stack_chk_fail>
     882:	f50d 7d7e 	add.w	sp, sp, #1016	; 0x3f8
     886:	bd70      	pop	{r4, r5, r6, pc}
     888:	0000795c 	.word	0x0000795c
     88c:	0000000c 	.word	0x0000000c
     890:	000064db 	.word	0x000064db
     894:	000064dc 	.word	0x000064dc
     898:	000064cb 	.word	0x000064cb
     89c:	000064ad 	.word	0x000064ad
     8a0:	000064b6 	.word	0x000064b6
     8a4:	000064ad 	.word	0x000064ad
     8a8:	00006487 	.word	0x00006487
     8ac:	00006490 	.word	0x00006490
     8b0:	00006487 	.word	0x00006487
     8b4:	00006461 	.word	0x00006461
     8b8:	0000646a 	.word	0x0000646a
     8bc:	00006461 	.word	0x00006461
     8c0:	0000643d 	.word	0x0000643d
     8c4:	00006446 	.word	0x00006446
     8c8:	0000643d 	.word	0x0000643d
     8cc:	00006419 	.word	0x00006419
     8d0:	00006422 	.word	0x00006422
     8d4:	00006419 	.word	0x00006419
     8d8:	000063f5 	.word	0x000063f5
     8dc:	000063fe 	.word	0x000063fe
     8e0:	000063f5 	.word	0x000063f5
     8e4:	000063b1 	.word	0x000063b1
     8e8:	000063ba 	.word	0x000063ba
     8ec:	000063a9 	.word	0x000063a9
     8f0:	000077fa 	.word	0x000077fa

000008f4 <shared_memory>:
shared_memory():
/workspace/benchmark/bad-partitioning/ta/entry.c:413
     8f4:	4a7d      	ldr	r2, [pc, #500]	; (aec <shared_memory+0x1f8>)
/workspace/benchmark/bad-partitioning/ta/entry.c:419
     8f6:	2807      	cmp	r0, #7
/workspace/benchmark/bad-partitioning/ta/entry.c:413
     8f8:	4b7d      	ldr	r3, [pc, #500]	; (af0 <shared_memory+0x1fc>)
     8fa:	447a      	add	r2, pc
     8fc:	b5f0      	push	{r4, r5, r6, r7, lr}
     8fe:	460c      	mov	r4, r1
     900:	f5ad 7d7f 	sub.w	sp, sp, #1020	; 0x3fc
     904:	58d3      	ldr	r3, [r2, r3]
     906:	681b      	ldr	r3, [r3, #0]
     908:	93fd      	str	r3, [sp, #1012]	; 0x3f4
     90a:	f04f 0300 	mov.w	r3, #0
/workspace/benchmark/bad-partitioning/ta/entry.c:419
     90e:	d00d      	beq.n	92c <shared_memory+0x38>
/workspace/benchmark/bad-partitioning/ta/entry.c:420
     910:	4875      	ldr	r0, [pc, #468]	; (ae8 <shared_memory+0x1f4>)
/workspace/benchmark/bad-partitioning/ta/entry.c:413
     912:	4a78      	ldr	r2, [pc, #480]	; (af4 <shared_memory+0x200>)
/workspace/benchmark/bad-partitioning/ta/entry.c:493
     914:	4b76      	ldr	r3, [pc, #472]	; (af0 <shared_memory+0x1fc>)
/workspace/benchmark/bad-partitioning/ta/entry.c:413
     916:	447a      	add	r2, pc
/workspace/benchmark/bad-partitioning/ta/entry.c:493
     918:	58d3      	ldr	r3, [r2, r3]
     91a:	681a      	ldr	r2, [r3, #0]
     91c:	9bfd      	ldr	r3, [sp, #1012]	; 0x3f4
     91e:	405a      	eors	r2, r3
     920:	f04f 0300 	mov.w	r3, #0
     924:	f000 80dd 	beq.w	ae2 <shared_memory+0x1ee>
     928:	f005 fea6 	bl	6678 <__stack_chk_fail>
/workspace/benchmark/bad-partitioning/ta/entry.c:423
     92c:	e9d1 5600 	ldrd	r5, r6, [r1]
/workspace/benchmark/bad-partitioning/ta/entry.c:425
     930:	4871      	ldr	r0, [pc, #452]	; (af8 <shared_memory+0x204>)
     932:	4629      	mov	r1, r5
     934:	4478      	add	r0, pc
     936:	f005 feb3 	bl	66a0 <strcmp>
     93a:	b958      	cbnz	r0, 954 <shared_memory+0x60>
/workspace/benchmark/bad-partitioning/ta/entry.c:427
     93c:	486f      	ldr	r0, [pc, #444]	; (afc <shared_memory+0x208>)
     93e:	2202      	movs	r2, #2
     940:	4b6f      	ldr	r3, [pc, #444]	; (b00 <shared_memory+0x20c>)
     942:	f240 11ab 	movw	r1, #427	; 0x1ab
     946:	4478      	add	r0, pc
     948:	447b      	add	r3, pc
     94a:	3083      	adds	r0, #131	; 0x83
     94c:	9300      	str	r3, [sp, #0]
     94e:	2301      	movs	r3, #1
     950:	f000 fd76 	bl	1440 <trace_printf>
/workspace/benchmark/bad-partitioning/ta/entry.c:430
     954:	f241 3088 	movw	r0, #5000	; 0x1388
     958:	f000 ffe9 	bl	192e <TEE_Wait>
/workspace/benchmark/bad-partitioning/ta/entry.c:432
     95c:	4869      	ldr	r0, [pc, #420]	; (b04 <shared_memory+0x210>)
     95e:	4629      	mov	r1, r5
     960:	4478      	add	r0, pc
     962:	f005 fe9d 	bl	66a0 <strcmp>
     966:	b158      	cbz	r0, 980 <shared_memory+0x8c>
/workspace/benchmark/bad-partitioning/ta/entry.c:434
     968:	4867      	ldr	r0, [pc, #412]	; (b08 <shared_memory+0x214>)
     96a:	2202      	movs	r2, #2
     96c:	4b67      	ldr	r3, [pc, #412]	; (b0c <shared_memory+0x218>)
     96e:	f44f 71d9 	mov.w	r1, #434	; 0x1b2
     972:	4478      	add	r0, pc
     974:	447b      	add	r3, pc
     976:	3083      	adds	r0, #131	; 0x83
     978:	9300      	str	r3, [sp, #0]
     97a:	2301      	movs	r3, #1
     97c:	f000 fd60 	bl	1440 <trace_printf>
/workspace/benchmark/bad-partitioning/ta/entry.c:437
     980:	4963      	ldr	r1, [pc, #396]	; (b10 <shared_memory+0x21c>)
     982:	4632      	mov	r2, r6
     984:	4628      	mov	r0, r5
     986:	4479      	add	r1, pc
     988:	f000 ffc2 	bl	1910 <TEE_MemCompare>
     98c:	b958      	cbnz	r0, 9a6 <shared_memory+0xb2>
/workspace/benchmark/bad-partitioning/ta/entry.c:440
     98e:	4861      	ldr	r0, [pc, #388]	; (b14 <shared_memory+0x220>)
     990:	2202      	movs	r2, #2
     992:	4b61      	ldr	r3, [pc, #388]	; (b18 <shared_memory+0x224>)
     994:	f44f 71dc 	mov.w	r1, #440	; 0x1b8
     998:	4478      	add	r0, pc
     99a:	447b      	add	r3, pc
     99c:	3083      	adds	r0, #131	; 0x83
     99e:	9300      	str	r3, [sp, #0]
     9a0:	2301      	movs	r3, #1
     9a2:	f000 fd4d 	bl	1440 <trace_printf>
/workspace/benchmark/bad-partitioning/ta/entry.c:445
     9a6:	495d      	ldr	r1, [pc, #372]	; (b1c <shared_memory+0x228>)
     9a8:	6862      	ldr	r2, [r4, #4]
     9aa:	6820      	ldr	r0, [r4, #0]
     9ac:	4479      	add	r1, pc
     9ae:	f000 ffaf 	bl	1910 <TEE_MemCompare>
     9b2:	b958      	cbnz	r0, 9cc <shared_memory+0xd8>
/workspace/benchmark/bad-partitioning/ta/entry.c:448
     9b4:	485a      	ldr	r0, [pc, #360]	; (b20 <shared_memory+0x22c>)
     9b6:	2202      	movs	r2, #2
     9b8:	4b5a      	ldr	r3, [pc, #360]	; (b24 <shared_memory+0x230>)
     9ba:	f44f 71e0 	mov.w	r1, #448	; 0x1c0
     9be:	4478      	add	r0, pc
     9c0:	447b      	add	r3, pc
     9c2:	3083      	adds	r0, #131	; 0x83
     9c4:	9300      	str	r3, [sp, #0]
     9c6:	2301      	movs	r3, #1
     9c8:	f000 fd3a 	bl	1440 <trace_printf>
/workspace/benchmark/bad-partitioning/ta/entry.c:451
     9cc:	4856      	ldr	r0, [pc, #344]	; (b28 <shared_memory+0x234>)
     9ce:	e9d4 1200 	ldrd	r1, r2, [r4]
     9d2:	4478      	add	r0, pc
     9d4:	f000 ff9c 	bl	1910 <TEE_MemCompare>
     9d8:	b958      	cbnz	r0, 9f2 <shared_memory+0xfe>
/workspace/benchmark/bad-partitioning/ta/entry.c:454
     9da:	4854      	ldr	r0, [pc, #336]	; (b2c <shared_memory+0x238>)
     9dc:	2202      	movs	r2, #2
     9de:	4b54      	ldr	r3, [pc, #336]	; (b30 <shared_memory+0x23c>)
     9e0:	f44f 71e3 	mov.w	r1, #454	; 0x1c6
     9e4:	4478      	add	r0, pc
     9e6:	447b      	add	r3, pc
     9e8:	3083      	adds	r0, #131	; 0x83
     9ea:	9300      	str	r3, [sp, #0]
     9ec:	2301      	movs	r3, #1
     9ee:	f000 fd27 	bl	1440 <trace_printf>
/workspace/benchmark/bad-partitioning/ta/entry.c:457
     9f2:	4850      	ldr	r0, [pc, #320]	; (b34 <shared_memory+0x240>)
     9f4:	4632      	mov	r2, r6
     9f6:	4629      	mov	r1, r5
     9f8:	4478      	add	r0, pc
     9fa:	f000 ff89 	bl	1910 <TEE_MemCompare>
     9fe:	b958      	cbnz	r0, a18 <shared_memory+0x124>
/workspace/benchmark/bad-partitioning/ta/entry.c:460
     a00:	484d      	ldr	r0, [pc, #308]	; (b38 <shared_memory+0x244>)
     a02:	2202      	movs	r2, #2
     a04:	4b4d      	ldr	r3, [pc, #308]	; (b3c <shared_memory+0x248>)
     a06:	f44f 71e6 	mov.w	r1, #460	; 0x1cc
     a0a:	4478      	add	r0, pc
     a0c:	447b      	add	r3, pc
     a0e:	3083      	adds	r0, #131	; 0x83
     a10:	9300      	str	r3, [sp, #0]
     a12:	2301      	movs	r3, #1
     a14:	f000 fd14 	bl	1440 <trace_printf>
/workspace/benchmark/bad-partitioning/ta/entry.c:463
     a18:	4949      	ldr	r1, [pc, #292]	; (b40 <shared_memory+0x24c>)
     a1a:	6820      	ldr	r0, [r4, #0]
     a1c:	4479      	add	r1, pc
     a1e:	f005 fe3f 	bl	66a0 <strcmp>
     a22:	b958      	cbnz	r0, a3c <shared_memory+0x148>
/workspace/benchmark/bad-partitioning/ta/entry.c:465
     a24:	4847      	ldr	r0, [pc, #284]	; (b44 <shared_memory+0x250>)
     a26:	2202      	movs	r2, #2
     a28:	4b47      	ldr	r3, [pc, #284]	; (b48 <shared_memory+0x254>)
     a2a:	f240 11d1 	movw	r1, #465	; 0x1d1
     a2e:	4478      	add	r0, pc
     a30:	447b      	add	r3, pc
     a32:	3083      	adds	r0, #131	; 0x83
     a34:	9300      	str	r3, [sp, #0]
     a36:	2301      	movs	r3, #1
     a38:	f000 fd02 	bl	1440 <trace_printf>
/workspace/benchmark/bad-partitioning/ta/entry.c:468
     a3c:	4843      	ldr	r0, [pc, #268]	; (b4c <shared_memory+0x258>)
     a3e:	6821      	ldr	r1, [r4, #0]
     a40:	4478      	add	r0, pc
     a42:	f005 fe2d 	bl	66a0 <strcmp>
     a46:	b958      	cbnz	r0, a60 <shared_memory+0x16c>
/workspace/benchmark/bad-partitioning/ta/entry.c:469
     a48:	4841      	ldr	r0, [pc, #260]	; (b50 <shared_memory+0x25c>)
     a4a:	2202      	movs	r2, #2
     a4c:	4b41      	ldr	r3, [pc, #260]	; (b54 <shared_memory+0x260>)
     a4e:	f240 11d5 	movw	r1, #469	; 0x1d5
     a52:	4478      	add	r0, pc
     a54:	447b      	add	r3, pc
     a56:	3083      	adds	r0, #131	; 0x83
     a58:	9300      	str	r3, [sp, #0]
     a5a:	2301      	movs	r3, #1
     a5c:	f000 fcf0 	bl	1440 <trace_printf>
/workspace/benchmark/bad-partitioning/ta/entry.c:472
     a60:	493d      	ldr	r1, [pc, #244]	; (b58 <shared_memory+0x264>)
     a62:	4628      	mov	r0, r5
     a64:	4479      	add	r1, pc
     a66:	f005 fe1b 	bl	66a0 <strcmp>
     a6a:	b958      	cbnz	r0, a84 <shared_memory+0x190>
/workspace/benchmark/bad-partitioning/ta/entry.c:473
     a6c:	483b      	ldr	r0, [pc, #236]	; (b5c <shared_memory+0x268>)
     a6e:	2202      	movs	r2, #2
     a70:	4b3b      	ldr	r3, [pc, #236]	; (b60 <shared_memory+0x26c>)
     a72:	f240 11d9 	movw	r1, #473	; 0x1d9
     a76:	4478      	add	r0, pc
     a78:	447b      	add	r3, pc
     a7a:	3083      	adds	r0, #131	; 0x83
     a7c:	9300      	str	r3, [sp, #0]
     a7e:	2301      	movs	r3, #1
     a80:	f000 fcde 	bl	1440 <trace_printf>
/workspace/benchmark/bad-partitioning/ta/entry.c:476
     a84:	4631      	mov	r1, r6
     a86:	4628      	mov	r0, r5
     a88:	f7ff fdd6 	bl	638 <produce_s>
/workspace/benchmark/bad-partitioning/ta/entry.c:479
     a8c:	2500      	movs	r5, #0
/workspace/benchmark/bad-partitioning/ta/entry.c:477
     a8e:	4620      	mov	r0, r4
/workspace/benchmark/bad-partitioning/ta/entry.c:479
     a90:	af03      	add	r7, sp, #12
/workspace/benchmark/bad-partitioning/ta/entry.c:477
     a92:	f7ff fe39 	bl	708 <produce_s3>
/workspace/benchmark/bad-partitioning/ta/entry.c:479
     a96:	f44f 7279 	mov.w	r2, #996	; 0x3e4
     a9a:	4629      	mov	r1, r5
     a9c:	a804      	add	r0, sp, #16
     a9e:	9503      	str	r5, [sp, #12]
     aa0:	f005 fdf6 	bl	6690 <memset>
/workspace/benchmark/bad-partitioning/ta/entry.c:481
     aa4:	f5b6 7f7a 	cmp.w	r6, #1000	; 0x3e8
     aa8:	f63f af32 	bhi.w	910 <shared_memory+0x1c>
/workspace/benchmark/bad-partitioning/ta/entry.c:485
     aac:	e9d4 1200 	ldrd	r1, r2, [r4]
     ab0:	4638      	mov	r0, r7
     ab2:	f000 ff2b 	bl	190c <TEE_MemMove>
/workspace/benchmark/bad-partitioning/ta/entry.c:487
     ab6:	482b      	ldr	r0, [pc, #172]	; (b64 <shared_memory+0x270>)
     ab8:	4639      	mov	r1, r7
     aba:	4478      	add	r0, pc
     abc:	f005 fdf0 	bl	66a0 <strcmp>
     ac0:	2800      	cmp	r0, #0
     ac2:	f43f af26 	beq.w	912 <shared_memory+0x1e>
/workspace/benchmark/bad-partitioning/ta/entry.c:489
     ac6:	4828      	ldr	r0, [pc, #160]	; (b68 <shared_memory+0x274>)
     ac8:	2202      	movs	r2, #2
     aca:	4b28      	ldr	r3, [pc, #160]	; (b6c <shared_memory+0x278>)
     acc:	f240 11e9 	movw	r1, #489	; 0x1e9
     ad0:	4478      	add	r0, pc
     ad2:	447b      	add	r3, pc
     ad4:	3083      	adds	r0, #131	; 0x83
     ad6:	9300      	str	r3, [sp, #0]
     ad8:	2301      	movs	r3, #1
     ada:	f000 fcb1 	bl	1440 <trace_printf>
/workspace/benchmark/bad-partitioning/ta/entry.c:492
     ade:	4628      	mov	r0, r5
     ae0:	e717      	b.n	912 <shared_memory+0x1e>
/workspace/benchmark/bad-partitioning/ta/entry.c:493
     ae2:	f50d 7d7f 	add.w	sp, sp, #1020	; 0x3fc
     ae6:	bdf0      	pop	{r4, r5, r6, r7, pc}
     ae8:	ffff0006 	.word	0xffff0006
     aec:	0000776e 	.word	0x0000776e
     af0:	0000000c 	.word	0x0000000c
     af4:	00007752 	.word	0x00007752
     af8:	000062c7 	.word	0x000062c7
     afc:	000062d0 	.word	0x000062d0
     b00:	000062bf 	.word	0x000062bf
     b04:	0000629b 	.word	0x0000629b
     b08:	000062a4 	.word	0x000062a4
     b0c:	00006293 	.word	0x00006293
     b10:	00006275 	.word	0x00006275
     b14:	0000627e 	.word	0x0000627e
     b18:	00006275 	.word	0x00006275
     b1c:	0000624f 	.word	0x0000624f
     b20:	00006258 	.word	0x00006258
     b24:	0000624f 	.word	0x0000624f
     b28:	00006229 	.word	0x00006229
     b2c:	00006232 	.word	0x00006232
     b30:	00006229 	.word	0x00006229
     b34:	00006203 	.word	0x00006203
     b38:	0000620c 	.word	0x0000620c
     b3c:	00006203 	.word	0x00006203
     b40:	000061df 	.word	0x000061df
     b44:	000061e8 	.word	0x000061e8
     b48:	000061df 	.word	0x000061df
     b4c:	000061bb 	.word	0x000061bb
     b50:	000061c4 	.word	0x000061c4
     b54:	000061bb 	.word	0x000061bb
     b58:	00006197 	.word	0x00006197
     b5c:	000061a0 	.word	0x000061a0
     b60:	00006197 	.word	0x00006197
     b64:	00006141 	.word	0x00006141
     b68:	00006146 	.word	0x00006146
     b6c:	00006135 	.word	0x00006135

00000b70 <TA_InvokeCommandEntryPoint>:
TA_InvokeCommandEntryPoint():
/workspace/benchmark/bad-partitioning/ta/entry.c:503
     b70:	b530      	push	{r4, r5, lr}
/workspace/benchmark/bad-partitioning/ta/entry.c:506
     b72:	2901      	cmp	r1, #1
/workspace/benchmark/bad-partitioning/ta/entry.c:503
     b74:	4615      	mov	r5, r2
     b76:	b085      	sub	sp, #20
     b78:	461c      	mov	r4, r3
/workspace/benchmark/bad-partitioning/ta/entry.c:506
     b7a:	d009      	beq.n	b90 <TA_InvokeCommandEntryPoint+0x20>
     b7c:	2902      	cmp	r1, #2
     b7e:	d064      	beq.n	c4a <TA_InvokeCommandEntryPoint+0xda>
     b80:	b9b1      	cbnz	r1, bb0 <TA_InvokeCommandEntryPoint+0x40>
/workspace/benchmark/bad-partitioning/ta/entry.c:508
     b82:	4619      	mov	r1, r3
     b84:	4610      	mov	r0, r2
/workspace/benchmark/bad-partitioning/ta/entry.c:516
     b86:	b005      	add	sp, #20
     b88:	e8bd 4030 	ldmia.w	sp!, {r4, r5, lr}
/workspace/benchmark/bad-partitioning/ta/entry.c:508
     b8c:	f7ff bbf0 	b.w	370 <output>
input():
/workspace/benchmark/bad-partitioning/ta/entry.c:275
     b90:	4832      	ldr	r0, [pc, #200]	; (c5c <TA_InvokeCommandEntryPoint+0xec>)
     b92:	2203      	movs	r2, #3
     b94:	4b32      	ldr	r3, [pc, #200]	; (c60 <TA_InvokeCommandEntryPoint+0xf0>)
     b96:	4478      	add	r0, pc
     b98:	447b      	add	r3, pc
     b9a:	3091      	adds	r0, #145	; 0x91
     b9c:	9300      	str	r3, [sp, #0]
     b9e:	460b      	mov	r3, r1
     ba0:	f240 1113 	movw	r1, #275	; 0x113
     ba4:	f000 fc4c 	bl	1440 <trace_printf>
/workspace/benchmark/bad-partitioning/ta/entry.c:277
     ba8:	f247 7351 	movw	r3, #30545	; 0x7751
     bac:	429d      	cmp	r5, r3
     bae:	d001      	beq.n	bb4 <TA_InvokeCommandEntryPoint+0x44>
TA_InvokeCommandEntryPoint():
/workspace/benchmark/bad-partitioning/ta/entry.c:506
     bb0:	4829      	ldr	r0, [pc, #164]	; (c58 <TA_InvokeCommandEntryPoint+0xe8>)
     bb2:	e043      	b.n	c3c <TA_InvokeCommandEntryPoint+0xcc>
input():
/workspace/benchmark/bad-partitioning/ta/entry.c:280
     bb4:	2100      	movs	r1, #0
     bb6:	f44f 707a 	mov.w	r0, #1000	; 0x3e8
     bba:	f000 ff04 	bl	19c6 <TEE_Malloc>
/workspace/benchmark/bad-partitioning/ta/entry.c:283
     bbe:	2100      	movs	r1, #0
/workspace/benchmark/bad-partitioning/ta/entry.c:280
     bc0:	4605      	mov	r5, r0
/workspace/benchmark/bad-partitioning/ta/entry.c:283
     bc2:	6820      	ldr	r0, [r4, #0]
     bc4:	f000 feff 	bl	19c6 <TEE_Malloc>
/workspace/benchmark/bad-partitioning/ta/entry.c:284
     bc8:	68e0      	ldr	r0, [r4, #12]
     bca:	2100      	movs	r1, #0
     bcc:	f000 fefb 	bl	19c6 <TEE_Malloc>
/workspace/benchmark/bad-partitioning/ta/entry.c:286
     bd0:	2300      	movs	r3, #0
     bd2:	6962      	ldr	r2, [r4, #20]
     bd4:	429a      	cmp	r2, r3
     bd6:	d833      	bhi.n	c40 <TA_InvokeCommandEntryPoint+0xd0>
/workspace/benchmark/bad-partitioning/ta/entry.c:290
     bd8:	69e2      	ldr	r2, [r4, #28]
     bda:	4628      	mov	r0, r5
     bdc:	69a1      	ldr	r1, [r4, #24]
     bde:	f000 fe95 	bl	190c <TEE_MemMove>
/workspace/benchmark/bad-partitioning/ta/entry.c:291
     be2:	6920      	ldr	r0, [r4, #16]
     be4:	f44f 727a 	mov.w	r2, #1000	; 0x3e8
     be8:	4629      	mov	r1, r5
     bea:	f000 fe8f 	bl	190c <TEE_MemMove>
/workspace/benchmark/bad-partitioning/ta/entry.c:298
     bee:	68e0      	ldr	r0, [r4, #12]
     bf0:	f242 7310 	movw	r3, #10000	; 0x2710
     bf4:	4298      	cmp	r0, r3
     bf6:	d8db      	bhi.n	bb0 <TA_InvokeCommandEntryPoint+0x40>
/workspace/benchmark/bad-partitioning/ta/entry.c:303
     bf8:	2100      	movs	r1, #0
     bfa:	f000 fee4 	bl	19c6 <TEE_Malloc>
/workspace/benchmark/bad-partitioning/ta/entry.c:306
     bfe:	6962      	ldr	r2, [r4, #20]
     c00:	6921      	ldr	r1, [r4, #16]
     c02:	4628      	mov	r0, r5
     c04:	f000 fe82 	bl	190c <TEE_MemMove>
/workspace/benchmark/bad-partitioning/ta/entry.c:307
     c08:	69e2      	ldr	r2, [r4, #28]
     c0a:	69a1      	ldr	r1, [r4, #24]
     c0c:	4628      	mov	r0, r5
     c0e:	f000 fe7d 	bl	190c <TEE_MemMove>
/workspace/benchmark/bad-partitioning/ta/entry.c:309
     c12:	f44f 727a 	mov.w	r2, #1000	; 0x3e8
     c16:	4629      	mov	r1, r5
     c18:	6920      	ldr	r0, [r4, #16]
     c1a:	f000 fe77 	bl	190c <TEE_MemMove>
/workspace/benchmark/bad-partitioning/ta/entry.c:311
     c1e:	69e3      	ldr	r3, [r4, #28]
     c20:	9301      	str	r3, [sp, #4]
     c22:	f104 010c 	add.w	r1, r4, #12
     c26:	69a3      	ldr	r3, [r4, #24]
     c28:	9402      	str	r4, [sp, #8]
     c2a:	9300      	str	r3, [sp, #0]
     c2c:	6820      	ldr	r0, [r4, #0]
     c2e:	c90e      	ldmia	r1, {r1, r2, r3}
     c30:	f7ff fc72 	bl	518 <produce_i0>
/workspace/benchmark/bad-partitioning/ta/entry.c:312
     c34:	6820      	ldr	r0, [r4, #0]
     c36:	f7ff fcbb 	bl	5b0 <produce_i3>
/workspace/benchmark/bad-partitioning/ta/entry.c:314
     c3a:	2000      	movs	r0, #0
TA_InvokeCommandEntryPoint():
/workspace/benchmark/bad-partitioning/ta/entry.c:516
     c3c:	b005      	add	sp, #20
     c3e:	bd30      	pop	{r4, r5, pc}
input():
/workspace/benchmark/bad-partitioning/ta/entry.c:287
     c40:	6922      	ldr	r2, [r4, #16]
     c42:	5cd2      	ldrb	r2, [r2, r3]
     c44:	54ea      	strb	r2, [r5, r3]
/workspace/benchmark/bad-partitioning/ta/entry.c:286
     c46:	3301      	adds	r3, #1
     c48:	e7c3      	b.n	bd2 <TA_InvokeCommandEntryPoint+0x62>
TA_InvokeCommandEntryPoint():
/workspace/benchmark/bad-partitioning/ta/entry.c:512
     c4a:	4619      	mov	r1, r3
     c4c:	4610      	mov	r0, r2
/workspace/benchmark/bad-partitioning/ta/entry.c:516
     c4e:	b005      	add	sp, #20
     c50:	e8bd 4030 	ldmia.w	sp!, {r4, r5, lr}
/workspace/benchmark/bad-partitioning/ta/entry.c:512
     c54:	e64e      	b.n	8f4 <shared_memory>
     c56:	bf00      	nop
     c58:	ffff0006 	.word	0xffff0006
     c5c:	00006080 	.word	0x00006080
     c60:	0000602c 	.word	0x0000602c

00000c64 <__vsnprintf>:
__vsnprintf():
/mnt/disk/raspbian-tee/optee_os/lib/libutils/ext/snprintk.c:137
     c64:	e92d 4ff0 	stmdb	sp!, {r4, r5, r6, r7, r8, r9, sl, fp, lr}
/mnt/disk/raspbian-tee/optee_os/lib/libutils/ext/snprintk.c:141
     c68:	4680      	mov	r8, r0
     c6a:	461f      	mov	r7, r3
/mnt/disk/raspbian-tee/optee_os/lib/libutils/ext/snprintk.c:137
     c6c:	b09f      	sub	sp, #124	; 0x7c
kprintf():
/mnt/disk/raspbian-tee/optee_os/lib/libutils/ext/snprintk.c:269
     c6e:	2300      	movs	r3, #0
__vsnprintf():
/mnt/disk/raspbian-tee/optee_os/lib/libutils/ext/snprintk.c:137
     c70:	920b      	str	r2, [sp, #44]	; 0x2c
     c72:	f89d 20a0 	ldrb.w	r2, [sp, #160]	; 0xa0
     c76:	9213      	str	r2, [sp, #76]	; 0x4c
/mnt/disk/raspbian-tee/optee_os/lib/libutils/ext/snprintk.c:141
     c78:	4602      	mov	r2, r0
     c7a:	440a      	add	r2, r1
/mnt/disk/raspbian-tee/optee_os/lib/libutils/ext/snprintk.c:137
     c7c:	9010      	str	r0, [sp, #64]	; 0x40
     c7e:	9112      	str	r1, [sp, #72]	; 0x48
/mnt/disk/raspbian-tee/optee_os/lib/libutils/ext/snprintk.c:141
     c80:	920e      	str	r2, [sp, #56]	; 0x38
kprintf():
/mnt/disk/raspbian-tee/optee_os/lib/libutils/ext/snprintk.c:269
     c82:	930f      	str	r3, [sp, #60]	; 0x3c
/mnt/disk/raspbian-tee/optee_os/lib/libutils/ext/snprintk.c:267
     c84:	930c      	str	r3, [sp, #48]	; 0x30
/mnt/disk/raspbian-tee/optee_os/lib/libutils/ext/snprintk.c:275
     c86:	9b0b      	ldr	r3, [sp, #44]	; 0x2c
     c88:	781b      	ldrb	r3, [r3, #0]
     c8a:	2b25      	cmp	r3, #37	; 0x25
     c8c:	d024      	beq.n	cd8 <__vsnprintf+0x74>
     c8e:	b993      	cbnz	r3, cb6 <__vsnprintf+0x52>
__vsnprintf():
/mnt/disk/raspbian-tee/optee_os/lib/libutils/ext/snprintk.c:143
     c90:	9b10      	ldr	r3, [sp, #64]	; 0x40
     c92:	b163      	cbz	r3, cae <__vsnprintf+0x4a>
/mnt/disk/raspbian-tee/optee_os/lib/libutils/ext/snprintk.c:143 (discriminator 1)
     c94:	9b12      	ldr	r3, [sp, #72]	; 0x48
     c96:	b153      	cbz	r3, cae <__vsnprintf+0x4a>
/mnt/disk/raspbian-tee/optee_os/lib/libutils/ext/snprintk.c:145
     c98:	9a0c      	ldr	r2, [sp, #48]	; 0x30
     c9a:	4293      	cmp	r3, r2
     c9c:	f04f 0300 	mov.w	r3, #0
/mnt/disk/raspbian-tee/optee_os/lib/libutils/ext/snprintk.c:146
     ca0:	9a10      	ldr	r2, [sp, #64]	; 0x40
/mnt/disk/raspbian-tee/optee_os/lib/libutils/ext/snprintk.c:145
     ca2:	f200 835f 	bhi.w	1364 <__vsnprintf+0x700>
/mnt/disk/raspbian-tee/optee_os/lib/libutils/ext/snprintk.c:146
     ca6:	9912      	ldr	r1, [sp, #72]	; 0x48
     ca8:	440a      	add	r2, r1
     caa:	f802 3c01 	strb.w	r3, [r2, #-1]
/mnt/disk/raspbian-tee/optee_os/lib/libutils/ext/snprintk.c:151
     cae:	980c      	ldr	r0, [sp, #48]	; 0x30
     cb0:	b01f      	add	sp, #124	; 0x7c
     cb2:	e8bd 8ff0 	ldmia.w	sp!, {r4, r5, r6, r7, r8, r9, sl, fp, pc}
kprintf():
/mnt/disk/raspbian-tee/optee_os/lib/libutils/ext/snprintk.c:276
     cb6:	9a0c      	ldr	r2, [sp, #48]	; 0x30
     cb8:	3201      	adds	r2, #1
     cba:	920c      	str	r2, [sp, #48]	; 0x30
/mnt/disk/raspbian-tee/optee_os/lib/libutils/ext/snprintk.c:277
     cbc:	f1b8 0f00 	cmp.w	r8, #0
     cc0:	d006      	beq.n	cd0 <__vsnprintf+0x6c>
     cc2:	9a0e      	ldr	r2, [sp, #56]	; 0x38
     cc4:	4542      	cmp	r2, r8
     cc6:	d903      	bls.n	cd0 <__vsnprintf+0x6c>
     cc8:	f888 3000 	strb.w	r3, [r8]
     ccc:	f108 0801 	add.w	r8, r8, #1
/mnt/disk/raspbian-tee/optee_os/lib/libutils/ext/snprintk.c:275
     cd0:	9b0b      	ldr	r3, [sp, #44]	; 0x2c
     cd2:	3301      	adds	r3, #1
     cd4:	930b      	str	r3, [sp, #44]	; 0x2c
     cd6:	e7d6      	b.n	c86 <__vsnprintf+0x22>
/mnt/disk/raspbian-tee/optee_os/lib/libutils/ext/snprintk.c:282
     cd8:	9b0b      	ldr	r3, [sp, #44]	; 0x2c
/mnt/disk/raspbian-tee/optee_os/lib/libutils/ext/snprintk.c:288
     cda:	f04f 0a00 	mov.w	sl, #0
/mnt/disk/raspbian-tee/optee_os/lib/libutils/ext/snprintk.c:282
     cde:	463a      	mov	r2, r7
/mnt/disk/raspbian-tee/optee_os/lib/libutils/ext/snprintk.c:287
     ce0:	f04f 3bff 	mov.w	fp, #4294967295	; 0xffffffff
/mnt/disk/raspbian-tee/optee_os/lib/libutils/ext/snprintk.c:282
     ce4:	3301      	adds	r3, #1
/mnt/disk/raspbian-tee/optee_os/lib/libutils/ext/snprintk.c:284
     ce6:	4656      	mov	r6, sl
/mnt/disk/raspbian-tee/optee_os/lib/libutils/ext/snprintk.c:286
     ce8:	f8cd a034 	str.w	sl, [sp, #52]	; 0x34
/mnt/disk/raspbian-tee/optee_os/lib/libutils/ext/snprintk.c:290
     cec:	f893 9000 	ldrb.w	r9, [r3]
     cf0:	1c59      	adds	r1, r3, #1
     cf2:	910b      	str	r1, [sp, #44]	; 0x2c
/mnt/disk/raspbian-tee/optee_os/lib/libutils/ext/snprintk.c:291
     cf4:	f1b9 0f63 	cmp.w	r9, #99	; 0x63
     cf8:	f000 8163 	beq.w	fc2 <__vsnprintf+0x35e>
     cfc:	f300 8095 	bgt.w	e2a <__vsnprintf+0x1c6>
     d00:	f1b9 0f30 	cmp.w	r9, #48	; 0x30
     d04:	f000 8147 	beq.w	f96 <__vsnprintf+0x332>
     d08:	dc26      	bgt.n	d58 <__vsnprintf+0xf4>
     d0a:	f1b9 0f2a 	cmp.w	r9, #42	; 0x2a
     d0e:	f000 8119 	beq.w	f44 <__vsnprintf+0x2e0>
     d12:	dc13      	bgt.n	d3c <__vsnprintf+0xd8>
     d14:	f1b9 0f20 	cmp.w	r9, #32
     d18:	f000 810a 	beq.w	f30 <__vsnprintf+0x2cc>
     d1c:	f1b9 0f23 	cmp.w	r9, #35	; 0x23
     d20:	f000 810d 	beq.w	f3e <__vsnprintf+0x2da>
/mnt/disk/raspbian-tee/optee_os/lib/libutils/ext/snprintk.c:541
     d24:	f1b9 0f00 	cmp.w	r9, #0
     d28:	d0b2      	beq.n	c90 <__vsnprintf+0x2c>
/mnt/disk/raspbian-tee/optee_os/lib/libutils/ext/snprintk.c:545
     d2a:	ab1e      	add	r3, sp, #120	; 0x78
     d2c:	4617      	mov	r7, r2
/mnt/disk/raspbian-tee/optee_os/lib/libutils/ext/snprintk.c:546
     d2e:	f04f 0b01 	mov.w	fp, #1
/mnt/disk/raspbian-tee/optee_os/lib/libutils/ext/snprintk.c:545
     d32:	f803 9d28 	strb.w	r9, [r3, #-40]!
     d36:	e0c0      	b.n	eba <__vsnprintf+0x256>
/mnt/disk/raspbian-tee/optee_os/lib/libutils/ext/snprintk.c:311
     d38:	461a      	mov	r2, r3
     d3a:	e00b      	b.n	d54 <__vsnprintf+0xf0>
/mnt/disk/raspbian-tee/optee_os/lib/libutils/ext/snprintk.c:291
     d3c:	f1b9 0f2d 	cmp.w	r9, #45	; 0x2d
     d40:	f000 8109 	beq.w	f56 <__vsnprintf+0x2f2>
     d44:	f1b9 0f2e 	cmp.w	r9, #46	; 0x2e
     d48:	f000 8108 	beq.w	f5c <__vsnprintf+0x2f8>
     d4c:	f1b9 0f2b 	cmp.w	r9, #43	; 0x2b
     d50:	d1e8      	bne.n	d24 <__vsnprintf+0xc0>
/mnt/disk/raspbian-tee/optee_os/lib/libutils/ext/snprintk.c:319
     d52:	46ca      	mov	sl, r9
/mnt/disk/raspbian-tee/optee_os/lib/libutils/ext/snprintk.c:322
     d54:	9b0b      	ldr	r3, [sp, #44]	; 0x2c
     d56:	e7c9      	b.n	cec <__vsnprintf+0x88>
/mnt/disk/raspbian-tee/optee_os/lib/libutils/ext/snprintk.c:291
     d58:	f1b9 0f44 	cmp.w	r9, #68	; 0x44
     d5c:	f000 818a 	beq.w	1074 <__vsnprintf+0x410>
     d60:	dc14      	bgt.n	d8c <__vsnprintf+0x128>
     d62:	f1b9 0f39 	cmp.w	r9, #57	; 0x39
     d66:	dcdd      	bgt.n	d24 <__vsnprintf+0xc0>
     d68:	2300      	movs	r3, #0
     d6a:	930d      	str	r3, [sp, #52]	; 0x34
/mnt/disk/raspbian-tee/optee_os/lib/libutils/ext/snprintk.c:346
     d6c:	9b0d      	ldr	r3, [sp, #52]	; 0x34
     d6e:	f1a9 0930 	sub.w	r9, r9, #48	; 0x30
     d72:	210a      	movs	r1, #10
     d74:	fb01 9303 	mla	r3, r1, r3, r9
     d78:	930d      	str	r3, [sp, #52]	; 0x34
/mnt/disk/raspbian-tee/optee_os/lib/libutils/ext/snprintk.c:347
     d7a:	9b0b      	ldr	r3, [sp, #44]	; 0x2c
     d7c:	f813 9b01 	ldrb.w	r9, [r3], #1
     d80:	930b      	str	r3, [sp, #44]	; 0x2c
/mnt/disk/raspbian-tee/optee_os/lib/libutils/ext/snprintk.c:348
     d82:	f1a9 0330 	sub.w	r3, r9, #48	; 0x30
     d86:	2b09      	cmp	r3, #9
     d88:	d9f0      	bls.n	d6c <__vsnprintf+0x108>
     d8a:	e7b3      	b.n	cf4 <__vsnprintf+0x90>
/mnt/disk/raspbian-tee/optee_os/lib/libutils/ext/snprintk.c:291
     d8c:	f1b9 0f55 	cmp.w	r9, #85	; 0x55
     d90:	f000 823d 	beq.w	120e <__vsnprintf+0x5aa>
     d94:	f1b9 0f58 	cmp.w	r9, #88	; 0x58
     d98:	f000 80ab 	beq.w	ef2 <__vsnprintf+0x28e>
     d9c:	f1b9 0f4f 	cmp.w	r9, #79	; 0x4f
     da0:	d1c0      	bne.n	d24 <__vsnprintf+0xc0>
/mnt/disk/raspbian-tee/optee_os/lib/libutils/ext/snprintk.c:408
     da2:	f046 0610 	orr.w	r6, r6, #16
/mnt/disk/raspbian-tee/optee_os/lib/libutils/ext/snprintk.c:411
     da6:	0635      	lsls	r5, r6, #24
     da8:	f140 81c0 	bpl.w	112c <__vsnprintf+0x4c8>
     dac:	3207      	adds	r2, #7
     dae:	f022 0207 	bic.w	r2, r2, #7
     db2:	f102 0708 	add.w	r7, r2, #8
     db6:	e9d2 4500 	ldrd	r4, r5, [r2]
/mnt/disk/raspbian-tee/optee_os/lib/libutils/ext/snprintk.c:488
     dba:	f04f 0a00 	mov.w	sl, #0
     dbe:	f1bb 3fff 	cmp.w	fp, #4294967295	; 0xffffffff
     dc2:	d011      	beq.n	de8 <__vsnprintf+0x184>
     dc4:	4653      	mov	r3, sl
/mnt/disk/raspbian-tee/optee_os/lib/libutils/ext/snprintk.c:489
     dc6:	f426 6680 	bic.w	r6, r6, #1024	; 0x400
/mnt/disk/raspbian-tee/optee_os/lib/libutils/ext/snprintk.c:497
     dca:	ea54 0205 	orrs.w	r2, r4, r5
     dce:	d105      	bne.n	ddc <__vsnprintf+0x178>
     dd0:	f1bb 0f00 	cmp.w	fp, #0
     dd4:	f000 8269 	beq.w	12aa <__vsnprintf+0x646>
     dd8:	2400      	movs	r4, #0
     dda:	2500      	movs	r5, #0
/mnt/disk/raspbian-tee/optee_os/lib/libutils/ext/snprintk.c:503
     ddc:	2b01      	cmp	r3, #1
     dde:	f000 8161 	beq.w	10a4 <__vsnprintf+0x440>
     de2:	2b02      	cmp	r3, #2
     de4:	f000 81f8 	beq.w	11d8 <__vsnprintf+0x574>
/mnt/disk/raspbian-tee/optee_os/lib/libutils/ext/snprintk.c:488
     de8:	f10d 0275 	add.w	r2, sp, #117	; 0x75
/mnt/disk/raspbian-tee/optee_os/lib/libutils/ext/snprintk.c:507
     dec:	08e0      	lsrs	r0, r4, #3
     dee:	ea4f 0cd5 	mov.w	ip, r5, lsr #3
     df2:	ea40 7045 	orr.w	r0, r0, r5, lsl #29
/mnt/disk/raspbian-tee/optee_os/lib/libutils/ext/snprintk.c:506
     df6:	f004 0107 	and.w	r1, r4, #7
/mnt/disk/raspbian-tee/optee_os/lib/libutils/ext/snprintk.c:507
     dfa:	4665      	mov	r5, ip
     dfc:	4604      	mov	r4, r0
/mnt/disk/raspbian-tee/optee_os/lib/libutils/ext/snprintk.c:506
     dfe:	3130      	adds	r1, #48	; 0x30
     e00:	1e53      	subs	r3, r2, #1
     e02:	f802 1c01 	strb.w	r1, [r2, #-1]
/mnt/disk/raspbian-tee/optee_os/lib/libutils/ext/snprintk.c:508
     e06:	ea54 0005 	orrs.w	r0, r4, r5
     e0a:	f040 8239 	bne.w	1280 <__vsnprintf+0x61c>
/mnt/disk/raspbian-tee/optee_os/lib/libutils/ext/snprintk.c:510
     e0e:	07f5      	lsls	r5, r6, #31
     e10:	d505      	bpl.n	e1e <__vsnprintf+0x1ba>
     e12:	2930      	cmp	r1, #48	; 0x30
     e14:	d003      	beq.n	e1e <__vsnprintf+0x1ba>
/mnt/disk/raspbian-tee/optee_os/lib/libutils/ext/snprintk.c:511
     e16:	2130      	movs	r1, #48	; 0x30
     e18:	f803 1c01 	strb.w	r1, [r3, #-1]
     e1c:	1e93      	subs	r3, r2, #2
/mnt/disk/raspbian-tee/optee_os/lib/libutils/ext/snprintk.c:537
     e1e:	f10d 0275 	add.w	r2, sp, #117	; 0x75
     e22:	4658      	mov	r0, fp
     e24:	eba2 0b03 	sub.w	fp, r2, r3
     e28:	e0d5      	b.n	fd6 <__vsnprintf+0x372>
/mnt/disk/raspbian-tee/optee_os/lib/libutils/ext/snprintk.c:291
     e2a:	f1b9 0f6f 	cmp.w	r9, #111	; 0x6f
     e2e:	d0ba      	beq.n	da6 <__vsnprintf+0x142>
     e30:	dc1e      	bgt.n	e70 <__vsnprintf+0x20c>
     e32:	f1b9 0f69 	cmp.w	r9, #105	; 0x69
     e36:	f000 811f 	beq.w	1078 <__vsnprintf+0x414>
     e3a:	dc0a      	bgt.n	e52 <__vsnprintf+0x1ee>
     e3c:	f1b9 0f64 	cmp.w	r9, #100	; 0x64
     e40:	f000 811a 	beq.w	1078 <__vsnprintf+0x414>
     e44:	f1b9 0f68 	cmp.w	r9, #104	; 0x68
     e48:	f47f af6c 	bne.w	d24 <__vsnprintf+0xc0>
/mnt/disk/raspbian-tee/optee_os/lib/libutils/ext/snprintk.c:352
     e4c:	f046 0640 	orr.w	r6, r6, #64	; 0x40
     e50:	e780      	b.n	d54 <__vsnprintf+0xf0>
/mnt/disk/raspbian-tee/optee_os/lib/libutils/ext/snprintk.c:291
     e52:	f1b9 0f6c 	cmp.w	r9, #108	; 0x6c
     e56:	f000 80a1 	beq.w	f9c <__vsnprintf+0x338>
     e5a:	f1b9 0f6e 	cmp.w	r9, #110	; 0x6e
     e5e:	f000 8146 	beq.w	10ee <__vsnprintf+0x48a>
     e62:	f1b9 0f6a 	cmp.w	r9, #106	; 0x6a
     e66:	f47f af5d 	bne.w	d24 <__vsnprintf+0xc0>
/mnt/disk/raspbian-tee/optee_os/lib/libutils/ext/snprintk.c:355
     e6a:	f046 0680 	orr.w	r6, r6, #128	; 0x80
     e6e:	e771      	b.n	d54 <__vsnprintf+0xf0>
/mnt/disk/raspbian-tee/optee_os/lib/libutils/ext/snprintk.c:291
     e70:	f1b9 0f74 	cmp.w	r9, #116	; 0x74
     e74:	f000 809f 	beq.w	fb6 <__vsnprintf+0x352>
     e78:	dc22      	bgt.n	ec0 <__vsnprintf+0x25c>
     e7a:	f1b9 0f71 	cmp.w	r9, #113	; 0x71
     e7e:	f000 8094 	beq.w	faa <__vsnprintf+0x346>
     e82:	f2c0 8167 	blt.w	1154 <__vsnprintf+0x4f0>
     e86:	f1b9 0f73 	cmp.w	r9, #115	; 0x73
     e8a:	f47f af4b 	bne.w	d24 <__vsnprintf+0xc0>
/mnt/disk/raspbian-tee/optee_os/lib/libutils/ext/snprintk.c:442
     e8e:	6813      	ldr	r3, [r2, #0]
     e90:	1d17      	adds	r7, r2, #4
     e92:	b913      	cbnz	r3, e9a <__vsnprintf+0x236>
/mnt/disk/raspbian-tee/optee_os/lib/libutils/ext/snprintk.c:444
     e94:	f8df 34ec 	ldr.w	r3, [pc, #1260]	; 1384 <__vsnprintf+0x720>
     e98:	447b      	add	r3, pc
/mnt/disk/raspbian-tee/optee_os/lib/libutils/ext/snprintk.c:445
     e9a:	f1bb 3fff 	cmp.w	fp, #4294967295	; 0xffffffff
     e9e:	f000 81ad 	beq.w	11fc <__vsnprintf+0x598>
/mnt/disk/raspbian-tee/optee_os/lib/libutils/ext/snprintk.c:451
     ea2:	4618      	mov	r0, r3
     ea4:	465a      	mov	r2, fp
     ea6:	2100      	movs	r1, #0
     ea8:	9311      	str	r3, [sp, #68]	; 0x44
     eaa:	f005 fc11 	bl	66d0 <memchr>
/mnt/disk/raspbian-tee/optee_os/lib/libutils/ext/snprintk.c:453
     eae:	9b11      	ldr	r3, [sp, #68]	; 0x44
     eb0:	b120      	cbz	r0, ebc <__vsnprintf+0x258>
/mnt/disk/raspbian-tee/optee_os/lib/libutils/ext/snprintk.c:454
     eb2:	1ac0      	subs	r0, r0, r3
     eb4:	4583      	cmp	fp, r0
     eb6:	bfa8      	it	ge
     eb8:	4683      	movge	fp, r0
/mnt/disk/raspbian-tee/optee_os/lib/libutils/ext/snprintk.c:285
     eba:	2000      	movs	r0, #0
/mnt/disk/raspbian-tee/optee_os/lib/libutils/ext/snprintk.c:461
     ebc:	4682      	mov	sl, r0
     ebe:	e08a      	b.n	fd6 <__vsnprintf+0x372>
/mnt/disk/raspbian-tee/optee_os/lib/libutils/ext/snprintk.c:291
     ec0:	f1b9 0f78 	cmp.w	r9, #120	; 0x78
     ec4:	f000 81c2 	beq.w	124c <__vsnprintf+0x5e8>
     ec8:	f1b9 0f7a 	cmp.w	r9, #122	; 0x7a
     ecc:	d076      	beq.n	fbc <__vsnprintf+0x358>
     ece:	f1b9 0f75 	cmp.w	r9, #117	; 0x75
     ed2:	f47f af27 	bne.w	d24 <__vsnprintf+0xc0>
/mnt/disk/raspbian-tee/optee_os/lib/libutils/ext/snprintk.c:467
     ed6:	f016 0380 	ands.w	r3, r6, #128	; 0x80
     eda:	f000 819b 	beq.w	1214 <__vsnprintf+0x5b0>
     ede:	3207      	adds	r2, #7
     ee0:	f022 0207 	bic.w	r2, r2, #7
     ee4:	f102 0708 	add.w	r7, r2, #8
     ee8:	e9d2 4500 	ldrd	r4, r5, [r2]
/mnt/disk/raspbian-tee/optee_os/lib/libutils/ext/snprintk.c:482
     eec:	f04f 0a00 	mov.w	sl, #0
     ef0:	e0d4      	b.n	109c <__vsnprintf+0x438>
/mnt/disk/raspbian-tee/optee_os/lib/libutils/ext/snprintk.c:471
     ef2:	f8df 3494 	ldr.w	r3, [pc, #1172]	; 1388 <__vsnprintf+0x724>
     ef6:	447b      	add	r3, pc
/mnt/disk/raspbian-tee/optee_os/lib/libutils/ext/snprintk.c:474
     ef8:	930f      	str	r3, [sp, #60]	; 0x3c
/mnt/disk/raspbian-tee/optee_os/lib/libutils/ext/snprintk.c:475
     efa:	0637      	lsls	r7, r6, #24
     efc:	f140 81aa 	bpl.w	1254 <__vsnprintf+0x5f0>
     f00:	3207      	adds	r2, #7
     f02:	f022 0207 	bic.w	r2, r2, #7
     f06:	f102 0708 	add.w	r7, r2, #8
     f0a:	e9d2 4500 	ldrd	r4, r5, [r2]
/mnt/disk/raspbian-tee/optee_os/lib/libutils/ext/snprintk.c:478
     f0e:	07f3      	lsls	r3, r6, #31
     f10:	f140 815c 	bpl.w	11cc <__vsnprintf+0x568>
     f14:	ea54 0305 	orrs.w	r3, r4, r5
     f18:	f000 822d 	beq.w	1376 <__vsnprintf+0x712>
/mnt/disk/raspbian-tee/optee_os/lib/libutils/ext/snprintk.c:479
     f1c:	f046 0602 	orr.w	r6, r6, #2
/mnt/disk/raspbian-tee/optee_os/lib/libutils/ext/snprintk.c:488
     f20:	f1bb 3fff 	cmp.w	fp, #4294967295	; 0xffffffff
     f24:	f000 822a 	beq.w	137c <__vsnprintf+0x718>
     f28:	f04f 0a00 	mov.w	sl, #0
     f2c:	2302      	movs	r3, #2
     f2e:	e74a      	b.n	dc6 <__vsnprintf+0x162>
/mnt/disk/raspbian-tee/optee_os/lib/libutils/ext/snprintk.c:299
     f30:	f1ba 0f00 	cmp.w	sl, #0
     f34:	f04f 0320 	mov.w	r3, #32
     f38:	bf08      	it	eq
     f3a:	469a      	moveq	sl, r3
     f3c:	e70a      	b.n	d54 <__vsnprintf+0xf0>
/mnt/disk/raspbian-tee/optee_os/lib/libutils/ext/snprintk.c:302
     f3e:	f046 0601 	orr.w	r6, r6, #1
     f42:	e707      	b.n	d54 <__vsnprintf+0xf0>
/mnt/disk/raspbian-tee/optee_os/lib/libutils/ext/snprintk.c:311
     f44:	1d13      	adds	r3, r2, #4
     f46:	6812      	ldr	r2, [r2, #0]
     f48:	920d      	str	r2, [sp, #52]	; 0x34
     f4a:	2a00      	cmp	r2, #0
     f4c:	f6bf aef4 	bge.w	d38 <__vsnprintf+0xd4>
/mnt/disk/raspbian-tee/optee_os/lib/libutils/ext/snprintk.c:313
     f50:	4252      	negs	r2, r2
     f52:	920d      	str	r2, [sp, #52]	; 0x34
/mnt/disk/raspbian-tee/optee_os/lib/libutils/ext/snprintk.c:311
     f54:	461a      	mov	r2, r3
/mnt/disk/raspbian-tee/optee_os/lib/libutils/ext/snprintk.c:316
     f56:	f046 0604 	orr.w	r6, r6, #4
     f5a:	e6fb      	b.n	d54 <__vsnprintf+0xf0>
/mnt/disk/raspbian-tee/optee_os/lib/libutils/ext/snprintk.c:322
     f5c:	990b      	ldr	r1, [sp, #44]	; 0x2c
     f5e:	9b0b      	ldr	r3, [sp, #44]	; 0x2c
     f60:	f891 9000 	ldrb.w	r9, [r1]
     f64:	3301      	adds	r3, #1
     f66:	f1b9 0f2a 	cmp.w	r9, #42	; 0x2a
     f6a:	d00e      	beq.n	f8a <__vsnprintf+0x326>
     f6c:	f04f 0b00 	mov.w	fp, #0
/mnt/disk/raspbian-tee/optee_os/lib/libutils/ext/snprintk.c:330
     f70:	930b      	str	r3, [sp, #44]	; 0x2c
/mnt/disk/raspbian-tee/optee_os/lib/libutils/ext/snprintk.c:328
     f72:	f1a9 0330 	sub.w	r3, r9, #48	; 0x30
     f76:	2b09      	cmp	r3, #9
     f78:	f63f aebc 	bhi.w	cf4 <__vsnprintf+0x90>
/mnt/disk/raspbian-tee/optee_os/lib/libutils/ext/snprintk.c:329
     f7c:	210a      	movs	r1, #10
     f7e:	fb01 3b0b 	mla	fp, r1, fp, r3
/mnt/disk/raspbian-tee/optee_os/lib/libutils/ext/snprintk.c:330
     f82:	9b0b      	ldr	r3, [sp, #44]	; 0x2c
     f84:	f813 9b01 	ldrb.w	r9, [r3], #1
     f88:	e7f2      	b.n	f70 <__vsnprintf+0x30c>
/mnt/disk/raspbian-tee/optee_os/lib/libutils/ext/snprintk.c:324
     f8a:	6811      	ldr	r1, [r2, #0]
/mnt/disk/raspbian-tee/optee_os/lib/libutils/ext/snprintk.c:323
     f8c:	3204      	adds	r2, #4
/mnt/disk/raspbian-tee/optee_os/lib/libutils/ext/snprintk.c:322
     f8e:	930b      	str	r3, [sp, #44]	; 0x2c
/mnt/disk/raspbian-tee/optee_os/lib/libutils/ext/snprintk.c:324
     f90:	ea41 7be1 	orr.w	fp, r1, r1, asr #31
     f94:	e6de      	b.n	d54 <__vsnprintf+0xf0>
/mnt/disk/raspbian-tee/optee_os/lib/libutils/ext/snprintk.c:340
     f96:	f446 6680 	orr.w	r6, r6, #1024	; 0x400
     f9a:	e6db      	b.n	d54 <__vsnprintf+0xf0>
/mnt/disk/raspbian-tee/optee_os/lib/libutils/ext/snprintk.c:358
     f9c:	9b0b      	ldr	r3, [sp, #44]	; 0x2c
     f9e:	781b      	ldrb	r3, [r3, #0]
     fa0:	2b6c      	cmp	r3, #108	; 0x6c
     fa2:	d105      	bne.n	fb0 <__vsnprintf+0x34c>
/mnt/disk/raspbian-tee/optee_os/lib/libutils/ext/snprintk.c:359
     fa4:	9b0b      	ldr	r3, [sp, #44]	; 0x2c
     fa6:	3301      	adds	r3, #1
     fa8:	930b      	str	r3, [sp, #44]	; 0x2c
/mnt/disk/raspbian-tee/optee_os/lib/libutils/ext/snprintk.c:366
     faa:	f046 0620 	orr.w	r6, r6, #32
     fae:	e6d1      	b.n	d54 <__vsnprintf+0xf0>
/mnt/disk/raspbian-tee/optee_os/lib/libutils/ext/snprintk.c:362
     fb0:	f046 0610 	orr.w	r6, r6, #16
     fb4:	e6ce      	b.n	d54 <__vsnprintf+0xf0>
/mnt/disk/raspbian-tee/optee_os/lib/libutils/ext/snprintk.c:369
     fb6:	f446 7680 	orr.w	r6, r6, #256	; 0x100
     fba:	e6cb      	b.n	d54 <__vsnprintf+0xf0>
/mnt/disk/raspbian-tee/optee_os/lib/libutils/ext/snprintk.c:372
     fbc:	f446 7600 	orr.w	r6, r6, #512	; 0x200
     fc0:	e6c8      	b.n	d54 <__vsnprintf+0xf0>
/mnt/disk/raspbian-tee/optee_os/lib/libutils/ext/snprintk.c:375
     fc2:	ab1e      	add	r3, sp, #120	; 0x78
/mnt/disk/raspbian-tee/optee_os/lib/libutils/ext/snprintk.c:285
     fc4:	f04f 0a00 	mov.w	sl, #0
/mnt/disk/raspbian-tee/optee_os/lib/libutils/ext/snprintk.c:375
     fc8:	1d17      	adds	r7, r2, #4
/mnt/disk/raspbian-tee/optee_os/lib/libutils/ext/snprintk.c:376
     fca:	f04f 0b01 	mov.w	fp, #1
/mnt/disk/raspbian-tee/optee_os/lib/libutils/ext/snprintk.c:375
     fce:	6812      	ldr	r2, [r2, #0]
/mnt/disk/raspbian-tee/optee_os/lib/libutils/ext/snprintk.c:377
     fd0:	4650      	mov	r0, sl
/mnt/disk/raspbian-tee/optee_os/lib/libutils/ext/snprintk.c:375
     fd2:	f803 2d28 	strb.w	r2, [r3, #-40]!
/mnt/disk/raspbian-tee/optee_os/lib/libutils/ext/snprintk.c:565
     fd6:	4558      	cmp	r0, fp
     fd8:	4602      	mov	r2, r0
     fda:	bfb8      	it	lt
     fdc:	465a      	movlt	r2, fp
/mnt/disk/raspbian-tee/optee_os/lib/libutils/ext/snprintk.c:566
     fde:	f1ba 0f00 	cmp.w	sl, #0
     fe2:	f000 8165 	beq.w	12b0 <__vsnprintf+0x64c>
/mnt/disk/raspbian-tee/optee_os/lib/libutils/ext/snprintk.c:567
     fe6:	3201      	adds	r2, #1
/mnt/disk/raspbian-tee/optee_os/lib/libutils/ext/snprintk.c:572
     fe8:	990d      	ldr	r1, [sp, #52]	; 0x34
     fea:	9c0c      	ldr	r4, [sp, #48]	; 0x30
     fec:	4291      	cmp	r1, r2
     fee:	bfb8      	it	lt
     ff0:	4611      	movlt	r1, r2
     ff2:	440c      	add	r4, r1
/mnt/disk/raspbian-tee/optee_os/lib/libutils/ext/snprintk.c:575
     ff4:	f240 4104 	movw	r1, #1028	; 0x404
/mnt/disk/raspbian-tee/optee_os/lib/libutils/ext/snprintk.c:572
     ff8:	940c      	str	r4, [sp, #48]	; 0x30
/mnt/disk/raspbian-tee/optee_os/lib/libutils/ext/snprintk.c:575
     ffa:	ea16 0401 	ands.w	r4, r6, r1
     ffe:	d106      	bne.n	100e <__vsnprintf+0x3aa>
/mnt/disk/raspbian-tee/optee_os/lib/libutils/ext/snprintk.c:576
    1000:	990d      	ldr	r1, [sp, #52]	; 0x34
/mnt/disk/raspbian-tee/optee_os/lib/libutils/ext/snprintk.c:578
    1002:	f04f 0c20 	mov.w	ip, #32
/mnt/disk/raspbian-tee/optee_os/lib/libutils/ext/snprintk.c:576
    1006:	1a89      	subs	r1, r1, r2
/mnt/disk/raspbian-tee/optee_os/lib/libutils/ext/snprintk.c:577
    1008:	2900      	cmp	r1, #0
    100a:	f300 8155 	bgt.w	12b8 <__vsnprintf+0x654>
/mnt/disk/raspbian-tee/optee_os/lib/libutils/ext/snprintk.c:582
    100e:	f1ba 0f00 	cmp.w	sl, #0
    1012:	f000 8166 	beq.w	12e2 <__vsnprintf+0x67e>
/mnt/disk/raspbian-tee/optee_os/lib/libutils/ext/snprintk.c:583
    1016:	f1b8 0f00 	cmp.w	r8, #0
    101a:	f040 8159 	bne.w	12d0 <__vsnprintf+0x66c>
/mnt/disk/raspbian-tee/optee_os/lib/libutils/ext/snprintk.c:586
    101e:	f04f 0800 	mov.w	r8, #0
/mnt/disk/raspbian-tee/optee_os/lib/libutils/ext/snprintk.c:590
    1022:	f5b4 6f80 	cmp.w	r4, #1024	; 0x400
    1026:	d105      	bne.n	1034 <__vsnprintf+0x3d0>
/mnt/disk/raspbian-tee/optee_os/lib/libutils/ext/snprintk.c:591
    1028:	990d      	ldr	r1, [sp, #52]	; 0x34
/mnt/disk/raspbian-tee/optee_os/lib/libutils/ext/snprintk.c:593
    102a:	2430      	movs	r4, #48	; 0x30
/mnt/disk/raspbian-tee/optee_os/lib/libutils/ext/snprintk.c:591
    102c:	1a89      	subs	r1, r1, r2
/mnt/disk/raspbian-tee/optee_os/lib/libutils/ext/snprintk.c:592
    102e:	2900      	cmp	r1, #0
    1030:	f300 8173 	bgt.w	131a <__vsnprintf+0x6b6>
/mnt/disk/raspbian-tee/optee_os/lib/libutils/ext/snprintk.c:597
    1034:	eba0 000b 	sub.w	r0, r0, fp
/mnt/disk/raspbian-tee/optee_os/lib/libutils/ext/snprintk.c:599
    1038:	2130      	movs	r1, #48	; 0x30
/mnt/disk/raspbian-tee/optee_os/lib/libutils/ext/snprintk.c:598
    103a:	2800      	cmp	r0, #0
    103c:	f300 8179 	bgt.w	1332 <__vsnprintf+0x6ce>
    1040:	eb03 010b 	add.w	r1, r3, fp
/mnt/disk/raspbian-tee/optee_os/lib/libutils/ext/snprintk.c:602
    1044:	428b      	cmp	r3, r1
    1046:	f040 8180 	bne.w	134a <__vsnprintf+0x6e6>
/mnt/disk/raspbian-tee/optee_os/lib/libutils/ext/snprintk.c:605
    104a:	0773      	lsls	r3, r6, #29
    104c:	f57f ae1b 	bpl.w	c86 <__vsnprintf+0x22>
/mnt/disk/raspbian-tee/optee_os/lib/libutils/ext/snprintk.c:606
    1050:	9b0d      	ldr	r3, [sp, #52]	; 0x34
    1052:	1a9b      	subs	r3, r3, r2
/mnt/disk/raspbian-tee/optee_os/lib/libutils/ext/snprintk.c:608
    1054:	2220      	movs	r2, #32
/mnt/disk/raspbian-tee/optee_os/lib/libutils/ext/snprintk.c:607
    1056:	2b00      	cmp	r3, #0
    1058:	f77f ae15 	ble.w	c86 <__vsnprintf+0x22>
/mnt/disk/raspbian-tee/optee_os/lib/libutils/ext/snprintk.c:608
    105c:	f1b8 0f00 	cmp.w	r8, #0
    1060:	d006      	beq.n	1070 <__vsnprintf+0x40c>
    1062:	990e      	ldr	r1, [sp, #56]	; 0x38
    1064:	4541      	cmp	r1, r8
    1066:	d903      	bls.n	1070 <__vsnprintf+0x40c>
    1068:	f888 2000 	strb.w	r2, [r8]
    106c:	f108 0801 	add.w	r8, r8, #1
    1070:	3b01      	subs	r3, #1
    1072:	e7f0      	b.n	1056 <__vsnprintf+0x3f2>
/mnt/disk/raspbian-tee/optee_os/lib/libutils/ext/snprintk.c:380
    1074:	f046 0610 	orr.w	r6, r6, #16
/mnt/disk/raspbian-tee/optee_os/lib/libutils/ext/snprintk.c:384
    1078:	0631      	lsls	r1, r6, #24
    107a:	d523      	bpl.n	10c4 <__vsnprintf+0x460>
    107c:	3207      	adds	r2, #7
    107e:	f022 0207 	bic.w	r2, r2, #7
    1082:	f102 0708 	add.w	r7, r2, #8
    1086:	e9d2 4500 	ldrd	r4, r5, [r2]
/mnt/disk/raspbian-tee/optee_os/lib/libutils/ext/snprintk.c:385
    108a:	2c00      	cmp	r4, #0
    108c:	f175 0300 	sbcs.w	r3, r5, #0
    1090:	da04      	bge.n	109c <__vsnprintf+0x438>
/mnt/disk/raspbian-tee/optee_os/lib/libutils/ext/snprintk.c:386
    1092:	4264      	negs	r4, r4
/mnt/disk/raspbian-tee/optee_os/lib/libutils/ext/snprintk.c:387
    1094:	f04f 0a2d 	mov.w	sl, #45	; 0x2d
/mnt/disk/raspbian-tee/optee_os/lib/libutils/ext/snprintk.c:386
    1098:	eb65 0545 	sbc.w	r5, r5, r5, lsl #1
/mnt/disk/raspbian-tee/optee_os/lib/libutils/ext/snprintk.c:488
    109c:	f1bb 3fff 	cmp.w	fp, #4294967295	; 0xffffffff
    10a0:	f040 80ec 	bne.w	127c <__vsnprintf+0x618>
/mnt/disk/raspbian-tee/optee_os/lib/libutils/ext/snprintk.c:508
    10a4:	f10d 0375 	add.w	r3, sp, #117	; 0x75
    10a8:	9311      	str	r3, [sp, #68]	; 0x44
    10aa:	9b11      	ldr	r3, [sp, #68]	; 0x44
/mnt/disk/raspbian-tee/optee_os/lib/libutils/ext/snprintk.c:516
    10ac:	2d00      	cmp	r5, #0
    10ae:	bf08      	it	eq
    10b0:	2c0a      	cmpeq	r4, #10
    10b2:	f103 33ff 	add.w	r3, r3, #4294967295	; 0xffffffff
    10b6:	f080 80e5 	bcs.w	1284 <__vsnprintf+0x620>
/mnt/disk/raspbian-tee/optee_os/lib/libutils/ext/snprintk.c:520
    10ba:	9a11      	ldr	r2, [sp, #68]	; 0x44
    10bc:	3430      	adds	r4, #48	; 0x30
    10be:	f802 4c01 	strb.w	r4, [r2, #-1]
    10c2:	e6ac      	b.n	e1e <__vsnprintf+0x1ba>
/mnt/disk/raspbian-tee/optee_os/lib/libutils/ext/snprintk.c:384
    10c4:	05f3      	lsls	r3, r6, #23
    10c6:	d503      	bpl.n	10d0 <__vsnprintf+0x46c>
    10c8:	1d17      	adds	r7, r2, #4
    10ca:	6814      	ldr	r4, [r2, #0]
    10cc:	17e5      	asrs	r5, r4, #31
    10ce:	e7dc      	b.n	108a <__vsnprintf+0x426>
    10d0:	05b7      	lsls	r7, r6, #22
    10d2:	d4f9      	bmi.n	10c8 <__vsnprintf+0x464>
    10d4:	06b5      	lsls	r5, r6, #26
    10d6:	d4d1      	bmi.n	107c <__vsnprintf+0x418>
    10d8:	f016 0f10 	tst.w	r6, #16
    10dc:	f102 0704 	add.w	r7, r2, #4
    10e0:	d1f3      	bne.n	10ca <__vsnprintf+0x466>
    10e2:	f016 0f40 	tst.w	r6, #64	; 0x40
    10e6:	6814      	ldr	r4, [r2, #0]
    10e8:	d0f0      	beq.n	10cc <__vsnprintf+0x468>
    10ea:	b224      	sxth	r4, r4
    10ec:	e7ee      	b.n	10cc <__vsnprintf+0x468>
/mnt/disk/raspbian-tee/optee_os/lib/libutils/ext/snprintk.c:392
    10ee:	f016 0f80 	tst.w	r6, #128	; 0x80
    10f2:	f102 0704 	add.w	r7, r2, #4
    10f6:	d006      	beq.n	1106 <__vsnprintf+0x4a2>
/mnt/disk/raspbian-tee/optee_os/lib/libutils/ext/snprintk.c:399
    10f8:	6813      	ldr	r3, [r2, #0]
    10fa:	9a0c      	ldr	r2, [sp, #48]	; 0x30
    10fc:	4610      	mov	r0, r2
    10fe:	17d1      	asrs	r1, r2, #31
    1100:	e9c3 0100 	strd	r0, r1, [r3]
    1104:	e5bf      	b.n	c86 <__vsnprintf+0x22>
/mnt/disk/raspbian-tee/optee_os/lib/libutils/ext/snprintk.c:394
    1106:	05f4      	lsls	r4, r6, #23
    1108:	d503      	bpl.n	1112 <__vsnprintf+0x4ae>
/mnt/disk/raspbian-tee/optee_os/lib/libutils/ext/snprintk.c:405
    110a:	6813      	ldr	r3, [r2, #0]
    110c:	9a0c      	ldr	r2, [sp, #48]	; 0x30
    110e:	601a      	str	r2, [r3, #0]
    1110:	e5b9      	b.n	c86 <__vsnprintf+0x22>
/mnt/disk/raspbian-tee/optee_os/lib/libutils/ext/snprintk.c:396
    1112:	05b0      	lsls	r0, r6, #22
    1114:	d4f9      	bmi.n	110a <__vsnprintf+0x4a6>
/mnt/disk/raspbian-tee/optee_os/lib/libutils/ext/snprintk.c:398
    1116:	06b1      	lsls	r1, r6, #26
    1118:	d4ee      	bmi.n	10f8 <__vsnprintf+0x494>
/mnt/disk/raspbian-tee/optee_os/lib/libutils/ext/snprintk.c:400
    111a:	06f3      	lsls	r3, r6, #27
    111c:	d4f5      	bmi.n	110a <__vsnprintf+0x4a6>
/mnt/disk/raspbian-tee/optee_os/lib/libutils/ext/snprintk.c:402
    111e:	0676      	lsls	r6, r6, #25
    1120:	d5f3      	bpl.n	110a <__vsnprintf+0x4a6>
/mnt/disk/raspbian-tee/optee_os/lib/libutils/ext/snprintk.c:403
    1122:	6813      	ldr	r3, [r2, #0]
    1124:	f8bd 2030 	ldrh.w	r2, [sp, #48]	; 0x30
    1128:	801a      	strh	r2, [r3, #0]
    112a:	e5ac      	b.n	c86 <__vsnprintf+0x22>
/mnt/disk/raspbian-tee/optee_os/lib/libutils/ext/snprintk.c:411
    112c:	05f4      	lsls	r4, r6, #23
    112e:	d502      	bpl.n	1136 <__vsnprintf+0x4d2>
    1130:	1d17      	adds	r7, r2, #4
    1132:	6814      	ldr	r4, [r2, #0]
    1134:	e00c      	b.n	1150 <__vsnprintf+0x4ec>
    1136:	05b0      	lsls	r0, r6, #22
    1138:	d4fa      	bmi.n	1130 <__vsnprintf+0x4cc>
    113a:	06b1      	lsls	r1, r6, #26
    113c:	f53f ae36 	bmi.w	dac <__vsnprintf+0x148>
    1140:	f016 0f10 	tst.w	r6, #16
    1144:	f102 0704 	add.w	r7, r2, #4
    1148:	d1f3      	bne.n	1132 <__vsnprintf+0x4ce>
    114a:	0673      	lsls	r3, r6, #25
    114c:	d5f1      	bpl.n	1132 <__vsnprintf+0x4ce>
    114e:	8814      	ldrh	r4, [r2, #0]
    1150:	2500      	movs	r5, #0
    1152:	e632      	b.n	dba <__vsnprintf+0x156>
/mnt/disk/raspbian-tee/optee_os/lib/libutils/ext/snprintk.c:415
    1154:	9b13      	ldr	r3, [sp, #76]	; 0x4c
    1156:	2b00      	cmp	r3, #0
    1158:	d02d      	beq.n	11b6 <__vsnprintf+0x552>
    115a:	9b0b      	ldr	r3, [sp, #44]	; 0x2c
    115c:	781b      	ldrb	r3, [r3, #0]
    115e:	2b55      	cmp	r3, #85	; 0x55
    1160:	d129      	bne.n	11b6 <__vsnprintf+0x552>
    1162:	9b0b      	ldr	r3, [sp, #44]	; 0x2c
    1164:	785b      	ldrb	r3, [r3, #1]
    1166:	2b6c      	cmp	r3, #108	; 0x6c
    1168:	d125      	bne.n	11b6 <__vsnprintf+0x552>
/mnt/disk/raspbian-tee/optee_os/lib/libutils/ext/snprintk.c:420
    116a:	9b0b      	ldr	r3, [sp, #44]	; 0x2c
/mnt/disk/raspbian-tee/optee_os/lib/libutils/ext/snprintk.c:421
    116c:	1d17      	adds	r7, r2, #4
uuid2str():
/mnt/disk/raspbian-tee/optee_os/lib/libutils/ext/snprintk.c:223
    116e:	ac14      	add	r4, sp, #80	; 0x50
    1170:	2125      	movs	r1, #37	; 0x25
kprintf():
/mnt/disk/raspbian-tee/optee_os/lib/libutils/ext/snprintk.c:420
    1172:	3302      	adds	r3, #2
    1174:	930b      	str	r3, [sp, #44]	; 0x2c
/mnt/disk/raspbian-tee/optee_os/lib/libutils/ext/snprintk.c:421
    1176:	6813      	ldr	r3, [r2, #0]
uuid2str():
/mnt/disk/raspbian-tee/optee_os/lib/libutils/ext/snprintk.c:223
    1178:	4620      	mov	r0, r4
    117a:	7bda      	ldrb	r2, [r3, #15]
    117c:	9209      	str	r2, [sp, #36]	; 0x24
    117e:	7b9a      	ldrb	r2, [r3, #14]
    1180:	9208      	str	r2, [sp, #32]
    1182:	7b5a      	ldrb	r2, [r3, #13]
    1184:	9207      	str	r2, [sp, #28]
    1186:	7b1a      	ldrb	r2, [r3, #12]
    1188:	9206      	str	r2, [sp, #24]
    118a:	7ada      	ldrb	r2, [r3, #11]
    118c:	9205      	str	r2, [sp, #20]
    118e:	7a9a      	ldrb	r2, [r3, #10]
    1190:	9204      	str	r2, [sp, #16]
    1192:	7a5a      	ldrb	r2, [r3, #9]
    1194:	9203      	str	r2, [sp, #12]
    1196:	7a1a      	ldrb	r2, [r3, #8]
    1198:	9202      	str	r2, [sp, #8]
    119a:	88da      	ldrh	r2, [r3, #6]
    119c:	9201      	str	r2, [sp, #4]
    119e:	889a      	ldrh	r2, [r3, #4]
    11a0:	9200      	str	r2, [sp, #0]
    11a2:	4a7a      	ldr	r2, [pc, #488]	; (138c <__vsnprintf+0x728>)
    11a4:	681b      	ldr	r3, [r3, #0]
    11a6:	447a      	add	r2, pc
    11a8:	f000 f8fd 	bl	13a6 <snprintk>
    11ac:	4683      	mov	fp, r0
kprintf():
/mnt/disk/raspbian-tee/optee_os/lib/libutils/ext/snprintk.c:285
    11ae:	2000      	movs	r0, #0
/mnt/disk/raspbian-tee/optee_os/lib/libutils/ext/snprintk.c:423
    11b0:	4623      	mov	r3, r4
/mnt/disk/raspbian-tee/optee_os/lib/libutils/ext/snprintk.c:424
    11b2:	4682      	mov	sl, r0
    11b4:	e70f      	b.n	fd6 <__vsnprintf+0x372>
/mnt/disk/raspbian-tee/optee_os/lib/libutils/ext/snprintk.c:437
    11b6:	4b76      	ldr	r3, [pc, #472]	; (1390 <__vsnprintf+0x72c>)
/mnt/disk/raspbian-tee/optee_os/lib/libutils/ext/snprintk.c:435
    11b8:	1d17      	adds	r7, r2, #4
    11ba:	6814      	ldr	r4, [r2, #0]
    11bc:	2500      	movs	r5, #0
/mnt/disk/raspbian-tee/optee_os/lib/libutils/ext/snprintk.c:437
    11be:	447b      	add	r3, pc
/mnt/disk/raspbian-tee/optee_os/lib/libutils/ext/snprintk.c:438
    11c0:	f046 0602 	orr.w	r6, r6, #2
/mnt/disk/raspbian-tee/optee_os/lib/libutils/ext/snprintk.c:439
    11c4:	f04f 0978 	mov.w	r9, #120	; 0x78
/mnt/disk/raspbian-tee/optee_os/lib/libutils/ext/snprintk.c:437
    11c8:	3311      	adds	r3, #17
    11ca:	930f      	str	r3, [sp, #60]	; 0x3c
/mnt/disk/raspbian-tee/optee_os/lib/libutils/ext/snprintk.c:488
    11cc:	f1bb 3fff 	cmp.w	fp, #4294967295	; 0xffffffff
    11d0:	f47f aeaa 	bne.w	f28 <__vsnprintf+0x2c4>
    11d4:	f04f 0a00 	mov.w	sl, #0
    11d8:	f10d 0375 	add.w	r3, sp, #117	; 0x75
/mnt/disk/raspbian-tee/optee_os/lib/libutils/ext/snprintk.c:525
    11dc:	f004 020f 	and.w	r2, r4, #15
    11e0:	990f      	ldr	r1, [sp, #60]	; 0x3c
    11e2:	5c8a      	ldrb	r2, [r1, r2]
/mnt/disk/raspbian-tee/optee_os/lib/libutils/ext/snprintk.c:526
    11e4:	0929      	lsrs	r1, r5, #4
/mnt/disk/raspbian-tee/optee_os/lib/libutils/ext/snprintk.c:525
    11e6:	f803 2d01 	strb.w	r2, [r3, #-1]!
/mnt/disk/raspbian-tee/optee_os/lib/libutils/ext/snprintk.c:526
    11ea:	0922      	lsrs	r2, r4, #4
    11ec:	ea42 7205 	orr.w	r2, r2, r5, lsl #28
    11f0:	460d      	mov	r5, r1
    11f2:	4614      	mov	r4, r2
/mnt/disk/raspbian-tee/optee_os/lib/libutils/ext/snprintk.c:527
    11f4:	ea54 0205 	orrs.w	r2, r4, r5
    11f8:	d1f0      	bne.n	11dc <__vsnprintf+0x578>
    11fa:	e610      	b.n	e1e <__vsnprintf+0x1ba>
/mnt/disk/raspbian-tee/optee_os/lib/libutils/ext/snprintk.c:460
    11fc:	4618      	mov	r0, r3
    11fe:	9311      	str	r3, [sp, #68]	; 0x44
    1200:	f005 fa5b 	bl	66ba <strlen>
    1204:	4683      	mov	fp, r0
/mnt/disk/raspbian-tee/optee_os/lib/libutils/ext/snprintk.c:285
    1206:	2000      	movs	r0, #0
    1208:	9b11      	ldr	r3, [sp, #68]	; 0x44
/mnt/disk/raspbian-tee/optee_os/lib/libutils/ext/snprintk.c:461
    120a:	4682      	mov	sl, r0
    120c:	e6e3      	b.n	fd6 <__vsnprintf+0x372>
/mnt/disk/raspbian-tee/optee_os/lib/libutils/ext/snprintk.c:464
    120e:	f046 0610 	orr.w	r6, r6, #16
    1212:	e660      	b.n	ed6 <__vsnprintf+0x272>
/mnt/disk/raspbian-tee/optee_os/lib/libutils/ext/snprintk.c:467
    1214:	f416 7a80 	ands.w	sl, r6, #256	; 0x100
    1218:	d003      	beq.n	1222 <__vsnprintf+0x5be>
    121a:	6814      	ldr	r4, [r2, #0]
    121c:	1d17      	adds	r7, r2, #4
    121e:	2500      	movs	r5, #0
    1220:	e664      	b.n	eec <__vsnprintf+0x288>
    1222:	f416 7300 	ands.w	r3, r6, #512	; 0x200
    1226:	d003      	beq.n	1230 <__vsnprintf+0x5cc>
    1228:	1d17      	adds	r7, r2, #4
    122a:	6814      	ldr	r4, [r2, #0]
    122c:	2500      	movs	r5, #0
    122e:	e735      	b.n	109c <__vsnprintf+0x438>
    1230:	f016 0a20 	ands.w	sl, r6, #32
    1234:	f47f ae53 	bne.w	ede <__vsnprintf+0x27a>
    1238:	f016 0310 	ands.w	r3, r6, #16
    123c:	f102 0704 	add.w	r7, r2, #4
    1240:	d1f3      	bne.n	122a <__vsnprintf+0x5c6>
    1242:	f016 0a40 	ands.w	sl, r6, #64	; 0x40
    1246:	d0f0      	beq.n	122a <__vsnprintf+0x5c6>
    1248:	8814      	ldrh	r4, [r2, #0]
    124a:	e7e8      	b.n	121e <__vsnprintf+0x5ba>
/mnt/disk/raspbian-tee/optee_os/lib/libutils/ext/snprintk.c:474
    124c:	4b51      	ldr	r3, [pc, #324]	; (1394 <__vsnprintf+0x730>)
    124e:	447b      	add	r3, pc
    1250:	3311      	adds	r3, #17
    1252:	e651      	b.n	ef8 <__vsnprintf+0x294>
/mnt/disk/raspbian-tee/optee_os/lib/libutils/ext/snprintk.c:475
    1254:	05f5      	lsls	r5, r6, #23
    1256:	d502      	bpl.n	125e <__vsnprintf+0x5fa>
    1258:	1d17      	adds	r7, r2, #4
    125a:	6814      	ldr	r4, [r2, #0]
    125c:	e00c      	b.n	1278 <__vsnprintf+0x614>
    125e:	05b4      	lsls	r4, r6, #22
    1260:	d4fa      	bmi.n	1258 <__vsnprintf+0x5f4>
    1262:	06b0      	lsls	r0, r6, #26
    1264:	f53f ae4c 	bmi.w	f00 <__vsnprintf+0x29c>
    1268:	f016 0f10 	tst.w	r6, #16
    126c:	f102 0704 	add.w	r7, r2, #4
    1270:	d1f3      	bne.n	125a <__vsnprintf+0x5f6>
    1272:	0671      	lsls	r1, r6, #25
    1274:	d5f1      	bpl.n	125a <__vsnprintf+0x5f6>
    1276:	8814      	ldrh	r4, [r2, #0]
    1278:	2500      	movs	r5, #0
    127a:	e648      	b.n	f0e <__vsnprintf+0x2aa>
/mnt/disk/raspbian-tee/optee_os/lib/libutils/ext/snprintk.c:488
    127c:	2301      	movs	r3, #1
    127e:	e5a2      	b.n	dc6 <__vsnprintf+0x162>
/mnt/disk/raspbian-tee/optee_os/lib/libutils/ext/snprintk.c:508
    1280:	461a      	mov	r2, r3
    1282:	e5b3      	b.n	dec <__vsnprintf+0x188>
/mnt/disk/raspbian-tee/optee_os/lib/libutils/ext/snprintk.c:517
    1284:	9311      	str	r3, [sp, #68]	; 0x44
    1286:	4620      	mov	r0, r4
    1288:	4629      	mov	r1, r5
    128a:	220a      	movs	r2, #10
    128c:	2300      	movs	r3, #0
    128e:	f000 ea02 	blx	1694 <__aeabi_uldivmod>
    1292:	9b11      	ldr	r3, [sp, #68]	; 0x44
    1294:	3230      	adds	r2, #48	; 0x30
/mnt/disk/raspbian-tee/optee_os/lib/libutils/ext/snprintk.c:518
    1296:	4620      	mov	r0, r4
    1298:	4629      	mov	r1, r5
/mnt/disk/raspbian-tee/optee_os/lib/libutils/ext/snprintk.c:517
    129a:	701a      	strb	r2, [r3, #0]
/mnt/disk/raspbian-tee/optee_os/lib/libutils/ext/snprintk.c:518
    129c:	220a      	movs	r2, #10
    129e:	2300      	movs	r3, #0
    12a0:	f000 e9f8 	blx	1694 <__aeabi_uldivmod>
    12a4:	4604      	mov	r4, r0
    12a6:	460d      	mov	r5, r1
    12a8:	e6ff      	b.n	10aa <__vsnprintf+0x446>
/mnt/disk/raspbian-tee/optee_os/lib/libutils/ext/snprintk.c:496
    12aa:	f10d 0375 	add.w	r3, sp, #117	; 0x75
    12ae:	e5b6      	b.n	e1e <__vsnprintf+0x1ba>
/mnt/disk/raspbian-tee/optee_os/lib/libutils/ext/snprintk.c:568
    12b0:	07b4      	lsls	r4, r6, #30
/mnt/disk/raspbian-tee/optee_os/lib/libutils/ext/snprintk.c:569
    12b2:	bf48      	it	mi
    12b4:	3202      	addmi	r2, #2
    12b6:	e697      	b.n	fe8 <__vsnprintf+0x384>
/mnt/disk/raspbian-tee/optee_os/lib/libutils/ext/snprintk.c:578
    12b8:	f1b8 0f00 	cmp.w	r8, #0
    12bc:	d006      	beq.n	12cc <__vsnprintf+0x668>
    12be:	9d0e      	ldr	r5, [sp, #56]	; 0x38
    12c0:	4545      	cmp	r5, r8
    12c2:	d903      	bls.n	12cc <__vsnprintf+0x668>
    12c4:	f888 c000 	strb.w	ip, [r8]
    12c8:	f108 0801 	add.w	r8, r8, #1
    12cc:	3901      	subs	r1, #1
    12ce:	e69b      	b.n	1008 <__vsnprintf+0x3a4>
/mnt/disk/raspbian-tee/optee_os/lib/libutils/ext/snprintk.c:583
    12d0:	990e      	ldr	r1, [sp, #56]	; 0x38
    12d2:	4541      	cmp	r1, r8
    12d4:	f67f aea5 	bls.w	1022 <__vsnprintf+0x3be>
    12d8:	f888 a000 	strb.w	sl, [r8]
    12dc:	f108 0801 	add.w	r8, r8, #1
    12e0:	e69f      	b.n	1022 <__vsnprintf+0x3be>
/mnt/disk/raspbian-tee/optee_os/lib/libutils/ext/snprintk.c:584
    12e2:	07b1      	lsls	r1, r6, #30
    12e4:	f57f ae9d 	bpl.w	1022 <__vsnprintf+0x3be>
/mnt/disk/raspbian-tee/optee_os/lib/libutils/ext/snprintk.c:585
    12e8:	f1b8 0f00 	cmp.w	r8, #0
    12ec:	f43f ae97 	beq.w	101e <__vsnprintf+0x3ba>
    12f0:	990e      	ldr	r1, [sp, #56]	; 0x38
    12f2:	4541      	cmp	r1, r8
    12f4:	f67f ae95 	bls.w	1022 <__vsnprintf+0x3be>
    12f8:	2130      	movs	r1, #48	; 0x30
    12fa:	f888 1000 	strb.w	r1, [r8]
/mnt/disk/raspbian-tee/optee_os/lib/libutils/ext/snprintk.c:586
    12fe:	f118 0101 	adds.w	r1, r8, #1
    1302:	f43f ae8c 	beq.w	101e <__vsnprintf+0x3ba>
    1306:	9d0e      	ldr	r5, [sp, #56]	; 0x38
    1308:	428d      	cmp	r5, r1
    130a:	d904      	bls.n	1316 <__vsnprintf+0x6b2>
    130c:	f888 9001 	strb.w	r9, [r8, #1]
    1310:	f108 0802 	add.w	r8, r8, #2
    1314:	e685      	b.n	1022 <__vsnprintf+0x3be>
    1316:	4688      	mov	r8, r1
    1318:	e683      	b.n	1022 <__vsnprintf+0x3be>
/mnt/disk/raspbian-tee/optee_os/lib/libutils/ext/snprintk.c:593
    131a:	f1b8 0f00 	cmp.w	r8, #0
    131e:	d006      	beq.n	132e <__vsnprintf+0x6ca>
    1320:	9d0e      	ldr	r5, [sp, #56]	; 0x38
    1322:	4545      	cmp	r5, r8
    1324:	d903      	bls.n	132e <__vsnprintf+0x6ca>
    1326:	f888 4000 	strb.w	r4, [r8]
    132a:	f108 0801 	add.w	r8, r8, #1
    132e:	3901      	subs	r1, #1
    1330:	e67d      	b.n	102e <__vsnprintf+0x3ca>
/mnt/disk/raspbian-tee/optee_os/lib/libutils/ext/snprintk.c:599
    1332:	f1b8 0f00 	cmp.w	r8, #0
    1336:	d006      	beq.n	1346 <__vsnprintf+0x6e2>
    1338:	9c0e      	ldr	r4, [sp, #56]	; 0x38
    133a:	4544      	cmp	r4, r8
    133c:	d903      	bls.n	1346 <__vsnprintf+0x6e2>
    133e:	f888 1000 	strb.w	r1, [r8]
    1342:	f108 0801 	add.w	r8, r8, #1
    1346:	3801      	subs	r0, #1
    1348:	e677      	b.n	103a <__vsnprintf+0x3d6>
/mnt/disk/raspbian-tee/optee_os/lib/libutils/ext/snprintk.c:603
    134a:	f1b8 0f00 	cmp.w	r8, #0
    134e:	d007      	beq.n	1360 <__vsnprintf+0x6fc>
    1350:	980e      	ldr	r0, [sp, #56]	; 0x38
    1352:	4540      	cmp	r0, r8
    1354:	d904      	bls.n	1360 <__vsnprintf+0x6fc>
    1356:	7818      	ldrb	r0, [r3, #0]
    1358:	f108 0801 	add.w	r8, r8, #1
    135c:	f808 0c01 	strb.w	r0, [r8, #-1]
/mnt/disk/raspbian-tee/optee_os/lib/libutils/ext/snprintk.c:602
    1360:	3301      	adds	r3, #1
    1362:	e66f      	b.n	1044 <__vsnprintf+0x3e0>
__vsnprintf():
/mnt/disk/raspbian-tee/optee_os/lib/libutils/ext/snprintk.c:148
    1364:	990c      	ldr	r1, [sp, #48]	; 0x30
    1366:	5453      	strb	r3, [r2, r1]
/mnt/disk/raspbian-tee/optee_os/lib/libutils/ext/snprintk.c:150
    1368:	e4a1      	b.n	cae <__vsnprintf+0x4a>
kprintf():
/mnt/disk/raspbian-tee/optee_os/lib/libutils/ext/snprintk.c:489
    136a:	f426 6680 	bic.w	r6, r6, #1024	; 0x400
/mnt/disk/raspbian-tee/optee_os/lib/libutils/ext/snprintk.c:482
    136e:	f04f 0a00 	mov.w	sl, #0
/mnt/disk/raspbian-tee/optee_os/lib/libutils/ext/snprintk.c:476
    1372:	2302      	movs	r3, #2
    1374:	e52c      	b.n	dd0 <__vsnprintf+0x16c>
/mnt/disk/raspbian-tee/optee_os/lib/libutils/ext/snprintk.c:488
    1376:	f1bb 3fff 	cmp.w	fp, #4294967295	; 0xffffffff
    137a:	d1f6      	bne.n	136a <__vsnprintf+0x706>
    137c:	f04f 3bff 	mov.w	fp, #4294967295	; 0xffffffff
    1380:	e728      	b.n	11d4 <__vsnprintf+0x570>
    1382:	bf00      	nop
    1384:	00005f5f 	.word	0x00005f5f
    1388:	00005edf 	.word	0x00005edf
    138c:	00005c58 	.word	0x00005c58
    1390:	00005c17 	.word	0x00005c17
    1394:	00005b87 	.word	0x00005b87

00001398 <vsnprintk>:
vsnprintk():
/mnt/disk/raspbian-tee/optee_os/lib/libutils/ext/snprintk.c:129
    1398:	b513      	push	{r0, r1, r4, lr}
/mnt/disk/raspbian-tee/optee_os/lib/libutils/ext/snprintk.c:130
    139a:	2401      	movs	r4, #1
    139c:	9400      	str	r4, [sp, #0]
    139e:	f7ff fc61 	bl	c64 <__vsnprintf>
/mnt/disk/raspbian-tee/optee_os/lib/libutils/ext/snprintk.c:131
    13a2:	b002      	add	sp, #8
    13a4:	bd10      	pop	{r4, pc}

000013a6 <snprintk>:
snprintk():
/mnt/disk/raspbian-tee/optee_os/lib/libutils/ext/snprintk.c:112
    13a6:	b40c      	push	{r2, r3}
    13a8:	b507      	push	{r0, r1, r2, lr}
    13aa:	ab04      	add	r3, sp, #16
    13ac:	f853 2b04 	ldr.w	r2, [r3], #4
/mnt/disk/raspbian-tee/optee_os/lib/libutils/ext/snprintk.c:116
    13b0:	9301      	str	r3, [sp, #4]
/mnt/disk/raspbian-tee/optee_os/lib/libutils/ext/snprintk.c:117
    13b2:	f7ff fff1 	bl	1398 <vsnprintk>
/mnt/disk/raspbian-tee/optee_os/lib/libutils/ext/snprintk.c:121
    13b6:	b003      	add	sp, #12
    13b8:	f85d eb04 	ldr.w	lr, [sp], #4
    13bc:	b002      	add	sp, #8
    13be:	4770      	bx	lr

000013c0 <append>:
append():
/mnt/disk/raspbian-tee/optee_os/lib/libutils/ext/trace.c:198
    13c0:	b40e      	push	{r1, r2, r3}
/mnt/disk/raspbian-tee/optee_os/lib/libutils/ext/trace.c:203
    13c2:	f8d0 3100 	ldr.w	r3, [r0, #256]	; 0x100
/mnt/disk/raspbian-tee/optee_os/lib/libutils/ext/trace.c:198
    13c6:	b533      	push	{r0, r1, r4, r5, lr}
    13c8:	4604      	mov	r4, r0
/mnt/disk/raspbian-tee/optee_os/lib/libutils/ext/trace.c:203
    13ca:	b90b      	cbnz	r3, 13d0 <append+0x10>
/mnt/disk/raspbian-tee/optee_os/lib/libutils/ext/trace.c:204
    13cc:	f8c4 0100 	str.w	r0, [r4, #256]	; 0x100
/mnt/disk/raspbian-tee/optee_os/lib/libutils/ext/trace.c:205
    13d0:	f8d4 0100 	ldr.w	r0, [r4, #256]	; 0x100
/mnt/disk/raspbian-tee/optee_os/lib/libutils/ext/trace.c:206
    13d4:	ab06      	add	r3, sp, #24
/mnt/disk/raspbian-tee/optee_os/lib/libutils/ext/trace.c:207
    13d6:	9a05      	ldr	r2, [sp, #20]
/mnt/disk/raspbian-tee/optee_os/lib/libutils/ext/trace.c:205
    13d8:	1b05      	subs	r5, r0, r4
/mnt/disk/raspbian-tee/optee_os/lib/libutils/ext/trace.c:206
    13da:	9301      	str	r3, [sp, #4]
/mnt/disk/raspbian-tee/optee_os/lib/libutils/ext/trace.c:205
    13dc:	f5c5 7580 	rsb	r5, r5, #256	; 0x100
/mnt/disk/raspbian-tee/optee_os/lib/libutils/ext/trace.c:207
    13e0:	4629      	mov	r1, r5
    13e2:	f7ff ffd9 	bl	1398 <vsnprintk>
/mnt/disk/raspbian-tee/optee_os/lib/libutils/ext/trace.c:209
    13e6:	2800      	cmp	r0, #0
    13e8:	db0f      	blt.n	140a <append+0x4a>
/mnt/disk/raspbian-tee/optee_os/lib/libutils/ext/trace.c:213
    13ea:	4285      	cmp	r5, r0
    13ec:	dd0d      	ble.n	140a <append+0x4a>
/mnt/disk/raspbian-tee/optee_os/lib/libutils/ext/trace.c:217
    13ee:	4285      	cmp	r5, r0
    13f0:	bfa8      	it	ge
    13f2:	4605      	movge	r5, r0
    13f4:	f8d4 0100 	ldr.w	r0, [r4, #256]	; 0x100
    13f8:	4405      	add	r5, r0
/mnt/disk/raspbian-tee/optee_os/lib/libutils/ext/trace.c:218
    13fa:	2001      	movs	r0, #1
/mnt/disk/raspbian-tee/optee_os/lib/libutils/ext/trace.c:217
    13fc:	f8c4 5100 	str.w	r5, [r4, #256]	; 0x100
/mnt/disk/raspbian-tee/optee_os/lib/libutils/ext/trace.c:219
    1400:	b002      	add	sp, #8
    1402:	e8bd 4030 	ldmia.w	sp!, {r4, r5, lr}
    1406:	b003      	add	sp, #12
    1408:	4770      	bx	lr
/mnt/disk/raspbian-tee/optee_os/lib/libutils/ext/trace.c:211
    140a:	2000      	movs	r0, #0
    140c:	e7f8      	b.n	1400 <append+0x40>

0000140e <trace_set_level>:
trace_set_level():
/mnt/disk/raspbian-tee/optee_os/lib/libutils/ext/trace.c:25
    140e:	4b05      	ldr	r3, [pc, #20]	; (1424 <trace_set_level+0x16>)
/mnt/disk/raspbian-tee/optee_os/lib/libutils/ext/trace.c:26
    1410:	2804      	cmp	r0, #4
    1412:	4a05      	ldr	r2, [pc, #20]	; (1428 <trace_set_level+0x1a>)
/mnt/disk/raspbian-tee/optee_os/lib/libutils/ext/trace.c:25
    1414:	447b      	add	r3, pc
    1416:	589b      	ldr	r3, [r3, r2]
/mnt/disk/raspbian-tee/optee_os/lib/libutils/ext/trace.c:26
    1418:	d801      	bhi.n	141e <trace_set_level+0x10>
/mnt/disk/raspbian-tee/optee_os/lib/libutils/ext/trace.c:27
    141a:	6018      	str	r0, [r3, #0]
    141c:	4770      	bx	lr
/mnt/disk/raspbian-tee/optee_os/lib/libutils/ext/trace.c:29
    141e:	2204      	movs	r2, #4
    1420:	601a      	str	r2, [r3, #0]
    1422:	4770      	bx	lr
    1424:	00006c54 	.word	0x00006c54
    1428:	00000014 	.word	0x00000014

0000142c <trace_get_level>:
trace_get_level():
/mnt/disk/raspbian-tee/optee_os/lib/libutils/ext/trace.c:33
    142c:	4b02      	ldr	r3, [pc, #8]	; (1438 <trace_get_level+0xc>)
/mnt/disk/raspbian-tee/optee_os/lib/libutils/ext/trace.c:34
    142e:	4a03      	ldr	r2, [pc, #12]	; (143c <trace_get_level+0x10>)
/mnt/disk/raspbian-tee/optee_os/lib/libutils/ext/trace.c:33
    1430:	447b      	add	r3, pc
/mnt/disk/raspbian-tee/optee_os/lib/libutils/ext/trace.c:34
    1432:	589b      	ldr	r3, [r3, r2]
/mnt/disk/raspbian-tee/optee_os/lib/libutils/ext/trace.c:35
    1434:	6818      	ldr	r0, [r3, #0]
    1436:	4770      	bx	lr
    1438:	00006c38 	.word	0x00006c38
    143c:	00000014 	.word	0x00000014

00001440 <trace_printf>:
trace_printf():
/mnt/disk/raspbian-tee/optee_os/lib/libutils/ext/trace.c:97
    1440:	e92d 47f0 	stmdb	sp!, {r4, r5, r6, r7, r8, r9, sl, lr}
    1444:	4607      	mov	r7, r0
    1446:	f8df 910c 	ldr.w	r9, [pc, #268]	; 1554 <trace_printf+0x114>
    144a:	b0c6      	sub	sp, #280	; 0x118
    144c:	4688      	mov	r8, r1
    144e:	44f9      	add	r9, pc
    1450:	4614      	mov	r4, r2
/mnt/disk/raspbian-tee/optee_os/lib/libutils/ext/trace.c:103
    1452:	469a      	mov	sl, r3
    1454:	2b00      	cmp	r3, #0
    1456:	d06a      	beq.n	152e <trace_printf+0xee>
/mnt/disk/raspbian-tee/optee_os/lib/libutils/ext/trace.c:103 (discriminator 1)
    1458:	4b3f      	ldr	r3, [pc, #252]	; (1558 <trace_printf+0x118>)
    145a:	f859 3003 	ldr.w	r3, [r9, r3]
    145e:	681b      	ldr	r3, [r3, #0]
    1460:	4293      	cmp	r3, r2
    1462:	db61      	blt.n	1528 <trace_printf+0xe8>
trace_level_to_string():
/mnt/disk/raspbian-tee/optee_os/lib/libutils/ext/trace.c:52
    1464:	4613      	mov	r3, r2
    1466:	2a04      	cmp	r2, #4
/mnt/disk/raspbian-tee/optee_os/lib/libutils/ext/trace.c:55
    1468:	4a3c      	ldr	r2, [pc, #240]	; (155c <trace_printf+0x11c>)
/mnt/disk/raspbian-tee/optee_os/lib/libutils/ext/trace.c:52
    146a:	bf88      	it	hi
    146c:	2300      	movhi	r3, #0
/mnt/disk/raspbian-tee/optee_os/lib/libutils/ext/trace.c:55
    146e:	447a      	add	r2, pc
    1470:	5cd3      	ldrb	r3, [r2, r3]
trace_printf():
/mnt/disk/raspbian-tee/optee_os/lib/libutils/ext/trace.c:107
    1472:	4a3b      	ldr	r2, [pc, #236]	; (1560 <trace_printf+0x120>)
    1474:	ad06      	add	r5, sp, #24
    1476:	f44f 7180 	mov.w	r1, #256	; 0x100
    147a:	4628      	mov	r0, r5
    147c:	447a      	add	r2, pc
    147e:	f7ff ff92 	bl	13a6 <snprintk>
/mnt/disk/raspbian-tee/optee_os/lib/libutils/ext/trace.c:109
    1482:	1e06      	subs	r6, r0, #0
    1484:	db50      	blt.n	1528 <trace_printf+0xe8>
/mnt/disk/raspbian-tee/optee_os/lib/libutils/ext/trace.c:114
    1486:	4b37      	ldr	r3, [pc, #220]	; (1564 <trace_printf+0x124>)
    1488:	f5c6 7180 	rsb	r1, r6, #256	; 0x100
    148c:	4a36      	ldr	r2, [pc, #216]	; (1568 <trace_printf+0x128>)
    148e:	19a8      	adds	r0, r5, r6
    1490:	447a      	add	r2, pc
    1492:	f859 3003 	ldr.w	r3, [r9, r3]
    1496:	9303      	str	r3, [sp, #12]
    1498:	f7ff ff85 	bl	13a6 <snprintk>
/mnt/disk/raspbian-tee/optee_os/lib/libutils/ext/trace.c:116
    149c:	2800      	cmp	r0, #0
    149e:	db43      	blt.n	1528 <trace_printf+0xe8>
/mnt/disk/raspbian-tee/optee_os/lib/libutils/ext/trace.c:118
    14a0:	4406      	add	r6, r0
/mnt/disk/raspbian-tee/optee_os/lib/libutils/ext/trace.c:120
    14a2:	f1ba 0f00 	cmp.w	sl, #0
    14a6:	d04b      	beq.n	1540 <trace_printf+0x100>
/mnt/disk/raspbian-tee/optee_os/lib/libutils/ext/trace.c:120 (discriminator 1)
    14a8:	231a      	movs	r3, #26
    14aa:	fa23 f404 	lsr.w	r4, r3, r4
    14ae:	07e3      	lsls	r3, r4, #31
    14b0:	d546      	bpl.n	1540 <trace_printf+0x100>
print_thread_id():
/mnt/disk/raspbian-tee/optee_os/lib/libutils/ext/trace.c:65
    14b2:	f000 f905 	bl	16c0 <trace_ext_get_thread_id>
trace_printf():
/mnt/disk/raspbian-tee/optee_os/lib/libutils/ext/trace.c:122
    14b6:	19ac      	adds	r4, r5, r6
    14b8:	f5c6 7980 	rsb	r9, r6, #256	; 0x100
print_thread_id():
/mnt/disk/raspbian-tee/optee_os/lib/libutils/ext/trace.c:67
    14bc:	2800      	cmp	r0, #0
    14be:	db38      	blt.n	1532 <trace_printf+0xf2>
/mnt/disk/raspbian-tee/optee_os/lib/libutils/ext/trace.c:68
    14c0:	4a2a      	ldr	r2, [pc, #168]	; (156c <trace_printf+0x12c>)
    14c2:	2301      	movs	r3, #1
    14c4:	9000      	str	r0, [sp, #0]
    14c6:	447a      	add	r2, pc
/mnt/disk/raspbian-tee/optee_os/lib/libutils/ext/trace.c:70
    14c8:	4649      	mov	r1, r9
    14ca:	4620      	mov	r0, r4
    14cc:	f7ff ff6b 	bl	13a6 <snprintk>
trace_printf():
/mnt/disk/raspbian-tee/optee_os/lib/libutils/ext/trace.c:129
    14d0:	2800      	cmp	r0, #0
    14d2:	db29      	blt.n	1528 <trace_printf+0xe8>
/mnt/disk/raspbian-tee/optee_os/lib/libutils/ext/trace.c:131
    14d4:	1984      	adds	r4, r0, r6
/mnt/disk/raspbian-tee/optee_os/lib/libutils/ext/trace.c:133
    14d6:	b167      	cbz	r7, 14f2 <trace_printf+0xb2>
/mnt/disk/raspbian-tee/optee_os/lib/libutils/ext/trace.c:134
    14d8:	4a25      	ldr	r2, [pc, #148]	; (1570 <trace_printf+0x130>)
    14da:	463b      	mov	r3, r7
    14dc:	f8cd 8000 	str.w	r8, [sp]
    14e0:	f5c4 7180 	rsb	r1, r4, #256	; 0x100
    14e4:	447a      	add	r2, pc
    14e6:	1928      	adds	r0, r5, r4
    14e8:	f7ff ff5d 	bl	13a6 <snprintk>
/mnt/disk/raspbian-tee/optee_os/lib/libutils/ext/trace.c:136
    14ec:	2800      	cmp	r0, #0
    14ee:	db1b      	blt.n	1528 <trace_printf+0xe8>
/mnt/disk/raspbian-tee/optee_os/lib/libutils/ext/trace.c:138
    14f0:	4404      	add	r4, r0
/mnt/disk/raspbian-tee/optee_os/lib/libutils/ext/trace.c:148
    14f2:	ab4f      	add	r3, sp, #316	; 0x13c
/mnt/disk/raspbian-tee/optee_os/lib/libutils/ext/trace.c:149
    14f4:	f5c4 7180 	rsb	r1, r4, #256	; 0x100
    14f8:	1928      	adds	r0, r5, r4
    14fa:	9a4e      	ldr	r2, [sp, #312]	; 0x138
/mnt/disk/raspbian-tee/optee_os/lib/libutils/ext/trace.c:148
    14fc:	9305      	str	r3, [sp, #20]
/mnt/disk/raspbian-tee/optee_os/lib/libutils/ext/trace.c:149
    14fe:	f7ff ff4b 	bl	1398 <vsnprintk>
/mnt/disk/raspbian-tee/optee_os/lib/libutils/ext/trace.c:151
    1502:	2800      	cmp	r0, #0
/mnt/disk/raspbian-tee/optee_os/lib/libutils/ext/trace.c:157
    1504:	f04f 030a 	mov.w	r3, #10
/mnt/disk/raspbian-tee/optee_os/lib/libutils/ext/trace.c:152
    1508:	bfc8      	it	gt
    150a:	1824      	addgt	r4, r4, r0
    150c:	2cfe      	cmp	r4, #254	; 0xfe
    150e:	bf28      	it	cs
    1510:	24fe      	movcs	r4, #254	; 0xfe
/mnt/disk/raspbian-tee/optee_os/lib/libutils/ext/trace.c:157
    1512:	552b      	strb	r3, [r5, r4]
/mnt/disk/raspbian-tee/optee_os/lib/libutils/ext/trace.c:158
    1514:	b114      	cbz	r4, 151c <trace_printf+0xdc>
/mnt/disk/raspbian-tee/optee_os/lib/libutils/ext/trace.c:158 (discriminator 1)
    1516:	5d2b      	ldrb	r3, [r5, r4]
    1518:	2b0a      	cmp	r3, #10
    151a:	d019      	beq.n	1550 <trace_printf+0x110>
/mnt/disk/raspbian-tee/optee_os/lib/libutils/ext/trace.c:161
    151c:	442c      	add	r4, r5
/mnt/disk/raspbian-tee/optee_os/lib/libutils/ext/trace.c:163
    151e:	4628      	mov	r0, r5
/mnt/disk/raspbian-tee/optee_os/lib/libutils/ext/trace.c:161
    1520:	2300      	movs	r3, #0
    1522:	70a3      	strb	r3, [r4, #2]
/mnt/disk/raspbian-tee/optee_os/lib/libutils/ext/trace.c:163
    1524:	f000 f8c2 	bl	16ac <trace_ext_puts>
/mnt/disk/raspbian-tee/optee_os/lib/libutils/ext/trace.c:164
    1528:	b046      	add	sp, #280	; 0x118
    152a:	e8bd 87f0 	ldmia.w	sp!, {r4, r5, r6, r7, r8, r9, sl, pc}
trace_level_to_string():
/mnt/disk/raspbian-tee/optee_os/lib/libutils/ext/trace.c:50
    152e:	234d      	movs	r3, #77	; 0x4d
    1530:	e79f      	b.n	1472 <trace_printf+0x32>
print_thread_id():
/mnt/disk/raspbian-tee/optee_os/lib/libutils/ext/trace.c:70
    1532:	4b10      	ldr	r3, [pc, #64]	; (1574 <trace_printf+0x134>)
    1534:	4a10      	ldr	r2, [pc, #64]	; (1578 <trace_printf+0x138>)
    1536:	447b      	add	r3, pc
    1538:	9300      	str	r3, [sp, #0]
    153a:	447a      	add	r2, pc
    153c:	2301      	movs	r3, #1
    153e:	e7c3      	b.n	14c8 <trace_printf+0x88>
trace_printf():
/mnt/disk/raspbian-tee/optee_os/lib/libutils/ext/trace.c:142
    1540:	2efe      	cmp	r6, #254	; 0xfe
    1542:	d8f1      	bhi.n	1528 <trace_printf+0xe8>
/mnt/disk/raspbian-tee/optee_os/lib/libutils/ext/trace.c:144
    1544:	1c74      	adds	r4, r6, #1
    1546:	2320      	movs	r3, #32
    1548:	55ab      	strb	r3, [r5, r6]
/mnt/disk/raspbian-tee/optee_os/lib/libutils/ext/trace.c:145
    154a:	2300      	movs	r3, #0
    154c:	552b      	strb	r3, [r5, r4]
    154e:	e7d0      	b.n	14f2 <trace_printf+0xb2>
/mnt/disk/raspbian-tee/optee_os/lib/libutils/ext/trace.c:159
    1550:	3c01      	subs	r4, #1
    1552:	e7df      	b.n	1514 <trace_printf+0xd4>
    1554:	00006c1a 	.word	0x00006c1a
    1558:	00000014 	.word	0x00000014
    155c:	000059c1 	.word	0x000059c1
    1560:	000059c2 	.word	0x000059c2
    1564:	00000018 	.word	0x00000018
    1568:	000059b2 	.word	0x000059b2
    156c:	00005980 	.word	0x00005980
    1570:	0000596d 	.word	0x0000596d
    1574:	000056ab 	.word	0x000056ab
    1578:	00005912 	.word	0x00005912

0000157c <dhex_dump>:
dhex_dump():
/mnt/disk/raspbian-tee/optee_os/lib/libutils/ext/trace.c:225
    157c:	e92d 4ff0 	stmdb	sp!, {r4, r5, r6, r7, r8, r9, sl, fp, lr}
    1580:	4690      	mov	r8, r2
    1582:	4a35      	ldr	r2, [pc, #212]	; (1658 <dhex_dump+0xdc>)
    1584:	468a      	mov	sl, r1
/mnt/disk/raspbian-tee/optee_os/lib/libutils/ext/trace.c:231
    1586:	4935      	ldr	r1, [pc, #212]	; (165c <dhex_dump+0xe0>)
/mnt/disk/raspbian-tee/optee_os/lib/libutils/ext/trace.c:225
    1588:	447a      	add	r2, pc
    158a:	b0c7      	sub	sp, #284	; 0x11c
    158c:	4681      	mov	r9, r0
/mnt/disk/raspbian-tee/optee_os/lib/libutils/ext/trace.c:231
    158e:	5852      	ldr	r2, [r2, r1]
    1590:	6812      	ldr	r2, [r2, #0]
    1592:	4542      	cmp	r2, r8
    1594:	db1d      	blt.n	15d2 <dhex_dump+0x56>
    1596:	461e      	mov	r6, r3
/mnt/disk/raspbian-tee/optee_os/lib/libutils/ext/trace.c:240
    1598:	4b31      	ldr	r3, [pc, #196]	; (1660 <dhex_dump+0xe4>)
/mnt/disk/raspbian-tee/optee_os/lib/libutils/ext/trace.c:232
    159a:	ad05      	add	r5, sp, #20
/mnt/disk/raspbian-tee/optee_os/lib/libutils/ext/trace.c:235
    159c:	f8df b0c4 	ldr.w	fp, [pc, #196]	; 1664 <dhex_dump+0xe8>
/mnt/disk/raspbian-tee/optee_os/lib/libutils/ext/trace.c:240
    15a0:	447b      	add	r3, pc
    15a2:	9302      	str	r3, [sp, #8]
/mnt/disk/raspbian-tee/optee_os/lib/libutils/ext/trace.c:248
    15a4:	4b30      	ldr	r3, [pc, #192]	; (1668 <dhex_dump+0xec>)
/mnt/disk/raspbian-tee/optee_os/lib/libutils/ext/trace.c:235
    15a6:	44fb      	add	fp, pc
/mnt/disk/raspbian-tee/optee_os/lib/libutils/ext/trace.c:232
    15a8:	2400      	movs	r4, #0
    15aa:	f8c5 4100 	str.w	r4, [r5, #256]	; 0x100
/mnt/disk/raspbian-tee/optee_os/lib/libutils/ext/trace.c:248
    15ae:	447b      	add	r3, pc
    15b0:	9303      	str	r3, [sp, #12]
/mnt/disk/raspbian-tee/optee_os/lib/libutils/ext/trace.c:233 (discriminator 1)
    15b2:	9b50      	ldr	r3, [sp, #320]	; 0x140
    15b4:	429c      	cmp	r4, r3
    15b6:	db0f      	blt.n	15d8 <dhex_dump+0x5c>
/mnt/disk/raspbian-tee/optee_os/lib/libutils/ext/trace.c:253
    15b8:	f8d5 3100 	ldr.w	r3, [r5, #256]	; 0x100
    15bc:	b14b      	cbz	r3, 15d2 <dhex_dump+0x56>
/mnt/disk/raspbian-tee/optee_os/lib/libutils/ext/trace.c:255
    15be:	4b2b      	ldr	r3, [pc, #172]	; (166c <dhex_dump+0xf0>)
    15c0:	4642      	mov	r2, r8
    15c2:	9501      	str	r5, [sp, #4]
    15c4:	4651      	mov	r1, sl
    15c6:	447b      	add	r3, pc
    15c8:	4648      	mov	r0, r9
    15ca:	9300      	str	r3, [sp, #0]
    15cc:	2301      	movs	r3, #1
    15ce:	f7ff ff37 	bl	1440 <trace_printf>
/mnt/disk/raspbian-tee/optee_os/lib/libutils/ext/trace.c:263
    15d2:	b047      	add	sp, #284	; 0x11c
    15d4:	e8bd 8ff0 	ldmia.w	sp!, {r4, r5, r6, r7, r8, r9, sl, fp, pc}
/mnt/disk/raspbian-tee/optee_os/lib/libutils/ext/trace.c:234
    15d8:	f014 070f 	ands.w	r7, r4, #15
    15dc:	d013      	beq.n	1606 <dhex_dump+0x8a>
/mnt/disk/raspbian-tee/optee_os/lib/libutils/ext/trace.c:240
    15de:	f816 2b01 	ldrb.w	r2, [r6], #1
    15e2:	4628      	mov	r0, r5
    15e4:	9902      	ldr	r1, [sp, #8]
    15e6:	f7ff feeb 	bl	13c0 <append>
/mnt/disk/raspbian-tee/optee_os/lib/libutils/ext/trace.c:241
    15ea:	b9a8      	cbnz	r0, 1618 <dhex_dump+0x9c>
/mnt/disk/raspbian-tee/optee_os/lib/libutils/ext/trace.c:262
    15ec:	4820      	ldr	r0, [pc, #128]	; (1670 <dhex_dump+0xf4>)
    15ee:	2203      	movs	r2, #3
    15f0:	4b20      	ldr	r3, [pc, #128]	; (1674 <dhex_dump+0xf8>)
    15f2:	f44f 7183 	mov.w	r1, #262	; 0x106
    15f6:	4478      	add	r0, pc
    15f8:	447b      	add	r3, pc
    15fa:	3005      	adds	r0, #5
    15fc:	9300      	str	r3, [sp, #0]
    15fe:	2301      	movs	r3, #1
    1600:	f7ff ff1e 	bl	1440 <trace_printf>
    1604:	e7e5      	b.n	15d2 <dhex_dump+0x56>
/mnt/disk/raspbian-tee/optee_os/lib/libutils/ext/trace.c:235
    1606:	4633      	mov	r3, r6
    1608:	2208      	movs	r2, #8
    160a:	4659      	mov	r1, fp
    160c:	4628      	mov	r0, r5
    160e:	f7ff fed7 	bl	13c0 <append>
/mnt/disk/raspbian-tee/optee_os/lib/libutils/ext/trace.c:237
    1612:	2800      	cmp	r0, #0
    1614:	d1e3      	bne.n	15de <dhex_dump+0x62>
    1616:	e7e9      	b.n	15ec <dhex_dump+0x70>
/mnt/disk/raspbian-tee/optee_os/lib/libutils/ext/trace.c:243
    1618:	4263      	negs	r3, r4
    161a:	f003 030f 	and.w	r3, r3, #15
    161e:	bf58      	it	pl
    1620:	425f      	negpl	r7, r3
    1622:	2f07      	cmp	r7, #7
    1624:	d108      	bne.n	1638 <dhex_dump+0xbc>
/mnt/disk/raspbian-tee/optee_os/lib/libutils/ext/trace.c:244
    1626:	4914      	ldr	r1, [pc, #80]	; (1678 <dhex_dump+0xfc>)
    1628:	4628      	mov	r0, r5
    162a:	4479      	add	r1, pc
    162c:	f7ff fec8 	bl	13c0 <append>
/mnt/disk/raspbian-tee/optee_os/lib/libutils/ext/trace.c:245
    1630:	2800      	cmp	r0, #0
    1632:	d0db      	beq.n	15ec <dhex_dump+0x70>
/mnt/disk/raspbian-tee/optee_os/lib/libutils/ext/trace.c:233 (discriminator 2)
    1634:	3401      	adds	r4, #1
    1636:	e7bc      	b.n	15b2 <dhex_dump+0x36>
/mnt/disk/raspbian-tee/optee_os/lib/libutils/ext/trace.c:247
    1638:	2f0f      	cmp	r7, #15
    163a:	d1fb      	bne.n	1634 <dhex_dump+0xb8>
/mnt/disk/raspbian-tee/optee_os/lib/libutils/ext/trace.c:248
    163c:	9b03      	ldr	r3, [sp, #12]
    163e:	4642      	mov	r2, r8
    1640:	9300      	str	r3, [sp, #0]
    1642:	4651      	mov	r1, sl
    1644:	2301      	movs	r3, #1
    1646:	9501      	str	r5, [sp, #4]
    1648:	4648      	mov	r0, r9
    164a:	f7ff fef9 	bl	1440 <trace_printf>
/mnt/disk/raspbian-tee/optee_os/lib/libutils/ext/trace.c:250
    164e:	2300      	movs	r3, #0
    1650:	f8c5 3100 	str.w	r3, [r5, #256]	; 0x100
    1654:	e7ee      	b.n	1634 <dhex_dump+0xb8>
    1656:	bf00      	nop
    1658:	00006ae0 	.word	0x00006ae0
    165c:	00000014 	.word	0x00000014
    1660:	000058b8 	.word	0x000058b8
    1664:	000058b8 	.word	0x000058b8
    1668:	00005641 	.word	0x00005641
    166c:	00005629 	.word	0x00005629
    1670:	00005839 	.word	0x00005839
    1674:	0000586e 	.word	0x0000586e
    1678:	0000583a 	.word	0x0000583a

0000167c <__aeabi_ldivmod>:
__aeabi_ldivmod():
/mnt/disk/raspbian-tee/optee_os/lib/libutils/isoc/arch/arm/arm32_aeabi_ldivmod_a32.S:24
    167c:	e92d5000 	push	{ip, lr}
/mnt/disk/raspbian-tee/optee_os/lib/libutils/isoc/arch/arm/arm32_aeabi_ldivmod_a32.S:26
    1680:	e92d000f 	push	{r0, r1, r2, r3}
/mnt/disk/raspbian-tee/optee_os/lib/libutils/isoc/arch/arm/arm32_aeabi_ldivmod_a32.S:28
    1684:	e1a0000d 	mov	r0, sp
/mnt/disk/raspbian-tee/optee_os/lib/libutils/isoc/arch/arm/arm32_aeabi_ldivmod_a32.S:29
    1688:	fa001434 	blx	6760 <__l_divmod>
/mnt/disk/raspbian-tee/optee_os/lib/libutils/isoc/arch/arm/arm32_aeabi_ldivmod_a32.S:30
    168c:	e8bd000f 	pop	{r0, r1, r2, r3}
/mnt/disk/raspbian-tee/optee_os/lib/libutils/isoc/arch/arm/arm32_aeabi_ldivmod_a32.S:31
    1690:	e8bd9000 	pop	{ip, pc}

00001694 <__aeabi_uldivmod>:
__aeabi_uldivmod():
/mnt/disk/raspbian-tee/optee_os/lib/libutils/isoc/arch/arm/arm32_aeabi_ldivmod_a32.S:42
    1694:	e92d5000 	push	{ip, lr}
/mnt/disk/raspbian-tee/optee_os/lib/libutils/isoc/arch/arm/arm32_aeabi_ldivmod_a32.S:44
    1698:	e92d000f 	push	{r0, r1, r2, r3}
/mnt/disk/raspbian-tee/optee_os/lib/libutils/isoc/arch/arm/arm32_aeabi_ldivmod_a32.S:46
    169c:	e1a0000d 	mov	r0, sp
/mnt/disk/raspbian-tee/optee_os/lib/libutils/isoc/arch/arm/arm32_aeabi_ldivmod_a32.S:47
    16a0:	fa001411 	blx	66ec <__ul_divmod>
/mnt/disk/raspbian-tee/optee_os/lib/libutils/isoc/arch/arm/arm32_aeabi_ldivmod_a32.S:48
    16a4:	e8bd000f 	pop	{r0, r1, r2, r3}
/mnt/disk/raspbian-tee/optee_os/lib/libutils/isoc/arch/arm/arm32_aeabi_ldivmod_a32.S:49
    16a8:	e8bd9000 	pop	{ip, pc}

000016ac <trace_ext_puts>:
trace_ext_puts():
/mnt/disk/raspbian-tee/optee_os/lib/libutee/trace_ext.c:17
    16ac:	b510      	push	{r4, lr}
    16ae:	4604      	mov	r4, r0
/mnt/disk/raspbian-tee/optee_os/lib/libutee/trace_ext.c:18
    16b0:	f005 f803 	bl	66ba <strlen>
    16b4:	4601      	mov	r1, r0
    16b6:	4620      	mov	r0, r4
/mnt/disk/raspbian-tee/optee_os/lib/libutee/trace_ext.c:19
    16b8:	e8bd 4010 	ldmia.w	sp!, {r4, lr}
/mnt/disk/raspbian-tee/optee_os/lib/libutee/trace_ext.c:18
    16bc:	f005 b8f4 	b.w	68a8 <__utee_log_from_thumb>

000016c0 <trace_ext_get_thread_id>:
trace_ext_get_thread_id():
/mnt/disk/raspbian-tee/optee_os/lib/libutee/trace_ext.c:24
    16c0:	f04f 30ff 	mov.w	r0, #4294967295	; 0xffffffff
    16c4:	4770      	bx	lr

000016c6 <printf>:
printf():
/mnt/disk/raspbian-tee/optee_os/lib/libutee/trace_ext.c:32
    16c6:	b40f      	push	{r0, r1, r2, r3}
    16c8:	b530      	push	{r4, r5, lr}
    16ca:	b0c3      	sub	sp, #268	; 0x10c
/mnt/disk/raspbian-tee/optee_os/lib/libutee/trace_ext.c:37
    16cc:	f7ff feae 	bl	142c <trace_get_level>
    16d0:	2800      	cmp	r0, #0
    16d2:	dd13      	ble.n	16fc <printf+0x36>
/mnt/disk/raspbian-tee/optee_os/lib/libutee/trace_ext.c:41
    16d4:	ad02      	add	r5, sp, #8
/mnt/disk/raspbian-tee/optee_os/lib/libutee/trace_ext.c:40
    16d6:	ab47      	add	r3, sp, #284	; 0x11c
/mnt/disk/raspbian-tee/optee_os/lib/libutee/trace_ext.c:41
    16d8:	9a46      	ldr	r2, [sp, #280]	; 0x118
    16da:	f44f 7180 	mov.w	r1, #256	; 0x100
    16de:	4628      	mov	r0, r5
/mnt/disk/raspbian-tee/optee_os/lib/libutee/trace_ext.c:40
    16e0:	9301      	str	r3, [sp, #4]
/mnt/disk/raspbian-tee/optee_os/lib/libutee/trace_ext.c:41
    16e2:	f004 ffc2 	bl	666a <vsnprintf>
/mnt/disk/raspbian-tee/optee_os/lib/libutee/trace_ext.c:44
    16e6:	1e04      	subs	r4, r0, #0
    16e8:	db02      	blt.n	16f0 <printf+0x2a>
/mnt/disk/raspbian-tee/optee_os/lib/libutee/trace_ext.c:47
    16ea:	4628      	mov	r0, r5
    16ec:	f7ff ffde 	bl	16ac <trace_ext_puts>
/mnt/disk/raspbian-tee/optee_os/lib/libutee/trace_ext.c:50
    16f0:	4620      	mov	r0, r4
    16f2:	b043      	add	sp, #268	; 0x10c
    16f4:	e8bd 4030 	ldmia.w	sp!, {r4, r5, lr}
    16f8:	b004      	add	sp, #16
    16fa:	4770      	bx	lr
/mnt/disk/raspbian-tee/optee_os/lib/libutee/trace_ext.c:38
    16fc:	2400      	movs	r4, #0
    16fe:	e7f7      	b.n	16f0 <printf+0x2a>

00001700 <puts>:
puts():
/mnt/disk/raspbian-tee/optee_os/lib/libutee/trace_ext.c:53
    1700:	b510      	push	{r4, lr}
    1702:	4604      	mov	r4, r0
/mnt/disk/raspbian-tee/optee_os/lib/libutee/trace_ext.c:54
    1704:	f7ff fe92 	bl	142c <trace_get_level>
    1708:	2800      	cmp	r0, #0
    170a:	dd06      	ble.n	171a <puts+0x1a>
/mnt/disk/raspbian-tee/optee_os/lib/libutee/trace_ext.c:55
    170c:	4620      	mov	r0, r4
    170e:	f7ff ffcd 	bl	16ac <trace_ext_puts>
/mnt/disk/raspbian-tee/optee_os/lib/libutee/trace_ext.c:56
    1712:	4803      	ldr	r0, [pc, #12]	; (1720 <puts+0x20>)
    1714:	4478      	add	r0, pc
    1716:	f7ff ffc9 	bl	16ac <trace_ext_puts>
/mnt/disk/raspbian-tee/optee_os/lib/libutee/trace_ext.c:59
    171a:	2001      	movs	r0, #1
    171c:	bd10      	pop	{r4, pc}
    171e:	bf00      	nop
    1720:	000054cc 	.word	0x000054cc

00001724 <putchar>:
putchar():
/mnt/disk/raspbian-tee/optee_os/lib/libutee/trace_ext.c:62
    1724:	b513      	push	{r0, r1, r4, lr}
/mnt/disk/raspbian-tee/optee_os/lib/libutee/trace_ext.c:63
    1726:	2300      	movs	r3, #0
/mnt/disk/raspbian-tee/optee_os/lib/libutee/trace_ext.c:62
    1728:	4604      	mov	r4, r0
/mnt/disk/raspbian-tee/optee_os/lib/libutee/trace_ext.c:63
    172a:	f88d 0004 	strb.w	r0, [sp, #4]
    172e:	f88d 3005 	strb.w	r3, [sp, #5]
/mnt/disk/raspbian-tee/optee_os/lib/libutee/trace_ext.c:65
    1732:	f7ff fe7b 	bl	142c <trace_get_level>
    1736:	2800      	cmp	r0, #0
    1738:	dd02      	ble.n	1740 <putchar+0x1c>
/mnt/disk/raspbian-tee/optee_os/lib/libutee/trace_ext.c:66
    173a:	a801      	add	r0, sp, #4
    173c:	f7ff ffb6 	bl	16ac <trace_ext_puts>
/mnt/disk/raspbian-tee/optee_os/lib/libutee/trace_ext.c:73
    1740:	b2e0      	uxtb	r0, r4
    1742:	b002      	add	sp, #8
    1744:	bd10      	pop	{r4, pc}
    1746:	bf00      	nop

00001748 <__utee_from_param>:
__utee_from_param():
/mnt/disk/raspbian-tee/optee_os/lib/libutee/tee_api.c:23
    1748:	2300      	movs	r3, #0
/mnt/disk/raspbian-tee/optee_os/lib/libutee/tee_api.c:20
    174a:	b5f0      	push	{r4, r5, r6, r7, lr}
    174c:	4694      	mov	ip, r2
    174e:	4615      	mov	r5, r2
/mnt/disk/raspbian-tee/optee_os/lib/libutee/tee_api.c:39
    1750:	2600      	movs	r6, #0
    1752:	2700      	movs	r7, #0
/mnt/disk/raspbian-tee/optee_os/lib/libutee/tee_api.c:35
    1754:	461a      	mov	r2, r3
/mnt/disk/raspbian-tee/optee_os/lib/libutee/tee_api.c:23
    1756:	e880 000a 	stmia.w	r0, {r1, r3}
/mnt/disk/raspbian-tee/optee_os/lib/libutee/tee_api.c:25
    175a:	fa21 f403 	lsr.w	r4, r1, r3
    175e:	f004 040f 	and.w	r4, r4, #15
    1762:	3c01      	subs	r4, #1
    1764:	2c06      	cmp	r4, #6
    1766:	d812      	bhi.n	178e <__utee_from_param+0x46>
    1768:	e8df f004 	tbb	[pc, r4]
    176c:	11040404 	.word	0x11040404
    1770:	0404      	.short	0x0404
    1772:	04          	.byte	0x04
    1773:	00          	.byte	0x00
/mnt/disk/raspbian-tee/optee_os/lib/libutee/tee_api.c:35
    1774:	f85c 4013 	ldr.w	r4, [ip, r3, lsl #1]
    1778:	6084      	str	r4, [r0, #8]
    177a:	60c2      	str	r2, [r0, #12]
/mnt/disk/raspbian-tee/optee_os/lib/libutee/tee_api.c:36
    177c:	686c      	ldr	r4, [r5, #4]
    177e:	6104      	str	r4, [r0, #16]
    1780:	6142      	str	r2, [r0, #20]
    1782:	3304      	adds	r3, #4
    1784:	3508      	adds	r5, #8
    1786:	3010      	adds	r0, #16
/mnt/disk/raspbian-tee/optee_os/lib/libutee/tee_api.c:24 (discriminator 2)
    1788:	2b10      	cmp	r3, #16
    178a:	d1e6      	bne.n	175a <__utee_from_param+0x12>
/mnt/disk/raspbian-tee/optee_os/lib/libutee/tee_api.c:44
    178c:	bdf0      	pop	{r4, r5, r6, r7, pc}
/mnt/disk/raspbian-tee/optee_os/lib/libutee/tee_api.c:39
    178e:	e9c0 6702 	strd	r6, r7, [r0, #8]
/mnt/disk/raspbian-tee/optee_os/lib/libutee/tee_api.c:40
    1792:	e9c0 6704 	strd	r6, r7, [r0, #16]
/mnt/disk/raspbian-tee/optee_os/lib/libutee/tee_api.c:41
    1796:	e7f4      	b.n	1782 <__utee_from_param+0x3a>

00001798 <__utee_to_param>:
__utee_to_param():
/mnt/disk/raspbian-tee/optee_os/lib/libutee/tee_api.c:48
    1798:	b5f0      	push	{r4, r5, r6, r7, lr}
/mnt/disk/raspbian-tee/optee_os/lib/libutee/tee_api.c:50
    179a:	2300      	movs	r3, #0
    179c:	6816      	ldr	r6, [r2, #0]
    179e:	4605      	mov	r5, r0
/mnt/disk/raspbian-tee/optee_os/lib/libutee/tee_api.c:56
    17a0:	fa26 f403 	lsr.w	r4, r6, r3
/mnt/disk/raspbian-tee/optee_os/lib/libutee/tee_api.c:53
    17a4:	f8d2 c008 	ldr.w	ip, [r2, #8]
/mnt/disk/raspbian-tee/optee_os/lib/libutee/tee_api.c:56
    17a8:	f004 040f 	and.w	r4, r4, #15
/mnt/disk/raspbian-tee/optee_os/lib/libutee/tee_api.c:54
    17ac:	6917      	ldr	r7, [r2, #16]
/mnt/disk/raspbian-tee/optee_os/lib/libutee/tee_api.c:56
    17ae:	3c01      	subs	r4, #1
    17b0:	2c06      	cmp	r4, #6
    17b2:	d808      	bhi.n	17c6 <__utee_to_param+0x2e>
    17b4:	e8df f004 	tbb	[pc, r4]
    17b8:	07040404 	.word	0x07040404
    17bc:	0404      	.short	0x0404
    17be:	04          	.byte	0x04
    17bf:	00          	.byte	0x00
/mnt/disk/raspbian-tee/optee_os/lib/libutee/tee_api.c:66
    17c0:	f840 c013 	str.w	ip, [r0, r3, lsl #1]
/mnt/disk/raspbian-tee/optee_os/lib/libutee/tee_api.c:67
    17c4:	606f      	str	r7, [r5, #4]
    17c6:	3304      	adds	r3, #4
    17c8:	3210      	adds	r2, #16
    17ca:	3508      	adds	r5, #8
/mnt/disk/raspbian-tee/optee_os/lib/libutee/tee_api.c:52 (discriminator 2)
    17cc:	2b10      	cmp	r3, #16
    17ce:	d1e7      	bne.n	17a0 <__utee_to_param+0x8>
/mnt/disk/raspbian-tee/optee_os/lib/libutee/tee_api.c:74
    17d0:	b101      	cbz	r1, 17d4 <__utee_to_param+0x3c>
/mnt/disk/raspbian-tee/optee_os/lib/libutee/tee_api.c:75
    17d2:	600e      	str	r6, [r1, #0]
    17d4:	bdf0      	pop	{r4, r5, r6, r7, pc}

000017d6 <TEE_OpenTASession>:
TEE_OpenTASession():
/mnt/disk/raspbian-tee/optee_os/lib/libutee/tee_api.c:84
    17d6:	b5f0      	push	{r4, r5, r6, r7, lr}
    17d8:	4605      	mov	r5, r0
    17da:	460f      	mov	r7, r1
    17dc:	b097      	sub	sp, #92	; 0x5c
    17de:	4611      	mov	r1, r2
/mnt/disk/raspbian-tee/optee_os/lib/libutee/tee_api.c:89
    17e0:	ac04      	add	r4, sp, #16
    17e2:	461a      	mov	r2, r3
    17e4:	4620      	mov	r0, r4
/mnt/disk/raspbian-tee/optee_os/lib/libutee/tee_api.c:84
    17e6:	461e      	mov	r6, r3
/mnt/disk/raspbian-tee/optee_os/lib/libutee/tee_api.c:89
    17e8:	f7ff ffae 	bl	1748 <__utee_from_param>
/mnt/disk/raspbian-tee/optee_os/lib/libutee/tee_api.c:90
    17ec:	9b1d      	ldr	r3, [sp, #116]	; 0x74
    17ee:	9300      	str	r3, [sp, #0]
    17f0:	4622      	mov	r2, r4
    17f2:	4639      	mov	r1, r7
    17f4:	4628      	mov	r0, r5
    17f6:	ab03      	add	r3, sp, #12
    17f8:	f000 ea60 	blx	1cbc <utee_open_ta_session>
/mnt/disk/raspbian-tee/optee_os/lib/libutee/tee_api.c:92
    17fc:	4622      	mov	r2, r4
/mnt/disk/raspbian-tee/optee_os/lib/libutee/tee_api.c:90
    17fe:	4605      	mov	r5, r0
/mnt/disk/raspbian-tee/optee_os/lib/libutee/tee_api.c:92
    1800:	2100      	movs	r1, #0
    1802:	4630      	mov	r0, r6
    1804:	f7ff ffc8 	bl	1798 <__utee_to_param>
/mnt/disk/raspbian-tee/optee_os/lib/libutee/tee_api.c:98
    1808:	b10d      	cbz	r5, 180e <TEE_OpenTASession+0x38>
/mnt/disk/raspbian-tee/optee_os/lib/libutee/tee_api.c:99
    180a:	2300      	movs	r3, #0
    180c:	9303      	str	r3, [sp, #12]
/mnt/disk/raspbian-tee/optee_os/lib/libutee/tee_api.c:101
    180e:	9b1c      	ldr	r3, [sp, #112]	; 0x70
/mnt/disk/raspbian-tee/optee_os/lib/libutee/tee_api.c:103
    1810:	4628      	mov	r0, r5
/mnt/disk/raspbian-tee/optee_os/lib/libutee/tee_api.c:101
    1812:	9a03      	ldr	r2, [sp, #12]
    1814:	601a      	str	r2, [r3, #0]
/mnt/disk/raspbian-tee/optee_os/lib/libutee/tee_api.c:103
    1816:	b017      	add	sp, #92	; 0x5c
    1818:	bdf0      	pop	{r4, r5, r6, r7, pc}

0000181a <TEE_CloseTASession>:
TEE_CloseTASession():
/mnt/disk/raspbian-tee/optee_os/lib/libutee/tee_api.c:106
    181a:	b508      	push	{r3, lr}
/mnt/disk/raspbian-tee/optee_os/lib/libutee/tee_api.c:107
    181c:	b130      	cbz	r0, 182c <TEE_CloseTASession+0x12>
/mnt/disk/raspbian-tee/optee_os/lib/libutee/tee_api.c:108
    181e:	f000 ea5a 	blx	1cd4 <utee_close_ta_session>
/mnt/disk/raspbian-tee/optee_os/lib/libutee/tee_api.c:110
    1822:	b118      	cbz	r0, 182c <TEE_CloseTASession+0x12>
/mnt/disk/raspbian-tee/optee_os/lib/libutee/tee_api.c:113
    1824:	e8bd 4008 	ldmia.w	sp!, {r3, lr}
/mnt/disk/raspbian-tee/optee_os/lib/libutee/tee_api.c:111
    1828:	f005 b810 	b.w	684c <TEE_Panic>
    182c:	bd08      	pop	{r3, pc}

0000182e <TEE_InvokeTACommand>:
TEE_InvokeTACommand():
/mnt/disk/raspbian-tee/optee_os/lib/libutee/tee_api.c:120
    182e:	e92d 41f0 	stmdb	sp!, {r4, r5, r6, r7, r8, lr}
    1832:	4604      	mov	r4, r0
    1834:	460f      	mov	r7, r1
    1836:	b096      	sub	sp, #88	; 0x58
/mnt/disk/raspbian-tee/optee_os/lib/libutee/tee_api.c:125
    1838:	4619      	mov	r1, r3
    183a:	ad04      	add	r5, sp, #16
/mnt/disk/raspbian-tee/optee_os/lib/libutee/tee_api.c:120
    183c:	4690      	mov	r8, r2
/mnt/disk/raspbian-tee/optee_os/lib/libutee/tee_api.c:125
    183e:	4628      	mov	r0, r5
/mnt/disk/raspbian-tee/optee_os/lib/libutee/tee_api.c:120
    1840:	9e1d      	ldr	r6, [sp, #116]	; 0x74
/mnt/disk/raspbian-tee/optee_os/lib/libutee/tee_api.c:125
    1842:	9a1c      	ldr	r2, [sp, #112]	; 0x70
    1844:	f7ff ff80 	bl	1748 <__utee_from_param>
/mnt/disk/raspbian-tee/optee_os/lib/libutee/tee_api.c:126
    1848:	ab03      	add	r3, sp, #12
    184a:	4642      	mov	r2, r8
    184c:	9300      	str	r3, [sp, #0]
    184e:	4639      	mov	r1, r7
    1850:	462b      	mov	r3, r5
    1852:	4620      	mov	r0, r4
    1854:	f000 ea48 	blx	1ce8 <utee_invoke_ta_command>
/mnt/disk/raspbian-tee/optee_os/lib/libutee/tee_api.c:129
    1858:	462a      	mov	r2, r5
/mnt/disk/raspbian-tee/optee_os/lib/libutee/tee_api.c:126
    185a:	4604      	mov	r4, r0
/mnt/disk/raspbian-tee/optee_os/lib/libutee/tee_api.c:129
    185c:	2100      	movs	r1, #0
    185e:	981c      	ldr	r0, [sp, #112]	; 0x70
    1860:	f7ff ff9a 	bl	1798 <__utee_to_param>
    1864:	9b03      	ldr	r3, [sp, #12]
/mnt/disk/raspbian-tee/optee_os/lib/libutee/tee_api.c:131
    1866:	b106      	cbz	r6, 186a <TEE_InvokeTACommand+0x3c>
/mnt/disk/raspbian-tee/optee_os/lib/libutee/tee_api.c:132
    1868:	6033      	str	r3, [r6, #0]
/mnt/disk/raspbian-tee/optee_os/lib/libutee/tee_api.c:134
    186a:	2b04      	cmp	r3, #4
    186c:	d009      	beq.n	1882 <TEE_InvokeTACommand+0x54>
/mnt/disk/raspbian-tee/optee_os/lib/libutee/tee_api.c:137
    186e:	b144      	cbz	r4, 1882 <TEE_InvokeTACommand+0x54>
/mnt/disk/raspbian-tee/optee_os/lib/libutee/tee_api.c:137 (discriminator 1)
    1870:	4b06      	ldr	r3, [pc, #24]	; (188c <TEE_InvokeTACommand+0x5e>)
    1872:	429c      	cmp	r4, r3
    1874:	d005      	beq.n	1882 <TEE_InvokeTACommand+0x54>
/mnt/disk/raspbian-tee/optee_os/lib/libutee/tee_api.c:138
    1876:	4b06      	ldr	r3, [pc, #24]	; (1890 <TEE_InvokeTACommand+0x62>)
    1878:	429c      	cmp	r4, r3
    187a:	d002      	beq.n	1882 <TEE_InvokeTACommand+0x54>
/mnt/disk/raspbian-tee/optee_os/lib/libutee/tee_api.c:140
    187c:	4620      	mov	r0, r4
    187e:	f004 ffe5 	bl	684c <TEE_Panic>
/mnt/disk/raspbian-tee/optee_os/lib/libutee/tee_api.c:143
    1882:	4620      	mov	r0, r4
    1884:	b016      	add	sp, #88	; 0x58
    1886:	e8bd 81f0 	ldmia.w	sp!, {r4, r5, r6, r7, r8, pc}
    188a:	bf00      	nop
    188c:	ffff000c 	.word	0xffff000c
    1890:	ffff3024 	.word	0xffff3024

00001894 <TEE_GetCancellationFlag>:
TEE_GetCancellationFlag():
/mnt/disk/raspbian-tee/optee_os/lib/libutee/tee_api.c:148
    1894:	b507      	push	{r0, r1, r2, lr}
/mnt/disk/raspbian-tee/optee_os/lib/libutee/tee_api.c:150
    1896:	a801      	add	r0, sp, #4
    1898:	f000 ea32 	blx	1d00 <utee_get_cancellation_flag>
/mnt/disk/raspbian-tee/optee_os/lib/libutee/tee_api.c:152
    189c:	b108      	cbz	r0, 18a2 <TEE_GetCancellationFlag+0xe>
/mnt/disk/raspbian-tee/optee_os/lib/libutee/tee_api.c:153
    189e:	2300      	movs	r3, #0
    18a0:	9301      	str	r3, [sp, #4]
/mnt/disk/raspbian-tee/optee_os/lib/libutee/tee_api.c:155
    18a2:	9801      	ldr	r0, [sp, #4]
    18a4:	3000      	adds	r0, #0
    18a6:	bf18      	it	ne
    18a8:	2001      	movne	r0, #1
    18aa:	b003      	add	sp, #12
    18ac:	f85d fb04 	ldr.w	pc, [sp], #4

000018b0 <TEE_UnmaskCancellation>:
TEE_UnmaskCancellation():
/mnt/disk/raspbian-tee/optee_os/lib/libutee/tee_api.c:158
    18b0:	b507      	push	{r0, r1, r2, lr}
/mnt/disk/raspbian-tee/optee_os/lib/libutee/tee_api.c:160
    18b2:	a801      	add	r0, sp, #4
    18b4:	f000 ea38 	blx	1d28 <utee_unmask_cancellation>
/mnt/disk/raspbian-tee/optee_os/lib/libutee/tee_api.c:162
    18b8:	b108      	cbz	r0, 18be <TEE_UnmaskCancellation+0xe>
/mnt/disk/raspbian-tee/optee_os/lib/libutee/tee_api.c:163
    18ba:	f004 ffc7 	bl	684c <TEE_Panic>
/mnt/disk/raspbian-tee/optee_os/lib/libutee/tee_api.c:165
    18be:	9801      	ldr	r0, [sp, #4]
    18c0:	3000      	adds	r0, #0
    18c2:	bf18      	it	ne
    18c4:	2001      	movne	r0, #1
    18c6:	b003      	add	sp, #12
    18c8:	f85d fb04 	ldr.w	pc, [sp], #4

000018cc <TEE_MaskCancellation>:
TEE_MaskCancellation():
/mnt/disk/raspbian-tee/optee_os/lib/libutee/tee_api.c:168
    18cc:	b507      	push	{r0, r1, r2, lr}
/mnt/disk/raspbian-tee/optee_os/lib/libutee/tee_api.c:170
    18ce:	a801      	add	r0, sp, #4
    18d0:	f000 ea34 	blx	1d3c <utee_mask_cancellation>
/mnt/disk/raspbian-tee/optee_os/lib/libutee/tee_api.c:172
    18d4:	b108      	cbz	r0, 18da <TEE_MaskCancellation+0xe>
/mnt/disk/raspbian-tee/optee_os/lib/libutee/tee_api.c:173
    18d6:	f004 ffb9 	bl	684c <TEE_Panic>
/mnt/disk/raspbian-tee/optee_os/lib/libutee/tee_api.c:175
    18da:	9801      	ldr	r0, [sp, #4]
    18dc:	3000      	adds	r0, #0
    18de:	bf18      	it	ne
    18e0:	2001      	movne	r0, #1
    18e2:	b003      	add	sp, #12
    18e4:	f85d fb04 	ldr.w	pc, [sp], #4

000018e8 <TEE_CheckMemoryAccessRights>:
TEE_CheckMemoryAccessRights():
/mnt/disk/raspbian-tee/optee_os/lib/libutee/tee_api.c:184
    18e8:	b10a      	cbz	r2, 18ee <TEE_CheckMemoryAccessRights+0x6>
/mnt/disk/raspbian-tee/optee_os/lib/libutee/tee_api.c:188
    18ea:	f004 bff5 	b.w	68d8 <__utee_check_access_rights_from_thumb>
/mnt/disk/raspbian-tee/optee_os/lib/libutee/tee_api.c:200
    18ee:	4610      	mov	r0, r2
    18f0:	4770      	bx	lr

000018f2 <TEE_SetInstanceData>:
TEE_SetInstanceData():
/mnt/disk/raspbian-tee/optee_os/lib/libutee/tee_api.c:204
    18f2:	4b02      	ldr	r3, [pc, #8]	; (18fc <TEE_SetInstanceData+0xa>)
    18f4:	447b      	add	r3, pc
    18f6:	6018      	str	r0, [r3, #0]
    18f8:	4770      	bx	lr
    18fa:	bf00      	nop
    18fc:	000077a4 	.word	0x000077a4

00001900 <TEE_GetInstanceData>:
TEE_GetInstanceData():
/mnt/disk/raspbian-tee/optee_os/lib/libutee/tee_api.c:210
    1900:	4b01      	ldr	r3, [pc, #4]	; (1908 <TEE_GetInstanceData+0x8>)
    1902:	447b      	add	r3, pc
    1904:	6818      	ldr	r0, [r3, #0]
    1906:	4770      	bx	lr
    1908:	00007796 	.word	0x00007796

0000190c <TEE_MemMove>:
TEE_MemMove():
/mnt/disk/raspbian-tee/optee_os/lib/libutee/tee_api.c:214
    190c:	f004 bfaf 	b.w	686e <memmove>

00001910 <TEE_MemCompare>:
TEE_MemCompare():
/mnt/disk/raspbian-tee/optee_os/lib/libutee/tee_api.c:219
    1910:	f004 bf9e 	b.w	6850 <memcmp>

00001914 <TEE_MemFill>:
TEE_MemFill():
/mnt/disk/raspbian-tee/optee_os/lib/libutee/tee_api.c:224
    1914:	f004 bebc 	b.w	6690 <memset>

00001918 <TEE_GetSystemTime>:
TEE_GetSystemTime():
/mnt/disk/raspbian-tee/optee_os/lib/libutee/tee_api.c:230
    1918:	b508      	push	{r3, lr}
/mnt/disk/raspbian-tee/optee_os/lib/libutee/tee_api.c:231
    191a:	4601      	mov	r1, r0
    191c:	2000      	movs	r0, #0
    191e:	f000 ea22 	blx	1d64 <utee_get_time>
/mnt/disk/raspbian-tee/optee_os/lib/libutee/tee_api.c:233
    1922:	b118      	cbz	r0, 192c <TEE_GetSystemTime+0x14>
/mnt/disk/raspbian-tee/optee_os/lib/libutee/tee_api.c:235
    1924:	e8bd 4008 	ldmia.w	sp!, {r3, lr}
/mnt/disk/raspbian-tee/optee_os/lib/libutee/tee_api.c:234
    1928:	f004 bf90 	b.w	684c <TEE_Panic>
    192c:	bd08      	pop	{r3, pc}

0000192e <TEE_Wait>:
TEE_Wait():
/mnt/disk/raspbian-tee/optee_os/lib/libutee/tee_api.c:238
    192e:	b510      	push	{r4, lr}
/mnt/disk/raspbian-tee/optee_os/lib/libutee/tee_api.c:239
    1930:	f000 ea0e 	blx	1d50 <utee_wait>
/mnt/disk/raspbian-tee/optee_os/lib/libutee/tee_api.c:241
    1934:	4604      	mov	r4, r0
    1936:	b120      	cbz	r0, 1942 <TEE_Wait+0x14>
/mnt/disk/raspbian-tee/optee_os/lib/libutee/tee_api.c:241 (discriminator 1)
    1938:	4b03      	ldr	r3, [pc, #12]	; (1948 <TEE_Wait+0x1a>)
    193a:	4298      	cmp	r0, r3
    193c:	d001      	beq.n	1942 <TEE_Wait+0x14>
/mnt/disk/raspbian-tee/optee_os/lib/libutee/tee_api.c:242
    193e:	f004 ff85 	bl	684c <TEE_Panic>
/mnt/disk/raspbian-tee/optee_os/lib/libutee/tee_api.c:245
    1942:	4620      	mov	r0, r4
    1944:	bd10      	pop	{r4, pc}
    1946:	bf00      	nop
    1948:	ffff0002 	.word	0xffff0002

0000194c <TEE_GetTAPersistentTime>:
TEE_GetTAPersistentTime():
/mnt/disk/raspbian-tee/optee_os/lib/libutee/tee_api.c:248
    194c:	b538      	push	{r3, r4, r5, lr}
/mnt/disk/raspbian-tee/optee_os/lib/libutee/tee_api.c:251
    194e:	4601      	mov	r1, r0
/mnt/disk/raspbian-tee/optee_os/lib/libutee/tee_api.c:248
    1950:	4605      	mov	r5, r0
/mnt/disk/raspbian-tee/optee_os/lib/libutee/tee_api.c:251
    1952:	2001      	movs	r0, #1
    1954:	f000 ea06 	blx	1d64 <utee_get_time>
/mnt/disk/raspbian-tee/optee_os/lib/libutee/tee_api.c:253
    1958:	4604      	mov	r4, r0
    195a:	b170      	cbz	r0, 197a <TEE_GetTAPersistentTime+0x2e>
/mnt/disk/raspbian-tee/optee_os/lib/libutee/tee_api.c:253 (discriminator 1)
    195c:	4b08      	ldr	r3, [pc, #32]	; (1980 <TEE_GetTAPersistentTime+0x34>)
    195e:	4298      	cmp	r0, r3
    1960:	d00b      	beq.n	197a <TEE_GetTAPersistentTime+0x2e>
/mnt/disk/raspbian-tee/optee_os/lib/libutee/tee_api.c:254
    1962:	2300      	movs	r3, #0
    1964:	602b      	str	r3, [r5, #0]
/mnt/disk/raspbian-tee/optee_os/lib/libutee/tee_api.c:255
    1966:	606b      	str	r3, [r5, #4]
/mnt/disk/raspbian-tee/optee_os/lib/libutee/tee_api.c:258
    1968:	f500 4330 	add.w	r3, r0, #45056	; 0xb000
    196c:	2b01      	cmp	r3, #1
    196e:	d904      	bls.n	197a <TEE_GetTAPersistentTime+0x2e>
/mnt/disk/raspbian-tee/optee_os/lib/libutee/tee_api.c:261
    1970:	4b04      	ldr	r3, [pc, #16]	; (1984 <TEE_GetTAPersistentTime+0x38>)
    1972:	4298      	cmp	r0, r3
    1974:	d001      	beq.n	197a <TEE_GetTAPersistentTime+0x2e>
/mnt/disk/raspbian-tee/optee_os/lib/libutee/tee_api.c:263
    1976:	f004 ff69 	bl	684c <TEE_Panic>
/mnt/disk/raspbian-tee/optee_os/lib/libutee/tee_api.c:266
    197a:	4620      	mov	r0, r4
    197c:	bd38      	pop	{r3, r4, r5, pc}
    197e:	bf00      	nop
    1980:	ffff300f 	.word	0xffff300f
    1984:	ffff000c 	.word	0xffff000c

00001988 <TEE_SetTAPersistentTime>:
TEE_SetTAPersistentTime():
/mnt/disk/raspbian-tee/optee_os/lib/libutee/tee_api.c:269
    1988:	b510      	push	{r4, lr}
/mnt/disk/raspbian-tee/optee_os/lib/libutee/tee_api.c:272
    198a:	f000 e9f6 	blx	1d78 <utee_set_ta_time>
/mnt/disk/raspbian-tee/optee_os/lib/libutee/tee_api.c:274
    198e:	4604      	mov	r4, r0
    1990:	b138      	cbz	r0, 19a2 <TEE_SetTAPersistentTime+0x1a>
/mnt/disk/raspbian-tee/optee_os/lib/libutee/tee_api.c:274 (discriminator 1)
    1992:	4b05      	ldr	r3, [pc, #20]	; (19a8 <TEE_SetTAPersistentTime+0x20>)
    1994:	4298      	cmp	r0, r3
    1996:	d004      	beq.n	19a2 <TEE_SetTAPersistentTime+0x1a>
/mnt/disk/raspbian-tee/optee_os/lib/libutee/tee_api.c:275
    1998:	4b04      	ldr	r3, [pc, #16]	; (19ac <TEE_SetTAPersistentTime+0x24>)
    199a:	4298      	cmp	r0, r3
    199c:	d001      	beq.n	19a2 <TEE_SetTAPersistentTime+0x1a>
/mnt/disk/raspbian-tee/optee_os/lib/libutee/tee_api.c:277
    199e:	f004 ff55 	bl	684c <TEE_Panic>
/mnt/disk/raspbian-tee/optee_os/lib/libutee/tee_api.c:280
    19a2:	4620      	mov	r0, r4
    19a4:	bd10      	pop	{r4, pc}
    19a6:	bf00      	nop
    19a8:	ffff000c 	.word	0xffff000c
    19ac:	ffff3041 	.word	0xffff3041

000019b0 <TEE_GetREETime>:
TEE_GetREETime():
/mnt/disk/raspbian-tee/optee_os/lib/libutee/tee_api.c:283
    19b0:	b508      	push	{r3, lr}
/mnt/disk/raspbian-tee/optee_os/lib/libutee/tee_api.c:284
    19b2:	4601      	mov	r1, r0
    19b4:	2002      	movs	r0, #2
    19b6:	f000 e9d6 	blx	1d64 <utee_get_time>
/mnt/disk/raspbian-tee/optee_os/lib/libutee/tee_api.c:286
    19ba:	b118      	cbz	r0, 19c4 <TEE_GetREETime+0x14>
/mnt/disk/raspbian-tee/optee_os/lib/libutee/tee_api.c:288
    19bc:	e8bd 4008 	ldmia.w	sp!, {r3, lr}
/mnt/disk/raspbian-tee/optee_os/lib/libutee/tee_api.c:287
    19c0:	f004 bf44 	b.w	684c <TEE_Panic>
    19c4:	bd08      	pop	{r3, pc}

000019c6 <TEE_Malloc>:
TEE_Malloc():
/mnt/disk/raspbian-tee/optee_os/lib/libutee/tee_api.c:291
    19c6:	b507      	push	{r0, r1, r2, lr}
/mnt/disk/raspbian-tee/optee_os/lib/libutee/tee_api.c:292
    19c8:	b931      	cbnz	r1, 19d8 <TEE_Malloc+0x12>
/mnt/disk/raspbian-tee/optee_os/lib/libutee/tee_api.c:293
    19ca:	4601      	mov	r1, r0
    19cc:	2001      	movs	r0, #1
/mnt/disk/raspbian-tee/optee_os/lib/libutee/tee_api.c:300
    19ce:	b003      	add	sp, #12
    19d0:	f85d eb04 	ldr.w	lr, [sp], #4
/mnt/disk/raspbian-tee/optee_os/lib/libutee/tee_api.c:293
    19d4:	f004 baf2 	b.w	5fbc <calloc>
/mnt/disk/raspbian-tee/optee_os/lib/libutee/tee_api.c:294
    19d8:	f1b1 4f00 	cmp.w	r1, #2147483648	; 0x80000000
    19dc:	d104      	bne.n	19e8 <TEE_Malloc+0x22>
/mnt/disk/raspbian-tee/optee_os/lib/libutee/tee_api.c:300
    19de:	b003      	add	sp, #12
    19e0:	f85d eb04 	ldr.w	lr, [sp], #4
/mnt/disk/raspbian-tee/optee_os/lib/libutee/tee_api.c:295
    19e4:	f004 bae0 	b.w	5fa8 <malloc>
/mnt/disk/raspbian-tee/optee_os/lib/libutee/tee_api.c:297
    19e8:	4b07      	ldr	r3, [pc, #28]	; (1a08 <TEE_Malloc+0x42>)
    19ea:	4808      	ldr	r0, [pc, #32]	; (1a0c <TEE_Malloc+0x46>)
    19ec:	447b      	add	r3, pc
    19ee:	9300      	str	r3, [sp, #0]
    19f0:	2301      	movs	r3, #1
    19f2:	9101      	str	r1, [sp, #4]
    19f4:	461a      	mov	r2, r3
    19f6:	f240 1129 	movw	r1, #297	; 0x129
    19fa:	4478      	add	r0, pc
    19fc:	f7ff fd20 	bl	1440 <trace_printf>
/mnt/disk/raspbian-tee/optee_os/lib/libutee/tee_api.c:300
    1a00:	2000      	movs	r0, #0
    1a02:	b003      	add	sp, #12
    1a04:	f85d fb04 	ldr.w	pc, [sp], #4
    1a08:	00005494 	.word	0x00005494
    1a0c:	0000547b 	.word	0x0000547b

00001a10 <TEE_Realloc>:
TEE_Realloc():
/mnt/disk/raspbian-tee/optee_os/lib/libutee/tee_api.c:304
    1a10:	f004 baf8 	b.w	6004 <realloc>

00001a14 <TEE_Free>:
TEE_Free():
/mnt/disk/raspbian-tee/optee_os/lib/libutee/tee_api.c:309
    1a14:	f004 bac9 	b.w	5faa <free>

00001a18 <TEE_CacheClean>:
TEE_CacheClean():
/mnt/disk/raspbian-tee/optee_os/lib/libutee/tee_api.c:315
    1a18:	2200      	movs	r2, #0
    1a1a:	f004 bf4d 	b.w	68b8 <__utee_cache_operation_from_thumb>

00001a1e <TEE_CacheFlush>:
TEE_CacheFlush():
/mnt/disk/raspbian-tee/optee_os/lib/libutee/tee_api.c:319
    1a1e:	2201      	movs	r2, #1
    1a20:	f004 bf4a 	b.w	68b8 <__utee_cache_operation_from_thumb>

00001a24 <TEE_CacheInvalidate>:
TEE_CacheInvalidate():
/mnt/disk/raspbian-tee/optee_os/lib/libutee/tee_api.c:324
    1a24:	2202      	movs	r2, #2
    1a26:	f004 bf47 	b.w	68b8 <__utee_cache_operation_from_thumb>
    1a2a:	bf00      	nop

00001a2c <ta_header_get_session>:
ta_header_get_session():
/mnt/disk/raspbian-tee/optee_os/lib/libutee/arch/arm/user_ta_entry.c:81
    1a2c:	4b05      	ldr	r3, [pc, #20]	; (1a44 <ta_header_get_session+0x18>)
    1a2e:	447b      	add	r3, pc
    1a30:	681b      	ldr	r3, [r3, #0]
/mnt/disk/raspbian-tee/optee_os/lib/libutee/arch/arm/user_ta_entry.c:81 (discriminator 1)
    1a32:	b90b      	cbnz	r3, 1a38 <ta_header_get_session+0xc>
/mnt/disk/raspbian-tee/optee_os/lib/libutee/arch/arm/user_ta_entry.c:86
    1a34:	4618      	mov	r0, r3
    1a36:	4770      	bx	lr
/mnt/disk/raspbian-tee/optee_os/lib/libutee/arch/arm/user_ta_entry.c:82
    1a38:	681a      	ldr	r2, [r3, #0]
    1a3a:	4282      	cmp	r2, r0
    1a3c:	d0fa      	beq.n	1a34 <ta_header_get_session+0x8>
/mnt/disk/raspbian-tee/optee_os/lib/libutee/arch/arm/user_ta_entry.c:81 (discriminator 2)
    1a3e:	689b      	ldr	r3, [r3, #8]
    1a40:	e7f7      	b.n	1a32 <ta_header_get_session+0x6>
    1a42:	bf00      	nop
    1a44:	00007646 	.word	0x00007646

00001a48 <ta_header_remove_session>:
ta_header_remove_session():
/mnt/disk/raspbian-tee/optee_os/lib/libutee/arch/arm/user_ta_entry.c:119
    1a48:	4b14      	ldr	r3, [pc, #80]	; (1a9c <ta_header_remove_session+0x54>)
/mnt/disk/raspbian-tee/optee_os/lib/libutee/arch/arm/user_ta_entry.c:115
    1a4a:	b510      	push	{r4, lr}
/mnt/disk/raspbian-tee/optee_os/lib/libutee/arch/arm/user_ta_entry.c:119
    1a4c:	447b      	add	r3, pc
/mnt/disk/raspbian-tee/optee_os/lib/libutee/arch/arm/user_ta_entry.c:115
    1a4e:	4c14      	ldr	r4, [pc, #80]	; (1aa0 <ta_header_remove_session+0x58>)
/mnt/disk/raspbian-tee/optee_os/lib/libutee/arch/arm/user_ta_entry.c:119
    1a50:	681b      	ldr	r3, [r3, #0]
/mnt/disk/raspbian-tee/optee_os/lib/libutee/arch/arm/user_ta_entry.c:115
    1a52:	447c      	add	r4, pc
/mnt/disk/raspbian-tee/optee_os/lib/libutee/arch/arm/user_ta_entry.c:119 (discriminator 1)
    1a54:	b903      	cbnz	r3, 1a58 <ta_header_remove_session+0x10>
    1a56:	bd10      	pop	{r4, pc}
/mnt/disk/raspbian-tee/optee_os/lib/libutee/arch/arm/user_ta_entry.c:120
    1a58:	681a      	ldr	r2, [r3, #0]
    1a5a:	4282      	cmp	r2, r0
    1a5c:	689a      	ldr	r2, [r3, #8]
    1a5e:	d11b      	bne.n	1a98 <ta_header_remove_session+0x50>
    1a60:	68d9      	ldr	r1, [r3, #12]
/mnt/disk/raspbian-tee/optee_os/lib/libutee/arch/arm/user_ta_entry.c:121
    1a62:	b1aa      	cbz	r2, 1a90 <ta_header_remove_session+0x48>
/mnt/disk/raspbian-tee/optee_os/lib/libutee/arch/arm/user_ta_entry.c:121 (discriminator 1)
    1a64:	60d1      	str	r1, [r2, #12]
/mnt/disk/raspbian-tee/optee_os/lib/libutee/arch/arm/user_ta_entry.c:121 (discriminator 4)
    1a66:	68d9      	ldr	r1, [r3, #12]
/mnt/disk/raspbian-tee/optee_os/lib/libutee/arch/arm/user_ta_entry.c:122 (discriminator 4)
    1a68:	4618      	mov	r0, r3
/mnt/disk/raspbian-tee/optee_os/lib/libutee/arch/arm/user_ta_entry.c:121 (discriminator 4)
    1a6a:	600a      	str	r2, [r1, #0]
/mnt/disk/raspbian-tee/optee_os/lib/libutee/arch/arm/user_ta_entry.c:122 (discriminator 4)
    1a6c:	f7ff ffd2 	bl	1a14 <TEE_Free>
/mnt/disk/raspbian-tee/optee_os/lib/libutee/arch/arm/user_ta_entry.c:127 (discriminator 4)
    1a70:	4b0c      	ldr	r3, [pc, #48]	; (1aa4 <ta_header_remove_session+0x5c>)
    1a72:	447b      	add	r3, pc
    1a74:	681b      	ldr	r3, [r3, #0]
    1a76:	2b00      	cmp	r3, #0
    1a78:	d1ed      	bne.n	1a56 <ta_header_remove_session+0xe>
/mnt/disk/raspbian-tee/optee_os/lib/libutee/arch/arm/user_ta_entry.c:125 (discriminator 1)
    1a7a:	4b0b      	ldr	r3, [pc, #44]	; (1aa8 <ta_header_remove_session+0x60>)
    1a7c:	58e3      	ldr	r3, [r4, r3]
    1a7e:	695b      	ldr	r3, [r3, #20]
    1a80:	f003 0314 	and.w	r3, r3, #20
/mnt/disk/raspbian-tee/optee_os/lib/libutee/arch/arm/user_ta_entry.c:127 (discriminator 1)
    1a84:	2b14      	cmp	r3, #20
    1a86:	d0e6      	beq.n	1a56 <ta_header_remove_session+0xe>
/mnt/disk/raspbian-tee/optee_os/lib/libutee/arch/arm/user_ta_entry.c:133
    1a88:	e8bd 4010 	ldmia.w	sp!, {r4, lr}
uninit_instance():
/mnt/disk/raspbian-tee/optee_os/lib/libutee/arch/arm/user_ta_entry.c:63
    1a8c:	f7fe badc 	b.w	48 <TA_DestroyEntryPoint>
ta_header_remove_session():
/mnt/disk/raspbian-tee/optee_os/lib/libutee/arch/arm/user_ta_entry.c:121 (discriminator 2)
    1a90:	4806      	ldr	r0, [pc, #24]	; (1aac <ta_header_remove_session+0x64>)
    1a92:	4478      	add	r0, pc
    1a94:	6041      	str	r1, [r0, #4]
    1a96:	e7e6      	b.n	1a66 <ta_header_remove_session+0x1e>
/mnt/disk/raspbian-tee/optee_os/lib/libutee/arch/arm/user_ta_entry.c:119 (discriminator 2)
    1a98:	4613      	mov	r3, r2
    1a9a:	e7db      	b.n	1a54 <ta_header_remove_session+0xc>
    1a9c:	00007628 	.word	0x00007628
    1aa0:	00006616 	.word	0x00006616
    1aa4:	00007602 	.word	0x00007602
    1aa8:	00000030 	.word	0x00000030
    1aac:	000075e2 	.word	0x000075e2

00001ab0 <__utee_entry>:
__utee_entry():
/mnt/disk/raspbian-tee/optee_os/lib/libutee/arch/arm/user_ta_entry.c:200
    1ab0:	b580      	push	{r7, lr}
    1ab2:	4616      	mov	r6, r2
    1ab4:	4c5a      	ldr	r4, [pc, #360]	; (1c20 <__utee_entry+0x170>)
    1ab6:	b08c      	sub	sp, #48	; 0x30
    1ab8:	460f      	mov	r7, r1
    1aba:	447c      	add	r4, pc
    1abc:	4698      	mov	r8, r3
/mnt/disk/raspbian-tee/optee_os/lib/libutee/arch/arm/user_ta_entry.c:211
    1abe:	2801      	cmp	r0, #1
    1ac0:	d074      	beq.n	1bac <__utee_entry+0xfc>
    1ac2:	d307      	bcc.n	1ad4 <__utee_entry+0x24>
    1ac4:	2802      	cmp	r0, #2
    1ac6:	d07e      	beq.n	1bc6 <__utee_entry+0x116>
/mnt/disk/raspbian-tee/optee_os/lib/libutee/arch/arm/user_ta_entry.c:223
    1ac8:	2000      	movs	r0, #0
/mnt/disk/raspbian-tee/optee_os/lib/libutee/arch/arm/user_ta_entry.c:222
    1aca:	f04f 34ff 	mov.w	r4, #4294967295	; 0xffffffff
/mnt/disk/raspbian-tee/optee_os/lib/libutee/arch/arm/user_ta_entry.c:223
    1ace:	f004 febd 	bl	684c <TEE_Panic>
/mnt/disk/raspbian-tee/optee_os/lib/libutee/arch/arm/user_ta_entry.c:224
    1ad2:	e026      	b.n	1b22 <__utee_entry+0x72>
ta_header_add_session():
/mnt/disk/raspbian-tee/optee_os/lib/libutee/arch/arm/user_ta_entry.c:90
    1ad4:	4608      	mov	r0, r1
    1ad6:	f7ff ffa9 	bl	1a2c <ta_header_get_session>
/mnt/disk/raspbian-tee/optee_os/lib/libutee/arch/arm/user_ta_entry.c:93
    1ada:	2800      	cmp	r0, #0
    1adc:	d138      	bne.n	1b50 <__utee_entry+0xa0>
/mnt/disk/raspbian-tee/optee_os/lib/libutee/arch/arm/user_ta_entry.c:96
    1ade:	4b51      	ldr	r3, [pc, #324]	; (1c24 <__utee_entry+0x174>)
    1ae0:	447b      	add	r3, pc
    1ae2:	781a      	ldrb	r2, [r3, #0]
    1ae4:	b13a      	cbz	r2, 1af6 <__utee_entry+0x46>
/mnt/disk/raspbian-tee/optee_os/lib/libutee/arch/arm/user_ta_entry.c:103
    1ae6:	f04f 4100 	mov.w	r1, #2147483648	; 0x80000000
    1aea:	2010      	movs	r0, #16
    1aec:	f7ff ff6b 	bl	19c6 <TEE_Malloc>
/mnt/disk/raspbian-tee/optee_os/lib/libutee/arch/arm/user_ta_entry.c:105
    1af0:	bb18      	cbnz	r0, 1b3a <__utee_entry+0x8a>
/mnt/disk/raspbian-tee/optee_os/lib/libutee/arch/arm/user_ta_entry.c:106
    1af2:	4c49      	ldr	r4, [pc, #292]	; (1c18 <__utee_entry+0x168>)
    1af4:	e015      	b.n	1b22 <__utee_entry+0x72>
/mnt/disk/raspbian-tee/optee_os/lib/libutee/arch/arm/user_ta_entry.c:97
    1af6:	2201      	movs	r2, #1
    1af8:	701a      	strb	r2, [r3, #0]
init_instance():
/mnt/disk/raspbian-tee/optee_os/lib/libutee/arch/arm/user_ta_entry.c:53
    1afa:	f004 fda5 	bl	6648 <tahead_get_trace_level>
    1afe:	f7ff fc86 	bl	140e <trace_set_level>
/mnt/disk/raspbian-tee/optee_os/lib/libutee/arch/arm/user_ta_entry.c:55
    1b02:	4b49      	ldr	r3, [pc, #292]	; (1c28 <__utee_entry+0x178>)
    1b04:	4a49      	ldr	r2, [pc, #292]	; (1c2c <__utee_entry+0x17c>)
    1b06:	58e3      	ldr	r3, [r4, r3]
    1b08:	58a2      	ldr	r2, [r4, r2]
    1b0a:	9201      	str	r2, [sp, #4]
    1b0c:	6819      	ldr	r1, [r3, #0]
    1b0e:	4610      	mov	r0, r2
    1b10:	f004 fbec 	bl	62ec <malloc_add_pool>
/mnt/disk/raspbian-tee/optee_os/lib/libutee/arch/arm/user_ta_entry.c:56
    1b14:	f000 fdc8 	bl	26a8 <_TEE_MathAPI_Init>
/mnt/disk/raspbian-tee/optee_os/lib/libutee/arch/arm/user_ta_entry.c:57
    1b18:	f7fe fa82 	bl	20 <TA_CreateEntryPoint>
ta_header_add_session():
/mnt/disk/raspbian-tee/optee_os/lib/libutee/arch/arm/user_ta_entry.c:99
    1b1c:	4604      	mov	r4, r0
    1b1e:	2800      	cmp	r0, #0
    1b20:	d0e1      	beq.n	1ae6 <__utee_entry+0x36>
ta_header_save_params():
/mnt/disk/raspbian-tee/optee_os/lib/libutee/arch/arm/user_ta_entry.c:69
    1b22:	4843      	ldr	r0, [pc, #268]	; (1c30 <__utee_entry+0x180>)
    1b24:	2100      	movs	r1, #0
/mnt/disk/raspbian-tee/optee_os/lib/libutee/arch/arm/user_ta_entry.c:74
    1b26:	2220      	movs	r2, #32
/mnt/disk/raspbian-tee/optee_os/lib/libutee/arch/arm/user_ta_entry.c:69
    1b28:	4478      	add	r0, pc
/mnt/disk/raspbian-tee/optee_os/lib/libutee/arch/arm/user_ta_entry.c:74
    1b2a:	3008      	adds	r0, #8
/mnt/disk/raspbian-tee/optee_os/lib/libutee/arch/arm/user_ta_entry.c:69
    1b2c:	f840 1c04 	str.w	r1, [r0, #-4]
/mnt/disk/raspbian-tee/optee_os/lib/libutee/arch/arm/user_ta_entry.c:74
    1b30:	f004 fdae 	bl	6690 <memset>
__utee_entry():
/mnt/disk/raspbian-tee/optee_os/lib/libutee/arch/arm/user_ta_entry.c:227
    1b34:	4620      	mov	r0, r4
    1b36:	f000 e88e 	blx	1c54 <utee_return>
ta_header_add_session():
/mnt/disk/raspbian-tee/optee_os/lib/libutee/arch/arm/user_ta_entry.c:108
    1b3a:	2300      	movs	r3, #0
    1b3c:	6043      	str	r3, [r0, #4]
/mnt/disk/raspbian-tee/optee_os/lib/libutee/arch/arm/user_ta_entry.c:109
    1b3e:	6083      	str	r3, [r0, #8]
    1b40:	4b3c      	ldr	r3, [pc, #240]	; (1c34 <__utee_entry+0x184>)
/mnt/disk/raspbian-tee/optee_os/lib/libutee/arch/arm/user_ta_entry.c:107
    1b42:	6007      	str	r7, [r0, #0]
/mnt/disk/raspbian-tee/optee_os/lib/libutee/arch/arm/user_ta_entry.c:109
    1b44:	447b      	add	r3, pc
    1b46:	685a      	ldr	r2, [r3, #4]
    1b48:	60c2      	str	r2, [r0, #12]
    1b4a:	6010      	str	r0, [r2, #0]
    1b4c:	3008      	adds	r0, #8
    1b4e:	6058      	str	r0, [r3, #4]
entry_open_session():
/mnt/disk/raspbian-tee/optee_os/lib/libutee/arch/arm/user_ta_entry.c:147
    1b50:	4638      	mov	r0, r7
    1b52:	f7ff ff6b 	bl	1a2c <ta_header_get_session>
/mnt/disk/raspbian-tee/optee_os/lib/libutee/arch/arm/user_ta_entry.c:148
    1b56:	4681      	mov	r9, r0
    1b58:	b908      	cbnz	r0, 1b5e <__utee_entry+0xae>
entry_close_session():
/mnt/disk/raspbian-tee/optee_os/lib/libutee/arch/arm/user_ta_entry.c:169
    1b5a:	4c30      	ldr	r4, [pc, #192]	; (1c1c <__utee_entry+0x16c>)
    1b5c:	e7e1      	b.n	1b22 <__utee_entry+0x72>
entry_open_session():
/mnt/disk/raspbian-tee/optee_os/lib/libutee/arch/arm/user_ta_entry.c:151
    1b5e:	f10d 0810 	add.w	r8, sp, #16
ta_header_save_params():
/mnt/disk/raspbian-tee/optee_os/lib/libutee/arch/arm/user_ta_entry.c:69
    1b62:	4c35      	ldr	r4, [pc, #212]	; (1c38 <__utee_entry+0x188>)
/mnt/disk/raspbian-tee/optee_os/lib/libutee/arch/arm/user_ta_entry.c:72
    1b64:	4645      	mov	r5, r8
entry_open_session():
/mnt/disk/raspbian-tee/optee_os/lib/libutee/arch/arm/user_ta_entry.c:151
    1b66:	4632      	mov	r2, r6
    1b68:	a903      	add	r1, sp, #12
    1b6a:	4640      	mov	r0, r8
ta_header_save_params():
/mnt/disk/raspbian-tee/optee_os/lib/libutee/arch/arm/user_ta_entry.c:69
    1b6c:	447c      	add	r4, pc
entry_open_session():
/mnt/disk/raspbian-tee/optee_os/lib/libutee/arch/arm/user_ta_entry.c:151
    1b6e:	f7ff fe13 	bl	1798 <__utee_to_param>
ta_header_save_params():
/mnt/disk/raspbian-tee/optee_os/lib/libutee/arch/arm/user_ta_entry.c:72
    1b72:	cd0f      	ldmia	r5!, {r0, r1, r2, r3}
    1b74:	3408      	adds	r4, #8
entry_open_session():
/mnt/disk/raspbian-tee/optee_os/lib/libutee/arch/arm/user_ta_entry.c:152
    1b76:	f8dd c00c 	ldr.w	ip, [sp, #12]
ta_header_save_params():
/mnt/disk/raspbian-tee/optee_os/lib/libutee/arch/arm/user_ta_entry.c:69
    1b7a:	f844 cc04 	str.w	ip, [r4, #-4]
/mnt/disk/raspbian-tee/optee_os/lib/libutee/arch/arm/user_ta_entry.c:72
    1b7e:	c40f      	stmia	r4!, {r0, r1, r2, r3}
    1b80:	e895 000f 	ldmia.w	r5, {r0, r1, r2, r3}
    1b84:	e884 000f 	stmia.w	r4, {r0, r1, r2, r3}
entry_open_session():
/mnt/disk/raspbian-tee/optee_os/lib/libutee/arch/arm/user_ta_entry.c:154
    1b88:	f109 0204 	add.w	r2, r9, #4
    1b8c:	4641      	mov	r1, r8
    1b8e:	4660      	mov	r0, ip
    1b90:	f7fe fa6e 	bl	70 <TA_OpenSessionEntryPoint>
/mnt/disk/raspbian-tee/optee_os/lib/libutee/arch/arm/user_ta_entry.c:157
    1b94:	4642      	mov	r2, r8
/mnt/disk/raspbian-tee/optee_os/lib/libutee/arch/arm/user_ta_entry.c:154
    1b96:	4604      	mov	r4, r0
/mnt/disk/raspbian-tee/optee_os/lib/libutee/arch/arm/user_ta_entry.c:157
    1b98:	9903      	ldr	r1, [sp, #12]
    1b9a:	4630      	mov	r0, r6
    1b9c:	f7ff fdd4 	bl	1748 <__utee_from_param>
/mnt/disk/raspbian-tee/optee_os/lib/libutee/arch/arm/user_ta_entry.c:159
    1ba0:	2c00      	cmp	r4, #0
    1ba2:	d0be      	beq.n	1b22 <__utee_entry+0x72>
/mnt/disk/raspbian-tee/optee_os/lib/libutee/arch/arm/user_ta_entry.c:160
    1ba4:	4638      	mov	r0, r7
    1ba6:	f7ff ff4f 	bl	1a48 <ta_header_remove_session>
    1baa:	e7ba      	b.n	1b22 <__utee_entry+0x72>
entry_close_session():
/mnt/disk/raspbian-tee/optee_os/lib/libutee/arch/arm/user_ta_entry.c:166
    1bac:	4608      	mov	r0, r1
    1bae:	f7ff ff3d 	bl	1a2c <ta_header_get_session>
/mnt/disk/raspbian-tee/optee_os/lib/libutee/arch/arm/user_ta_entry.c:168
    1bb2:	2800      	cmp	r0, #0
    1bb4:	d0d1      	beq.n	1b5a <__utee_entry+0xaa>
/mnt/disk/raspbian-tee/optee_os/lib/libutee/arch/arm/user_ta_entry.c:171
    1bb6:	6840      	ldr	r0, [r0, #4]
/mnt/disk/raspbian-tee/optee_os/lib/libutee/arch/arm/user_ta_entry.c:174
    1bb8:	2400      	movs	r4, #0
/mnt/disk/raspbian-tee/optee_os/lib/libutee/arch/arm/user_ta_entry.c:171
    1bba:	f7fe fa7f 	bl	bc <TA_CloseSessionEntryPoint>
/mnt/disk/raspbian-tee/optee_os/lib/libutee/arch/arm/user_ta_entry.c:173
    1bbe:	4638      	mov	r0, r7
    1bc0:	f7ff ff42 	bl	1a48 <ta_header_remove_session>
    1bc4:	e7ad      	b.n	1b22 <__utee_entry+0x72>
entry_invoke_command():
/mnt/disk/raspbian-tee/optee_os/lib/libutee/arch/arm/user_ta_entry.c:183
    1bc6:	4608      	mov	r0, r1
    1bc8:	f7ff ff30 	bl	1a2c <ta_header_get_session>
/mnt/disk/raspbian-tee/optee_os/lib/libutee/arch/arm/user_ta_entry.c:185
    1bcc:	4681      	mov	r9, r0
    1bce:	2800      	cmp	r0, #0
    1bd0:	d0c3      	beq.n	1b5a <__utee_entry+0xaa>
/mnt/disk/raspbian-tee/optee_os/lib/libutee/arch/arm/user_ta_entry.c:188
    1bd2:	af04      	add	r7, sp, #16
ta_header_save_params():
/mnt/disk/raspbian-tee/optee_os/lib/libutee/arch/arm/user_ta_entry.c:69
    1bd4:	4c19      	ldr	r4, [pc, #100]	; (1c3c <__utee_entry+0x18c>)
/mnt/disk/raspbian-tee/optee_os/lib/libutee/arch/arm/user_ta_entry.c:72
    1bd6:	463d      	mov	r5, r7
entry_invoke_command():
/mnt/disk/raspbian-tee/optee_os/lib/libutee/arch/arm/user_ta_entry.c:188
    1bd8:	4632      	mov	r2, r6
    1bda:	a903      	add	r1, sp, #12
    1bdc:	4638      	mov	r0, r7
ta_header_save_params():
/mnt/disk/raspbian-tee/optee_os/lib/libutee/arch/arm/user_ta_entry.c:69
    1bde:	447c      	add	r4, pc
entry_invoke_command():
/mnt/disk/raspbian-tee/optee_os/lib/libutee/arch/arm/user_ta_entry.c:188
    1be0:	f7ff fdda 	bl	1798 <__utee_to_param>
ta_header_save_params():
/mnt/disk/raspbian-tee/optee_os/lib/libutee/arch/arm/user_ta_entry.c:72
    1be4:	cd0f      	ldmia	r5!, {r0, r1, r2, r3}
    1be6:	3408      	adds	r4, #8
entry_invoke_command():
/mnt/disk/raspbian-tee/optee_os/lib/libutee/arch/arm/user_ta_entry.c:189
    1be8:	f8dd c00c 	ldr.w	ip, [sp, #12]
ta_header_save_params():
/mnt/disk/raspbian-tee/optee_os/lib/libutee/arch/arm/user_ta_entry.c:69
    1bec:	f844 cc04 	str.w	ip, [r4, #-4]
/mnt/disk/raspbian-tee/optee_os/lib/libutee/arch/arm/user_ta_entry.c:72
    1bf0:	c40f      	stmia	r4!, {r0, r1, r2, r3}
    1bf2:	e895 000f 	ldmia.w	r5, {r0, r1, r2, r3}
    1bf6:	e884 000f 	stmia.w	r4, {r0, r1, r2, r3}
entry_invoke_command():
/mnt/disk/raspbian-tee/optee_os/lib/libutee/arch/arm/user_ta_entry.c:191
    1bfa:	4662      	mov	r2, ip
    1bfc:	4641      	mov	r1, r8
    1bfe:	463b      	mov	r3, r7
    1c00:	f8d9 0004 	ldr.w	r0, [r9, #4]
    1c04:	f7fe ffb4 	bl	b70 <TA_InvokeCommandEntryPoint>
/mnt/disk/raspbian-tee/optee_os/lib/libutee/arch/arm/user_ta_entry.c:194
    1c08:	463a      	mov	r2, r7
/mnt/disk/raspbian-tee/optee_os/lib/libutee/arch/arm/user_ta_entry.c:191
    1c0a:	4604      	mov	r4, r0
/mnt/disk/raspbian-tee/optee_os/lib/libutee/arch/arm/user_ta_entry.c:194
    1c0c:	9903      	ldr	r1, [sp, #12]
    1c0e:	4630      	mov	r0, r6
    1c10:	f7ff fd9a 	bl	1748 <__utee_from_param>
    1c14:	e785      	b.n	1b22 <__utee_entry+0x72>
    1c16:	bf00      	nop
    1c18:	ffff000c 	.word	0xffff000c
    1c1c:	ffff0007 	.word	0xffff0007
    1c20:	000065ae 	.word	0x000065ae
    1c24:	000075bc 	.word	0x000075bc
    1c28:	00000010 	.word	0x00000010
    1c2c:	00000024 	.word	0x00000024
    1c30:	00007574 	.word	0x00007574
    1c34:	00007530 	.word	0x00007530
    1c38:	00007530 	.word	0x00007530
    1c3c:	000074be 	.word	0x000074be

00001c40 <utee_panic>:
utee_panic():
/mnt/disk/raspbian-tee/optee_os/lib/libutee/arch/arm/utee_syscalls_a32.S:47
    1c40:	e92d4fff 	push	{r0, r1, r2, r3, r4, r5, r6, r7, r8, r9, sl, fp, lr}
/mnt/disk/raspbian-tee/optee_os/lib/libutee/arch/arm/utee_syscalls_a32.S:49
    1c44:	e1a0e00f 	mov	lr, pc
/mnt/disk/raspbian-tee/optee_os/lib/libutee/arch/arm/utee_syscalls_a32.S:50
    1c48:	e52de004 	push	{lr}		; (str lr, [sp, #-4]!)
/mnt/disk/raspbian-tee/optee_os/lib/libutee/arch/arm/utee_syscalls_a32.S:52
    1c4c:	e1a0100d 	mov	r1, sp
/mnt/disk/raspbian-tee/optee_os/lib/libutee/arch/arm/utee_syscalls_a32.S:53
    1c50:	eb000009 	bl	1c7c <__utee_panic>

00001c54 <utee_return>:
utee_return():
/mnt/disk/raspbian-tee/optee_os/lib/libutee/arch/arm/utee_syscalls_asm.S:8
    1c54:	e92d40e0 	push	{r5, r6, r7, lr}
    1c58:	e3a07000 	mov	r7, #0
    1c5c:	e3a06000 	mov	r6, #0
    1c60:	ef000000 	svc	0x00000000
    1c64:	e8bd80e0 	pop	{r5, r6, r7, pc}

00001c68 <utee_log>:
utee_log():
/mnt/disk/raspbian-tee/optee_os/lib/libutee/arch/arm/utee_syscalls_asm.S:10
    1c68:	e92d40e0 	push	{r5, r6, r7, lr}
    1c6c:	e3a07001 	mov	r7, #1
    1c70:	e3a06000 	mov	r6, #0
    1c74:	ef000000 	svc	0x00000000
    1c78:	e8bd80e0 	pop	{r5, r6, r7, pc}

00001c7c <__utee_panic>:
__utee_panic():
/mnt/disk/raspbian-tee/optee_os/lib/libutee/arch/arm/utee_syscalls_asm.S:12
    1c7c:	e92d40e0 	push	{r5, r6, r7, lr}
    1c80:	e3a07002 	mov	r7, #2
    1c84:	e3a06000 	mov	r6, #0
    1c88:	ef000000 	svc	0x00000000
    1c8c:	e8bd80e0 	pop	{r5, r6, r7, pc}

00001c90 <utee_get_property>:
utee_get_property():
/mnt/disk/raspbian-tee/optee_os/lib/libutee/arch/arm/utee_syscalls_asm.S:14
    1c90:	e92d40e0 	push	{r5, r6, r7, lr}
    1c94:	e3a07003 	mov	r7, #3
    1c98:	e3a06003 	mov	r6, #3
    1c9c:	e28d5010 	add	r5, sp, #16
    1ca0:	ef000000 	svc	0x00000000
    1ca4:	e8bd80e0 	pop	{r5, r6, r7, pc}

00001ca8 <utee_get_property_name_to_index>:
utee_get_property_name_to_index():
/mnt/disk/raspbian-tee/optee_os/lib/libutee/arch/arm/utee_syscalls_asm.S:16
    1ca8:	e92d40e0 	push	{r5, r6, r7, lr}
    1cac:	e3a07004 	mov	r7, #4
    1cb0:	e3a06000 	mov	r6, #0
    1cb4:	ef000000 	svc	0x00000000
    1cb8:	e8bd80e0 	pop	{r5, r6, r7, pc}

00001cbc <utee_open_ta_session>:
utee_open_ta_session():
/mnt/disk/raspbian-tee/optee_os/lib/libutee/arch/arm/utee_syscalls_asm.S:19
    1cbc:	e92d40e0 	push	{r5, r6, r7, lr}
    1cc0:	e3a07005 	mov	r7, #5
    1cc4:	e3a06001 	mov	r6, #1
    1cc8:	e28d5010 	add	r5, sp, #16
    1ccc:	ef000000 	svc	0x00000000
    1cd0:	e8bd80e0 	pop	{r5, r6, r7, pc}

00001cd4 <utee_close_ta_session>:
utee_close_ta_session():
/mnt/disk/raspbian-tee/optee_os/lib/libutee/arch/arm/utee_syscalls_asm.S:21
    1cd4:	e92d40e0 	push	{r5, r6, r7, lr}
    1cd8:	e3a07006 	mov	r7, #6
    1cdc:	e3a06000 	mov	r6, #0
    1ce0:	ef000000 	svc	0x00000000
    1ce4:	e8bd80e0 	pop	{r5, r6, r7, pc}

00001ce8 <utee_invoke_ta_command>:
utee_invoke_ta_command():
/mnt/disk/raspbian-tee/optee_os/lib/libutee/arch/arm/utee_syscalls_asm.S:23
    1ce8:	e92d40e0 	push	{r5, r6, r7, lr}
    1cec:	e3a07007 	mov	r7, #7
    1cf0:	e3a06001 	mov	r6, #1
    1cf4:	e28d5010 	add	r5, sp, #16
    1cf8:	ef000000 	svc	0x00000000
    1cfc:	e8bd80e0 	pop	{r5, r6, r7, pc}

00001d00 <utee_get_cancellation_flag>:
utee_get_cancellation_flag():
/mnt/disk/raspbian-tee/optee_os/lib/libutee/arch/arm/utee_syscalls_asm.S:25
    1d00:	e92d40e0 	push	{r5, r6, r7, lr}
    1d04:	e3a07009 	mov	r7, #9
    1d08:	e3a06000 	mov	r6, #0
    1d0c:	ef000000 	svc	0x00000000
    1d10:	e8bd80e0 	pop	{r5, r6, r7, pc}

00001d14 <utee_check_access_rights>:
utee_check_access_rights():
/mnt/disk/raspbian-tee/optee_os/lib/libutee/arch/arm/utee_syscalls_asm.S:28
    1d14:	e92d40e0 	push	{r5, r6, r7, lr}
    1d18:	e3a07008 	mov	r7, #8
    1d1c:	e3a06000 	mov	r6, #0
    1d20:	ef000000 	svc	0x00000000
    1d24:	e8bd80e0 	pop	{r5, r6, r7, pc}

00001d28 <utee_unmask_cancellation>:
utee_unmask_cancellation():
/mnt/disk/raspbian-tee/optee_os/lib/libutee/arch/arm/utee_syscalls_asm.S:30
    1d28:	e92d40e0 	push	{r5, r6, r7, lr}
    1d2c:	e3a0700a 	mov	r7, #10
    1d30:	e3a06000 	mov	r6, #0
    1d34:	ef000000 	svc	0x00000000
    1d38:	e8bd80e0 	pop	{r5, r6, r7, pc}

00001d3c <utee_mask_cancellation>:
utee_mask_cancellation():
/mnt/disk/raspbian-tee/optee_os/lib/libutee/arch/arm/utee_syscalls_asm.S:32
    1d3c:	e92d40e0 	push	{r5, r6, r7, lr}
    1d40:	e3a0700b 	mov	r7, #11
    1d44:	e3a06000 	mov	r6, #0
    1d48:	ef000000 	svc	0x00000000
    1d4c:	e8bd80e0 	pop	{r5, r6, r7, pc}

00001d50 <utee_wait>:
utee_wait():
/mnt/disk/raspbian-tee/optee_os/lib/libutee/arch/arm/utee_syscalls_asm.S:34
    1d50:	e92d40e0 	push	{r5, r6, r7, lr}
    1d54:	e3a0700c 	mov	r7, #12
    1d58:	e3a06000 	mov	r6, #0
    1d5c:	ef000000 	svc	0x00000000
    1d60:	e8bd80e0 	pop	{r5, r6, r7, pc}

00001d64 <utee_get_time>:
utee_get_time():
/mnt/disk/raspbian-tee/optee_os/lib/libutee/arch/arm/utee_syscalls_asm.S:36
    1d64:	e92d40e0 	push	{r5, r6, r7, lr}
    1d68:	e3a0700d 	mov	r7, #13
    1d6c:	e3a06000 	mov	r6, #0
    1d70:	ef000000 	svc	0x00000000
    1d74:	e8bd80e0 	pop	{r5, r6, r7, pc}

00001d78 <utee_set_ta_time>:
utee_set_ta_time():
/mnt/disk/raspbian-tee/optee_os/lib/libutee/arch/arm/utee_syscalls_asm.S:38
    1d78:	e92d40e0 	push	{r5, r6, r7, lr}
    1d7c:	e3a0700e 	mov	r7, #14
    1d80:	e3a06000 	mov	r6, #0
    1d84:	ef000000 	svc	0x00000000
    1d88:	e8bd80e0 	pop	{r5, r6, r7, pc}

00001d8c <utee_cryp_state_alloc>:
utee_cryp_state_alloc():
/mnt/disk/raspbian-tee/optee_os/lib/libutee/arch/arm/utee_syscalls_asm.S:40
    1d8c:	e92d40e0 	push	{r5, r6, r7, lr}
    1d90:	e3a0700f 	mov	r7, #15
    1d94:	e3a06001 	mov	r6, #1
    1d98:	e28d5010 	add	r5, sp, #16
    1d9c:	ef000000 	svc	0x00000000
    1da0:	e8bd80e0 	pop	{r5, r6, r7, pc}

00001da4 <utee_cryp_state_copy>:
utee_cryp_state_copy():
/mnt/disk/raspbian-tee/optee_os/lib/libutee/arch/arm/utee_syscalls_asm.S:42
    1da4:	e92d40e0 	push	{r5, r6, r7, lr}
    1da8:	e3a07010 	mov	r7, #16
    1dac:	e3a06000 	mov	r6, #0
    1db0:	ef000000 	svc	0x00000000
    1db4:	e8bd80e0 	pop	{r5, r6, r7, pc}

00001db8 <utee_cryp_state_free>:
utee_cryp_state_free():
/mnt/disk/raspbian-tee/optee_os/lib/libutee/arch/arm/utee_syscalls_asm.S:44
    1db8:	e92d40e0 	push	{r5, r6, r7, lr}
    1dbc:	e3a07011 	mov	r7, #17
    1dc0:	e3a06000 	mov	r6, #0
    1dc4:	ef000000 	svc	0x00000000
    1dc8:	e8bd80e0 	pop	{r5, r6, r7, pc}

00001dcc <utee_hash_init>:
utee_hash_init():
/mnt/disk/raspbian-tee/optee_os/lib/libutee/arch/arm/utee_syscalls_asm.S:46
    1dcc:	e92d40e0 	push	{r5, r6, r7, lr}
    1dd0:	e3a07012 	mov	r7, #18
    1dd4:	e3a06000 	mov	r6, #0
    1dd8:	ef000000 	svc	0x00000000
    1ddc:	e8bd80e0 	pop	{r5, r6, r7, pc}

00001de0 <utee_hash_update>:
utee_hash_update():
/mnt/disk/raspbian-tee/optee_os/lib/libutee/arch/arm/utee_syscalls_asm.S:48
    1de0:	e92d40e0 	push	{r5, r6, r7, lr}
    1de4:	e3a07013 	mov	r7, #19
    1de8:	e3a06000 	mov	r6, #0
    1dec:	ef000000 	svc	0x00000000
    1df0:	e8bd80e0 	pop	{r5, r6, r7, pc}

00001df4 <utee_hash_final>:
utee_hash_final():
/mnt/disk/raspbian-tee/optee_os/lib/libutee/arch/arm/utee_syscalls_asm.S:50
    1df4:	e92d40e0 	push	{r5, r6, r7, lr}
    1df8:	e3a07014 	mov	r7, #20
    1dfc:	e3a06001 	mov	r6, #1
    1e00:	e28d5010 	add	r5, sp, #16
    1e04:	ef000000 	svc	0x00000000
    1e08:	e8bd80e0 	pop	{r5, r6, r7, pc}

00001e0c <utee_cipher_init>:
utee_cipher_init():
/mnt/disk/raspbian-tee/optee_os/lib/libutee/arch/arm/utee_syscalls_asm.S:52
    1e0c:	e92d40e0 	push	{r5, r6, r7, lr}
    1e10:	e3a07015 	mov	r7, #21
    1e14:	e3a06000 	mov	r6, #0
    1e18:	ef000000 	svc	0x00000000
    1e1c:	e8bd80e0 	pop	{r5, r6, r7, pc}

00001e20 <utee_cipher_update>:
utee_cipher_update():
/mnt/disk/raspbian-tee/optee_os/lib/libutee/arch/arm/utee_syscalls_asm.S:54
    1e20:	e92d40e0 	push	{r5, r6, r7, lr}
    1e24:	e3a07016 	mov	r7, #22
    1e28:	e3a06001 	mov	r6, #1
    1e2c:	e28d5010 	add	r5, sp, #16
    1e30:	ef000000 	svc	0x00000000
    1e34:	e8bd80e0 	pop	{r5, r6, r7, pc}

00001e38 <utee_cipher_final>:
utee_cipher_final():
/mnt/disk/raspbian-tee/optee_os/lib/libutee/arch/arm/utee_syscalls_asm.S:56
    1e38:	e92d40e0 	push	{r5, r6, r7, lr}
    1e3c:	e3a07017 	mov	r7, #23
    1e40:	e3a06001 	mov	r6, #1
    1e44:	e28d5010 	add	r5, sp, #16
    1e48:	ef000000 	svc	0x00000000
    1e4c:	e8bd80e0 	pop	{r5, r6, r7, pc}

00001e50 <utee_cryp_obj_get_info>:
utee_cryp_obj_get_info():
/mnt/disk/raspbian-tee/optee_os/lib/libutee/arch/arm/utee_syscalls_asm.S:58
    1e50:	e92d40e0 	push	{r5, r6, r7, lr}
    1e54:	e3a07018 	mov	r7, #24
    1e58:	e3a06000 	mov	r6, #0
    1e5c:	ef000000 	svc	0x00000000
    1e60:	e8bd80e0 	pop	{r5, r6, r7, pc}

00001e64 <utee_cryp_obj_restrict_usage>:
utee_cryp_obj_restrict_usage():
/mnt/disk/raspbian-tee/optee_os/lib/libutee/arch/arm/utee_syscalls_asm.S:60
    1e64:	e92d40e0 	push	{r5, r6, r7, lr}
    1e68:	e3a07019 	mov	r7, #25
    1e6c:	e3a06000 	mov	r6, #0
    1e70:	ef000000 	svc	0x00000000
    1e74:	e8bd80e0 	pop	{r5, r6, r7, pc}

00001e78 <utee_cryp_obj_get_attr>:
utee_cryp_obj_get_attr():
/mnt/disk/raspbian-tee/optee_os/lib/libutee/arch/arm/utee_syscalls_asm.S:63
    1e78:	e92d40e0 	push	{r5, r6, r7, lr}
    1e7c:	e3a0701a 	mov	r7, #26
    1e80:	e3a06000 	mov	r6, #0
    1e84:	ef000000 	svc	0x00000000
    1e88:	e8bd80e0 	pop	{r5, r6, r7, pc}

00001e8c <utee_cryp_obj_alloc>:
utee_cryp_obj_alloc():
/mnt/disk/raspbian-tee/optee_os/lib/libutee/arch/arm/utee_syscalls_asm.S:65
    1e8c:	e92d40e0 	push	{r5, r6, r7, lr}
    1e90:	e3a0701b 	mov	r7, #27
    1e94:	e3a06000 	mov	r6, #0
    1e98:	ef000000 	svc	0x00000000
    1e9c:	e8bd80e0 	pop	{r5, r6, r7, pc}

00001ea0 <utee_cryp_obj_close>:
utee_cryp_obj_close():
/mnt/disk/raspbian-tee/optee_os/lib/libutee/arch/arm/utee_syscalls_asm.S:67
    1ea0:	e92d40e0 	push	{r5, r6, r7, lr}
    1ea4:	e3a0701c 	mov	r7, #28
    1ea8:	e3a06000 	mov	r6, #0
    1eac:	ef000000 	svc	0x00000000
    1eb0:	e8bd80e0 	pop	{r5, r6, r7, pc}

00001eb4 <utee_cryp_obj_reset>:
utee_cryp_obj_reset():
/mnt/disk/raspbian-tee/optee_os/lib/libutee/arch/arm/utee_syscalls_asm.S:69
    1eb4:	e92d40e0 	push	{r5, r6, r7, lr}
    1eb8:	e3a0701d 	mov	r7, #29
    1ebc:	e3a06000 	mov	r6, #0
    1ec0:	ef000000 	svc	0x00000000
    1ec4:	e8bd80e0 	pop	{r5, r6, r7, pc}

00001ec8 <utee_cryp_obj_populate>:
utee_cryp_obj_populate():
/mnt/disk/raspbian-tee/optee_os/lib/libutee/arch/arm/utee_syscalls_asm.S:71
    1ec8:	e92d40e0 	push	{r5, r6, r7, lr}
    1ecc:	e3a0701e 	mov	r7, #30
    1ed0:	e3a06000 	mov	r6, #0
    1ed4:	ef000000 	svc	0x00000000
    1ed8:	e8bd80e0 	pop	{r5, r6, r7, pc}

00001edc <utee_cryp_obj_copy>:
utee_cryp_obj_copy():
/mnt/disk/raspbian-tee/optee_os/lib/libutee/arch/arm/utee_syscalls_asm.S:73
    1edc:	e92d40e0 	push	{r5, r6, r7, lr}
    1ee0:	e3a0701f 	mov	r7, #31
    1ee4:	e3a06000 	mov	r6, #0
    1ee8:	ef000000 	svc	0x00000000
    1eec:	e8bd80e0 	pop	{r5, r6, r7, pc}

00001ef0 <utee_cryp_derive_key>:
utee_cryp_derive_key():
/mnt/disk/raspbian-tee/optee_os/lib/libutee/arch/arm/utee_syscalls_asm.S:75
    1ef0:	e92d40e0 	push	{r5, r6, r7, lr}
    1ef4:	e3a07020 	mov	r7, #32
    1ef8:	e3a06000 	mov	r6, #0
    1efc:	ef000000 	svc	0x00000000
    1f00:	e8bd80e0 	pop	{r5, r6, r7, pc}

00001f04 <utee_cryp_random_number_generate>:
utee_cryp_random_number_generate():
/mnt/disk/raspbian-tee/optee_os/lib/libutee/arch/arm/utee_syscalls_asm.S:77
    1f04:	e92d40e0 	push	{r5, r6, r7, lr}
    1f08:	e3a07021 	mov	r7, #33	; 0x21
    1f0c:	e3a06000 	mov	r6, #0
    1f10:	ef000000 	svc	0x00000000
    1f14:	e8bd80e0 	pop	{r5, r6, r7, pc}

00001f18 <utee_authenc_init>:
utee_authenc_init():
/mnt/disk/raspbian-tee/optee_os/lib/libutee/arch/arm/utee_syscalls_asm.S:80
    1f18:	e92d40e0 	push	{r5, r6, r7, lr}
    1f1c:	e3a07022 	mov	r7, #34	; 0x22
    1f20:	e3a06002 	mov	r6, #2
    1f24:	e28d5010 	add	r5, sp, #16
    1f28:	ef000000 	svc	0x00000000
    1f2c:	e8bd80e0 	pop	{r5, r6, r7, pc}

00001f30 <utee_authenc_update_aad>:
utee_authenc_update_aad():
/mnt/disk/raspbian-tee/optee_os/lib/libutee/arch/arm/utee_syscalls_asm.S:82
    1f30:	e92d40e0 	push	{r5, r6, r7, lr}
    1f34:	e3a07023 	mov	r7, #35	; 0x23
    1f38:	e3a06000 	mov	r6, #0
    1f3c:	ef000000 	svc	0x00000000
    1f40:	e8bd80e0 	pop	{r5, r6, r7, pc}

00001f44 <utee_authenc_update_payload>:
utee_authenc_update_payload():
/mnt/disk/raspbian-tee/optee_os/lib/libutee/arch/arm/utee_syscalls_asm.S:84
    1f44:	e92d40e0 	push	{r5, r6, r7, lr}
    1f48:	e3a07024 	mov	r7, #36	; 0x24
    1f4c:	e3a06001 	mov	r6, #1
    1f50:	e28d5010 	add	r5, sp, #16
    1f54:	ef000000 	svc	0x00000000
    1f58:	e8bd80e0 	pop	{r5, r6, r7, pc}

00001f5c <utee_authenc_enc_final>:
utee_authenc_enc_final():
/mnt/disk/raspbian-tee/optee_os/lib/libutee/arch/arm/utee_syscalls_asm.S:87
    1f5c:	e92d40e0 	push	{r5, r6, r7, lr}
    1f60:	e3a07025 	mov	r7, #37	; 0x25
    1f64:	e3a06003 	mov	r6, #3
    1f68:	e28d5010 	add	r5, sp, #16
    1f6c:	ef000000 	svc	0x00000000
    1f70:	e8bd80e0 	pop	{r5, r6, r7, pc}

00001f74 <utee_authenc_dec_final>:
utee_authenc_dec_final():
/mnt/disk/raspbian-tee/optee_os/lib/libutee/arch/arm/utee_syscalls_asm.S:89
    1f74:	e92d40e0 	push	{r5, r6, r7, lr}
    1f78:	e3a07026 	mov	r7, #38	; 0x26
    1f7c:	e3a06003 	mov	r6, #3
    1f80:	e28d5010 	add	r5, sp, #16
    1f84:	ef000000 	svc	0x00000000
    1f88:	e8bd80e0 	pop	{r5, r6, r7, pc}

00001f8c <utee_asymm_operate>:
utee_asymm_operate():
/mnt/disk/raspbian-tee/optee_os/lib/libutee/arch/arm/utee_syscalls_asm.S:91
    1f8c:	e92d40e0 	push	{r5, r6, r7, lr}
    1f90:	e3a07027 	mov	r7, #39	; 0x27
    1f94:	e3a06003 	mov	r6, #3
    1f98:	e28d5010 	add	r5, sp, #16
    1f9c:	ef000000 	svc	0x00000000
    1fa0:	e8bd80e0 	pop	{r5, r6, r7, pc}

00001fa4 <utee_asymm_verify>:
utee_asymm_verify():
/mnt/disk/raspbian-tee/optee_os/lib/libutee/arch/arm/utee_syscalls_asm.S:93
    1fa4:	e92d40e0 	push	{r5, r6, r7, lr}
    1fa8:	e3a07028 	mov	r7, #40	; 0x28
    1fac:	e3a06003 	mov	r6, #3
    1fb0:	e28d5010 	add	r5, sp, #16
    1fb4:	ef000000 	svc	0x00000000
    1fb8:	e8bd80e0 	pop	{r5, r6, r7, pc}

00001fbc <utee_storage_obj_open>:
utee_storage_obj_open():
/mnt/disk/raspbian-tee/optee_os/lib/libutee/arch/arm/utee_syscalls_asm.S:95
    1fbc:	e92d40e0 	push	{r5, r6, r7, lr}
    1fc0:	e3a07029 	mov	r7, #41	; 0x29
    1fc4:	e3a06001 	mov	r6, #1
    1fc8:	e28d5010 	add	r5, sp, #16
    1fcc:	ef000000 	svc	0x00000000
    1fd0:	e8bd80e0 	pop	{r5, r6, r7, pc}

00001fd4 <utee_storage_obj_create>:
utee_storage_obj_create():
/mnt/disk/raspbian-tee/optee_os/lib/libutee/arch/arm/utee_syscalls_asm.S:97
    1fd4:	e92d40e0 	push	{r5, r6, r7, lr}
    1fd8:	e3a0702a 	mov	r7, #42	; 0x2a
    1fdc:	e3a06004 	mov	r6, #4
    1fe0:	e28d5010 	add	r5, sp, #16
    1fe4:	ef000000 	svc	0x00000000
    1fe8:	e8bd80e0 	pop	{r5, r6, r7, pc}

00001fec <utee_storage_obj_del>:
utee_storage_obj_del():
/mnt/disk/raspbian-tee/optee_os/lib/libutee/arch/arm/utee_syscalls_asm.S:99
    1fec:	e92d40e0 	push	{r5, r6, r7, lr}
    1ff0:	e3a0702b 	mov	r7, #43	; 0x2b
    1ff4:	e3a06000 	mov	r6, #0
    1ff8:	ef000000 	svc	0x00000000
    1ffc:	e8bd80e0 	pop	{r5, r6, r7, pc}

00002000 <utee_storage_obj_rename>:
utee_storage_obj_rename():
/mnt/disk/raspbian-tee/optee_os/lib/libutee/arch/arm/utee_syscalls_asm.S:101
    2000:	e92d40e0 	push	{r5, r6, r7, lr}
    2004:	e3a0702c 	mov	r7, #44	; 0x2c
    2008:	e3a06000 	mov	r6, #0
    200c:	ef000000 	svc	0x00000000
    2010:	e8bd80e0 	pop	{r5, r6, r7, pc}

00002014 <utee_storage_alloc_enum>:
utee_storage_alloc_enum():
/mnt/disk/raspbian-tee/optee_os/lib/libutee/arch/arm/utee_syscalls_asm.S:103
    2014:	e92d40e0 	push	{r5, r6, r7, lr}
    2018:	e3a0702d 	mov	r7, #45	; 0x2d
    201c:	e3a06000 	mov	r6, #0
    2020:	ef000000 	svc	0x00000000
    2024:	e8bd80e0 	pop	{r5, r6, r7, pc}

00002028 <utee_storage_free_enum>:
utee_storage_free_enum():
/mnt/disk/raspbian-tee/optee_os/lib/libutee/arch/arm/utee_syscalls_asm.S:105
    2028:	e92d40e0 	push	{r5, r6, r7, lr}
    202c:	e3a0702e 	mov	r7, #46	; 0x2e
    2030:	e3a06000 	mov	r6, #0
    2034:	ef000000 	svc	0x00000000
    2038:	e8bd80e0 	pop	{r5, r6, r7, pc}

0000203c <utee_storage_reset_enum>:
utee_storage_reset_enum():
/mnt/disk/raspbian-tee/optee_os/lib/libutee/arch/arm/utee_syscalls_asm.S:107
    203c:	e92d40e0 	push	{r5, r6, r7, lr}
    2040:	e3a0702f 	mov	r7, #47	; 0x2f
    2044:	e3a06000 	mov	r6, #0
    2048:	ef000000 	svc	0x00000000
    204c:	e8bd80e0 	pop	{r5, r6, r7, pc}

00002050 <utee_storage_start_enum>:
utee_storage_start_enum():
/mnt/disk/raspbian-tee/optee_os/lib/libutee/arch/arm/utee_syscalls_asm.S:109
    2050:	e92d40e0 	push	{r5, r6, r7, lr}
    2054:	e3a07030 	mov	r7, #48	; 0x30
    2058:	e3a06000 	mov	r6, #0
    205c:	ef000000 	svc	0x00000000
    2060:	e8bd80e0 	pop	{r5, r6, r7, pc}

00002064 <utee_storage_next_enum>:
utee_storage_next_enum():
/mnt/disk/raspbian-tee/optee_os/lib/libutee/arch/arm/utee_syscalls_asm.S:111
    2064:	e92d40e0 	push	{r5, r6, r7, lr}
    2068:	e3a07031 	mov	r7, #49	; 0x31
    206c:	e3a06000 	mov	r6, #0
    2070:	ef000000 	svc	0x00000000
    2074:	e8bd80e0 	pop	{r5, r6, r7, pc}

00002078 <utee_storage_obj_read>:
utee_storage_obj_read():
/mnt/disk/raspbian-tee/optee_os/lib/libutee/arch/arm/utee_syscalls_asm.S:113
    2078:	e92d40e0 	push	{r5, r6, r7, lr}
    207c:	e3a07032 	mov	r7, #50	; 0x32
    2080:	e3a06000 	mov	r6, #0
    2084:	ef000000 	svc	0x00000000
    2088:	e8bd80e0 	pop	{r5, r6, r7, pc}

0000208c <utee_storage_obj_write>:
utee_storage_obj_write():
/mnt/disk/raspbian-tee/optee_os/lib/libutee/arch/arm/utee_syscalls_asm.S:115
    208c:	e92d40e0 	push	{r5, r6, r7, lr}
    2090:	e3a07033 	mov	r7, #51	; 0x33
    2094:	e3a06000 	mov	r6, #0
    2098:	ef000000 	svc	0x00000000
    209c:	e8bd80e0 	pop	{r5, r6, r7, pc}

000020a0 <utee_storage_obj_trunc>:
utee_storage_obj_trunc():
/mnt/disk/raspbian-tee/optee_os/lib/libutee/arch/arm/utee_syscalls_asm.S:117
    20a0:	e92d40e0 	push	{r5, r6, r7, lr}
    20a4:	e3a07034 	mov	r7, #52	; 0x34
    20a8:	e3a06000 	mov	r6, #0
    20ac:	ef000000 	svc	0x00000000
    20b0:	e8bd80e0 	pop	{r5, r6, r7, pc}

000020b4 <utee_storage_obj_seek>:
utee_storage_obj_seek():
/mnt/disk/raspbian-tee/optee_os/lib/libutee/arch/arm/utee_syscalls_asm.S:119
    20b4:	e92d40e0 	push	{r5, r6, r7, lr}
    20b8:	e3a07035 	mov	r7, #53	; 0x35
    20bc:	e3a06000 	mov	r6, #0
    20c0:	ef000000 	svc	0x00000000
    20c4:	e8bd80e0 	pop	{r5, r6, r7, pc}

000020c8 <utee_cryp_obj_generate_key>:
utee_cryp_obj_generate_key():
/mnt/disk/raspbian-tee/optee_os/lib/libutee/arch/arm/utee_syscalls_asm.S:121
    20c8:	e92d40e0 	push	{r5, r6, r7, lr}
    20cc:	e3a07036 	mov	r7, #54	; 0x36
    20d0:	e3a06000 	mov	r6, #0
    20d4:	ef000000 	svc	0x00000000
    20d8:	e8bd80e0 	pop	{r5, r6, r7, pc}

000020dc <utee_cache_operation>:
utee_cache_operation():
/mnt/disk/raspbian-tee/optee_os/lib/libutee/arch/arm/utee_syscalls_asm.S:124
    20dc:	e92d40e0 	push	{r5, r6, r7, lr}
    20e0:	e3a07046 	mov	r7, #70	; 0x46
    20e4:	e3a06000 	mov	r6, #0
    20e8:	ef000000 	svc	0x00000000
    20ec:	e8bd80e0 	pop	{r5, r6, r7, pc}

000020f0 <__utee_mcount>:
__utee_mcount():
/mnt/disk/raspbian-tee/optee_os/lib/libutee/arch/arm/gprof/gprof_a32.S:49
    20f0:	e52de004 	push	{lr}		; (str lr, [sp, #-4]!)
/mnt/disk/raspbian-tee/optee_os/lib/libutee/arch/arm/gprof/gprof_a32.S:50
    20f4:	e8bd5000 	pop	{ip, lr}
/mnt/disk/raspbian-tee/optee_os/lib/libutee/arch/arm/gprof/gprof_a32.S:51
    20f8:	e12fff1c 	bx	ip

000020fc <mpi_panic>:
mpi_panic():
/mnt/disk/raspbian-tee/optee_os/lib/libutee/tee_api_arith_mpi.c:29
    20fc:	b508      	push	{r3, lr}
/mnt/disk/raspbian-tee/optee_os/lib/libutee/tee_api_arith_mpi.c:30
    20fe:	4613      	mov	r3, r2
    2100:	460a      	mov	r2, r1
    2102:	4601      	mov	r1, r0
    2104:	4804      	ldr	r0, [pc, #16]	; (2118 <mpi_panic+0x1c>)
    2106:	4478      	add	r0, pc
    2108:	f7ff fadd 	bl	16c6 <printf>
/mnt/disk/raspbian-tee/optee_os/lib/libutee/tee_api_arith_mpi.c:31
    210c:	4801      	ldr	r0, [pc, #4]	; (2114 <mpi_panic+0x18>)
    210e:	f004 fb9d 	bl	684c <TEE_Panic>
    2112:	e7fe      	b.n	2112 <mpi_panic+0x16>
    2114:	00b16127 	.word	0x00b16127
    2118:	00004eee 	.word	0x00004eee

0000211c <get_const_mpi>:
get_const_mpi():
/mnt/disk/raspbian-tee/optee_os/lib/libutee/tee_api_arith_mpi.c:110
    211c:	b530      	push	{r4, r5, lr}
init_static_mpi():
/mnt/disk/raspbian-tee/optee_os/lib/libutee/tee_api_arith_mpi.c:65
    211e:	3108      	adds	r1, #8
    2120:	f831 2c02 	ldrh.w	r2, [r1, #-2]
get_const_mpi():
/mnt/disk/raspbian-tee/optee_os/lib/libutee/tee_api_arith_mpi.c:110
    2124:	b087      	sub	sp, #28
init_static_mpi():
/mnt/disk/raspbian-tee/optee_os/lib/libutee/tee_api_arith_mpi.c:65
    2126:	f831 3c04 	ldrh.w	r3, [r1, #-4]
    212a:	ac03      	add	r4, sp, #12
get_const_mpi():
/mnt/disk/raspbian-tee/optee_os/lib/libutee/tee_api_arith_mpi.c:110
    212c:	4605      	mov	r5, r0
init_static_mpi():
/mnt/disk/raspbian-tee/optee_os/lib/libutee/tee_api_arith_mpi.c:65
    212e:	4620      	mov	r0, r4
    2130:	9200      	str	r2, [sp, #0]
    2132:	f851 2c08 	ldr.w	r2, [r1, #-8]
    2136:	f001 facf 	bl	36d8 <mbedtls_mpi_init_static>
get_mpi():
/mnt/disk/raspbian-tee/optee_os/lib/libutee/tee_api_arith_mpi.c:99
    213a:	4628      	mov	r0, r5
    213c:	f001 fab9 	bl	36b2 <mbedtls_mpi_init_mempool>
get_const_mpi():
/mnt/disk/raspbian-tee/optee_os/lib/libutee/tee_api_arith_mpi.c:115
    2140:	4621      	mov	r1, r4
    2142:	4628      	mov	r0, r5
    2144:	f001 fbb2 	bl	38ac <mbedtls_mpi_copy>
    2148:	4602      	mov	r2, r0
    214a:	b120      	cbz	r0, 2156 <get_const_mpi+0x3a>
/mnt/disk/raspbian-tee/optee_os/lib/libutee/tee_api_arith_mpi.c:115 (discriminator 1)
    214c:	4803      	ldr	r0, [pc, #12]	; (215c <get_const_mpi+0x40>)
    214e:	2173      	movs	r1, #115	; 0x73
    2150:	4478      	add	r0, pc
    2152:	f7ff ffd3 	bl	20fc <mpi_panic>
/mnt/disk/raspbian-tee/optee_os/lib/libutee/tee_api_arith_mpi.c:116
    2156:	b007      	add	sp, #28
    2158:	bd30      	pop	{r4, r5, pc}
    215a:	bf00      	nop
    215c:	00004d41 	.word	0x00004d41

00002160 <mpi_is_odd>:
mpi_is_odd():
/mnt/disk/raspbian-tee/optee_os/lib/libutee/tee_api_arith_mpi.c:599
    2160:	b508      	push	{r3, lr}
/mnt/disk/raspbian-tee/optee_os/lib/libutee/tee_api_arith_mpi.c:600
    2162:	2100      	movs	r1, #0
    2164:	f001 fc79 	bl	3a5a <mbedtls_mpi_get_bit>
/mnt/disk/raspbian-tee/optee_os/lib/libutee/tee_api_arith_mpi.c:601
    2168:	3000      	adds	r0, #0
    216a:	bf18      	it	ne
    216c:	2001      	movne	r0, #1
    216e:	bd08      	pop	{r3, pc}

00002170 <rng_read>:
rng_read():
/mnt/disk/raspbian-tee/optee_os/lib/libutee/tee_api_arith_mpi.c:763
    2170:	b508      	push	{r3, lr}
    2172:	4608      	mov	r0, r1
/mnt/disk/raspbian-tee/optee_os/lib/libutee/tee_api_arith_mpi.c:764
    2174:	4611      	mov	r1, r2
    2176:	f7ff eec6 	blx	1f04 <utee_cryp_random_number_generate>
    217a:	2800      	cmp	r0, #0
/mnt/disk/raspbian-tee/optee_os/lib/libutee/tee_api_arith_mpi.c:767
    217c:	f06f 0001 	mvn.w	r0, #1
    2180:	bf08      	it	eq
    2182:	2000      	moveq	r0, #0
    2184:	bd08      	pop	{r3, pc}

00002186 <put_mpi>:
put_mpi():
/mnt/disk/raspbian-tee/optee_os/lib/libutee/tee_api_arith_mpi.c:128
    2186:	7842      	ldrb	r2, [r0, #1]
    2188:	2a02      	cmp	r2, #2
    218a:	d108      	bne.n	219e <put_mpi+0x18>
/mnt/disk/raspbian-tee/optee_os/lib/libutee/tee_api_arith_mpi.c:129
    218c:	6882      	ldr	r2, [r0, #8]
/mnt/disk/raspbian-tee/optee_os/lib/libutee/tee_api_arith_mpi.c:131
    218e:	f990 1000 	ldrsb.w	r1, [r0]
/mnt/disk/raspbian-tee/optee_os/lib/libutee/tee_api_arith_mpi.c:132
    2192:	8883      	ldrh	r3, [r0, #4]
/mnt/disk/raspbian-tee/optee_os/lib/libutee/tee_api_arith_mpi.c:131
    2194:	f842 1c08 	str.w	r1, [r2, #-8]
/mnt/disk/raspbian-tee/optee_os/lib/libutee/tee_api_arith_mpi.c:132
    2198:	f822 3c02 	strh.w	r3, [r2, #-2]
    219c:	4770      	bx	lr
/mnt/disk/raspbian-tee/optee_os/lib/libutee/tee_api_arith_mpi.c:134
    219e:	f001 baa4 	b.w	36ea <mbedtls_mpi_free>

000021a2 <mpi_egcd>:
mpi_egcd():
/mnt/disk/raspbian-tee/optee_os/lib/libutee/tee_api_arith_mpi.c:614
    21a2:	e92d 4ff0 	stmdb	sp!, {r4, r5, r6, r7, r8, r9, sl, fp, lr}
    21a6:	4681      	mov	r9, r0
    21a8:	b09b      	sub	sp, #108	; 0x6c
get_mpi():
/mnt/disk/raspbian-tee/optee_os/lib/libutee/tee_api_arith_mpi.c:99
    21aa:	f10d 0814 	add.w	r8, sp, #20
    21ae:	af08      	add	r7, sp, #32
    21b0:	4640      	mov	r0, r8
    21b2:	ad0b      	add	r5, sp, #44	; 0x2c
mpi_egcd():
/mnt/disk/raspbian-tee/optee_os/lib/libutee/tee_api_arith_mpi.c:614
    21b4:	9102      	str	r1, [sp, #8]
get_mpi():
/mnt/disk/raspbian-tee/optee_os/lib/libutee/tee_api_arith_mpi.c:99
    21b6:	ac0e      	add	r4, sp, #56	; 0x38
mpi_egcd():
/mnt/disk/raspbian-tee/optee_os/lib/libutee/tee_api_arith_mpi.c:614
    21b8:	9203      	str	r2, [sp, #12]
get_mpi():
/mnt/disk/raspbian-tee/optee_os/lib/libutee/tee_api_arith_mpi.c:99
    21ba:	f10d 0a44 	add.w	sl, sp, #68	; 0x44
mpi_egcd():
/mnt/disk/raspbian-tee/optee_os/lib/libutee/tee_api_arith_mpi.c:614
    21be:	9301      	str	r3, [sp, #4]
get_mpi():
/mnt/disk/raspbian-tee/optee_os/lib/libutee/tee_api_arith_mpi.c:99
    21c0:	f001 fa77 	bl	36b2 <mbedtls_mpi_init_mempool>
    21c4:	4638      	mov	r0, r7
    21c6:	f10d 0b50 	add.w	fp, sp, #80	; 0x50
    21ca:	f001 fa72 	bl	36b2 <mbedtls_mpi_init_mempool>
    21ce:	4628      	mov	r0, r5
    21d0:	f001 fa6f 	bl	36b2 <mbedtls_mpi_init_mempool>
    21d4:	4620      	mov	r0, r4
    21d6:	f001 fa6c 	bl	36b2 <mbedtls_mpi_init_mempool>
    21da:	4650      	mov	r0, sl
    21dc:	f001 fa69 	bl	36b2 <mbedtls_mpi_init_mempool>
    21e0:	ae17      	add	r6, sp, #92	; 0x5c
    21e2:	4658      	mov	r0, fp
    21e4:	f001 fa65 	bl	36b2 <mbedtls_mpi_init_mempool>
    21e8:	4630      	mov	r0, r6
    21ea:	f001 fa62 	bl	36b2 <mbedtls_mpi_init_mempool>
mpi_egcd():
/mnt/disk/raspbian-tee/optee_os/lib/libutee/tee_api_arith_mpi.c:633
    21ee:	2100      	movs	r1, #0
    21f0:	9824      	ldr	r0, [sp, #144]	; 0x90
    21f2:	f001 fe08 	bl	3e06 <mbedtls_mpi_cmp_int>
    21f6:	bb20      	cbnz	r0, 2242 <mpi_egcd+0xa0>
/mnt/disk/raspbian-tee/optee_os/lib/libutee/tee_api_arith_mpi.c:634
    21f8:	2101      	movs	r1, #1
    21fa:	9802      	ldr	r0, [sp, #8]
    21fc:	f001 fc11 	bl	3a22 <mbedtls_mpi_lset>
    2200:	4602      	mov	r2, r0
    2202:	b130      	cbz	r0, 2212 <mpi_egcd+0x70>
/mnt/disk/raspbian-tee/optee_os/lib/libutee/tee_api_arith_mpi.c:634 (discriminator 1)
    2204:	48dd      	ldr	r0, [pc, #884]	; (257c <mpi_egcd+0x3da>)
    2206:	f240 217a 	movw	r1, #634	; 0x27a
    220a:	4478      	add	r0, pc
/mnt/disk/raspbian-tee/optee_os/lib/libutee/tee_api_arith_mpi.c:635 (discriminator 1)
    220c:	300e      	adds	r0, #14
    220e:	f7ff ff75 	bl	20fc <mpi_panic>
/mnt/disk/raspbian-tee/optee_os/lib/libutee/tee_api_arith_mpi.c:635
    2212:	4601      	mov	r1, r0
    2214:	9803      	ldr	r0, [sp, #12]
    2216:	f001 fc04 	bl	3a22 <mbedtls_mpi_lset>
    221a:	4602      	mov	r2, r0
    221c:	b120      	cbz	r0, 2228 <mpi_egcd+0x86>
/mnt/disk/raspbian-tee/optee_os/lib/libutee/tee_api_arith_mpi.c:635 (discriminator 1)
    221e:	48d8      	ldr	r0, [pc, #864]	; (2580 <mpi_egcd+0x3de>)
    2220:	f240 217b 	movw	r1, #635	; 0x27b
    2224:	4478      	add	r0, pc
    2226:	e7f1      	b.n	220c <mpi_egcd+0x6a>
/mnt/disk/raspbian-tee/optee_os/lib/libutee/tee_api_arith_mpi.c:636
    2228:	9901      	ldr	r1, [sp, #4]
    222a:	4648      	mov	r0, r9
    222c:	f001 fb3e 	bl	38ac <mbedtls_mpi_copy>
    2230:	4602      	mov	r2, r0
    2232:	2800      	cmp	r0, #0
    2234:	f000 818a 	beq.w	254c <mpi_egcd+0x3aa>
/mnt/disk/raspbian-tee/optee_os/lib/libutee/tee_api_arith_mpi.c:636 (discriminator 1)
    2238:	48d2      	ldr	r0, [pc, #840]	; (2584 <mpi_egcd+0x3e2>)
    223a:	f44f 711f 	mov.w	r1, #636	; 0x27c
    223e:	4478      	add	r0, pc
    2240:	e7e4      	b.n	220c <mpi_egcd+0x6a>
/mnt/disk/raspbian-tee/optee_os/lib/libutee/tee_api_arith_mpi.c:640
    2242:	9901      	ldr	r1, [sp, #4]
    2244:	4650      	mov	r0, sl
    2246:	f001 fb31 	bl	38ac <mbedtls_mpi_copy>
    224a:	4602      	mov	r2, r0
    224c:	b120      	cbz	r0, 2258 <mpi_egcd+0xb6>
/mnt/disk/raspbian-tee/optee_os/lib/libutee/tee_api_arith_mpi.c:640 (discriminator 1)
    224e:	48ce      	ldr	r0, [pc, #824]	; (2588 <mpi_egcd+0x3e6>)
    2250:	f44f 7120 	mov.w	r1, #640	; 0x280
    2254:	4478      	add	r0, pc
    2256:	e7d9      	b.n	220c <mpi_egcd+0x6a>
/mnt/disk/raspbian-tee/optee_os/lib/libutee/tee_api_arith_mpi.c:641
    2258:	9924      	ldr	r1, [sp, #144]	; 0x90
    225a:	4658      	mov	r0, fp
    225c:	f001 fb26 	bl	38ac <mbedtls_mpi_copy>
    2260:	4602      	mov	r2, r0
    2262:	b178      	cbz	r0, 2284 <mpi_egcd+0xe2>
/mnt/disk/raspbian-tee/optee_os/lib/libutee/tee_api_arith_mpi.c:641 (discriminator 1)
    2264:	48c9      	ldr	r0, [pc, #804]	; (258c <mpi_egcd+0x3ea>)
    2266:	f240 2181 	movw	r1, #641	; 0x281
    226a:	4478      	add	r0, pc
    226c:	e7ce      	b.n	220c <mpi_egcd+0x6a>
/mnt/disk/raspbian-tee/optee_os/lib/libutee/tee_api_arith_mpi.c:647
    226e:	2101      	movs	r1, #1
    2270:	4658      	mov	r0, fp
    2272:	f001 fd0a 	bl	3c8a <mbedtls_mpi_shift_r>
    2276:	4602      	mov	r2, r0
    2278:	b128      	cbz	r0, 2286 <mpi_egcd+0xe4>
/mnt/disk/raspbian-tee/optee_os/lib/libutee/tee_api_arith_mpi.c:647 (discriminator 1)
    227a:	48c5      	ldr	r0, [pc, #788]	; (2590 <mpi_egcd+0x3ee>)
    227c:	f240 2187 	movw	r1, #647	; 0x287
    2280:	4478      	add	r0, pc
    2282:	e7c3      	b.n	220c <mpi_egcd+0x6a>
    2284:	9001      	str	r0, [sp, #4]
mpi_is_even():
/mnt/disk/raspbian-tee/optee_os/lib/libutee/tee_api_arith_mpi.c:605
    2286:	4650      	mov	r0, sl
    2288:	f7ff ff6a 	bl	2160 <mpi_is_odd>
mpi_egcd():
/mnt/disk/raspbian-tee/optee_os/lib/libutee/tee_api_arith_mpi.c:644
    228c:	b150      	cbz	r0, 22a4 <mpi_egcd+0x102>
/mnt/disk/raspbian-tee/optee_os/lib/libutee/tee_api_arith_mpi.c:650
    228e:	4651      	mov	r1, sl
    2290:	4630      	mov	r0, r6
    2292:	f001 fb0b 	bl	38ac <mbedtls_mpi_copy>
    2296:	4602      	mov	r2, r0
    2298:	b1c0      	cbz	r0, 22cc <mpi_egcd+0x12a>
/mnt/disk/raspbian-tee/optee_os/lib/libutee/tee_api_arith_mpi.c:650 (discriminator 1)
    229a:	48be      	ldr	r0, [pc, #760]	; (2594 <mpi_egcd+0x3f2>)
    229c:	f240 218a 	movw	r1, #650	; 0x28a
    22a0:	4478      	add	r0, pc
    22a2:	e7b3      	b.n	220c <mpi_egcd+0x6a>
mpi_is_even():
/mnt/disk/raspbian-tee/optee_os/lib/libutee/tee_api_arith_mpi.c:605
    22a4:	4658      	mov	r0, fp
    22a6:	f7ff ff5b 	bl	2160 <mpi_is_odd>
mpi_egcd():
/mnt/disk/raspbian-tee/optee_os/lib/libutee/tee_api_arith_mpi.c:644
    22aa:	2800      	cmp	r0, #0
    22ac:	d1ef      	bne.n	228e <mpi_egcd+0xec>
/mnt/disk/raspbian-tee/optee_os/lib/libutee/tee_api_arith_mpi.c:645
    22ae:	9b01      	ldr	r3, [sp, #4]
/mnt/disk/raspbian-tee/optee_os/lib/libutee/tee_api_arith_mpi.c:646
    22b0:	2101      	movs	r1, #1
    22b2:	4650      	mov	r0, sl
/mnt/disk/raspbian-tee/optee_os/lib/libutee/tee_api_arith_mpi.c:645
    22b4:	3301      	adds	r3, #1
    22b6:	9301      	str	r3, [sp, #4]
/mnt/disk/raspbian-tee/optee_os/lib/libutee/tee_api_arith_mpi.c:646
    22b8:	f001 fce7 	bl	3c8a <mbedtls_mpi_shift_r>
    22bc:	4602      	mov	r2, r0
    22be:	2800      	cmp	r0, #0
    22c0:	d0d5      	beq.n	226e <mpi_egcd+0xcc>
/mnt/disk/raspbian-tee/optee_os/lib/libutee/tee_api_arith_mpi.c:646 (discriminator 1)
    22c2:	48b5      	ldr	r0, [pc, #724]	; (2598 <mpi_egcd+0x3f6>)
    22c4:	f240 2186 	movw	r1, #646	; 0x286
    22c8:	4478      	add	r0, pc
    22ca:	e79f      	b.n	220c <mpi_egcd+0x6a>
/mnt/disk/raspbian-tee/optee_os/lib/libutee/tee_api_arith_mpi.c:651
    22cc:	4659      	mov	r1, fp
    22ce:	4648      	mov	r0, r9
    22d0:	f001 faec 	bl	38ac <mbedtls_mpi_copy>
    22d4:	4602      	mov	r2, r0
    22d6:	b120      	cbz	r0, 22e2 <mpi_egcd+0x140>
/mnt/disk/raspbian-tee/optee_os/lib/libutee/tee_api_arith_mpi.c:651 (discriminator 1)
    22d8:	48b0      	ldr	r0, [pc, #704]	; (259c <mpi_egcd+0x3fa>)
    22da:	f240 218b 	movw	r1, #651	; 0x28b
    22de:	4478      	add	r0, pc
    22e0:	e794      	b.n	220c <mpi_egcd+0x6a>
/mnt/disk/raspbian-tee/optee_os/lib/libutee/tee_api_arith_mpi.c:652
    22e2:	2101      	movs	r1, #1
    22e4:	4640      	mov	r0, r8
    22e6:	f001 fb9c 	bl	3a22 <mbedtls_mpi_lset>
    22ea:	4602      	mov	r2, r0
    22ec:	b120      	cbz	r0, 22f8 <mpi_egcd+0x156>
/mnt/disk/raspbian-tee/optee_os/lib/libutee/tee_api_arith_mpi.c:652 (discriminator 1)
    22ee:	48ac      	ldr	r0, [pc, #688]	; (25a0 <mpi_egcd+0x3fe>)
    22f0:	f44f 7123 	mov.w	r1, #652	; 0x28c
    22f4:	4478      	add	r0, pc
    22f6:	e789      	b.n	220c <mpi_egcd+0x6a>
/mnt/disk/raspbian-tee/optee_os/lib/libutee/tee_api_arith_mpi.c:653
    22f8:	4601      	mov	r1, r0
    22fa:	4638      	mov	r0, r7
    22fc:	f001 fb91 	bl	3a22 <mbedtls_mpi_lset>
    2300:	4602      	mov	r2, r0
    2302:	b120      	cbz	r0, 230e <mpi_egcd+0x16c>
/mnt/disk/raspbian-tee/optee_os/lib/libutee/tee_api_arith_mpi.c:653 (discriminator 1)
    2304:	48a7      	ldr	r0, [pc, #668]	; (25a4 <mpi_egcd+0x402>)
    2306:	f240 218d 	movw	r1, #653	; 0x28d
    230a:	4478      	add	r0, pc
    230c:	e77e      	b.n	220c <mpi_egcd+0x6a>
/mnt/disk/raspbian-tee/optee_os/lib/libutee/tee_api_arith_mpi.c:654
    230e:	4601      	mov	r1, r0
    2310:	4628      	mov	r0, r5
    2312:	f001 fb86 	bl	3a22 <mbedtls_mpi_lset>
    2316:	4602      	mov	r2, r0
    2318:	b120      	cbz	r0, 2324 <mpi_egcd+0x182>
/mnt/disk/raspbian-tee/optee_os/lib/libutee/tee_api_arith_mpi.c:654 (discriminator 1)
    231a:	48a3      	ldr	r0, [pc, #652]	; (25a8 <mpi_egcd+0x406>)
    231c:	f240 218e 	movw	r1, #654	; 0x28e
    2320:	4478      	add	r0, pc
    2322:	e773      	b.n	220c <mpi_egcd+0x6a>
/mnt/disk/raspbian-tee/optee_os/lib/libutee/tee_api_arith_mpi.c:655
    2324:	2101      	movs	r1, #1
    2326:	4620      	mov	r0, r4
    2328:	f001 fb7b 	bl	3a22 <mbedtls_mpi_lset>
    232c:	4602      	mov	r2, r0
    232e:	2800      	cmp	r0, #0
    2330:	f000 80e4 	beq.w	24fc <mpi_egcd+0x35a>
/mnt/disk/raspbian-tee/optee_os/lib/libutee/tee_api_arith_mpi.c:655 (discriminator 1)
    2334:	489d      	ldr	r0, [pc, #628]	; (25ac <mpi_egcd+0x40a>)
    2336:	f240 218f 	movw	r1, #655	; 0x28f
    233a:	4478      	add	r0, pc
    233c:	e766      	b.n	220c <mpi_egcd+0x6a>
/mnt/disk/raspbian-tee/optee_os/lib/libutee/tee_api_arith_mpi.c:659
    233e:	2101      	movs	r1, #1
    2340:	4630      	mov	r0, r6
    2342:	f001 fca2 	bl	3c8a <mbedtls_mpi_shift_r>
    2346:	4602      	mov	r2, r0
    2348:	b120      	cbz	r0, 2354 <mpi_egcd+0x1b2>
/mnt/disk/raspbian-tee/optee_os/lib/libutee/tee_api_arith_mpi.c:659 (discriminator 1)
    234a:	4899      	ldr	r0, [pc, #612]	; (25b0 <mpi_egcd+0x40e>)
    234c:	f240 2193 	movw	r1, #659	; 0x293
    2350:	4478      	add	r0, pc
    2352:	e75b      	b.n	220c <mpi_egcd+0x6a>
/mnt/disk/raspbian-tee/optee_os/lib/libutee/tee_api_arith_mpi.c:660
    2354:	4640      	mov	r0, r8
    2356:	f7ff ff03 	bl	2160 <mpi_is_odd>
    235a:	b158      	cbz	r0, 2374 <mpi_egcd+0x1d2>
/mnt/disk/raspbian-tee/optee_os/lib/libutee/tee_api_arith_mpi.c:661
    235c:	465a      	mov	r2, fp
    235e:	4641      	mov	r1, r8
    2360:	4640      	mov	r0, r8
    2362:	f001 fe06 	bl	3f72 <mbedtls_mpi_add_mpi>
    2366:	4602      	mov	r2, r0
    2368:	b1a0      	cbz	r0, 2394 <mpi_egcd+0x1f2>
/mnt/disk/raspbian-tee/optee_os/lib/libutee/tee_api_arith_mpi.c:661 (discriminator 1)
    236a:	4892      	ldr	r0, [pc, #584]	; (25b4 <mpi_egcd+0x412>)
    236c:	f240 2195 	movw	r1, #661	; 0x295
    2370:	4478      	add	r0, pc
    2372:	e74b      	b.n	220c <mpi_egcd+0x6a>
/mnt/disk/raspbian-tee/optee_os/lib/libutee/tee_api_arith_mpi.c:660 (discriminator 1)
    2374:	4638      	mov	r0, r7
    2376:	f7ff fef3 	bl	2160 <mpi_is_odd>
    237a:	2800      	cmp	r0, #0
    237c:	d1ee      	bne.n	235c <mpi_egcd+0x1ba>
/mnt/disk/raspbian-tee/optee_os/lib/libutee/tee_api_arith_mpi.c:664
    237e:	2101      	movs	r1, #1
    2380:	4640      	mov	r0, r8
    2382:	f001 fc82 	bl	3c8a <mbedtls_mpi_shift_r>
    2386:	4602      	mov	r2, r0
    2388:	b188      	cbz	r0, 23ae <mpi_egcd+0x20c>
/mnt/disk/raspbian-tee/optee_os/lib/libutee/tee_api_arith_mpi.c:664 (discriminator 1)
    238a:	488b      	ldr	r0, [pc, #556]	; (25b8 <mpi_egcd+0x416>)
    238c:	f44f 7126 	mov.w	r1, #664	; 0x298
    2390:	4478      	add	r0, pc
    2392:	e73b      	b.n	220c <mpi_egcd+0x6a>
/mnt/disk/raspbian-tee/optee_os/lib/libutee/tee_api_arith_mpi.c:662
    2394:	4652      	mov	r2, sl
    2396:	4639      	mov	r1, r7
    2398:	4638      	mov	r0, r7
    239a:	f001 fe0e 	bl	3fba <mbedtls_mpi_sub_mpi>
    239e:	4602      	mov	r2, r0
    23a0:	2800      	cmp	r0, #0
    23a2:	d0ec      	beq.n	237e <mpi_egcd+0x1dc>
/mnt/disk/raspbian-tee/optee_os/lib/libutee/tee_api_arith_mpi.c:662 (discriminator 1)
    23a4:	4885      	ldr	r0, [pc, #532]	; (25bc <mpi_egcd+0x41a>)
    23a6:	f240 2196 	movw	r1, #662	; 0x296
    23aa:	4478      	add	r0, pc
    23ac:	e72e      	b.n	220c <mpi_egcd+0x6a>
/mnt/disk/raspbian-tee/optee_os/lib/libutee/tee_api_arith_mpi.c:665
    23ae:	2101      	movs	r1, #1
    23b0:	4638      	mov	r0, r7
    23b2:	f001 fc6a 	bl	3c8a <mbedtls_mpi_shift_r>
    23b6:	4602      	mov	r2, r0
    23b8:	b120      	cbz	r0, 23c4 <mpi_egcd+0x222>
/mnt/disk/raspbian-tee/optee_os/lib/libutee/tee_api_arith_mpi.c:665 (discriminator 1)
    23ba:	4881      	ldr	r0, [pc, #516]	; (25c0 <mpi_egcd+0x41e>)
    23bc:	f240 2199 	movw	r1, #665	; 0x299
    23c0:	4478      	add	r0, pc
    23c2:	e723      	b.n	220c <mpi_egcd+0x6a>
mpi_is_even():
/mnt/disk/raspbian-tee/optee_os/lib/libutee/tee_api_arith_mpi.c:605
    23c4:	4630      	mov	r0, r6
    23c6:	f7ff fecb 	bl	2160 <mpi_is_odd>
mpi_egcd():
/mnt/disk/raspbian-tee/optee_os/lib/libutee/tee_api_arith_mpi.c:658
    23ca:	2800      	cmp	r0, #0
    23cc:	d0b7      	beq.n	233e <mpi_egcd+0x19c>
mpi_is_even():
/mnt/disk/raspbian-tee/optee_os/lib/libutee/tee_api_arith_mpi.c:605
    23ce:	4648      	mov	r0, r9
    23d0:	f7ff fec6 	bl	2160 <mpi_is_odd>
mpi_egcd():
/mnt/disk/raspbian-tee/optee_os/lib/libutee/tee_api_arith_mpi.c:668
    23d4:	b190      	cbz	r0, 23fc <mpi_egcd+0x25a>
/mnt/disk/raspbian-tee/optee_os/lib/libutee/tee_api_arith_mpi.c:679
    23d6:	4649      	mov	r1, r9
    23d8:	4630      	mov	r0, r6
    23da:	f001 fcc9 	bl	3d70 <mbedtls_mpi_cmp_mpi>
    23de:	2800      	cmp	r0, #0
    23e0:	db68      	blt.n	24b4 <mpi_egcd+0x312>
/mnt/disk/raspbian-tee/optee_os/lib/libutee/tee_api_arith_mpi.c:680
    23e2:	464a      	mov	r2, r9
    23e4:	4631      	mov	r1, r6
    23e6:	4630      	mov	r0, r6
    23e8:	f001 fde7 	bl	3fba <mbedtls_mpi_sub_mpi>
    23ec:	4602      	mov	r2, r0
    23ee:	2800      	cmp	r0, #0
    23f0:	d048      	beq.n	2484 <mpi_egcd+0x2e2>
/mnt/disk/raspbian-tee/optee_os/lib/libutee/tee_api_arith_mpi.c:680 (discriminator 1)
    23f2:	4874      	ldr	r0, [pc, #464]	; (25c4 <mpi_egcd+0x422>)
    23f4:	f44f 712a 	mov.w	r1, #680	; 0x2a8
    23f8:	4478      	add	r0, pc
    23fa:	e707      	b.n	220c <mpi_egcd+0x6a>
/mnt/disk/raspbian-tee/optee_os/lib/libutee/tee_api_arith_mpi.c:669
    23fc:	2101      	movs	r1, #1
    23fe:	4648      	mov	r0, r9
    2400:	f001 fc43 	bl	3c8a <mbedtls_mpi_shift_r>
    2404:	4602      	mov	r2, r0
    2406:	b120      	cbz	r0, 2412 <mpi_egcd+0x270>
/mnt/disk/raspbian-tee/optee_os/lib/libutee/tee_api_arith_mpi.c:669 (discriminator 1)
    2408:	486f      	ldr	r0, [pc, #444]	; (25c8 <mpi_egcd+0x426>)
    240a:	f240 219d 	movw	r1, #669	; 0x29d
    240e:	4478      	add	r0, pc
    2410:	e6fc      	b.n	220c <mpi_egcd+0x6a>
/mnt/disk/raspbian-tee/optee_os/lib/libutee/tee_api_arith_mpi.c:670
    2412:	4628      	mov	r0, r5
    2414:	f7ff fea4 	bl	2160 <mpi_is_odd>
    2418:	b158      	cbz	r0, 2432 <mpi_egcd+0x290>
/mnt/disk/raspbian-tee/optee_os/lib/libutee/tee_api_arith_mpi.c:671
    241a:	465a      	mov	r2, fp
    241c:	4629      	mov	r1, r5
    241e:	4628      	mov	r0, r5
    2420:	f001 fda7 	bl	3f72 <mbedtls_mpi_add_mpi>
    2424:	4602      	mov	r2, r0
    2426:	b1a0      	cbz	r0, 2452 <mpi_egcd+0x2b0>
/mnt/disk/raspbian-tee/optee_os/lib/libutee/tee_api_arith_mpi.c:671 (discriminator 1)
    2428:	4868      	ldr	r0, [pc, #416]	; (25cc <mpi_egcd+0x42a>)
    242a:	f240 219f 	movw	r1, #671	; 0x29f
    242e:	4478      	add	r0, pc
    2430:	e6ec      	b.n	220c <mpi_egcd+0x6a>
/mnt/disk/raspbian-tee/optee_os/lib/libutee/tee_api_arith_mpi.c:670 (discriminator 1)
    2432:	4620      	mov	r0, r4
    2434:	f7ff fe94 	bl	2160 <mpi_is_odd>
    2438:	2800      	cmp	r0, #0
    243a:	d1ee      	bne.n	241a <mpi_egcd+0x278>
/mnt/disk/raspbian-tee/optee_os/lib/libutee/tee_api_arith_mpi.c:674
    243c:	2101      	movs	r1, #1
    243e:	4628      	mov	r0, r5
    2440:	f001 fc23 	bl	3c8a <mbedtls_mpi_shift_r>
    2444:	4602      	mov	r2, r0
    2446:	b188      	cbz	r0, 246c <mpi_egcd+0x2ca>
/mnt/disk/raspbian-tee/optee_os/lib/libutee/tee_api_arith_mpi.c:674 (discriminator 1)
    2448:	4861      	ldr	r0, [pc, #388]	; (25d0 <mpi_egcd+0x42e>)
    244a:	f240 21a2 	movw	r1, #674	; 0x2a2
    244e:	4478      	add	r0, pc
    2450:	e6dc      	b.n	220c <mpi_egcd+0x6a>
/mnt/disk/raspbian-tee/optee_os/lib/libutee/tee_api_arith_mpi.c:672
    2452:	4652      	mov	r2, sl
    2454:	4621      	mov	r1, r4
    2456:	4620      	mov	r0, r4
    2458:	f001 fdaf 	bl	3fba <mbedtls_mpi_sub_mpi>
    245c:	4602      	mov	r2, r0
    245e:	2800      	cmp	r0, #0
    2460:	d0ec      	beq.n	243c <mpi_egcd+0x29a>
/mnt/disk/raspbian-tee/optee_os/lib/libutee/tee_api_arith_mpi.c:672 (discriminator 1)
    2462:	485c      	ldr	r0, [pc, #368]	; (25d4 <mpi_egcd+0x432>)
    2464:	f44f 7128 	mov.w	r1, #672	; 0x2a0
    2468:	4478      	add	r0, pc
    246a:	e6cf      	b.n	220c <mpi_egcd+0x6a>
/mnt/disk/raspbian-tee/optee_os/lib/libutee/tee_api_arith_mpi.c:675
    246c:	2101      	movs	r1, #1
    246e:	4620      	mov	r0, r4
    2470:	f001 fc0b 	bl	3c8a <mbedtls_mpi_shift_r>
    2474:	4602      	mov	r2, r0
    2476:	2800      	cmp	r0, #0
    2478:	d0a9      	beq.n	23ce <mpi_egcd+0x22c>
/mnt/disk/raspbian-tee/optee_os/lib/libutee/tee_api_arith_mpi.c:675 (discriminator 1)
    247a:	4857      	ldr	r0, [pc, #348]	; (25d8 <mpi_egcd+0x436>)
    247c:	f240 21a3 	movw	r1, #675	; 0x2a3
    2480:	4478      	add	r0, pc
    2482:	e6c3      	b.n	220c <mpi_egcd+0x6a>
/mnt/disk/raspbian-tee/optee_os/lib/libutee/tee_api_arith_mpi.c:681
    2484:	462a      	mov	r2, r5
    2486:	4641      	mov	r1, r8
    2488:	4640      	mov	r0, r8
    248a:	f001 fd96 	bl	3fba <mbedtls_mpi_sub_mpi>
    248e:	4602      	mov	r2, r0
    2490:	b120      	cbz	r0, 249c <mpi_egcd+0x2fa>
/mnt/disk/raspbian-tee/optee_os/lib/libutee/tee_api_arith_mpi.c:681 (discriminator 1)
    2492:	4852      	ldr	r0, [pc, #328]	; (25dc <mpi_egcd+0x43a>)
    2494:	f240 21a9 	movw	r1, #681	; 0x2a9
    2498:	4478      	add	r0, pc
    249a:	e6b7      	b.n	220c <mpi_egcd+0x6a>
/mnt/disk/raspbian-tee/optee_os/lib/libutee/tee_api_arith_mpi.c:682
    249c:	4622      	mov	r2, r4
    249e:	4639      	mov	r1, r7
    24a0:	4638      	mov	r0, r7
    24a2:	f001 fd8a 	bl	3fba <mbedtls_mpi_sub_mpi>
    24a6:	4602      	mov	r2, r0
    24a8:	b340      	cbz	r0, 24fc <mpi_egcd+0x35a>
/mnt/disk/raspbian-tee/optee_os/lib/libutee/tee_api_arith_mpi.c:682 (discriminator 1)
    24aa:	484d      	ldr	r0, [pc, #308]	; (25e0 <mpi_egcd+0x43e>)
    24ac:	f240 21aa 	movw	r1, #682	; 0x2aa
    24b0:	4478      	add	r0, pc
    24b2:	e6ab      	b.n	220c <mpi_egcd+0x6a>
/mnt/disk/raspbian-tee/optee_os/lib/libutee/tee_api_arith_mpi.c:684
    24b4:	4632      	mov	r2, r6
    24b6:	4649      	mov	r1, r9
    24b8:	4648      	mov	r0, r9
    24ba:	f001 fd7e 	bl	3fba <mbedtls_mpi_sub_mpi>
    24be:	4602      	mov	r2, r0
    24c0:	b120      	cbz	r0, 24cc <mpi_egcd+0x32a>
/mnt/disk/raspbian-tee/optee_os/lib/libutee/tee_api_arith_mpi.c:684 (discriminator 1)
    24c2:	4848      	ldr	r0, [pc, #288]	; (25e4 <mpi_egcd+0x442>)
    24c4:	f44f 712b 	mov.w	r1, #684	; 0x2ac
    24c8:	4478      	add	r0, pc
    24ca:	e69f      	b.n	220c <mpi_egcd+0x6a>
/mnt/disk/raspbian-tee/optee_os/lib/libutee/tee_api_arith_mpi.c:685
    24cc:	4642      	mov	r2, r8
    24ce:	4629      	mov	r1, r5
    24d0:	4628      	mov	r0, r5
    24d2:	f001 fd72 	bl	3fba <mbedtls_mpi_sub_mpi>
    24d6:	4602      	mov	r2, r0
    24d8:	b120      	cbz	r0, 24e4 <mpi_egcd+0x342>
/mnt/disk/raspbian-tee/optee_os/lib/libutee/tee_api_arith_mpi.c:685 (discriminator 1)
    24da:	4843      	ldr	r0, [pc, #268]	; (25e8 <mpi_egcd+0x446>)
    24dc:	f240 21ad 	movw	r1, #685	; 0x2ad
    24e0:	4478      	add	r0, pc
    24e2:	e693      	b.n	220c <mpi_egcd+0x6a>
/mnt/disk/raspbian-tee/optee_os/lib/libutee/tee_api_arith_mpi.c:686
    24e4:	463a      	mov	r2, r7
    24e6:	4621      	mov	r1, r4
    24e8:	4620      	mov	r0, r4
    24ea:	f001 fd66 	bl	3fba <mbedtls_mpi_sub_mpi>
    24ee:	4602      	mov	r2, r0
    24f0:	b120      	cbz	r0, 24fc <mpi_egcd+0x35a>
/mnt/disk/raspbian-tee/optee_os/lib/libutee/tee_api_arith_mpi.c:686 (discriminator 1)
    24f2:	483e      	ldr	r0, [pc, #248]	; (25ec <mpi_egcd+0x44a>)
    24f4:	f240 21ae 	movw	r1, #686	; 0x2ae
    24f8:	4478      	add	r0, pc
    24fa:	e687      	b.n	220c <mpi_egcd+0x6a>
/mnt/disk/raspbian-tee/optee_os/lib/libutee/tee_api_arith_mpi.c:657
    24fc:	2100      	movs	r1, #0
    24fe:	4630      	mov	r0, r6
    2500:	f001 fc81 	bl	3e06 <mbedtls_mpi_cmp_int>
    2504:	2800      	cmp	r0, #0
    2506:	f47f af5d 	bne.w	23c4 <mpi_egcd+0x222>
/mnt/disk/raspbian-tee/optee_os/lib/libutee/tee_api_arith_mpi.c:690
    250a:	4629      	mov	r1, r5
    250c:	9802      	ldr	r0, [sp, #8]
    250e:	f001 f9cd 	bl	38ac <mbedtls_mpi_copy>
    2512:	4602      	mov	r2, r0
    2514:	b120      	cbz	r0, 2520 <mpi_egcd+0x37e>
/mnt/disk/raspbian-tee/optee_os/lib/libutee/tee_api_arith_mpi.c:690 (discriminator 1)
    2516:	4836      	ldr	r0, [pc, #216]	; (25f0 <mpi_egcd+0x44e>)
    2518:	f240 21b2 	movw	r1, #690	; 0x2b2
    251c:	4478      	add	r0, pc
    251e:	e675      	b.n	220c <mpi_egcd+0x6a>
/mnt/disk/raspbian-tee/optee_os/lib/libutee/tee_api_arith_mpi.c:691
    2520:	4621      	mov	r1, r4
    2522:	9803      	ldr	r0, [sp, #12]
    2524:	f001 f9c2 	bl	38ac <mbedtls_mpi_copy>
    2528:	4602      	mov	r2, r0
    252a:	b120      	cbz	r0, 2536 <mpi_egcd+0x394>
/mnt/disk/raspbian-tee/optee_os/lib/libutee/tee_api_arith_mpi.c:691 (discriminator 1)
    252c:	4831      	ldr	r0, [pc, #196]	; (25f4 <mpi_egcd+0x452>)
    252e:	f240 21b3 	movw	r1, #691	; 0x2b3
    2532:	4478      	add	r0, pc
    2534:	e66a      	b.n	220c <mpi_egcd+0x6a>
/mnt/disk/raspbian-tee/optee_os/lib/libutee/tee_api_arith_mpi.c:692
    2536:	9901      	ldr	r1, [sp, #4]
    2538:	4648      	mov	r0, r9
    253a:	f001 fb5a 	bl	3bf2 <mbedtls_mpi_shift_l>
    253e:	4602      	mov	r2, r0
    2540:	b120      	cbz	r0, 254c <mpi_egcd+0x3aa>
/mnt/disk/raspbian-tee/optee_os/lib/libutee/tee_api_arith_mpi.c:692 (discriminator 1)
    2542:	482d      	ldr	r0, [pc, #180]	; (25f8 <mpi_egcd+0x456>)
    2544:	f44f 712d 	mov.w	r1, #692	; 0x2b4
    2548:	4478      	add	r0, pc
    254a:	e65f      	b.n	220c <mpi_egcd+0x6a>
/mnt/disk/raspbian-tee/optee_os/lib/libutee/tee_api_arith_mpi.c:695
    254c:	4640      	mov	r0, r8
    254e:	f7ff fe1a 	bl	2186 <put_mpi>
/mnt/disk/raspbian-tee/optee_os/lib/libutee/tee_api_arith_mpi.c:696
    2552:	4638      	mov	r0, r7
    2554:	f7ff fe17 	bl	2186 <put_mpi>
/mnt/disk/raspbian-tee/optee_os/lib/libutee/tee_api_arith_mpi.c:697
    2558:	4628      	mov	r0, r5
    255a:	f7ff fe14 	bl	2186 <put_mpi>
/mnt/disk/raspbian-tee/optee_os/lib/libutee/tee_api_arith_mpi.c:698
    255e:	4620      	mov	r0, r4
    2560:	f7ff fe11 	bl	2186 <put_mpi>
/mnt/disk/raspbian-tee/optee_os/lib/libutee/tee_api_arith_mpi.c:699
    2564:	4650      	mov	r0, sl
    2566:	f7ff fe0e 	bl	2186 <put_mpi>
/mnt/disk/raspbian-tee/optee_os/lib/libutee/tee_api_arith_mpi.c:700
    256a:	4658      	mov	r0, fp
    256c:	f7ff fe0b 	bl	2186 <put_mpi>
/mnt/disk/raspbian-tee/optee_os/lib/libutee/tee_api_arith_mpi.c:701
    2570:	4630      	mov	r0, r6
    2572:	f7ff fe08 	bl	2186 <put_mpi>
/mnt/disk/raspbian-tee/optee_os/lib/libutee/tee_api_arith_mpi.c:702
    2576:	b01b      	add	sp, #108	; 0x6c
    2578:	e8bd 8ff0 	ldmia.w	sp!, {r4, r5, r6, r7, r8, r9, sl, fp, pc}
    257c:	00004c87 	.word	0x00004c87
    2580:	00004c6d 	.word	0x00004c6d
    2584:	00004c53 	.word	0x00004c53
    2588:	00004c3d 	.word	0x00004c3d
    258c:	00004c27 	.word	0x00004c27
    2590:	00004c11 	.word	0x00004c11
    2594:	00004bf1 	.word	0x00004bf1
    2598:	00004bc9 	.word	0x00004bc9
    259c:	00004bb3 	.word	0x00004bb3
    25a0:	00004b9d 	.word	0x00004b9d
    25a4:	00004b87 	.word	0x00004b87
    25a8:	00004b71 	.word	0x00004b71
    25ac:	00004b57 	.word	0x00004b57
    25b0:	00004b41 	.word	0x00004b41
    25b4:	00004b21 	.word	0x00004b21
    25b8:	00004b01 	.word	0x00004b01
    25bc:	00004ae7 	.word	0x00004ae7
    25c0:	00004ad1 	.word	0x00004ad1
    25c4:	00004a99 	.word	0x00004a99
    25c8:	00004a83 	.word	0x00004a83
    25cc:	00004a63 	.word	0x00004a63
    25d0:	00004a43 	.word	0x00004a43
    25d4:	00004a29 	.word	0x00004a29
    25d8:	00004a11 	.word	0x00004a11
    25dc:	000049f9 	.word	0x000049f9
    25e0:	000049e1 	.word	0x000049e1
    25e4:	000049c9 	.word	0x000049c9
    25e8:	000049b1 	.word	0x000049b1
    25ec:	00004999 	.word	0x00004999
    25f0:	00004975 	.word	0x00004975
    25f4:	0000495f 	.word	0x0000495f
    25f8:	00004949 	.word	0x00004949

000025fc <get_mpi>:
get_mpi():
/mnt/disk/raspbian-tee/optee_os/lib/libutee/tee_api_arith_mpi.c:81
    25fc:	b507      	push	{r0, r1, r2, lr}
/mnt/disk/raspbian-tee/optee_os/lib/libutee/tee_api_arith_mpi.c:96
    25fe:	b151      	cbz	r1, 2616 <get_mpi+0x1a>
init_static_mpi():
/mnt/disk/raspbian-tee/optee_os/lib/libutee/tee_api_arith_mpi.c:65
    2600:	88ca      	ldrh	r2, [r1, #6]
    2602:	888b      	ldrh	r3, [r1, #4]
    2604:	3108      	adds	r1, #8
    2606:	9200      	str	r2, [sp, #0]
    2608:	f851 2c08 	ldr.w	r2, [r1, #-8]
    260c:	f001 f864 	bl	36d8 <mbedtls_mpi_init_static>
get_mpi():
/mnt/disk/raspbian-tee/optee_os/lib/libutee/tee_api_arith_mpi.c:100
    2610:	b003      	add	sp, #12
    2612:	f85d fb04 	ldr.w	pc, [sp], #4
    2616:	b003      	add	sp, #12
    2618:	f85d eb04 	ldr.w	lr, [sp], #4
/mnt/disk/raspbian-tee/optee_os/lib/libutee/tee_api_arith_mpi.c:99
    261c:	f001 b849 	b.w	36b2 <mbedtls_mpi_init_mempool>

00002620 <bigint_binary>:
bigint_binary():
/mnt/disk/raspbian-tee/optee_os/lib/libutee/tee_api_arith_mpi.c:336
    2620:	e92d 47f0 	stmdb	sp!, {r4, r5, r6, r7, r8, r9, sl, lr}
    2624:	4607      	mov	r7, r0
    2626:	4689      	mov	r9, r1
    2628:	b08a      	sub	sp, #40	; 0x28
/mnt/disk/raspbian-tee/optee_os/lib/libutee/tee_api_arith_mpi.c:343
    262a:	4601      	mov	r1, r0
    262c:	ae01      	add	r6, sp, #4
/mnt/disk/raspbian-tee/optee_os/lib/libutee/tee_api_arith_mpi.c:336
    262e:	4614      	mov	r4, r2
/mnt/disk/raspbian-tee/optee_os/lib/libutee/tee_api_arith_mpi.c:343
    2630:	4630      	mov	r0, r6
/mnt/disk/raspbian-tee/optee_os/lib/libutee/tee_api_arith_mpi.c:336
    2632:	469a      	mov	sl, r3
    2634:	f10d 0810 	add.w	r8, sp, #16
/mnt/disk/raspbian-tee/optee_os/lib/libutee/tee_api_arith_mpi.c:343
    2638:	f7ff ffe0 	bl	25fc <get_mpi>
/mnt/disk/raspbian-tee/optee_os/lib/libutee/tee_api_arith_mpi.c:345
    263c:	454f      	cmp	r7, r9
    263e:	d01b      	beq.n	2678 <bigint_binary+0x58>
/mnt/disk/raspbian-tee/optee_os/lib/libutee/tee_api_arith_mpi.c:340
    2640:	4645      	mov	r5, r8
/mnt/disk/raspbian-tee/optee_os/lib/libutee/tee_api_arith_mpi.c:348
    2642:	4649      	mov	r1, r9
    2644:	4640      	mov	r0, r8
    2646:	f7ff fd69 	bl	211c <get_const_mpi>
/mnt/disk/raspbian-tee/optee_os/lib/libutee/tee_api_arith_mpi.c:350
    264a:	42a7      	cmp	r7, r4
    264c:	af07      	add	r7, sp, #28
    264e:	d015      	beq.n	267c <bigint_binary+0x5c>
/mnt/disk/raspbian-tee/optee_os/lib/libutee/tee_api_arith_mpi.c:352
    2650:	45a1      	cmp	r9, r4
    2652:	d015      	beq.n	2680 <bigint_binary+0x60>
/mnt/disk/raspbian-tee/optee_os/lib/libutee/tee_api_arith_mpi.c:355
    2654:	4621      	mov	r1, r4
/mnt/disk/raspbian-tee/optee_os/lib/libutee/tee_api_arith_mpi.c:341
    2656:	463c      	mov	r4, r7
/mnt/disk/raspbian-tee/optee_os/lib/libutee/tee_api_arith_mpi.c:355
    2658:	4638      	mov	r0, r7
    265a:	f7ff fd5f 	bl	211c <get_const_mpi>
/mnt/disk/raspbian-tee/optee_os/lib/libutee/tee_api_arith_mpi.c:357
    265e:	4622      	mov	r2, r4
    2660:	4629      	mov	r1, r5
    2662:	4630      	mov	r0, r6
    2664:	47d0      	blx	sl
    2666:	4602      	mov	r2, r0
    2668:	b160      	cbz	r0, 2684 <bigint_binary+0x64>
