
7fc5c039-0542-4ee1-80af-b4eab2f1998d.elf:     file format elf32-littlearm
7fc5c039-0542-4ee1-80af-b4eab2f1998d.elf
architecture: arm, flags 0x00000150:
HAS_SYMS, DYNAMIC, D_PAGED
start address 0x00000020

Program Header:
0x70000001 off    0x0001e3ec vaddr 0x0000e3ec paddr 0x0000e3ec align 2**2
         filesz 0x000009e8 memsz 0x000009e8 flags r--
    LOAD off    0x00010000 vaddr 0x00000000 paddr 0x00000000 align 2**16
         filesz 0x0000cae8 memsz 0x0000cae8 flags r-x
    LOAD off    0x0001cae8 vaddr 0x0000cae8 paddr 0x0000cae8 align 2**16
         filesz 0x000027e8 memsz 0x000027e8 flags r--
    LOAD off    0x00020000 vaddr 0x00010000 paddr 0x00010000 align 2**16
         filesz 0x000000a0 memsz 0x00a02218 flags rw-
 DYNAMIC off    0x0001ef64 vaddr 0x0000ef64 paddr 0x0000ef64 align 2**2
         filesz 0x00000080 memsz 0x00000080 flags rw-

Dynamic Section:
  HASH                 0x0000f234
  STRTAB               0x0000f124
  SYMTAB               0x0000efe4
  STRSZ                0x0000010f
  SYMENT               0x00000010
  DEBUG                0x00000000
  REL                  0x0000ee24
  RELSZ                0x00000140
  RELENT               0x00000008
  FLAGS_1              0x08000000
  RELCOUNT             0x00000017
private flags = 5000400: [Version5 EABI] [hard-float ABI]

Sections:
Idx Name          Size      VMA       LMA       File off  Algn
  0 .ta_head      00000020  00000000  00000000  00010000  2**3
                  CONTENTS, ALLOC, LOAD, DATA
  1 .text         0000cac8  00000020  00000020  00010020  2**3
                  CONTENTS, ALLOC, LOAD, READONLY, CODE
  2 .rodata       000015e6  0000cae8  0000cae8  0001cae8  2**2
                  CONTENTS, ALLOC, LOAD, READONLY, DATA
  3 .ARM.extab    000002ec  0000e0d0  0000e0d0  0001e0d0  2**2
                  CONTENTS, ALLOC, LOAD, READONLY, DATA
  4 .ARM.extab.text.__aeabi_ldivmod 0000000c  0000e3bc  0000e3bc  0001e3bc  2**2
                  CONTENTS, ALLOC, LOAD, READONLY, DATA
  5 .ARM.extab.text.__aeabi_uldivmod 0000000c  0000e3c8  0000e3c8  0001e3c8  2**2
                  CONTENTS, ALLOC, LOAD, READONLY, DATA
  6 .ARM.extab.text.utee_panic 0000000c  0000e3d4  0000e3d4  0001e3d4  2**2
                  CONTENTS, ALLOC, LOAD, READONLY, DATA
  7 .ARM.extab.text.unlikely 0000000c  0000e3e0  0000e3e0  0001e3e0  2**2
                  CONTENTS, ALLOC, LOAD, READONLY, DATA
  8 .ARM.exidx    000009e8  0000e3ec  0000e3ec  0001e3ec  2**2
                  CONTENTS, ALLOC, LOAD, READONLY, DATA
  9 .got          00000050  0000edd4  0000edd4  0001edd4  2**2
                  CONTENTS, ALLOC, LOAD, DATA
 10 .dynsym       00000140  0000efe4  0000efe4  0001efe4  2**2
                  CONTENTS, ALLOC, LOAD, READONLY, DATA
 11 .rel.got      00000088  0000eedc  0000eedc  0001eedc  2**2
                  CONTENTS, ALLOC, LOAD, READONLY, DATA
 12 .dynamic      00000080  0000ef64  0000ef64  0001ef64  2**2
                  CONTENTS, ALLOC, LOAD, DATA
 13 .dynstr       0000010f  0000f124  0000f124  0001f124  2**0
                  CONTENTS, ALLOC, LOAD, READONLY, DATA
 14 .hash         0000009c  0000f234  0000f234  0001f234  2**2
                  CONTENTS, ALLOC, LOAD, READONLY, DATA
 15 .data         000000a0  00010000  00010000  00020000  2**2
                  CONTENTS, ALLOC, LOAD, DATA
 16 .bss          00a02178  000100a0  000100a0  000200a0  2**2
                  ALLOC
 17 .debug_info   00027685  00000000  00000000  000200a0  2**0
                  CONTENTS, READONLY, DEBUGGING
 18 .debug_abbrev 0000570c  00000000  00000000  00047725  2**0
                  CONTENTS, READONLY, DEBUGGING
 19 .debug_loc    00019229  00000000  00000000  0004ce31  2**0
                  CONTENTS, READONLY, DEBUGGING
 20 .debug_aranges 000007f0  00000000  00000000  00066060  2**3
                  CONTENTS, READONLY, DEBUGGING
 21 .debug_ranges 000010f8  00000000  00000000  00066850  2**3
                  CONTENTS, READONLY, DEBUGGING
 22 .debug_macro  0001f647  00000000  00000000  00067948  2**0
                  CONTENTS, READONLY, DEBUGGING
 23 .debug_line   00009e24  00000000  00000000  00086f8f  2**0
                  CONTENTS, READONLY, DEBUGGING
 24 .debug_str    00013755  00000000  00000000  00090db3  2**0
                  CONTENTS, READONLY, DEBUGGING
 25 .comment      00000024  00000000  00000000  000a4508  2**0
                  CONTENTS, READONLY
 26 .ARM.attributes 00000036  00000000  00000000  000a452c  2**0
                  CONTENTS, READONLY
 27 .debug_frame  000037c8  00000000  00000000  000a4564  2**2
                  CONTENTS, READONLY, DEBUGGING
 28 .rel.dyn      000000b8  0000ee24  0000ee24  0001ee24  2**2
                  CONTENTS, ALLOC, LOAD, READONLY, DATA
SYMBOL TABLE:
00000000 l    d  .ta_head	00000000 .ta_head
00000020 l    d  .text	00000000 .text
0000cae8 l    d  .rodata	00000000 .rodata
0000e0d0 l    d  .ARM.extab	00000000 .ARM.extab
0000e3bc l    d  .ARM.extab.text.__aeabi_ldivmod	00000000 .ARM.extab.text.__aeabi_ldivmod
0000e3c8 l    d  .ARM.extab.text.__aeabi_uldivmod	00000000 .ARM.extab.text.__aeabi_uldivmod
0000e3d4 l    d  .ARM.extab.text.utee_panic	00000000 .ARM.extab.text.utee_panic
0000e3e0 l    d  .ARM.extab.text.unlikely	00000000 .ARM.extab.text.unlikely
0000e3ec l    d  .ARM.exidx	00000000 .ARM.exidx
0000edd4 l    d  .got	00000000 .got
0000eedc l    d  .rel.got	00000000 .rel.got
0000ef64 l    d  .dynamic	00000000 .dynamic
0000efe4 l    d  .dynsym	00000000 .dynsym
0000f124 l    d  .dynstr	00000000 .dynstr
0000f234 l    d  .hash	00000000 .hash
00010000 l    d  .data	00000000 .data
000100a0 l    d  .bss	00000000 .bss
00000000 l    d  .debug_info	00000000 .debug_info
00000000 l    d  .debug_abbrev	00000000 .debug_abbrev
00000000 l    d  .debug_loc	00000000 .debug_loc
00000000 l    d  .debug_aranges	00000000 .debug_aranges
00000000 l    d  .debug_ranges	00000000 .debug_ranges
00000000 l    d  .debug_macro	00000000 .debug_macro
00000000 l    d  .debug_line	00000000 .debug_line
00000000 l    d  .debug_str	00000000 .debug_str
00000000 l    d  .comment	00000000 .comment
00000000 l    d  .ARM.attributes	00000000 .ARM.attributes
00000000 l    d  .debug_frame	00000000 .debug_frame
0000ee24 l    d  .rel.dyn	00000000 .rel.dyn
00000000 l    df *ABS*	00000000 user_ta_header.c
0000caec l     O .rodata	00000004 __compound_literal.5
0000caf0 l     O .rodata	00000004 __compound_literal.4
0000caf4 l     O .rodata	00000004 __compound_literal.3
0000caf8 l     O .rodata	00000001 __compound_literal.2
0000caf9 l     O .rodata	00000001 __compound_literal.1
0000cafa l     O .rodata	00000001 __compound_literal.0
00000000 l    df *ABS*	00000000 blas_TA.c
00000000 l    df *ABS*	00000000 math_TA.c
00000000 l    df *ABS*	00000000 activations_TA.c
00000000 l    df *ABS*	00000000 network_TA.c
0000d09d l     O .rodata	00000015 __func__.6828
00000000 l    df *ABS*	00000000 diffprivate_TA.c
00000000 l    df *ABS*	00000000 darknetp_ta.c
00001984 l     F .text	000000ec make_convolutional_layer_TA_params
00001a70 l     F .text	000000d8 make_dropout_layer_TA_params
00001b48 l     F .text	00000070 make_connected_layer_TA_params
00001bb8 l     F .text	00000074 make_softmax_layer_TA_params
00001c2c l     F .text	000000a4 make_cost_layer_TA_params
00001cd0 l     F .text	00000064 make_maxpool_layer_TA_params.isra.0
00001d34 l     F .text	00000058 make_avgpool_layer_TA_params.isra.1
0000cdc8 l     O .rodata	0000000e __func__.6968
0000cdd6 l     O .rodata	00000014 __func__.6972
0000cdea l     O .rodata	00000015 __func__.6976
0000cdff l     O .rodata	00000019 __func__.6983
0000ce18 l     O .rodata	0000001a __func__.6987
00000000 l    df *ABS*	00000000 softmax_layer_TA.c
0000cfc0 l     O .rodata	0000001a __func__.6751
00000000 l    df *ABS*	00000000 connected_layer_TA.c
00000000 l    df *ABS*	00000000 parser_TA.c
0000d000 l     O .rodata	0000000b __func__.6170
00000000 l    df *ABS*	00000000 gemm_TA.c
00000000 l    df *ABS*	00000000 maxpool_layer_TA.c
00000000 l    df *ABS*	00000000 aes_TA.c
0000333c l     F .text	00000084 KeyExpansion
000033c0 l     F .text	00000028 AddRoundKey
000033e8 l     F .text	00000012 xtime
000033fa l     F .text	00000162 Cipher
0000355c l     F .text	00000220 InvCipher
0000d107 l     O .rodata	00000100 sbox
0000d207 l     O .rodata	0000000b Rcon
0000d212 l     O .rodata	00000100 rsbox
00000000 l    df *ABS*	00000000 cost_layer_TA.c
0000d312 l     O .rodata	00000011 __func__.6733
00000000 l    df *ABS*	00000000 im2col_TA.c
00000000 l    df *ABS*	00000000 batchnorm_layer_TA.c
00000000 l    df *ABS*	00000000 dropout_layer_TA.c
00000000 l    df *ABS*	00000000 convolutional_layer_TA.c
00000000 l    df *ABS*	00000000 avgpool_layer_TA.c
00000000 l    df *ABS*	00000000 utils_TA.c
000101a0 l     O .bss	00000004 call.5992
000101a4 l     O .bss	00000004 X2.5991
00000000 l    df *ABS*	00000000 bget_malloc.c
00004fc4 l     F .text	00000030 raw_malloc_return_hook.isra.3
00004ff4 l     F .text	000000d8 create_free_block.constprop.11
00005200 l     F .text	00000038 raw_malloc.constprop.15
0000d469 l     O .rodata	00000012 __func__.5854
0000d47b l     O .rodata	00000005 __func__.5710
0000d480 l     O .rodata	00000006 __func__.5725
0000d486 l     O .rodata	00000005 __func__.5742
0000d48b l     O .rodata	00000006 __func__.5734
0000d491 l     O .rodata	00000006 __func__.5751
0000d497 l     O .rodata	00000007 __func__.5761
0000d49e l     O .rodata	0000000d __func__.5890
0000d4ab l     O .rodata	0000000c __func__.5864
0000d4b7 l     O .rodata	0000000b __func__.5875
0000d4c2 l     O .rodata	00000010 __func__.5942
0000d4d2 l     O .rodata	0000000e __func__.5896
0000d4e0 l     O .rodata	00000013 __func__.5802
000101a8 l     O .bss	00000038 mstats
000101e0 l     O .bss	00000004 malloc_pool_len
000101e4 l     O .bss	00000004 malloc_pool
00010078 l     O .data	0000001c malloc_poolset
00000000 l    df *ABS*	00000000 trace.c
00005ba0 l     F .text	0000004e append
0000d8f9 l     O .rodata	00000005 lvl_strs.5561
0000d8fe l     O .rodata	0000000a __func__.5615
00000000 l    df *ABS*	00000000 snprintk.c
0000d942 l     O .rodata	00000011 HEXDIGITS
0000d953 l     O .rodata	00000011 hexdigits
00000000 l    df *ABS*	00000000 arm32_aeabi_ldivmod_a32.o
00000000 l    df *ABS*	00000000 trace_ext.c
00000000 l    df *ABS*	00000000 assert.c
00000000 l    df *ABS*	00000000 tee_api_operations.c
000066bc l     F .text	00000160 tee_buffer_update
00000000 l    df *ABS*	00000000 user_ta_entry.c
00007c84 l     F .text	0000001c ta_header_get_session
00007ca0 l     F .text	00000068 ta_header_remove_session
000101e8 l     O .bss	00000001 init_done
00010098 l     O .data	00000008 ta_sessions
00000000 l    df *ABS*	00000000 utee_syscalls_a32.o
00000000 l    df *ABS*	00000000 gprof_a32.o
00000000 l    df *ABS*	00000000 tee_api.c
0000d9c3 l     O .rodata	0000000b __func__.6728
00010210 l     O .bss	00000004 tee_api_instance_data
00000000 l    df *ABS*	00000000 tee_api_objects.c
00000000 l    df *ABS*	00000000 tee_api_arith_mpi.c
00009dd8 l     F .text	00000020 api_panic
00008dc4 l     F .text	00000020 mpi_panic
00008de4 l     F .text	00000044 get_const_mpi
00008e28 l     F .text	00000010 mpi_is_odd
00008e38 l     F .text	00000016 rng_read
00008e4e l     F .text	0000001c put_mpi
00008e6a l     F .text	0000045a mpi_egcd
000092c4 l     F .text	00000024 get_mpi
000092e8 l     F .text	00000088 bigint_binary
00010214 l     O .bss	00002000 data.6728
00009576 l     F .text	000000ea bigint_binary_mod
0000d9df l     O .rodata	0000000e __func__.6757
0000d9ed l     O .rodata	00000009 __func__.6996
0000d9f6 l     O .rodata	0000000e __func__.6856
0000da04 l     O .rodata	00000012 __func__.6729
0000da16 l     O .rodata	0000000f __func__.6767
0000da25 l     O .rodata	0000001f __func__.6785
0000da44 l     O .rodata	00000019 __func__.6792
0000da5d l     O .rodata	00000012 __func__.6867
0000da6f l     O .rodata	00000015 __func__.6822
0000da84 l     O .rodata	0000000e __func__.6894
0000da92 l     O .rodata	0000000e __func__.6922
0000daa0 l     O .rodata	0000000e __func__.6928
0000daae l     O .rodata	00000011 __func__.6957
0000dabf l     O .rodata	00000018 __func__.6973
0000dad7 l     O .rodata	0000001d __func__.7053
0000daf4 l     O .rodata	00000019 __func__.7103
0000db0d l     O .rodata	00000015 __func__.7117
00000000 l    df *ABS*	00000000 bignum.c
00009df8 l     F .text	00000038 mpi_get_digit
00009e30 l     F .text	0000005e mpi_sub_hlp
00009e8e l     F .text	00000492 mpi_mul_hlp
0000a320 l     F .text	00000048 mbedtls_mpi_mod_int.part.1
0000b3c2 l     F .text	0000006c mpi_write_hlp
0000b568 l     F .text	00000050 mpi_check_small_factors
0000bc54 l     F .text	00000216 mpi_miller_rabin
0000cb04 l     O .rodata	000002a0 small_prime
0000cda4 l     O .rodata	00000024 gcd_pairs
00000000 l    df *ABS*	00000000 mempool.c
0000e036 l     O .rodata	00000013 __func__.5618
0000e049 l     O .rodata	0000000e __func__.5627
00000000 l    df *ABS*	00000000 col2im_TA.c
00000000 l    df *ABS*	00000000 memcpy.c
00000000 l    df *ABS*	00000000 memset.c
00000000 l    df *ABS*	00000000 strcmp.c
00000000 l    df *ABS*	00000000 strncmp.c
00000000 l    df *ABS*	00000000 aeabi_unwind.c
00000000 l    df *ABS*	00000000 memchr.c
00000000 l    df *ABS*	00000000 strlen.c
00000000 l    df *ABS*	00000000 arm32_aeabi_ldivmod.c
00000000 l    df *ABS*	00000000 tee_api_panic.c
00000000 l    df *ABS*	00000000 snprintf.c
00000000 l    df *ABS*	00000000 memcmp.c
00000000 l    df *ABS*	00000000 memmove.c
00000000 l    df *ABS*	00000000 buf_compare_ct.c
00000000 l    df *ABS*	00000000 
0000ef64 l     O *ABS*	00000000 _DYNAMIC
0000edd4 l     O *ABS*	00000000 _GLOBAL_OFFSET_TABLE_
0000caa8 l     F .text	00000010 __utee_check_access_rights_from_thumb
0000cab8 l     F .text	00000010 __utee_panic_from_thumb
0000cac8 l     F .text	00000010 __utee_log_from_thumb
0000cad8 l     F .text	00000010 __utee_cache_operation_from_thumb
00006660 g     F .text	00000022 putchar
000088a0 g     F .text	00000070 TEE_PopulateTransientObject
00002700 g     F .text	000000ce update_connected_layer_TA_new
00009cea g     F .text	00000004 TEE_BigIntConvertToFMM
00009a2c g     F .text	00000008 TEE_BigIntSquareMod
00009660 g     F .text	000000f4 TEE_BigIntShiftRight
00010198 g     O .bss	00000004 ta_net_delta
0000822c g     F .text	00000018 utee_storage_obj_create
0000a400 g     F .text	000000a8 mbedtls_mpi_grow
0000c90a g     F .text	000000ec __l_divmod
00007eac g     F .text	00000014 utee_return
000070c4 g     F .text	00000030 TEE_DigestUpdate
000023cc g     F .text	000000c6 forward_softmax_layer_TA
000004c0 g     F .text	00000038 ta_pow
0000861c g     F .text	00000004 TEE_Realloc
00006f2c g     F .text	000000f4 TEE_SetOperationKey2
00006602 g     F .text	0000003a printf
00007ec0 g     F .text	00000014 utee_log
000037b0 g     F .text	0000004c AES_CBC_encrypt_buffer
000100a4 g     O .bss	00000004 netta_truth
00008910 g     F .text	00000022 TEE_InitRefAttribute
00000020 g     F .text	00000014 fill_cpu_TA
00004dac g     F .text	0000007e backward_avgpool_layer_TA_new
0000843a g     F .text	00000066 TEE_InvokeTACommand
0000a37a g     F .text	00000026 mbedtls_mpi_init_mempool
0000a874 g     F .text	00000046 mbedtls_mpi_write_binary
000100ac g     O .bss	00000004 debug_summary_pass
000076a4 g     F .text	00000118 TEE_AEEncryptFinal
0000262c g     F .text	000000d4 backward_connected_layer_TA_new
00006590 g     F .text	0000000e vsnprintk
0000acfe g     F .text	00000030 mbedtls_mpi_sub_int
000037a8 g     F .text	00000008 AES_ECB_decrypt
00000c42 g     F .text	0000003a bubble_sort_top
000009f8 g     F .text	00000170 ta_sin
000018e0 g     F .text	000000a4 diff_private_SGD
0000ca44 g     F .text	00000034 memmove
0000c9fa g     F .text	0000001e snprintf
00009550 g     F .text	00000026 TEE_BigIntCmpS32
00001134 g     F .text	0000002a activate_array_TA
00000b8c g     F .text	00000020 reverse
000046c4 g     F .text	00000078 binarize_weights_TA
000004f8 g     F .text	00000098 ta_eee
00008932 g     F .text	00000022 TEE_InitValueAttribute
0000a4a8 g     F .text	000000cc mbedtls_mpi_shrink
0000c864 g     F .text	00000002 __aeabi_unwind_cpp_pr0
00000280 g     F .text	000000a4 softmax_TA
000097a0 g     F .text	0000001c TEE_BigIntAdd
000001a8 g     F .text	00000028 axpy_cpu_TA
00007f00 g     F .text	00000014 utee_get_property_name_to_index
000040e4 g     F .text	00000058 backward_dropout_layer_TA_new
00004688 g     F .text	0000001e convolutional_out_height_TA
0000cafc g     O .rodata	00000004 ta_heap_size
00008870 g     F .text	00000030 TEE_ResetTransientObject
00000860 g     F .text	00000028 ta_log
000100a8 g     O .bss	00000004 debug_summary_com
00007fe4 g     F .text	00000018 utee_cryp_state_alloc
00000e54 g     F .text	000002e0 activate_TA
000081b4 g     F .text	00000018 utee_authenc_enc_final
0000ae28 g     F .text	0000012c mbedtls_mpi_read_string
00003bf0 g     F .text	00000128 forward_batchnorm_layer_TA
00007164 g     F .text	00000056 TEE_CipherInit
00010004 g     O .data	00000004 avg_loss
000097d8 g     F .text	00000058 TEE_BigIntNeg
000014d8 g     F .text	00000064 calc_network_cost_TA
00004eac g     F .text	0000001c sum_array_TA
00000020 g       .text	00000000 __text_start
00008c10 g     F .text	0000002c TEE_StartPersistentObjectEnumerator
0000a952 g     F .text	00000078 mbedtls_mpi_shift_r
00005b54 g     F .text	0000004c malloc_buffer_overlaps_heap
000099f4 g     F .text	0000001c TEE_BigIntSubMod
0000c196 g     F .text	00000136 mbedtls_mpi_gen_prime
0000a722 g     F .text	00000020 mbedtls_mpi_get_bit
0000a80e g     F .text	00000066 mbedtls_mpi_read_binary
00000b68 g     F .text	00000024 ta_tan
00007520 g     F .text	00000070 TEE_AEInit
00005c20 g     F .text	0000013c trace_printf
0000b5e0 g     F .text	000000c4 mbedtls_mpi_montmul
0000c800 g     F .text	00000016 memcpy
00002dd0 g     F .text	0000007c gemm_nt_TA
00008010 g     F .text	00000014 utee_cryp_state_free
00009cee g     F .text	0000004a TEE_BigIntConvertFromFMM
0000c9f6 g     F .text	00000004 TEE_Panic
0000301c g     F .text	000001a4 forward_maxpool_layer_TA_new
000065d0 g     F .text	00000018 __aeabi_uldivmod
00007020 g     F .text	000000a4 TEE_CopyOperation
000006b0 g     F .text	0000000a F1
0000663c g     F .text	00000024 puts
00009d38 g     F .text	000000a0 TEE_BigIntComputeFMM
0000561c g     F .text	00000020 malloc_get_stats
00008090 g     F .text	00000018 utee_cipher_final
000085bc g     F .text	00000016 TEE_GetREETime
00008bb0 g     F .text	00000038 TEE_AllocatePersistentObjectEnumerator
00010194 g     O .bss	00000004 ta_net_input
00000842 g     F .text	0000001e ta_ln
0001000c g     O .data	0000006c ta_props
000078c4 g     F .text	000000bc TEE_AsymmetricEncrypt
00000448 g     F .text	00000040 l1_cpu_TA
0000563c g     F .text	00000002 malloc
000080f8 g     F .text	00000014 utee_cryp_obj_close
000089ec g     F .text	00000048 TEE_GenerateKey
0000ca18 g     F .text	0000000e vsnprintf
00010008 g     O .data	00000004 trace_level
00001780 g     F .text	0000015c backward_network_TA
0000951c g     F .text	00000034 TEE_BigIntCmp
0000cae8 g     O .rodata	00000004 ta_num_props
0000548c g     F .text	0000007c bgetr
0000819c g     F .text	00000018 utee_authenc_update_payload
0000c6cc g     F .text	0000002e mempool_free
000071ba g     F .text	000000e6 TEE_CipherUpdate
00009434 g     F .text	00000058 TEE_BigIntConvertToOctetString
00006daa g     F .text	000000b6 TEE_GetOperationInfoMultiple
00004ec8 g     F .text	00000036 rand_uniform_TA
00008334 g     F .text	00000014 utee_cache_operation
0000436e g     F .text	00000052 add_bias_TA
0000a7c0 g     F .text	00000042 mbedtls_mpi_bitlen
00008170 g     F .text	00000018 utee_authenc_init
00009754 g     F .text	0000002a TEE_BigIntGetBit
0000cb00 g     O .rodata	00000003 trace_ext_prefix
00000324 g     F .text	00000060 softmax_cpu_TA
0000473c g     F .text	0000002c binarize_cpu_TA
00003010 g     F .text	0000000a gemm_TA
00000034 g     F .text	0000001c copy_cpu_TA
00005238 g     F .text	0000005c bgetz
0000850c g     F .text	0000000c TEE_GetInstanceData
0000853a g     F .text	0000001e TEE_Wait
000037a0 g     F .text	00000008 AES_ECB_encrypt
000082e4 g     F .text	00000014 utee_storage_obj_write
0000ad2e g     F .text	000000dc mbedtls_mpi_mul_mpi
0000c868 g     F .text	00000002 __aeabi_unwind_cpp_pr2
0000862a g     F .text	00000006 TEE_CacheFlush
00001e8c g     F .text	00000028 TA_DestroyEntryPoint
0000a368 g     F .text	00000012 mbedtls_mpi_init
0000a792 g     F .text	0000002e mbedtls_mpi_lsb
00006684 g     F .text	00000028 _assert_log
00004014 g     F .text	000000ce backward_batchnorm_layer_TA
0000153c g     F .text	0000017c forward_network_TA
00009ce6 g     F .text	00000004 TEE_BigIntFMMContextSizeInU32
000074bc g     F .text	00000064 TEE_MACCompareFinal
0000396e g     F .text	0000009a get_cost_type_TA
00008b6a g     F .text	00000046 TEE_RenamePersistentObject
000070f4 g     F .text	00000070 TEE_DigestDoFinal
00009370 g     F .text	00000044 _TEE_MathAPI_Init
0000ac3a g     F .text	00000048 mbedtls_mpi_add_mpi
000082bc g     F .text	00000014 utee_storage_next_enum
0000377e g     F .text	0000001a AES_init_ctx_iv
00003b24 g     F .text	000000cc im2col_cpu_TA
00012218 g     O .bss	00a00000 ta_heap
00009a34 g     F .text	000000a4 TEE_BigIntInvMod
000038c0 g     F .text	00000088 forward_cost_layer_TA
00001f00 g     F .text	00000028 TA_CloseSessionEntryPoint
00004e2a g     F .text	00000072 make_avgpool_layer_TA
00007980 g     F .text	000000c0 TEE_AsymmetricDecrypt
00008a34 g     F .text	00000064 TEE_OpenPersistentObject
0000ac82 g     F .text	0000004c mbedtls_mpi_sub_mpi
00007ed4 g     F .text	00000014 __utee_panic
00003948 g     F .text	00000026 backward_cost_layer_TA
00007ffc g     F .text	00000014 utee_cryp_state_copy
00001f28 g     F .text	000004a4 TA_InvokeCommandEntryPoint
00010000 g     O .data	00000004 norm_output
0000c63c g     F .text	0000006c mempool_alloc
000080e4 g     F .text	00000014 utee_cryp_obj_alloc
00007fd0 g     F .text	00000014 utee_set_ta_time
000080d0 g     F .text	00000014 utee_cryp_obj_get_attr
0000c6a8 g     F .text	00000024 mempool_calloc
000089bc g     F .text	00000030 TEE_CopyObjectAttributes
00005650 g     F .text	00000048 calloc
000085d2 g     F .text	0000004a TEE_Malloc
00007f94 g     F .text	00000014 utee_mask_cancellation
0000495c g     F .text	000003c0 make_convolutional_layer_TA_new
0000810c g     F .text	00000014 utee_cryp_obj_reset
000084f4 g     F .text	0000000a TEE_CheckMemoryAccessRights
00a12218 g       .bss	00000000 __gprof_buf_end
0000c896 g     F .text	00000074 __ul_divmod
0000a6ea g     F .text	00000038 mbedtls_mpi_lset
00008c90 g     F .text	00000040 TEE_ReadObjectData
00008708 g     F .text	00000070 TEE_GetObjectBufferAttribute
000046a6 g     F .text	0000001e convolutional_out_width_TA
00001eb4 g     F .text	0000004c TA_OpenSessionEntryPoint
000082a8 g     F .text	00000014 utee_storage_start_enum
0000681c g     F .text	00000026 TEE_FreeOperation
00008258 g     F .text	00000014 utee_storage_obj_rename
000101ec g     O .bss	00000004 ta_param_types
00002492 g     F .text	00000026 backward_softmax_layer_TA
000100b0 g     O .bss	000000dc netta
00001d8c g     F .text	000000d8 summary_array
0000b2f6 g     F .text	0000002e mbedtls_mpi_div_int
00008638 g     F .text	0000003a __utee_from_attr
00000c80 g     F .text	000000ac get_activation_string_TA
00000050 g     F .text	00000078 mean_cpu_TA
00009ca8 g     F .text	00000030 TEE_BigIntIsProbablePrime
0000ae0a g     F .text	0000001e mbedtls_mpi_mul_int
00008b30 g     F .text	00000024 TEE_CloseAndDeletePersistentObject1
0000b6c8 g     F .text	00000446 mbedtls_mpi_exp_mod
000100a0 g     O .bss	00000004 netnum
0000a5f8 g     F .text	0000006c mbedtls_mpi_safe_cond_assign
00003f04 g     F .text	00000110 normalize_delta_cpu_TA
00003d8c g     F .text	000000a8 mean_delta_cpu_TA
00007ee8 g     F .text	00000018 utee_get_property
000077bc g     F .text	00000108 TEE_AEDecryptFinal
000093b4 g     F .text	00000040 TEE_BigIntInit
000004b0 g     F .text	00000010 ta_max
00008518 g     F .text	00000004 TEE_MemMove
00000bea g     F .text	00000058 ftoa
000093f4 g     F .text	00000040 TEE_BigIntConvertFromOctetString
00010094 g     O .data	00000004 _ref__utee_mcount
0000a9ca g     F .text	0000006e mbedtls_mpi_cmp_abs
000073b0 g     F .text	00000056 TEE_MACInit
00007a40 g     F .text	000000b4 TEE_AsymmetricSignDigest
0000c86a g     F .text	0000001c memchr
000084bc g     F .text	0000001c TEE_UnmaskCancellation
00004768 g     F .text	000001f4 forward_convolutional_layer_TA_new
00008672 g     F .text	0000002a TEE_GetObjectInfo
0000c2cc g     F .text	0000032c mbedtls_mpi_self_test
00008244 g     F .text	00000014 utee_storage_obj_del
000075d6 g     F .text	000000ce TEE_AEUpdate
0000830c g     F .text	00000014 utee_storage_obj_seek
00008840 g     F .text	00000030 TEE_FreeTransientObject
0000aace g     F .text	00000030 mbedtls_mpi_cmp_int
00008038 g     F .text	00000014 utee_hash_update
00000d2c g     F .text	00000128 get_activation_TA
00007c6c g     F .text	00000018 rand
0001019c g     O .bss	00000004 ta_net_output
00008348  w    F .text	0000000c __utee_mcount
00006d88 g     F .text	00000022 TEE_GetOperationInfo
00009988 g     F .text	00000050 TEE_BigIntMod
0000b388 g     F .text	0000003a mbedtls_mpi_mod_int
00007f2c g     F .text	00000014 utee_close_ta_session
000098da g     F .text	000000ae TEE_BigIntDiv
00003798 g     F .text	00000008 AES_ctx_set_iv
0000c840 g     F .text	00000024 strncmp
00000384 g     F .text	00000060 softmax_x_ent_cpu_TA
0000a574 g     F .text	00000056 mbedtls_mpi_copy
00000758 g     F .text	000000c0 asr
000005e0 g     F .text	00000044 ta_rand
00005608 g     F .text	00000014 malloc_reset_stats
0000063e g     F .text	00000072 ta_sqrt
00004e9c g     F .text	0000000e resize_avgpool_layer_TA
00008078 g     F .text	00000018 utee_cipher_update
000086bc g     F .text	00000020 TEE_RestrictObjectUsage1
00005698 g     F .text	00000038 realloc
0000a5ca g     F .text	0000002e mbedtls_mpi_swap
00002e4c g     F .text	00000070 gemm_tn_TA
0000c5f8 g     F .text	00000044 mempool_alloc_pool
000081fc g     F .text	00000018 utee_asymm_verify
00009830 g     F .text	000000a4 TEE_BigIntMul
00006e60 g     F .text	00000040 TEE_ResetOperation
00003208 g     F .text	000000c8 make_maxpool_layer_TA
0000a8ba g     F .text	00000098 mbedtls_mpi_shift_l
000027ce g     F .text	000002a2 make_connected_layer_TA_new
0000aa38 g     F .text	00000096 mbedtls_mpi_cmp_mpi
00008520 g     F .text	00000004 TEE_MemFill
0000ca26 g     F .text	0000001e memcmp
00005980 g     F .text	000000f8 malloc_add_pool
00001314 g     F .text	00000034 gradient_array_TA
00007406 g     F .text	0000004e TEE_MACUpdate
00005c0c g     F .text	00000014 trace_get_level
0000aafe g     F .text	000000bc mbedtls_mpi_add_abs
0000815c g     F .text	00000014 utee_cryp_random_number_generate
000086dc g     F .text	0000002c TEE_RestrictObjectUsage
00009cde g     F .text	00000008 TEE_BigIntFMMSizeInU32
00009cd8 g     F .text	00000004 TEE_BigIntInitFMM
000081e4 g     F .text	00000018 utee_asymm_operate
000087fc g     F .text	00000014 TEE_CloseObject
00007d08 g     F .text	00000190 __utee_entry
0000cae8 g       .text	00000000 __text_end
00009ad8 g     F .text	0000007c TEE_BigIntRelativePrime
0000b324 g     F .text	00000064 mbedtls_mpi_mod_mpi
00003ae8 g     F .text	0000003c im2col_get_pixel_TA
00005508 g     F .text	0000009c bpool
00003e34 g     F .text	000000d0 variance_delta_cpu_TA
000024b8 g     F .text	000000cc make_softmax_layer_TA_new
000084a0 g     F .text	0000001c TEE_GetCancellationFlag
00002b78 g     F .text	0000005e transpose_matrix_TA
00002a70 g     F .text	00000108 aes_cbc_TA
0000413c g     F .text	00000084 forward_dropout_layer_TA_new
0000bb0e g     F .text	00000114 mbedtls_mpi_gcd
00008594 g     F .text	00000028 TEE_SetTAPersistentTime
0000c816 g     F .text	00000010 memset
00008558 g     F .text	0000003c TEE_GetTAPersistentTime
00004270 g     F .text	0000001a resize_dropout_layer_TA
00005d5c g     F .text	00000100 dhex_dump
00008a98 g     F .text	00000098 TEE_CreatePersistentObject
000084d8 g     F .text	0000001c TEE_MaskCancellation
000082d0 g     F .text	00000014 utee_storage_obj_read
00007590 g     F .text	00000046 TEE_AEUpdateAAD
00008d10 g     F .text	00000038 TEE_TruncateObjectData
00008120 g     F .text	00000014 utee_cryp_obj_populate
00004412 g     F .text	00000058 backward_bias_TA
0000869c g     F .text	00000020 TEE_GetObjectInfo1
00000624 g     F .text	0000001a ta_floor
00005bee g     F .text	0000001e trace_set_level
00002cd8 g     F .text	0000008c save_weights_TA
0000018c g     F .text	0000001c scal_cpu_TA
000080a8 g     F .text	00000014 utee_cryp_obj_get_info
00008778 g     F .text	00000084 TEE_GetObjectValueAttribute
000041c0 g     F .text	000000b0 make_dropout_layer_TA_new
00006ea0 g     F .text	0000008c TEE_SetOperationKey
0000826c g     F .text	00000014 utee_storage_alloc_enum
00008294 g     F .text	00000014 utee_storage_reset_enum
000082f8 g     F .text	00000014 utee_storage_obj_trunc
000031c0 g     F .text	00000048 backward_maxpool_layer_TA_new
0000c826 g     F .text	0000001a strcmp
000094c4 g     F .text	00000058 TEE_BigIntConvertToS32
000097bc g     F .text	0000001c TEE_BigIntSub
00007f58 g     F .text	00000014 utee_get_cancellation_flag
00008024 g     F .text	00000014 utee_hash_init
0000c7fc g     F .text	00000004 tahead_get_trace_level
000016b8 g     F .text	000000c8 calc_network_loss_TA
00001348 g     F .text	00000110 make_network_TA
00008354 g     F .text	00000050 __utee_from_param
00008d48 g     F .text	0000007c TEE_SeekObjectData
00010190 g     O .bss	00000004 roundnum
000083a4 g     F .text	0000003e __utee_to_param
0000b6a4 g     F .text	00000024 mbedtls_mpi_montred
000056d0 g     F .text	000002b0 memalign
000072a0 g     F .text	00000110 TEE_CipherDoFinal
0000948c g     F .text	00000038 TEE_BigIntConvertFromS32
00000488 g     F .text	00000028 l2_cpu_TA
0000acce g     F .text	00000030 mbedtls_mpi_add_int
00004efe g     F .text	000000c6 rand_normal_TA
000080bc g     F .text	00000014 utee_cryp_obj_restrict_usage
00000bac g     F .text	0000003e intToStr
00005a78 g     F .text	000000dc malloc_buffer_is_within_alloced
00003d18 g     F .text	00000074 backward_scale_cpu_TA
00008134 g     F .text	00000014 utee_cryp_obj_copy
00009cdc g     F .text	00000002 TEE_BigIntInitFMMContext
00008148 g     F .text	00000014 utee_cryp_derive_key
000000c8 g     F .text	000000c4 variance_cpu_TA
000081cc g     F .text	00000018 utee_authenc_dec_final
00008cd0 g     F .text	00000040 TEE_WriteObjectData
00008bfc g     F .text	00000014 TEE_ResetPersistentObjectEnumerator
000098d4 g     F .text	00000006 TEE_BigIntSquare
000001d0 g     F .text	000000b0 normalize_cpu_TA
00001e64 g     F .text	00000028 TA_CreateEntryPoint
0000b5b8 g     F .text	00000028 mbedtls_mpi_montg_init
0000659e g     F .text	0000001a snprintk
0000977e g     F .text	00000022 TEE_BigIntGetBitCount
000003e4 g     F .text	00000064 smooth_l1_cpu_TA
000037fc g     F .text	0000005c AES_CBC_decrypt_buffer
00009a10 g     F .text	0000001c TEE_BigIntMulMod
0000be6a g     F .text	000002d0 mbedtls_mpi_inv_mod
00007ba0 g     F .text	000000ba TEE_DeriveKey
000101f0 g     O .bss	00000020 ta_params
0000af54 g     F .text	000003a2 mbedtls_mpi_div_mpi
0000a802 g     F .text	0000000c mbedtls_mpi_size
000050cc g     F .text	00000134 bget
00008810 g     F .text	00000030 TEE_AllocateTransientObject
0000a742 g     F .text	00000050 mbedtls_mpi_set_bit
0000a3a0 g     F .text	00000012 mbedtls_mpi_init_static
00008620 g     F .text	00000004 TEE_Free
0000c6fc g     F .text	00000038 col2im_add_pixel_TA
00002bd6 g     F .text	00000102 load_weights_TA
0000c13a g     F .text	0000005c mbedtls_mpi_is_prime
0000446a g     F .text	0000021e backward_convolutional_layer_TA_new
00008630 g     F .text	00000006 TEE_CacheInvalidate
00008064 g     F .text	00000014 utee_cipher_init
000006d6 g     F .text	00000082 simpson
000066ac g     F .text	00000010 _assert_break
00000590 g     F .text	00000050 ta_exp
000099d8 g     F .text	0000001c TEE_BigIntAddMod
0000428c g     F .text	000000d0 update_convolutional_layer_TA_new
00000888 g     F .text	00000170 ta_cos
00008280 g     F .text	00000014 utee_storage_free_enum
00008188 g     F .text	00000014 utee_authenc_update_aad
00006842 g     F .text	00000546 TEE_AllocateOperation
00002d64 g     F .text	0000006c gemm_nn_TA
0001018c g     O .bss	00000004 err_sum
00007c5a g     F .text	00000012 TEE_GenerateRandom
0000851c g     F .text	00000004 TEE_MemCompare
00005e5c g     F .text	00000734 __vsnprintf
00000818 g     F .text	0000002a asr0
00008be8 g     F .text	00000014 TEE_FreePersistentObjectEnumerator
000083e2 g     F .text	00000044 TEE_OpenTASession
00007e98 g     F .text	00000014 utee_panic
0000377c g     F .text	00000002 AES_init_ctx
000065e8 g     F .text	00000014 trace_ext_puts
000006ba g     F .text	0000001c F2
000065fc g     F .text	00000006 trace_ext_get_thread_id
00008b54 g     F .text	00000016 TEE_CloseAndDeletePersistentObject
0000a3b2 g     F .text	0000004e mbedtls_mpi_free
00003a08 g     F .text	0000004c get_cost_string_TA
00002ebc g     F .text	00000084 gemm_tt_TA
00008624 g     F .text	00000006 TEE_CacheClean
00007f14 g     F .text	00000018 utee_open_ta_session
0000ca78 g     F .text	0000002c buf_compare_ct
0000a664 g     F .text	00000086 mbedtls_mpi_safe_cond_swap
00008954 g     F .text	00000068 TEE_CopyObjectAttributes1
0000804c g     F .text	00000018 utee_hash_final
0000c886 g     F .text	00000010 strlen
00009b54 g     F .text	00000154 TEE_BigIntComputeExtendedGcd
00003a54 g     F .text	00000094 make_cost_layer_TA_new
0000c866 g     F .text	00000002 __aeabi_unwind_cpp_pr1
0000435c g     F .text	00000012 swap_binary_TA
00008214 g     F .text	00000018 utee_storage_obj_open
00007f40 g     F .text	00000018 utee_invoke_ta_command
00007fa8 g     F .text	00000014 utee_wait
000043c0 g     F .text	00000052 scale_bias_TA
00008524 g     F .text	00000016 TEE_GetSystemTime
000032d0 g     F .text	0000006a resize_maxpool_layer_TA
00000000 g     O .ta_head	00000020 ta_head
00005294 g     F .text	000001f8 brel
00003858 g     F .text	00000068 AES_CTR_xcrypt_buffer
0000abba g     F .text	00000080 mbedtls_mpi_sub_abs
00007fbc g     F .text	00000014 utee_get_time
0000bc22 g     F .text	00000032 mbedtls_mpi_fill_random
00004d1c g     F .text	00000090 forward_avgpool_layer_TA_new
00002584 g     F .text	000000a8 forward_connected_layer_TA_new
0000115e g     F .text	000001b6 gradient_TA
000084fe g     F .text	0000000e TEE_SetInstanceData
00001458 g     F .text	00000080 update_network_TA
00007f80 g     F .text	00000014 utee_unmask_cancellation
000065b8 g     F .text	00000018 __aeabi_ldivmod
00007f6c g     F .text	00000014 utee_check_access_rights
0000b42e g     F .text	0000013a mbedtls_mpi_write_string
00002f40 g     F .text	000000d0 gemm_cpu_TA
00008c3c g     F .text	00000054 TEE_GetNextPersistentObject
00008320 g     F .text	00000014 utee_cryp_obj_generate_key
0000c734 g     F .text	000000c8 col2im_cpu_TA
00008426 g     F .text	00000014 TEE_CloseTASession
00007af4 g     F .text	000000ac TEE_AsymmetricVerifyDigest
00a12218 g       .bss	00000000 __gprof_buf_start
0000563e g     F .text	00000012 free
000055a4 g     F .text	00000064 bstats
00007454 g     F .text	00000068 TEE_MACComputeFinal
00012214 g     O .bss	00000004 mbedtls_mpi_mempool



Disassembly of section .text:

00000020 <fill_cpu_TA>:
fill_cpu_TA():
/workspace/benchmark/darknetz/ta/blas_TA.c:10
      20:	0092      	lsls	r2, r2, #2
/workspace/benchmark/darknetz/ta/blas_TA.c:12
      22:	2300      	movs	r3, #0
/workspace/benchmark/darknetz/ta/blas_TA.c:12 (discriminator 1)
      24:	4283      	cmp	r3, r0
      26:	db00      	blt.n	2a <fill_cpu_TA+0xa>
/workspace/benchmark/darknetz/ta/blas_TA.c:13
      28:	4770      	bx	lr
/workspace/benchmark/darknetz/ta/blas_TA.c:12 (discriminator 3)
      2a:	ed81 0a00 	vstr	s0, [r1]
      2e:	3301      	adds	r3, #1
      30:	4411      	add	r1, r2
      32:	e7f7      	b.n	24 <fill_cpu_TA+0x4>

00000034 <copy_cpu_TA>:
copy_cpu_TA():
/workspace/benchmark/darknetz/ta/blas_TA.c:16
      34:	b570      	push	{r4, r5, r6, lr}
      36:	0092      	lsls	r2, r2, #2
      38:	9c04      	ldr	r4, [sp, #16]
      3a:	00a5      	lsls	r5, r4, #2
/workspace/benchmark/darknetz/ta/blas_TA.c:18
      3c:	2400      	movs	r4, #0
/workspace/benchmark/darknetz/ta/blas_TA.c:18 (discriminator 1)
      3e:	4284      	cmp	r4, r0
      40:	db00      	blt.n	44 <copy_cpu_TA+0x10>
/workspace/benchmark/darknetz/ta/blas_TA.c:21
      42:	bd70      	pop	{r4, r5, r6, pc}
/workspace/benchmark/darknetz/ta/blas_TA.c:19 (discriminator 3)
      44:	680e      	ldr	r6, [r1, #0]
/workspace/benchmark/darknetz/ta/blas_TA.c:18 (discriminator 3)
      46:	3401      	adds	r4, #1
/workspace/benchmark/darknetz/ta/blas_TA.c:19 (discriminator 3)
      48:	601e      	str	r6, [r3, #0]
      4a:	4411      	add	r1, r2
      4c:	442b      	add	r3, r5
      4e:	e7f6      	b.n	3e <copy_cpu_TA+0xa>

00000050 <mean_cpu_TA>:
mean_cpu_TA():
/workspace/benchmark/darknetz/ta/blas_TA.c:24
      50:	e92d 47f0 	stmdb	sp!, {r4, r5, r6, r7, r8, r9, sl, lr}
/workspace/benchmark/darknetz/ta/blas_TA.c:25
      54:	fb03 f401 	mul.w	r4, r3, r1
      58:	ee06 4a10 	vmov	s12, r4
      5c:	eeb7 5b00 	vmov.f64	d5, #112	; 0x3f800000  1.0
      60:	0096      	lsls	r6, r2, #2
      62:	eeb8 6bc6 	vcvt.f64.s32	d6, s12
      66:	9c08      	ldr	r4, [sp, #32]
      68:	ea4f 0983 	mov.w	r9, r3, lsl #2
/workspace/benchmark/darknetz/ta/blas_TA.c:27
      6c:	2500      	movs	r5, #0
      6e:	435e      	muls	r6, r3
/workspace/benchmark/darknetz/ta/blas_TA.c:28
      70:	f04f 0a00 	mov.w	sl, #0
/workspace/benchmark/darknetz/ta/blas_TA.c:25
      74:	ee85 7b06 	vdiv.f64	d7, d5, d6
      78:	eeb7 7bc7 	vcvt.f32.f64	s14, d7
/workspace/benchmark/darknetz/ta/blas_TA.c:27 (discriminator 1)
      7c:	4295      	cmp	r5, r2
      7e:	db01      	blt.n	84 <mean_cpu_TA+0x34>
/workspace/benchmark/darknetz/ta/blas_TA.c:37
      80:	e8bd 87f0 	ldmia.w	sp!, {r4, r5, r6, r7, r8, r9, sl, pc}
/workspace/benchmark/darknetz/ta/blas_TA.c:29
      84:	4684      	mov	ip, r0
      86:	2700      	movs	r7, #0
/workspace/benchmark/darknetz/ta/blas_TA.c:28
      88:	f8c4 a000 	str.w	sl, [r4]
/workspace/benchmark/darknetz/ta/blas_TA.c:29 (discriminator 1)
      8c:	428f      	cmp	r7, r1
      8e:	db17      	blt.n	c0 <mean_cpu_TA+0x70>
/workspace/benchmark/darknetz/ta/blas_TA.c:35 (discriminator 2)
      90:	edd4 7a00 	vldr	s15, [r4]
/workspace/benchmark/darknetz/ta/blas_TA.c:27 (discriminator 2)
      94:	3501      	adds	r5, #1
      96:	4448      	add	r0, r9
/workspace/benchmark/darknetz/ta/blas_TA.c:35 (discriminator 2)
      98:	ee67 7a87 	vmul.f32	s15, s15, s14
      9c:	ece4 7a01 	vstmia	r4!, {s15}
      a0:	e7ec      	b.n	7c <mean_cpu_TA+0x2c>
/workspace/benchmark/darknetz/ta/blas_TA.c:32 (discriminator 3)
      a2:	ecf8 6a01 	vldmia	r8!, {s13}
/workspace/benchmark/darknetz/ta/blas_TA.c:30 (discriminator 3)
      a6:	f10e 0e01 	add.w	lr, lr, #1
/workspace/benchmark/darknetz/ta/blas_TA.c:32 (discriminator 3)
      aa:	edd4 7a00 	vldr	s15, [r4]
      ae:	ee77 7aa6 	vadd.f32	s15, s15, s13
      b2:	edc4 7a00 	vstr	s15, [r4]
/workspace/benchmark/darknetz/ta/blas_TA.c:30 (discriminator 1)
      b6:	459e      	cmp	lr, r3
      b8:	dbf3      	blt.n	a2 <mean_cpu_TA+0x52>
/workspace/benchmark/darknetz/ta/blas_TA.c:29 (discriminator 2)
      ba:	3701      	adds	r7, #1
      bc:	44b4      	add	ip, r6
      be:	e7e5      	b.n	8c <mean_cpu_TA+0x3c>
      c0:	46e0      	mov	r8, ip
      c2:	f04f 0e00 	mov.w	lr, #0
      c6:	e7f6      	b.n	b6 <mean_cpu_TA+0x66>

000000c8 <variance_cpu_TA>:
variance_cpu_TA():
/workspace/benchmark/darknetz/ta/blas_TA.c:40
      c8:	e92d 4ff0 	stmdb	sp!, {r4, r5, r6, r7, r8, r9, sl, fp, lr}
/workspace/benchmark/darknetz/ta/blas_TA.c:41
      cc:	eeb7 5b00 	vmov.f64	d5, #112	; 0x3f800000  1.0
      d0:	4688      	mov	r8, r1
/workspace/benchmark/darknetz/ta/blas_TA.c:40
      d2:	ed2d 8b02 	vpush	{d8}
      d6:	b087      	sub	sp, #28
      d8:	0099      	lsls	r1, r3, #2
      da:	4607      	mov	r7, r0
      dc:	9d12      	ldr	r5, [sp, #72]	; 0x48
      de:	00ae      	lsls	r6, r5, #2
      e0:	9601      	str	r6, [sp, #4]
/workspace/benchmark/darknetz/ta/blas_TA.c:41
      e2:	fb05 f402 	mul.w	r4, r5, r2
/workspace/benchmark/darknetz/ta/blas_TA.c:43
      e6:	2600      	movs	r6, #0
      e8:	4369      	muls	r1, r5
/workspace/benchmark/darknetz/ta/blas_TA.c:41
      ea:	3c01      	subs	r4, #1
      ec:	ee07 4a90 	vmov	s15, r4
      f0:	9c13      	ldr	r4, [sp, #76]	; 0x4c
      f2:	eeb8 7be7 	vcvt.f64.s32	d7, s15
      f6:	9100      	str	r1, [sp, #0]
      f8:	ee85 8b07 	vdiv.f64	d8, d5, d7
      fc:	eeb7 8bc8 	vcvt.f32.f64	s16, d8
/workspace/benchmark/darknetz/ta/blas_TA.c:44
     100:	eddf 8a21 	vldr	s17, [pc, #132]	; 188 <variance_cpu_TA+0xc0>
/workspace/benchmark/darknetz/ta/blas_TA.c:43 (discriminator 1)
     104:	429e      	cmp	r6, r3
     106:	db04      	blt.n	112 <variance_cpu_TA+0x4a>
/workspace/benchmark/darknetz/ta/blas_TA.c:53
     108:	b007      	add	sp, #28
     10a:	ecbd 8b02 	vpop	{d8}
     10e:	e8bd 8ff0 	ldmia.w	sp!, {r4, r5, r6, r7, r8, r9, sl, fp, pc}
/workspace/benchmark/darknetz/ta/blas_TA.c:45
     112:	46ba      	mov	sl, r7
     114:	f04f 0900 	mov.w	r9, #0
/workspace/benchmark/darknetz/ta/blas_TA.c:44
     118:	edc4 8a00 	vstr	s17, [r4]
/workspace/benchmark/darknetz/ta/blas_TA.c:45 (discriminator 1)
     11c:	4591      	cmp	r9, r2
     11e:	db2f      	blt.n	180 <variance_cpu_TA+0xb8>
/workspace/benchmark/darknetz/ta/blas_TA.c:51 (discriminator 2)
     120:	edd4 7a00 	vldr	s15, [r4]
/workspace/benchmark/darknetz/ta/blas_TA.c:43 (discriminator 2)
     124:	3601      	adds	r6, #1
     126:	9901      	ldr	r1, [sp, #4]
     128:	f108 0804 	add.w	r8, r8, #4
     12c:	440f      	add	r7, r1
/workspace/benchmark/darknetz/ta/blas_TA.c:51 (discriminator 2)
     12e:	ee67 7a88 	vmul.f32	s15, s15, s16
     132:	ece4 7a01 	vstmia	r4!, {s15}
     136:	e7e5      	b.n	104 <variance_cpu_TA+0x3c>
/workspace/benchmark/darknetz/ta/blas_TA.c:48 (discriminator 3)
     138:	ecb1 0a01 	vldmia	r1!, {s0}
     13c:	2002      	movs	r0, #2
     13e:	edd8 7a00 	vldr	s15, [r8]
/workspace/benchmark/darknetz/ta/blas_TA.c:46 (discriminator 3)
     142:	f10b 0b01 	add.w	fp, fp, #1
     146:	9304      	str	r3, [sp, #16]
     148:	9203      	str	r2, [sp, #12]
/workspace/benchmark/darknetz/ta/blas_TA.c:48 (discriminator 3)
     14a:	9102      	str	r1, [sp, #8]
     14c:	ee30 0a67 	vsub.f32	s0, s0, s15
     150:	9105      	str	r1, [sp, #20]
     152:	eeb7 0ac0 	vcvt.f64.f32	d0, s0
     156:	f000 f9b3 	bl	4c0 <ta_pow>
     15a:	ed94 7a00 	vldr	s14, [r4]
     15e:	a902      	add	r1, sp, #8
     160:	eeb7 7ac7 	vcvt.f64.f32	d7, s14
     164:	c90e      	ldmia	r1, {r1, r2, r3}
     166:	ee37 0b00 	vadd.f64	d0, d7, d0
     16a:	eeb7 0bc0 	vcvt.f32.f64	s0, d0
     16e:	ed84 0a00 	vstr	s0, [r4]
/workspace/benchmark/darknetz/ta/blas_TA.c:46 (discriminator 1)
     172:	45ab      	cmp	fp, r5
     174:	dbe0      	blt.n	138 <variance_cpu_TA+0x70>
     176:	9900      	ldr	r1, [sp, #0]
/workspace/benchmark/darknetz/ta/blas_TA.c:45 (discriminator 2)
     178:	f109 0901 	add.w	r9, r9, #1
     17c:	448a      	add	sl, r1
     17e:	e7cd      	b.n	11c <variance_cpu_TA+0x54>
     180:	4651      	mov	r1, sl
     182:	f04f 0b00 	mov.w	fp, #0
     186:	e7f4      	b.n	172 <variance_cpu_TA+0xaa>
     188:	00000000 	.word	0x00000000

0000018c <scal_cpu_TA>:
scal_cpu_TA():
/workspace/benchmark/darknetz/ta/blas_TA.c:56
     18c:	0092      	lsls	r2, r2, #2
/workspace/benchmark/darknetz/ta/blas_TA.c:58
     18e:	2300      	movs	r3, #0
/workspace/benchmark/darknetz/ta/blas_TA.c:58 (discriminator 1)
     190:	4283      	cmp	r3, r0
     192:	db00      	blt.n	196 <scal_cpu_TA+0xa>
/workspace/benchmark/darknetz/ta/blas_TA.c:59
     194:	4770      	bx	lr
/workspace/benchmark/darknetz/ta/blas_TA.c:58 (discriminator 3)
     196:	edd1 7a00 	vldr	s15, [r1]
     19a:	3301      	adds	r3, #1
     19c:	ee67 7a80 	vmul.f32	s15, s15, s0
     1a0:	edc1 7a00 	vstr	s15, [r1]
     1a4:	4411      	add	r1, r2
     1a6:	e7f3      	b.n	190 <scal_cpu_TA+0x4>

000001a8 <axpy_cpu_TA>:
axpy_cpu_TA():
/workspace/benchmark/darknetz/ta/blas_TA.c:62
     1a8:	b530      	push	{r4, r5, lr}
     1aa:	0092      	lsls	r2, r2, #2
     1ac:	9c03      	ldr	r4, [sp, #12]
     1ae:	00a5      	lsls	r5, r4, #2
/workspace/benchmark/darknetz/ta/blas_TA.c:64
     1b0:	2400      	movs	r4, #0
/workspace/benchmark/darknetz/ta/blas_TA.c:64 (discriminator 1)
     1b2:	4284      	cmp	r4, r0
     1b4:	db00      	blt.n	1b8 <axpy_cpu_TA+0x10>
/workspace/benchmark/darknetz/ta/blas_TA.c:65
     1b6:	bd30      	pop	{r4, r5, pc}
/workspace/benchmark/darknetz/ta/blas_TA.c:64 (discriminator 3)
     1b8:	ed91 7a00 	vldr	s14, [r1]
     1bc:	3401      	adds	r4, #1
     1be:	edd3 7a00 	vldr	s15, [r3]
     1c2:	4411      	add	r1, r2
     1c4:	ee40 7a07 	vmla.f32	s15, s0, s14
     1c8:	edc3 7a00 	vstr	s15, [r3]
     1cc:	442b      	add	r3, r5
     1ce:	e7f0      	b.n	1b2 <axpy_cpu_TA+0xa>

000001d0 <normalize_cpu_TA>:
normalize_cpu_TA():
/workspace/benchmark/darknetz/ta/blas_TA.c:69
     1d0:	e92d 4ff0 	stmdb	sp!, {r4, r5, r6, r7, r8, r9, sl, fp, lr}
     1d4:	4693      	mov	fp, r2
     1d6:	4606      	mov	r6, r0
     1d8:	ed2d 8b04 	vpush	{d8-d9}
     1dc:	b087      	sub	sp, #28
/workspace/benchmark/darknetz/ta/blas_TA.c:75
     1de:	ed9f 9b26 	vldr	d9, [pc, #152]	; 278 <normalize_cpu_TA+0xa8>
/workspace/benchmark/darknetz/ta/blas_TA.c:71
     1e2:	f04f 0900 	mov.w	r9, #0
     1e6:	9a15      	ldr	r2, [sp, #84]	; 0x54
     1e8:	9c14      	ldr	r4, [sp, #80]	; 0x50
     1ea:	0092      	lsls	r2, r2, #2
     1ec:	4354      	muls	r4, r2
     1ee:	9401      	str	r4, [sp, #4]
/workspace/benchmark/darknetz/ta/blas_TA.c:71 (discriminator 1)
     1f0:	4599      	cmp	r9, r3
     1f2:	da3c      	bge.n	26e <normalize_cpu_TA+0x9e>
/workspace/benchmark/darknetz/ta/blas_TA.c:71
     1f4:	2000      	movs	r0, #0
     1f6:	4688      	mov	r8, r1
     1f8:	465f      	mov	r7, fp
     1fa:	4635      	mov	r5, r6
     1fc:	9000      	str	r0, [sp, #0]
     1fe:	e029      	b.n	254 <normalize_cpu_TA+0x84>
/workspace/benchmark/darknetz/ta/blas_TA.c:75 (discriminator 3)
     200:	ed90 8a00 	vldr	s16, [r0]
/workspace/benchmark/darknetz/ta/blas_TA.c:73 (discriminator 3)
     204:	f10a 0a01 	add.w	sl, sl, #1
/workspace/benchmark/darknetz/ta/blas_TA.c:75 (discriminator 3)
     208:	edd8 7a00 	vldr	s15, [r8]
     20c:	ed97 0a00 	vldr	s0, [r7]
     210:	9305      	str	r3, [sp, #20]
     212:	9104      	str	r1, [sp, #16]
     214:	ee38 8a67 	vsub.f32	s16, s16, s15
     218:	9203      	str	r2, [sp, #12]
     21a:	eeb7 0ac0 	vcvt.f64.f32	d0, s0
     21e:	9002      	str	r0, [sp, #8]
     220:	f000 fa0d 	bl	63e <ta_sqrt>
     224:	ee30 0b09 	vadd.f64	d0, d0, d9
     228:	9802      	ldr	r0, [sp, #8]
     22a:	eeb7 8ac8 	vcvt.f64.f32	d8, s16
     22e:	9a03      	ldr	r2, [sp, #12]
     230:	9904      	ldr	r1, [sp, #16]
     232:	9b05      	ldr	r3, [sp, #20]
     234:	ee88 7b00 	vdiv.f64	d7, d8, d0
     238:	eeb7 7bc7 	vcvt.f32.f64	s14, d7
     23c:	eca0 7a01 	vstmia	r0!, {s14}
/workspace/benchmark/darknetz/ta/blas_TA.c:73 (discriminator 1)
     240:	9c15      	ldr	r4, [sp, #84]	; 0x54
     242:	45a2      	cmp	sl, r4
     244:	dbdc      	blt.n	200 <normalize_cpu_TA+0x30>
/workspace/benchmark/darknetz/ta/blas_TA.c:72 (discriminator 2)
     246:	9800      	ldr	r0, [sp, #0]
     248:	4415      	add	r5, r2
     24a:	f108 0804 	add.w	r8, r8, #4
     24e:	3704      	adds	r7, #4
     250:	3001      	adds	r0, #1
     252:	9000      	str	r0, [sp, #0]
/workspace/benchmark/darknetz/ta/blas_TA.c:72 (discriminator 1)
     254:	9814      	ldr	r0, [sp, #80]	; 0x50
     256:	9c00      	ldr	r4, [sp, #0]
     258:	4284      	cmp	r4, r0
     25a:	db04      	blt.n	266 <normalize_cpu_TA+0x96>
     25c:	9801      	ldr	r0, [sp, #4]
/workspace/benchmark/darknetz/ta/blas_TA.c:71 (discriminator 2)
     25e:	f109 0901 	add.w	r9, r9, #1
     262:	4406      	add	r6, r0
     264:	e7c4      	b.n	1f0 <normalize_cpu_TA+0x20>
     266:	4628      	mov	r0, r5
     268:	f04f 0a00 	mov.w	sl, #0
     26c:	e7e8      	b.n	240 <normalize_cpu_TA+0x70>
/workspace/benchmark/darknetz/ta/blas_TA.c:79
     26e:	b007      	add	sp, #28
     270:	ecbd 8b04 	vpop	{d8-d9}
     274:	e8bd 8ff0 	ldmia.w	sp!, {r4, r5, r6, r7, r8, r9, sl, fp, pc}
     278:	a0000000 	.word	0xa0000000
     27c:	3eb0c6f7 	.word	0x3eb0c6f7

00000280 <softmax_TA>:
softmax_TA():
/workspace/benchmark/darknetz/ta/blas_TA.c:83
     280:	e92d 43f8 	stmdb	sp!, {r3, r4, r5, r6, r7, r8, r9, lr}
     284:	460f      	mov	r7, r1
     286:	0095      	lsls	r5, r2, #2
     288:	ed2d 8b04 	vpush	{d8-d9}
     28c:	4606      	mov	r6, r0
/workspace/benchmark/darknetz/ta/blas_TA.c:86
     28e:	ed9f 9a23 	vldr	s18, [pc, #140]	; 31c <softmax_TA+0x9c>
/workspace/benchmark/darknetz/ta/blas_TA.c:87
     292:	4601      	mov	r1, r0
     294:	2200      	movs	r2, #0
/workspace/benchmark/darknetz/ta/blas_TA.c:87 (discriminator 1)
     296:	42ba      	cmp	r2, r7
     298:	db16      	blt.n	2c8 <softmax_TA+0x48>
     29a:	eef7 7a00 	vmov.f32	s15, #112	; 0x3f800000  1.0
/workspace/benchmark/darknetz/ta/blas_TA.c:87
     29e:	eddf 8a20 	vldr	s17, [pc, #128]	; 320 <softmax_TA+0xa0>
     2a2:	461c      	mov	r4, r3
     2a4:	4699      	mov	r9, r3
     2a6:	f04f 0800 	mov.w	r8, #0
     2aa:	eec7 9a80 	vdiv.f32	s19, s15, s0
     2ae:	eeb0 8a67 	vmov.f32	s16, s15
/workspace/benchmark/darknetz/ta/blas_TA.c:90 (discriminator 1)
     2b2:	45b8      	cmp	r8, r7
     2b4:	db14      	blt.n	2e0 <softmax_TA+0x60>
     2b6:	ee88 7a28 	vdiv.f32	s14, s16, s17
/workspace/benchmark/darknetz/ta/blas_TA.c:90
     2ba:	2300      	movs	r3, #0
/workspace/benchmark/darknetz/ta/blas_TA.c:95 (discriminator 1)
     2bc:	42bb      	cmp	r3, r7
     2be:	db24      	blt.n	30a <softmax_TA+0x8a>
/workspace/benchmark/darknetz/ta/blas_TA.c:98
     2c0:	ecbd 8b04 	vpop	{d8-d9}
     2c4:	e8bd 83f8 	ldmia.w	sp!, {r3, r4, r5, r6, r7, r8, r9, pc}
/workspace/benchmark/darknetz/ta/blas_TA.c:88
     2c8:	edd1 7a00 	vldr	s15, [r1]
     2cc:	eeb4 9ae7 	vcmpe.f32	s18, s15
     2d0:	eef1 fa10 	vmrs	APSR_nzcv, fpscr
     2d4:	d501      	bpl.n	2da <softmax_TA+0x5a>
     2d6:	eeb0 9a67 	vmov.f32	s18, s15
/workspace/benchmark/darknetz/ta/blas_TA.c:87 (discriminator 2)
     2da:	3201      	adds	r2, #1
     2dc:	4429      	add	r1, r5
     2de:	e7da      	b.n	296 <softmax_TA+0x16>
/workspace/benchmark/darknetz/ta/blas_TA.c:91 (discriminator 3)
     2e0:	ed96 0a00 	vldr	s0, [r6]
/workspace/benchmark/darknetz/ta/blas_TA.c:90 (discriminator 3)
     2e4:	f108 0801 	add.w	r8, r8, #1
     2e8:	442e      	add	r6, r5
/workspace/benchmark/darknetz/ta/blas_TA.c:91 (discriminator 3)
     2ea:	ee30 0a49 	vsub.f32	s0, s0, s18
     2ee:	ee20 0a29 	vmul.f32	s0, s0, s19
     2f2:	eeb7 0ac0 	vcvt.f64.f32	d0, s0
     2f6:	f000 f94b 	bl	590 <ta_exp>
     2fa:	eeb7 0bc0 	vcvt.f32.f64	s0, d0
/workspace/benchmark/darknetz/ta/blas_TA.c:92 (discriminator 3)
     2fe:	ee78 8a80 	vadd.f32	s17, s17, s0
/workspace/benchmark/darknetz/ta/blas_TA.c:93 (discriminator 3)
     302:	ed89 0a00 	vstr	s0, [r9]
     306:	44a9      	add	r9, r5
     308:	e7d3      	b.n	2b2 <softmax_TA+0x32>
/workspace/benchmark/darknetz/ta/blas_TA.c:96 (discriminator 3)
     30a:	edd4 7a00 	vldr	s15, [r4]
/workspace/benchmark/darknetz/ta/blas_TA.c:95 (discriminator 3)
     30e:	3301      	adds	r3, #1
/workspace/benchmark/darknetz/ta/blas_TA.c:96 (discriminator 3)
     310:	ee67 7a87 	vmul.f32	s15, s15, s14
     314:	edc4 7a00 	vstr	s15, [r4]
     318:	442c      	add	r4, r5
     31a:	e7cf      	b.n	2bc <softmax_TA+0x3c>
     31c:	ce6e6b28 	.word	0xce6e6b28
     320:	00000000 	.word	0x00000000

00000324 <softmax_cpu_TA>:
softmax_cpu_TA():
/workspace/benchmark/darknetz/ta/blas_TA.c:102
     324:	e92d 4ff0 	stmdb	sp!, {r4, r5, r6, r7, r8, r9, sl, fp, lr}
     328:	009f      	lsls	r7, r3, #2
     32a:	4606      	mov	r6, r0
     32c:	ed2d 8b02 	vpush	{d8}
     330:	b083      	sub	sp, #12
     332:	eeb0 8a40 	vmov.f32	s16, s0
/workspace/benchmark/darknetz/ta/blas_TA.c:104
     336:	2500      	movs	r5, #0
     338:	9c0f      	ldr	r4, [sp, #60]	; 0x3c
     33a:	f8dd 8044 	ldr.w	r8, [sp, #68]	; 0x44
/workspace/benchmark/darknetz/ta/blas_TA.c:102
     33e:	e88d 0006 	stmia.w	sp, {r1, r2}
     342:	00a4      	lsls	r4, r4, #2
/workspace/benchmark/darknetz/ta/blas_TA.c:104 (discriminator 1)
     344:	9b01      	ldr	r3, [sp, #4]
     346:	429d      	cmp	r5, r3
     348:	db17      	blt.n	37a <softmax_cpu_TA+0x56>
/workspace/benchmark/darknetz/ta/blas_TA.c:109
     34a:	b003      	add	sp, #12
     34c:	ecbd 8b02 	vpop	{d8}
     350:	e8bd 8ff0 	ldmia.w	sp!, {r4, r5, r6, r7, r8, r9, sl, fp, pc}
/workspace/benchmark/darknetz/ta/blas_TA.c:106 (discriminator 3)
     354:	465b      	mov	r3, fp
     356:	4650      	mov	r0, sl
/workspace/benchmark/darknetz/ta/blas_TA.c:105 (discriminator 3)
     358:	f109 0901 	add.w	r9, r9, #1
     35c:	44a2      	add	sl, r4
     35e:	44a3      	add	fp, r4
/workspace/benchmark/darknetz/ta/blas_TA.c:106 (discriminator 3)
     360:	9a10      	ldr	r2, [sp, #64]	; 0x40
     362:	eeb0 0a48 	vmov.f32	s0, s16
     366:	9900      	ldr	r1, [sp, #0]
     368:	f7ff ff8a 	bl	280 <softmax_TA>
/workspace/benchmark/darknetz/ta/blas_TA.c:105 (discriminator 1)
     36c:	9b0e      	ldr	r3, [sp, #56]	; 0x38
     36e:	4599      	cmp	r9, r3
     370:	dbf0      	blt.n	354 <softmax_cpu_TA+0x30>
/workspace/benchmark/darknetz/ta/blas_TA.c:104 (discriminator 2)
     372:	3501      	adds	r5, #1
     374:	443e      	add	r6, r7
     376:	44b8      	add	r8, r7
     378:	e7e4      	b.n	344 <softmax_cpu_TA+0x20>
     37a:	46c3      	mov	fp, r8
     37c:	46b2      	mov	sl, r6
     37e:	f04f 0900 	mov.w	r9, #0
     382:	e7f3      	b.n	36c <softmax_cpu_TA+0x48>

00000384 <softmax_x_ent_cpu_TA>:
softmax_x_ent_cpu_TA():
/workspace/benchmark/darknetz/ta/blas_TA.c:114
     384:	e92d 43f8 	stmdb	sp!, {r3, r4, r5, r6, r7, r8, r9, lr}
     388:	4681      	mov	r9, r0
     38a:	461e      	mov	r6, r3
     38c:	ed2d 8b04 	vpush	{d8-d9}
     390:	4617      	mov	r7, r2
     392:	9d0c      	ldr	r5, [sp, #48]	; 0x30
     394:	4688      	mov	r8, r1
/workspace/benchmark/darknetz/ta/blas_TA.c:119
     396:	ed9f 9a12 	vldr	s18, [pc, #72]	; 3e0 <softmax_x_ent_cpu_TA+0x5c>
/workspace/benchmark/darknetz/ta/blas_TA.c:116
     39a:	2400      	movs	r4, #0
/workspace/benchmark/darknetz/ta/blas_TA.c:116 (discriminator 2)
     39c:	454c      	cmp	r4, r9
     39e:	db03      	blt.n	3a8 <softmax_x_ent_cpu_TA+0x24>
/workspace/benchmark/darknetz/ta/blas_TA.c:122
     3a0:	ecbd 8b04 	vpop	{d8-d9}
     3a4:	e8bd 83f8 	ldmia.w	sp!, {r3, r4, r5, r6, r7, r8, r9, pc}
/workspace/benchmark/darknetz/ta/blas_TA.c:117
     3a8:	ecb7 8a01 	vldmia	r7!, {s16}
/workspace/benchmark/darknetz/ta/blas_TA.c:118
     3ac:	ecf8 8a01 	vldmia	r8!, {s17}
/workspace/benchmark/darknetz/ta/blas_TA.c:119
     3b0:	eeb5 8a40 	vcmp.f32	s16, #0.0
     3b4:	eef1 fa10 	vmrs	APSR_nzcv, fpscr
     3b8:	d00f      	beq.n	3da <softmax_x_ent_cpu_TA+0x56>
/workspace/benchmark/darknetz/ta/blas_TA.c:119 (discriminator 1)
     3ba:	eeb7 0ae8 	vcvt.f64.f32	d0, s17
     3be:	f000 fa40 	bl	842 <ta_ln>
     3c2:	eeb1 0b40 	vneg.f64	d0, d0
     3c6:	eeb7 0bc0 	vcvt.f32.f64	s0, d0
/workspace/benchmark/darknetz/ta/blas_TA.c:120 (discriminator 4)
     3ca:	ee38 8a68 	vsub.f32	s16, s16, s17
/workspace/benchmark/darknetz/ta/blas_TA.c:119 (discriminator 4)
     3ce:	eca5 0a01 	vstmia	r5!, {s0}
/workspace/benchmark/darknetz/ta/blas_TA.c:116 (discriminator 4)
     3d2:	3401      	adds	r4, #1
/workspace/benchmark/darknetz/ta/blas_TA.c:120 (discriminator 4)
     3d4:	eca6 8a01 	vstmia	r6!, {s16}
     3d8:	e7e0      	b.n	39c <softmax_x_ent_cpu_TA+0x18>
/workspace/benchmark/darknetz/ta/blas_TA.c:119
     3da:	eeb0 0a49 	vmov.f32	s0, s18
     3de:	e7f4      	b.n	3ca <softmax_x_ent_cpu_TA+0x46>
     3e0:	00000000 	.word	0x00000000

000003e4 <smooth_l1_cpu_TA>:
smooth_l1_cpu_TA():
/workspace/benchmark/darknetz/ta/blas_TA.c:127
     3e4:	b570      	push	{r4, r5, r6, lr}
/workspace/benchmark/darknetz/ta/blas_TA.c:132
     3e6:	eef7 6a00 	vmov.f32	s13, #112	; 0x3f800000  1.0
     3ea:	9c04      	ldr	r4, [sp, #16]
/workspace/benchmark/darknetz/ta/blas_TA.c:129
     3ec:	2500      	movs	r5, #0
/workspace/benchmark/darknetz/ta/blas_TA.c:129 (discriminator 1)
     3ee:	4285      	cmp	r5, r0
     3f0:	db00      	blt.n	3f4 <smooth_l1_cpu_TA+0x10>
/workspace/benchmark/darknetz/ta/blas_TA.c:141
     3f2:	bd70      	pop	{r4, r5, r6, pc}
/workspace/benchmark/darknetz/ta/blas_TA.c:130
     3f4:	ecb1 7a01 	vldmia	r1!, {s14}
     3f8:	ecf2 7a01 	vldmia	r2!, {s15}
     3fc:	ee77 7ac7 	vsub.f32	s15, s15, s14
/workspace/benchmark/darknetz/ta/blas_TA.c:131
     400:	eeb0 7ae7 	vabs.f32	s14, s15
/workspace/benchmark/darknetz/ta/blas_TA.c:132
     404:	eeb4 7ae6 	vcmpe.f32	s14, s13
     408:	eef1 fa10 	vmrs	APSR_nzcv, fpscr
     40c:	d509      	bpl.n	422 <smooth_l1_cpu_TA+0x3e>
/workspace/benchmark/darknetz/ta/blas_TA.c:133
     40e:	ee27 7aa7 	vmul.f32	s14, s15, s15
     412:	ed84 7a00 	vstr	s14, [r4]
/workspace/benchmark/darknetz/ta/blas_TA.c:134
     416:	edc3 7a00 	vstr	s15, [r3]
/workspace/benchmark/darknetz/ta/blas_TA.c:129 (discriminator 2)
     41a:	3501      	adds	r5, #1
     41c:	3404      	adds	r4, #4
     41e:	3304      	adds	r3, #4
     420:	e7e5      	b.n	3ee <smooth_l1_cpu_TA+0xa>
/workspace/benchmark/darknetz/ta/blas_TA.c:138
     422:	eef5 7ac0 	vcmpe.f32	s15, #0.0
/workspace/benchmark/darknetz/ta/blas_TA.c:137
     426:	ee37 7a07 	vadd.f32	s14, s14, s14
     42a:	ee37 7a66 	vsub.f32	s14, s14, s13
/workspace/benchmark/darknetz/ta/blas_TA.c:138
     42e:	eef1 fa10 	vmrs	APSR_nzcv, fpscr
/workspace/benchmark/darknetz/ta/blas_TA.c:137
     432:	ed84 7a00 	vstr	s14, [r4]
/workspace/benchmark/darknetz/ta/blas_TA.c:138
     436:	d503      	bpl.n	440 <smooth_l1_cpu_TA+0x5c>
     438:	f04f 567e 	mov.w	r6, #1065353216	; 0x3f800000
/workspace/benchmark/darknetz/ta/blas_TA.c:138 (discriminator 4)
     43c:	601e      	str	r6, [r3, #0]
     43e:	e7ec      	b.n	41a <smooth_l1_cpu_TA+0x36>
/workspace/benchmark/darknetz/ta/blas_TA.c:138
     440:	4e00      	ldr	r6, [pc, #0]	; (444 <smooth_l1_cpu_TA+0x60>)
     442:	e7fb      	b.n	43c <smooth_l1_cpu_TA+0x58>
     444:	bf800000 	.word	0xbf800000

00000448 <l1_cpu_TA>:
l1_cpu_TA():
/workspace/benchmark/darknetz/ta/blas_TA.c:145
     448:	b570      	push	{r4, r5, r6, lr}
/workspace/benchmark/darknetz/ta/blas_TA.c:147
     44a:	2400      	movs	r4, #0
     44c:	9d04      	ldr	r5, [sp, #16]
/workspace/benchmark/darknetz/ta/blas_TA.c:147 (discriminator 2)
     44e:	4284      	cmp	r4, r0
     450:	db00      	blt.n	454 <l1_cpu_TA+0xc>
/workspace/benchmark/darknetz/ta/blas_TA.c:152
     452:	bd70      	pop	{r4, r5, r6, pc}
/workspace/benchmark/darknetz/ta/blas_TA.c:148
     454:	ecb1 7a01 	vldmia	r1!, {s14}
     458:	ecf2 7a01 	vldmia	r2!, {s15}
     45c:	ee77 7ac7 	vsub.f32	s15, s15, s14
/workspace/benchmark/darknetz/ta/blas_TA.c:150
     460:	eef5 7ac0 	vcmpe.f32	s15, #0.0
/workspace/benchmark/darknetz/ta/blas_TA.c:149
     464:	eeb0 7ae7 	vabs.f32	s14, s15
/workspace/benchmark/darknetz/ta/blas_TA.c:150
     468:	eef1 fa10 	vmrs	APSR_nzcv, fpscr
/workspace/benchmark/darknetz/ta/blas_TA.c:149
     46c:	eca5 7a01 	vstmia	r5!, {s14}
/workspace/benchmark/darknetz/ta/blas_TA.c:150
     470:	dc04      	bgt.n	47c <l1_cpu_TA+0x34>
     472:	4e04      	ldr	r6, [pc, #16]	; (484 <l1_cpu_TA+0x3c>)
/workspace/benchmark/darknetz/ta/blas_TA.c:150 (discriminator 4)
     474:	f843 6b04 	str.w	r6, [r3], #4
/workspace/benchmark/darknetz/ta/blas_TA.c:147 (discriminator 4)
     478:	3401      	adds	r4, #1
     47a:	e7e8      	b.n	44e <l1_cpu_TA+0x6>
/workspace/benchmark/darknetz/ta/blas_TA.c:150
     47c:	f04f 567e 	mov.w	r6, #1065353216	; 0x3f800000
     480:	e7f8      	b.n	474 <l1_cpu_TA+0x2c>
     482:	bf00      	nop
     484:	bf800000 	.word	0xbf800000

00000488 <l2_cpu_TA>:
l2_cpu_TA():
/workspace/benchmark/darknetz/ta/blas_TA.c:155
     488:	b530      	push	{r4, r5, lr}
/workspace/benchmark/darknetz/ta/blas_TA.c:157
     48a:	2400      	movs	r4, #0
     48c:	9d03      	ldr	r5, [sp, #12]
/workspace/benchmark/darknetz/ta/blas_TA.c:157 (discriminator 1)
     48e:	4284      	cmp	r4, r0
     490:	db00      	blt.n	494 <l2_cpu_TA+0xc>
/workspace/benchmark/darknetz/ta/blas_TA.c:162
     492:	bd30      	pop	{r4, r5, pc}
/workspace/benchmark/darknetz/ta/blas_TA.c:158 (discriminator 3)
     494:	ecb1 7a01 	vldmia	r1!, {s14}
/workspace/benchmark/darknetz/ta/blas_TA.c:157 (discriminator 3)
     498:	3401      	adds	r4, #1
/workspace/benchmark/darknetz/ta/blas_TA.c:158 (discriminator 3)
     49a:	ecf2 7a01 	vldmia	r2!, {s15}
     49e:	ee77 7ac7 	vsub.f32	s15, s15, s14
/workspace/benchmark/darknetz/ta/blas_TA.c:159 (discriminator 3)
     4a2:	ee27 7aa7 	vmul.f32	s14, s15, s15
     4a6:	eca5 7a01 	vstmia	r5!, {s14}
/workspace/benchmark/darknetz/ta/blas_TA.c:160 (discriminator 3)
     4aa:	ece3 7a01 	vstmia	r3!, {s15}
     4ae:	e7ee      	b.n	48e <l2_cpu_TA+0x6>

000004b0 <ta_max>:
ta_max():
/workspace/benchmark/darknetz/ta/math_TA.c:15
     4b0:	eeb4 0ae0 	vcmpe.f32	s0, s1
     4b4:	eef1 fa10 	vmrs	APSR_nzcv, fpscr
     4b8:	dc01      	bgt.n	4be <ta_max+0xe>
/workspace/benchmark/darknetz/ta/math_TA.c:19
     4ba:	eeb0 0a60 	vmov.f32	s0, s1
/workspace/benchmark/darknetz/ta/math_TA.c:22
     4be:	4770      	bx	lr

000004c0 <ta_pow>:
ta_pow():
/workspace/benchmark/darknetz/ta/math_TA.c:26
     4c0:	b508      	push	{r3, lr}
     4c2:	eeb0 7b40 	vmov.f64	d7, d0
/workspace/benchmark/darknetz/ta/math_TA.c:27
     4c6:	2800      	cmp	r0, #0
/workspace/benchmark/darknetz/ta/math_TA.c:26
     4c8:	ed2d 8b02 	vpush	{d8}
     4cc:	eeb7 8b00 	vmov.f64	d8, #112	; 0x3f800000  1.0
/workspace/benchmark/darknetz/ta/math_TA.c:27
     4d0:	db0a      	blt.n	4e8 <ta_pow+0x28>
     4d2:	eeb0 0b48 	vmov.f64	d0, d8
/workspace/benchmark/darknetz/ta/math_TA.c:29
     4d6:	b160      	cbz	r0, 4f2 <ta_pow+0x32>
/workspace/benchmark/darknetz/ta/math_TA.c:31
     4d8:	07c3      	lsls	r3, r0, #31
     4da:	d501      	bpl.n	4e0 <ta_pow+0x20>
/workspace/benchmark/darknetz/ta/math_TA.c:31 (discriminator 1)
     4dc:	ee20 0b07 	vmul.f64	d0, d0, d7
/workspace/benchmark/darknetz/ta/math_TA.c:32
     4e0:	ee27 7b07 	vmul.f64	d7, d7, d7
/workspace/benchmark/darknetz/ta/math_TA.c:33
     4e4:	1040      	asrs	r0, r0, #1
     4e6:	e7f6      	b.n	4d6 <ta_pow+0x16>
/workspace/benchmark/darknetz/ta/math_TA.c:27
     4e8:	4240      	negs	r0, r0
     4ea:	f7ff ffe9 	bl	4c0 <ta_pow>
     4ee:	ee88 0b00 	vdiv.f64	d0, d8, d0
/workspace/benchmark/darknetz/ta/math_TA.c:36
     4f2:	ecbd 8b02 	vpop	{d8}
     4f6:	bd08      	pop	{r3, pc}

000004f8 <ta_eee>:
ta_eee():
/workspace/benchmark/darknetz/ta/math_TA.c:41
     4f8:	ed9f 7b1d 	vldr	d7, [pc, #116]	; 570 <ta_eee+0x78>
/workspace/benchmark/darknetz/ta/math_TA.c:40
     4fc:	eeb0 5b40 	vmov.f64	d5, d0
     500:	b508      	push	{r3, lr}
     502:	eeb6 4b00 	vmov.f64	d4, #96	; 0x3f000000  0.5
/workspace/benchmark/darknetz/ta/math_TA.c:41
     506:	eeb4 0bc7 	vcmpe.f64	d0, d7
     50a:	eef1 fa10 	vmrs	APSR_nzcv, fpscr
     50e:	dd06      	ble.n	51e <ta_eee+0x26>
/workspace/benchmark/darknetz/ta/math_TA.c:43
     510:	ee20 0b04 	vmul.f64	d0, d0, d4
     514:	f7ff fff0 	bl	4f8 <ta_eee>
/workspace/benchmark/darknetz/ta/math_TA.c:44
     518:	ee20 0b00 	vmul.f64	d0, d0, d0
     51c:	bd08      	pop	{r3, pc}
/workspace/benchmark/darknetz/ta/math_TA.c:47
     51e:	2003      	movs	r0, #3
     520:	f7ff ffce 	bl	4c0 <ta_pow>
     524:	eeb7 6b00 	vmov.f64	d6, #112	; 0x3f800000  1.0
     528:	ee25 7b05 	vmul.f64	d7, d5, d5
     52c:	eeb0 3b40 	vmov.f64	d3, d0
     530:	2004      	movs	r0, #4
     532:	eeb0 0b45 	vmov.f64	d0, d5
     536:	ee35 6b06 	vadd.f64	d6, d5, d6
     53a:	ee07 6b04 	vmla.f64	d6, d7, d4
     53e:	f7ff ffbf 	bl	4c0 <ta_pow>
     542:	ed9f 7b0d 	vldr	d7, [pc, #52]	; 578 <ta_eee+0x80>
     546:	eeb0 4b40 	vmov.f64	d4, d0
     54a:	2005      	movs	r0, #5
     54c:	eeb0 0b45 	vmov.f64	d0, d5
     550:	ee03 6b07 	vmla.f64	d6, d3, d7
     554:	f7ff ffb4 	bl	4c0 <ta_pow>
     558:	ed9f 7b09 	vldr	d7, [pc, #36]	; 580 <ta_eee+0x88>
     55c:	ee04 6b07 	vmla.f64	d6, d4, d7
     560:	ed9f 7b09 	vldr	d7, [pc, #36]	; 588 <ta_eee+0x90>
     564:	ee00 6b07 	vmla.f64	d6, d0, d7
     568:	eeb0 0b46 	vmov.f64	d0, d6
/workspace/benchmark/darknetz/ta/math_TA.c:48
     56c:	bd08      	pop	{r3, pc}
     56e:	bf00      	nop
     570:	d2f1a9fc 	.word	0xd2f1a9fc
     574:	3f50624d 	.word	0x3f50624d
     578:	55555555 	.word	0x55555555
     57c:	3fc55555 	.word	0x3fc55555
     580:	55555555 	.word	0x55555555
     584:	3fa55555 	.word	0x3fa55555
     588:	11111111 	.word	0x11111111
     58c:	3f811111 	.word	0x3f811111

00000590 <ta_exp>:
ta_exp():
/workspace/benchmark/darknetz/ta/math_TA.c:53
     590:	eeb5 0bc0 	vcmpe.f64	d0, #0.0
/workspace/benchmark/darknetz/ta/math_TA.c:52
     594:	b508      	push	{r3, lr}
/workspace/benchmark/darknetz/ta/math_TA.c:53
     596:	eef1 fa10 	vmrs	APSR_nzcv, fpscr
     59a:	d508      	bpl.n	5ae <ta_exp+0x1e>
/workspace/benchmark/darknetz/ta/math_TA.c:53 (discriminator 1)
     59c:	eeb1 0b40 	vneg.f64	d0, d0
     5a0:	f7ff fff6 	bl	590 <ta_exp>
     5a4:	eeb7 7b00 	vmov.f64	d7, #112	; 0x3f800000  1.0
     5a8:	ee87 0b00 	vdiv.f64	d0, d7, d0
     5ac:	bd08      	pop	{r3, pc}
/workspace/benchmark/darknetz/ta/math_TA.c:54
     5ae:	eefd 7bc0 	vcvt.s32.f64	s15, d0
/workspace/benchmark/darknetz/ta/math_TA.c:55
     5b2:	eeb8 6be7 	vcvt.f64.s32	d6, s15
/workspace/benchmark/darknetz/ta/math_TA.c:56
     5b6:	ee17 0a90 	vmov	r0, s15
/workspace/benchmark/darknetz/ta/math_TA.c:55
     5ba:	ee30 6b46 	vsub.f64	d6, d0, d6
/workspace/benchmark/darknetz/ta/math_TA.c:56
     5be:	ed9f 0b06 	vldr	d0, [pc, #24]	; 5d8 <ta_exp+0x48>
     5c2:	f7ff ff7d 	bl	4c0 <ta_pow>
     5c6:	eeb0 2b40 	vmov.f64	d2, d0
/workspace/benchmark/darknetz/ta/math_TA.c:57
     5ca:	eeb0 0b46 	vmov.f64	d0, d6
     5ce:	f7ff ff93 	bl	4f8 <ta_eee>
/workspace/benchmark/darknetz/ta/math_TA.c:58
     5d2:	ee22 0b00 	vmul.f64	d0, d2, d0
/workspace/benchmark/darknetz/ta/math_TA.c:59
     5d6:	bd08      	pop	{r3, pc}
     5d8:	8b145769 	.word	0x8b145769
     5dc:	4005bf0a 	.word	0x4005bf0a

000005e0 <ta_rand>:
ta_rand():
/workspace/benchmark/darknetz/ta/math_TA.c:63
     5e0:	b510      	push	{r4, lr}
/workspace/benchmark/darknetz/ta/math_TA.c:66
     5e2:	2128      	movs	r1, #40	; 0x28
/workspace/benchmark/darknetz/ta/math_TA.c:63
     5e4:	b08a      	sub	sp, #40	; 0x28
/workspace/benchmark/darknetz/ta/math_TA.c:66
     5e6:	4668      	mov	r0, sp
     5e8:	466c      	mov	r4, sp
     5ea:	f007 fb36 	bl	7c5a <TEE_GenerateRandom>
/workspace/benchmark/darknetz/ta/math_TA.c:68
     5ee:	2200      	movs	r2, #0
/workspace/benchmark/darknetz/ta/math_TA.c:65
     5f0:	4611      	mov	r1, r2
/workspace/benchmark/darknetz/ta/math_TA.c:69 (discriminator 3)
     5f2:	f834 3012 	ldrh.w	r3, [r4, r2, lsl #1]
/workspace/benchmark/darknetz/ta/math_TA.c:68 (discriminator 3)
     5f6:	3201      	adds	r2, #1
     5f8:	2a14      	cmp	r2, #20
/workspace/benchmark/darknetz/ta/math_TA.c:70 (discriminator 3)
     5fa:	4419      	add	r1, r3
/workspace/benchmark/darknetz/ta/math_TA.c:68 (discriminator 3)
     5fc:	d1f9      	bne.n	5f2 <ta_rand+0x12>
/workspace/benchmark/darknetz/ta/math_TA.c:72
     5fe:	f242 7210 	movw	r2, #10000	; 0x2710
/workspace/benchmark/darknetz/ta/math_TA.c:79
     602:	eddf 7a07 	vldr	s15, [pc, #28]	; 620 <ta_rand+0x40>
/workspace/benchmark/darknetz/ta/math_TA.c:72
     606:	fb91 f3f2 	sdiv	r3, r1, r2
     60a:	fb02 1313 	mls	r3, r2, r3, r1
     60e:	ee00 3a10 	vmov	s0, r3
     612:	eeb8 0ac0 	vcvt.f32.s32	s0, s0
/workspace/benchmark/darknetz/ta/math_TA.c:79
     616:	ee20 0a27 	vmul.f32	s0, s0, s15
     61a:	b00a      	add	sp, #40	; 0x28
     61c:	bd10      	pop	{r4, pc}
     61e:	bf00      	nop
     620:	38d1b717 	.word	0x38d1b717

00000624 <ta_floor>:
ta_floor():
/workspace/benchmark/darknetz/ta/math_TA.c:96
     624:	eeb5 0bc0 	vcmpe.f64	d0, #0.0
     628:	eefd 7bc0 	vcvt.s32.f64	s15, d0
     62c:	2301      	movs	r3, #1
     62e:	eef1 fa10 	vmrs	APSR_nzcv, fpscr
     632:	ee17 0a90 	vmov	r0, s15
     636:	bf58      	it	pl
     638:	2300      	movpl	r3, #0
/workspace/benchmark/darknetz/ta/math_TA.c:97
     63a:	1ac0      	subs	r0, r0, r3
     63c:	4770      	bx	lr

0000063e <ta_sqrt>:
ta_sqrt():
/workspace/benchmark/darknetz/ta/math_TA.c:101
     63e:	ed9f 4b18 	vldr	d4, [pc, #96]	; 6a0 <ta_sqrt+0x62>
/workspace/benchmark/darknetz/ta/math_TA.c:100
     642:	eeb7 5b00 	vmov.f64	d5, #112	; 0x3f800000  1.0
/workspace/benchmark/darknetz/ta/math_TA.c:101
     646:	ed9f 6b18 	vldr	d6, [pc, #96]	; 6a8 <ta_sqrt+0x6a>
     64a:	eeb2 7b04 	vmov.f64	d7, #36	; 0x41200000  10.0
     64e:	eeb4 0bc4 	vcmpe.f64	d0, d4
     652:	eef1 fa10 	vmrs	APSR_nzcv, fpscr
     656:	dd04      	ble.n	662 <ta_sqrt+0x24>
/workspace/benchmark/darknetz/ta/math_TA.c:101 (discriminator 1)
     658:	ee20 0b06 	vmul.f64	d0, d0, d6
     65c:	ee25 5b07 	vmul.f64	d5, d5, d7
     660:	e7f5      	b.n	64e <ta_sqrt+0x10>
/workspace/benchmark/darknetz/ta/math_TA.c:102
     662:	eeb1 6b00 	vmov.f64	d6, #16	; 0x40800000  4.0
     666:	ee30 4b00 	vadd.f64	d4, d0, d0
/workspace/benchmark/darknetz/ta/math_TA.c:104
     66a:	230b      	movs	r3, #11
/workspace/benchmark/darknetz/ta/math_TA.c:102
     66c:	ee30 6b06 	vadd.f64	d6, d0, d6
     670:	ee84 7b06 	vdiv.f64	d7, d4, d6
     674:	eeb6 6b00 	vmov.f64	d6, #96	; 0x3f000000  0.5
     678:	eeb4 4b00 	vmov.f64	d4, #64	; 0x3e000000  0.125
     67c:	eeb0 3b46 	vmov.f64	d3, d6
     680:	ee00 3b04 	vmla.f64	d3, d0, d4
     684:	ee37 7b03 	vadd.f64	d7, d7, d3
/workspace/benchmark/darknetz/ta/math_TA.c:104
     688:	3b01      	subs	r3, #1
     68a:	d102      	bne.n	692 <ta_sqrt+0x54>
/workspace/benchmark/darknetz/ta/math_TA.c:109
     68c:	ee27 0b05 	vmul.f64	d0, d7, d5
     690:	4770      	bx	lr
/workspace/benchmark/darknetz/ta/math_TA.c:106
     692:	ee80 4b07 	vdiv.f64	d4, d0, d7
     696:	ee34 7b07 	vadd.f64	d7, d4, d7
     69a:	ee27 7b06 	vmul.f64	d7, d7, d6
     69e:	e7f3      	b.n	688 <ta_sqrt+0x4a>
     6a0:	00000000 	.word	0x00000000
     6a4:	40590000 	.word	0x40590000
     6a8:	47ae147b 	.word	0x47ae147b
     6ac:	3f847ae1 	.word	0x3f847ae1

000006b0 <F1>:
F1():
/workspace/benchmark/darknetz/ta/math_TA.c:115
     6b0:	eeb7 7b00 	vmov.f64	d7, #112	; 0x3f800000  1.0
     6b4:	ee87 0b00 	vdiv.f64	d0, d7, d0
     6b8:	4770      	bx	lr

000006ba <F2>:
F2():
/workspace/benchmark/darknetz/ta/math_TA.c:119
     6ba:	eeb7 2b00 	vmov.f64	d2, #112	; 0x3f800000  1.0
/workspace/benchmark/darknetz/ta/math_TA.c:118
     6be:	b508      	push	{r3, lr}
/workspace/benchmark/darknetz/ta/math_TA.c:119
     6c0:	eeb0 7b42 	vmov.f64	d7, d2
     6c4:	ee00 7b40 	vmls.f64	d7, d0, d0
     6c8:	eeb0 0b47 	vmov.f64	d0, d7
     6cc:	f7ff ffb7 	bl	63e <ta_sqrt>
/workspace/benchmark/darknetz/ta/math_TA.c:120
     6d0:	ee82 0b00 	vdiv.f64	d0, d2, d0
     6d4:	bd08      	pop	{r3, pc}

000006d6 <simpson>:
simpson():
/workspace/benchmark/darknetz/ta/math_TA.c:123
     6d6:	b508      	push	{r3, lr}
/workspace/benchmark/darknetz/ta/math_TA.c:124
     6d8:	eeb6 6b00 	vmov.f64	d6, #96	; 0x3f000000  0.5
/workspace/benchmark/darknetz/ta/math_TA.c:123
     6dc:	eeb0 7b40 	vmov.f64	d7, d0
     6e0:	ed2d 8b06 	vpush	{d8-d10}
/workspace/benchmark/darknetz/ta/math_TA.c:124
     6e4:	ee31 9b40 	vsub.f64	d9, d1, d0
     6e8:	eeb0 ab40 	vmov.f64	d10, d0
/workspace/benchmark/darknetz/ta/math_TA.c:125
     6ec:	2801      	cmp	r0, #1
/workspace/benchmark/darknetz/ta/math_TA.c:124
     6ee:	ee09 ab06 	vmla.f64	d10, d9, d6
/workspace/benchmark/darknetz/ta/math_TA.c:125
     6f2:	d116      	bne.n	722 <simpson+0x4c>
F1():
/workspace/benchmark/darknetz/ta/math_TA.c:114
     6f4:	eeb7 6b00 	vmov.f64	d6, #112	; 0x3f800000  1.0
     6f8:	ee86 0b07 	vdiv.f64	d0, d6, d7
     6fc:	ee86 7b01 	vdiv.f64	d7, d6, d1
simpson():
/workspace/benchmark/darknetz/ta/math_TA.c:126
     700:	eeb1 6b00 	vmov.f64	d6, #16	; 0x40800000  4.0
     704:	ee30 0b07 	vadd.f64	d0, d0, d7
     708:	ee86 7b0a 	vdiv.f64	d7, d6, d10
     70c:	ee30 0b07 	vadd.f64	d0, d0, d7
/workspace/benchmark/darknetz/ta/math_TA.c:128
     710:	ed9f 7b0f 	vldr	d7, [pc, #60]	; 750 <simpson+0x7a>
     714:	ee29 9b07 	vmul.f64	d9, d9, d7
     718:	ee20 0b09 	vmul.f64	d0, d0, d9
/workspace/benchmark/darknetz/ta/math_TA.c:129
     71c:	ecbd 8b06 	vpop	{d8-d10}
     720:	bd08      	pop	{r3, pc}
/workspace/benchmark/darknetz/ta/math_TA.c:127
     722:	2802      	cmp	r0, #2
     724:	d1fa      	bne.n	71c <simpson+0x46>
/workspace/benchmark/darknetz/ta/math_TA.c:128
     726:	f7ff ffc8 	bl	6ba <F2>
     72a:	eeb0 8b40 	vmov.f64	d8, d0
     72e:	eeb0 0b4a 	vmov.f64	d0, d10
     732:	f7ff ffc2 	bl	6ba <F2>
     736:	eeb0 ab40 	vmov.f64	d10, d0
     73a:	eeb0 0b41 	vmov.f64	d0, d1
     73e:	f7ff ffbc 	bl	6ba <F2>
     742:	eeb1 7b00 	vmov.f64	d7, #16	; 0x40800000  4.0
     746:	ee38 0b00 	vadd.f64	d0, d8, d0
     74a:	ee0a 0b07 	vmla.f64	d0, d10, d7
     74e:	e7df      	b.n	710 <simpson+0x3a>
     750:	55555555 	.word	0x55555555
     754:	3fc55555 	.word	0x3fc55555

00000758 <asr>:
asr():
/workspace/benchmark/darknetz/ta/math_TA.c:132
     758:	b510      	push	{r4, lr}
     75a:	4604      	mov	r4, r0
     75c:	ed2d 8b10 	vpush	{d8-d15}
     760:	eeb0 8b40 	vmov.f64	d8, d0
     764:	eeb0 bb41 	vmov.f64	d11, d1
     768:	eeb0 ab42 	vmov.f64	d10, d2
     76c:	ed9f cb26 	vldr	d12, [pc, #152]	; 808 <asr+0xb0>
     770:	b082      	sub	sp, #8
/workspace/benchmark/darknetz/ta/math_TA.c:133
     772:	eeb6 fb00 	vmov.f64	d15, #96	; 0x3f000000  0.5
     776:	ee3b 7b48 	vsub.f64	d7, d11, d8
     77a:	eeb0 9b48 	vmov.f64	d9, d8
/workspace/benchmark/darknetz/ta/math_TA.c:134
     77e:	4620      	mov	r0, r4
     780:	eeb0 0b48 	vmov.f64	d0, d8
     784:	ed8d 3b00 	vstr	d3, [sp]
/workspace/benchmark/darknetz/ta/math_TA.c:133
     788:	ee07 9b0f 	vmla.f64	d9, d7, d15
/workspace/benchmark/darknetz/ta/math_TA.c:134
     78c:	eeb0 1b49 	vmov.f64	d1, d9
     790:	f7ff ffa1 	bl	6d6 <simpson>
     794:	eeb0 eb40 	vmov.f64	d14, d0
     798:	4620      	mov	r0, r4
     79a:	eeb0 1b4b 	vmov.f64	d1, d11
     79e:	eeb0 0b49 	vmov.f64	d0, d9
     7a2:	f7ff ff98 	bl	6d6 <simpson>
/workspace/benchmark/darknetz/ta/math_TA.c:135
     7a6:	ed9d 3b00 	vldr	d3, [sp]
/workspace/benchmark/darknetz/ta/math_TA.c:134
     7aa:	eeb0 db40 	vmov.f64	d13, d0
/workspace/benchmark/darknetz/ta/math_TA.c:135
     7ae:	ee3e 0b00 	vadd.f64	d0, d14, d0
     7b2:	eeb2 7b0e 	vmov.f64	d7, #46	; 0x41700000  15.0
     7b6:	ee30 3b43 	vsub.f64	d3, d0, d3
     7ba:	ee2a 7b07 	vmul.f64	d7, d10, d7
     7be:	eeb0 6bc3 	vabs.f64	d6, d3
     7c2:	eeb4 6bc7 	vcmpe.f64	d6, d7
     7c6:	eef1 fa10 	vmrs	APSR_nzcv, fpscr
     7ca:	d913      	bls.n	7f4 <asr+0x9c>
/workspace/benchmark/darknetz/ta/math_TA.c:136
     7cc:	ee2a ab0f 	vmul.f64	d10, d10, d15
     7d0:	eeb0 3b4e 	vmov.f64	d3, d14
     7d4:	eeb0 0b48 	vmov.f64	d0, d8
     7d8:	4620      	mov	r0, r4
     7da:	eeb0 1b49 	vmov.f64	d1, d9
     7de:	eeb0 8b49 	vmov.f64	d8, d9
     7e2:	eeb0 2b4a 	vmov.f64	d2, d10
     7e6:	f7ff ffb7 	bl	758 <asr>
     7ea:	eeb0 3b4d 	vmov.f64	d3, d13
     7ee:	ee3c cb00 	vadd.f64	d12, d12, d0
     7f2:	e7c0      	b.n	776 <asr+0x1e>
     7f4:	ed9f 7b06 	vldr	d7, [pc, #24]	; 810 <asr+0xb8>
     7f8:	ee30 0b0c 	vadd.f64	d0, d0, d12
     7fc:	ee03 0b07 	vmla.f64	d0, d3, d7
/workspace/benchmark/darknetz/ta/math_TA.c:137 (discriminator 1)
     800:	b002      	add	sp, #8
     802:	ecbd 8b10 	vpop	{d8-d15}
     806:	bd10      	pop	{r4, pc}
	...
     810:	11111111 	.word	0x11111111
     814:	3fb11111 	.word	0x3fb11111

00000818 <asr0>:
asr0():
/workspace/benchmark/darknetz/ta/math_TA.c:140
     818:	b508      	push	{r3, lr}
     81a:	ed2d 8b06 	vpush	{d8-d10}
     81e:	eeb0 8b40 	vmov.f64	d8, d0
     822:	eeb0 ab42 	vmov.f64	d10, d2
/workspace/benchmark/darknetz/ta/math_TA.c:141
     826:	f7ff ff56 	bl	6d6 <simpson>
     82a:	eeb0 3b40 	vmov.f64	d3, d0
     82e:	eeb0 0b48 	vmov.f64	d0, d8
     832:	eeb0 2b4a 	vmov.f64	d2, d10
/workspace/benchmark/darknetz/ta/math_TA.c:142
     836:	ecbd 8b06 	vpop	{d8-d10}
     83a:	e8bd 4008 	ldmia.w	sp!, {r3, lr}
/workspace/benchmark/darknetz/ta/math_TA.c:141
     83e:	f7ff bf8b 	b.w	758 <asr>

00000842 <ta_ln>:
ta_ln():
/workspace/benchmark/darknetz/ta/math_TA.c:146
     842:	eeb0 1b40 	vmov.f64	d1, d0
     846:	2001      	movs	r0, #1
     848:	ed9f 2b03 	vldr	d2, [pc, #12]	; 858 <ta_ln+0x16>
     84c:	eeb7 0b00 	vmov.f64	d0, #112	; 0x3f800000  1.0
     850:	f7ff bfe2 	b.w	818 <asr0>
     854:	f3af 8000 	nop.w
     858:	e2308c3a 	.word	0xe2308c3a
     85c:	3e45798e 	.word	0x3e45798e

00000860 <ta_log>:
ta_log():
/workspace/benchmark/darknetz/ta/math_TA.c:150
     860:	b508      	push	{r3, lr}
     862:	ed2d 8b04 	vpush	{d8-d9}
     866:	eeb0 9b40 	vmov.f64	d9, d0
/workspace/benchmark/darknetz/ta/math_TA.c:151
     86a:	eeb0 0b41 	vmov.f64	d0, d1
     86e:	f7ff ffe8 	bl	842 <ta_ln>
     872:	eeb0 8b40 	vmov.f64	d8, d0
     876:	eeb0 0b49 	vmov.f64	d0, d9
     87a:	f7ff ffe2 	bl	842 <ta_ln>
/workspace/benchmark/darknetz/ta/math_TA.c:152
     87e:	ee88 0b00 	vdiv.f64	d0, d8, d0
     882:	ecbd 8b04 	vpop	{d8-d9}
     886:	bd08      	pop	{r3, pc}

00000888 <ta_cos>:
ta_cos():
/workspace/benchmark/darknetz/ta/math_TA.c:177
     888:	ed9f 5b45 	vldr	d5, [pc, #276]	; 9a0 <ta_cos+0x118>
/workspace/benchmark/darknetz/ta/math_TA.c:175
     88c:	eeb0 6b40 	vmov.f64	d6, d0
     890:	b508      	push	{r3, lr}
     892:	ed9f 4b45 	vldr	d4, [pc, #276]	; 9a8 <ta_cos+0x120>
/workspace/benchmark/darknetz/ta/math_TA.c:177
     896:	eeb4 0bc5 	vcmpe.f64	d0, d5
     89a:	eef1 fa10 	vmrs	APSR_nzcv, fpscr
     89e:	dc06      	bgt.n	8ae <ta_cos+0x26>
/workspace/benchmark/darknetz/ta/math_TA.c:177 (discriminator 2)
     8a0:	ed9f 7b43 	vldr	d7, [pc, #268]	; 9b0 <ta_cos+0x128>
     8a4:	eeb4 0bc7 	vcmpe.f64	d0, d7
     8a8:	eef1 fa10 	vmrs	APSR_nzcv, fpscr
     8ac:	d50e      	bpl.n	8cc <ta_cos+0x44>
/workspace/benchmark/darknetz/ta/math_TA.c:177 (discriminator 3)
     8ae:	ed9f 7b42 	vldr	d7, [pc, #264]	; 9b8 <ta_cos+0x130>
     8b2:	ee26 7b07 	vmul.f64	d7, d6, d7
     8b6:	eebd 7bc7 	vcvt.s32.f64	s14, d7
     8ba:	ee17 3a10 	vmov	r3, s14
     8be:	005b      	lsls	r3, r3, #1
     8c0:	ee07 3a10 	vmov	s14, r3
     8c4:	eeb8 7bc7 	vcvt.f64.s32	d7, s14
     8c8:	ee07 6b44 	vmls.f64	d6, d7, d4
/workspace/benchmark/darknetz/ta/math_TA.c:178
     8cc:	eeb4 6bc4 	vcmpe.f64	d6, d4
     8d0:	eef1 fa10 	vmrs	APSR_nzcv, fpscr
     8d4:	dd01      	ble.n	8da <ta_cos+0x52>
/workspace/benchmark/darknetz/ta/math_TA.c:178 (discriminator 1)
     8d6:	ee36 6b45 	vsub.f64	d6, d6, d5
/workspace/benchmark/darknetz/ta/math_TA.c:179
     8da:	ed9f 7b39 	vldr	d7, [pc, #228]	; 9c0 <ta_cos+0x138>
     8de:	eeb4 6bc7 	vcmpe.f64	d6, d7
     8e2:	eef1 fa10 	vmrs	APSR_nzcv, fpscr
     8e6:	d501      	bpl.n	8ec <ta_cos+0x64>
/workspace/benchmark/darknetz/ta/math_TA.c:179 (discriminator 1)
     8e8:	ee36 6b05 	vadd.f64	d6, d6, d5
/workspace/benchmark/darknetz/ta/math_TA.c:180
     8ec:	ed9f 0b36 	vldr	d0, [pc, #216]	; 9c8 <ta_cos+0x140>
     8f0:	eeb4 6bc0 	vcmpe.f64	d6, d0
     8f4:	eef1 fa10 	vmrs	APSR_nzcv, fpscr
     8f8:	dd1b      	ble.n	932 <ta_cos+0xaa>
/workspace/benchmark/darknetz/ta/math_TA.c:182
     8fa:	ee36 6b44 	vsub.f64	d6, d6, d4
/workspace/benchmark/darknetz/ta/math_TA.c:183
     8fe:	eebf 5b00 	vmov.f64	d5, #240	; 0xbf800000 -1.0
/workspace/benchmark/darknetz/ta/math_TA.c:185
     902:	ed9f 7b33 	vldr	d7, [pc, #204]	; 9d0 <ta_cos+0x148>
     906:	eeb4 6bc7 	vcmpe.f64	d6, d7
     90a:	eef1 fa10 	vmrs	APSR_nzcv, fpscr
     90e:	d503      	bpl.n	918 <ta_cos+0x90>
/workspace/benchmark/darknetz/ta/math_TA.c:187
     910:	ee36 6b04 	vadd.f64	d6, d6, d4
/workspace/benchmark/darknetz/ta/math_TA.c:188
     914:	eeb1 5b45 	vneg.f64	d5, d5
/workspace/benchmark/darknetz/ta/math_TA.c:190
     918:	ed9f 7b2f 	vldr	d7, [pc, #188]	; 9d8 <ta_cos+0x150>
     91c:	eeb4 6bc7 	vcmpe.f64	d6, d7
     920:	eef1 fa10 	vmrs	APSR_nzcv, fpscr
     924:	dd08      	ble.n	938 <ta_cos+0xb0>
/workspace/benchmark/darknetz/ta/math_TA.c:190 (discriminator 1)
     926:	ee30 0b46 	vsub.f64	d0, d0, d6
/workspace/benchmark/darknetz/ta/math_TA.c:192 (discriminator 1)
     92a:	e8bd 4008 	ldmia.w	sp!, {r3, lr}
/workspace/benchmark/darknetz/ta/math_TA.c:190 (discriminator 1)
     92e:	f000 b863 	b.w	9f8 <ta_sin>
/workspace/benchmark/darknetz/ta/math_TA.c:176
     932:	eeb7 5b00 	vmov.f64	d5, #112	; 0x3f800000  1.0
     936:	e7e4      	b.n	902 <ta_cos+0x7a>
/workspace/benchmark/darknetz/ta/math_TA.c:191
     938:	eeb0 0b46 	vmov.f64	d0, d6
     93c:	2004      	movs	r0, #4
     93e:	f7ff fdbf 	bl	4c0 <ta_pow>
     942:	2002      	movs	r0, #2
     944:	eeb0 2b40 	vmov.f64	d2, d0
     948:	eeb0 0b46 	vmov.f64	d0, d6
     94c:	f7ff fdb8 	bl	4c0 <ta_pow>
     950:	2006      	movs	r0, #6
     952:	eeb0 3b40 	vmov.f64	d3, d0
     956:	eeb0 0b46 	vmov.f64	d0, d6
     95a:	f7ff fdb1 	bl	4c0 <ta_pow>
     95e:	2008      	movs	r0, #8
     960:	eeb0 4b40 	vmov.f64	d4, d0
     964:	eeb0 0b46 	vmov.f64	d0, d6
     968:	f7ff fdaa 	bl	4c0 <ta_pow>
     96c:	ed9f 7b1c 	vldr	d7, [pc, #112]	; 9e0 <ta_cos+0x158>
     970:	ee20 0b07 	vmul.f64	d0, d0, d7
     974:	ed9f 7b1c 	vldr	d7, [pc, #112]	; 9e8 <ta_cos+0x160>
     978:	ee02 0b07 	vmla.f64	d0, d2, d7
     97c:	eeb7 7b00 	vmov.f64	d7, #112	; 0x3f800000  1.0
     980:	ee30 0b07 	vadd.f64	d0, d0, d7
     984:	eeb6 7b00 	vmov.f64	d7, #96	; 0x3f000000  0.5
     988:	ee03 0b47 	vmls.f64	d0, d3, d7
     98c:	ed9f 7b18 	vldr	d7, [pc, #96]	; 9f0 <ta_cos+0x168>
     990:	ee04 0b47 	vmls.f64	d0, d4, d7
/workspace/benchmark/darknetz/ta/math_TA.c:192
     994:	ee20 0b05 	vmul.f64	d0, d0, d5
     998:	bd08      	pop	{r3, pc}
     99a:	bf00      	nop
     99c:	f3af 8000 	nop.w
     9a0:	54442d18 	.word	0x54442d18
     9a4:	401921fb 	.word	0x401921fb
     9a8:	54442d18 	.word	0x54442d18
     9ac:	400921fb 	.word	0x400921fb
     9b0:	54442d18 	.word	0x54442d18
     9b4:	c01921fb 	.word	0xc01921fb
     9b8:	6dc9c883 	.word	0x6dc9c883
     9bc:	3fc45f30 	.word	0x3fc45f30
     9c0:	54442d18 	.word	0x54442d18
     9c4:	c00921fb 	.word	0xc00921fb
     9c8:	54442d18 	.word	0x54442d18
     9cc:	3ff921fb 	.word	0x3ff921fb
     9d0:	54442d18 	.word	0x54442d18
     9d4:	bff921fb 	.word	0xbff921fb
     9d8:	54442d18 	.word	0x54442d18
     9dc:	3fe921fb 	.word	0x3fe921fb
     9e0:	1a01a01a 	.word	0x1a01a01a
     9e4:	3efa01a0 	.word	0x3efa01a0
     9e8:	55555555 	.word	0x55555555
     9ec:	3fa55555 	.word	0x3fa55555
     9f0:	16c16c17 	.word	0x16c16c17
     9f4:	3f56c16c 	.word	0x3f56c16c

000009f8 <ta_sin>:
ta_sin():
/workspace/benchmark/darknetz/ta/math_TA.c:157
     9f8:	ed9f 5b43 	vldr	d5, [pc, #268]	; b08 <ta_sin+0x110>
/workspace/benchmark/darknetz/ta/math_TA.c:155
     9fc:	eeb0 6b40 	vmov.f64	d6, d0
     a00:	b508      	push	{r3, lr}
     a02:	ed9f 4b43 	vldr	d4, [pc, #268]	; b10 <ta_sin+0x118>
/workspace/benchmark/darknetz/ta/math_TA.c:157
     a06:	eeb4 0bc5 	vcmpe.f64	d0, d5
     a0a:	eef1 fa10 	vmrs	APSR_nzcv, fpscr
     a0e:	dc06      	bgt.n	a1e <ta_sin+0x26>
/workspace/benchmark/darknetz/ta/math_TA.c:157 (discriminator 2)
     a10:	ed9f 7b41 	vldr	d7, [pc, #260]	; b18 <ta_sin+0x120>
     a14:	eeb4 0bc7 	vcmpe.f64	d0, d7
     a18:	eef1 fa10 	vmrs	APSR_nzcv, fpscr
     a1c:	d50e      	bpl.n	a3c <ta_sin+0x44>
/workspace/benchmark/darknetz/ta/math_TA.c:157 (discriminator 3)
     a1e:	ed9f 7b40 	vldr	d7, [pc, #256]	; b20 <ta_sin+0x128>
     a22:	ee26 7b07 	vmul.f64	d7, d6, d7
     a26:	eebd 7bc7 	vcvt.s32.f64	s14, d7
     a2a:	ee17 3a10 	vmov	r3, s14
     a2e:	005b      	lsls	r3, r3, #1
     a30:	ee07 3a10 	vmov	s14, r3
     a34:	eeb8 7bc7 	vcvt.f64.s32	d7, s14
     a38:	ee07 6b44 	vmls.f64	d6, d7, d4
/workspace/benchmark/darknetz/ta/math_TA.c:158
     a3c:	eeb4 6bc4 	vcmpe.f64	d6, d4
     a40:	eef1 fa10 	vmrs	APSR_nzcv, fpscr
     a44:	dd01      	ble.n	a4a <ta_sin+0x52>
/workspace/benchmark/darknetz/ta/math_TA.c:158 (discriminator 1)
     a46:	ee36 6b45 	vsub.f64	d6, d6, d5
/workspace/benchmark/darknetz/ta/math_TA.c:159
     a4a:	ed9f 7b37 	vldr	d7, [pc, #220]	; b28 <ta_sin+0x130>
     a4e:	eeb4 6bc7 	vcmpe.f64	d6, d7
     a52:	eef1 fa10 	vmrs	APSR_nzcv, fpscr
     a56:	d501      	bpl.n	a5c <ta_sin+0x64>
/workspace/benchmark/darknetz/ta/math_TA.c:159 (discriminator 1)
     a58:	ee36 6b05 	vadd.f64	d6, d6, d5
/workspace/benchmark/darknetz/ta/math_TA.c:160
     a5c:	ed9f 0b34 	vldr	d0, [pc, #208]	; b30 <ta_sin+0x138>
     a60:	eeb4 6bc0 	vcmpe.f64	d6, d0
     a64:	eef1 fa10 	vmrs	APSR_nzcv, fpscr
     a68:	dd1b      	ble.n	aa2 <ta_sin+0xaa>
/workspace/benchmark/darknetz/ta/math_TA.c:162
     a6a:	ee36 6b44 	vsub.f64	d6, d6, d4
/workspace/benchmark/darknetz/ta/math_TA.c:163
     a6e:	eebf 5b00 	vmov.f64	d5, #240	; 0xbf800000 -1.0
/workspace/benchmark/darknetz/ta/math_TA.c:165
     a72:	ed9f 7b31 	vldr	d7, [pc, #196]	; b38 <ta_sin+0x140>
     a76:	eeb4 6bc7 	vcmpe.f64	d6, d7
     a7a:	eef1 fa10 	vmrs	APSR_nzcv, fpscr
     a7e:	d503      	bpl.n	a88 <ta_sin+0x90>
/workspace/benchmark/darknetz/ta/math_TA.c:167
     a80:	ee36 6b04 	vadd.f64	d6, d6, d4
/workspace/benchmark/darknetz/ta/math_TA.c:168
     a84:	eeb1 5b45 	vneg.f64	d5, d5
/workspace/benchmark/darknetz/ta/math_TA.c:170
     a88:	ed9f 7b2d 	vldr	d7, [pc, #180]	; b40 <ta_sin+0x148>
     a8c:	eeb4 6bc7 	vcmpe.f64	d6, d7
     a90:	eef1 fa10 	vmrs	APSR_nzcv, fpscr
     a94:	dd08      	ble.n	aa8 <ta_sin+0xb0>
/workspace/benchmark/darknetz/ta/math_TA.c:170 (discriminator 1)
     a96:	ee30 0b46 	vsub.f64	d0, d0, d6
/workspace/benchmark/darknetz/ta/math_TA.c:172 (discriminator 1)
     a9a:	e8bd 4008 	ldmia.w	sp!, {r3, lr}
/workspace/benchmark/darknetz/ta/math_TA.c:170 (discriminator 1)
     a9e:	f7ff bef3 	b.w	888 <ta_cos>
/workspace/benchmark/darknetz/ta/math_TA.c:156
     aa2:	eeb7 5b00 	vmov.f64	d5, #112	; 0x3f800000  1.0
     aa6:	e7e4      	b.n	a72 <ta_sin+0x7a>
/workspace/benchmark/darknetz/ta/math_TA.c:171
     aa8:	eeb0 0b46 	vmov.f64	d0, d6
     aac:	2003      	movs	r0, #3
     aae:	f7ff fd07 	bl	4c0 <ta_pow>
     ab2:	2005      	movs	r0, #5
     ab4:	eeb0 3b40 	vmov.f64	d3, d0
     ab8:	eeb0 0b46 	vmov.f64	d0, d6
     abc:	f7ff fd00 	bl	4c0 <ta_pow>
     ac0:	2007      	movs	r0, #7
     ac2:	eeb0 2b40 	vmov.f64	d2, d0
     ac6:	eeb0 0b46 	vmov.f64	d0, d6
     aca:	f7ff fcf9 	bl	4c0 <ta_pow>
     ace:	2009      	movs	r0, #9
     ad0:	eeb0 4b40 	vmov.f64	d4, d0
     ad4:	eeb0 0b46 	vmov.f64	d0, d6
     ad8:	f7ff fcf2 	bl	4c0 <ta_pow>
     adc:	ed9f 7b1a 	vldr	d7, [pc, #104]	; b48 <ta_sin+0x150>
     ae0:	ee20 0b07 	vmul.f64	d0, d0, d7
     ae4:	ed9f 7b1a 	vldr	d7, [pc, #104]	; b50 <ta_sin+0x158>
     ae8:	ee02 0b07 	vmla.f64	d0, d2, d7
     aec:	ed9f 7b1a 	vldr	d7, [pc, #104]	; b58 <ta_sin+0x160>
     af0:	ee30 0b06 	vadd.f64	d0, d0, d6
     af4:	ee03 0b47 	vmls.f64	d0, d3, d7
     af8:	ed9f 7b19 	vldr	d7, [pc, #100]	; b60 <ta_sin+0x168>
     afc:	ee04 0b47 	vmls.f64	d0, d4, d7
/workspace/benchmark/darknetz/ta/math_TA.c:172
     b00:	ee20 0b05 	vmul.f64	d0, d0, d5
     b04:	bd08      	pop	{r3, pc}
     b06:	bf00      	nop
     b08:	54442d18 	.word	0x54442d18
     b0c:	401921fb 	.word	0x401921fb
     b10:	54442d18 	.word	0x54442d18
     b14:	400921fb 	.word	0x400921fb
     b18:	54442d18 	.word	0x54442d18
     b1c:	c01921fb 	.word	0xc01921fb
     b20:	6dc9c883 	.word	0x6dc9c883
     b24:	3fc45f30 	.word	0x3fc45f30
     b28:	54442d18 	.word	0x54442d18
     b2c:	c00921fb 	.word	0xc00921fb
     b30:	54442d18 	.word	0x54442d18
     b34:	3ff921fb 	.word	0x3ff921fb
     b38:	54442d18 	.word	0x54442d18
     b3c:	bff921fb 	.word	0xbff921fb
     b40:	54442d18 	.word	0x54442d18
     b44:	3fe921fb 	.word	0x3fe921fb
     b48:	a556c734 	.word	0xa556c734
     b4c:	3ec71de3 	.word	0x3ec71de3
     b50:	11111111 	.word	0x11111111
     b54:	3f811111 	.word	0x3f811111
     b58:	55555555 	.word	0x55555555
     b5c:	3fc55555 	.word	0x3fc55555
     b60:	1a01a01a 	.word	0x1a01a01a
     b64:	3f2a01a0 	.word	0x3f2a01a0

00000b68 <ta_tan>:
ta_tan():
/workspace/benchmark/darknetz/ta/math_TA.c:195
     b68:	b508      	push	{r3, lr}
     b6a:	ed2d 8b04 	vpush	{d8-d9}
     b6e:	eeb0 9b40 	vmov.f64	d9, d0
/workspace/benchmark/darknetz/ta/math_TA.c:196
     b72:	f7ff ff41 	bl	9f8 <ta_sin>
     b76:	eeb0 8b40 	vmov.f64	d8, d0
     b7a:	eeb0 0b49 	vmov.f64	d0, d9
     b7e:	f7ff fe83 	bl	888 <ta_cos>
/workspace/benchmark/darknetz/ta/math_TA.c:197
     b82:	ee88 0b00 	vdiv.f64	d0, d8, d0
     b86:	ecbd 8b04 	vpop	{d8-d9}
     b8a:	bd08      	pop	{r3, pc}

00000b8c <reverse>:
reverse():
/workspace/benchmark/darknetz/ta/math_TA.c:202
     b8c:	3901      	subs	r1, #1
/workspace/benchmark/darknetz/ta/math_TA.c:203
     b8e:	4603      	mov	r3, r0
     b90:	4401      	add	r1, r0
/workspace/benchmark/darknetz/ta/math_TA.c:201
     b92:	b510      	push	{r4, lr}
/workspace/benchmark/darknetz/ta/math_TA.c:203
     b94:	1a1a      	subs	r2, r3, r0
     b96:	1a0c      	subs	r4, r1, r0
     b98:	42a2      	cmp	r2, r4
     b9a:	db00      	blt.n	b9e <reverse+0x12>
/workspace/benchmark/darknetz/ta/math_TA.c:210
     b9c:	bd10      	pop	{r4, pc}
/workspace/benchmark/darknetz/ta/math_TA.c:205
     b9e:	781a      	ldrb	r2, [r3, #0]
/workspace/benchmark/darknetz/ta/math_TA.c:206
     ba0:	780c      	ldrb	r4, [r1, #0]
     ba2:	f803 4b01 	strb.w	r4, [r3], #1
/workspace/benchmark/darknetz/ta/math_TA.c:207
     ba6:	f801 2901 	strb.w	r2, [r1], #-1
     baa:	e7f3      	b.n	b94 <reverse+0x8>

00000bac <intToStr>:
intToStr():
/workspace/benchmark/darknetz/ta/math_TA.c:216
     bac:	b538      	push	{r3, r4, r5, lr}
     bae:	460d      	mov	r5, r1
/workspace/benchmark/darknetz/ta/math_TA.c:218
     bb0:	460b      	mov	r3, r1
/workspace/benchmark/darknetz/ta/math_TA.c:220
     bb2:	210a      	movs	r1, #10
     bb4:	1b5c      	subs	r4, r3, r5
/workspace/benchmark/darknetz/ta/math_TA.c:218
     bb6:	b958      	cbnz	r0, bd0 <intToStr+0x24>
     bb8:	192b      	adds	r3, r5, r4
/workspace/benchmark/darknetz/ta/math_TA.c:227
     bba:	2130      	movs	r1, #48	; 0x30
/workspace/benchmark/darknetz/ta/math_TA.c:226
     bbc:	4294      	cmp	r4, r2
     bbe:	db10      	blt.n	be2 <intToStr+0x36>
/workspace/benchmark/darknetz/ta/math_TA.c:229
     bc0:	4628      	mov	r0, r5
     bc2:	4621      	mov	r1, r4
     bc4:	f7ff ffe2 	bl	b8c <reverse>
/workspace/benchmark/darknetz/ta/math_TA.c:230
     bc8:	2300      	movs	r3, #0
     bca:	552b      	strb	r3, [r5, r4]
/workspace/benchmark/darknetz/ta/math_TA.c:232
     bcc:	4620      	mov	r0, r4
     bce:	bd38      	pop	{r3, r4, r5, pc}
/workspace/benchmark/darknetz/ta/math_TA.c:220
     bd0:	fb90 f4f1 	sdiv	r4, r0, r1
     bd4:	fb01 0014 	mls	r0, r1, r4, r0
     bd8:	3030      	adds	r0, #48	; 0x30
     bda:	f803 0b01 	strb.w	r0, [r3], #1
/workspace/benchmark/darknetz/ta/math_TA.c:221
     bde:	4620      	mov	r0, r4
     be0:	e7e8      	b.n	bb4 <intToStr+0x8>
/workspace/benchmark/darknetz/ta/math_TA.c:227
     be2:	3401      	adds	r4, #1
     be4:	f803 1b01 	strb.w	r1, [r3], #1
     be8:	e7e8      	b.n	bbc <intToStr+0x10>

00000bea <ftoa>:
ftoa():
/workspace/benchmark/darknetz/ta/math_TA.c:236
     bea:	eef0 6ac0 	vabs.f32	s13, s0
     bee:	b538      	push	{r3, r4, r5, lr}
/workspace/benchmark/darknetz/ta/math_TA.c:252
     bf0:	2200      	movs	r2, #0
/workspace/benchmark/darknetz/ta/math_TA.c:236
     bf2:	4604      	mov	r4, r0
     bf4:	460d      	mov	r5, r1
/workspace/benchmark/darknetz/ta/math_TA.c:252
     bf6:	4601      	mov	r1, r0
/workspace/benchmark/darknetz/ta/math_TA.c:246
     bf8:	eebd 6ae6 	vcvt.s32.f32	s12, s13
/workspace/benchmark/darknetz/ta/math_TA.c:252
     bfc:	ee16 0a10 	vmov	r0, s12
     c00:	f7ff ffd4 	bl	bac <intToStr>
     c04:	4601      	mov	r1, r0
/workspace/benchmark/darknetz/ta/math_TA.c:255
     c06:	b1dd      	cbz	r5, c40 <ftoa+0x56>
/workspace/benchmark/darknetz/ta/math_TA.c:257
     c08:	232e      	movs	r3, #46	; 0x2e
/workspace/benchmark/darknetz/ta/math_TA.c:262
     c0a:	eeb2 0b04 	vmov.f64	d0, #36	; 0x41200000  10.0
/workspace/benchmark/darknetz/ta/math_TA.c:257
     c0e:	5423      	strb	r3, [r4, r0]
/workspace/benchmark/darknetz/ta/math_TA.c:262
     c10:	4628      	mov	r0, r5
     c12:	f7ff fc55 	bl	4c0 <ta_pow>
/workspace/benchmark/darknetz/ta/math_TA.c:249
     c16:	eeb8 7ac6 	vcvt.f32.s32	s14, s12
/workspace/benchmark/darknetz/ta/math_TA.c:264
     c1a:	3101      	adds	r1, #1
     c1c:	462a      	mov	r2, r5
     c1e:	4421      	add	r1, r4
/workspace/benchmark/darknetz/ta/math_TA.c:266
     c20:	e8bd 4038 	ldmia.w	sp!, {r3, r4, r5, lr}
/workspace/benchmark/darknetz/ta/math_TA.c:249
     c24:	ee36 7ac7 	vsub.f32	s14, s13, s14
/workspace/benchmark/darknetz/ta/math_TA.c:262
     c28:	eeb7 7ac7 	vcvt.f64.f32	d7, s14
     c2c:	ee27 0b00 	vmul.f64	d0, d7, d0
     c30:	eeb7 0bc0 	vcvt.f32.f64	s0, d0
/workspace/benchmark/darknetz/ta/math_TA.c:264
     c34:	eefd 7ac0 	vcvt.s32.f32	s15, s0
     c38:	ee17 0a90 	vmov	r0, s15
     c3c:	f7ff bfb6 	b.w	bac <intToStr>
     c40:	bd38      	pop	{r3, r4, r5, pc}

00000c42 <bubble_sort_top>:
bubble_sort_top():
/workspace/benchmark/darknetz/ta/math_TA.c:274
     c42:	2200      	movs	r2, #0
     c44:	3901      	subs	r1, #1
/workspace/benchmark/darknetz/ta/math_TA.c:269
     c46:	b530      	push	{r4, r5, lr}
/workspace/benchmark/darknetz/ta/math_TA.c:274 (discriminator 1)
     c48:	428a      	cmp	r2, r1
     c4a:	da16      	bge.n	c7a <bubble_sort_top+0x38>
     c4c:	4603      	mov	r3, r0
/workspace/benchmark/darknetz/ta/math_TA.c:274
     c4e:	2400      	movs	r4, #0
/workspace/benchmark/darknetz/ta/math_TA.c:275
     c50:	1a8d      	subs	r5, r1, r2
     c52:	e00e      	b.n	c72 <bubble_sort_top+0x30>
/workspace/benchmark/darknetz/ta/math_TA.c:276
     c54:	edd3 7a00 	vldr	s15, [r3]
     c58:	ed93 7a01 	vldr	s14, [r3, #4]
     c5c:	eef4 7ac7 	vcmpe.f32	s15, s14
     c60:	eef1 fa10 	vmrs	APSR_nzcv, fpscr
     c64:	d503      	bpl.n	c6e <bubble_sort_top+0x2c>
/workspace/benchmark/darknetz/ta/math_TA.c:278
     c66:	ed83 7a00 	vstr	s14, [r3]
/workspace/benchmark/darknetz/ta/math_TA.c:279
     c6a:	edc3 7a01 	vstr	s15, [r3, #4]
/workspace/benchmark/darknetz/ta/math_TA.c:275 (discriminator 2)
     c6e:	3401      	adds	r4, #1
     c70:	3304      	adds	r3, #4
/workspace/benchmark/darknetz/ta/math_TA.c:275 (discriminator 1)
     c72:	42ac      	cmp	r4, r5
     c74:	dbee      	blt.n	c54 <bubble_sort_top+0x12>
/workspace/benchmark/darknetz/ta/math_TA.c:274 (discriminator 2)
     c76:	3201      	adds	r2, #1
     c78:	e7e6      	b.n	c48 <bubble_sort_top+0x6>
     c7a:	bd30      	pop	{r4, r5, pc}
     c7c:	0000      	movs	r0, r0
	...

00000c80 <get_activation_string_TA>:
get_activation_string_TA():
/workspace/benchmark/darknetz/ta/activations_TA.c:9
     c80:	280d      	cmp	r0, #13
     c82:	d82f      	bhi.n	ce4 <get_activation_string_TA+0x64>
     c84:	e8df f000 	tbb	[pc, r0]
     c88:	19130a31 	.word	0x19130a31
     c8c:	221f1c16 	.word	0x221f1c16
     c90:	2825070d 	.word	0x2825070d
     c94:	102b      	.short	0x102b
/workspace/benchmark/darknetz/ta/activations_TA.c:13
     c96:	4816      	ldr	r0, [pc, #88]	; (cf0 <get_activation_string_TA+0x70>)
     c98:	4478      	add	r0, pc
     c9a:	4770      	bx	lr
/workspace/benchmark/darknetz/ta/activations_TA.c:15
     c9c:	4815      	ldr	r0, [pc, #84]	; (cf4 <get_activation_string_TA+0x74>)
     c9e:	4478      	add	r0, pc
     ca0:	4770      	bx	lr
/workspace/benchmark/darknetz/ta/activations_TA.c:17
     ca2:	4815      	ldr	r0, [pc, #84]	; (cf8 <get_activation_string_TA+0x78>)
     ca4:	4478      	add	r0, pc
     ca6:	4770      	bx	lr
/workspace/benchmark/darknetz/ta/activations_TA.c:19
     ca8:	4814      	ldr	r0, [pc, #80]	; (cfc <get_activation_string_TA+0x7c>)
     caa:	4478      	add	r0, pc
     cac:	4770      	bx	lr
/workspace/benchmark/darknetz/ta/activations_TA.c:21
     cae:	4814      	ldr	r0, [pc, #80]	; (d00 <get_activation_string_TA+0x80>)
     cb0:	4478      	add	r0, pc
     cb2:	4770      	bx	lr
/workspace/benchmark/darknetz/ta/activations_TA.c:23
     cb4:	4813      	ldr	r0, [pc, #76]	; (d04 <get_activation_string_TA+0x84>)
     cb6:	4478      	add	r0, pc
     cb8:	4770      	bx	lr
/workspace/benchmark/darknetz/ta/activations_TA.c:25
     cba:	4813      	ldr	r0, [pc, #76]	; (d08 <get_activation_string_TA+0x88>)
     cbc:	4478      	add	r0, pc
     cbe:	4770      	bx	lr
/workspace/benchmark/darknetz/ta/activations_TA.c:27
     cc0:	4812      	ldr	r0, [pc, #72]	; (d0c <get_activation_string_TA+0x8c>)
     cc2:	4478      	add	r0, pc
     cc4:	4770      	bx	lr
/workspace/benchmark/darknetz/ta/activations_TA.c:29
     cc6:	4812      	ldr	r0, [pc, #72]	; (d10 <get_activation_string_TA+0x90>)
     cc8:	4478      	add	r0, pc
     cca:	4770      	bx	lr
/workspace/benchmark/darknetz/ta/activations_TA.c:31
     ccc:	4811      	ldr	r0, [pc, #68]	; (d14 <get_activation_string_TA+0x94>)
     cce:	4478      	add	r0, pc
     cd0:	4770      	bx	lr
/workspace/benchmark/darknetz/ta/activations_TA.c:33
     cd2:	4811      	ldr	r0, [pc, #68]	; (d18 <get_activation_string_TA+0x98>)
     cd4:	4478      	add	r0, pc
     cd6:	4770      	bx	lr
/workspace/benchmark/darknetz/ta/activations_TA.c:35
     cd8:	4810      	ldr	r0, [pc, #64]	; (d1c <get_activation_string_TA+0x9c>)
     cda:	4478      	add	r0, pc
     cdc:	4770      	bx	lr
/workspace/benchmark/darknetz/ta/activations_TA.c:37
     cde:	4810      	ldr	r0, [pc, #64]	; (d20 <get_activation_string_TA+0xa0>)
     ce0:	4478      	add	r0, pc
     ce2:	4770      	bx	lr
/workspace/benchmark/darknetz/ta/activations_TA.c:41
     ce4:	480f      	ldr	r0, [pc, #60]	; (d24 <get_activation_string_TA+0xa4>)
     ce6:	4478      	add	r0, pc
     ce8:	4770      	bx	lr
/workspace/benchmark/darknetz/ta/activations_TA.c:11
     cea:	480f      	ldr	r0, [pc, #60]	; (d28 <get_activation_string_TA+0xa8>)
     cec:	4478      	add	r0, pc
/workspace/benchmark/darknetz/ta/activations_TA.c:42
     cee:	4770      	bx	lr
     cf0:	0000c3bb 	.word	0x0000c3bb
     cf4:	0000c3bb 	.word	0x0000c3bb
     cf8:	0000c3b6 	.word	0x0000c3b6
     cfc:	0000c3b4 	.word	0x0000c3b4
     d00:	0000c3b3 	.word	0x0000c3b3
     d04:	0000c3b3 	.word	0x0000c3b3
     d08:	0000c3b2 	.word	0x0000c3b2
     d0c:	0000c3b3 	.word	0x0000c3b3
     d10:	0000c3b2 	.word	0x0000c3b2
     d14:	0000c3b1 	.word	0x0000c3b1
     d18:	0000c3b1 	.word	0x0000c3b1
     d1c:	0000c3b1 	.word	0x0000c3b1
     d20:	0000c3b3 	.word	0x0000c3b3
     d24:	0000c373 	.word	0x0000c373
     d28:	0000c35e 	.word	0x0000c35e

00000d2c <get_activation_TA>:
get_activation_TA():
/workspace/benchmark/darknetz/ta/activations_TA.c:46
     d2c:	493b      	ldr	r1, [pc, #236]	; (e1c <get_activation_TA+0xf0>)
/workspace/benchmark/darknetz/ta/activations_TA.c:45
     d2e:	b510      	push	{r4, lr}
     d30:	4604      	mov	r4, r0
/workspace/benchmark/darknetz/ta/activations_TA.c:46
     d32:	4479      	add	r1, pc
     d34:	f00b fd77 	bl	c826 <strcmp>
     d38:	2800      	cmp	r0, #0
     d3a:	d06e      	beq.n	e1a <get_activation_TA+0xee>
/workspace/benchmark/darknetz/ta/activations_TA.c:47
     d3c:	4938      	ldr	r1, [pc, #224]	; (e20 <get_activation_TA+0xf4>)
     d3e:	4620      	mov	r0, r4
     d40:	4479      	add	r1, pc
     d42:	f00b fd70 	bl	c826 <strcmp>
     d46:	2800      	cmp	r0, #0
     d48:	d050      	beq.n	dec <get_activation_TA+0xc0>
/workspace/benchmark/darknetz/ta/activations_TA.c:48
     d4a:	4936      	ldr	r1, [pc, #216]	; (e24 <get_activation_TA+0xf8>)
     d4c:	4620      	mov	r0, r4
     d4e:	4479      	add	r1, pc
     d50:	f00b fd69 	bl	c826 <strcmp>
     d54:	2800      	cmp	r0, #0
     d56:	d04b      	beq.n	df0 <get_activation_TA+0xc4>
/workspace/benchmark/darknetz/ta/activations_TA.c:49
     d58:	4933      	ldr	r1, [pc, #204]	; (e28 <get_activation_TA+0xfc>)
     d5a:	4620      	mov	r0, r4
     d5c:	4479      	add	r1, pc
     d5e:	f00b fd62 	bl	c826 <strcmp>
     d62:	2800      	cmp	r0, #0
     d64:	d046      	beq.n	df4 <get_activation_TA+0xc8>
/workspace/benchmark/darknetz/ta/activations_TA.c:50
     d66:	4931      	ldr	r1, [pc, #196]	; (e2c <get_activation_TA+0x100>)
     d68:	4620      	mov	r0, r4
     d6a:	4479      	add	r1, pc
     d6c:	f00b fd5b 	bl	c826 <strcmp>
     d70:	2800      	cmp	r0, #0
     d72:	d041      	beq.n	df8 <get_activation_TA+0xcc>
/workspace/benchmark/darknetz/ta/activations_TA.c:51
     d74:	492e      	ldr	r1, [pc, #184]	; (e30 <get_activation_TA+0x104>)
     d76:	4620      	mov	r0, r4
     d78:	4479      	add	r1, pc
     d7a:	f00b fd54 	bl	c826 <strcmp>
     d7e:	2800      	cmp	r0, #0
     d80:	d03c      	beq.n	dfc <get_activation_TA+0xd0>
/workspace/benchmark/darknetz/ta/activations_TA.c:52
     d82:	492c      	ldr	r1, [pc, #176]	; (e34 <get_activation_TA+0x108>)
     d84:	4620      	mov	r0, r4
     d86:	4479      	add	r1, pc
     d88:	f00b fd4d 	bl	c826 <strcmp>
     d8c:	b3c0      	cbz	r0, e00 <get_activation_TA+0xd4>
/workspace/benchmark/darknetz/ta/activations_TA.c:53
     d8e:	492a      	ldr	r1, [pc, #168]	; (e38 <get_activation_TA+0x10c>)
     d90:	4620      	mov	r0, r4
     d92:	4479      	add	r1, pc
     d94:	f00b fd47 	bl	c826 <strcmp>
     d98:	b3a0      	cbz	r0, e04 <get_activation_TA+0xd8>
/workspace/benchmark/darknetz/ta/activations_TA.c:54
     d9a:	4928      	ldr	r1, [pc, #160]	; (e3c <get_activation_TA+0x110>)
     d9c:	4620      	mov	r0, r4
     d9e:	4479      	add	r1, pc
     da0:	f00b fd41 	bl	c826 <strcmp>
     da4:	b380      	cbz	r0, e08 <get_activation_TA+0xdc>
/workspace/benchmark/darknetz/ta/activations_TA.c:55
     da6:	4926      	ldr	r1, [pc, #152]	; (e40 <get_activation_TA+0x114>)
     da8:	4620      	mov	r0, r4
     daa:	4479      	add	r1, pc
     dac:	f00b fd3b 	bl	c826 <strcmp>
     db0:	b360      	cbz	r0, e0c <get_activation_TA+0xe0>
/workspace/benchmark/darknetz/ta/activations_TA.c:56
     db2:	4924      	ldr	r1, [pc, #144]	; (e44 <get_activation_TA+0x118>)
     db4:	4620      	mov	r0, r4
     db6:	4479      	add	r1, pc
     db8:	f00b fd35 	bl	c826 <strcmp>
     dbc:	b340      	cbz	r0, e10 <get_activation_TA+0xe4>
/workspace/benchmark/darknetz/ta/activations_TA.c:57
     dbe:	4922      	ldr	r1, [pc, #136]	; (e48 <get_activation_TA+0x11c>)
     dc0:	4620      	mov	r0, r4
     dc2:	4479      	add	r1, pc
     dc4:	f00b fd2f 	bl	c826 <strcmp>
     dc8:	b320      	cbz	r0, e14 <get_activation_TA+0xe8>
/workspace/benchmark/darknetz/ta/activations_TA.c:58
     dca:	4920      	ldr	r1, [pc, #128]	; (e4c <get_activation_TA+0x120>)
     dcc:	4620      	mov	r0, r4
     dce:	4479      	add	r1, pc
     dd0:	f00b fd29 	bl	c826 <strcmp>
     dd4:	b300      	cbz	r0, e18 <get_activation_TA+0xec>
/workspace/benchmark/darknetz/ta/activations_TA.c:59
     dd6:	491e      	ldr	r1, [pc, #120]	; (e50 <get_activation_TA+0x124>)
     dd8:	4620      	mov	r0, r4
     dda:	4479      	add	r1, pc
     ddc:	f00b fd23 	bl	c826 <strcmp>
     de0:	2800      	cmp	r0, #0
     de2:	f04f 0001 	mov.w	r0, #1
     de6:	bf08      	it	eq
     de8:	200a      	moveq	r0, #10
     dea:	bd10      	pop	{r4, pc}
/workspace/benchmark/darknetz/ta/activations_TA.c:47
     dec:	2009      	movs	r0, #9
     dee:	bd10      	pop	{r4, pc}
/workspace/benchmark/darknetz/ta/activations_TA.c:61
     df0:	2001      	movs	r0, #1
     df2:	bd10      	pop	{r4, pc}
/workspace/benchmark/darknetz/ta/activations_TA.c:49
     df4:	2008      	movs	r0, #8
     df6:	bd10      	pop	{r4, pc}
/workspace/benchmark/darknetz/ta/activations_TA.c:50
     df8:	200d      	movs	r0, #13
     dfa:	bd10      	pop	{r4, pc}
/workspace/benchmark/darknetz/ta/activations_TA.c:51
     dfc:	2002      	movs	r0, #2
     dfe:	bd10      	pop	{r4, pc}
/workspace/benchmark/darknetz/ta/activations_TA.c:52
     e00:	2006      	movs	r0, #6
     e02:	bd10      	pop	{r4, pc}
/workspace/benchmark/darknetz/ta/activations_TA.c:53
     e04:	200b      	movs	r0, #11
     e06:	bd10      	pop	{r4, pc}
/workspace/benchmark/darknetz/ta/activations_TA.c:54
     e08:	200c      	movs	r0, #12
     e0a:	bd10      	pop	{r4, pc}
/workspace/benchmark/darknetz/ta/activations_TA.c:55
     e0c:	2003      	movs	r0, #3
     e0e:	bd10      	pop	{r4, pc}
/workspace/benchmark/darknetz/ta/activations_TA.c:56
     e10:	2004      	movs	r0, #4
     e12:	bd10      	pop	{r4, pc}
/workspace/benchmark/darknetz/ta/activations_TA.c:57
     e14:	2007      	movs	r0, #7
     e16:	bd10      	pop	{r4, pc}
/workspace/benchmark/darknetz/ta/activations_TA.c:58
     e18:	2005      	movs	r0, #5
/workspace/benchmark/darknetz/ta/activations_TA.c:62
     e1a:	bd10      	pop	{r4, pc}
     e1c:	0000c318 	.word	0x0000c318
     e20:	0000c313 	.word	0x0000c313
     e24:	0000c30b 	.word	0x0000c30b
     e28:	0000c2fe 	.word	0x0000c2fe
     e2c:	0000c2f4 	.word	0x0000c2f4
     e30:	0000c2eb 	.word	0x0000c2eb
     e34:	0000c2f4 	.word	0x0000c2f4
     e38:	0000c2f9 	.word	0x0000c2f9
     e3c:	0000c2f5 	.word	0x0000c2f5
     e40:	0000c2c4 	.word	0x0000c2c4
     e44:	0000c2b3 	.word	0x0000c2b3
     e48:	0000c2bd 	.word	0x0000c2bd
     e4c:	0000c2a7 	.word	0x0000c2a7
     e50:	0000c2ab 	.word	0x0000c2ab

00000e54 <activate_TA>:
activate_TA():
/workspace/benchmark/darknetz/ta/activations_TA.c:67
     e54:	b508      	push	{r3, lr}
     e56:	ed2d 8b0a 	vpush	{d8-d12}
     e5a:	eeb0 ca40 	vmov.f32	s24, s0
/workspace/benchmark/darknetz/ta/activations_TA.c:68
     e5e:	280d      	cmp	r0, #13
     e60:	d80f      	bhi.n	e82 <activate_TA+0x2e>
     e62:	e8df f010 	tbh	[pc, r0, lsl #1]
     e66:	0015      	.short	0x0015
     e68:	008c0037 	.word	0x008c0037
     e6c:	00990010 	.word	0x00990010
     e70:	00d000b9 	.word	0x00d000b9
     e74:	004400ae 	.word	0x004400ae
     e78:	00f90024 	.word	0x00f90024
     e7c:	0130011e 	.word	0x0130011e
     e80:	0069      	.short	0x0069
/workspace/benchmark/darknetz/ta/activations_TA.c:98
     e82:	ed9f caab 	vldr	s24, [pc, #684]	; 1130 <activate_TA+0x2dc>
/workspace/benchmark/darknetz/ta/activations_TA.c:99
     e86:	eeb0 0a4c 	vmov.f32	s0, s24
     e8a:	ecbd 8b0a 	vpop	{d8-d12}
     e8e:	bd08      	pop	{r3, pc}
logistic_activate_TA():
/workspace/benchmark/darknetz/ta/./include/activations_TA.h:33
     e90:	eeb1 0a40 	vneg.f32	s0, s0
     e94:	eeb7 0ac0 	vcvt.f64.f32	d0, s0
     e98:	f7ff fb7a 	bl	590 <ta_exp>
     e9c:	eeb7 4b00 	vmov.f64	d4, #112	; 0x3f800000  1.0
     ea0:	ee30 0b04 	vadd.f64	d0, d0, d4
     ea4:	ee84 cb00 	vdiv.f64	d12, d4, d0
tanh_activate_TA():
/workspace/benchmark/darknetz/ta/./include/activations_TA.h:41
     ea8:	eeb7 cbcc 	vcvt.f32.f64	s24, d12
activate_TA():
/workspace/benchmark/darknetz/ta/activations_TA.c:88
     eac:	e7eb      	b.n	e86 <activate_TA+0x32>
loggy_activate_TA():
/workspace/benchmark/darknetz/ta/./include/activations_TA.h:34
     eae:	eeb1 0a40 	vneg.f32	s0, s0
     eb2:	eeb7 8b00 	vmov.f64	d8, #112	; 0x3f800000  1.0
     eb6:	eeb7 0ac0 	vcvt.f64.f32	d0, s0
     eba:	f7ff fb69 	bl	590 <ta_exp>
     ebe:	ee30 7b08 	vadd.f64	d7, d0, d8
     ec2:	eeb0 6b00 	vmov.f64	d6, #0	; 0x40000000  2.0
     ec6:	ee86 0b07 	vdiv.f64	d0, d6, d7
     eca:	ee30 0b48 	vsub.f64	d0, d0, d8
lhtan_activate_TA():
/workspace/benchmark/darknetz/ta/./include/activations_TA.h:52
     ece:	eeb7 cbc0 	vcvt.f32.f64	s24, d0
     ed2:	e7d8      	b.n	e86 <activate_TA+0x32>
relu_activate_TA():
/workspace/benchmark/darknetz/ta/./include/activations_TA.h:35
     ed4:	eeb5 0ac0 	vcmpe.f32	s0, #0.0
     ed8:	eef1 fa10 	vmrs	APSR_nzcv, fpscr
     edc:	dc04      	bgt.n	ee8 <activate_TA+0x94>
     ede:	eddf 7a94 	vldr	s15, [pc, #592]	; 1130 <activate_TA+0x2dc>
     ee2:	ee2c ca27 	vmul.f32	s24, s24, s15
activate_TA():
/workspace/benchmark/darknetz/ta/activations_TA.c:76
     ee6:	e7ce      	b.n	e86 <activate_TA+0x32>
relu_activate_TA():
/workspace/benchmark/darknetz/ta/./include/activations_TA.h:35
     ee8:	eef7 7a00 	vmov.f32	s15, #112	; 0x3f800000  1.0
     eec:	e7f9      	b.n	ee2 <activate_TA+0x8e>
elu_activate_TA():
/workspace/benchmark/darknetz/ta/./include/activations_TA.h:36
     eee:	eeb5 0ac0 	vcmpe.f32	s0, #0.0
     ef2:	eef1 fa10 	vmrs	APSR_nzcv, fpscr
     ef6:	da19      	bge.n	f2c <activate_TA+0xd8>
     ef8:	eddf 7a8d 	vldr	s15, [pc, #564]	; 1130 <activate_TA+0x2dc>
     efc:	eeb5 cac0 	vcmpe.f32	s24, #0.0
     f00:	ee6c 7a27 	vmul.f32	s15, s24, s15
     f04:	eeb7 ab00 	vmov.f64	d10, #112	; 0x3f800000  1.0
     f08:	eeb7 8ae7 	vcvt.f64.f32	d8, s15
     f0c:	eef1 fa10 	vmrs	APSR_nzcv, fpscr
     f10:	d40f      	bmi.n	f32 <activate_TA+0xde>
     f12:	ed9f bb7b 	vldr	d11, [pc, #492]	; 1100 <activate_TA+0x2ac>
     f16:	eeb7 0acc 	vcvt.f64.f32	d0, s24
     f1a:	f7ff fb39 	bl	590 <ta_exp>
     f1e:	ee30 0b4a 	vsub.f64	d0, d0, d10
     f22:	ee00 8b0b 	vmla.f64	d8, d0, d11
     f26:	eeb7 cbc8 	vcvt.f32.f64	s24, d8
activate_TA():
/workspace/benchmark/darknetz/ta/activations_TA.c:78
     f2a:	e7ac      	b.n	e86 <activate_TA+0x32>
elu_activate_TA():
/workspace/benchmark/darknetz/ta/./include/activations_TA.h:36
     f2c:	eef7 7a00 	vmov.f32	s15, #112	; 0x3f800000  1.0
     f30:	e7e4      	b.n	efc <activate_TA+0xa8>
     f32:	eeb0 bb4a 	vmov.f64	d11, d10
     f36:	e7ee      	b.n	f16 <activate_TA+0xc2>
selu_activate_TA():
/workspace/benchmark/darknetz/ta/./include/activations_TA.h:37
     f38:	eeb5 0ac0 	vcmpe.f32	s0, #0.0
     f3c:	eef1 fa10 	vmrs	APSR_nzcv, fpscr
     f40:	da17      	bge.n	f72 <activate_TA+0x11e>
     f42:	ed9f 9b6f 	vldr	d9, [pc, #444]	; 1100 <activate_TA+0x2ac>
     f46:	eeb5 cac0 	vcmpe.f32	s24, #0.0
     f4a:	eeb7 0acc 	vcvt.f64.f32	d0, s24
     f4e:	ee20 9b09 	vmul.f64	d9, d0, d9
     f52:	eef1 fa10 	vmrs	APSR_nzcv, fpscr
     f56:	d40f      	bmi.n	f78 <activate_TA+0x124>
     f58:	ed9f 8b69 	vldr	d8, [pc, #420]	; 1100 <activate_TA+0x2ac>
     f5c:	f7ff fb18 	bl	590 <ta_exp>
     f60:	eeb7 7b00 	vmov.f64	d7, #112	; 0x3f800000  1.0
     f64:	ee30 0b47 	vsub.f64	d0, d0, d7
     f68:	ee00 9b08 	vmla.f64	d9, d0, d8
     f6c:	eeb7 cbc9 	vcvt.f32.f64	s24, d9
activate_TA():
/workspace/benchmark/darknetz/ta/activations_TA.c:80
     f70:	e789      	b.n	e86 <activate_TA+0x32>
selu_activate_TA():
/workspace/benchmark/darknetz/ta/./include/activations_TA.h:37
     f72:	ed9f 9b65 	vldr	d9, [pc, #404]	; 1108 <activate_TA+0x2b4>
     f76:	e7e6      	b.n	f46 <activate_TA+0xf2>
     f78:	ed9f 8b65 	vldr	d8, [pc, #404]	; 1110 <activate_TA+0x2bc>
     f7c:	e7ee      	b.n	f5c <activate_TA+0x108>
relie_activate_TA():
/workspace/benchmark/darknetz/ta/./include/activations_TA.h:38
     f7e:	eeb5 0a40 	vcmp.f32	s0, #0.0
     f82:	eef1 fa10 	vmrs	APSR_nzcv, fpscr
     f86:	f73f af7e 	bgt.w	e86 <activate_TA+0x32>
     f8a:	eeb7 0ac0 	vcvt.f64.f32	d0, s0
     f8e:	ed9f 8b62 	vldr	d8, [pc, #392]	; 1118 <activate_TA+0x2c4>
leaky_activate_TA():
/workspace/benchmark/darknetz/ta/./include/activations_TA.h:40
     f92:	ee20 0b08 	vmul.f64	d0, d0, d8
     f96:	e79a      	b.n	ece <activate_TA+0x7a>
ramp_activate_TA():
/workspace/benchmark/darknetz/ta/./include/activations_TA.h:39
     f98:	eeb5 0ac0 	vcmpe.f32	s0, #0.0
     f9c:	eef1 fa10 	vmrs	APSR_nzcv, fpscr
     fa0:	dc0c      	bgt.n	fbc <activate_TA+0x168>
     fa2:	eddf 7a63 	vldr	s15, [pc, #396]	; 1130 <activate_TA+0x2dc>
     fa6:	ee2c 0a27 	vmul.f32	s0, s24, s15
     faa:	eeb7 cacc 	vcvt.f64.f32	d12, s24
     fae:	ed9f 4b5c 	vldr	d4, [pc, #368]	; 1120 <activate_TA+0x2cc>
     fb2:	eeb7 0ac0 	vcvt.f64.f32	d0, s0
plse_activate_TA():
/workspace/benchmark/darknetz/ta/./include/activations_TA.h:46
     fb6:	ee0c 0b04 	vmla.f64	d0, d12, d4
     fba:	e788      	b.n	ece <activate_TA+0x7a>
ramp_activate_TA():
/workspace/benchmark/darknetz/ta/./include/activations_TA.h:39
     fbc:	eef7 7a00 	vmov.f32	s15, #112	; 0x3f800000  1.0
     fc0:	e7f1      	b.n	fa6 <activate_TA+0x152>
leaky_activate_TA():
/workspace/benchmark/darknetz/ta/./include/activations_TA.h:40
     fc2:	eeb5 0a40 	vcmp.f32	s0, #0.0
     fc6:	eef1 fa10 	vmrs	APSR_nzcv, fpscr
     fca:	f73f af5c 	bgt.w	e86 <activate_TA+0x32>
     fce:	eeb7 0ac0 	vcvt.f64.f32	d0, s0
     fd2:	ed9f 8b53 	vldr	d8, [pc, #332]	; 1120 <activate_TA+0x2cc>
     fd6:	e7dc      	b.n	f92 <activate_TA+0x13e>
tanh_activate_TA():
/workspace/benchmark/darknetz/ta/./include/activations_TA.h:41
     fd8:	ee30 0a00 	vadd.f32	s0, s0, s0
     fdc:	eeb7 8ac0 	vcvt.f64.f32	d8, s0
     fe0:	eeb0 0b48 	vmov.f64	d0, d8
     fe4:	f7ff fad4 	bl	590 <ta_exp>
     fe8:	eeb0 9b40 	vmov.f64	d9, d0
     fec:	eeb0 0b48 	vmov.f64	d0, d8
     ff0:	f7ff face 	bl	590 <ta_exp>
     ff4:	eeb7 7b00 	vmov.f64	d7, #112	; 0x3f800000  1.0
     ff8:	ee39 9b47 	vsub.f64	d9, d9, d7
     ffc:	ee30 7b07 	vadd.f64	d7, d0, d7
    1000:	ee89 cb07 	vdiv.f64	d12, d9, d7
    1004:	e750      	b.n	ea8 <activate_TA+0x54>
plse_activate_TA():
/workspace/benchmark/darknetz/ta/./include/activations_TA.h:44
    1006:	eef9 7a00 	vmov.f32	s15, #144	; 0xc0800000 -4.0
    100a:	eeb4 0ae7 	vcmpe.f32	s0, s15
    100e:	eeb1 0a00 	vmov.f32	s0, #16	; 0x40800000  4.0
    1012:	eef1 fa10 	vmrs	APSR_nzcv, fpscr
    1016:	d508      	bpl.n	102a <activate_TA+0x1d6>
    1018:	ee3c 0a00 	vadd.f32	s0, s24, s0
    101c:	ed9f 7b3e 	vldr	d7, [pc, #248]	; 1118 <activate_TA+0x2c4>
    1020:	eeb7 0ac0 	vcvt.f64.f32	d0, s0
    1024:	ee20 0b07 	vmul.f64	d0, d0, d7
    1028:	e751      	b.n	ece <activate_TA+0x7a>
/workspace/benchmark/darknetz/ta/./include/activations_TA.h:45
    102a:	eeb4 cac0 	vcmpe.f32	s24, s0
    102e:	eef1 fa10 	vmrs	APSR_nzcv, fpscr
    1032:	dd0a      	ble.n	104a <activate_TA+0x1f6>
    1034:	ee3c 0a40 	vsub.f32	s0, s24, s0
    1038:	ed9f 6b37 	vldr	d6, [pc, #220]	; 1118 <activate_TA+0x2c4>
    103c:	eeb7 7ac0 	vcvt.f64.f32	d7, s0
    1040:	eeb7 0b00 	vmov.f64	d0, #112	; 0x3f800000  1.0
lhtan_activate_TA():
/workspace/benchmark/darknetz/ta/./include/activations_TA.h:52
    1044:	ee06 0b07 	vmla.f64	d0, d6, d7
    1048:	e741      	b.n	ece <activate_TA+0x7a>
plse_activate_TA():
/workspace/benchmark/darknetz/ta/./include/activations_TA.h:46
    104a:	eeb7 cacc 	vcvt.f64.f32	d12, s24
    104e:	eeb6 0b00 	vmov.f64	d0, #96	; 0x3f000000  0.5
    1052:	eeb4 4b00 	vmov.f64	d4, #64	; 0x3e000000  0.125
    1056:	e7ae      	b.n	fb6 <activate_TA+0x162>
stair_activate_TA():
/workspace/benchmark/darknetz/ta/./include/activations_TA.h:22
    1058:	eeb7 aac0 	vcvt.f64.f32	d10, s0
    105c:	eeb0 0b4a 	vmov.f64	d0, d10
    1060:	f7ff fae0 	bl	624 <ta_floor>
    1064:	eeb6 0b00 	vmov.f64	d0, #96	; 0x3f000000  0.5
/workspace/benchmark/darknetz/ta/./include/activations_TA.h:23
    1068:	f010 0f01 	tst.w	r0, #1
    106c:	d108      	bne.n	1080 <activate_TA+0x22c>
    106e:	ee2a 0b00 	vmul.f64	d0, d10, d0
    1072:	f7ff fad7 	bl	624 <ta_floor>
    1076:	ee07 0a90 	vmov	s15, r0
    107a:	eeb8 cae7 	vcvt.f32.s32	s24, s15
    107e:	e702      	b.n	e86 <activate_TA+0x32>
/workspace/benchmark/darknetz/ta/./include/activations_TA.h:24
    1080:	ee07 0a90 	vmov	s15, r0
    1084:	ee2a 0b00 	vmul.f64	d0, d10, d0
    1088:	eef8 7ae7 	vcvt.f32.s32	s15, s15
    108c:	ee3c ca67 	vsub.f32	s24, s24, s15
    1090:	f7ff fac8 	bl	624 <ta_floor>
    1094:	ee07 0a90 	vmov	s15, r0
    1098:	eeb8 0ae7 	vcvt.f32.s32	s0, s15
    109c:	ee30 ca0c 	vadd.f32	s24, s0, s24
    10a0:	e6f1      	b.n	e86 <activate_TA+0x32>
hardtan_activate_TA():
/workspace/benchmark/darknetz/ta/./include/activations_TA.h:28
    10a2:	eeff 7a00 	vmov.f32	s15, #240	; 0xbf800000 -1.0
    10a6:	eeb4 0ae7 	vcmpe.f32	s0, s15
    10aa:	eef1 fa10 	vmrs	APSR_nzcv, fpscr
    10ae:	d407      	bmi.n	10c0 <activate_TA+0x26c>
/workspace/benchmark/darknetz/ta/./include/activations_TA.h:29
    10b0:	eef7 7a00 	vmov.f32	s15, #112	; 0x3f800000  1.0
    10b4:	eeb4 0ae7 	vcmpe.f32	s0, s15
    10b8:	eef1 fa10 	vmrs	APSR_nzcv, fpscr
    10bc:	f77f aee3 	ble.w	e86 <activate_TA+0x32>
/workspace/benchmark/darknetz/ta/./include/activations_TA.h:28
    10c0:	eeb0 ca67 	vmov.f32	s24, s15
    10c4:	e6df      	b.n	e86 <activate_TA+0x32>
lhtan_activate_TA():
/workspace/benchmark/darknetz/ta/./include/activations_TA.h:51
    10c6:	eeb5 0ac0 	vcmpe.f32	s0, #0.0
    10ca:	eef1 fa10 	vmrs	APSR_nzcv, fpscr
    10ce:	d504      	bpl.n	10da <activate_TA+0x286>
    10d0:	eeb7 0ac0 	vcvt.f64.f32	d0, s0
    10d4:	ed9f 8b14 	vldr	d8, [pc, #80]	; 1128 <activate_TA+0x2d4>
    10d8:	e75b      	b.n	f92 <activate_TA+0x13e>
/workspace/benchmark/darknetz/ta/./include/activations_TA.h:52
    10da:	eeb7 6a00 	vmov.f32	s12, #112	; 0x3f800000  1.0
    10de:	eeb4 0ac6 	vcmpe.f32	s0, s12
    10e2:	eef1 fa10 	vmrs	APSR_nzcv, fpscr
    10e6:	f77f aece 	ble.w	e86 <activate_TA+0x32>
    10ea:	ee30 6a46 	vsub.f32	s12, s0, s12
    10ee:	ed9f 7b0e 	vldr	d7, [pc, #56]	; 1128 <activate_TA+0x2d4>
    10f2:	eeb7 0b00 	vmov.f64	d0, #112	; 0x3f800000  1.0
    10f6:	eeb7 6ac6 	vcvt.f64.f32	d6, s12
    10fa:	e7a3      	b.n	1044 <activate_TA+0x1f0>
    10fc:	f3af 8000 	nop.w
	...
    1108:	cd9e83e4 	.word	0xcd9e83e4
    110c:	3ff0cfaa 	.word	0x3ff0cfaa
    1110:	5d92575b 	.word	0x5d92575b
    1114:	3ffc20e5 	.word	0x3ffc20e5
    1118:	47ae147b 	.word	0x47ae147b
    111c:	3f847ae1 	.word	0x3f847ae1
    1120:	9999999a 	.word	0x9999999a
    1124:	3fb99999 	.word	0x3fb99999
    1128:	d2f1a9fc 	.word	0xd2f1a9fc
    112c:	3f50624d 	.word	0x3f50624d
    1130:	00000000 	.word	0x00000000

00001134 <activate_array_TA>:
activate_array_TA():
/workspace/benchmark/darknetz/ta/activations_TA.c:102
    1134:	e92d 41f0 	stmdb	sp!, {r4, r5, r6, r7, r8, lr}
    1138:	4606      	mov	r6, r0
    113a:	460f      	mov	r7, r1
    113c:	4690      	mov	r8, r2
    113e:	4605      	mov	r5, r0
/workspace/benchmark/darknetz/ta/activations_TA.c:104
    1140:	2400      	movs	r4, #0
/workspace/benchmark/darknetz/ta/activations_TA.c:104 (discriminator 1)
    1142:	42bc      	cmp	r4, r7
    1144:	db02      	blt.n	114c <activate_array_TA+0x18>
/workspace/benchmark/darknetz/ta/activations_TA.c:108
    1146:	4630      	mov	r0, r6
    1148:	e8bd 81f0 	ldmia.w	sp!, {r4, r5, r6, r7, r8, pc}
/workspace/benchmark/darknetz/ta/activations_TA.c:105 (discriminator 3)
    114c:	ed95 0a00 	vldr	s0, [r5]
    1150:	4640      	mov	r0, r8
    1152:	f7ff fe7f 	bl	e54 <activate_TA>
/workspace/benchmark/darknetz/ta/activations_TA.c:104 (discriminator 3)
    1156:	3401      	adds	r4, #1
/workspace/benchmark/darknetz/ta/activations_TA.c:105 (discriminator 3)
    1158:	eca5 0a01 	vstmia	r5!, {s0}
    115c:	e7f1      	b.n	1142 <activate_array_TA+0xe>

0000115e <gradient_TA>:
gradient_TA():
/workspace/benchmark/darknetz/ta/activations_TA.c:112
    115e:	b508      	push	{r3, lr}
    1160:	ed2d 8b02 	vpush	{d8}
    1164:	eeb0 8a40 	vmov.f32	s16, s0
/workspace/benchmark/darknetz/ta/activations_TA.c:113
    1168:	280d      	cmp	r0, #13
    116a:	d827      	bhi.n	11bc <gradient_TA+0x5e>
    116c:	e8df f000 	tbb	[pc, r0]
    1170:	9a612107 	.word	0x9a612107
    1174:	717e7969 	.word	0x717e7969
    1178:	9d8d1029 	.word	0x9d8d1029
    117c:	42ad      	.short	0x42ad
logistic_gradient_TA():
/workspace/benchmark/darknetz/ta/./include/activations_TA.h:69
    117e:	eeb7 0a00 	vmov.f32	s0, #112	; 0x3f800000  1.0
    1182:	ee30 0a48 	vsub.f32	s0, s0, s16
    1186:	ee20 0a08 	vmul.f32	s0, s0, s16
gradient_TA():
/workspace/benchmark/darknetz/ta/activations_TA.c:144
    118a:	ecbd 8b02 	vpop	{d8}
    118e:	bd08      	pop	{r3, pc}
loggy_gradient_TA():
/workspace/benchmark/darknetz/ta/./include/activations_TA.h:72
    1190:	eeb7 8ac0 	vcvt.f64.f32	d8, s0
    1194:	eeb6 0b00 	vmov.f64	d0, #96	; 0x3f000000  0.5
    1198:	ee08 0b00 	vmla.f64	d0, d8, d0
    119c:	eef7 7bc0 	vcvt.f32.f64	s15, d0
/workspace/benchmark/darknetz/ta/./include/activations_TA.h:73
    11a0:	eeb7 0a00 	vmov.f32	s0, #112	; 0x3f800000  1.0
    11a4:	ee30 0a67 	vsub.f32	s0, s0, s15
    11a8:	ee77 7aa7 	vadd.f32	s15, s15, s15
    11ac:	ee20 0a27 	vmul.f32	s0, s0, s15
gradient_TA():
/workspace/benchmark/darknetz/ta/activations_TA.c:119
    11b0:	e7eb      	b.n	118a <gradient_TA+0x2c>
relu_gradient_TA():
/workspace/benchmark/darknetz/ta/./include/activations_TA.h:80
    11b2:	eeb5 0ac0 	vcmpe.f32	s0, #0.0
    11b6:	eef1 fa10 	vmrs	APSR_nzcv, fpscr
    11ba:	dc73      	bgt.n	12a4 <gradient_TA+0x146>
gradient_TA():
/workspace/benchmark/darknetz/ta/activations_TA.c:143
    11bc:	ed9f 0a50 	vldr	s0, [pc, #320]	; 1300 <gradient_TA+0x1a2>
    11c0:	e7e3      	b.n	118a <gradient_TA+0x2c>
elu_gradient_TA():
/workspace/benchmark/darknetz/ta/./include/activations_TA.h:81
    11c2:	eeb5 0ac0 	vcmpe.f32	s0, #0.0
    11c6:	eef1 fa10 	vmrs	APSR_nzcv, fpscr
    11ca:	db0d      	blt.n	11e8 <gradient_TA+0x8a>
    11cc:	eef7 7a00 	vmov.f32	s15, #112	; 0x3f800000  1.0
    11d0:	eeb5 8ac0 	vcmpe.f32	s16, #0.0
    11d4:	eef1 fa10 	vmrs	APSR_nzcv, fpscr
    11d8:	d509      	bpl.n	11ee <gradient_TA+0x90>
    11da:	eeb7 0a00 	vmov.f32	s0, #112	; 0x3f800000  1.0
    11de:	ee08 0a00 	vmla.f32	s0, s16, s0
    11e2:	ee30 0a27 	vadd.f32	s0, s0, s15
gradient_TA():
/workspace/benchmark/darknetz/ta/activations_TA.c:123
    11e6:	e7d0      	b.n	118a <gradient_TA+0x2c>
elu_gradient_TA():
/workspace/benchmark/darknetz/ta/./include/activations_TA.h:81
    11e8:	eddf 7a45 	vldr	s15, [pc, #276]	; 1300 <gradient_TA+0x1a2>
    11ec:	e7f0      	b.n	11d0 <gradient_TA+0x72>
    11ee:	ed9f 0a44 	vldr	s0, [pc, #272]	; 1300 <gradient_TA+0x1a2>
    11f2:	e7f4      	b.n	11de <gradient_TA+0x80>
selu_gradient_TA():
/workspace/benchmark/darknetz/ta/./include/activations_TA.h:82
    11f4:	eeb5 0ac0 	vcmpe.f32	s0, #0.0
    11f8:	eef1 fa10 	vmrs	APSR_nzcv, fpscr
    11fc:	db13      	blt.n	1226 <gradient_TA+0xc8>
    11fe:	ed9f 0b3a 	vldr	d0, [pc, #232]	; 12e8 <gradient_TA+0x18a>
    1202:	eeb5 8ac0 	vcmpe.f32	s16, #0.0
    1206:	eef1 fa10 	vmrs	APSR_nzcv, fpscr
    120a:	d50f      	bpl.n	122c <gradient_TA+0xce>
    120c:	eeb7 6b00 	vmov.f64	d6, #112	; 0x3f800000  1.0
    1210:	eeb7 7ac8 	vcvt.f64.f32	d7, s16
    1214:	ed9f 5b36 	vldr	d5, [pc, #216]	; 12f0 <gradient_TA+0x192>
    1218:	ee37 7b05 	vadd.f64	d7, d7, d5
    121c:	ee07 0b06 	vmla.f64	d0, d7, d6
    1220:	eeb7 0bc0 	vcvt.f32.f64	s0, d0
gradient_TA():
/workspace/benchmark/darknetz/ta/activations_TA.c:125
    1224:	e7b1      	b.n	118a <gradient_TA+0x2c>
selu_gradient_TA():
/workspace/benchmark/darknetz/ta/./include/activations_TA.h:82
    1226:	ed9f 0b34 	vldr	d0, [pc, #208]	; 12f8 <gradient_TA+0x19a>
    122a:	e7ea      	b.n	1202 <gradient_TA+0xa4>
    122c:	ed9f 6b32 	vldr	d6, [pc, #200]	; 12f8 <gradient_TA+0x19a>
    1230:	e7ee      	b.n	1210 <gradient_TA+0xb2>
relie_gradient_TA():
/workspace/benchmark/darknetz/ta/./include/activations_TA.h:83
    1232:	eeb5 0ac0 	vcmpe.f32	s0, #0.0
    1236:	eef1 fa10 	vmrs	APSR_nzcv, fpscr
    123a:	dc33      	bgt.n	12a4 <gradient_TA+0x146>
plse_gradient_TA():
/workspace/benchmark/darknetz/ta/./include/activations_TA.h:87
    123c:	ed9f 0a31 	vldr	s0, [pc, #196]	; 1304 <gradient_TA+0x1a6>
    1240:	e7a3      	b.n	118a <gradient_TA+0x2c>
ramp_gradient_TA():
/workspace/benchmark/darknetz/ta/./include/activations_TA.h:84
    1242:	eeb5 0ac0 	vcmpe.f32	s0, #0.0
    1246:	eef1 fa10 	vmrs	APSR_nzcv, fpscr
    124a:	dd07      	ble.n	125c <gradient_TA+0xfe>
    124c:	ed9f 0a2e 	vldr	s0, [pc, #184]	; 1308 <gradient_TA+0x1aa>
    1250:	e79b      	b.n	118a <gradient_TA+0x2c>
leaky_gradient_TA():
/workspace/benchmark/darknetz/ta/./include/activations_TA.h:85
    1252:	eeb5 0ac0 	vcmpe.f32	s0, #0.0
    1256:	eef1 fa10 	vmrs	APSR_nzcv, fpscr
    125a:	dc23      	bgt.n	12a4 <gradient_TA+0x146>
ramp_gradient_TA():
/workspace/benchmark/darknetz/ta/./include/activations_TA.h:84
    125c:	ed9f 0a2b 	vldr	s0, [pc, #172]	; 130c <gradient_TA+0x1ae>
    1260:	e793      	b.n	118a <gradient_TA+0x2c>
tanh_gradient_TA():
/workspace/benchmark/darknetz/ta/./include/activations_TA.h:86
    1262:	eeb7 0a00 	vmov.f32	s0, #112	; 0x3f800000  1.0
    1266:	ee08 0a48 	vmls.f32	s0, s16, s16
gradient_TA():
/workspace/benchmark/darknetz/ta/activations_TA.c:133
    126a:	e78e      	b.n	118a <gradient_TA+0x2c>
plse_gradient_TA():
/workspace/benchmark/darknetz/ta/./include/activations_TA.h:87
    126c:	eeb5 0ac0 	vcmpe.f32	s0, #0.0
    1270:	eef1 fa10 	vmrs	APSR_nzcv, fpscr
    1274:	d4e2      	bmi.n	123c <gradient_TA+0xde>
    1276:	eef7 7a00 	vmov.f32	s15, #112	; 0x3f800000  1.0
    127a:	eeb4 0ae7 	vcmpe.f32	s0, s15
    127e:	eef1 fa10 	vmrs	APSR_nzcv, fpscr
    1282:	dcdb      	bgt.n	123c <gradient_TA+0xde>
    1284:	eeb4 0a00 	vmov.f32	s0, #64	; 0x3e000000  0.125
    1288:	e77f      	b.n	118a <gradient_TA+0x2c>
stair_gradient_TA():
/workspace/benchmark/darknetz/ta/./include/activations_TA.h:77
    128a:	eeb7 0ac0 	vcvt.f64.f32	d0, s0
    128e:	f7ff f9c9 	bl	624 <ta_floor>
    1292:	ee07 0a90 	vmov	s15, r0
    1296:	eef8 7ae7 	vcvt.f32.s32	s15, s15
    129a:	eeb4 8a67 	vcmp.f32	s16, s15
    129e:	eef1 fa10 	vmrs	APSR_nzcv, fpscr
    12a2:	d08b      	beq.n	11bc <gradient_TA+0x5e>
/workspace/benchmark/darknetz/ta/./include/activations_TA.h:78
    12a4:	eeb7 0a00 	vmov.f32	s0, #112	; 0x3f800000  1.0
    12a8:	e76f      	b.n	118a <gradient_TA+0x2c>
hardtan_gradient_TA():
/workspace/benchmark/darknetz/ta/./include/activations_TA.h:65
    12aa:	eeff 7a00 	vmov.f32	s15, #240	; 0xbf800000 -1.0
    12ae:	eeb4 0ae7 	vcmpe.f32	s0, s15
    12b2:	eef1 fa10 	vmrs	APSR_nzcv, fpscr
    12b6:	dd81      	ble.n	11bc <gradient_TA+0x5e>
    12b8:	eef7 7a00 	vmov.f32	s15, #112	; 0x3f800000  1.0
    12bc:	eeb4 0ae7 	vcmpe.f32	s0, s15
    12c0:	eef1 fa10 	vmrs	APSR_nzcv, fpscr
    12c4:	f57f af7a 	bpl.w	11bc <gradient_TA+0x5e>
    12c8:	e7ec      	b.n	12a4 <gradient_TA+0x146>
lhtan_gradient_TA():
/workspace/benchmark/darknetz/ta/./include/activations_TA.h:59
    12ca:	eeb5 0ac0 	vcmpe.f32	s0, #0.0
    12ce:	eef1 fa10 	vmrs	APSR_nzcv, fpscr
    12d2:	dd06      	ble.n	12e2 <gradient_TA+0x184>
    12d4:	eef7 7a00 	vmov.f32	s15, #112	; 0x3f800000  1.0
    12d8:	eeb4 0ae7 	vcmpe.f32	s0, s15
    12dc:	eef1 fa10 	vmrs	APSR_nzcv, fpscr
    12e0:	d4e0      	bmi.n	12a4 <gradient_TA+0x146>
/workspace/benchmark/darknetz/ta/./include/activations_TA.h:60
    12e2:	ed9f 0a0b 	vldr	s0, [pc, #44]	; 1310 <gradient_TA+0x1b2>
    12e6:	e750      	b.n	118a <gradient_TA+0x2c>
    12e8:	cd9e83e4 	.word	0xcd9e83e4
    12ec:	3ff0cfaa 	.word	0x3ff0cfaa
    12f0:	5d92575b 	.word	0x5d92575b
    12f4:	3ffc20e5 	.word	0x3ffc20e5
	...
    1304:	3c23d70a 	.word	0x3c23d70a
    1308:	3f8ccccd 	.word	0x3f8ccccd
    130c:	3dcccccd 	.word	0x3dcccccd
    1310:	3a83126f 	.word	0x3a83126f

00001314 <gradient_array_TA>:
gradient_array_TA():
/workspace/benchmark/darknetz/ta/activations_TA.c:147
    1314:	e92d 43f8 	stmdb	sp!, {r3, r4, r5, r6, r7, r8, r9, lr}
    1318:	4688      	mov	r8, r1
    131a:	4691      	mov	r9, r2
    131c:	461e      	mov	r6, r3
    131e:	4607      	mov	r7, r0
    1320:	461d      	mov	r5, r3
/workspace/benchmark/darknetz/ta/activations_TA.c:149
    1322:	2400      	movs	r4, #0
/workspace/benchmark/darknetz/ta/activations_TA.c:149 (discriminator 1)
    1324:	4544      	cmp	r4, r8
    1326:	db02      	blt.n	132e <gradient_array_TA+0x1a>
/workspace/benchmark/darknetz/ta/activations_TA.c:153
    1328:	4630      	mov	r0, r6
    132a:	e8bd 83f8 	ldmia.w	sp!, {r3, r4, r5, r6, r7, r8, r9, pc}
/workspace/benchmark/darknetz/ta/activations_TA.c:150 (discriminator 3)
    132e:	4648      	mov	r0, r9
    1330:	ecb7 0a01 	vldmia	r7!, {s0}
    1334:	f7ff ff13 	bl	115e <gradient_TA>
    1338:	edd5 7a00 	vldr	s15, [r5]
/workspace/benchmark/darknetz/ta/activations_TA.c:149 (discriminator 3)
    133c:	3401      	adds	r4, #1
/workspace/benchmark/darknetz/ta/activations_TA.c:150 (discriminator 3)
    133e:	ee27 0a80 	vmul.f32	s0, s15, s0
    1342:	eca5 0a01 	vstmia	r5!, {s0}
    1346:	e7ed      	b.n	1324 <gradient_array_TA+0x10>

00001348 <make_network_TA>:
make_network_TA():
/workspace/benchmark/darknetz/ta/network_TA.c:24
    1348:	e92d 41f0 	stmdb	sp!, {r4, r5, r6, r7, r8, lr}
    134c:	4605      	mov	r5, r0
/workspace/benchmark/darknetz/ta/network_TA.c:25
    134e:	4c41      	ldr	r4, [pc, #260]	; (1454 <make_network_TA+0x10c>)
/workspace/benchmark/darknetz/ta/network_TA.c:24
    1350:	ed2d 8b10 	vpush	{d8-d15}
    1354:	4688      	mov	r8, r1
/workspace/benchmark/darknetz/ta/network_TA.c:25
    1356:	447c      	add	r4, pc
/workspace/benchmark/darknetz/ta/network_TA.c:28
    1358:	2108      	movs	r1, #8
/workspace/benchmark/darknetz/ta/network_TA.c:24
    135a:	eeb0 fa40 	vmov.f32	s30, s0
    135e:	eef0 ea60 	vmov.f32	s29, s1
    1362:	eeb0 ea41 	vmov.f32	s28, s2
    1366:	461e      	mov	r6, r3
/workspace/benchmark/darknetz/ta/network_TA.c:25
    1368:	6020      	str	r0, [r4, #0]
/workspace/benchmark/darknetz/ta/network_TA.c:28
    136a:	2001      	movs	r0, #1
/workspace/benchmark/darknetz/ta/network_TA.c:24
    136c:	eef0 da61 	vmov.f32	s27, s3
    1370:	eeb0 da42 	vmov.f32	s26, s4
    1374:	eef0 ca62 	vmov.f32	s25, s5
    1378:	eeb0 ca43 	vmov.f32	s24, s6
    137c:	eef0 ba63 	vmov.f32	s23, s7
    1380:	eeb0 ba44 	vmov.f32	s22, s8
    1384:	eef0 aa64 	vmov.f32	s21, s9
    1388:	eeb0 aa45 	vmov.f32	s20, s10
    138c:	eef0 9a65 	vmov.f32	s19, s11
    1390:	eeb0 9a46 	vmov.f32	s18, s12
    1394:	eef0 8a66 	vmov.f32	s17, s13
    1398:	eeb0 8a47 	vmov.f32	s16, s14
    139c:	4617      	mov	r7, r2
/workspace/benchmark/darknetz/ta/network_TA.c:28
    139e:	f004 f957 	bl	5650 <calloc>
/workspace/benchmark/darknetz/ta/network_TA.c:29
    13a2:	f44f 713c 	mov.w	r1, #752	; 0x2f0
/workspace/benchmark/darknetz/ta/network_TA.c:28
    13a6:	60a0      	str	r0, [r4, #8]
/workspace/benchmark/darknetz/ta/network_TA.c:29
    13a8:	4628      	mov	r0, r5
    13aa:	f004 f951 	bl	5650 <calloc>
/workspace/benchmark/darknetz/ta/network_TA.c:30
    13ae:	2104      	movs	r1, #4
/workspace/benchmark/darknetz/ta/network_TA.c:29
    13b0:	61a0      	str	r0, [r4, #24]
/workspace/benchmark/darknetz/ta/network_TA.c:30
    13b2:	2001      	movs	r0, #1
    13b4:	f004 f94c 	bl	5650 <calloc>
/workspace/benchmark/darknetz/ta/network_TA.c:31
    13b8:	2104      	movs	r1, #4
/workspace/benchmark/darknetz/ta/network_TA.c:30
    13ba:	60e0      	str	r0, [r4, #12]
/workspace/benchmark/darknetz/ta/network_TA.c:31
    13bc:	2001      	movs	r0, #1
    13be:	f004 f947 	bl	5650 <calloc>
/workspace/benchmark/darknetz/ta/network_TA.c:39
    13c2:	9b16      	ldr	r3, [sp, #88]	; 0x58
    13c4:	6163      	str	r3, [r4, #20]
/workspace/benchmark/darknetz/ta/network_TA.c:40
    13c6:	9b17      	ldr	r3, [sp, #92]	; 0x5c
    13c8:	f8c4 30ac 	str.w	r3, [r4, #172]	; 0xac
/workspace/benchmark/darknetz/ta/network_TA.c:41
    13cc:	9b18      	ldr	r3, [sp, #96]	; 0x60
    13ce:	65a3      	str	r3, [r4, #88]	; 0x58
/workspace/benchmark/darknetz/ta/network_TA.c:45
    13d0:	9b19      	ldr	r3, [sp, #100]	; 0x64
    13d2:	67a3      	str	r3, [r4, #120]	; 0x78
/workspace/benchmark/darknetz/ta/network_TA.c:46
    13d4:	9b1a      	ldr	r3, [sp, #104]	; 0x68
    13d6:	67e3      	str	r3, [r4, #124]	; 0x7c
/workspace/benchmark/darknetz/ta/network_TA.c:47
    13d8:	9b1b      	ldr	r3, [sp, #108]	; 0x6c
    13da:	f8c4 3080 	str.w	r3, [r4, #128]	; 0x80
/workspace/benchmark/darknetz/ta/network_TA.c:48
    13de:	9b1c      	ldr	r3, [sp, #112]	; 0x70
    13e0:	66a3      	str	r3, [r4, #104]	; 0x68
/workspace/benchmark/darknetz/ta/network_TA.c:49
    13e2:	9b1d      	ldr	r3, [sp, #116]	; 0x74
    13e4:	f8c4 3084 	str.w	r3, [r4, #132]	; 0x84
/workspace/benchmark/darknetz/ta/network_TA.c:50
    13e8:	9b1e      	ldr	r3, [sp, #120]	; 0x78
    13ea:	f8c4 3088 	str.w	r3, [r4, #136]	; 0x88
/workspace/benchmark/darknetz/ta/network_TA.c:53
    13ee:	9b1f      	ldr	r3, [sp, #124]	; 0x7c
/workspace/benchmark/darknetz/ta/network_TA.c:33
    13f0:	ed84 fa09 	vstr	s30, [r4, #36]	; 0x24
/workspace/benchmark/darknetz/ta/network_TA.c:34
    13f4:	edc4 ea0a 	vstr	s29, [r4, #40]	; 0x28
/workspace/benchmark/darknetz/ta/network_TA.c:35
    13f8:	ed84 ea0b 	vstr	s28, [r4, #44]	; 0x2c
/workspace/benchmark/darknetz/ta/network_TA.c:42
    13fc:	edc4 da17 	vstr	s27, [r4, #92]	; 0x5c
/workspace/benchmark/darknetz/ta/network_TA.c:43
    1400:	ed84 da18 	vstr	s26, [r4, #96]	; 0x60
/workspace/benchmark/darknetz/ta/network_TA.c:44
    1404:	edc4 ca19 	vstr	s25, [r4, #100]	; 0x64
/workspace/benchmark/darknetz/ta/network_TA.c:51
    1408:	ed84 ca23 	vstr	s24, [r4, #140]	; 0x8c
/workspace/benchmark/darknetz/ta/network_TA.c:52
    140c:	edc4 ba24 	vstr	s23, [r4, #144]	; 0x90
/workspace/benchmark/darknetz/ta/network_TA.c:53
    1410:	f8c4 3094 	str.w	r3, [r4, #148]	; 0x94
/workspace/benchmark/darknetz/ta/network_TA.c:31
    1414:	f8c4 00d0 	str.w	r0, [r4, #208]	; 0xd0
/workspace/benchmark/darknetz/ta/network_TA.c:36
    1418:	f8c4 803c 	str.w	r8, [r4, #60]	; 0x3c
/workspace/benchmark/darknetz/ta/network_TA.c:37
    141c:	6767      	str	r7, [r4, #116]	; 0x74
/workspace/benchmark/darknetz/ta/network_TA.c:38
    141e:	6066      	str	r6, [r4, #4]
/workspace/benchmark/darknetz/ta/network_TA.c:54
    1420:	ed84 ba35 	vstr	s22, [r4, #212]	; 0xd4
/workspace/benchmark/darknetz/ta/network_TA.c:60
    1424:	9b20      	ldr	r3, [sp, #128]	; 0x80
/workspace/benchmark/darknetz/ta/network_TA.c:55
    1426:	edc4 aa26 	vstr	s21, [r4, #152]	; 0x98
/workspace/benchmark/darknetz/ta/network_TA.c:56
    142a:	ed84 aa27 	vstr	s20, [r4, #156]	; 0x9c
/workspace/benchmark/darknetz/ta/network_TA.c:57
    142e:	edc4 9a29 	vstr	s19, [r4, #164]	; 0xa4
/workspace/benchmark/darknetz/ta/network_TA.c:58
    1432:	ed84 9a28 	vstr	s18, [r4, #160]	; 0xa0
/workspace/benchmark/darknetz/ta/network_TA.c:59
    1436:	edc4 8a2a 	vstr	s17, [r4, #168]	; 0xa8
/workspace/benchmark/darknetz/ta/network_TA.c:60
    143a:	6563      	str	r3, [r4, #84]	; 0x54
/workspace/benchmark/darknetz/ta/network_TA.c:61
    143c:	ed84 8a0e 	vstr	s16, [r4, #56]	; 0x38
/workspace/benchmark/darknetz/ta/network_TA.c:62
    1440:	9b21      	ldr	r3, [sp, #132]	; 0x84
/workspace/benchmark/darknetz/ta/network_TA.c:66
    1442:	ecbd 8b10 	vpop	{d8-d15}
/workspace/benchmark/darknetz/ta/network_TA.c:62
    1446:	6463      	str	r3, [r4, #68]	; 0x44
/workspace/benchmark/darknetz/ta/network_TA.c:63
    1448:	2300      	movs	r3, #0
    144a:	f8c4 30d8 	str.w	r3, [r4, #216]	; 0xd8
/workspace/benchmark/darknetz/ta/network_TA.c:66
    144e:	e8bd 81f0 	ldmia.w	sp!, {r4, r5, r6, r7, r8, pc}
    1452:	bf00      	nop
    1454:	0000ed56 	.word	0x0000ed56

00001458 <update_network_TA>:
update_network_TA():
/workspace/benchmark/darknetz/ta/network_TA.c:125
    1458:	b084      	sub	sp, #16
    145a:	e92d 47f0 	stmdb	sp!, {r4, r5, r6, r7, r8, r9, sl, lr}
/workspace/benchmark/darknetz/ta/network_TA.c:127
    145e:	2700      	movs	r7, #0
    1460:	f8df 8070 	ldr.w	r8, [pc, #112]	; 14d4 <update_network_TA+0x7c>
/workspace/benchmark/darknetz/ta/network_TA.c:125
    1464:	f5ad 6dbf 	sub.w	sp, sp, #1528	; 0x5f8
/workspace/benchmark/darknetz/ta/network_TA.c:128
    1468:	f44f 793c 	mov.w	r9, #752	; 0x2f0
/workspace/benchmark/darknetz/ta/network_TA.c:125
    146c:	f50d 64c3 	add.w	r4, sp, #1560	; 0x618
/workspace/benchmark/darknetz/ta/network_TA.c:127
    1470:	44f8      	add	r8, pc
/workspace/benchmark/darknetz/ta/network_TA.c:128
    1472:	aec2      	add	r6, sp, #776	; 0x308
/workspace/benchmark/darknetz/ta/network_TA.c:125
    1474:	e884 000f 	stmia.w	r4, {r0, r1, r2, r3}
/workspace/benchmark/darknetz/ta/network_TA.c:127 (discriminator 1)
    1478:	f8d8 3000 	ldr.w	r3, [r8]
    147c:	429f      	cmp	r7, r3
    147e:	db05      	blt.n	148c <update_network_TA+0x34>
/workspace/benchmark/darknetz/ta/network_TA.c:133
    1480:	f50d 6dbf 	add.w	sp, sp, #1528	; 0x5f8
    1484:	e8bd 47f0 	ldmia.w	sp!, {r4, r5, r6, r7, r8, r9, sl, lr}
    1488:	b004      	add	sp, #16
    148a:	4770      	bx	lr
/workspace/benchmark/darknetz/ta/network_TA.c:128
    148c:	f8d8 4018 	ldr.w	r4, [r8, #24]
    1490:	f44f 723c 	mov.w	r2, #752	; 0x2f0
    1494:	4630      	mov	r0, r6
    1496:	fb09 4407 	mla	r4, r9, r7, r4
    149a:	4621      	mov	r1, r4
    149c:	f00b f9b0 	bl	c800 <memcpy>
    14a0:	f8d4 a014 	ldr.w	sl, [r4, #20]
/workspace/benchmark/darknetz/ta/network_TA.c:129
    14a4:	f1ba 0f00 	cmp.w	sl, #0
    14a8:	d011      	beq.n	14ce <update_network_TA+0x76>
/workspace/benchmark/darknetz/ta/network_TA.c:130
    14aa:	f50d 65c3 	add.w	r5, sp, #1560	; 0x618
    14ae:	acb8      	add	r4, sp, #736	; 0x2e0
    14b0:	cd0f      	ldmia	r5!, {r0, r1, r2, r3}
    14b2:	c40f      	stmia	r4!, {r0, r1, r2, r3}
    14b4:	cd0f      	ldmia	r5!, {r0, r1, r2, r3}
    14b6:	c40f      	stmia	r4!, {r0, r1, r2, r3}
    14b8:	f44f 7238 	mov.w	r2, #736	; 0x2e0
    14bc:	a9c6      	add	r1, sp, #792	; 0x318
    14be:	4668      	mov	r0, sp
    14c0:	682b      	ldr	r3, [r5, #0]
    14c2:	6023      	str	r3, [r4, #0]
    14c4:	f00b f99c 	bl	c800 <memcpy>
    14c8:	e896 000f 	ldmia.w	r6, {r0, r1, r2, r3}
    14cc:	47d0      	blx	sl
/workspace/benchmark/darknetz/ta/network_TA.c:127 (discriminator 2)
    14ce:	3701      	adds	r7, #1
    14d0:	e7d2      	b.n	1478 <update_network_TA+0x20>
    14d2:	bf00      	nop
    14d4:	0000ec3c 	.word	0x0000ec3c

000014d8 <calc_network_cost_TA>:
calc_network_cost_TA():
/workspace/benchmark/darknetz/ta/network_TA.c:141
    14d8:	4b16      	ldr	r3, [pc, #88]	; (1534 <calc_network_cost_TA+0x5c>)
/workspace/benchmark/darknetz/ta/network_TA.c:137
    14da:	b530      	push	{r4, r5, lr}
/workspace/benchmark/darknetz/ta/network_TA.c:142
    14dc:	f44f 753c 	mov.w	r5, #752	; 0x2f0
/workspace/benchmark/darknetz/ta/network_TA.c:141
    14e0:	447b      	add	r3, pc
/workspace/benchmark/darknetz/ta/network_TA.c:139
    14e2:	ed9f 7a13 	vldr	s14, [pc, #76]	; 1530 <calc_network_cost_TA+0x58>
/workspace/benchmark/darknetz/ta/network_TA.c:141
    14e6:	6818      	ldr	r0, [r3, #0]
/workspace/benchmark/darknetz/ta/network_TA.c:142
    14e8:	699c      	ldr	r4, [r3, #24]
/workspace/benchmark/darknetz/ta/network_TA.c:140
    14ea:	2300      	movs	r3, #0
/workspace/benchmark/darknetz/ta/network_TA.c:141
    14ec:	461a      	mov	r2, r3
/workspace/benchmark/darknetz/ta/network_TA.c:141 (discriminator 1)
    14ee:	4282      	cmp	r2, r0
    14f0:	db12      	blt.n	1518 <calc_network_cost_TA+0x40>
/workspace/benchmark/darknetz/ta/network_TA.c:147
    14f2:	ee07 3a90 	vmov	s15, r3
    14f6:	4b10      	ldr	r3, [pc, #64]	; (1538 <calc_network_cost_TA+0x60>)
    14f8:	eef8 7ae7 	vcvt.f32.s32	s15, s15
    14fc:	447b      	add	r3, pc
    14fe:	f8d3 20d0 	ldr.w	r2, [r3, #208]	; 0xd0
    1502:	eec7 6a27 	vdiv.f32	s13, s14, s15
    1506:	edc2 6a00 	vstr	s13, [r2]
/workspace/benchmark/darknetz/ta/network_TA.c:148
    150a:	edd3 7a37 	vldr	s15, [r3, #220]	; 0xdc
    150e:	ee77 7aa6 	vadd.f32	s15, s15, s13
    1512:	edc3 7a37 	vstr	s15, [r3, #220]	; 0xdc
    1516:	bd30      	pop	{r4, r5, pc}
/workspace/benchmark/darknetz/ta/network_TA.c:142
    1518:	fb05 4102 	mla	r1, r5, r2, r4
    151c:	f8d1 118c 	ldr.w	r1, [r1, #396]	; 0x18c
    1520:	b121      	cbz	r1, 152c <calc_network_cost_TA+0x54>
/workspace/benchmark/darknetz/ta/network_TA.c:143
    1522:	edd1 7a00 	vldr	s15, [r1]
/workspace/benchmark/darknetz/ta/network_TA.c:144
    1526:	3301      	adds	r3, #1
/workspace/benchmark/darknetz/ta/network_TA.c:143
    1528:	ee37 7a27 	vadd.f32	s14, s14, s15
/workspace/benchmark/darknetz/ta/network_TA.c:141 (discriminator 2)
    152c:	3201      	adds	r2, #1
    152e:	e7de      	b.n	14ee <calc_network_cost_TA+0x16>
    1530:	00000000 	.word	0x00000000
    1534:	0000ebcc 	.word	0x0000ebcc
    1538:	0000ebb0 	.word	0x0000ebb0

0000153c <forward_network_TA>:
forward_network_TA():
/workspace/benchmark/darknetz/ta/network_TA.c:69
    153c:	e92d 4ff0 	stmdb	sp!, {r4, r5, r6, r7, r8, r9, sl, fp, lr}
/workspace/benchmark/darknetz/ta/network_TA.c:70
    1540:	4c54      	ldr	r4, [pc, #336]	; (1694 <forward_network_TA+0x158>)
/workspace/benchmark/darknetz/ta/network_TA.c:69
    1542:	f8df 9154 	ldr.w	r9, [pc, #340]	; 1698 <forward_network_TA+0x15c>
/workspace/benchmark/darknetz/ta/network_TA.c:70
    1546:	447c      	add	r4, pc
/workspace/benchmark/darknetz/ta/network_TA.c:69
    1548:	ed2d 8b02 	vpush	{d8}
    154c:	44f9      	add	r9, pc
    154e:	f2ad 6dc4 	subw	sp, sp, #1732	; 0x6c4
/workspace/benchmark/darknetz/ta/network_TA.c:70
    1552:	f8d4 30e0 	ldr.w	r3, [r4, #224]	; 0xe0
    1556:	b9e3      	cbnz	r3, 1592 <forward_network_TA+0x56>
/workspace/benchmark/darknetz/ta/network_TA.c:72
    1558:	69a3      	ldr	r3, [r4, #24]
    155a:	6b1a      	ldr	r2, [r3, #48]	; 0x30
    155c:	6a5d      	ldr	r5, [r3, #36]	; 0x24
    155e:	4355      	muls	r5, r2
    1560:	00ad      	lsls	r5, r5, #2
    1562:	4628      	mov	r0, r5
    1564:	f004 f86a 	bl	563c <malloc>
    1568:	f8c4 00e4 	str.w	r0, [r4, #228]	; 0xe4
/workspace/benchmark/darknetz/ta/network_TA.c:73
    156c:	4628      	mov	r0, r5
    156e:	f004 f865 	bl	563c <malloc>
/workspace/benchmark/darknetz/ta/network_TA.c:75
    1572:	f8d4 10d8 	ldr.w	r1, [r4, #216]	; 0xd8
/workspace/benchmark/darknetz/ta/network_TA.c:73
    1576:	f8c4 00e8 	str.w	r0, [r4, #232]	; 0xe8
/workspace/benchmark/darknetz/ta/network_TA.c:75
    157a:	b151      	cbz	r1, 1592 <forward_network_TA+0x56>
/workspace/benchmark/darknetz/ta/network_TA.c:76
    157c:	4847      	ldr	r0, [pc, #284]	; (169c <forward_network_TA+0x160>)
    157e:	4478      	add	r0, pc
    1580:	f005 f83f 	bl	6602 <printf>
/workspace/benchmark/darknetz/ta/network_TA.c:77
    1584:	f8d4 10d8 	ldr.w	r1, [r4, #216]	; 0xd8
    1588:	2001      	movs	r0, #1
    158a:	f004 f861 	bl	5650 <calloc>
    158e:	f8c4 00c4 	str.w	r0, [r4, #196]	; 0xc4
/workspace/benchmark/darknetz/ta/network_TA.c:81
    1592:	4c43      	ldr	r4, [pc, #268]	; (16a0 <forward_network_TA+0x164>)
/workspace/benchmark/darknetz/ta/network_TA.c:83
    1594:	2600      	movs	r6, #0
/workspace/benchmark/darknetz/ta/network_TA.c:91
    1596:	f8df a10c 	ldr.w	sl, [pc, #268]	; 16a4 <forward_network_TA+0x168>
/workspace/benchmark/darknetz/ta/network_TA.c:81
    159a:	447c      	add	r4, pc
/workspace/benchmark/darknetz/ta/network_TA.c:88
    159c:	ed9f 8a3c 	vldr	s16, [pc, #240]	; 1690 <forward_network_TA+0x154>
/workspace/benchmark/darknetz/ta/network_TA.c:91
    15a0:	44fa      	add	sl, pc
/workspace/benchmark/darknetz/ta/network_TA.c:81
    15a2:	f8d4 30e0 	ldr.w	r3, [r4, #224]	; 0xe0
    15a6:	3301      	adds	r3, #1
    15a8:	f8c4 30e0 	str.w	r3, [r4, #224]	; 0xe0
/workspace/benchmark/darknetz/ta/network_TA.c:83 (discriminator 1)
    15ac:	6823      	ldr	r3, [r4, #0]
    15ae:	429e      	cmp	r6, r3
    15b0:	db07      	blt.n	15c2 <forward_network_TA+0x86>
/workspace/benchmark/darknetz/ta/network_TA.c:121
    15b2:	f20d 6dc4 	addw	sp, sp, #1732	; 0x6c4
    15b6:	ecbd 8b02 	vpop	{d8}
    15ba:	e8bd 4ff0 	ldmia.w	sp!, {r4, r5, r6, r7, r8, r9, sl, fp, lr}
/workspace/benchmark/darknetz/ta/network_TA.c:120
    15be:	f7ff bf8b 	b.w	14d8 <calc_network_cost_TA>
/workspace/benchmark/darknetz/ta/network_TA.c:85
    15c2:	f44f 723c 	mov.w	r2, #752	; 0x2f0
    15c6:	f8d4 8018 	ldr.w	r8, [r4, #24]
    15ca:	aff4      	add	r7, sp, #976	; 0x3d0
/workspace/benchmark/darknetz/ta/network_TA.c:84
    15cc:	f8c4 60cc 	str.w	r6, [r4, #204]	; 0xcc
/workspace/benchmark/darknetz/ta/network_TA.c:85
    15d0:	4638      	mov	r0, r7
    15d2:	fb02 f506 	mul.w	r5, r2, r6
    15d6:	eb08 0b05 	add.w	fp, r8, r5
    15da:	4659      	mov	r1, fp
    15dc:	f00b f910 	bl	c800 <memcpy>
    15e0:	f858 3005 	ldr.w	r3, [r8, r5]
    15e4:	f8db 11d0 	ldr.w	r1, [fp, #464]	; 0x1d0
    15e8:	93f1      	str	r3, [sp, #964]	; 0x3c4
    15ea:	f8db 300c 	ldr.w	r3, [fp, #12]
    15ee:	93f2      	str	r3, [sp, #968]	; 0x3c8
    15f0:	f8db 30a4 	ldr.w	r3, [fp, #164]	; 0xa4
    15f4:	f8db 8034 	ldr.w	r8, [fp, #52]	; 0x34
    15f8:	93f3      	str	r3, [sp, #972]	; 0x3cc
    15fa:	f8db 51d4 	ldr.w	r5, [fp, #468]	; 0x1d4
/workspace/benchmark/darknetz/ta/network_TA.c:87
    15fe:	b141      	cbz	r1, 1612 <forward_network_TA+0xd6>
/workspace/benchmark/darknetz/ta/network_TA.c:88
    1600:	f8db 0024 	ldr.w	r0, [fp, #36]	; 0x24
    1604:	2201      	movs	r2, #1
    1606:	eeb0 0a48 	vmov.f32	s0, s16
    160a:	fb00 f008 	mul.w	r0, r0, r8
    160e:	f7fe fd07 	bl	20 <fill_cpu_TA>
/workspace/benchmark/darknetz/ta/network_TA.c:91
    1612:	22dc      	movs	r2, #220	; 0xdc
    1614:	4651      	mov	r1, sl
    1616:	a8b8      	add	r0, sp, #736	; 0x2e0
    1618:	f00b f8f2 	bl	c800 <memcpy>
    161c:	f44f 7238 	mov.w	r2, #736	; 0x2e0
    1620:	a9f8      	add	r1, sp, #992	; 0x3e0
    1622:	4668      	mov	r0, sp
    1624:	f00b f8ec 	bl	c800 <memcpy>
    1628:	e897 000f 	ldmia.w	r7, {r0, r1, r2, r3}
    162c:	9ff2      	ldr	r7, [sp, #968]	; 0x3c8
    162e:	47b8      	blx	r7
/workspace/benchmark/darknetz/ta/network_TA.c:93
    1630:	4b1d      	ldr	r3, [pc, #116]	; (16a8 <forward_network_TA+0x16c>)
    1632:	f859 3003 	ldr.w	r3, [r9, r3]
    1636:	681b      	ldr	r3, [r3, #0]
    1638:	2b01      	cmp	r3, #1
    163a:	d108      	bne.n	164e <forward_network_TA+0x112>
/workspace/benchmark/darknetz/ta/network_TA.c:94
    163c:	f8da 2004 	ldr.w	r2, [sl, #4]
    1640:	4629      	mov	r1, r5
    1642:	481a      	ldr	r0, [pc, #104]	; (16ac <forward_network_TA+0x170>)
    1644:	4478      	add	r0, pc
    1646:	fb02 f208 	mul.w	r2, r2, r8
    164a:	f000 fb9f 	bl	1d8c <summary_array>
/workspace/benchmark/darknetz/ta/network_TA.c:97
    164e:	4b18      	ldr	r3, [pc, #96]	; (16b0 <forward_network_TA+0x174>)
/workspace/benchmark/darknetz/ta/network_TA.c:99
    1650:	9af3      	ldr	r2, [sp, #972]	; 0x3cc
/workspace/benchmark/darknetz/ta/network_TA.c:97
    1652:	447b      	add	r3, pc
    1654:	f8c3 50b8 	str.w	r5, [r3, #184]	; 0xb8
/workspace/benchmark/darknetz/ta/network_TA.c:99
    1658:	b10a      	cbz	r2, 165e <forward_network_TA+0x122>
/workspace/benchmark/darknetz/ta/network_TA.c:100
    165a:	f8c3 50bc 	str.w	r5, [r3, #188]	; 0xbc
/workspace/benchmark/darknetz/ta/network_TA.c:104
    165e:	f8df b054 	ldr.w	fp, [pc, #84]	; 16b4 <forward_network_TA+0x178>
    1662:	44fb      	add	fp, pc
    1664:	f8db 70c8 	ldr.w	r7, [fp, #200]	; 0xc8
    1668:	b10f      	cbz	r7, 166e <forward_network_TA+0x132>
/workspace/benchmark/darknetz/ta/network_TA.c:83
    166a:	3601      	adds	r6, #1
    166c:	e79e      	b.n	15ac <forward_network_TA+0x70>
/workspace/benchmark/darknetz/ta/network_TA.c:104 (discriminator 1)
    166e:	9bf1      	ldr	r3, [sp, #964]	; 0x3c4
    1670:	2b04      	cmp	r3, #4
    1672:	d1fa      	bne.n	166a <forward_network_TA+0x12e>
/workspace/benchmark/darknetz/ta/network_TA.c:105
    1674:	ea4f 0088 	mov.w	r0, r8, lsl #2
    1678:	f003 ffe0 	bl	563c <malloc>
    167c:	f8cb 00ec 	str.w	r0, [fp, #236]	; 0xec
/workspace/benchmark/darknetz/ta/network_TA.c:106 (discriminator 1)
    1680:	4547      	cmp	r7, r8
    1682:	daf2      	bge.n	166a <forward_network_TA+0x12e>
/workspace/benchmark/darknetz/ta/network_TA.c:107 (discriminator 3)
    1684:	f855 3b04 	ldr.w	r3, [r5], #4
/workspace/benchmark/darknetz/ta/network_TA.c:106 (discriminator 3)
    1688:	3701      	adds	r7, #1
/workspace/benchmark/darknetz/ta/network_TA.c:107 (discriminator 3)
    168a:	f840 3b04 	str.w	r3, [r0], #4
    168e:	e7f7      	b.n	1680 <forward_network_TA+0x144>
    1690:	00000000 	.word	0x00000000
    1694:	0000eb66 	.word	0x0000eb66
    1698:	0000d884 	.word	0x0000d884
    169c:	0000bb30 	.word	0x0000bb30
    16a0:	0000eb12 	.word	0x0000eb12
    16a4:	0000eb0c 	.word	0x0000eb0c
    16a8:	00000010 	.word	0x00000010
    16ac:	0000ba7e 	.word	0x0000ba7e
    16b0:	0000ea5a 	.word	0x0000ea5a
    16b4:	0000ea4a 	.word	0x0000ea4a

000016b8 <calc_network_loss_TA>:
calc_network_loss_TA():
/workspace/benchmark/darknetz/ta/network_TA.c:154
    16b8:	4b2b      	ldr	r3, [pc, #172]	; (1768 <calc_network_loss_TA+0xb0>)
    16ba:	4341      	muls	r1, r0
    16bc:	ee07 1a90 	vmov	s15, r1
/workspace/benchmark/darknetz/ta/network_TA.c:153
    16c0:	b570      	push	{r4, r5, r6, lr}
/workspace/benchmark/darknetz/ta/network_TA.c:154
    16c2:	447b      	add	r3, pc
    16c4:	eef8 7ae7 	vcvt.f32.s32	s15, s15
/workspace/benchmark/darknetz/ta/network_TA.c:153
    16c8:	b08e      	sub	sp, #56	; 0x38
/workspace/benchmark/darknetz/ta/network_TA.c:154
    16ca:	ed93 7a37 	vldr	s14, [r3, #220]	; 0xdc
/workspace/benchmark/darknetz/ta/network_TA.c:156
    16ce:	4b27      	ldr	r3, [pc, #156]	; (176c <calc_network_loss_TA+0xb4>)
    16d0:	447b      	add	r3, pc
/workspace/benchmark/darknetz/ta/network_TA.c:154
    16d2:	ee87 0a27 	vdiv.f32	s0, s14, s15
/workspace/benchmark/darknetz/ta/network_TA.c:156
    16d6:	eeff 7a00 	vmov.f32	s15, #240	; 0xbf800000 -1.0
    16da:	ed93 7a00 	vldr	s14, [r3]
    16de:	eeb4 7a67 	vcmp.f32	s14, s15
    16e2:	eef1 fa10 	vmrs	APSR_nzcv, fpscr
    16e6:	d101      	bne.n	16ec <calc_network_loss_TA+0x34>
/workspace/benchmark/darknetz/ta/network_TA.c:156 (discriminator 1)
    16e8:	ed83 0a00 	vstr	s0, [r3]
/workspace/benchmark/darknetz/ta/network_TA.c:157
    16ec:	4e20      	ldr	r6, [pc, #128]	; (1770 <calc_network_loss_TA+0xb8>)
    16ee:	eeb7 7ac0 	vcvt.f64.f32	d7, s0
    16f2:	ed9f 5b19 	vldr	d5, [pc, #100]	; 1758 <calc_network_loss_TA+0xa0>
/workspace/benchmark/darknetz/ta/network_TA.c:161
    16f6:	ac04      	add	r4, sp, #16
/workspace/benchmark/darknetz/ta/network_TA.c:157
    16f8:	447e      	add	r6, pc
/workspace/benchmark/darknetz/ta/network_TA.c:161
    16fa:	4620      	mov	r0, r4
/workspace/benchmark/darknetz/ta/network_TA.c:162
    16fc:	ad09      	add	r5, sp, #36	; 0x24
/workspace/benchmark/darknetz/ta/network_TA.c:161
    16fe:	2105      	movs	r1, #5
/workspace/benchmark/darknetz/ta/network_TA.c:157
    1700:	ed96 6a00 	vldr	s12, [r6]
    1704:	ee27 7b05 	vmul.f64	d7, d7, d5
    1708:	ed9f 5b15 	vldr	d5, [pc, #84]	; 1760 <calc_network_loss_TA+0xa8>
    170c:	eeb7 6ac6 	vcvt.f64.f32	d6, s12
    1710:	ee06 7b05 	vmla.f64	d7, d6, d5
    1714:	eeb7 7bc7 	vcvt.f32.f64	s14, d7
    1718:	ed86 7a00 	vstr	s14, [r6]
/workspace/benchmark/darknetz/ta/network_TA.c:161
    171c:	f7ff fa65 	bl	bea <ftoa>
/workspace/benchmark/darknetz/ta/network_TA.c:162
    1720:	4628      	mov	r0, r5
    1722:	ed96 0a00 	vldr	s0, [r6]
    1726:	2105      	movs	r1, #5
    1728:	f7ff fa5f 	bl	bea <ftoa>
/workspace/benchmark/darknetz/ta/network_TA.c:163
    172c:	4b11      	ldr	r3, [pc, #68]	; (1774 <calc_network_loss_TA+0xbc>)
    172e:	4812      	ldr	r0, [pc, #72]	; (1778 <calc_network_loss_TA+0xc0>)
    1730:	2202      	movs	r2, #2
    1732:	9502      	str	r5, [sp, #8]
    1734:	447b      	add	r3, pc
    1736:	9401      	str	r4, [sp, #4]
    1738:	21a3      	movs	r1, #163	; 0xa3
    173a:	9300      	str	r3, [sp, #0]
    173c:	4478      	add	r0, pc
    173e:	2301      	movs	r3, #1
    1740:	f004 fa6e 	bl	5c20 <trace_printf>
/workspace/benchmark/darknetz/ta/network_TA.c:164
    1744:	4b0d      	ldr	r3, [pc, #52]	; (177c <calc_network_loss_TA+0xc4>)
    1746:	2200      	movs	r2, #0
    1748:	447b      	add	r3, pc
    174a:	f8c3 20dc 	str.w	r2, [r3, #220]	; 0xdc
/workspace/benchmark/darknetz/ta/network_TA.c:165
    174e:	b00e      	add	sp, #56	; 0x38
    1750:	bd70      	pop	{r4, r5, r6, pc}
    1752:	bf00      	nop
    1754:	f3af 8000 	nop.w
    1758:	9999999a 	.word	0x9999999a
    175c:	3fb99999 	.word	0x3fb99999
    1760:	cccccccd 	.word	0xcccccccd
    1764:	3feccccc 	.word	0x3feccccc
    1768:	0000e9ea 	.word	0x0000e9ea
    176c:	0000e930 	.word	0x0000e930
    1770:	0000e908 	.word	0x0000e908
    1774:	0000b9a9 	.word	0x0000b9a9
    1778:	0000b95d 	.word	0x0000b95d
    177c:	0000e964 	.word	0x0000e964

00001780 <backward_network_TA>:
backward_network_TA():
/workspace/benchmark/darknetz/ta/network_TA.c:174
    1780:	4b52      	ldr	r3, [pc, #328]	; (18cc <backward_network_TA+0x14c>)
/workspace/benchmark/darknetz/ta/network_TA.c:171
    1782:	e92d 4ff0 	stmdb	sp!, {r4, r5, r6, r7, r8, r9, sl, fp, lr}
    1786:	f44f 753c 	mov.w	r5, #752	; 0x2f0
/workspace/benchmark/darknetz/ta/network_TA.c:174
    178a:	447b      	add	r3, pc
/workspace/benchmark/darknetz/ta/network_TA.c:171
    178c:	ed2d 8b02 	vpush	{d8}
    1790:	f2ad 6dc4 	subw	sp, sp, #1732	; 0x6c4
/workspace/benchmark/darknetz/ta/network_TA.c:175
    1794:	4f4e      	ldr	r7, [pc, #312]	; (18d0 <backward_network_TA+0x150>)
/workspace/benchmark/darknetz/ta/network_TA.c:174
    1796:	681c      	ldr	r4, [r3, #0]
/workspace/benchmark/darknetz/ta/network_TA.c:183
    1798:	ed9f 8a4b 	vldr	s16, [pc, #300]	; 18c8 <backward_network_TA+0x148>
/workspace/benchmark/darknetz/ta/network_TA.c:175
    179c:	447f      	add	r7, pc
/workspace/benchmark/darknetz/ta/network_TA.c:174
    179e:	3c01      	subs	r4, #1
/workspace/benchmark/darknetz/ta/network_TA.c:171
    17a0:	90f2      	str	r0, [sp, #968]	; 0x3c8
    17a2:	4365      	muls	r5, r4
    17a4:	f5a5 753c 	sub.w	r5, r5, #752	; 0x2f0
/workspace/benchmark/darknetz/ta/network_TA.c:174 (discriminator 1)
    17a8:	2c00      	cmp	r4, #0
    17aa:	da05      	bge.n	17b8 <backward_network_TA+0x38>
/workspace/benchmark/darknetz/ta/network_TA.c:207
    17ac:	f20d 6dc4 	addw	sp, sp, #1732	; 0x6c4
    17b0:	ecbd 8b02 	vpop	{d8}
    17b4:	e8bd 8ff0 	ldmia.w	sp!, {r4, r5, r6, r7, r8, r9, sl, fp, pc}
/workspace/benchmark/darknetz/ta/network_TA.c:175
    17b8:	69bb      	ldr	r3, [r7, #24]
    17ba:	f505 783c 	add.w	r8, r5, #752	; 0x2f0
    17be:	f44f 723c 	mov.w	r2, #752	; 0x2f0
    17c2:	a8f4      	add	r0, sp, #976	; 0x3d0
    17c4:	eb03 0608 	add.w	r6, r3, r8
    17c8:	93f0      	str	r3, [sp, #960]	; 0x3c0
    17ca:	4631      	mov	r1, r6
    17cc:	f00b f818 	bl	c800 <memcpy>
    17d0:	9bf0      	ldr	r3, [sp, #960]	; 0x3c0
    17d2:	f8d6 21d0 	ldr.w	r2, [r6, #464]	; 0x1d0
    17d6:	92f0      	str	r2, [sp, #960]	; 0x3c0
    17d8:	f8d6 21d4 	ldr.w	r2, [r6, #468]	; 0x1d4
    17dc:	92f1      	str	r2, [sp, #964]	; 0x3c4
/workspace/benchmark/darknetz/ta/network_TA.c:177
    17de:	f8d6 214c 	ldr.w	r2, [r6, #332]	; 0x14c
/workspace/benchmark/darknetz/ta/network_TA.c:175
    17e2:	f853 a008 	ldr.w	sl, [r3, r8]
    17e6:	f8d6 b010 	ldr.w	fp, [r6, #16]
    17ea:	f8d6 8024 	ldr.w	r8, [r6, #36]	; 0x24
    17ee:	f8d6 9030 	ldr.w	r9, [r6, #48]	; 0x30
/workspace/benchmark/darknetz/ta/network_TA.c:177
    17f2:	2a00      	cmp	r2, #0
    17f4:	d1da      	bne.n	17ac <backward_network_TA+0x2c>
/workspace/benchmark/darknetz/ta/network_TA.c:178
    17f6:	2c00      	cmp	r4, #0
    17f8:	d145      	bne.n	1886 <backward_network_TA+0x106>
/workspace/benchmark/darknetz/ta/network_TA.c:181
    17fa:	f8d7 10e4 	ldr.w	r1, [r7, #228]	; 0xe4
/workspace/benchmark/darknetz/ta/network_TA.c:179
    17fe:	fb09 fe08 	mul.w	lr, r9, r8
/workspace/benchmark/darknetz/ta/network_TA.c:183
    1802:	f8d7 20e8 	ldr.w	r2, [r7, #232]	; 0xe8
    1806:	4623      	mov	r3, r4
    1808:	98f2      	ldr	r0, [sp, #968]	; 0x3c8
    180a:	460e      	mov	r6, r1
    180c:	4694      	mov	ip, r2
/workspace/benchmark/darknetz/ta/network_TA.c:179 (discriminator 1)
    180e:	4573      	cmp	r3, lr
    1810:	db31      	blt.n	1876 <backward_network_TA+0xf6>
/workspace/benchmark/darknetz/ta/network_TA.c:186
    1812:	4b30      	ldr	r3, [pc, #192]	; (18d4 <backward_network_TA+0x154>)
    1814:	447b      	add	r3, pc
    1816:	f8c3 10b8 	str.w	r1, [r3, #184]	; 0xb8
/workspace/benchmark/darknetz/ta/network_TA.c:187
    181a:	f8c3 20c0 	str.w	r2, [r3, #192]	; 0xc0
/workspace/benchmark/darknetz/ta/network_TA.c:194
    181e:	4e2e      	ldr	r6, [pc, #184]	; (18d8 <backward_network_TA+0x158>)
/workspace/benchmark/darknetz/ta/network_TA.c:195
    1820:	2200      	movs	r2, #0
    1822:	f8cd 251c 	str.w	r2, [sp, #1308]	; 0x51c
    1826:	a8b8      	add	r0, sp, #736	; 0x2e0
    1828:	9af0      	ldr	r2, [sp, #960]	; 0x3c0
/workspace/benchmark/darknetz/ta/network_TA.c:194
    182a:	447e      	add	r6, pc
/workspace/benchmark/darknetz/ta/network_TA.c:195
    182c:	f8cd 25a0 	str.w	r2, [sp, #1440]	; 0x5a0
    1830:	4631      	mov	r1, r6
    1832:	9af1      	ldr	r2, [sp, #964]	; 0x3c4
    1834:	abf4      	add	r3, sp, #976	; 0x3d0
    1836:	f8cd 25a4 	str.w	r2, [sp, #1444]	; 0x5a4
    183a:	22dc      	movs	r2, #220	; 0xdc
    183c:	93f3      	str	r3, [sp, #972]	; 0x3cc
/workspace/benchmark/darknetz/ta/network_TA.c:194
    183e:	f8c6 40cc 	str.w	r4, [r6, #204]	; 0xcc
/workspace/benchmark/darknetz/ta/network_TA.c:195
    1842:	f8cd a3d0 	str.w	sl, [sp, #976]	; 0x3d0
    1846:	f8cd b3e0 	str.w	fp, [sp, #992]	; 0x3e0
    184a:	f8cd 83f4 	str.w	r8, [sp, #1012]	; 0x3f4
    184e:	f8cd 9400 	str.w	r9, [sp, #1024]	; 0x400
    1852:	f00a ffd5 	bl	c800 <memcpy>
    1856:	f44f 7238 	mov.w	r2, #736	; 0x2e0
    185a:	a9f8      	add	r1, sp, #992	; 0x3e0
    185c:	4668      	mov	r0, sp
    185e:	f00a ffcf 	bl	c800 <memcpy>
    1862:	9bf3      	ldr	r3, [sp, #972]	; 0x3cc
    1864:	cb0f      	ldmia	r3, {r0, r1, r2, r3}
    1866:	47d8      	blx	fp
/workspace/benchmark/darknetz/ta/network_TA.c:198
    1868:	f1ba 0f06 	cmp.w	sl, #6
    186c:	d015      	beq.n	189a <backward_network_TA+0x11a>
/workspace/benchmark/darknetz/ta/network_TA.c:174
    186e:	3c01      	subs	r4, #1
    1870:	f5a5 753c 	sub.w	r5, r5, #752	; 0x2f0
    1874:	e798      	b.n	17a8 <backward_network_TA+0x28>
/workspace/benchmark/darknetz/ta/network_TA.c:181 (discriminator 3)
    1876:	ecf0 7a01 	vldmia	r0!, {s15}
/workspace/benchmark/darknetz/ta/network_TA.c:179 (discriminator 3)
    187a:	3301      	adds	r3, #1
/workspace/benchmark/darknetz/ta/network_TA.c:181 (discriminator 3)
    187c:	ece6 7a01 	vstmia	r6!, {s15}
/workspace/benchmark/darknetz/ta/network_TA.c:183 (discriminator 3)
    1880:	ecac 8a01 	vstmia	ip!, {s16}
    1884:	e7c3      	b.n	180e <backward_network_TA+0x8e>
/workspace/benchmark/darknetz/ta/network_TA.c:189
    1886:	442b      	add	r3, r5
    1888:	f8d3 21d0 	ldr.w	r2, [r3, #464]	; 0x1d0
/workspace/benchmark/darknetz/ta/network_TA.c:190
    188c:	f8d3 31d4 	ldr.w	r3, [r3, #468]	; 0x1d4
    1890:	f8c7 30b8 	str.w	r3, [r7, #184]	; 0xb8
/workspace/benchmark/darknetz/ta/network_TA.c:191
    1894:	f8c7 20c0 	str.w	r2, [r7, #192]	; 0xc0
    1898:	e7c1      	b.n	181e <backward_network_TA+0x9e>
/workspace/benchmark/darknetz/ta/network_TA.c:198 (discriminator 1)
    189a:	2c00      	cmp	r4, #0
    189c:	d1e7      	bne.n	186e <backward_network_TA+0xee>
/workspace/benchmark/darknetz/ta/network_TA.c:199
    189e:	fb09 f808 	mul.w	r8, r9, r8
    18a2:	99f1      	ldr	r1, [sp, #964]	; 0x3c4
    18a4:	f8d6 c0e4 	ldr.w	ip, [r6, #228]	; 0xe4
/workspace/benchmark/darknetz/ta/network_TA.c:201
    18a8:	4622      	mov	r2, r4
    18aa:	9bf0      	ldr	r3, [sp, #960]	; 0x3c0
    18ac:	f8d6 00e8 	ldr.w	r0, [r6, #232]	; 0xe8
/workspace/benchmark/darknetz/ta/network_TA.c:199 (discriminator 1)
    18b0:	4542      	cmp	r2, r8
    18b2:	dadc      	bge.n	186e <backward_network_TA+0xee>
/workspace/benchmark/darknetz/ta/network_TA.c:200 (discriminator 3)
    18b4:	f851 6b04 	ldr.w	r6, [r1], #4
/workspace/benchmark/darknetz/ta/network_TA.c:199 (discriminator 3)
    18b8:	3201      	adds	r2, #1
/workspace/benchmark/darknetz/ta/network_TA.c:200 (discriminator 3)
    18ba:	f84c 6b04 	str.w	r6, [ip], #4
/workspace/benchmark/darknetz/ta/network_TA.c:201 (discriminator 3)
    18be:	f853 6b04 	ldr.w	r6, [r3], #4
    18c2:	f840 6b04 	str.w	r6, [r0], #4
    18c6:	e7f3      	b.n	18b0 <backward_network_TA+0x130>
    18c8:	00000000 	.word	0x00000000
    18cc:	0000e922 	.word	0x0000e922
    18d0:	0000e910 	.word	0x0000e910
    18d4:	0000e898 	.word	0x0000e898
    18d8:	0000e882 	.word	0x0000e882
    18dc:	00000000 	.word	0x00000000

000018e0 <diff_private_SGD>:
diff_private_SGD():
/workspace/benchmark/darknetz/ta/diffprivate_TA.c:12
    18e0:	ed9f 0a27 	vldr	s0, [pc, #156]	; 1980 <diff_private_SGD+0xa0>
/workspace/benchmark/darknetz/ta/diffprivate_TA.c:13
    18e4:	4602      	mov	r2, r0
/workspace/benchmark/darknetz/ta/diffprivate_TA.c:6
    18e6:	b570      	push	{r4, r5, r6, lr}
/workspace/benchmark/darknetz/ta/diffprivate_TA.c:13
    18e8:	2300      	movs	r3, #0
/workspace/benchmark/darknetz/ta/diffprivate_TA.c:6
    18ea:	460e      	mov	r6, r1
    18ec:	4604      	mov	r4, r0
    18ee:	ed2d 8b04 	vpush	{d8-d9}
/workspace/benchmark/darknetz/ta/diffprivate_TA.c:13 (discriminator 1)
    18f2:	42b3      	cmp	r3, r6
    18f4:	db28      	blt.n	1948 <diff_private_SGD+0x68>
/workspace/benchmark/darknetz/ta/diffprivate_TA.c:16
    18f6:	eeb7 0ac0 	vcvt.f64.f32	d0, s0
/workspace/benchmark/darknetz/ta/diffprivate_TA.c:18
    18fa:	eef7 8a00 	vmov.f32	s17, #112	; 0x3f800000  1.0
/workspace/benchmark/darknetz/ta/diffprivate_TA.c:16
    18fe:	f7fe fe9e 	bl	63e <ta_sqrt>
    1902:	eeb5 7b00 	vmov.f64	d7, #80	; 0x3e800000  0.250
    1906:	ee20 0b07 	vmul.f64	d0, d0, d7
    190a:	eeb7 8bc0 	vcvt.f32.f64	s16, d0
/workspace/benchmark/darknetz/ta/diffprivate_TA.c:18
    190e:	eeb4 8ae8 	vcmpe.f32	s16, s17
    1912:	eef1 fa10 	vmrs	APSR_nzcv, fpscr
    1916:	d501      	bpl.n	191c <diff_private_SGD+0x3c>
/workspace/benchmark/darknetz/ta/diffprivate_TA.c:19
    1918:	eeb0 8a68 	vmov.f32	s16, s17
/workspace/benchmark/darknetz/ta/diffprivate_TA.c:22
    191c:	ed9f 1b16 	vldr	d1, [pc, #88]	; 1978 <diff_private_SGD+0x98>
    1920:	eeb2 0b04 	vmov.f64	d0, #36	; 0x41200000  10.0
    1924:	f7fe ff9c 	bl	860 <ta_log>
    1928:	ee30 0b00 	vadd.f64	d0, d0, d0
    192c:	f7fe fe87 	bl	63e <ta_sqrt>
    1930:	eef7 9bc0 	vcvt.f32.f64	s19, d0
    1934:	ee88 9a88 	vdiv.f32	s18, s17, s16
/workspace/benchmark/darknetz/ta/diffprivate_TA.c:25
    1938:	eddf 8a11 	vldr	s17, [pc, #68]	; 1980 <diff_private_SGD+0xa0>
/workspace/benchmark/darknetz/ta/diffprivate_TA.c:24
    193c:	2500      	movs	r5, #0
/workspace/benchmark/darknetz/ta/diffprivate_TA.c:24 (discriminator 1)
    193e:	42b5      	cmp	r5, r6
    1940:	db08      	blt.n	1954 <diff_private_SGD+0x74>
/workspace/benchmark/darknetz/ta/diffprivate_TA.c:28
    1942:	ecbd 8b04 	vpop	{d8-d9}
    1946:	bd70      	pop	{r4, r5, r6, pc}
/workspace/benchmark/darknetz/ta/diffprivate_TA.c:14 (discriminator 3)
    1948:	ecf2 7a01 	vldmia	r2!, {s15}
/workspace/benchmark/darknetz/ta/diffprivate_TA.c:13 (discriminator 3)
    194c:	3301      	adds	r3, #1
/workspace/benchmark/darknetz/ta/diffprivate_TA.c:14 (discriminator 3)
    194e:	ee07 0aa7 	vmla.f32	s0, s15, s15
    1952:	e7ce      	b.n	18f2 <diff_private_SGD+0x12>
/workspace/benchmark/darknetz/ta/diffprivate_TA.c:25 (discriminator 3)
    1954:	ed94 8a00 	vldr	s16, [r4]
    1958:	eef0 0a69 	vmov.f32	s1, s19
    195c:	eeb0 0a68 	vmov.f32	s0, s17
/workspace/benchmark/darknetz/ta/diffprivate_TA.c:24 (discriminator 3)
    1960:	3501      	adds	r5, #1
/workspace/benchmark/darknetz/ta/diffprivate_TA.c:25 (discriminator 3)
    1962:	f003 facc 	bl	4efe <rand_normal_TA>
    1966:	ee29 8a08 	vmul.f32	s16, s18, s16
    196a:	ee38 0a00 	vadd.f32	s0, s16, s0
    196e:	eca4 0a01 	vstmia	r4!, {s0}
    1972:	e7e4      	b.n	193e <diff_private_SGD+0x5e>
    1974:	f3af 8000 	nop.w
    1978:	0cef2845 	.word	0x0cef2845
    197c:	40fe8480 	.word	0x40fe8480
    1980:	00000000 	.word	0x00000000

00001984 <make_convolutional_layer_TA_params>:
make_convolutional_layer_TA_params():
/workspace/benchmark/darknetz/ta/darknetp_ta.c:184
    1984:	e92d 4ff0 	stmdb	sp!, {r4, r5, r6, r7, r8, r9, sl, fp, lr}
/workspace/benchmark/darknetz/ta/darknetp_ta.c:191
    1988:	f240 5315 	movw	r3, #1301	; 0x515
/workspace/benchmark/darknetz/ta/darknetp_ta.c:184
    198c:	4c34      	ldr	r4, [pc, #208]	; (1a60 <make_convolutional_layer_TA_params+0xdc>)
    198e:	ed2d 8b02 	vpush	{d8}
    1992:	468c      	mov	ip, r1
    1994:	447c      	add	r4, pc
    1996:	f5ad 7d51 	sub.w	sp, sp, #836	; 0x344
/workspace/benchmark/darknetz/ta/darknetp_ta.c:191
    199a:	4298      	cmp	r0, r3
    199c:	d15b      	bne.n	1a56 <make_convolutional_layer_TA_params+0xd2>
/workspace/benchmark/darknetz/ta/darknetp_ta.c:194
    199e:	6808      	ldr	r0, [r1, #0]
/workspace/benchmark/darknetz/ta/darknetp_ta.c:195
    19a0:	edd1 7a02 	vldr	s15, [r1, #8]
/workspace/benchmark/darknetz/ta/darknetp_ta.c:205
    19a4:	f100 0510 	add.w	r5, r0, #16
/workspace/benchmark/darknetz/ta/darknetp_ta.c:208
    19a8:	f100 0920 	add.w	r9, r0, #32
/workspace/benchmark/darknetz/ta/darknetp_ta.c:200
    19ac:	6883      	ldr	r3, [r0, #8]
    19ae:	9311      	str	r3, [sp, #68]	; 0x44
/workspace/benchmark/darknetz/ta/darknetp_ta.c:201
    19b0:	68c3      	ldr	r3, [r0, #12]
/workspace/benchmark/darknetz/ta/darknetp_ta.c:195
    19b2:	eeb8 8a67 	vcvt.f32.u32	s16, s15
/workspace/benchmark/darknetz/ta/darknetp_ta.c:201
    19b6:	930d      	str	r3, [sp, #52]	; 0x34
/workspace/benchmark/darknetz/ta/darknetp_ta.c:209
    19b8:	6ac3      	ldr	r3, [r0, #44]	; 0x2c
    19ba:	930e      	str	r3, [sp, #56]	; 0x38
/workspace/benchmark/darknetz/ta/darknetp_ta.c:210
    19bc:	6b03      	ldr	r3, [r0, #48]	; 0x30
/workspace/benchmark/darknetz/ta/darknetp_ta.c:198
    19be:	6801      	ldr	r1, [r0, #0]
/workspace/benchmark/darknetz/ta/darknetp_ta.c:199
    19c0:	6842      	ldr	r2, [r0, #4]
/workspace/benchmark/darknetz/ta/darknetp_ta.c:210
    19c2:	930f      	str	r3, [sp, #60]	; 0x3c
/workspace/benchmark/darknetz/ta/darknetp_ta.c:211
    19c4:	6b43      	ldr	r3, [r0, #52]	; 0x34
/workspace/benchmark/darknetz/ta/darknetp_ta.c:215
    19c6:	f8dc 0010 	ldr.w	r0, [ip, #16]
/workspace/benchmark/darknetz/ta/darknetp_ta.c:205
    19ca:	e895 01e0 	ldmia.w	r5, {r5, r6, r7, r8}
/workspace/benchmark/darknetz/ta/darknetp_ta.c:198
    19ce:	9113      	str	r1, [sp, #76]	; 0x4c
/workspace/benchmark/darknetz/ta/darknetp_ta.c:208
    19d0:	e899 0e00 	ldmia.w	r9, {r9, sl, fp}
/workspace/benchmark/darknetz/ta/darknetp_ta.c:199
    19d4:	9212      	str	r2, [sp, #72]	; 0x48
/workspace/benchmark/darknetz/ta/darknetp_ta.c:211
    19d6:	9310      	str	r3, [sp, #64]	; 0x40
/workspace/benchmark/darknetz/ta/darknetp_ta.c:215
    19d8:	f7ff f9a8 	bl	d2c <get_activation_TA>
/workspace/benchmark/darknetz/ta/darknetp_ta.c:217
    19dc:	9b10      	ldr	r3, [sp, #64]	; 0x40
    19de:	eeb0 0a48 	vmov.f32	s0, s16
    19e2:	930b      	str	r3, [sp, #44]	; 0x2c
    19e4:	9b0f      	ldr	r3, [sp, #60]	; 0x3c
    19e6:	930a      	str	r3, [sp, #40]	; 0x28
    19e8:	9b0e      	ldr	r3, [sp, #56]	; 0x38
    19ea:	9501      	str	r5, [sp, #4]
    19ec:	ad14      	add	r5, sp, #80	; 0x50
    19ee:	9309      	str	r3, [sp, #36]	; 0x24
    19f0:	9b0d      	ldr	r3, [sp, #52]	; 0x34
    19f2:	9006      	str	r0, [sp, #24]
    19f4:	4628      	mov	r0, r5
    19f6:	9703      	str	r7, [sp, #12]
    19f8:	9602      	str	r6, [sp, #8]
    19fa:	9300      	str	r3, [sp, #0]
    19fc:	9a12      	ldr	r2, [sp, #72]	; 0x48
    19fe:	9b11      	ldr	r3, [sp, #68]	; 0x44
    1a00:	9913      	ldr	r1, [sp, #76]	; 0x4c
    1a02:	f8cd b020 	str.w	fp, [sp, #32]
    1a06:	f8cd a01c 	str.w	sl, [sp, #28]
    1a0a:	f8cd 9014 	str.w	r9, [sp, #20]
    1a0e:	f8cd 8010 	str.w	r8, [sp, #16]
    1a12:	f002 ffa3 	bl	495c <make_convolutional_layer_TA_new>
/workspace/benchmark/darknetz/ta/darknetp_ta.c:218
    1a16:	4b13      	ldr	r3, [pc, #76]	; (1a64 <make_convolutional_layer_TA_params+0xe0>)
    1a18:	f44f 723c 	mov.w	r2, #752	; 0x2f0
    1a1c:	4629      	mov	r1, r5
    1a1e:	447b      	add	r3, pc
/workspace/benchmark/darknetz/ta/darknetp_ta.c:217
    1a20:	f8d5 72ec 	ldr.w	r7, [r5, #748]	; 0x2ec
/workspace/benchmark/darknetz/ta/darknetp_ta.c:218
    1a24:	681e      	ldr	r6, [r3, #0]
    1a26:	4b10      	ldr	r3, [pc, #64]	; (1a68 <make_convolutional_layer_TA_params+0xe4>)
    1a28:	58e4      	ldr	r4, [r4, r3]
    1a2a:	69a0      	ldr	r0, [r4, #24]
    1a2c:	fb02 0006 	mla	r0, r2, r6, r0
    1a30:	f00a fee6 	bl	c800 <memcpy>
/workspace/benchmark/darknetz/ta/darknetp_ta.c:219
    1a34:	f8d4 30d8 	ldr.w	r3, [r4, #216]	; 0xd8
    1a38:	429f      	cmp	r7, r3
    1a3a:	d901      	bls.n	1a40 <make_convolutional_layer_TA_params+0xbc>
/workspace/benchmark/darknetz/ta/darknetp_ta.c:219 (discriminator 1)
    1a3c:	f8c4 70d8 	str.w	r7, [r4, #216]	; 0xd8
/workspace/benchmark/darknetz/ta/darknetp_ta.c:220
    1a40:	4b0a      	ldr	r3, [pc, #40]	; (1a6c <make_convolutional_layer_TA_params+0xe8>)
/workspace/benchmark/darknetz/ta/darknetp_ta.c:222
    1a42:	2000      	movs	r0, #0
/workspace/benchmark/darknetz/ta/darknetp_ta.c:220
    1a44:	3601      	adds	r6, #1
    1a46:	447b      	add	r3, pc
    1a48:	601e      	str	r6, [r3, #0]
/workspace/benchmark/darknetz/ta/darknetp_ta.c:223
    1a4a:	f50d 7d51 	add.w	sp, sp, #836	; 0x344
    1a4e:	ecbd 8b02 	vpop	{d8}
    1a52:	e8bd 8ff0 	ldmia.w	sp!, {r4, r5, r6, r7, r8, r9, sl, fp, pc}
/workspace/benchmark/darknetz/ta/darknetp_ta.c:192
    1a56:	4801      	ldr	r0, [pc, #4]	; (1a5c <make_convolutional_layer_TA_params+0xd8>)
    1a58:	e7f7      	b.n	1a4a <make_convolutional_layer_TA_params+0xc6>
    1a5a:	bf00      	nop
    1a5c:	ffff0006 	.word	0xffff0006
    1a60:	0000d43c 	.word	0x0000d43c
    1a64:	0000e67e 	.word	0x0000e67e
    1a68:	00000038 	.word	0x00000038
    1a6c:	0000e656 	.word	0x0000e656

00001a70 <make_dropout_layer_TA_params>:
make_dropout_layer_TA_params():
/workspace/benchmark/darknetz/ta/darknetp_ta.c:283
    1a70:	e92d 43f0 	stmdb	sp!, {r4, r5, r6, r7, r8, r9, lr}
/workspace/benchmark/darknetz/ta/darknetp_ta.c:290
    1a74:	f245 5355 	movw	r3, #21845	; 0x5555
/workspace/benchmark/darknetz/ta/darknetp_ta.c:283
    1a78:	4e2f      	ldr	r6, [pc, #188]	; (1b38 <make_dropout_layer_TA_params+0xc8>)
    1a7a:	f5ad 7d41 	sub.w	sp, sp, #772	; 0x304
/workspace/benchmark/darknetz/ta/darknetp_ta.c:290
    1a7e:	4298      	cmp	r0, r3
/workspace/benchmark/darknetz/ta/darknetp_ta.c:283
    1a80:	447e      	add	r6, pc
/workspace/benchmark/darknetz/ta/darknetp_ta.c:290
    1a82:	d155      	bne.n	1b30 <make_dropout_layer_TA_params+0xc0>
/workspace/benchmark/darknetz/ta/darknetp_ta.c:311
    1a84:	4c2d      	ldr	r4, [pc, #180]	; (1b3c <make_dropout_layer_TA_params+0xcc>)
    1a86:	ad04      	add	r5, sp, #16
/workspace/benchmark/darknetz/ta/darknetp_ta.c:293
    1a88:	6808      	ldr	r0, [r1, #0]
/workspace/benchmark/darknetz/ta/darknetp_ta.c:311
    1a8a:	447c      	add	r4, pc
/workspace/benchmark/darknetz/ta/darknetp_ta.c:306
    1a8c:	688a      	ldr	r2, [r1, #8]
/workspace/benchmark/darknetz/ta/darknetp_ta.c:295
    1a8e:	690f      	ldr	r7, [r1, #16]
/workspace/benchmark/darknetz/ta/darknetp_ta.c:296
    1a90:	f8d1 8018 	ldr.w	r8, [r1, #24]
/workspace/benchmark/darknetz/ta/darknetp_ta.c:311
    1a94:	6823      	ldr	r3, [r4, #0]
/workspace/benchmark/darknetz/ta/darknetp_ta.c:297
    1a96:	f8d1 9014 	ldr.w	r9, [r1, #20]
/workspace/benchmark/darknetz/ta/darknetp_ta.c:311
    1a9a:	9302      	str	r3, [sp, #8]
    1a9c:	6903      	ldr	r3, [r0, #16]
    1a9e:	9301      	str	r3, [sp, #4]
    1aa0:	68c3      	ldr	r3, [r0, #12]
    1aa2:	9300      	str	r3, [sp, #0]
    1aa4:	6883      	ldr	r3, [r0, #8]
    1aa6:	ed92 0a00 	vldr	s0, [r2]
    1aaa:	e890 0006 	ldmia.w	r0, {r1, r2}
    1aae:	4628      	mov	r0, r5
    1ab0:	f002 fb86 	bl	41c0 <make_dropout_layer_TA_new>
/workspace/benchmark/darknetz/ta/darknetp_ta.c:313
    1ab4:	6824      	ldr	r4, [r4, #0]
    1ab6:	bb6c      	cbnz	r4, 1b14 <make_dropout_layer_TA_params+0xa4>
/workspace/benchmark/darknetz/ta/darknetp_ta.c:311
    1ab8:	f8d5 01d0 	ldr.w	r0, [r5, #464]	; 0x1d0
    1abc:	463b      	mov	r3, r7
    1abe:	f8d5 11d4 	ldr.w	r1, [r5, #468]	; 0x1d4
/workspace/benchmark/darknetz/ta/darknetp_ta.c:297
    1ac2:	ea4f 0999 	mov.w	r9, r9, lsr #2
    1ac6:	4642      	mov	r2, r8
    1ac8:	4686      	mov	lr, r0
    1aca:	468c      	mov	ip, r1
    1acc:	4627      	mov	r7, r4
/workspace/benchmark/darknetz/ta/darknetp_ta.c:314 (discriminator 1)
    1ace:	454f      	cmp	r7, r9
    1ad0:	db16      	blt.n	1b00 <make_dropout_layer_TA_params+0x90>
/workspace/benchmark/darknetz/ta/darknetp_ta.c:323
    1ad2:	4b1b      	ldr	r3, [pc, #108]	; (1b40 <make_dropout_layer_TA_params+0xd0>)
    1ad4:	f44f 723c 	mov.w	r2, #752	; 0x2f0
    1ad8:	58f3      	ldr	r3, [r6, r3]
    1ada:	f8c5 01d0 	str.w	r0, [r5, #464]	; 0x1d0
    1ade:	f8c5 11d4 	str.w	r1, [r5, #468]	; 0x1d4
    1ae2:	4629      	mov	r1, r5
    1ae4:	699b      	ldr	r3, [r3, #24]
    1ae6:	fb02 3004 	mla	r0, r2, r4, r3
/workspace/benchmark/darknetz/ta/darknetp_ta.c:324
    1aea:	3401      	adds	r4, #1
/workspace/benchmark/darknetz/ta/darknetp_ta.c:323
    1aec:	f00a fe88 	bl	c800 <memcpy>
/workspace/benchmark/darknetz/ta/darknetp_ta.c:324
    1af0:	4b14      	ldr	r3, [pc, #80]	; (1b44 <make_dropout_layer_TA_params+0xd4>)
/workspace/benchmark/darknetz/ta/darknetp_ta.c:326
    1af2:	2000      	movs	r0, #0
/workspace/benchmark/darknetz/ta/darknetp_ta.c:324
    1af4:	447b      	add	r3, pc
    1af6:	601c      	str	r4, [r3, #0]
/workspace/benchmark/darknetz/ta/darknetp_ta.c:327
    1af8:	f50d 7d41 	add.w	sp, sp, #772	; 0x304
    1afc:	e8bd 83f0 	ldmia.w	sp!, {r4, r5, r6, r7, r8, r9, pc}
/workspace/benchmark/darknetz/ta/darknetp_ta.c:315 (discriminator 3)
    1b00:	f853 8b04 	ldr.w	r8, [r3], #4
/workspace/benchmark/darknetz/ta/darknetp_ta.c:314 (discriminator 3)
    1b04:	3701      	adds	r7, #1
/workspace/benchmark/darknetz/ta/darknetp_ta.c:315 (discriminator 3)
    1b06:	f84c 8b04 	str.w	r8, [ip], #4
/workspace/benchmark/darknetz/ta/darknetp_ta.c:316 (discriminator 3)
    1b0a:	f852 8b04 	ldr.w	r8, [r2], #4
    1b0e:	f84e 8b04 	str.w	r8, [lr], #4
    1b12:	e7dc      	b.n	1ace <make_dropout_layer_TA_params+0x5e>
/workspace/benchmark/darknetz/ta/darknetp_ta.c:319
    1b14:	4b0a      	ldr	r3, [pc, #40]	; (1b40 <make_dropout_layer_TA_params+0xd0>)
    1b16:	58f2      	ldr	r2, [r6, r3]
    1b18:	f44f 733c 	mov.w	r3, #752	; 0x2f0
    1b1c:	4363      	muls	r3, r4
    1b1e:	6992      	ldr	r2, [r2, #24]
    1b20:	f5a3 733c 	sub.w	r3, r3, #752	; 0x2f0
    1b24:	4413      	add	r3, r2
    1b26:	f8d3 11d4 	ldr.w	r1, [r3, #468]	; 0x1d4
/workspace/benchmark/darknetz/ta/darknetp_ta.c:320
    1b2a:	f8d3 01d0 	ldr.w	r0, [r3, #464]	; 0x1d0
    1b2e:	e7d0      	b.n	1ad2 <make_dropout_layer_TA_params+0x62>
/workspace/benchmark/darknetz/ta/darknetp_ta.c:291
    1b30:	4800      	ldr	r0, [pc, #0]	; (1b34 <make_dropout_layer_TA_params+0xc4>)
    1b32:	e7e1      	b.n	1af8 <make_dropout_layer_TA_params+0x88>
    1b34:	ffff0006 	.word	0xffff0006
    1b38:	0000d350 	.word	0x0000d350
    1b3c:	0000e612 	.word	0x0000e612
    1b40:	00000038 	.word	0x00000038
    1b44:	0000e5a8 	.word	0x0000e5a8

00001b48 <make_connected_layer_TA_params>:
make_connected_layer_TA_params():
/workspace/benchmark/darknetz/ta/darknetp_ta.c:332
    1b48:	e92d 43f0 	stmdb	sp!, {r4, r5, r6, r7, r8, r9, lr}
/workspace/benchmark/darknetz/ta/darknetp_ta.c:340
    1b4c:	2855      	cmp	r0, #85	; 0x55
/workspace/benchmark/darknetz/ta/darknetp_ta.c:332
    1b4e:	4f17      	ldr	r7, [pc, #92]	; (1bac <make_connected_layer_TA_params+0x64>)
    1b50:	f5ad 7d41 	sub.w	sp, sp, #772	; 0x304
    1b54:	447f      	add	r7, pc
/workspace/benchmark/darknetz/ta/darknetp_ta.c:340
    1b56:	d124      	bne.n	1ba2 <make_connected_layer_TA_params+0x5a>
/workspace/benchmark/darknetz/ta/darknetp_ta.c:344
    1b58:	6808      	ldr	r0, [r1, #0]
/workspace/benchmark/darknetz/ta/darknetp_ta.c:348
    1b5a:	e890 0170 	ldmia.w	r0, {r4, r5, r6, r8}
/workspace/benchmark/darknetz/ta/darknetp_ta.c:349
    1b5e:	f8d0 9010 	ldr.w	r9, [r0, #16]
/workspace/benchmark/darknetz/ta/darknetp_ta.c:353
    1b62:	6888      	ldr	r0, [r1, #8]
    1b64:	f7ff f8e2 	bl	d2c <get_activation_TA>
/workspace/benchmark/darknetz/ta/darknetp_ta.c:355
    1b68:	e88d 0301 	stmia.w	sp, {r0, r8, r9}
    1b6c:	462a      	mov	r2, r5
    1b6e:	ad04      	add	r5, sp, #16
    1b70:	4633      	mov	r3, r6
    1b72:	4621      	mov	r1, r4
    1b74:	4628      	mov	r0, r5
/workspace/benchmark/darknetz/ta/darknetp_ta.c:356
    1b76:	4e0e      	ldr	r6, [pc, #56]	; (1bb0 <make_connected_layer_TA_params+0x68>)
/workspace/benchmark/darknetz/ta/darknetp_ta.c:355
    1b78:	f000 fe29 	bl	27ce <make_connected_layer_TA_new>
/workspace/benchmark/darknetz/ta/darknetp_ta.c:356
    1b7c:	4b0d      	ldr	r3, [pc, #52]	; (1bb4 <make_connected_layer_TA_params+0x6c>)
    1b7e:	447e      	add	r6, pc
    1b80:	f44f 723c 	mov.w	r2, #752	; 0x2f0
    1b84:	4629      	mov	r1, r5
    1b86:	58fb      	ldr	r3, [r7, r3]
    1b88:	6834      	ldr	r4, [r6, #0]
    1b8a:	6998      	ldr	r0, [r3, #24]
    1b8c:	fb02 0004 	mla	r0, r2, r4, r0
/workspace/benchmark/darknetz/ta/darknetp_ta.c:357
    1b90:	3401      	adds	r4, #1
/workspace/benchmark/darknetz/ta/darknetp_ta.c:356
    1b92:	f00a fe35 	bl	c800 <memcpy>
/workspace/benchmark/darknetz/ta/darknetp_ta.c:359
    1b96:	2000      	movs	r0, #0
/workspace/benchmark/darknetz/ta/darknetp_ta.c:357
    1b98:	6034      	str	r4, [r6, #0]
/workspace/benchmark/darknetz/ta/darknetp_ta.c:360
    1b9a:	f50d 7d41 	add.w	sp, sp, #772	; 0x304
    1b9e:	e8bd 83f0 	ldmia.w	sp!, {r4, r5, r6, r7, r8, r9, pc}
/workspace/benchmark/darknetz/ta/darknetp_ta.c:341
    1ba2:	4801      	ldr	r0, [pc, #4]	; (1ba8 <make_connected_layer_TA_params+0x60>)
    1ba4:	e7f9      	b.n	1b9a <make_connected_layer_TA_params+0x52>
    1ba6:	bf00      	nop
    1ba8:	ffff0006 	.word	0xffff0006
    1bac:	0000d27c 	.word	0x0000d27c
    1bb0:	0000e51e 	.word	0x0000e51e
    1bb4:	00000038 	.word	0x00000038

00001bb8 <make_softmax_layer_TA_params>:
make_softmax_layer_TA_params():
/workspace/benchmark/darknetz/ta/darknetp_ta.c:364
    1bb8:	b5f0      	push	{r4, r5, r6, r7, lr}
/workspace/benchmark/darknetz/ta/darknetp_ta.c:372
    1bba:	2815      	cmp	r0, #21
/workspace/benchmark/darknetz/ta/darknetp_ta.c:364
    1bbc:	4f18      	ldr	r7, [pc, #96]	; (1c20 <make_softmax_layer_TA_params+0x68>)
    1bbe:	f5ad 7d43 	sub.w	sp, sp, #780	; 0x30c
    1bc2:	447f      	add	r7, pc
/workspace/benchmark/darknetz/ta/darknetp_ta.c:372
    1bc4:	d127      	bne.n	1c16 <make_softmax_layer_TA_params+0x5e>
/workspace/benchmark/darknetz/ta/darknetp_ta.c:375
    1bc6:	6808      	ldr	r0, [r1, #0]
/workspace/benchmark/darknetz/ta/darknetp_ta.c:386
    1bc8:	ad06      	add	r5, sp, #24
/workspace/benchmark/darknetz/ta/darknetp_ta.c:384
    1bca:	ed91 0a02 	vldr	s0, [r1, #8]
/workspace/benchmark/darknetz/ta/darknetp_ta.c:387
    1bce:	4e15      	ldr	r6, [pc, #84]	; (1c24 <make_softmax_layer_TA_params+0x6c>)
/workspace/benchmark/darknetz/ta/darknetp_ta.c:386
    1bd0:	69c3      	ldr	r3, [r0, #28]
    1bd2:	9304      	str	r3, [sp, #16]
/workspace/benchmark/darknetz/ta/darknetp_ta.c:387
    1bd4:	447e      	add	r6, pc
/workspace/benchmark/darknetz/ta/darknetp_ta.c:386
    1bd6:	eeb8 0a40 	vcvt.f32.u32	s0, s0
    1bda:	6983      	ldr	r3, [r0, #24]
    1bdc:	9303      	str	r3, [sp, #12]
    1bde:	6943      	ldr	r3, [r0, #20]
    1be0:	9302      	str	r3, [sp, #8]
    1be2:	6903      	ldr	r3, [r0, #16]
    1be4:	9301      	str	r3, [sp, #4]
    1be6:	68c3      	ldr	r3, [r0, #12]
    1be8:	9300      	str	r3, [sp, #0]
    1bea:	e890 000e 	ldmia.w	r0, {r1, r2, r3}
    1bee:	4628      	mov	r0, r5
    1bf0:	f000 fc62 	bl	24b8 <make_softmax_layer_TA_new>
/workspace/benchmark/darknetz/ta/darknetp_ta.c:387
    1bf4:	4b0c      	ldr	r3, [pc, #48]	; (1c28 <make_softmax_layer_TA_params+0x70>)
    1bf6:	6834      	ldr	r4, [r6, #0]
    1bf8:	f44f 723c 	mov.w	r2, #752	; 0x2f0
    1bfc:	4629      	mov	r1, r5
    1bfe:	58fb      	ldr	r3, [r7, r3]
    1c00:	6998      	ldr	r0, [r3, #24]
    1c02:	fb02 0004 	mla	r0, r2, r4, r0
/workspace/benchmark/darknetz/ta/darknetp_ta.c:388
    1c06:	3401      	adds	r4, #1
/workspace/benchmark/darknetz/ta/darknetp_ta.c:387
    1c08:	f00a fdfa 	bl	c800 <memcpy>
/workspace/benchmark/darknetz/ta/darknetp_ta.c:390
    1c0c:	2000      	movs	r0, #0
/workspace/benchmark/darknetz/ta/darknetp_ta.c:388
    1c0e:	6034      	str	r4, [r6, #0]
/workspace/benchmark/darknetz/ta/darknetp_ta.c:391
    1c10:	f50d 7d43 	add.w	sp, sp, #780	; 0x30c
    1c14:	bdf0      	pop	{r4, r5, r6, r7, pc}
/workspace/benchmark/darknetz/ta/darknetp_ta.c:373
    1c16:	4801      	ldr	r0, [pc, #4]	; (1c1c <make_softmax_layer_TA_params+0x64>)
    1c18:	e7fa      	b.n	1c10 <make_softmax_layer_TA_params+0x58>
    1c1a:	bf00      	nop
    1c1c:	ffff0006 	.word	0xffff0006
    1c20:	0000d20e 	.word	0x0000d20e
    1c24:	0000e4c8 	.word	0x0000e4c8
    1c28:	00000038 	.word	0x00000038

00001c2c <make_cost_layer_TA_params>:
make_cost_layer_TA_params():
/workspace/benchmark/darknetz/ta/darknetp_ta.c:395
    1c2c:	e92d 43f0 	stmdb	sp!, {r4, r5, r6, r7, r8, r9, lr}
/workspace/benchmark/darknetz/ta/darknetp_ta.c:403
    1c30:	f240 5355 	movw	r3, #1365	; 0x555
/workspace/benchmark/darknetz/ta/darknetp_ta.c:395
    1c34:	f8df 908c 	ldr.w	r9, [pc, #140]	; 1cc4 <make_cost_layer_TA_params+0x98>
    1c38:	ed2d 8b04 	vpush	{d8-d9}
/workspace/benchmark/darknetz/ta/darknetp_ta.c:403
    1c3c:	4298      	cmp	r0, r3
/workspace/benchmark/darknetz/ta/darknetp_ta.c:395
    1c3e:	44f9      	add	r9, pc
    1c40:	f5ad 7d3d 	sub.w	sp, sp, #756	; 0x2f4
/workspace/benchmark/darknetz/ta/darknetp_ta.c:403
    1c44:	d13a      	bne.n	1cbc <make_cost_layer_TA_params+0x90>
/workspace/benchmark/darknetz/ta/darknetp_ta.c:406
    1c46:	680b      	ldr	r3, [r1, #0]
/workspace/benchmark/darknetz/ta/darknetp_ta.c:418
    1c48:	6908      	ldr	r0, [r1, #16]
/workspace/benchmark/darknetz/ta/darknetp_ta.c:422
    1c4a:	4f1f      	ldr	r7, [pc, #124]	; (1cc8 <make_cost_layer_TA_params+0x9c>)
/workspace/benchmark/darknetz/ta/darknetp_ta.c:407
    1c4c:	f8d3 8000 	ldr.w	r8, [r3]
/workspace/benchmark/darknetz/ta/darknetp_ta.c:408
    1c50:	685c      	ldr	r4, [r3, #4]
/workspace/benchmark/darknetz/ta/darknetp_ta.c:422
    1c52:	447f      	add	r7, pc
/workspace/benchmark/darknetz/ta/darknetp_ta.c:410
    1c54:	688b      	ldr	r3, [r1, #8]
/workspace/benchmark/darknetz/ta/darknetp_ta.c:411
    1c56:	ed93 8a00 	vldr	s16, [r3]
/workspace/benchmark/darknetz/ta/darknetp_ta.c:412
    1c5a:	edd3 8a01 	vldr	s17, [r3, #4]
/workspace/benchmark/darknetz/ta/darknetp_ta.c:413
    1c5e:	ed93 9a02 	vldr	s18, [r3, #8]
/workspace/benchmark/darknetz/ta/darknetp_ta.c:414
    1c62:	edd3 9a03 	vldr	s19, [r3, #12]
/workspace/benchmark/darknetz/ta/darknetp_ta.c:418
    1c66:	f001 fe82 	bl	396e <get_cost_type_TA>
/workspace/benchmark/darknetz/ta/darknetp_ta.c:421
    1c6a:	eeb0 0a48 	vmov.f32	s0, s16
    1c6e:	4603      	mov	r3, r0
    1c70:	eef0 0a68 	vmov.f32	s1, s17
    1c74:	4622      	mov	r2, r4
    1c76:	eeb0 1a49 	vmov.f32	s2, s18
    1c7a:	4641      	mov	r1, r8
    1c7c:	eef0 1a69 	vmov.f32	s3, s19
    1c80:	4668      	mov	r0, sp
    1c82:	f001 fee7 	bl	3a54 <make_cost_layer_TA_new>
/workspace/benchmark/darknetz/ta/darknetp_ta.c:422
    1c86:	4b11      	ldr	r3, [pc, #68]	; (1ccc <make_cost_layer_TA_params+0xa0>)
    1c88:	683d      	ldr	r5, [r7, #0]
    1c8a:	f44f 723c 	mov.w	r2, #752	; 0x2f0
    1c8e:	4669      	mov	r1, sp
    1c90:	f859 3003 	ldr.w	r3, [r9, r3]
    1c94:	6998      	ldr	r0, [r3, #24]
    1c96:	fb02 0005 	mla	r0, r2, r5, r0
/workspace/benchmark/darknetz/ta/darknetp_ta.c:423
    1c9a:	3501      	adds	r5, #1
/workspace/benchmark/darknetz/ta/darknetp_ta.c:422
    1c9c:	f00a fdb0 	bl	c800 <memcpy>
/workspace/benchmark/darknetz/ta/darknetp_ta.c:426
    1ca0:	fb04 f008 	mul.w	r0, r4, r8
/workspace/benchmark/darknetz/ta/darknetp_ta.c:423
    1ca4:	603d      	str	r5, [r7, #0]
/workspace/benchmark/darknetz/ta/darknetp_ta.c:426
    1ca6:	0080      	lsls	r0, r0, #2
    1ca8:	f003 fcc8 	bl	563c <malloc>
    1cac:	6078      	str	r0, [r7, #4]
/workspace/benchmark/darknetz/ta/darknetp_ta.c:429
    1cae:	2000      	movs	r0, #0
/workspace/benchmark/darknetz/ta/darknetp_ta.c:430
    1cb0:	f50d 7d3d 	add.w	sp, sp, #756	; 0x2f4
    1cb4:	ecbd 8b04 	vpop	{d8-d9}
    1cb8:	e8bd 83f0 	ldmia.w	sp!, {r4, r5, r6, r7, r8, r9, pc}
/workspace/benchmark/darknetz/ta/darknetp_ta.c:404
    1cbc:	4800      	ldr	r0, [pc, #0]	; (1cc0 <make_cost_layer_TA_params+0x94>)
    1cbe:	e7f7      	b.n	1cb0 <make_cost_layer_TA_params+0x84>
    1cc0:	ffff0006 	.word	0xffff0006
    1cc4:	0000d192 	.word	0x0000d192
    1cc8:	0000e44a 	.word	0x0000e44a
    1ccc:	00000038 	.word	0x00000038

00001cd0 <make_maxpool_layer_TA_params.isra.0>:
make_maxpool_layer_TA_params():
/workspace/benchmark/darknetz/ta/darknetp_ta.c:225
    1cd0:	b5f0      	push	{r4, r5, r6, r7, lr}
/workspace/benchmark/darknetz/ta/darknetp_ta.c:234
    1cd2:	2805      	cmp	r0, #5
/workspace/benchmark/darknetz/ta/darknetp_ta.c:225
    1cd4:	4f14      	ldr	r7, [pc, #80]	; (1d28 <make_maxpool_layer_TA_params.isra.0+0x58>)
    1cd6:	f5ad 7d41 	sub.w	sp, sp, #772	; 0x304
    1cda:	447f      	add	r7, pc
/workspace/benchmark/darknetz/ta/darknetp_ta.c:234
    1cdc:	d120      	bne.n	1d20 <make_maxpool_layer_TA_params.isra.0+0x50>
/workspace/benchmark/darknetz/ta/darknetp_ta.c:237
    1cde:	6809      	ldr	r1, [r1, #0]
/workspace/benchmark/darknetz/ta/darknetp_ta.c:247
    1ce0:	ad04      	add	r5, sp, #16
    1ce2:	4628      	mov	r0, r5
/workspace/benchmark/darknetz/ta/darknetp_ta.c:248
    1ce4:	4e11      	ldr	r6, [pc, #68]	; (1d2c <make_maxpool_layer_TA_params.isra.0+0x5c>)
/workspace/benchmark/darknetz/ta/darknetp_ta.c:247
    1ce6:	698b      	ldr	r3, [r1, #24]
/workspace/benchmark/darknetz/ta/darknetp_ta.c:248
    1ce8:	447e      	add	r6, pc
/workspace/benchmark/darknetz/ta/darknetp_ta.c:247
    1cea:	9303      	str	r3, [sp, #12]
    1cec:	694b      	ldr	r3, [r1, #20]
    1cee:	9302      	str	r3, [sp, #8]
    1cf0:	690b      	ldr	r3, [r1, #16]
    1cf2:	9301      	str	r3, [sp, #4]
    1cf4:	68cb      	ldr	r3, [r1, #12]
    1cf6:	9300      	str	r3, [sp, #0]
    1cf8:	c90e      	ldmia	r1, {r1, r2, r3}
    1cfa:	f001 fa85 	bl	3208 <make_maxpool_layer_TA>
/workspace/benchmark/darknetz/ta/darknetp_ta.c:248
    1cfe:	4b0c      	ldr	r3, [pc, #48]	; (1d30 <make_maxpool_layer_TA_params.isra.0+0x60>)
    1d00:	f44f 723c 	mov.w	r2, #752	; 0x2f0
    1d04:	6834      	ldr	r4, [r6, #0]
    1d06:	4629      	mov	r1, r5
    1d08:	58fb      	ldr	r3, [r7, r3]
    1d0a:	6998      	ldr	r0, [r3, #24]
    1d0c:	fb02 0004 	mla	r0, r2, r4, r0
/workspace/benchmark/darknetz/ta/darknetp_ta.c:249
    1d10:	3401      	adds	r4, #1
/workspace/benchmark/darknetz/ta/darknetp_ta.c:248
    1d12:	f00a fd75 	bl	c800 <memcpy>
/workspace/benchmark/darknetz/ta/darknetp_ta.c:251
    1d16:	2000      	movs	r0, #0
/workspace/benchmark/darknetz/ta/darknetp_ta.c:249
    1d18:	6034      	str	r4, [r6, #0]
/workspace/benchmark/darknetz/ta/darknetp_ta.c:252
    1d1a:	f50d 7d41 	add.w	sp, sp, #772	; 0x304
    1d1e:	bdf0      	pop	{r4, r5, r6, r7, pc}
/workspace/benchmark/darknetz/ta/darknetp_ta.c:235
    1d20:	4800      	ldr	r0, [pc, #0]	; (1d24 <make_maxpool_layer_TA_params.isra.0+0x54>)
    1d22:	e7fa      	b.n	1d1a <make_maxpool_layer_TA_params.isra.0+0x4a>
    1d24:	ffff0006 	.word	0xffff0006
    1d28:	0000d0f6 	.word	0x0000d0f6
    1d2c:	0000e3b4 	.word	0x0000e3b4
    1d30:	00000038 	.word	0x00000038

00001d34 <make_avgpool_layer_TA_params.isra.1>:
make_avgpool_layer_TA_params():
/workspace/benchmark/darknetz/ta/darknetp_ta.c:255
    1d34:	b5f0      	push	{r4, r5, r6, r7, lr}
/workspace/benchmark/darknetz/ta/darknetp_ta.c:264
    1d36:	2805      	cmp	r0, #5
/workspace/benchmark/darknetz/ta/darknetp_ta.c:255
    1d38:	4f11      	ldr	r7, [pc, #68]	; (1d80 <make_avgpool_layer_TA_params.isra.1+0x4c>)
    1d3a:	f5ad 7d3f 	sub.w	sp, sp, #764	; 0x2fc
    1d3e:	447f      	add	r7, pc
/workspace/benchmark/darknetz/ta/darknetp_ta.c:264
    1d40:	d11a      	bne.n	1d78 <make_avgpool_layer_TA_params.isra.1+0x44>
/workspace/benchmark/darknetz/ta/darknetp_ta.c:267
    1d42:	6809      	ldr	r1, [r1, #0]
/workspace/benchmark/darknetz/ta/darknetp_ta.c:274
    1d44:	ad02      	add	r5, sp, #8
    1d46:	4628      	mov	r0, r5
/workspace/benchmark/darknetz/ta/darknetp_ta.c:275
    1d48:	4e0e      	ldr	r6, [pc, #56]	; (1d84 <make_avgpool_layer_TA_params.isra.1+0x50>)
/workspace/benchmark/darknetz/ta/darknetp_ta.c:274
    1d4a:	68cb      	ldr	r3, [r1, #12]
/workspace/benchmark/darknetz/ta/darknetp_ta.c:275
    1d4c:	447e      	add	r6, pc
/workspace/benchmark/darknetz/ta/darknetp_ta.c:274
    1d4e:	9300      	str	r3, [sp, #0]
    1d50:	c90e      	ldmia	r1, {r1, r2, r3}
    1d52:	f003 f86a 	bl	4e2a <make_avgpool_layer_TA>
/workspace/benchmark/darknetz/ta/darknetp_ta.c:275
    1d56:	4b0c      	ldr	r3, [pc, #48]	; (1d88 <make_avgpool_layer_TA_params.isra.1+0x54>)
    1d58:	f44f 723c 	mov.w	r2, #752	; 0x2f0
    1d5c:	6834      	ldr	r4, [r6, #0]
    1d5e:	4629      	mov	r1, r5
    1d60:	58fb      	ldr	r3, [r7, r3]
    1d62:	6998      	ldr	r0, [r3, #24]
    1d64:	fb02 0004 	mla	r0, r2, r4, r0
/workspace/benchmark/darknetz/ta/darknetp_ta.c:276
    1d68:	3401      	adds	r4, #1
/workspace/benchmark/darknetz/ta/darknetp_ta.c:275
    1d6a:	f00a fd49 	bl	c800 <memcpy>
/workspace/benchmark/darknetz/ta/darknetp_ta.c:278
    1d6e:	2000      	movs	r0, #0
/workspace/benchmark/darknetz/ta/darknetp_ta.c:276
    1d70:	6034      	str	r4, [r6, #0]
/workspace/benchmark/darknetz/ta/darknetp_ta.c:279
    1d72:	f50d 7d3f 	add.w	sp, sp, #764	; 0x2fc
    1d76:	bdf0      	pop	{r4, r5, r6, r7, pc}
/workspace/benchmark/darknetz/ta/darknetp_ta.c:265
    1d78:	4800      	ldr	r0, [pc, #0]	; (1d7c <make_avgpool_layer_TA_params.isra.1+0x48>)
    1d7a:	e7fa      	b.n	1d72 <make_avgpool_layer_TA_params.isra.1+0x3e>
    1d7c:	ffff0006 	.word	0xffff0006
    1d80:	0000d092 	.word	0x0000d092
    1d84:	0000e350 	.word	0x0000e350
    1d88:	00000038 	.word	0x00000038

00001d8c <summary_array>:
summary_array():
/workspace/benchmark/darknetz/ta/darknetp_ta.c:32
    1d8c:	e92d 41f0 	stmdb	sp!, {r4, r5, r6, r7, r8, lr}
/workspace/benchmark/darknetz/ta/darknetp_ta.c:36
    1d90:	2300      	movs	r3, #0
/workspace/benchmark/darknetz/ta/darknetp_ta.c:32
    1d92:	4680      	mov	r8, r0
    1d94:	ed2d 8b04 	vpush	{d8-d9}
/workspace/benchmark/darknetz/ta/darknetp_ta.c:50
    1d98:	eef7 6a00 	vmov.f32	s13, #112	; 0x3f800000  1.0
/workspace/benchmark/darknetz/ta/darknetp_ta.c:34
    1d9c:	ed9f 8a2e 	vldr	s16, [pc, #184]	; 1e58 <summary_array+0xcc>
/workspace/benchmark/darknetz/ta/darknetp_ta.c:32
    1da0:	b09a      	sub	sp, #104	; 0x68
/workspace/benchmark/darknetz/ta/darknetp_ta.c:34
    1da2:	eeb0 7a48 	vmov.f32	s14, s16
/workspace/benchmark/darknetz/ta/darknetp_ta.c:36 (discriminator 1)
    1da6:	4293      	cmp	r3, r2
    1da8:	db34      	blt.n	1e14 <summary_array+0x88>
/workspace/benchmark/darknetz/ta/darknetp_ta.c:55
    1daa:	ee07 2a90 	vmov	s15, r2
/workspace/benchmark/darknetz/ta/darknetp_ta.c:61
    1dae:	ac06      	add	r4, sp, #24
    1db0:	4620      	mov	r0, r4
/workspace/benchmark/darknetz/ta/darknetp_ta.c:62
    1db2:	ad0b      	add	r5, sp, #44	; 0x2c
/workspace/benchmark/darknetz/ta/darknetp_ta.c:55
    1db4:	eeb8 0ae7 	vcvt.f32.s32	s0, s15
/workspace/benchmark/darknetz/ta/darknetp_ta.c:61
    1db8:	2105      	movs	r1, #5
/workspace/benchmark/darknetz/ta/darknetp_ta.c:63
    1dba:	ae10      	add	r6, sp, #64	; 0x40
/workspace/benchmark/darknetz/ta/darknetp_ta.c:64
    1dbc:	af15      	add	r7, sp, #84	; 0x54
/workspace/benchmark/darknetz/ta/darknetp_ta.c:61
    1dbe:	ee87 0a00 	vdiv.f32	s0, s14, s0
    1dc2:	f7fe ff12 	bl	bea <ftoa>
/workspace/benchmark/darknetz/ta/darknetp_ta.c:62
    1dc6:	4628      	mov	r0, r5
    1dc8:	eeb0 0a68 	vmov.f32	s0, s17
    1dcc:	2105      	movs	r1, #5
    1dce:	f7fe ff0c 	bl	bea <ftoa>
/workspace/benchmark/darknetz/ta/darknetp_ta.c:63
    1dd2:	4630      	mov	r0, r6
    1dd4:	eeb0 0a49 	vmov.f32	s0, s18
    1dd8:	2105      	movs	r1, #5
    1dda:	f7fe ff06 	bl	bea <ftoa>
/workspace/benchmark/darknetz/ta/darknetp_ta.c:64
    1dde:	4638      	mov	r0, r7
    1de0:	eeb0 0a48 	vmov.f32	s0, s16
    1de4:	2105      	movs	r1, #5
    1de6:	f7fe ff00 	bl	bea <ftoa>
/workspace/benchmark/darknetz/ta/darknetp_ta.c:66
    1dea:	4b1c      	ldr	r3, [pc, #112]	; (1e5c <summary_array+0xd0>)
    1dec:	481c      	ldr	r0, [pc, #112]	; (1e60 <summary_array+0xd4>)
    1dee:	2203      	movs	r2, #3
    1df0:	9705      	str	r7, [sp, #20]
    1df2:	447b      	add	r3, pc
    1df4:	9604      	str	r6, [sp, #16]
    1df6:	2142      	movs	r1, #66	; 0x42
    1df8:	9300      	str	r3, [sp, #0]
    1dfa:	4478      	add	r0, pc
    1dfc:	9503      	str	r5, [sp, #12]
    1dfe:	2301      	movs	r3, #1
    1e00:	9402      	str	r4, [sp, #8]
    1e02:	f8cd 8004 	str.w	r8, [sp, #4]
    1e06:	f003 ff0b 	bl	5c20 <trace_printf>
/workspace/benchmark/darknetz/ta/darknetp_ta.c:67
    1e0a:	b01a      	add	sp, #104	; 0x68
    1e0c:	ecbd 8b04 	vpop	{d8-d9}
    1e10:	e8bd 81f0 	ldmia.w	sp!, {r4, r5, r6, r7, r8, pc}
/workspace/benchmark/darknetz/ta/darknetp_ta.c:38
    1e14:	ecf1 7a01 	vldmia	r1!, {s15}
    1e18:	ee37 7a27 	vadd.f32	s14, s14, s15
/workspace/benchmark/darknetz/ta/darknetp_ta.c:39
    1e1c:	b1b3      	cbz	r3, 1e4c <summary_array+0xc0>
/workspace/benchmark/darknetz/ta/darknetp_ta.c:43
    1e1e:	eef4 8ae7 	vcmpe.f32	s17, s15
    1e22:	eef1 fa10 	vmrs	APSR_nzcv, fpscr
    1e26:	dd01      	ble.n	1e2c <summary_array+0xa0>
/workspace/benchmark/darknetz/ta/darknetp_ta.c:44
    1e28:	eef0 8a67 	vmov.f32	s17, s15
/workspace/benchmark/darknetz/ta/darknetp_ta.c:46
    1e2c:	eeb4 9ae7 	vcmpe.f32	s18, s15
    1e30:	eef1 fa10 	vmrs	APSR_nzcv, fpscr
    1e34:	d501      	bpl.n	1e3a <summary_array+0xae>
/workspace/benchmark/darknetz/ta/darknetp_ta.c:47
    1e36:	eeb0 9a67 	vmov.f32	s18, s15
/workspace/benchmark/darknetz/ta/darknetp_ta.c:49
    1e3a:	eef5 7a40 	vcmp.f32	s15, #0.0
    1e3e:	eef1 fa10 	vmrs	APSR_nzcv, fpscr
    1e42:	d101      	bne.n	1e48 <summary_array+0xbc>
/workspace/benchmark/darknetz/ta/darknetp_ta.c:50
    1e44:	ee38 8a26 	vadd.f32	s16, s16, s13
/workspace/benchmark/darknetz/ta/darknetp_ta.c:36 (discriminator 2)
    1e48:	3301      	adds	r3, #1
    1e4a:	e7ac      	b.n	1da6 <summary_array+0x1a>
/workspace/benchmark/darknetz/ta/darknetp_ta.c:40
    1e4c:	eef0 8a67 	vmov.f32	s17, s15
/workspace/benchmark/darknetz/ta/darknetp_ta.c:41
    1e50:	eeb0 9a67 	vmov.f32	s18, s15
    1e54:	e7f1      	b.n	1e3a <summary_array+0xae>
    1e56:	bf00      	nop
    1e58:	00000000 	.word	0x00000000
    1e5c:	0000b03c 	.word	0x0000b03c
    1e60:	0000afca 	.word	0x0000afca

00001e64 <TA_CreateEntryPoint>:
TA_CreateEntryPoint():
/workspace/benchmark/darknetz/ta/darknetp_ta.c:71
    1e64:	b507      	push	{r0, r1, r2, lr}
/workspace/benchmark/darknetz/ta/darknetp_ta.c:72
    1e66:	2203      	movs	r2, #3
    1e68:	4806      	ldr	r0, [pc, #24]	; (1e84 <TA_CreateEntryPoint+0x20>)
    1e6a:	4b07      	ldr	r3, [pc, #28]	; (1e88 <TA_CreateEntryPoint+0x24>)
    1e6c:	2148      	movs	r1, #72	; 0x48
    1e6e:	4478      	add	r0, pc
    1e70:	447b      	add	r3, pc
    1e72:	300e      	adds	r0, #14
    1e74:	9300      	str	r3, [sp, #0]
    1e76:	2301      	movs	r3, #1
    1e78:	f003 fed2 	bl	5c20 <trace_printf>
/workspace/benchmark/darknetz/ta/darknetp_ta.c:75
    1e7c:	2000      	movs	r0, #0
    1e7e:	b003      	add	sp, #12
    1e80:	f85d fb04 	ldr.w	pc, [sp], #4
    1e84:	0000af56 	.word	0x0000af56
    1e88:	0000aff4 	.word	0x0000aff4

00001e8c <TA_DestroyEntryPoint>:
TA_DestroyEntryPoint():
/workspace/benchmark/darknetz/ta/darknetp_ta.c:78
    1e8c:	b507      	push	{r0, r1, r2, lr}
/workspace/benchmark/darknetz/ta/darknetp_ta.c:79
    1e8e:	2203      	movs	r2, #3
    1e90:	4806      	ldr	r0, [pc, #24]	; (1eac <TA_DestroyEntryPoint+0x20>)
    1e92:	4b07      	ldr	r3, [pc, #28]	; (1eb0 <TA_DestroyEntryPoint+0x24>)
    1e94:	214f      	movs	r1, #79	; 0x4f
    1e96:	4478      	add	r0, pc
    1e98:	447b      	add	r3, pc
    1e9a:	3022      	adds	r0, #34	; 0x22
    1e9c:	9300      	str	r3, [sp, #0]
    1e9e:	2301      	movs	r3, #1
    1ea0:	f003 febe 	bl	5c20 <trace_printf>
/workspace/benchmark/darknetz/ta/darknetp_ta.c:80
    1ea4:	b003      	add	sp, #12
    1ea6:	f85d fb04 	ldr.w	pc, [sp], #4
    1eaa:	bf00      	nop
    1eac:	0000af2e 	.word	0x0000af2e
    1eb0:	0000afcc 	.word	0x0000afcc

00001eb4 <TA_OpenSessionEntryPoint>:
TA_OpenSessionEntryPoint():
/workspace/benchmark/darknetz/ta/darknetp_ta.c:85
    1eb4:	b537      	push	{r0, r1, r2, r4, r5, lr}
    1eb6:	4604      	mov	r4, r0
/workspace/benchmark/darknetz/ta/darknetp_ta.c:91
    1eb8:	4d0e      	ldr	r5, [pc, #56]	; (1ef4 <TA_OpenSessionEntryPoint+0x40>)
    1eba:	4b0f      	ldr	r3, [pc, #60]	; (1ef8 <TA_OpenSessionEntryPoint+0x44>)
    1ebc:	2203      	movs	r2, #3
    1ebe:	447d      	add	r5, pc
    1ec0:	215b      	movs	r1, #91	; 0x5b
    1ec2:	3537      	adds	r5, #55	; 0x37
    1ec4:	447b      	add	r3, pc
    1ec6:	4628      	mov	r0, r5
    1ec8:	9300      	str	r3, [sp, #0]
    1eca:	2301      	movs	r3, #1
    1ecc:	f003 fea8 	bl	5c20 <trace_printf>
/workspace/benchmark/darknetz/ta/darknetp_ta.c:93
    1ed0:	b95c      	cbnz	r4, 1eea <TA_OpenSessionEntryPoint+0x36>
/workspace/benchmark/darknetz/ta/darknetp_ta.c:100
    1ed2:	4b0a      	ldr	r3, [pc, #40]	; (1efc <TA_OpenSessionEntryPoint+0x48>)
    1ed4:	4628      	mov	r0, r5
    1ed6:	2202      	movs	r2, #2
    1ed8:	2164      	movs	r1, #100	; 0x64
    1eda:	447b      	add	r3, pc
    1edc:	9300      	str	r3, [sp, #0]
    1ede:	2301      	movs	r3, #1
    1ee0:	f003 fe9e 	bl	5c20 <trace_printf>
/workspace/benchmark/darknetz/ta/darknetp_ta.c:101
    1ee4:	4620      	mov	r0, r4
/workspace/benchmark/darknetz/ta/darknetp_ta.c:102
    1ee6:	b003      	add	sp, #12
    1ee8:	bd30      	pop	{r4, r5, pc}
/workspace/benchmark/darknetz/ta/darknetp_ta.c:94
    1eea:	4801      	ldr	r0, [pc, #4]	; (1ef0 <TA_OpenSessionEntryPoint+0x3c>)
    1eec:	e7fb      	b.n	1ee6 <TA_OpenSessionEntryPoint+0x32>
    1eee:	bf00      	nop
    1ef0:	ffff0006 	.word	0xffff0006
    1ef4:	0000af06 	.word	0x0000af06
    1ef8:	0000afa0 	.word	0x0000afa0
    1efc:	0000af9a 	.word	0x0000af9a

00001f00 <TA_CloseSessionEntryPoint>:
TA_CloseSessionEntryPoint():
/workspace/benchmark/darknetz/ta/darknetp_ta.c:106
    1f00:	b507      	push	{r0, r1, r2, lr}
/workspace/benchmark/darknetz/ta/darknetp_ta.c:108
    1f02:	2202      	movs	r2, #2
    1f04:	4806      	ldr	r0, [pc, #24]	; (1f20 <TA_CloseSessionEntryPoint+0x20>)
    1f06:	4b07      	ldr	r3, [pc, #28]	; (1f24 <TA_CloseSessionEntryPoint+0x24>)
    1f08:	216c      	movs	r1, #108	; 0x6c
    1f0a:	4478      	add	r0, pc
    1f0c:	447b      	add	r3, pc
    1f0e:	3050      	adds	r0, #80	; 0x50
    1f10:	9300      	str	r3, [sp, #0]
    1f12:	2301      	movs	r3, #1
    1f14:	f003 fe84 	bl	5c20 <trace_printf>
/workspace/benchmark/darknetz/ta/darknetp_ta.c:109
    1f18:	b003      	add	sp, #12
    1f1a:	f85d fb04 	ldr.w	pc, [sp], #4
    1f1e:	bf00      	nop
    1f20:	0000aeba 	.word	0x0000aeba
    1f24:	0000af7e 	.word	0x0000af7e

00001f28 <TA_InvokeCommandEntryPoint>:
TA_InvokeCommandEntryPoint():
/workspace/benchmark/darknetz/ta/darknetp_ta.c:879
    1f28:	e92d 41f0 	stmdb	sp!, {r4, r5, r6, r7, r8, lr}
    1f2c:	461c      	mov	r4, r3
    1f2e:	f8df 3448 	ldr.w	r3, [pc, #1096]	; 2378 <TA_InvokeCommandEntryPoint+0x450>
/workspace/benchmark/darknetz/ta/darknetp_ta.c:882
    1f32:	3901      	subs	r1, #1
/workspace/benchmark/darknetz/ta/darknetp_ta.c:879
    1f34:	b096      	sub	sp, #88	; 0x58
    1f36:	447b      	add	r3, pc
    1f38:	4610      	mov	r0, r2
/workspace/benchmark/darknetz/ta/darknetp_ta.c:882
    1f3a:	2914      	cmp	r1, #20
    1f3c:	f200 8215 	bhi.w	236a <TA_InvokeCommandEntryPoint+0x442>
    1f40:	e8df f011 	tbh	[pc, r1, lsl #1]
    1f44:	00590015 	.word	0x00590015
    1f48:	00670062 	.word	0x00670062
    1f4c:	00760071 	.word	0x00760071
    1f50:	0080007b 	.word	0x0080007b
    1f54:	00ce00b5 	.word	0x00ce00b5
    1f58:	011400e7 	.word	0x011400e7
    1f5c:	014d0135 	.word	0x014d0135
    1f60:	01530085 	.word	0x01530085
    1f64:	01880093 	.word	0x01880093
    1f68:	01ed01af 	.word	0x01ed01af
    1f6c:	006c      	.short	0x006c
make_netowork_TA_params():
/workspace/benchmark/darknetz/ta/darknetp_ta.c:120
    1f6e:	2855      	cmp	r0, #85	; 0x55
    1f70:	f040 81fb 	bne.w	236a <TA_InvokeCommandEntryPoint+0x442>
/workspace/benchmark/darknetz/ta/darknetp_ta.c:123
    1f74:	6820      	ldr	r0, [r4, #0]
/workspace/benchmark/darknetz/ta/darknetp_ta.c:124
    1f76:	68a4      	ldr	r4, [r4, #8]
/workspace/benchmark/darknetz/ta/darknetp_ta.c:159
    1f78:	1d01      	adds	r1, r0, #4
    1f7a:	6bc3      	ldr	r3, [r0, #60]	; 0x3c
    1f7c:	930b      	str	r3, [sp, #44]	; 0x2c
    1f7e:	6b83      	ldr	r3, [r0, #56]	; 0x38
    1f80:	930a      	str	r3, [sp, #40]	; 0x28
    1f82:	6b43      	ldr	r3, [r0, #52]	; 0x34
    1f84:	9309      	str	r3, [sp, #36]	; 0x24
    1f86:	6b03      	ldr	r3, [r0, #48]	; 0x30
    1f88:	9308      	str	r3, [sp, #32]
    1f8a:	6ac3      	ldr	r3, [r0, #44]	; 0x2c
    1f8c:	9307      	str	r3, [sp, #28]
    1f8e:	6a83      	ldr	r3, [r0, #40]	; 0x28
    1f90:	9306      	str	r3, [sp, #24]
    1f92:	6a43      	ldr	r3, [r0, #36]	; 0x24
    1f94:	9305      	str	r3, [sp, #20]
    1f96:	6a03      	ldr	r3, [r0, #32]
    1f98:	9304      	str	r3, [sp, #16]
    1f9a:	69c3      	ldr	r3, [r0, #28]
    1f9c:	9303      	str	r3, [sp, #12]
    1f9e:	6983      	ldr	r3, [r0, #24]
    1fa0:	9302      	str	r3, [sp, #8]
    1fa2:	6943      	ldr	r3, [r0, #20]
    1fa4:	9301      	str	r3, [sp, #4]
    1fa6:	6903      	ldr	r3, [r0, #16]
    1fa8:	9300      	str	r3, [sp, #0]
    1faa:	ed94 7a0e 	vldr	s14, [r4, #56]	; 0x38
    1fae:	edd4 6a0d 	vldr	s13, [r4, #52]	; 0x34
    1fb2:	ed94 6a0c 	vldr	s12, [r4, #48]	; 0x30
    1fb6:	edd4 5a0b 	vldr	s11, [r4, #44]	; 0x2c
    1fba:	ed94 5a0a 	vldr	s10, [r4, #40]	; 0x28
    1fbe:	edd4 4a09 	vldr	s9, [r4, #36]	; 0x24
    1fc2:	ed94 4a08 	vldr	s8, [r4, #32]
    1fc6:	edd4 3a07 	vldr	s7, [r4, #28]
    1fca:	ed94 3a06 	vldr	s6, [r4, #24]
    1fce:	edd4 2a05 	vldr	s5, [r4, #20]
    1fd2:	ed94 2a04 	vldr	s4, [r4, #16]
    1fd6:	edd4 1a03 	vldr	s3, [r4, #12]
    1fda:	c90e      	ldmia	r1, {r1, r2, r3}
    1fdc:	ed94 1a02 	vldr	s2, [r4, #8]
    1fe0:	edd4 0a01 	vldr	s1, [r4, #4]
    1fe4:	ed94 0a00 	vldr	s0, [r4]
    1fe8:	6800      	ldr	r0, [r0, #0]
    1fea:	f7ff f9ad 	bl	1348 <make_network_TA>
backward_network_back_TA_addidion_params():
/workspace/benchmark/darknetz/ta/darknetp_ta.c:730
    1fee:	2000      	movs	r0, #0
TA_InvokeCommandEntryPoint():
/workspace/benchmark/darknetz/ta/darknetp_ta.c:950
    1ff0:	b016      	add	sp, #88	; 0x58
    1ff2:	e8bd 81f0 	ldmia.w	sp!, {r4, r5, r6, r7, r8, pc}
update_net_agrv_TA_params():
/workspace/benchmark/darknetz/ta/darknetp_ta.c:173
    1ff6:	2871      	cmp	r0, #113	; 0x71
    1ff8:	f040 81b7 	bne.w	236a <TA_InvokeCommandEntryPoint+0x442>
/workspace/benchmark/darknetz/ta/darknetp_ta.c:176
    1ffc:	4adf      	ldr	r2, [pc, #892]	; (237c <TA_InvokeCommandEntryPoint+0x454>)
    1ffe:	589b      	ldr	r3, [r3, r2]
    2000:	68a2      	ldr	r2, [r4, #8]
    2002:	f8c3 20c4 	str.w	r2, [r3, #196]	; 0xc4
    2006:	e7f2      	b.n	1fee <TA_InvokeCommandEntryPoint+0xc6>
TA_InvokeCommandEntryPoint():
/workspace/benchmark/darknetz/ta/darknetp_ta.c:890
    2008:	4621      	mov	r1, r4
/workspace/benchmark/darknetz/ta/darknetp_ta.c:950
    200a:	b016      	add	sp, #88	; 0x58
    200c:	e8bd 41f0 	ldmia.w	sp!, {r4, r5, r6, r7, r8, lr}
/workspace/benchmark/darknetz/ta/darknetp_ta.c:890
    2010:	e4b8      	b.n	1984 <make_convolutional_layer_TA_params>
/workspace/benchmark/darknetz/ta/darknetp_ta.c:893
    2012:	4621      	mov	r1, r4
/workspace/benchmark/darknetz/ta/darknetp_ta.c:950
    2014:	b016      	add	sp, #88	; 0x58
    2016:	e8bd 41f0 	ldmia.w	sp!, {r4, r5, r6, r7, r8, lr}
/workspace/benchmark/darknetz/ta/darknetp_ta.c:893
    201a:	e659      	b.n	1cd0 <make_maxpool_layer_TA_params.isra.0>
/workspace/benchmark/darknetz/ta/darknetp_ta.c:896
    201c:	4621      	mov	r1, r4
/workspace/benchmark/darknetz/ta/darknetp_ta.c:950
    201e:	b016      	add	sp, #88	; 0x58
    2020:	e8bd 41f0 	ldmia.w	sp!, {r4, r5, r6, r7, r8, lr}
/workspace/benchmark/darknetz/ta/darknetp_ta.c:896
    2024:	e686      	b.n	1d34 <make_avgpool_layer_TA_params.isra.1>
/workspace/benchmark/darknetz/ta/darknetp_ta.c:899
    2026:	4621      	mov	r1, r4
/workspace/benchmark/darknetz/ta/darknetp_ta.c:950
    2028:	b016      	add	sp, #88	; 0x58
    202a:	e8bd 41f0 	ldmia.w	sp!, {r4, r5, r6, r7, r8, lr}
/workspace/benchmark/darknetz/ta/darknetp_ta.c:899
    202e:	e51f      	b.n	1a70 <make_dropout_layer_TA_params>
/workspace/benchmark/darknetz/ta/darknetp_ta.c:902
    2030:	4621      	mov	r1, r4
/workspace/benchmark/darknetz/ta/darknetp_ta.c:950
    2032:	b016      	add	sp, #88	; 0x58
    2034:	e8bd 41f0 	ldmia.w	sp!, {r4, r5, r6, r7, r8, lr}
/workspace/benchmark/darknetz/ta/darknetp_ta.c:902
    2038:	e586      	b.n	1b48 <make_connected_layer_TA_params>
/workspace/benchmark/darknetz/ta/darknetp_ta.c:905
    203a:	4621      	mov	r1, r4
/workspace/benchmark/darknetz/ta/darknetp_ta.c:950
    203c:	b016      	add	sp, #88	; 0x58
    203e:	e8bd 41f0 	ldmia.w	sp!, {r4, r5, r6, r7, r8, lr}
/workspace/benchmark/darknetz/ta/darknetp_ta.c:905
    2042:	e5b9      	b.n	1bb8 <make_softmax_layer_TA_params>
/workspace/benchmark/darknetz/ta/darknetp_ta.c:908
    2044:	4621      	mov	r1, r4
/workspace/benchmark/darknetz/ta/darknetp_ta.c:950
    2046:	b016      	add	sp, #88	; 0x58
    2048:	e8bd 41f0 	ldmia.w	sp!, {r4, r5, r6, r7, r8, lr}
/workspace/benchmark/darknetz/ta/darknetp_ta.c:908
    204c:	e5ee      	b.n	1c2c <make_cost_layer_TA_params>
transfer_weights_TA_params():
/workspace/benchmark/darknetz/ta/darknetp_ta.c:443
    204e:	f240 1355 	movw	r3, #341	; 0x155
    2052:	4298      	cmp	r0, r3
    2054:	f040 8189 	bne.w	236a <TA_InvokeCommandEntryPoint+0x442>
/workspace/benchmark/darknetz/ta/darknetp_ta.c:448
    2058:	68a1      	ldr	r1, [r4, #8]
/workspace/benchmark/darknetz/ta/darknetp_ta.c:455
    205a:	7c23      	ldrb	r3, [r4, #16]
    205c:	688a      	ldr	r2, [r1, #8]
    205e:	9200      	str	r2, [sp, #0]
    2060:	c906      	ldmia	r1, {r1, r2}
    2062:	6820      	ldr	r0, [r4, #0]
    2064:	f000 fdb7 	bl	2bd6 <load_weights_TA>
    2068:	e7c1      	b.n	1fee <TA_InvokeCommandEntryPoint+0xc6>
save_weights_TA_params():
/workspace/benchmark/darknetz/ta/darknetp_ta.c:470
    206a:	f5b0 7fab 	cmp.w	r0, #342	; 0x156
    206e:	f040 817c 	bne.w	236a <TA_InvokeCommandEntryPoint+0x442>
/workspace/benchmark/darknetz/ta/darknetp_ta.c:475
    2072:	68a3      	ldr	r3, [r4, #8]
/workspace/benchmark/darknetz/ta/darknetp_ta.c:479
    2074:	f894 8010 	ldrb.w	r8, [r4, #16]
/workspace/benchmark/darknetz/ta/darknetp_ta.c:473
    2078:	6825      	ldr	r5, [r4, #0]
/workspace/benchmark/darknetz/ta/darknetp_ta.c:477
    207a:	e893 00c0 	ldmia.w	r3, {r6, r7}
/workspace/benchmark/darknetz/ta/darknetp_ta.c:481
    207e:	00b0      	lsls	r0, r6, #2
    2080:	f003 fadc 	bl	563c <malloc>
/workspace/benchmark/darknetz/ta/darknetp_ta.c:482
    2084:	4643      	mov	r3, r8
/workspace/benchmark/darknetz/ta/darknetp_ta.c:481
    2086:	4604      	mov	r4, r0
/workspace/benchmark/darknetz/ta/darknetp_ta.c:482
    2088:	463a      	mov	r2, r7
    208a:	4631      	mov	r1, r6
    208c:	f000 fe24 	bl	2cd8 <save_weights_TA>
    2090:	4621      	mov	r1, r4
    2092:	462b      	mov	r3, r5
/workspace/benchmark/darknetz/ta/darknetp_ta.c:484
    2094:	2200      	movs	r2, #0
    2096:	4296      	cmp	r6, r2
    2098:	dc03      	bgt.n	20a2 <TA_InvokeCommandEntryPoint+0x17a>
/workspace/benchmark/darknetz/ta/darknetp_ta.c:488
    209a:	4620      	mov	r0, r4
net_output_return_TA_params():
/workspace/benchmark/darknetz/ta/darknetp_ta.c:870
    209c:	f003 facf 	bl	563e <free>
    20a0:	e7a5      	b.n	1fee <TA_InvokeCommandEntryPoint+0xc6>
save_weights_TA_params():
/workspace/benchmark/darknetz/ta/darknetp_ta.c:485
    20a2:	f851 0b04 	ldr.w	r0, [r1], #4
/workspace/benchmark/darknetz/ta/darknetp_ta.c:484
    20a6:	3201      	adds	r2, #1
/workspace/benchmark/darknetz/ta/darknetp_ta.c:485
    20a8:	f843 0b04 	str.w	r0, [r3], #4
    20ac:	e7f3      	b.n	2096 <TA_InvokeCommandEntryPoint+0x16e>
forward_network_TA_params():
/workspace/benchmark/darknetz/ta/darknetp_ta.c:505
    20ae:	2815      	cmp	r0, #21
    20b0:	f040 815b 	bne.w	236a <TA_InvokeCommandEntryPoint+0x442>
/workspace/benchmark/darknetz/ta/darknetp_ta.c:511
    20b4:	48b1      	ldr	r0, [pc, #708]	; (237c <TA_InvokeCommandEntryPoint+0x454>)
/workspace/benchmark/darknetz/ta/darknetp_ta.c:508
    20b6:	6821      	ldr	r1, [r4, #0]
/workspace/benchmark/darknetz/ta/darknetp_ta.c:509
    20b8:	68a2      	ldr	r2, [r4, #8]
/workspace/benchmark/darknetz/ta/darknetp_ta.c:511
    20ba:	581b      	ldr	r3, [r3, r0]
    20bc:	f8c3 10b8 	str.w	r1, [r3, #184]	; 0xb8
/workspace/benchmark/darknetz/ta/darknetp_ta.c:512
    20c0:	f8c3 20c8 	str.w	r2, [r3, #200]	; 0xc8
/workspace/benchmark/darknetz/ta/darknetp_ta.c:514
    20c4:	4bae      	ldr	r3, [pc, #696]	; (2380 <TA_InvokeCommandEntryPoint+0x458>)
    20c6:	447b      	add	r3, pc
    20c8:	689b      	ldr	r3, [r3, #8]
    20ca:	2b01      	cmp	r3, #1
    20cc:	d105      	bne.n	20da <TA_InvokeCommandEntryPoint+0x1b2>
/workspace/benchmark/darknetz/ta/darknetp_ta.c:515
    20ce:	6862      	ldr	r2, [r4, #4]
    20d0:	48ac      	ldr	r0, [pc, #688]	; (2384 <TA_InvokeCommandEntryPoint+0x45c>)
    20d2:	0892      	lsrs	r2, r2, #2
    20d4:	4478      	add	r0, pc
    20d6:	f7ff fe59 	bl	1d8c <summary_array>
/workspace/benchmark/darknetz/ta/darknetp_ta.c:517
    20da:	f7ff fa2f 	bl	153c <forward_network_TA>
    20de:	e786      	b.n	1fee <TA_InvokeCommandEntryPoint+0xc6>
backward_network_TA_params():
/workspace/benchmark/darknetz/ta/darknetp_ta.c:617
    20e0:	2815      	cmp	r0, #21
    20e2:	f040 8142 	bne.w	236a <TA_InvokeCommandEntryPoint+0x442>
/workspace/benchmark/darknetz/ta/darknetp_ta.c:624
    20e6:	4aa5      	ldr	r2, [pc, #660]	; (237c <TA_InvokeCommandEntryPoint+0x454>)
/workspace/benchmark/darknetz/ta/darknetp_ta.c:620
    20e8:	6825      	ldr	r5, [r4, #0]
/workspace/benchmark/darknetz/ta/darknetp_ta.c:624
    20ea:	589b      	ldr	r3, [r3, r2]
    20ec:	68a2      	ldr	r2, [r4, #8]
    20ee:	f8c3 20c8 	str.w	r2, [r3, #200]	; 0xc8
/workspace/benchmark/darknetz/ta/darknetp_ta.c:626
    20f2:	4ba5      	ldr	r3, [pc, #660]	; (2388 <TA_InvokeCommandEntryPoint+0x460>)
    20f4:	447b      	add	r3, pc
    20f6:	689b      	ldr	r3, [r3, #8]
    20f8:	2b01      	cmp	r3, #1
    20fa:	d106      	bne.n	210a <TA_InvokeCommandEntryPoint+0x1e2>
/workspace/benchmark/darknetz/ta/darknetp_ta.c:627
    20fc:	6862      	ldr	r2, [r4, #4]
    20fe:	4629      	mov	r1, r5
    2100:	48a2      	ldr	r0, [pc, #648]	; (238c <TA_InvokeCommandEntryPoint+0x464>)
    2102:	0892      	lsrs	r2, r2, #2
    2104:	4478      	add	r0, pc
    2106:	f7ff fe41 	bl	1d8c <summary_array>
/workspace/benchmark/darknetz/ta/darknetp_ta.c:631
    210a:	4628      	mov	r0, r5
    210c:	f7ff fb38 	bl	1780 <backward_network_TA>
    2110:	e76d      	b.n	1fee <TA_InvokeCommandEntryPoint+0xc6>
backward_network_TA_addidion_params():
/workspace/benchmark/darknetz/ta/darknetp_ta.c:645
    2112:	2866      	cmp	r0, #102	; 0x66
    2114:	f040 8129 	bne.w	236a <TA_InvokeCommandEntryPoint+0x442>
/workspace/benchmark/darknetz/ta/darknetp_ta.c:656
    2118:	4a9d      	ldr	r2, [pc, #628]	; (2390 <TA_InvokeCommandEntryPoint+0x468>)
/workspace/benchmark/darknetz/ta/darknetp_ta.c:657
    211a:	4e9e      	ldr	r6, [pc, #632]	; (2394 <TA_InvokeCommandEntryPoint+0x46c>)
/workspace/benchmark/darknetz/ta/darknetp_ta.c:654
    211c:	6865      	ldr	r5, [r4, #4]
/workspace/benchmark/darknetz/ta/darknetp_ta.c:656
    211e:	589a      	ldr	r2, [r3, r2]
/workspace/benchmark/darknetz/ta/darknetp_ta.c:657
    2120:	599e      	ldr	r6, [r3, r6]
/workspace/benchmark/darknetz/ta/darknetp_ta.c:654
    2122:	08ad      	lsrs	r5, r5, #2
/workspace/benchmark/darknetz/ta/darknetp_ta.c:655
    2124:	2300      	movs	r3, #0
/workspace/benchmark/darknetz/ta/darknetp_ta.c:656
    2126:	6811      	ldr	r1, [r2, #0]
    2128:	6837      	ldr	r7, [r6, #0]
    212a:	6822      	ldr	r2, [r4, #0]
    212c:	4608      	mov	r0, r1
    212e:	68a4      	ldr	r4, [r4, #8]
/workspace/benchmark/darknetz/ta/darknetp_ta.c:655
    2130:	429d      	cmp	r5, r3
    2132:	dc11      	bgt.n	2158 <TA_InvokeCommandEntryPoint+0x230>
/workspace/benchmark/darknetz/ta/darknetp_ta.c:664
    2134:	4b98      	ldr	r3, [pc, #608]	; (2398 <TA_InvokeCommandEntryPoint+0x470>)
    2136:	447b      	add	r3, pc
    2138:	689b      	ldr	r3, [r3, #8]
    213a:	2b01      	cmp	r3, #1
    213c:	f47f af57 	bne.w	1fee <TA_InvokeCommandEntryPoint+0xc6>
/workspace/benchmark/darknetz/ta/darknetp_ta.c:665
    2140:	4896      	ldr	r0, [pc, #600]	; (239c <TA_InvokeCommandEntryPoint+0x474>)
    2142:	462a      	mov	r2, r5
    2144:	4478      	add	r0, pc
    2146:	f7ff fe21 	bl	1d8c <summary_array>
/workspace/benchmark/darknetz/ta/darknetp_ta.c:666
    214a:	4895      	ldr	r0, [pc, #596]	; (23a0 <TA_InvokeCommandEntryPoint+0x478>)
    214c:	6831      	ldr	r1, [r6, #0]
    214e:	462a      	mov	r2, r5
    2150:	4478      	add	r0, pc
backward_network_back_TA_addidion_params():
/workspace/benchmark/darknetz/ta/darknetp_ta.c:727
    2152:	f7ff fe1b 	bl	1d8c <summary_array>
    2156:	e74a      	b.n	1fee <TA_InvokeCommandEntryPoint+0xc6>
backward_network_TA_addidion_params():
/workspace/benchmark/darknetz/ta/darknetp_ta.c:656
    2158:	f850 cb04 	ldr.w	ip, [r0], #4
/workspace/benchmark/darknetz/ta/darknetp_ta.c:655
    215c:	3301      	adds	r3, #1
/workspace/benchmark/darknetz/ta/darknetp_ta.c:656
    215e:	f842 cb04 	str.w	ip, [r2], #4
/workspace/benchmark/darknetz/ta/darknetp_ta.c:657
    2162:	f857 cb04 	ldr.w	ip, [r7], #4
    2166:	f844 cb04 	str.w	ip, [r4], #4
    216a:	e7e1      	b.n	2130 <TA_InvokeCommandEntryPoint+0x208>
update_network_TA_params():
/workspace/benchmark/darknetz/ta/darknetp_ta.c:771
    216c:	2855      	cmp	r0, #85	; 0x55
    216e:	f040 80fc 	bne.w	236a <TA_InvokeCommandEntryPoint+0x442>
/workspace/benchmark/darknetz/ta/darknetp_ta.c:774
    2172:	6822      	ldr	r2, [r4, #0]
/workspace/benchmark/darknetz/ta/darknetp_ta.c:788
    2174:	ad11      	add	r5, sp, #68	; 0x44
/workspace/benchmark/darknetz/ta/darknetp_ta.c:775
    2176:	68a3      	ldr	r3, [r4, #8]
/workspace/benchmark/darknetz/ta/darknetp_ta.c:788
    2178:	466c      	mov	r4, sp
/workspace/benchmark/darknetz/ta/darknetp_ta.c:778
    217a:	6811      	ldr	r1, [r2, #0]
/workspace/benchmark/darknetz/ta/darknetp_ta.c:780
    217c:	6896      	ldr	r6, [r2, #8]
/workspace/benchmark/darknetz/ta/darknetp_ta.c:778
    217e:	910d      	str	r1, [sp, #52]	; 0x34
/workspace/benchmark/darknetz/ta/darknetp_ta.c:779
    2180:	6851      	ldr	r1, [r2, #4]
/workspace/benchmark/darknetz/ta/darknetp_ta.c:781
    2182:	681a      	ldr	r2, [r3, #0]
    2184:	920e      	str	r2, [sp, #56]	; 0x38
/workspace/benchmark/darknetz/ta/darknetp_ta.c:782
    2186:	685a      	ldr	r2, [r3, #4]
    2188:	920f      	str	r2, [sp, #60]	; 0x3c
/workspace/benchmark/darknetz/ta/darknetp_ta.c:783
    218a:	689a      	ldr	r2, [r3, #8]
    218c:	9210      	str	r2, [sp, #64]	; 0x40
/workspace/benchmark/darknetz/ta/darknetp_ta.c:784
    218e:	68da      	ldr	r2, [r3, #12]
    2190:	9212      	str	r2, [sp, #72]	; 0x48
/workspace/benchmark/darknetz/ta/darknetp_ta.c:785
    2192:	691a      	ldr	r2, [r3, #16]
/workspace/benchmark/darknetz/ta/darknetp_ta.c:786
    2194:	695b      	ldr	r3, [r3, #20]
/workspace/benchmark/darknetz/ta/darknetp_ta.c:779
    2196:	9111      	str	r1, [sp, #68]	; 0x44
/workspace/benchmark/darknetz/ta/darknetp_ta.c:785
    2198:	9213      	str	r2, [sp, #76]	; 0x4c
/workspace/benchmark/darknetz/ta/darknetp_ta.c:786
    219a:	9314      	str	r3, [sp, #80]	; 0x50
/workspace/benchmark/darknetz/ta/darknetp_ta.c:780
    219c:	9615      	str	r6, [sp, #84]	; 0x54
/workspace/benchmark/darknetz/ta/darknetp_ta.c:788
    219e:	cd0f      	ldmia	r5!, {r0, r1, r2, r3}
    21a0:	c40f      	stmia	r4!, {r0, r1, r2, r3}
    21a2:	ab0d      	add	r3, sp, #52	; 0x34
    21a4:	6026      	str	r6, [r4, #0]
    21a6:	cb0f      	ldmia	r3, {r0, r1, r2, r3}
    21a8:	f7ff f956 	bl	1458 <update_network_TA>
    21ac:	e71f      	b.n	1fee <TA_InvokeCommandEntryPoint+0xc6>
net_truth_TA_params():
/workspace/benchmark/darknetz/ta/darknetp_ta.c:805
    21ae:	2805      	cmp	r0, #5
    21b0:	f040 80db 	bne.w	236a <TA_InvokeCommandEntryPoint+0x442>
/workspace/benchmark/darknetz/ta/darknetp_ta.c:812
    21b4:	4a7b      	ldr	r2, [pc, #492]	; (23a4 <TA_InvokeCommandEntryPoint+0x47c>)
    21b6:	6821      	ldr	r1, [r4, #0]
    21b8:	447a      	add	r2, pc
    21ba:	6850      	ldr	r0, [r2, #4]
/workspace/benchmark/darknetz/ta/darknetp_ta.c:811
    21bc:	6862      	ldr	r2, [r4, #4]
    21be:	4605      	mov	r5, r0
    21c0:	f022 0203 	bic.w	r2, r2, #3
    21c4:	440a      	add	r2, r1
    21c6:	428a      	cmp	r2, r1
    21c8:	d104      	bne.n	21d4 <TA_InvokeCommandEntryPoint+0x2ac>
/workspace/benchmark/darknetz/ta/darknetp_ta.c:814
    21ca:	4a6c      	ldr	r2, [pc, #432]	; (237c <TA_InvokeCommandEntryPoint+0x454>)
    21cc:	589b      	ldr	r3, [r3, r2]
    21ce:	f8c3 00bc 	str.w	r0, [r3, #188]	; 0xbc
    21d2:	e70c      	b.n	1fee <TA_InvokeCommandEntryPoint+0xc6>
/workspace/benchmark/darknetz/ta/darknetp_ta.c:812
    21d4:	f851 4b04 	ldr.w	r4, [r1], #4
    21d8:	f845 4b04 	str.w	r4, [r5], #4
    21dc:	e7f3      	b.n	21c6 <TA_InvokeCommandEntryPoint+0x29e>
    21de:	6823      	ldr	r3, [r4, #0]
calc_network_loss_TA_params():
/workspace/benchmark/darknetz/ta/darknetp_ta.c:831
    21e0:	e893 0003 	ldmia.w	r3, {r0, r1}
    21e4:	f7ff fa68 	bl	16b8 <calc_network_loss_TA>
    21e8:	e701      	b.n	1fee <TA_InvokeCommandEntryPoint+0xc6>
net_output_return_TA_params():
/workspace/benchmark/darknetz/ta/darknetp_ta.c:845
    21ea:	2806      	cmp	r0, #6
    21ec:	f040 80bd 	bne.w	236a <TA_InvokeCommandEntryPoint+0x442>
/workspace/benchmark/darknetz/ta/darknetp_ta.c:851
    21f0:	486d      	ldr	r0, [pc, #436]	; (23a8 <TA_InvokeCommandEntryPoint+0x480>)
/workspace/benchmark/darknetz/ta/darknetp_ta.c:849
    21f2:	e894 0006 	ldmia.w	r4, {r1, r2}
/workspace/benchmark/darknetz/ta/darknetp_ta.c:851
    21f6:	4478      	add	r0, pc
    21f8:	4c6c      	ldr	r4, [pc, #432]	; (23ac <TA_InvokeCommandEntryPoint+0x484>)
    21fa:	6800      	ldr	r0, [r0, #0]
/workspace/benchmark/darknetz/ta/darknetp_ta.c:849
    21fc:	0892      	lsrs	r2, r2, #2
    21fe:	591d      	ldr	r5, [r3, r4]
/workspace/benchmark/darknetz/ta/darknetp_ta.c:851
    2200:	b168      	cbz	r0, 221e <TA_InvokeCommandEntryPoint+0x2f6>
/workspace/benchmark/darknetz/ta/darknetp_ta.c:857
    2202:	6828      	ldr	r0, [r5, #0]
    2204:	2300      	movs	r3, #0
    2206:	eddf 7a5a 	vldr	s15, [pc, #360]	; 2370 <TA_InvokeCommandEntryPoint+0x448>
    220a:	461e      	mov	r6, r3
    220c:	4604      	mov	r4, r0
/workspace/benchmark/darknetz/ta/darknetp_ta.c:861
    220e:	2700      	movs	r7, #0
/workspace/benchmark/darknetz/ta/darknetp_ta.c:856
    2210:	429a      	cmp	r2, r3
    2212:	dc11      	bgt.n	2238 <TA_InvokeCommandEntryPoint+0x310>
/workspace/benchmark/darknetz/ta/darknetp_ta.c:863
    2214:	eb00 0086 	add.w	r0, r0, r6, lsl #2
    2218:	f04f 537e 	mov.w	r3, #1065353216	; 0x3f800000
    221c:	6003      	str	r3, [r0, #0]
/workspace/benchmark/darknetz/ta/darknetp_ta.c:867
    221e:	6828      	ldr	r0, [r5, #0]
    2220:	460b      	mov	r3, r1
    2222:	2100      	movs	r1, #0
    2224:	4604      	mov	r4, r0
/workspace/benchmark/darknetz/ta/darknetp_ta.c:866
    2226:	428a      	cmp	r2, r1
    2228:	f77f af38 	ble.w	209c <TA_InvokeCommandEntryPoint+0x174>
/workspace/benchmark/darknetz/ta/darknetp_ta.c:867
    222c:	f854 5b04 	ldr.w	r5, [r4], #4
/workspace/benchmark/darknetz/ta/darknetp_ta.c:866
    2230:	3101      	adds	r1, #1
/workspace/benchmark/darknetz/ta/darknetp_ta.c:867
    2232:	f843 5b04 	str.w	r5, [r3], #4
    2236:	e7f6      	b.n	2226 <TA_InvokeCommandEntryPoint+0x2fe>
/workspace/benchmark/darknetz/ta/darknetp_ta.c:857
    2238:	ecb4 7a01 	vldmia	r4!, {s14}
    223c:	eeb4 7ae7 	vcmpe.f32	s14, s15
    2240:	eef1 fa10 	vmrs	APSR_nzcv, fpscr
    2244:	dd02      	ble.n	224c <TA_InvokeCommandEntryPoint+0x324>
/workspace/benchmark/darknetz/ta/darknetp_ta.c:858
    2246:	eef0 7a47 	vmov.f32	s15, s14
/workspace/benchmark/darknetz/ta/darknetp_ta.c:857
    224a:	461e      	mov	r6, r3
/workspace/benchmark/darknetz/ta/darknetp_ta.c:861
    224c:	f844 7c04 	str.w	r7, [r4, #-4]
/workspace/benchmark/darknetz/ta/darknetp_ta.c:856
    2250:	3301      	adds	r3, #1
    2252:	e7dd      	b.n	2210 <TA_InvokeCommandEntryPoint+0x2e8>
forward_network_back_TA_params():
/workspace/benchmark/darknetz/ta/darknetp_ta.c:556
    2254:	2806      	cmp	r0, #6
    2256:	f040 8088 	bne.w	236a <TA_InvokeCommandEntryPoint+0x442>
/workspace/benchmark/darknetz/ta/darknetp_ta.c:562
    225a:	4948      	ldr	r1, [pc, #288]	; (237c <TA_InvokeCommandEntryPoint+0x454>)
/workspace/benchmark/darknetz/ta/darknetp_ta.c:560
    225c:	6862      	ldr	r2, [r4, #4]
    225e:	6824      	ldr	r4, [r4, #0]
/workspace/benchmark/darknetz/ta/darknetp_ta.c:562
    2260:	5859      	ldr	r1, [r3, r1]
    2262:	f44f 733c 	mov.w	r3, #752	; 0x2f0
/workspace/benchmark/darknetz/ta/darknetp_ta.c:560
    2266:	0892      	lsrs	r2, r2, #2
/workspace/benchmark/darknetz/ta/darknetp_ta.c:562
    2268:	6808      	ldr	r0, [r1, #0]
    226a:	6989      	ldr	r1, [r1, #24]
    226c:	4343      	muls	r3, r0
    226e:	f5a3 733c 	sub.w	r3, r3, #752	; 0x2f0
    2272:	440b      	add	r3, r1
/workspace/benchmark/darknetz/ta/darknetp_ta.c:561
    2274:	2100      	movs	r1, #0
    2276:	428a      	cmp	r2, r1
    2278:	dc0a      	bgt.n	2290 <TA_InvokeCommandEntryPoint+0x368>
/workspace/benchmark/darknetz/ta/darknetp_ta.c:567
    227a:	494d      	ldr	r1, [pc, #308]	; (23b0 <TA_InvokeCommandEntryPoint+0x488>)
    227c:	4479      	add	r1, pc
    227e:	6889      	ldr	r1, [r1, #8]
    2280:	2901      	cmp	r1, #1
    2282:	f47f aeb4 	bne.w	1fee <TA_InvokeCommandEntryPoint+0xc6>
/workspace/benchmark/darknetz/ta/darknetp_ta.c:568
    2286:	484b      	ldr	r0, [pc, #300]	; (23b4 <TA_InvokeCommandEntryPoint+0x48c>)
    2288:	f8d3 11d4 	ldr.w	r1, [r3, #468]	; 0x1d4
    228c:	4478      	add	r0, pc
    228e:	e760      	b.n	2152 <TA_InvokeCommandEntryPoint+0x22a>
/workspace/benchmark/darknetz/ta/darknetp_ta.c:562
    2290:	f8d3 01d4 	ldr.w	r0, [r3, #468]	; 0x1d4
    2294:	eb00 0081 	add.w	r0, r0, r1, lsl #2
/workspace/benchmark/darknetz/ta/darknetp_ta.c:561
    2298:	3101      	adds	r1, #1
/workspace/benchmark/darknetz/ta/darknetp_ta.c:562
    229a:	6800      	ldr	r0, [r0, #0]
    229c:	f844 0b04 	str.w	r0, [r4], #4
    22a0:	e7e9      	b.n	2276 <TA_InvokeCommandEntryPoint+0x34e>
backward_network_back_TA_params():
/workspace/benchmark/darknetz/ta/darknetp_ta.c:685
    22a2:	2855      	cmp	r0, #85	; 0x55
    22a4:	d161      	bne.n	236a <TA_InvokeCommandEntryPoint+0x442>
/workspace/benchmark/darknetz/ta/darknetp_ta.c:693
    22a6:	4a35      	ldr	r2, [pc, #212]	; (237c <TA_InvokeCommandEntryPoint+0x454>)
/workspace/benchmark/darknetz/ta/darknetp_ta.c:690
    22a8:	6865      	ldr	r5, [r4, #4]
    22aa:	6827      	ldr	r7, [r4, #0]
    22ac:	68a4      	ldr	r4, [r4, #8]
/workspace/benchmark/darknetz/ta/darknetp_ta.c:693
    22ae:	589e      	ldr	r6, [r3, r2]
    22b0:	f44f 733c 	mov.w	r3, #752	; 0x2f0
/workspace/benchmark/darknetz/ta/darknetp_ta.c:690
    22b4:	08ad      	lsrs	r5, r5, #2
/workspace/benchmark/darknetz/ta/darknetp_ta.c:693
    22b6:	6832      	ldr	r2, [r6, #0]
    22b8:	4353      	muls	r3, r2
    22ba:	69b2      	ldr	r2, [r6, #24]
    22bc:	f5a3 733c 	sub.w	r3, r3, #752	; 0x2f0
    22c0:	4413      	add	r3, r2
/workspace/benchmark/darknetz/ta/darknetp_ta.c:692
    22c2:	2200      	movs	r2, #0
    22c4:	4295      	cmp	r5, r2
    22c6:	dc1a      	bgt.n	22fe <TA_InvokeCommandEntryPoint+0x3d6>
/workspace/benchmark/darknetz/ta/darknetp_ta.c:697
    22c8:	4a3b      	ldr	r2, [pc, #236]	; (23b8 <TA_InvokeCommandEntryPoint+0x490>)
    22ca:	447a      	add	r2, pc
    22cc:	6892      	ldr	r2, [r2, #8]
    22ce:	2a01      	cmp	r2, #1
    22d0:	f47f ae8d 	bne.w	1fee <TA_InvokeCommandEntryPoint+0xc6>
/workspace/benchmark/darknetz/ta/darknetp_ta.c:698
    22d4:	4839      	ldr	r0, [pc, #228]	; (23bc <TA_InvokeCommandEntryPoint+0x494>)
    22d6:	462a      	mov	r2, r5
    22d8:	f8d3 11d4 	ldr.w	r1, [r3, #468]	; 0x1d4
    22dc:	4478      	add	r0, pc
    22de:	f7ff fd55 	bl	1d8c <summary_array>
/workspace/benchmark/darknetz/ta/darknetp_ta.c:699
    22e2:	69b2      	ldr	r2, [r6, #24]
    22e4:	6833      	ldr	r3, [r6, #0]
    22e6:	f44f 713c 	mov.w	r1, #752	; 0x2f0
    22ea:	4835      	ldr	r0, [pc, #212]	; (23c0 <TA_InvokeCommandEntryPoint+0x498>)
    22ec:	4478      	add	r0, pc
    22ee:	fb01 2303 	mla	r3, r1, r3, r2
    22f2:	462a      	mov	r2, r5
    22f4:	f5a3 733c 	sub.w	r3, r3, #752	; 0x2f0
    22f8:	f8d3 11d0 	ldr.w	r1, [r3, #464]	; 0x1d0
    22fc:	e729      	b.n	2152 <TA_InvokeCommandEntryPoint+0x22a>
/workspace/benchmark/darknetz/ta/darknetp_ta.c:693
    22fe:	f8d3 01d4 	ldr.w	r0, [r3, #468]	; 0x1d4
    2302:	ea4f 0c82 	mov.w	ip, r2, lsl #2
    2306:	f857 1b04 	ldr.w	r1, [r7], #4
/workspace/benchmark/darknetz/ta/darknetp_ta.c:692
    230a:	3201      	adds	r2, #1
/workspace/benchmark/darknetz/ta/darknetp_ta.c:693
    230c:	4460      	add	r0, ip
    230e:	6001      	str	r1, [r0, #0]
/workspace/benchmark/darknetz/ta/darknetp_ta.c:694
    2310:	f8d3 11d0 	ldr.w	r1, [r3, #464]	; 0x1d0
    2314:	f854 0b04 	ldr.w	r0, [r4], #4
    2318:	4461      	add	r1, ip
    231a:	6008      	str	r0, [r1, #0]
    231c:	e7d2      	b.n	22c4 <TA_InvokeCommandEntryPoint+0x39c>
backward_network_back_TA_addidion_params():
/workspace/benchmark/darknetz/ta/darknetp_ta.c:714
    231e:	2806      	cmp	r0, #6
    2320:	d123      	bne.n	236a <TA_InvokeCommandEntryPoint+0x442>
/workspace/benchmark/darknetz/ta/darknetp_ta.c:722
    2322:	4916      	ldr	r1, [pc, #88]	; (237c <TA_InvokeCommandEntryPoint+0x454>)
/workspace/benchmark/darknetz/ta/darknetp_ta.c:719
    2324:	6862      	ldr	r2, [r4, #4]
    2326:	6824      	ldr	r4, [r4, #0]
/workspace/benchmark/darknetz/ta/darknetp_ta.c:722
    2328:	5859      	ldr	r1, [r3, r1]
    232a:	f44f 733c 	mov.w	r3, #752	; 0x2f0
/workspace/benchmark/darknetz/ta/darknetp_ta.c:719
    232e:	0892      	lsrs	r2, r2, #2
/workspace/benchmark/darknetz/ta/darknetp_ta.c:722
    2330:	6808      	ldr	r0, [r1, #0]
    2332:	6989      	ldr	r1, [r1, #24]
    2334:	4343      	muls	r3, r0
    2336:	f5a3 733c 	sub.w	r3, r3, #752	; 0x2f0
    233a:	440b      	add	r3, r1
/workspace/benchmark/darknetz/ta/darknetp_ta.c:721
    233c:	2100      	movs	r1, #0
    233e:	428a      	cmp	r2, r1
    2340:	dc0a      	bgt.n	2358 <TA_InvokeCommandEntryPoint+0x430>
/workspace/benchmark/darknetz/ta/darknetp_ta.c:726
    2342:	4920      	ldr	r1, [pc, #128]	; (23c4 <TA_InvokeCommandEntryPoint+0x49c>)
    2344:	4479      	add	r1, pc
    2346:	6889      	ldr	r1, [r1, #8]
    2348:	2901      	cmp	r1, #1
    234a:	f47f ae50 	bne.w	1fee <TA_InvokeCommandEntryPoint+0xc6>
/workspace/benchmark/darknetz/ta/darknetp_ta.c:727
    234e:	481e      	ldr	r0, [pc, #120]	; (23c8 <TA_InvokeCommandEntryPoint+0x4a0>)
    2350:	f8d3 11d4 	ldr.w	r1, [r3, #468]	; 0x1d4
    2354:	4478      	add	r0, pc
    2356:	e6fc      	b.n	2152 <TA_InvokeCommandEntryPoint+0x22a>
/workspace/benchmark/darknetz/ta/darknetp_ta.c:722
    2358:	f8d3 01d4 	ldr.w	r0, [r3, #468]	; 0x1d4
    235c:	eb00 0081 	add.w	r0, r0, r1, lsl #2
/workspace/benchmark/darknetz/ta/darknetp_ta.c:721
    2360:	3101      	adds	r1, #1
/workspace/benchmark/darknetz/ta/darknetp_ta.c:722
    2362:	6800      	ldr	r0, [r0, #0]
    2364:	f844 0b04 	str.w	r0, [r4], #4
    2368:	e7e9      	b.n	233e <TA_InvokeCommandEntryPoint+0x416>
make_netowork_TA_params():
/workspace/benchmark/darknetz/ta/darknetp_ta.c:121
    236a:	4802      	ldr	r0, [pc, #8]	; (2374 <TA_InvokeCommandEntryPoint+0x44c>)
    236c:	e640      	b.n	1ff0 <TA_InvokeCommandEntryPoint+0xc8>
    236e:	bf00      	nop
    2370:	3727c5ac 	.word	0x3727c5ac
    2374:	ffff0006 	.word	0xffff0006
    2378:	0000ce9a 	.word	0x0000ce9a
    237c:	00000038 	.word	0x00000038
    2380:	0000dfd6 	.word	0x0000dfd6
    2384:	0000adc0 	.word	0x0000adc0
    2388:	0000dfa8 	.word	0x0000dfa8
    238c:	0000adac 	.word	0x0000adac
    2390:	00000018 	.word	0x00000018
    2394:	0000000c 	.word	0x0000000c
    2398:	0000df66 	.word	0x0000df66
    239c:	0000ad8c 	.word	0x0000ad8c
    23a0:	0000ada9 	.word	0x0000ada9
    23a4:	0000dee4 	.word	0x0000dee4
    23a8:	0000de06 	.word	0x0000de06
    23ac:	0000003c 	.word	0x0000003c
    23b0:	0000de20 	.word	0x0000de20
    23b4:	0000ac95 	.word	0x0000ac95
    23b8:	0000ddd2 	.word	0x0000ddd2
    23bc:	0000ac69 	.word	0x0000ac69
    23c0:	0000ac7e 	.word	0x0000ac7e
    23c4:	0000dd58 	.word	0x0000dd58
    23c8:	0000ac3a 	.word	0x0000ac3a

000023cc <forward_softmax_layer_TA>:
forward_softmax_layer_TA():
/workspace/benchmark/darknetz/ta/softmax_layer_TA.c:47
    23cc:	b084      	sub	sp, #16
    23ce:	e92d 4ff0 	stmdb	sp!, {r4, r5, r6, r7, r8, r9, sl, fp, lr}
    23d2:	ed2d 8b02 	vpush	{d8}
    23d6:	b087      	sub	sp, #28
    23d8:	ac12      	add	r4, sp, #72	; 0x48
    23da:	f8dd a3f0 	ldr.w	sl, [sp, #1008]	; 0x3f0
    23de:	e884 000f 	stmia.w	r4, {r0, r1, r2, r3}
    23e2:	9b88      	ldr	r3, [sp, #544]	; 0x220
    23e4:	f8dd 9330 	ldr.w	r9, [sp, #816]	; 0x330
    23e8:	9304      	str	r3, [sp, #16]
    23ea:	9bfd      	ldr	r3, [sp, #1012]	; 0x3f4
    23ec:	f8dd 806c 	ldr.w	r8, [sp, #108]	; 0x6c
    23f0:	9c1e      	ldr	r4, [sp, #120]	; 0x78
    23f2:	ed9d 8a6a 	vldr	s16, [sp, #424]	; 0x1a8
    23f6:	9f87      	ldr	r7, [sp, #540]	; 0x21c
    23f8:	9305      	str	r3, [sp, #20]
/workspace/benchmark/darknetz/ta/softmax_layer_TA.c:48
    23fa:	f1b9 0f00 	cmp.w	r9, #0
    23fe:	d038      	beq.n	2472 <forward_softmax_layer_TA+0xa6>
    2400:	2500      	movs	r5, #0
    2402:	462e      	mov	r6, r5
/workspace/benchmark/darknetz/ta/softmax_layer_TA.c:51 (discriminator 1)
    2404:	f8d9 3018 	ldr.w	r3, [r9, #24]
    2408:	429e      	cmp	r6, r3
    240a:	db1b      	blt.n	2444 <forward_softmax_layer_TA+0x78>
/workspace/benchmark/darknetz/ta/softmax_layer_TA.c:60
    240c:	9b05      	ldr	r3, [sp, #20]
    240e:	b193      	cbz	r3, 2436 <forward_softmax_layer_TA+0x6a>
/workspace/benchmark/darknetz/ta/softmax_layer_TA.c:60 (discriminator 1)
    2410:	9b46      	ldr	r3, [sp, #280]	; 0x118
    2412:	b983      	cbnz	r3, 2436 <forward_softmax_layer_TA+0x6a>
/workspace/benchmark/darknetz/ta/softmax_layer_TA.c:61
    2414:	fb04 f408 	mul.w	r4, r4, r8
    2418:	9b04      	ldr	r3, [sp, #16]
    241a:	9300      	str	r3, [sp, #0]
    241c:	4639      	mov	r1, r7
    241e:	9b86      	ldr	r3, [sp, #536]	; 0x218
    2420:	4620      	mov	r0, r4
    2422:	9a05      	ldr	r2, [sp, #20]
    2424:	f7fd ffae 	bl	384 <softmax_x_ent_cpu_TA>
/workspace/benchmark/darknetz/ta/softmax_layer_TA.c:62
    2428:	9d75      	ldr	r5, [sp, #468]	; 0x1d4
    242a:	4621      	mov	r1, r4
    242c:	9804      	ldr	r0, [sp, #16]
    242e:	f002 fd3d 	bl	4eac <sum_array_TA>
    2432:	ed85 0a00 	vstr	s0, [r5]
/workspace/benchmark/darknetz/ta/softmax_layer_TA.c:64
    2436:	b007      	add	sp, #28
    2438:	ecbd 8b02 	vpop	{d8}
    243c:	e8bd 4ff0 	ldmia.w	sp!, {r4, r5, r6, r7, r8, r9, sl, fp, lr}
    2440:	b004      	add	sp, #16
    2442:	4770      	bx	lr
/workspace/benchmark/darknetz/ta/softmax_layer_TA.c:52 (discriminator 3)
    2444:	f8d9 301c 	ldr.w	r3, [r9, #28]
/workspace/benchmark/darknetz/ta/softmax_layer_TA.c:53 (discriminator 3)
    2448:	00a8      	lsls	r0, r5, #2
    244a:	2101      	movs	r1, #1
    244c:	2200      	movs	r2, #0
    244e:	eeb0 0a48 	vmov.f32	s0, s16
/workspace/benchmark/darknetz/ta/softmax_layer_TA.c:52 (discriminator 3)
    2452:	f853 b026 	ldr.w	fp, [r3, r6, lsl #2]
/workspace/benchmark/darknetz/ta/softmax_layer_TA.c:53 (discriminator 3)
    2456:	183b      	adds	r3, r7, r0
    2458:	4450      	add	r0, sl
    245a:	9303      	str	r3, [sp, #12]
    245c:	2301      	movs	r3, #1
    245e:	e88d 000e 	stmia.w	sp, {r1, r2, r3}
    2462:	4623      	mov	r3, r4
    2464:	4642      	mov	r2, r8
    2466:	4659      	mov	r1, fp
    2468:	f7fd ff5c 	bl	324 <softmax_cpu_TA>
/workspace/benchmark/darknetz/ta/softmax_layer_TA.c:54 (discriminator 3)
    246c:	445d      	add	r5, fp
/workspace/benchmark/darknetz/ta/softmax_layer_TA.c:51 (discriminator 3)
    246e:	3601      	adds	r6, #1
    2470:	e7c8      	b.n	2404 <forward_softmax_layer_TA+0x38>
    2472:	9b2c      	ldr	r3, [sp, #176]	; 0xb0
/workspace/benchmark/darknetz/ta/softmax_layer_TA.c:57
    2474:	2201      	movs	r2, #1
    2476:	9300      	str	r3, [sp, #0]
    2478:	eeb0 0a48 	vmov.f32	s0, s16
    247c:	9202      	str	r2, [sp, #8]
    247e:	4650      	mov	r0, sl
    2480:	9703      	str	r7, [sp, #12]
    2482:	4642      	mov	r2, r8
    2484:	fb94 f1f3 	sdiv	r1, r4, r3
    2488:	4623      	mov	r3, r4
    248a:	9101      	str	r1, [sp, #4]
    248c:	f7fd ff4a 	bl	324 <softmax_cpu_TA>
    2490:	e7bc      	b.n	240c <forward_softmax_layer_TA+0x40>

00002492 <backward_softmax_layer_TA>:
backward_softmax_layer_TA():
/workspace/benchmark/darknetz/ta/softmax_layer_TA.c:68
    2492:	b084      	sub	sp, #16
/workspace/benchmark/darknetz/ta/softmax_layer_TA.c:69
    2494:	eeb7 0a00 	vmov.f32	s0, #112	; 0x3f800000  1.0
/workspace/benchmark/darknetz/ta/softmax_layer_TA.c:68
    2498:	b410      	push	{r4}
    249a:	ac01      	add	r4, sp, #4
    249c:	e884 000f 	stmia.w	r4, {r0, r1, r2, r3}
/workspace/benchmark/darknetz/ta/softmax_layer_TA.c:69
    24a0:	2201      	movs	r2, #1
    24a2:	9c0a      	ldr	r4, [sp, #40]	; 0x28
    24a4:	980d      	ldr	r0, [sp, #52]	; 0x34
    24a6:	9205      	str	r2, [sp, #20]
    24a8:	9bed      	ldr	r3, [sp, #948]	; 0x3b4
    24aa:	9975      	ldr	r1, [sp, #468]	; 0x1d4
    24ac:	4360      	muls	r0, r4
/workspace/benchmark/darknetz/ta/softmax_layer_TA.c:70
    24ae:	f85d 4b04 	ldr.w	r4, [sp], #4
    24b2:	b004      	add	sp, #16
/workspace/benchmark/darknetz/ta/softmax_layer_TA.c:69
    24b4:	f7fd be78 	b.w	1a8 <axpy_cpu_TA>

000024b8 <make_softmax_layer_TA_new>:
make_softmax_layer_TA_new():
/workspace/benchmark/darknetz/ta/softmax_layer_TA.c:16
    24b8:	e92d 47f0 	stmdb	sp!, {r4, r5, r6, r7, r8, r9, sl, lr}
    24bc:	4688      	mov	r8, r1
    24be:	4604      	mov	r4, r0
/workspace/benchmark/darknetz/ta/softmax_layer_TA.c:17
    24c0:	fb92 f1f3 	sdiv	r1, r2, r3
/workspace/benchmark/darknetz/ta/softmax_layer_TA.c:16
    24c4:	ed2d 8b02 	vpush	{d8}
    24c8:	4615      	mov	r5, r2
    24ca:	461e      	mov	r6, r3
    24cc:	eeb0 8a40 	vmov.f32	s16, s0
/workspace/benchmark/darknetz/ta/softmax_layer_TA.c:17
    24d0:	fb03 2111 	mls	r1, r3, r1, r2
    24d4:	b151      	cbz	r1, 24ec <make_softmax_layer_TA_new+0x34>
/workspace/benchmark/darknetz/ta/softmax_layer_TA.c:17 (discriminator 1)
    24d6:	4b26      	ldr	r3, [pc, #152]	; (2570 <make_softmax_layer_TA_new+0xb8>)
    24d8:	2211      	movs	r2, #17
    24da:	4926      	ldr	r1, [pc, #152]	; (2574 <make_softmax_layer_TA_new+0xbc>)
    24dc:	4826      	ldr	r0, [pc, #152]	; (2578 <make_softmax_layer_TA_new+0xc0>)
    24de:	447b      	add	r3, pc
    24e0:	4479      	add	r1, pc
    24e2:	4478      	add	r0, pc
    24e4:	f004 f8ce 	bl	6684 <_assert_log>
    24e8:	f004 f8e0 	bl	66ac <_assert_break>
/workspace/benchmark/darknetz/ta/softmax_layer_TA.c:26
    24ec:	fb08 f705 	mul.w	r7, r8, r5
/workspace/benchmark/darknetz/ta/softmax_layer_TA.c:19
    24f0:	f44f 723c 	mov.w	r2, #752	; 0x2f0
    24f4:	f00a f98f 	bl	c816 <memset>
/workspace/benchmark/darknetz/ta/softmax_layer_TA.c:26
    24f8:	2104      	movs	r1, #4
    24fa:	4638      	mov	r0, r7
    24fc:	f003 f8a8 	bl	5650 <calloc>
/workspace/benchmark/darknetz/ta/softmax_layer_TA.c:27
    2500:	2104      	movs	r1, #4
/workspace/benchmark/darknetz/ta/softmax_layer_TA.c:26
    2502:	4681      	mov	r9, r0
/workspace/benchmark/darknetz/ta/softmax_layer_TA.c:27
    2504:	4638      	mov	r0, r7
    2506:	f003 f8a3 	bl	5650 <calloc>
/workspace/benchmark/darknetz/ta/softmax_layer_TA.c:28
    250a:	2104      	movs	r1, #4
/workspace/benchmark/darknetz/ta/softmax_layer_TA.c:27
    250c:	4682      	mov	sl, r0
/workspace/benchmark/darknetz/ta/softmax_layer_TA.c:28
    250e:	4638      	mov	r0, r7
    2510:	f003 f89e 	bl	5650 <calloc>
/workspace/benchmark/darknetz/ta/softmax_layer_TA.c:29
    2514:	2104      	movs	r1, #4
/workspace/benchmark/darknetz/ta/softmax_layer_TA.c:28
    2516:	4607      	mov	r7, r0
/workspace/benchmark/darknetz/ta/softmax_layer_TA.c:29
    2518:	2001      	movs	r0, #1
    251a:	f003 f899 	bl	5650 <calloc>
/workspace/benchmark/darknetz/ta/softmax_layer_TA.c:41
    251e:	2304      	movs	r3, #4
    2520:	6023      	str	r3, [r4, #0]
    2522:	4b16      	ldr	r3, [pc, #88]	; (257c <make_softmax_layer_TA_new+0xc4>)
    2524:	ed84 8a58 	vstr	s16, [r4, #352]	; 0x160
    2528:	447b      	add	r3, pc
    252a:	60e3      	str	r3, [r4, #12]
    252c:	4b14      	ldr	r3, [pc, #80]	; (2580 <make_softmax_layer_TA_new+0xc8>)
    252e:	f8c4 018c 	str.w	r0, [r4, #396]	; 0x18c
/workspace/benchmark/darknetz/ta/softmax_layer_TA.c:42
    2532:	4620      	mov	r0, r4
/workspace/benchmark/darknetz/ta/softmax_layer_TA.c:41
    2534:	447b      	add	r3, pc
    2536:	6123      	str	r3, [r4, #16]
    2538:	9b0b      	ldr	r3, [sp, #44]	; 0x2c
    253a:	64a3      	str	r3, [r4, #72]	; 0x48
    253c:	9b0a      	ldr	r3, [sp, #40]	; 0x28
    253e:	64e3      	str	r3, [r4, #76]	; 0x4c
    2540:	9b0c      	ldr	r3, [sp, #48]	; 0x30
    2542:	6523      	str	r3, [r4, #80]	; 0x50
    2544:	9b0d      	ldr	r3, [sp, #52]	; 0x34
    2546:	f8c4 3080 	str.w	r3, [r4, #128]	; 0x80
    254a:	9b0e      	ldr	r3, [sp, #56]	; 0x38
/workspace/benchmark/darknetz/ta/softmax_layer_TA.c:42
    254c:	ecbd 8b02 	vpop	{d8}
/workspace/benchmark/darknetz/ta/softmax_layer_TA.c:41
    2550:	f8c4 8024 	str.w	r8, [r4, #36]	; 0x24
    2554:	6325      	str	r5, [r4, #48]	; 0x30
    2556:	6365      	str	r5, [r4, #52]	; 0x34
    2558:	66a6      	str	r6, [r4, #104]	; 0x68
    255a:	f8c4 30d0 	str.w	r3, [r4, #208]	; 0xd0
    255e:	f8c4 71d0 	str.w	r7, [r4, #464]	; 0x1d0
    2562:	f8c4 a1d4 	str.w	sl, [r4, #468]	; 0x1d4
    2566:	f8c4 91d8 	str.w	r9, [r4, #472]	; 0x1d8
/workspace/benchmark/darknetz/ta/softmax_layer_TA.c:42
    256a:	e8bd 87f0 	ldmia.w	sp!, {r4, r5, r6, r7, r8, r9, sl, pc}
    256e:	bf00      	nop
    2570:	0000aade 	.word	0x0000aade
    2574:	0000aaf6 	.word	0x0000aaf6
    2578:	0000ab07 	.word	0x0000ab07
    257c:	fffffea1 	.word	0xfffffea1
    2580:	ffffff5b 	.word	0xffffff5b

00002584 <forward_connected_layer_TA_new>:
forward_connected_layer_TA_new():
/workspace/benchmark/darknetz/ta/connected_layer_TA.c:19
    2584:	b084      	sub	sp, #16
/workspace/benchmark/darknetz/ta/connected_layer_TA.c:20
    2586:	ed9f 0a28 	vldr	s0, [pc, #160]	; 2628 <forward_connected_layer_TA_new+0xa4>
/workspace/benchmark/darknetz/ta/connected_layer_TA.c:19
    258a:	b5f0      	push	{r4, r5, r6, r7, lr}
    258c:	f5ad 7d71 	sub.w	sp, sp, #964	; 0x3c4
    2590:	acf6      	add	r4, sp, #984	; 0x3d8
    2592:	e884 000f 	stmia.w	r4, {r0, r1, r2, r3}
/workspace/benchmark/darknetz/ta/connected_layer_TA.c:20
    2596:	2201      	movs	r2, #1
    2598:	f8dd 540c 	ldr.w	r5, [sp, #1036]	; 0x40c
    259c:	9eff      	ldr	r6, [sp, #1020]	; 0x3fc
    259e:	f8dd 45ac 	ldr.w	r4, [sp, #1452]	; 0x5ac
    25a2:	4621      	mov	r1, r4
    25a4:	fb05 f706 	mul.w	r7, r5, r6
    25a8:	4638      	mov	r0, r7
    25aa:	f7fd fd39 	bl	20 <fill_cpu_TA>
/workspace/benchmark/darknetz/ta/connected_layer_TA.c:29
    25ae:	eef7 0a00 	vmov.f32	s1, #112	; 0x3f800000  1.0
    25b2:	f8dd 25a0 	ldr.w	r2, [sp, #1440]	; 0x5a0
    25b6:	2101      	movs	r1, #1
/workspace/benchmark/darknetz/ta/connected_layer_TA.c:23
    25b8:	f8dd 3408 	ldr.w	r3, [sp, #1032]	; 0x408
/workspace/benchmark/darknetz/ta/connected_layer_TA.c:29
    25bc:	2000      	movs	r0, #0
    25be:	9203      	str	r2, [sp, #12]
    25c0:	eeb0 0a60 	vmov.f32	s0, s1
    25c4:	f8dd 2780 	ldr.w	r2, [sp, #1920]	; 0x780
    25c8:	9304      	str	r3, [sp, #16]
    25ca:	9302      	str	r3, [sp, #8]
    25cc:	9201      	str	r2, [sp, #4]
    25ce:	4632      	mov	r2, r6
    25d0:	9300      	str	r3, [sp, #0]
    25d2:	462b      	mov	r3, r5
    25d4:	9506      	str	r5, [sp, #24]
    25d6:	9405      	str	r4, [sp, #20]
    25d8:	f000 fd1a 	bl	3010 <gemm_TA>
/workspace/benchmark/darknetz/ta/connected_layer_TA.c:31
    25dc:	9bfd      	ldr	r3, [sp, #1012]	; 0x3f4
    25de:	b1cb      	cbz	r3, 2614 <forward_connected_layer_TA_new+0x90>
/workspace/benchmark/darknetz/ta/connected_layer_TA.c:32
    25e0:	22dc      	movs	r2, #220	; 0xdc
    25e2:	f50d 61d9 	add.w	r1, sp, #1736	; 0x6c8
    25e6:	a8b8      	add	r0, sp, #736	; 0x2e0
    25e8:	f00a f90a 	bl	c800 <memcpy>
    25ec:	f44f 7238 	mov.w	r2, #736	; 0x2e0
    25f0:	a9fa      	add	r1, sp, #1000	; 0x3e8
    25f2:	4668      	mov	r0, sp
    25f4:	f00a f904 	bl	c800 <memcpy>
    25f8:	abf6      	add	r3, sp, #984	; 0x3d8
    25fa:	cb0f      	ldmia	r3, {r0, r1, r2, r3}
    25fc:	f001 faf8 	bl	3bf0 <forward_batchnorm_layer_TA>
/workspace/benchmark/darknetz/ta/connected_layer_TA.c:36
    2600:	9af7      	ldr	r2, [sp, #988]	; 0x3dc
    2602:	4639      	mov	r1, r7
    2604:	4620      	mov	r0, r4
/workspace/benchmark/darknetz/ta/connected_layer_TA.c:37
    2606:	f50d 7d71 	add.w	sp, sp, #964	; 0x3c4
    260a:	e8bd 40f0 	ldmia.w	sp!, {r4, r5, r6, r7, lr}
    260e:	b004      	add	sp, #16
/workspace/benchmark/darknetz/ta/connected_layer_TA.c:36
    2610:	f7fe bd90 	b.w	1134 <activate_array_TA>
/workspace/benchmark/darknetz/ta/connected_layer_TA.c:34
    2614:	2301      	movs	r3, #1
    2616:	4632      	mov	r2, r6
    2618:	9300      	str	r3, [sp, #0]
    261a:	4620      	mov	r0, r4
    261c:	462b      	mov	r3, r5
    261e:	f8dd 1590 	ldr.w	r1, [sp, #1424]	; 0x590
    2622:	f001 fea4 	bl	436e <add_bias_TA>
    2626:	e7eb      	b.n	2600 <forward_connected_layer_TA_new+0x7c>
    2628:	00000000 	.word	0x00000000

0000262c <backward_connected_layer_TA_new>:
backward_connected_layer_TA_new():
/workspace/benchmark/darknetz/ta/connected_layer_TA.c:40
    262c:	b084      	sub	sp, #16
    262e:	b5f0      	push	{r4, r5, r6, r7, lr}
    2630:	f5ad 7d71 	sub.w	sp, sp, #964	; 0x3c4
    2634:	acf6      	add	r4, sp, #984	; 0x3d8
    2636:	e884 000f 	stmia.w	r4, {r0, r1, r2, r3}
/workspace/benchmark/darknetz/ta/connected_layer_TA.c:41
    263a:	f8dd 05ac 	ldr.w	r0, [sp, #1452]	; 0x5ac
    263e:	9eff      	ldr	r6, [sp, #1020]	; 0x3fc
    2640:	f8dd 540c 	ldr.w	r5, [sp, #1036]	; 0x40c
    2644:	f8dd 75a8 	ldr.w	r7, [sp, #1448]	; 0x5a8
    2648:	9af7      	ldr	r2, [sp, #988]	; 0x3dc
    264a:	463b      	mov	r3, r7
    264c:	f8dd 4408 	ldr.w	r4, [sp, #1032]	; 0x408
    2650:	fb05 f106 	mul.w	r1, r5, r6
    2654:	f7fe fe5e 	bl	1314 <gradient_array_TA>
/workspace/benchmark/darknetz/ta/connected_layer_TA.c:43
    2658:	9bfd      	ldr	r3, [sp, #1012]	; 0x3f4
    265a:	2b00      	cmp	r3, #0
    265c:	d040      	beq.n	26e0 <backward_connected_layer_TA_new+0xb4>
/workspace/benchmark/darknetz/ta/connected_layer_TA.c:44
    265e:	22dc      	movs	r2, #220	; 0xdc
    2660:	f50d 61d9 	add.w	r1, sp, #1736	; 0x6c8
    2664:	a8b8      	add	r0, sp, #736	; 0x2e0
    2666:	f00a f8cb 	bl	c800 <memcpy>
    266a:	f44f 7238 	mov.w	r2, #736	; 0x2e0
    266e:	a9fa      	add	r1, sp, #1000	; 0x3e8
    2670:	4668      	mov	r0, sp
    2672:	f00a f8c5 	bl	c800 <memcpy>
    2676:	abf6      	add	r3, sp, #984	; 0x3d8
    2678:	cb0f      	ldmia	r3, {r0, r1, r2, r3}
    267a:	f001 fccb 	bl	4014 <backward_batchnorm_layer_TA>
/workspace/benchmark/darknetz/ta/connected_layer_TA.c:56
    267e:	eef7 0a00 	vmov.f32	s1, #112	; 0x3f800000  1.0
    2682:	f8dd 35a4 	ldr.w	r3, [sp, #1444]	; 0x5a4
    2686:	9305      	str	r3, [sp, #20]
    2688:	462a      	mov	r2, r5
    268a:	f8dd 3780 	ldr.w	r3, [sp, #1920]	; 0x780
    268e:	2100      	movs	r1, #0
    2690:	9303      	str	r3, [sp, #12]
    2692:	eeb0 0a60 	vmov.f32	s0, s1
    2696:	4623      	mov	r3, r4
    2698:	9406      	str	r4, [sp, #24]
    269a:	9404      	str	r4, [sp, #16]
    269c:	2001      	movs	r0, #1
    269e:	9502      	str	r5, [sp, #8]
    26a0:	e88d 00c0 	stmia.w	sp, {r6, r7}
    26a4:	f000 fcb4 	bl	3010 <gemm_TA>
/workspace/benchmark/darknetz/ta/connected_layer_TA.c:67
    26a8:	f8dd 3788 	ldr.w	r3, [sp, #1928]	; 0x788
/workspace/benchmark/darknetz/ta/connected_layer_TA.c:69
    26ac:	b313      	cbz	r3, 26f4 <backward_connected_layer_TA_new+0xc8>
/workspace/benchmark/darknetz/ta/connected_layer_TA.c:69 (discriminator 1)
    26ae:	eef7 0a00 	vmov.f32	s1, #112	; 0x3f800000  1.0
    26b2:	93ff      	str	r3, [sp, #1020]	; 0x3fc
    26b4:	2100      	movs	r1, #0
    26b6:	f8dd 35a0 	ldr.w	r3, [sp, #1440]	; 0x5a0
    26ba:	93fd      	str	r3, [sp, #1012]	; 0x3f4
    26bc:	4632      	mov	r2, r6
    26be:	f8cd 4400 	str.w	r4, [sp, #1024]	; 0x400
    26c2:	eeb0 0a60 	vmov.f32	s0, s1
    26c6:	94fe      	str	r4, [sp, #1016]	; 0x3f8
    26c8:	4623      	mov	r3, r4
    26ca:	95fc      	str	r5, [sp, #1008]	; 0x3f0
    26cc:	4608      	mov	r0, r1
    26ce:	97fb      	str	r7, [sp, #1004]	; 0x3ec
    26d0:	95fa      	str	r5, [sp, #1000]	; 0x3e8
/workspace/benchmark/darknetz/ta/connected_layer_TA.c:71 (discriminator 1)
    26d2:	f50d 7d71 	add.w	sp, sp, #964	; 0x3c4
    26d6:	e8bd 40f0 	ldmia.w	sp!, {r4, r5, r6, r7, lr}
    26da:	b004      	add	sp, #16
/workspace/benchmark/darknetz/ta/connected_layer_TA.c:69 (discriminator 1)
    26dc:	f000 bc98 	b.w	3010 <gemm_TA>
/workspace/benchmark/darknetz/ta/connected_layer_TA.c:46
    26e0:	2301      	movs	r3, #1
    26e2:	4632      	mov	r2, r6
    26e4:	9300      	str	r3, [sp, #0]
    26e6:	4639      	mov	r1, r7
    26e8:	462b      	mov	r3, r5
    26ea:	f8dd 0594 	ldr.w	r0, [sp, #1428]	; 0x594
    26ee:	f001 fe90 	bl	4412 <backward_bias_TA>
    26f2:	e7c4      	b.n	267e <backward_connected_layer_TA_new+0x52>
/workspace/benchmark/darknetz/ta/connected_layer_TA.c:71
    26f4:	f50d 7d71 	add.w	sp, sp, #964	; 0x3c4
    26f8:	e8bd 40f0 	ldmia.w	sp!, {r4, r5, r6, r7, lr}
    26fc:	b004      	add	sp, #16
    26fe:	4770      	bx	lr

00002700 <update_connected_layer_TA_new>:
update_connected_layer_TA_new():
/workspace/benchmark/darknetz/ta/connected_layer_TA.c:75
    2700:	b084      	sub	sp, #16
    2702:	e92d 47f0 	stmdb	sp!, {r4, r5, r6, r7, r8, r9, sl, lr}
/workspace/benchmark/darknetz/ta/connected_layer_TA.c:81
    2706:	2501      	movs	r5, #1
/workspace/benchmark/darknetz/ta/connected_layer_TA.c:75
    2708:	ed2d 8b04 	vpush	{d8-d9}
    270c:	b082      	sub	sp, #8
    270e:	ac0e      	add	r4, sp, #56	; 0x38
/workspace/benchmark/darknetz/ta/connected_layer_TA.c:81
    2710:	eddd 7aca 	vldr	s15, [sp, #808]	; 0x328
/workspace/benchmark/darknetz/ta/connected_layer_TA.c:76
    2714:	ed9d 7a40 	vldr	s14, [sp, #256]	; 0x100
/workspace/benchmark/darknetz/ta/connected_layer_TA.c:75
    2718:	e884 000f 	stmia.w	r4, {r0, r1, r2, r3}
/workspace/benchmark/darknetz/ta/connected_layer_TA.c:81
    271c:	462a      	mov	r2, r5
/workspace/benchmark/darknetz/ta/connected_layer_TA.c:77
    271e:	eddd 8acc 	vldr	s17, [sp, #816]	; 0x330
/workspace/benchmark/darknetz/ta/connected_layer_TA.c:81
    2722:	eeb8 8ae7 	vcvt.f32.s32	s16, s15
/workspace/benchmark/darknetz/ta/connected_layer_TA.c:76
    2726:	eddd 7acb 	vldr	s15, [sp, #812]	; 0x32c
    272a:	9c1b      	ldr	r4, [sp, #108]	; 0x6c
    272c:	f8dd 91f4 	ldr.w	r9, [sp, #500]	; 0x1f4
/workspace/benchmark/darknetz/ta/connected_layer_TA.c:81
    2730:	9b7c      	ldr	r3, [sp, #496]	; 0x1f0
    2732:	4620      	mov	r0, r4
/workspace/benchmark/darknetz/ta/connected_layer_TA.c:76
    2734:	ee67 7a87 	vmul.f32	s15, s15, s14
/workspace/benchmark/darknetz/ta/connected_layer_TA.c:81
    2738:	4649      	mov	r1, r9
    273a:	9500      	str	r5, [sp, #0]
    273c:	f8dd a068 	ldr.w	sl, [sp, #104]	; 0x68
    2740:	f8dd 81fc 	ldr.w	r8, [sp, #508]	; 0x1fc
    2744:	ee87 9a88 	vdiv.f32	s18, s15, s16
    2748:	9f80      	ldr	r7, [sp, #512]	; 0x200
    274a:	9e81      	ldr	r6, [sp, #516]	; 0x204
/workspace/benchmark/darknetz/ta/connected_layer_TA.c:78
    274c:	eddd 9acd 	vldr	s19, [sp, #820]	; 0x334
/workspace/benchmark/darknetz/ta/connected_layer_TA.c:81
    2750:	eeb0 0a49 	vmov.f32	s0, s18
    2754:	f7fd fd28 	bl	1a8 <axpy_cpu_TA>
/workspace/benchmark/darknetz/ta/connected_layer_TA.c:83
    2758:	462a      	mov	r2, r5
    275a:	4649      	mov	r1, r9
    275c:	eeb0 0a68 	vmov.f32	s0, s17
    2760:	4620      	mov	r0, r4
    2762:	f7fd fd13 	bl	18c <scal_cpu_TA>
/workspace/benchmark/darknetz/ta/connected_layer_TA.c:85
    2766:	9b15      	ldr	r3, [sp, #84]	; 0x54
    2768:	b17b      	cbz	r3, 278a <update_connected_layer_TA_new+0x8a>
/workspace/benchmark/darknetz/ta/connected_layer_TA.c:86
    276a:	462a      	mov	r2, r5
    276c:	4641      	mov	r1, r8
    276e:	eeb0 0a49 	vmov.f32	s0, s18
    2772:	4620      	mov	r0, r4
    2774:	9500      	str	r5, [sp, #0]
    2776:	9b7e      	ldr	r3, [sp, #504]	; 0x1f8
    2778:	f7fd fd16 	bl	1a8 <axpy_cpu_TA>
/workspace/benchmark/darknetz/ta/connected_layer_TA.c:87
    277c:	462a      	mov	r2, r5
    277e:	4641      	mov	r1, r8
    2780:	eeb0 0a68 	vmov.f32	s0, s17
    2784:	4620      	mov	r0, r4
    2786:	f7fd fd01 	bl	18c <scal_cpu_TA>
/workspace/benchmark/darknetz/ta/connected_layer_TA.c:90
    278a:	fb04 f40a 	mul.w	r4, r4, sl
    278e:	2501      	movs	r5, #1
    2790:	4633      	mov	r3, r6
    2792:	462a      	mov	r2, r5
    2794:	4639      	mov	r1, r7
    2796:	ee29 0ac8 	vnmul.f32	s0, s19, s16
    279a:	4620      	mov	r0, r4
    279c:	9500      	str	r5, [sp, #0]
    279e:	f7fd fd03 	bl	1a8 <axpy_cpu_TA>
/workspace/benchmark/darknetz/ta/connected_layer_TA.c:91
    27a2:	462a      	mov	r2, r5
    27a4:	4631      	mov	r1, r6
    27a6:	eeb0 0a49 	vmov.f32	s0, s18
    27aa:	4620      	mov	r0, r4
    27ac:	9500      	str	r5, [sp, #0]
    27ae:	463b      	mov	r3, r7
    27b0:	f7fd fcfa 	bl	1a8 <axpy_cpu_TA>
/workspace/benchmark/darknetz/ta/connected_layer_TA.c:92
    27b4:	462a      	mov	r2, r5
    27b6:	4631      	mov	r1, r6
    27b8:	eeb0 0a68 	vmov.f32	s0, s17
    27bc:	4620      	mov	r0, r4
/workspace/benchmark/darknetz/ta/connected_layer_TA.c:93
    27be:	b002      	add	sp, #8
    27c0:	ecbd 8b04 	vpop	{d8-d9}
    27c4:	e8bd 47f0 	ldmia.w	sp!, {r4, r5, r6, r7, r8, r9, sl, lr}
    27c8:	b004      	add	sp, #16
/workspace/benchmark/darknetz/ta/connected_layer_TA.c:92
    27ca:	f7fd bcdf 	b.w	18c <scal_cpu_TA>

000027ce <make_connected_layer_TA_new>:
make_connected_layer_TA_new():
/workspace/benchmark/darknetz/ta/connected_layer_TA.c:96
    27ce:	e92d 4ff0 	stmdb	sp!, {r4, r5, r6, r7, r8, r9, sl, fp, lr}
    27d2:	461d      	mov	r5, r3
    27d4:	4604      	mov	r4, r0
    27d6:	ed2d 8b02 	vpush	{d8}
    27da:	b095      	sub	sp, #84	; 0x54
/workspace/benchmark/darknetz/ta/connected_layer_TA.c:128
    27dc:	f04f 0800 	mov.w	r8, #0
/workspace/benchmark/darknetz/ta/connected_layer_TA.c:96
    27e0:	910b      	str	r1, [sp, #44]	; 0x2c
/workspace/benchmark/darknetz/ta/connected_layer_TA.c:98
    27e2:	2100      	movs	r1, #0
/workspace/benchmark/darknetz/ta/connected_layer_TA.c:96
    27e4:	9201      	str	r2, [sp, #4]
/workspace/benchmark/darknetz/ta/connected_layer_TA.c:98
    27e6:	f44f 723c 	mov.w	r2, #752	; 0x2f0
/workspace/benchmark/darknetz/ta/connected_layer_TA.c:96
    27ea:	9e21      	ldr	r6, [sp, #132]	; 0x84
    27ec:	9f22      	ldr	r7, [sp, #136]	; 0x88
/workspace/benchmark/darknetz/ta/connected_layer_TA.c:98
    27ee:	f00a f812 	bl	c816 <memset>
/workspace/benchmark/darknetz/ta/connected_layer_TA.c:113
    27f2:	9b0b      	ldr	r3, [sp, #44]	; 0x2c
    27f4:	2104      	movs	r1, #4
    27f6:	fb03 fb05 	mul.w	fp, r3, r5
    27fa:	4658      	mov	r0, fp
    27fc:	f002 ff28 	bl	5650 <calloc>
/workspace/benchmark/darknetz/ta/connected_layer_TA.c:114
