
a734eed9-d6a1-4244-aa50-7c99719e7b7b.elf:     file format elf32-littlearm
a734eed9-d6a1-4244-aa50-7c99719e7b7b.elf
architecture: arm, flags 0x00000150:
HAS_SYMS, DYNAMIC, D_PAGED
start address 0x00000020

Program Header:
0x70000001 off    0x00018e54 vaddr 0x00008e54 paddr 0x00008e54 align 2**2
         filesz 0x00000640 memsz 0x00000640 flags r--
    LOAD off    0x00010000 vaddr 0x00000000 paddr 0x00000000 align 2**16
         filesz 0x00007c18 memsz 0x00007c18 flags r-x
    LOAD off    0x00017c18 vaddr 0x00007c18 paddr 0x00007c18 align 2**16
         filesz 0x00001c40 memsz 0x00001c40 flags r--
    LOAD off    0x0001a000 vaddr 0x0000a000 paddr 0x0000a000 align 2**16
         filesz 0x00000080 memsz 0x0000a0f0 flags rw-
 DYNAMIC off    0x000195c8 vaddr 0x000095c8 paddr 0x000095c8 align 2**2
         filesz 0x00000080 memsz 0x00000080 flags rw-

Dynamic Section:
  HASH                 0x00009808
  STRTAB               0x00009738
  SYMTAB               0x00009648
  STRSZ                0x000000ce
  SYMENT               0x00000010
  DEBUG                0x00000000
  REL                  0x000094d0
  RELSZ                0x000000f8
  RELENT               0x00000008
  FLAGS_1              0x08000000
  RELCOUNT             0x00000013
private flags = 5000400: [Version5 EABI] [hard-float ABI]

Sections:
Idx Name          Size      VMA       LMA       File off  Algn
  0 .ta_head      00000020  00000000  00000000  00010000  2**3
                  CONTENTS, ALLOC, LOAD, DATA
  1 .text         00007bf8  00000020  00000020  00010020  2**3
                  CONTENTS, ALLOC, LOAD, READONLY, CODE
  2 .rodata       0000110f  00007c18  00007c18  00017c18  2**2
                  CONTENTS, ALLOC, LOAD, READONLY, DATA
  3 .ARM.extab    000000fc  00008d28  00008d28  00018d28  2**2
                  CONTENTS, ALLOC, LOAD, READONLY, DATA
  4 .ARM.extab.text.__aeabi_ldivmod 0000000c  00008e24  00008e24  00018e24  2**2
                  CONTENTS, ALLOC, LOAD, READONLY, DATA
  5 .ARM.extab.text.__aeabi_uldivmod 0000000c  00008e30  00008e30  00018e30  2**2
                  CONTENTS, ALLOC, LOAD, READONLY, DATA
  6 .ARM.extab.text.utee_panic 0000000c  00008e3c  00008e3c  00018e3c  2**2
                  CONTENTS, ALLOC, LOAD, READONLY, DATA
  7 .ARM.extab.text.unlikely 0000000c  00008e48  00008e48  00018e48  2**2
                  CONTENTS, ALLOC, LOAD, READONLY, DATA
  8 .ARM.exidx    00000640  00008e54  00008e54  00018e54  2**2
                  CONTENTS, ALLOC, LOAD, READONLY, DATA
  9 .got          0000003c  00009494  00009494  00019494  2**2
                  CONTENTS, ALLOC, LOAD, DATA
 10 .dynsym       000000f0  00009648  00009648  00019648  2**2
                  CONTENTS, ALLOC, LOAD, READONLY, DATA
 11 .rel.got      00000060  00009568  00009568  00019568  2**2
                  CONTENTS, ALLOC, LOAD, READONLY, DATA
 12 .dynamic      00000080  000095c8  000095c8  000195c8  2**2
                  CONTENTS, ALLOC, LOAD, DATA
 13 .dynstr       000000ce  00009738  00009738  00019738  2**0
                  CONTENTS, ALLOC, LOAD, READONLY, DATA
 14 .hash         00000050  00009808  00009808  00019808  2**2
                  CONTENTS, ALLOC, LOAD, READONLY, DATA
 15 .data         00000080  0000a000  0000a000  0001a000  2**2
                  CONTENTS, ALLOC, LOAD, DATA
 16 .bss          0000a070  0000a080  0000a080  0001a080  2**2
                  ALLOC
 17 .debug_info   0001175d  00000000  00000000  0001a080  2**0
                  CONTENTS, READONLY, DEBUGGING
 18 .debug_abbrev 00002d62  00000000  00000000  0002b7dd  2**0
                  CONTENTS, READONLY, DEBUGGING
 19 .debug_loc    00011034  00000000  00000000  0002e53f  2**0
                  CONTENTS, READONLY, DEBUGGING
 20 .debug_aranges 00000550  00000000  00000000  0003f578  2**3
                  CONTENTS, READONLY, DEBUGGING
 21 .debug_ranges 000007f8  00000000  00000000  0003fac8  2**3
                  CONTENTS, READONLY, DEBUGGING
 22 .debug_macro  000117d1  00000000  00000000  000402c0  2**0
                  CONTENTS, READONLY, DEBUGGING
 23 .debug_line   0000563f  00000000  00000000  00051a91  2**0
                  CONTENTS, READONLY, DEBUGGING
 24 .debug_str    0001158f  00000000  00000000  000570d0  2**0
                  CONTENTS, READONLY, DEBUGGING
 25 .comment      00000024  00000000  00000000  0006865f  2**0
                  CONTENTS, READONLY
 26 .ARM.attributes 00000036  00000000  00000000  00068683  2**0
                  CONTENTS, READONLY
 27 .debug_frame  00001f70  00000000  00000000  000686bc  2**2
                  CONTENTS, READONLY, DEBUGGING
 28 .rel.dyn      00000098  000094d0  000094d0  000194d0  2**2
                  CONTENTS, ALLOC, LOAD, READONLY, DATA
SYMBOL TABLE:
00000000 l    d  .ta_head	00000000 .ta_head
00000020 l    d  .text	00000000 .text
00007c18 l    d  .rodata	00000000 .rodata
00008d28 l    d  .ARM.extab	00000000 .ARM.extab
00008e24 l    d  .ARM.extab.text.__aeabi_ldivmod	00000000 .ARM.extab.text.__aeabi_ldivmod
00008e30 l    d  .ARM.extab.text.__aeabi_uldivmod	00000000 .ARM.extab.text.__aeabi_uldivmod
00008e3c l    d  .ARM.extab.text.utee_panic	00000000 .ARM.extab.text.utee_panic
00008e48 l    d  .ARM.extab.text.unlikely	00000000 .ARM.extab.text.unlikely
00008e54 l    d  .ARM.exidx	00000000 .ARM.exidx
00009494 l    d  .got	00000000 .got
00009568 l    d  .rel.got	00000000 .rel.got
000095c8 l    d  .dynamic	00000000 .dynamic
00009648 l    d  .dynsym	00000000 .dynsym
00009738 l    d  .dynstr	00000000 .dynstr
00009808 l    d  .hash	00000000 .hash
0000a000 l    d  .data	00000000 .data
0000a080 l    d  .bss	00000000 .bss
00000000 l    d  .debug_info	00000000 .debug_info
00000000 l    d  .debug_abbrev	00000000 .debug_abbrev
00000000 l    d  .debug_loc	00000000 .debug_loc
00000000 l    d  .debug_aranges	00000000 .debug_aranges
00000000 l    d  .debug_ranges	00000000 .debug_ranges
00000000 l    d  .debug_macro	00000000 .debug_macro
00000000 l    d  .debug_line	00000000 .debug_line
00000000 l    d  .debug_str	00000000 .debug_str
00000000 l    d  .comment	00000000 .comment
00000000 l    d  .ARM.attributes	00000000 .ARM.attributes
00000000 l    d  .debug_frame	00000000 .debug_frame
000094d0 l    d  .rel.dyn	00000000 .rel.dyn
00000000 l    df *ABS*	00000000 user_ta_header.c
00007c1c l     O .rodata	00000004 __compound_literal.4
00007c20 l     O .rodata	00000004 __compound_literal.3
00007c24 l     O .rodata	00000001 __compound_literal.2
00007c25 l     O .rodata	00000001 __compound_literal.1
00007c26 l     O .rodata	00000001 __compound_literal.0
00000000 l    df *ABS*	00000000 acipher_ta.c
00007ef4 l     O .rodata	0000000c __func__.6113
00007f00 l     O .rodata	00000008 __func__.6128
00007f08 l     O .rodata	0000001b __func__.6155
00000000 l    df *ABS*	00000000 trace.c
00000230 l     F .text	0000004e append
000080c0 l     O .rodata	00000005 lvl_strs.5561
000080c5 l     O .rodata	0000000a __func__.5615
00000000 l    df *ABS*	00000000 snprintk.c
00008109 l     O .rodata	00000011 HEXDIGITS
0000811a l     O .rodata	00000011 hexdigits
00000000 l    df *ABS*	00000000 arm32_aeabi_ldivmod_a32.o
00000000 l    df *ABS*	00000000 trace_ext.c
00000000 l    df *ABS*	00000000 tee_api.c
00008163 l     O .rodata	0000000b __func__.6728
0000a080 l     O .bss	00000004 tee_api_instance_data
00000000 l    df *ABS*	00000000 tee_api_objects.c
00000000 l    df *ABS*	00000000 tee_api_operations.c
00001784 l     F .text	00000160 tee_buffer_update
00000000 l    df *ABS*	00000000 user_ta_entry.c
00002d4c l     F .text	0000001c ta_header_get_session
00002d68 l     F .text	00000068 ta_header_remove_session
0000a084 l     O .bss	00000001 init_done
0000a05c l     O .data	00000008 ta_sessions
00000000 l    df *ABS*	00000000 utee_syscalls_a32.o
00000000 l    df *ABS*	00000000 gprof_a32.o
00000000 l    df *ABS*	00000000 tee_api_arith_mpi.c
00004430 l     F .text	00000020 api_panic
0000341c l     F .text	00000020 mpi_panic
0000343c l     F .text	00000044 get_const_mpi
00003480 l     F .text	00000010 mpi_is_odd
00003490 l     F .text	00000016 rng_read
000034a6 l     F .text	0000001c put_mpi
000034c2 l     F .text	0000045a mpi_egcd
0000391c l     F .text	00000024 get_mpi
00003940 l     F .text	00000088 bigint_binary
0000a0ac l     O .bss	00002000 data.6728
00003bce l     F .text	000000ea bigint_binary_mod
0000817f l     O .rodata	0000000e __func__.6757
0000818d l     O .rodata	00000009 __func__.6996
00008196 l     O .rodata	0000000e __func__.6856
000081a4 l     O .rodata	00000012 __func__.6729
000081b6 l     O .rodata	0000000f __func__.6767
000081c5 l     O .rodata	0000001f __func__.6785
000081e4 l     O .rodata	00000019 __func__.6792
000081fd l     O .rodata	00000012 __func__.6867
0000820f l     O .rodata	00000015 __func__.6822
00008224 l     O .rodata	0000000e __func__.6894
00008232 l     O .rodata	0000000e __func__.6922
00008240 l     O .rodata	0000000e __func__.6928
0000824e l     O .rodata	00000011 __func__.6957
0000825f l     O .rodata	00000018 __func__.6973
00008277 l     O .rodata	0000001d __func__.7053
00008294 l     O .rodata	00000019 __func__.7103
000082ad l     O .rodata	00000015 __func__.7117
00000000 l    df *ABS*	00000000 bignum.c
00004450 l     F .text	00000038 mpi_get_digit
00004488 l     F .text	0000005e mpi_sub_hlp
000044e6 l     F .text	00000492 mpi_mul_hlp
00004978 l     F .text	00000048 mbedtls_mpi_mod_int.part.1
00005a1a l     F .text	0000006c mpi_write_hlp
00005bc0 l     F .text	00000050 mpi_check_small_factors
000062ac l     F .text	00000216 mpi_miller_rabin
00007c30 l     O .rodata	000002a0 small_prime
00007ed0 l     O .rodata	00000024 gcd_pairs
00000000 l    df *ABS*	00000000 bget_malloc.c
00006c50 l     F .text	00000030 raw_malloc_return_hook.isra.3
00006c80 l     F .text	000000d8 create_free_block.constprop.11
00006e8c l     F .text	00000038 raw_malloc.constprop.15
000087d6 l     O .rodata	00000012 __func__.5854
000087e8 l     O .rodata	00000005 __func__.5710
000087ed l     O .rodata	00000006 __func__.5725
000087f3 l     O .rodata	00000005 __func__.5742
000087f8 l     O .rodata	00000006 __func__.5734
000087fe l     O .rodata	00000006 __func__.5751
00008804 l     O .rodata	00000007 __func__.5761
0000880b l     O .rodata	0000000d __func__.5890
00008818 l     O .rodata	0000000c __func__.5864
00008824 l     O .rodata	0000000b __func__.5875
0000882f l     O .rodata	00000010 __func__.5942
0000883f l     O .rodata	0000000e __func__.5896
0000884d l     O .rodata	00000013 __func__.5802
0000c0b0 l     O .bss	00000038 mstats
0000c0e8 l     O .bss	00000004 malloc_pool_len
0000c0ec l     O .bss	00000004 malloc_pool
0000a064 l     O .data	0000001c malloc_poolset
00000000 l    df *ABS*	00000000 mempool.c
00008c68 l     O .rodata	00000013 __func__.5618
00008c7b l     O .rodata	0000000e __func__.5627
00000000 l    df *ABS*	00000000 assert.c
00000000 l    df *ABS*	00000000 aeabi_unwind.c
00000000 l    df *ABS*	00000000 memchr.c
00000000 l    df *ABS*	00000000 strlen.c
00000000 l    df *ABS*	00000000 arm32_aeabi_ldivmod.c
00000000 l    df *ABS*	00000000 tee_api_panic.c
00000000 l    df *ABS*	00000000 snprintf.c
00000000 l    df *ABS*	00000000 memcmp.c
00000000 l    df *ABS*	00000000 memcpy.c
00000000 l    df *ABS*	00000000 memmove.c
00000000 l    df *ABS*	00000000 memset.c
00000000 l    df *ABS*	00000000 buf_compare_ct.c
00000000 l    df *ABS*	00000000 
000095c8 l     O *ABS*	00000000 _DYNAMIC
00009494 l     O *ABS*	00000000 _GLOBAL_OFFSET_TABLE_
00007bd8 l     F .text	00000010 __utee_check_access_rights_from_thumb
00007be8 l     F .text	00000010 __utee_cache_operation_from_thumb
00007bf8 l     F .text	00000010 __utee_log_from_thumb
00007c08 l     F .text	00000010 __utee_panic_from_thumb
00000cf0 g     F .text	00000022 putchar
00001260 g     F .text	00000070 TEE_PopulateTransientObject
00004342 g     F .text	00000004 TEE_BigIntConvertToFMM
00004084 g     F .text	00000008 TEE_BigIntSquareMod
00003cb8 g     F .text	000000f4 TEE_BigIntShiftRight
000032f4 g     F .text	00000018 utee_storage_obj_create
00004a58 g     F .text	000000a8 mbedtls_mpi_grow
00007a12 g     F .text	000000ec __l_divmod
00002f74 g     F .text	00000014 utee_return
0000218c g     F .text	00000030 TEE_DigestUpdate
00000fdc g     F .text	00000004 TEE_Realloc
00001ff4 g     F .text	000000f4 TEE_SetOperationKey2
00000c92 g     F .text	0000003a printf
00002f88 g     F .text	00000014 utee_log
000012d0 g     F .text	00000022 TEE_InitRefAttribute
00000dfa g     F .text	00000066 TEE_InvokeTACommand
000049d2 g     F .text	00000026 mbedtls_mpi_init_mempool
00004ecc g     F .text	00000046 mbedtls_mpi_write_binary
0000276c g     F .text	00000118 TEE_AEEncryptFinal
00000c20 g     F .text	0000000e vsnprintk
00005356 g     F .text	00000030 mbedtls_mpi_sub_int
00007b62 g     F .text	00000034 memmove
00007b02 g     F .text	0000001e snprintf
00003ba8 g     F .text	00000026 TEE_BigIntCmpS32
000012f2 g     F .text	00000022 TEE_InitValueAttribute
00004b00 g     F .text	000000cc mbedtls_mpi_shrink
0000796c g     F .text	00000002 __aeabi_unwind_cpp_pr0
00003df8 g     F .text	0000001c TEE_BigIntAdd
00002fc8 g     F .text	00000014 utee_get_property_name_to_index
00007c28 g     O .rodata	00000004 ta_heap_size
00001230 g     F .text	00000030 TEE_ResetTransientObject
000030ac g     F .text	00000018 utee_cryp_state_alloc
0000327c g     F .text	00000018 utee_authenc_enc_final
00005480 g     F .text	0000012c mbedtls_mpi_read_string
0000222c g     F .text	00000056 TEE_CipherInit
00003e30 g     F .text	00000058 TEE_BigIntNeg
00000020 g       .text	00000000 __text_start
000015d0 g     F .text	0000002c TEE_StartPersistentObjectEnumerator
00004faa g     F .text	00000078 mbedtls_mpi_shift_r
000077e0 g     F .text	0000004c malloc_buffer_overlaps_heap
0000404c g     F .text	0000001c TEE_BigIntSubMod
000067ee g     F .text	00000136 mbedtls_mpi_gen_prime
00004d7a g     F .text	00000020 mbedtls_mpi_get_bit
00004e66 g     F .text	00000066 mbedtls_mpi_read_binary
000025e8 g     F .text	00000070 TEE_AEInit
000002b0 g     F .text	0000013c trace_printf
00005c38 g     F .text	000000c4 mbedtls_mpi_montmul
00007b4c g     F .text	00000016 memcpy
000030d8 g     F .text	00000014 utee_cryp_state_free
00004346 g     F .text	0000004a TEE_BigIntConvertFromFMM
00007afe g     F .text	00000004 TEE_Panic
00000c60 g     F .text	00000018 __aeabi_uldivmod
000020e8 g     F .text	000000a4 TEE_CopyOperation
00000ccc g     F .text	00000024 puts
00004390 g     F .text	000000a0 TEE_BigIntComputeFMM
000072a8 g     F .text	00000020 malloc_get_stats
00003158 g     F .text	00000018 utee_cipher_final
00000f7c g     F .text	00000016 TEE_GetREETime
00001570 g     F .text	00000038 TEE_AllocatePersistentObjectEnumerator
0000a004 g     O .data	00000054 ta_props
0000298c g     F .text	000000bc TEE_AsymmetricEncrypt
000072c8 g     F .text	00000002 malloc
000031c0 g     F .text	00000014 utee_cryp_obj_close
00007b20 g     F .text	0000000e vsnprintf
000013ac g     F .text	00000048 TEE_GenerateKey
0000a000 g     O .data	00000004 trace_level
00003b74 g     F .text	00000034 TEE_BigIntCmp
00007c18 g     O .rodata	00000004 ta_num_props
00007118 g     F .text	0000007c bgetr
00003264 g     F .text	00000018 utee_authenc_update_payload
00007900 g     F .text	0000002e mempool_free
00002282 g     F .text	000000e6 TEE_CipherUpdate
00003a8c g     F .text	00000058 TEE_BigIntConvertToOctetString
00001e72 g     F .text	000000b6 TEE_GetOperationInfoMultiple
000033fc g     F .text	00000014 utee_cache_operation
00004e18 g     F .text	00000042 mbedtls_mpi_bitlen
00003238 g     F .text	00000018 utee_authenc_init
00003dac g     F .text	0000002a TEE_BigIntGetBit
00007c2c g     O .rodata	00000003 trace_ext_prefix
00006ec4 g     F .text	0000005c bgetz
00000ecc g     F .text	0000000c TEE_GetInstanceData
00000efa g     F .text	0000001e TEE_Wait
000033ac g     F .text	00000014 utee_storage_obj_write
00005386 g     F .text	000000dc mbedtls_mpi_mul_mpi
00007970 g     F .text	00000002 __aeabi_unwind_cpp_pr2
00000fea g     F .text	00000006 TEE_CacheFlush
00000024 g     F .text	00000002 TA_DestroyEntryPoint
000049c0 g     F .text	00000012 mbedtls_mpi_init
00004dea g     F .text	0000002e mbedtls_mpi_lsb
00007930 g     F .text	00000028 _assert_log
0000433e g     F .text	00000004 TEE_BigIntFMMContextSizeInU32
00002584 g     F .text	00000064 TEE_MACCompareFinal
0000152a g     F .text	00000046 TEE_RenamePersistentObject
000021bc g     F .text	00000070 TEE_DigestDoFinal
000039c8 g     F .text	00000044 _TEE_MathAPI_Init
00005292 g     F .text	00000048 mbedtls_mpi_add_mpi
00003384 g     F .text	00000014 utee_storage_next_enum
0000c0f0 g     O .bss	00008000 ta_heap
0000408c g     F .text	000000a4 TEE_BigIntInvMod
00000048 g     F .text	00000014 TA_CloseSessionEntryPoint
00002a48 g     F .text	000000c0 TEE_AsymmetricDecrypt
000013f4 g     F .text	00000064 TEE_OpenPersistentObject
000052da g     F .text	0000004c mbedtls_mpi_sub_mpi
00002f9c g     F .text	00000014 __utee_panic
000030c4 g     F .text	00000014 utee_cryp_state_copy
0000005c g     F .text	000001d4 TA_InvokeCommandEntryPoint
00007870 g     F .text	0000006c mempool_alloc
000031ac g     F .text	00000014 utee_cryp_obj_alloc
00003098 g     F .text	00000014 utee_set_ta_time
00003198 g     F .text	00000014 utee_cryp_obj_get_attr
000078dc g     F .text	00000024 mempool_calloc
0000137c g     F .text	00000030 TEE_CopyObjectAttributes
000072dc g     F .text	00000048 calloc
00000f92 g     F .text	0000004a TEE_Malloc
0000305c g     F .text	00000014 utee_mask_cancellation
000031d4 g     F .text	00000014 utee_cryp_obj_reset
00000eb4 g     F .text	0000000a TEE_CheckMemoryAccessRights
000140f0 g       .bss	00000000 __gprof_buf_end
0000799e g     F .text	00000074 __ul_divmod
00004d42 g     F .text	00000038 mbedtls_mpi_lset
00001650 g     F .text	00000040 TEE_ReadObjectData
000010c8 g     F .text	00000070 TEE_GetObjectBufferAttribute
00000026 g     F .text	00000022 TA_OpenSessionEntryPoint
00003370 g     F .text	00000014 utee_storage_start_enum
000018e4 g     F .text	00000026 TEE_FreeOperation
00003320 g     F .text	00000014 utee_storage_obj_rename
0000a088 g     O .bss	00000004 ta_param_types
0000594e g     F .text	0000002e mbedtls_mpi_div_int
00000ff8 g     F .text	0000003a __utee_from_attr
00004300 g     F .text	00000030 TEE_BigIntIsProbablePrime
00005462 g     F .text	0000001e mbedtls_mpi_mul_int
000014f0 g     F .text	00000024 TEE_CloseAndDeletePersistentObject1
00005d20 g     F .text	00000446 mbedtls_mpi_exp_mod
00004c50 g     F .text	0000006c mbedtls_mpi_safe_cond_assign
00002fb0 g     F .text	00000018 utee_get_property
00002884 g     F .text	00000108 TEE_AEDecryptFinal
00003a0c g     F .text	00000040 TEE_BigIntInit
00000ed8 g     F .text	00000004 TEE_MemMove
00003a4c g     F .text	00000040 TEE_BigIntConvertFromOctetString
0000a058 g     O .data	00000004 _ref__utee_mcount
00005022 g     F .text	0000006e mbedtls_mpi_cmp_abs
00002478 g     F .text	00000056 TEE_MACInit
00002b08 g     F .text	000000b4 TEE_AsymmetricSignDigest
00007972 g     F .text	0000001c memchr
00000e7c g     F .text	0000001c TEE_UnmaskCancellation
00001032 g     F .text	0000002a TEE_GetObjectInfo
00006924 g     F .text	0000032c mbedtls_mpi_self_test
0000330c g     F .text	00000014 utee_storage_obj_del
0000269e g     F .text	000000ce TEE_AEUpdate
000033d4 g     F .text	00000014 utee_storage_obj_seek
00001200 g     F .text	00000030 TEE_FreeTransientObject
00005126 g     F .text	00000030 mbedtls_mpi_cmp_int
00003100 g     F .text	00000014 utee_hash_update
00002d34 g     F .text	00000018 rand
00003410  w    F .text	0000000c __utee_mcount
00001e50 g     F .text	00000022 TEE_GetOperationInfo
00003fe0 g     F .text	00000050 TEE_BigIntMod
000059e0 g     F .text	0000003a mbedtls_mpi_mod_int
00002ff4 g     F .text	00000014 utee_close_ta_session
00003f32 g     F .text	000000ae TEE_BigIntDiv
00004bcc g     F .text	00000056 mbedtls_mpi_copy
00007294 g     F .text	00000014 malloc_reset_stats
00003140 g     F .text	00000018 utee_cipher_update
0000107c g     F .text	00000020 TEE_RestrictObjectUsage1
00007324 g     F .text	00000038 realloc
00004c22 g     F .text	0000002e mbedtls_mpi_swap
0000782c g     F .text	00000044 mempool_alloc_pool
000032c4 g     F .text	00000018 utee_asymm_verify
00003e88 g     F .text	000000a4 TEE_BigIntMul
00001f28 g     F .text	00000040 TEE_ResetOperation
00004f12 g     F .text	00000098 mbedtls_mpi_shift_l
00005090 g     F .text	00000096 mbedtls_mpi_cmp_mpi
00000ee0 g     F .text	00000004 TEE_MemFill
00007b2e g     F .text	0000001e memcmp
0000760c g     F .text	000000f8 malloc_add_pool
000024ce g     F .text	0000004e TEE_MACUpdate
0000029c g     F .text	00000014 trace_get_level
00005156 g     F .text	000000bc mbedtls_mpi_add_abs
00003224 g     F .text	00000014 utee_cryp_random_number_generate
0000109c g     F .text	0000002c TEE_RestrictObjectUsage
00004336 g     F .text	00000008 TEE_BigIntFMMSizeInU32
00004330 g     F .text	00000004 TEE_BigIntInitFMM
000032ac g     F .text	00000018 utee_asymm_operate
000011bc g     F .text	00000014 TEE_CloseObject
00002dd0 g     F .text	00000190 __utee_entry
00007c18 g       .text	00000000 __text_end
00004130 g     F .text	0000007c TEE_BigIntRelativePrime
0000597c g     F .text	00000064 mbedtls_mpi_mod_mpi
00007194 g     F .text	0000009c bpool
00000e60 g     F .text	0000001c TEE_GetCancellationFlag
00006166 g     F .text	00000114 mbedtls_mpi_gcd
00000f54 g     F .text	00000028 TEE_SetTAPersistentTime
00007b96 g     F .text	00000010 memset
00000f18 g     F .text	0000003c TEE_GetTAPersistentTime
000003ec g     F .text	00000100 dhex_dump
00001458 g     F .text	00000098 TEE_CreatePersistentObject
00000e98 g     F .text	0000001c TEE_MaskCancellation
00002658 g     F .text	00000046 TEE_AEUpdateAAD
00003398 g     F .text	00000014 utee_storage_obj_read
000016d0 g     F .text	00000038 TEE_TruncateObjectData
000031e8 g     F .text	00000014 utee_cryp_obj_populate
0000105c g     F .text	00000020 TEE_GetObjectInfo1
0000027e g     F .text	0000001e trace_set_level
00003170 g     F .text	00000014 utee_cryp_obj_get_info
00001138 g     F .text	00000084 TEE_GetObjectValueAttribute
00001f68 g     F .text	0000008c TEE_SetOperationKey
00003334 g     F .text	00000014 utee_storage_alloc_enum
0000335c g     F .text	00000014 utee_storage_reset_enum
000033c0 g     F .text	00000014 utee_storage_obj_trunc
00003b1c g     F .text	00000058 TEE_BigIntConvertToS32
00003e14 g     F .text	0000001c TEE_BigIntSub
00003020 g     F .text	00000014 utee_get_cancellation_flag
000030ec g     F .text	00000014 utee_hash_init
00007968 g     F .text	00000004 tahead_get_trace_level
00000d14 g     F .text	00000050 __utee_from_param
00001708 g     F .text	0000007c TEE_SeekObjectData
00000d64 g     F .text	0000003e __utee_to_param
00005cfc g     F .text	00000024 mbedtls_mpi_montred
0000735c g     F .text	000002b0 memalign
00002368 g     F .text	00000110 TEE_CipherDoFinal
00003ae4 g     F .text	00000038 TEE_BigIntConvertFromS32
00005326 g     F .text	00000030 mbedtls_mpi_add_int
00003184 g     F .text	00000014 utee_cryp_obj_restrict_usage
00007704 g     F .text	000000dc malloc_buffer_is_within_alloced
000031fc g     F .text	00000014 utee_cryp_obj_copy
00004334 g     F .text	00000002 TEE_BigIntInitFMMContext
00003210 g     F .text	00000014 utee_cryp_derive_key
00003294 g     F .text	00000018 utee_authenc_dec_final
00001690 g     F .text	00000040 TEE_WriteObjectData
000015bc g     F .text	00000014 TEE_ResetPersistentObjectEnumerator
00003f2c g     F .text	00000006 TEE_BigIntSquare
00000020 g     F .text	00000004 TA_CreateEntryPoint
00005c10 g     F .text	00000028 mbedtls_mpi_montg_init
00000c2e g     F .text	0000001a snprintk
00003dd6 g     F .text	00000022 TEE_BigIntGetBitCount
00004068 g     F .text	0000001c TEE_BigIntMulMod
000064c2 g     F .text	000002d0 mbedtls_mpi_inv_mod
00002c68 g     F .text	000000ba TEE_DeriveKey
0000a08c g     O .bss	00000020 ta_params
000055ac g     F .text	000003a2 mbedtls_mpi_div_mpi
00004e5a g     F .text	0000000c mbedtls_mpi_size
00006d58 g     F .text	00000134 bget
000011d0 g     F .text	00000030 TEE_AllocateTransientObject
00004d9a g     F .text	00000050 mbedtls_mpi_set_bit
000049f8 g     F .text	00000012 mbedtls_mpi_init_static
00000fe0 g     F .text	00000004 TEE_Free
00006792 g     F .text	0000005c mbedtls_mpi_is_prime
00000ff0 g     F .text	00000006 TEE_CacheInvalidate
0000312c g     F .text	00000014 utee_cipher_init
00007958 g     F .text	00000010 _assert_break
00004030 g     F .text	0000001c TEE_BigIntAddMod
00003348 g     F .text	00000014 utee_storage_free_enum
00003250 g     F .text	00000014 utee_authenc_update_aad
0000190a g     F .text	00000546 TEE_AllocateOperation
00002d22 g     F .text	00000012 TEE_GenerateRandom
00000edc g     F .text	00000004 TEE_MemCompare
000004ec g     F .text	00000734 __vsnprintf
000015a8 g     F .text	00000014 TEE_FreePersistentObjectEnumerator
00002f60 g     F .text	00000014 utee_panic
00000da2 g     F .text	00000044 TEE_OpenTASession
00000c78 g     F .text	00000014 trace_ext_puts
00000c8c g     F .text	00000006 trace_ext_get_thread_id
00001514 g     F .text	00000016 TEE_CloseAndDeletePersistentObject
00004a0a g     F .text	0000004e mbedtls_mpi_free
00000fe4 g     F .text	00000006 TEE_CacheClean
00002fdc g     F .text	00000018 utee_open_ta_session
00007ba6 g     F .text	0000002c buf_compare_ct
00004cbc g     F .text	00000086 mbedtls_mpi_safe_cond_swap
00001314 g     F .text	00000068 TEE_CopyObjectAttributes1
00003114 g     F .text	00000018 utee_hash_final
0000798e g     F .text	00000010 strlen
000041ac g     F .text	00000154 TEE_BigIntComputeExtendedGcd
0000796e g     F .text	00000002 __aeabi_unwind_cpp_pr1
000032dc g     F .text	00000018 utee_storage_obj_open
00003008 g     F .text	00000018 utee_invoke_ta_command
00003070 g     F .text	00000014 utee_wait
00000ee4 g     F .text	00000016 TEE_GetSystemTime
00000000 g     O .ta_head	00000020 ta_head
00006f20 g     F .text	000001f8 brel
00005212 g     F .text	00000080 mbedtls_mpi_sub_abs
00003084 g     F .text	00000014 utee_get_time
0000627a g     F .text	00000032 mbedtls_mpi_fill_random
00000ebe g     F .text	0000000e TEE_SetInstanceData
00003048 g     F .text	00000014 utee_unmask_cancellation
00000c48 g     F .text	00000018 __aeabi_ldivmod
00003034 g     F .text	00000014 utee_check_access_rights
00005a86 g     F .text	0000013a mbedtls_mpi_write_string
000015fc g     F .text	00000054 TEE_GetNextPersistentObject
000033e8 g     F .text	00000014 utee_cryp_obj_generate_key
00000de6 g     F .text	00000014 TEE_CloseTASession
00002bbc g     F .text	000000ac TEE_AsymmetricVerifyDigest
000140f0 g       .bss	00000000 __gprof_buf_start
000072ca g     F .text	00000012 free
00007230 g     F .text	00000064 bstats
0000251c g     F .text	00000068 TEE_MACComputeFinal
0000c0ac g     O .bss	00000004 mbedtls_mpi_mempool



Disassembly of section .text:

00000020 <TA_CreateEntryPoint>:
TA_CreateEntryPoint():
/workspace/benchmark/acipher/ta/acipher_ta.c:114
      20:	2000      	movs	r0, #0
      22:	4770      	bx	lr

00000024 <TA_DestroyEntryPoint>:
TA_DestroyEntryPoint():
/workspace/benchmark/acipher/ta/acipher_ta.c:117
      24:	4770      	bx	lr

00000026 <TA_OpenSessionEntryPoint>:
TA_OpenSessionEntryPoint():
/workspace/benchmark/acipher/ta/acipher_ta.c:124
      26:	b510      	push	{r4, lr}
/workspace/benchmark/acipher/ta/acipher_ta.c:130
      28:	2100      	movs	r1, #0
      2a:	2004      	movs	r0, #4
/workspace/benchmark/acipher/ta/acipher_ta.c:124
      2c:	4614      	mov	r4, r2
/workspace/benchmark/acipher/ta/acipher_ta.c:130
      2e:	f000 ffb0 	bl	f92 <TEE_Malloc>
/workspace/benchmark/acipher/ta/acipher_ta.c:131
      32:	b120      	cbz	r0, 3e <TA_OpenSessionEntryPoint+0x18>
/workspace/benchmark/acipher/ta/acipher_ta.c:134
      34:	2300      	movs	r3, #0
      36:	6003      	str	r3, [r0, #0]
/workspace/benchmark/acipher/ta/acipher_ta.c:136
      38:	6020      	str	r0, [r4, #0]
/workspace/benchmark/acipher/ta/acipher_ta.c:138
      3a:	4618      	mov	r0, r3
      3c:	bd10      	pop	{r4, pc}
/workspace/benchmark/acipher/ta/acipher_ta.c:132
      3e:	4801      	ldr	r0, [pc, #4]	; (44 <TA_OpenSessionEntryPoint+0x1e>)
/workspace/benchmark/acipher/ta/acipher_ta.c:139
      40:	bd10      	pop	{r4, pc}
      42:	bf00      	nop
      44:	ffff000c 	.word	0xffff000c

00000048 <TA_CloseSessionEntryPoint>:
TA_CloseSessionEntryPoint():
/workspace/benchmark/acipher/ta/acipher_ta.c:142
      48:	b510      	push	{r4, lr}
      4a:	4604      	mov	r4, r0
/workspace/benchmark/acipher/ta/acipher_ta.c:145
      4c:	6800      	ldr	r0, [r0, #0]
      4e:	f001 f8d7 	bl	1200 <TEE_FreeTransientObject>
/workspace/benchmark/acipher/ta/acipher_ta.c:146
      52:	4620      	mov	r0, r4
/workspace/benchmark/acipher/ta/acipher_ta.c:147
      54:	e8bd 4010 	ldmia.w	sp!, {r4, lr}
/workspace/benchmark/acipher/ta/acipher_ta.c:146
      58:	f000 bfc2 	b.w	fe0 <TEE_Free>

0000005c <TA_InvokeCommandEntryPoint>:
TA_InvokeCommandEntryPoint():
/workspace/benchmark/acipher/ta/acipher_ta.c:152
      5c:	e92d 4ff0 	stmdb	sp!, {r4, r5, r6, r7, r8, r9, sl, fp, lr}
      60:	4607      	mov	r7, r0
      62:	4690      	mov	r8, r2
      64:	b08f      	sub	sp, #60	; 0x3c
      66:	461e      	mov	r6, r3
/workspace/benchmark/acipher/ta/acipher_ta.c:153
      68:	460d      	mov	r5, r1
      6a:	b179      	cbz	r1, 8c <TA_InvokeCommandEntryPoint+0x30>
      6c:	2901      	cmp	r1, #1
      6e:	d048      	beq.n	102 <TA_InvokeCommandEntryPoint+0xa6>
/workspace/benchmark/acipher/ta/acipher_ta.c:159
      70:	4b60      	ldr	r3, [pc, #384]	; (1f4 <TA_InvokeCommandEntryPoint+0x198>)
      72:	4861      	ldr	r0, [pc, #388]	; (1f8 <TA_InvokeCommandEntryPoint+0x19c>)
      74:	447b      	add	r3, pc
      76:	9300      	str	r3, [sp, #0]
      78:	4478      	add	r0, pc
      7a:	2301      	movs	r3, #1
      7c:	9101      	str	r1, [sp, #4]
      7e:	461a      	mov	r2, r3
      80:	219f      	movs	r1, #159	; 0x9f
      82:	3014      	adds	r0, #20
      84:	f000 f914 	bl	2b0 <trace_printf>
/workspace/benchmark/acipher/ta/acipher_ta.c:160
      88:	4c56      	ldr	r4, [pc, #344]	; (1e4 <TA_InvokeCommandEntryPoint+0x188>)
      8a:	e030      	b.n	ee <TA_InvokeCommandEntryPoint+0x92>
cmd_gen_key():
/workspace/benchmark/acipher/ta/acipher_ta.c:28
      8c:	2a01      	cmp	r2, #1
      8e:	f040 80a5 	bne.w	1dc <TA_InvokeCommandEntryPoint+0x180>
/workspace/benchmark/acipher/ta/acipher_ta.c:31
      92:	681d      	ldr	r5, [r3, #0]
/workspace/benchmark/acipher/ta/acipher_ta.c:33
      94:	aa07      	add	r2, sp, #28
      96:	4e54      	ldr	r6, [pc, #336]	; (1e8 <TA_InvokeCommandEntryPoint+0x18c>)
      98:	4629      	mov	r1, r5
      9a:	4630      	mov	r0, r6
      9c:	f001 f898 	bl	11d0 <TEE_AllocateTransientObject>
/workspace/benchmark/acipher/ta/acipher_ta.c:34
      a0:	4604      	mov	r4, r0
      a2:	b168      	cbz	r0, c0 <TA_InvokeCommandEntryPoint+0x64>
/workspace/benchmark/acipher/ta/acipher_ta.c:35
      a4:	9003      	str	r0, [sp, #12]
      a6:	4642      	mov	r2, r8
      a8:	4b54      	ldr	r3, [pc, #336]	; (1fc <TA_InvokeCommandEntryPoint+0x1a0>)
      aa:	2123      	movs	r1, #35	; 0x23
      ac:	4854      	ldr	r0, [pc, #336]	; (200 <TA_InvokeCommandEntryPoint+0x1a4>)
      ae:	447b      	add	r3, pc
      b0:	9300      	str	r3, [sp, #0]
      b2:	4478      	add	r0, pc
      b4:	4643      	mov	r3, r8
      b6:	9502      	str	r5, [sp, #8]
      b8:	9601      	str	r6, [sp, #4]
cmd_enc():
/workspace/benchmark/acipher/ta/acipher_ta.c:87
      ba:	f000 f8f9 	bl	2b0 <trace_printf>
      be:	e016      	b.n	ee <TA_InvokeCommandEntryPoint+0x92>
cmd_gen_key():
/workspace/benchmark/acipher/ta/acipher_ta.c:39
      c0:	4603      	mov	r3, r0
      c2:	4602      	mov	r2, r0
      c4:	4629      	mov	r1, r5
      c6:	9807      	ldr	r0, [sp, #28]
      c8:	f001 f970 	bl	13ac <TEE_GenerateKey>
/workspace/benchmark/acipher/ta/acipher_ta.c:40
      cc:	4604      	mov	r4, r0
      ce:	b190      	cbz	r0, f6 <TA_InvokeCommandEntryPoint+0x9a>
/workspace/benchmark/acipher/ta/acipher_ta.c:41
      d0:	9002      	str	r0, [sp, #8]
      d2:	4642      	mov	r2, r8
      d4:	4b4b      	ldr	r3, [pc, #300]	; (204 <TA_InvokeCommandEntryPoint+0x1a8>)
      d6:	212a      	movs	r1, #42	; 0x2a
      d8:	484b      	ldr	r0, [pc, #300]	; (208 <TA_InvokeCommandEntryPoint+0x1ac>)
      da:	447b      	add	r3, pc
      dc:	9501      	str	r5, [sp, #4]
      de:	9300      	str	r3, [sp, #0]
      e0:	4478      	add	r0, pc
      e2:	4643      	mov	r3, r8
      e4:	f000 f8e4 	bl	2b0 <trace_printf>
/workspace/benchmark/acipher/ta/acipher_ta.c:43
      e8:	9807      	ldr	r0, [sp, #28]
      ea:	f001 f889 	bl	1200 <TEE_FreeTransientObject>
TA_InvokeCommandEntryPoint():
/workspace/benchmark/acipher/ta/acipher_ta.c:162
      ee:	4620      	mov	r0, r4
      f0:	b00f      	add	sp, #60	; 0x3c
      f2:	e8bd 8ff0 	ldmia.w	sp!, {r4, r5, r6, r7, r8, r9, sl, fp, pc}
cmd_gen_key():
/workspace/benchmark/acipher/ta/acipher_ta.c:47
      f6:	6838      	ldr	r0, [r7, #0]
      f8:	f001 f882 	bl	1200 <TEE_FreeTransientObject>
/workspace/benchmark/acipher/ta/acipher_ta.c:48
      fc:	9b07      	ldr	r3, [sp, #28]
      fe:	603b      	str	r3, [r7, #0]
     100:	e7f5      	b.n	ee <TA_InvokeCommandEntryPoint+0x92>
cmd_enc():
/workspace/benchmark/acipher/ta/acipher_ta.c:68
     102:	2a65      	cmp	r2, #101	; 0x65
     104:	d16a      	bne.n	1dc <TA_InvokeCommandEntryPoint+0x180>
/workspace/benchmark/acipher/ta/acipher_ta.c:70
     106:	6800      	ldr	r0, [r0, #0]
     108:	2800      	cmp	r0, #0
     10a:	d069      	beq.n	1e0 <TA_InvokeCommandEntryPoint+0x184>
/workspace/benchmark/acipher/ta/acipher_ta.c:73
     10c:	a907      	add	r1, sp, #28
     10e:	f000 ffa5 	bl	105c <TEE_GetObjectInfo1>
/workspace/benchmark/acipher/ta/acipher_ta.c:74
     112:	4604      	mov	r4, r0
     114:	b160      	cbz	r0, 130 <TA_InvokeCommandEntryPoint+0xd4>
/workspace/benchmark/acipher/ta/acipher_ta.c:75
     116:	9001      	str	r0, [sp, #4]
     118:	462a      	mov	r2, r5
     11a:	483c      	ldr	r0, [pc, #240]	; (20c <TA_InvokeCommandEntryPoint+0x1b0>)
     11c:	214b      	movs	r1, #75	; 0x4b
     11e:	4b3c      	ldr	r3, [pc, #240]	; (210 <TA_InvokeCommandEntryPoint+0x1b4>)
     120:	4478      	add	r0, pc
     122:	447b      	add	r3, pc
     124:	300c      	adds	r0, #12
     126:	9300      	str	r3, [sp, #0]
     128:	462b      	mov	r3, r5
     12a:	f000 f8c1 	bl	2b0 <trace_printf>
     12e:	e7de      	b.n	ee <TA_InvokeCommandEntryPoint+0x92>
/workspace/benchmark/acipher/ta/acipher_ta.c:84
     130:	f8df 90e0 	ldr.w	r9, [pc, #224]	; 214 <TA_InvokeCommandEntryPoint+0x1b8>
     134:	4602      	mov	r2, r0
/workspace/benchmark/acipher/ta/acipher_ta.c:82
     136:	68f3      	ldr	r3, [r6, #12]
/workspace/benchmark/acipher/ta/acipher_ta.c:84
     138:	a806      	add	r0, sp, #24
/workspace/benchmark/acipher/ta/acipher_ta.c:82
     13a:	9305      	str	r3, [sp, #20]
/workspace/benchmark/acipher/ta/acipher_ta.c:84
     13c:	4649      	mov	r1, r9
     13e:	9b08      	ldr	r3, [sp, #32]
/workspace/benchmark/acipher/ta/acipher_ta.c:79
     140:	f8d6 a000 	ldr.w	sl, [r6]
/workspace/benchmark/acipher/ta/acipher_ta.c:80
     144:	f8d6 8004 	ldr.w	r8, [r6, #4]
/workspace/benchmark/acipher/ta/acipher_ta.c:81
     148:	f8d6 b008 	ldr.w	fp, [r6, #8]
/workspace/benchmark/acipher/ta/acipher_ta.c:84
     14c:	f001 fbdd 	bl	190a <TEE_AllocateOperation>
/workspace/benchmark/acipher/ta/acipher_ta.c:86
     150:	4604      	mov	r4, r0
     152:	b170      	cbz	r0, 172 <TA_InvokeCommandEntryPoint+0x116>
/workspace/benchmark/acipher/ta/acipher_ta.c:87
     154:	9b08      	ldr	r3, [sp, #32]
     156:	462a      	mov	r2, r5
     158:	9003      	str	r0, [sp, #12]
     15a:	2157      	movs	r1, #87	; 0x57
     15c:	482e      	ldr	r0, [pc, #184]	; (218 <TA_InvokeCommandEntryPoint+0x1bc>)
     15e:	9302      	str	r3, [sp, #8]
     160:	4b2e      	ldr	r3, [pc, #184]	; (21c <TA_InvokeCommandEntryPoint+0x1c0>)
     162:	4478      	add	r0, pc
     164:	f8cd 9004 	str.w	r9, [sp, #4]
     168:	300c      	adds	r0, #12
     16a:	447b      	add	r3, pc
     16c:	9300      	str	r3, [sp, #0]
     16e:	462b      	mov	r3, r5
     170:	e7a3      	b.n	ba <TA_InvokeCommandEntryPoint+0x5e>
/workspace/benchmark/acipher/ta/acipher_ta.c:91
     172:	6839      	ldr	r1, [r7, #0]
     174:	9806      	ldr	r0, [sp, #24]
     176:	f001 fef7 	bl	1f68 <TEE_SetOperationKey>
/workspace/benchmark/acipher/ta/acipher_ta.c:92
     17a:	4604      	mov	r4, r0
     17c:	b178      	cbz	r0, 19e <TA_InvokeCommandEntryPoint+0x142>
/workspace/benchmark/acipher/ta/acipher_ta.c:93
     17e:	9001      	str	r0, [sp, #4]
     180:	462a      	mov	r2, r5
     182:	4827      	ldr	r0, [pc, #156]	; (220 <TA_InvokeCommandEntryPoint+0x1c4>)
     184:	215d      	movs	r1, #93	; 0x5d
     186:	4b27      	ldr	r3, [pc, #156]	; (224 <TA_InvokeCommandEntryPoint+0x1c8>)
     188:	4478      	add	r0, pc
     18a:	447b      	add	r3, pc
     18c:	300c      	adds	r0, #12
     18e:	9300      	str	r3, [sp, #0]
     190:	462b      	mov	r3, r5
     192:	f000 f88d 	bl	2b0 <trace_printf>
/workspace/benchmark/acipher/ta/acipher_ta.c:105
     196:	9806      	ldr	r0, [sp, #24]
     198:	f001 fba4 	bl	18e4 <TEE_FreeOperation>
     19c:	e7a7      	b.n	ee <TA_InvokeCommandEntryPoint+0x92>
/workspace/benchmark/acipher/ta/acipher_ta.c:97
     19e:	ab05      	add	r3, sp, #20
     1a0:	4602      	mov	r2, r0
     1a2:	9302      	str	r3, [sp, #8]
     1a4:	4601      	mov	r1, r0
     1a6:	e88d 0900 	stmia.w	sp, {r8, fp}
     1aa:	4653      	mov	r3, sl
     1ac:	9806      	ldr	r0, [sp, #24]
     1ae:	f002 fbed 	bl	298c <TEE_AsymmetricEncrypt>
/workspace/benchmark/acipher/ta/acipher_ta.c:99
     1b2:	4604      	mov	r4, r0
     1b4:	b178      	cbz	r0, 1d6 <TA_InvokeCommandEntryPoint+0x17a>
/workspace/benchmark/acipher/ta/acipher_ta.c:100
     1b6:	9003      	str	r0, [sp, #12]
     1b8:	462a      	mov	r2, r5
     1ba:	481b      	ldr	r0, [pc, #108]	; (228 <TA_InvokeCommandEntryPoint+0x1cc>)
     1bc:	2164      	movs	r1, #100	; 0x64
     1be:	68f3      	ldr	r3, [r6, #12]
     1c0:	9302      	str	r3, [sp, #8]
     1c2:	4478      	add	r0, pc
     1c4:	4b19      	ldr	r3, [pc, #100]	; (22c <TA_InvokeCommandEntryPoint+0x1d0>)
     1c6:	300c      	adds	r0, #12
     1c8:	f8cd 8004 	str.w	r8, [sp, #4]
     1cc:	447b      	add	r3, pc
     1ce:	9300      	str	r3, [sp, #0]
     1d0:	462b      	mov	r3, r5
     1d2:	f000 f86d 	bl	2b0 <trace_printf>
/workspace/benchmark/acipher/ta/acipher_ta.c:102
     1d6:	9b05      	ldr	r3, [sp, #20]
     1d8:	60f3      	str	r3, [r6, #12]
     1da:	e7dc      	b.n	196 <TA_InvokeCommandEntryPoint+0x13a>
/workspace/benchmark/acipher/ta/acipher_ta.c:69
     1dc:	4c03      	ldr	r4, [pc, #12]	; (1ec <TA_InvokeCommandEntryPoint+0x190>)
     1de:	e786      	b.n	ee <TA_InvokeCommandEntryPoint+0x92>
/workspace/benchmark/acipher/ta/acipher_ta.c:71
     1e0:	4c03      	ldr	r4, [pc, #12]	; (1f0 <TA_InvokeCommandEntryPoint+0x194>)
TA_InvokeCommandEntryPoint():
/workspace/benchmark/acipher/ta/acipher_ta.c:157
     1e2:	e784      	b.n	ee <TA_InvokeCommandEntryPoint+0x92>
     1e4:	ffff000a 	.word	0xffff000a
     1e8:	a1000030 	.word	0xa1000030
     1ec:	ffff0006 	.word	0xffff0006
     1f0:	ffff0007 	.word	0xffff0007
     1f4:	00007f78 	.word	0x00007f78
     1f8:	00007e78 	.word	0x00007e78
     1fc:	00007e71 	.word	0x00007e71
     200:	00007e3e 	.word	0x00007e3e
     204:	00007e6f 	.word	0x00007e6f
     208:	00007e10 	.word	0x00007e10
     20c:	00007dd0 	.word	0x00007dd0
     210:	00007e40 	.word	0x00007e40
     214:	60000130 	.word	0x60000130
     218:	00007d8e 	.word	0x00007d8e
     21c:	00007e10 	.word	0x00007e10
     220:	00007d68 	.word	0x00007d68
     224:	00007e26 	.word	0x00007e26
     228:	00007d2e 	.word	0x00007d2e
     22c:	00007dfd 	.word	0x00007dfd

00000230 <append>:
append():
/mnt/disk/raspbian-tee/optee_os/lib/libutils/ext/trace.c:198
     230:	b40e      	push	{r1, r2, r3}
/mnt/disk/raspbian-tee/optee_os/lib/libutils/ext/trace.c:203
     232:	f8d0 3100 	ldr.w	r3, [r0, #256]	; 0x100
/mnt/disk/raspbian-tee/optee_os/lib/libutils/ext/trace.c:198
     236:	b533      	push	{r0, r1, r4, r5, lr}
     238:	4604      	mov	r4, r0
/mnt/disk/raspbian-tee/optee_os/lib/libutils/ext/trace.c:203
     23a:	b90b      	cbnz	r3, 240 <append+0x10>
/mnt/disk/raspbian-tee/optee_os/lib/libutils/ext/trace.c:204
     23c:	f8c4 0100 	str.w	r0, [r4, #256]	; 0x100
/mnt/disk/raspbian-tee/optee_os/lib/libutils/ext/trace.c:205
     240:	f8d4 0100 	ldr.w	r0, [r4, #256]	; 0x100
/mnt/disk/raspbian-tee/optee_os/lib/libutils/ext/trace.c:206
     244:	ab06      	add	r3, sp, #24
/mnt/disk/raspbian-tee/optee_os/lib/libutils/ext/trace.c:207
     246:	9a05      	ldr	r2, [sp, #20]
/mnt/disk/raspbian-tee/optee_os/lib/libutils/ext/trace.c:205
     248:	1b05      	subs	r5, r0, r4
/mnt/disk/raspbian-tee/optee_os/lib/libutils/ext/trace.c:206
     24a:	9301      	str	r3, [sp, #4]
/mnt/disk/raspbian-tee/optee_os/lib/libutils/ext/trace.c:205
     24c:	f5c5 7580 	rsb	r5, r5, #256	; 0x100
/mnt/disk/raspbian-tee/optee_os/lib/libutils/ext/trace.c:207
     250:	4629      	mov	r1, r5
     252:	f000 fce5 	bl	c20 <vsnprintk>
/mnt/disk/raspbian-tee/optee_os/lib/libutils/ext/trace.c:209
     256:	2800      	cmp	r0, #0
     258:	db0f      	blt.n	27a <append+0x4a>
/mnt/disk/raspbian-tee/optee_os/lib/libutils/ext/trace.c:213
     25a:	4285      	cmp	r5, r0
     25c:	dd0d      	ble.n	27a <append+0x4a>
/mnt/disk/raspbian-tee/optee_os/lib/libutils/ext/trace.c:217
     25e:	4285      	cmp	r5, r0
     260:	bfa8      	it	ge
     262:	4605      	movge	r5, r0
     264:	f8d4 0100 	ldr.w	r0, [r4, #256]	; 0x100
     268:	4405      	add	r5, r0
/mnt/disk/raspbian-tee/optee_os/lib/libutils/ext/trace.c:218
     26a:	2001      	movs	r0, #1
/mnt/disk/raspbian-tee/optee_os/lib/libutils/ext/trace.c:217
     26c:	f8c4 5100 	str.w	r5, [r4, #256]	; 0x100
/mnt/disk/raspbian-tee/optee_os/lib/libutils/ext/trace.c:219
     270:	b002      	add	sp, #8
     272:	e8bd 4030 	ldmia.w	sp!, {r4, r5, lr}
     276:	b003      	add	sp, #12
     278:	4770      	bx	lr
/mnt/disk/raspbian-tee/optee_os/lib/libutils/ext/trace.c:211
     27a:	2000      	movs	r0, #0
     27c:	e7f8      	b.n	270 <append+0x40>

0000027e <trace_set_level>:
trace_set_level():
/mnt/disk/raspbian-tee/optee_os/lib/libutils/ext/trace.c:25
     27e:	4b05      	ldr	r3, [pc, #20]	; (294 <trace_set_level+0x16>)
/mnt/disk/raspbian-tee/optee_os/lib/libutils/ext/trace.c:26
     280:	2804      	cmp	r0, #4
     282:	4a05      	ldr	r2, [pc, #20]	; (298 <trace_set_level+0x1a>)
/mnt/disk/raspbian-tee/optee_os/lib/libutils/ext/trace.c:25
     284:	447b      	add	r3, pc
     286:	589b      	ldr	r3, [r3, r2]
/mnt/disk/raspbian-tee/optee_os/lib/libutils/ext/trace.c:26
     288:	d801      	bhi.n	28e <trace_set_level+0x10>
/mnt/disk/raspbian-tee/optee_os/lib/libutils/ext/trace.c:27
     28a:	6018      	str	r0, [r3, #0]
     28c:	4770      	bx	lr
/mnt/disk/raspbian-tee/optee_os/lib/libutils/ext/trace.c:29
     28e:	2204      	movs	r2, #4
     290:	601a      	str	r2, [r3, #0]
     292:	4770      	bx	lr
     294:	0000920c 	.word	0x0000920c
     298:	00000010 	.word	0x00000010

0000029c <trace_get_level>:
trace_get_level():
/mnt/disk/raspbian-tee/optee_os/lib/libutils/ext/trace.c:33
     29c:	4b02      	ldr	r3, [pc, #8]	; (2a8 <trace_get_level+0xc>)
/mnt/disk/raspbian-tee/optee_os/lib/libutils/ext/trace.c:34
     29e:	4a03      	ldr	r2, [pc, #12]	; (2ac <trace_get_level+0x10>)
/mnt/disk/raspbian-tee/optee_os/lib/libutils/ext/trace.c:33
     2a0:	447b      	add	r3, pc
/mnt/disk/raspbian-tee/optee_os/lib/libutils/ext/trace.c:34
     2a2:	589b      	ldr	r3, [r3, r2]
/mnt/disk/raspbian-tee/optee_os/lib/libutils/ext/trace.c:35
     2a4:	6818      	ldr	r0, [r3, #0]
     2a6:	4770      	bx	lr
     2a8:	000091f0 	.word	0x000091f0
     2ac:	00000010 	.word	0x00000010

000002b0 <trace_printf>:
trace_printf():
/mnt/disk/raspbian-tee/optee_os/lib/libutils/ext/trace.c:97
     2b0:	e92d 47f0 	stmdb	sp!, {r4, r5, r6, r7, r8, r9, sl, lr}
     2b4:	4607      	mov	r7, r0
     2b6:	f8df 910c 	ldr.w	r9, [pc, #268]	; 3c4 <trace_printf+0x114>
     2ba:	b0c6      	sub	sp, #280	; 0x118
     2bc:	4688      	mov	r8, r1
     2be:	44f9      	add	r9, pc
     2c0:	4614      	mov	r4, r2
/mnt/disk/raspbian-tee/optee_os/lib/libutils/ext/trace.c:103
     2c2:	469a      	mov	sl, r3
     2c4:	2b00      	cmp	r3, #0
     2c6:	d06a      	beq.n	39e <trace_printf+0xee>
/mnt/disk/raspbian-tee/optee_os/lib/libutils/ext/trace.c:103 (discriminator 1)
     2c8:	4b3f      	ldr	r3, [pc, #252]	; (3c8 <trace_printf+0x118>)
     2ca:	f859 3003 	ldr.w	r3, [r9, r3]
     2ce:	681b      	ldr	r3, [r3, #0]
     2d0:	4293      	cmp	r3, r2
     2d2:	db61      	blt.n	398 <trace_printf+0xe8>
trace_level_to_string():
/mnt/disk/raspbian-tee/optee_os/lib/libutils/ext/trace.c:52
     2d4:	4613      	mov	r3, r2
     2d6:	2a04      	cmp	r2, #4
/mnt/disk/raspbian-tee/optee_os/lib/libutils/ext/trace.c:55
     2d8:	4a3c      	ldr	r2, [pc, #240]	; (3cc <trace_printf+0x11c>)
/mnt/disk/raspbian-tee/optee_os/lib/libutils/ext/trace.c:52
     2da:	bf88      	it	hi
     2dc:	2300      	movhi	r3, #0
/mnt/disk/raspbian-tee/optee_os/lib/libutils/ext/trace.c:55
     2de:	447a      	add	r2, pc
     2e0:	5cd3      	ldrb	r3, [r2, r3]
trace_printf():
/mnt/disk/raspbian-tee/optee_os/lib/libutils/ext/trace.c:107
     2e2:	4a3b      	ldr	r2, [pc, #236]	; (3d0 <trace_printf+0x120>)
     2e4:	ad06      	add	r5, sp, #24
     2e6:	f44f 7180 	mov.w	r1, #256	; 0x100
     2ea:	4628      	mov	r0, r5
     2ec:	447a      	add	r2, pc
     2ee:	f000 fc9e 	bl	c2e <snprintk>
/mnt/disk/raspbian-tee/optee_os/lib/libutils/ext/trace.c:109
     2f2:	1e06      	subs	r6, r0, #0
     2f4:	db50      	blt.n	398 <trace_printf+0xe8>
/mnt/disk/raspbian-tee/optee_os/lib/libutils/ext/trace.c:114
     2f6:	4b37      	ldr	r3, [pc, #220]	; (3d4 <trace_printf+0x124>)
     2f8:	f5c6 7180 	rsb	r1, r6, #256	; 0x100
     2fc:	4a36      	ldr	r2, [pc, #216]	; (3d8 <trace_printf+0x128>)
     2fe:	19a8      	adds	r0, r5, r6
     300:	447a      	add	r2, pc
     302:	f859 3003 	ldr.w	r3, [r9, r3]
     306:	9303      	str	r3, [sp, #12]
     308:	f000 fc91 	bl	c2e <snprintk>
/mnt/disk/raspbian-tee/optee_os/lib/libutils/ext/trace.c:116
     30c:	2800      	cmp	r0, #0
     30e:	db43      	blt.n	398 <trace_printf+0xe8>
/mnt/disk/raspbian-tee/optee_os/lib/libutils/ext/trace.c:118
     310:	4406      	add	r6, r0
/mnt/disk/raspbian-tee/optee_os/lib/libutils/ext/trace.c:120
     312:	f1ba 0f00 	cmp.w	sl, #0
     316:	d04b      	beq.n	3b0 <trace_printf+0x100>
/mnt/disk/raspbian-tee/optee_os/lib/libutils/ext/trace.c:120 (discriminator 1)
     318:	231a      	movs	r3, #26
     31a:	fa23 f404 	lsr.w	r4, r3, r4
     31e:	07e3      	lsls	r3, r4, #31
     320:	d546      	bpl.n	3b0 <trace_printf+0x100>
print_thread_id():
/mnt/disk/raspbian-tee/optee_os/lib/libutils/ext/trace.c:65
     322:	f000 fcb3 	bl	c8c <trace_ext_get_thread_id>
trace_printf():
/mnt/disk/raspbian-tee/optee_os/lib/libutils/ext/trace.c:122
     326:	19ac      	adds	r4, r5, r6
     328:	f5c6 7980 	rsb	r9, r6, #256	; 0x100
print_thread_id():
/mnt/disk/raspbian-tee/optee_os/lib/libutils/ext/trace.c:67
     32c:	2800      	cmp	r0, #0
     32e:	db38      	blt.n	3a2 <trace_printf+0xf2>
/mnt/disk/raspbian-tee/optee_os/lib/libutils/ext/trace.c:68
     330:	4a2a      	ldr	r2, [pc, #168]	; (3dc <trace_printf+0x12c>)
     332:	2301      	movs	r3, #1
     334:	9000      	str	r0, [sp, #0]
     336:	447a      	add	r2, pc
/mnt/disk/raspbian-tee/optee_os/lib/libutils/ext/trace.c:70
     338:	4649      	mov	r1, r9
     33a:	4620      	mov	r0, r4
     33c:	f000 fc77 	bl	c2e <snprintk>
trace_printf():
/mnt/disk/raspbian-tee/optee_os/lib/libutils/ext/trace.c:129
     340:	2800      	cmp	r0, #0
     342:	db29      	blt.n	398 <trace_printf+0xe8>
/mnt/disk/raspbian-tee/optee_os/lib/libutils/ext/trace.c:131
     344:	1984      	adds	r4, r0, r6
/mnt/disk/raspbian-tee/optee_os/lib/libutils/ext/trace.c:133
     346:	b167      	cbz	r7, 362 <trace_printf+0xb2>
/mnt/disk/raspbian-tee/optee_os/lib/libutils/ext/trace.c:134
     348:	4a25      	ldr	r2, [pc, #148]	; (3e0 <trace_printf+0x130>)
     34a:	463b      	mov	r3, r7
     34c:	f8cd 8000 	str.w	r8, [sp]
     350:	f5c4 7180 	rsb	r1, r4, #256	; 0x100
     354:	447a      	add	r2, pc
     356:	1928      	adds	r0, r5, r4
     358:	f000 fc69 	bl	c2e <snprintk>
/mnt/disk/raspbian-tee/optee_os/lib/libutils/ext/trace.c:136
     35c:	2800      	cmp	r0, #0
     35e:	db1b      	blt.n	398 <trace_printf+0xe8>
/mnt/disk/raspbian-tee/optee_os/lib/libutils/ext/trace.c:138
     360:	4404      	add	r4, r0
/mnt/disk/raspbian-tee/optee_os/lib/libutils/ext/trace.c:148
     362:	ab4f      	add	r3, sp, #316	; 0x13c
/mnt/disk/raspbian-tee/optee_os/lib/libutils/ext/trace.c:149
     364:	f5c4 7180 	rsb	r1, r4, #256	; 0x100
     368:	1928      	adds	r0, r5, r4
     36a:	9a4e      	ldr	r2, [sp, #312]	; 0x138
/mnt/disk/raspbian-tee/optee_os/lib/libutils/ext/trace.c:148
     36c:	9305      	str	r3, [sp, #20]
/mnt/disk/raspbian-tee/optee_os/lib/libutils/ext/trace.c:149
     36e:	f000 fc57 	bl	c20 <vsnprintk>
/mnt/disk/raspbian-tee/optee_os/lib/libutils/ext/trace.c:151
     372:	2800      	cmp	r0, #0
/mnt/disk/raspbian-tee/optee_os/lib/libutils/ext/trace.c:157
     374:	f04f 030a 	mov.w	r3, #10
/mnt/disk/raspbian-tee/optee_os/lib/libutils/ext/trace.c:152
     378:	bfc8      	it	gt
     37a:	1824      	addgt	r4, r4, r0
     37c:	2cfe      	cmp	r4, #254	; 0xfe
     37e:	bf28      	it	cs
     380:	24fe      	movcs	r4, #254	; 0xfe
/mnt/disk/raspbian-tee/optee_os/lib/libutils/ext/trace.c:157
     382:	552b      	strb	r3, [r5, r4]
/mnt/disk/raspbian-tee/optee_os/lib/libutils/ext/trace.c:158
     384:	b114      	cbz	r4, 38c <trace_printf+0xdc>
/mnt/disk/raspbian-tee/optee_os/lib/libutils/ext/trace.c:158 (discriminator 1)
     386:	5d2b      	ldrb	r3, [r5, r4]
     388:	2b0a      	cmp	r3, #10
     38a:	d019      	beq.n	3c0 <trace_printf+0x110>
/mnt/disk/raspbian-tee/optee_os/lib/libutils/ext/trace.c:161
     38c:	442c      	add	r4, r5
/mnt/disk/raspbian-tee/optee_os/lib/libutils/ext/trace.c:163
     38e:	4628      	mov	r0, r5
/mnt/disk/raspbian-tee/optee_os/lib/libutils/ext/trace.c:161
     390:	2300      	movs	r3, #0
     392:	70a3      	strb	r3, [r4, #2]
/mnt/disk/raspbian-tee/optee_os/lib/libutils/ext/trace.c:163
     394:	f000 fc70 	bl	c78 <trace_ext_puts>
/mnt/disk/raspbian-tee/optee_os/lib/libutils/ext/trace.c:164
     398:	b046      	add	sp, #280	; 0x118
     39a:	e8bd 87f0 	ldmia.w	sp!, {r4, r5, r6, r7, r8, r9, sl, pc}
trace_level_to_string():
/mnt/disk/raspbian-tee/optee_os/lib/libutils/ext/trace.c:50
     39e:	234d      	movs	r3, #77	; 0x4d
     3a0:	e79f      	b.n	2e2 <trace_printf+0x32>
print_thread_id():
/mnt/disk/raspbian-tee/optee_os/lib/libutils/ext/trace.c:70
     3a2:	4b10      	ldr	r3, [pc, #64]	; (3e4 <trace_printf+0x134>)
     3a4:	4a10      	ldr	r2, [pc, #64]	; (3e8 <trace_printf+0x138>)
     3a6:	447b      	add	r3, pc
     3a8:	9300      	str	r3, [sp, #0]
     3aa:	447a      	add	r2, pc
     3ac:	2301      	movs	r3, #1
     3ae:	e7c3      	b.n	338 <trace_printf+0x88>
trace_printf():
/mnt/disk/raspbian-tee/optee_os/lib/libutils/ext/trace.c:142
     3b0:	2efe      	cmp	r6, #254	; 0xfe
     3b2:	d8f1      	bhi.n	398 <trace_printf+0xe8>
/mnt/disk/raspbian-tee/optee_os/lib/libutils/ext/trace.c:144
     3b4:	1c74      	adds	r4, r6, #1
     3b6:	2320      	movs	r3, #32
     3b8:	55ab      	strb	r3, [r5, r6]
/mnt/disk/raspbian-tee/optee_os/lib/libutils/ext/trace.c:145
     3ba:	2300      	movs	r3, #0
     3bc:	552b      	strb	r3, [r5, r4]
     3be:	e7d0      	b.n	362 <trace_printf+0xb2>
/mnt/disk/raspbian-tee/optee_os/lib/libutils/ext/trace.c:159
     3c0:	3c01      	subs	r4, #1
     3c2:	e7df      	b.n	384 <trace_printf+0xd4>
     3c4:	000091d2 	.word	0x000091d2
     3c8:	00000010 	.word	0x00000010
     3cc:	00007dde 	.word	0x00007dde
     3d0:	00007ddf 	.word	0x00007ddf
     3d4:	00000018 	.word	0x00000018
     3d8:	00007dcf 	.word	0x00007dcf
     3dc:	00007d9d 	.word	0x00007d9d
     3e0:	00007d8a 	.word	0x00007d8a
     3e4:	0000842b 	.word	0x0000842b
     3e8:	00007d2f 	.word	0x00007d2f

000003ec <dhex_dump>:
dhex_dump():
/mnt/disk/raspbian-tee/optee_os/lib/libutils/ext/trace.c:225
     3ec:	e92d 4ff0 	stmdb	sp!, {r4, r5, r6, r7, r8, r9, sl, fp, lr}
     3f0:	4690      	mov	r8, r2
     3f2:	4a35      	ldr	r2, [pc, #212]	; (4c8 <dhex_dump+0xdc>)
     3f4:	468a      	mov	sl, r1
/mnt/disk/raspbian-tee/optee_os/lib/libutils/ext/trace.c:231
     3f6:	4935      	ldr	r1, [pc, #212]	; (4cc <dhex_dump+0xe0>)
/mnt/disk/raspbian-tee/optee_os/lib/libutils/ext/trace.c:225
     3f8:	447a      	add	r2, pc
     3fa:	b0c7      	sub	sp, #284	; 0x11c
     3fc:	4681      	mov	r9, r0
/mnt/disk/raspbian-tee/optee_os/lib/libutils/ext/trace.c:231
     3fe:	5852      	ldr	r2, [r2, r1]
     400:	6812      	ldr	r2, [r2, #0]
     402:	4542      	cmp	r2, r8
     404:	db1d      	blt.n	442 <dhex_dump+0x56>
     406:	461e      	mov	r6, r3
/mnt/disk/raspbian-tee/optee_os/lib/libutils/ext/trace.c:240
     408:	4b31      	ldr	r3, [pc, #196]	; (4d0 <dhex_dump+0xe4>)
/mnt/disk/raspbian-tee/optee_os/lib/libutils/ext/trace.c:232
     40a:	ad05      	add	r5, sp, #20
/mnt/disk/raspbian-tee/optee_os/lib/libutils/ext/trace.c:235
     40c:	f8df b0c4 	ldr.w	fp, [pc, #196]	; 4d4 <dhex_dump+0xe8>
/mnt/disk/raspbian-tee/optee_os/lib/libutils/ext/trace.c:240
     410:	447b      	add	r3, pc
     412:	9302      	str	r3, [sp, #8]
/mnt/disk/raspbian-tee/optee_os/lib/libutils/ext/trace.c:248
     414:	4b30      	ldr	r3, [pc, #192]	; (4d8 <dhex_dump+0xec>)
/mnt/disk/raspbian-tee/optee_os/lib/libutils/ext/trace.c:235
     416:	44fb      	add	fp, pc
/mnt/disk/raspbian-tee/optee_os/lib/libutils/ext/trace.c:232
     418:	2400      	movs	r4, #0
     41a:	f8c5 4100 	str.w	r4, [r5, #256]	; 0x100
/mnt/disk/raspbian-tee/optee_os/lib/libutils/ext/trace.c:248
     41e:	447b      	add	r3, pc
     420:	9303      	str	r3, [sp, #12]
/mnt/disk/raspbian-tee/optee_os/lib/libutils/ext/trace.c:233 (discriminator 1)
     422:	9b50      	ldr	r3, [sp, #320]	; 0x140
     424:	429c      	cmp	r4, r3
     426:	db0f      	blt.n	448 <dhex_dump+0x5c>
/mnt/disk/raspbian-tee/optee_os/lib/libutils/ext/trace.c:253
     428:	f8d5 3100 	ldr.w	r3, [r5, #256]	; 0x100
     42c:	b14b      	cbz	r3, 442 <dhex_dump+0x56>
/mnt/disk/raspbian-tee/optee_os/lib/libutils/ext/trace.c:255
     42e:	4b2b      	ldr	r3, [pc, #172]	; (4dc <dhex_dump+0xf0>)
     430:	4642      	mov	r2, r8
     432:	9501      	str	r5, [sp, #4]
     434:	4651      	mov	r1, sl
     436:	447b      	add	r3, pc
     438:	4648      	mov	r0, r9
     43a:	9300      	str	r3, [sp, #0]
     43c:	2301      	movs	r3, #1
     43e:	f7ff ff37 	bl	2b0 <trace_printf>
/mnt/disk/raspbian-tee/optee_os/lib/libutils/ext/trace.c:263
     442:	b047      	add	sp, #284	; 0x11c
     444:	e8bd 8ff0 	ldmia.w	sp!, {r4, r5, r6, r7, r8, r9, sl, fp, pc}
/mnt/disk/raspbian-tee/optee_os/lib/libutils/ext/trace.c:234
     448:	f014 070f 	ands.w	r7, r4, #15
     44c:	d013      	beq.n	476 <dhex_dump+0x8a>
/mnt/disk/raspbian-tee/optee_os/lib/libutils/ext/trace.c:240
     44e:	f816 2b01 	ldrb.w	r2, [r6], #1
     452:	4628      	mov	r0, r5
     454:	9902      	ldr	r1, [sp, #8]
     456:	f7ff feeb 	bl	230 <append>
/mnt/disk/raspbian-tee/optee_os/lib/libutils/ext/trace.c:241
     45a:	b9a8      	cbnz	r0, 488 <dhex_dump+0x9c>
/mnt/disk/raspbian-tee/optee_os/lib/libutils/ext/trace.c:262
     45c:	4820      	ldr	r0, [pc, #128]	; (4e0 <dhex_dump+0xf4>)
     45e:	2203      	movs	r2, #3
     460:	4b20      	ldr	r3, [pc, #128]	; (4e4 <dhex_dump+0xf8>)
     462:	f44f 7183 	mov.w	r1, #262	; 0x106
     466:	4478      	add	r0, pc
     468:	447b      	add	r3, pc
     46a:	3005      	adds	r0, #5
     46c:	9300      	str	r3, [sp, #0]
     46e:	2301      	movs	r3, #1
     470:	f7ff ff1e 	bl	2b0 <trace_printf>
     474:	e7e5      	b.n	442 <dhex_dump+0x56>
/mnt/disk/raspbian-tee/optee_os/lib/libutils/ext/trace.c:235
     476:	4633      	mov	r3, r6
     478:	2208      	movs	r2, #8
     47a:	4659      	mov	r1, fp
     47c:	4628      	mov	r0, r5
     47e:	f7ff fed7 	bl	230 <append>
/mnt/disk/raspbian-tee/optee_os/lib/libutils/ext/trace.c:237
     482:	2800      	cmp	r0, #0
     484:	d1e3      	bne.n	44e <dhex_dump+0x62>
     486:	e7e9      	b.n	45c <dhex_dump+0x70>
/mnt/disk/raspbian-tee/optee_os/lib/libutils/ext/trace.c:243
     488:	4263      	negs	r3, r4
     48a:	f003 030f 	and.w	r3, r3, #15
     48e:	bf58      	it	pl
     490:	425f      	negpl	r7, r3
     492:	2f07      	cmp	r7, #7
     494:	d108      	bne.n	4a8 <dhex_dump+0xbc>
/mnt/disk/raspbian-tee/optee_os/lib/libutils/ext/trace.c:244
     496:	4914      	ldr	r1, [pc, #80]	; (4e8 <dhex_dump+0xfc>)
     498:	4628      	mov	r0, r5
     49a:	4479      	add	r1, pc
     49c:	f7ff fec8 	bl	230 <append>
/mnt/disk/raspbian-tee/optee_os/lib/libutils/ext/trace.c:245
     4a0:	2800      	cmp	r0, #0
     4a2:	d0db      	beq.n	45c <dhex_dump+0x70>
/mnt/disk/raspbian-tee/optee_os/lib/libutils/ext/trace.c:233 (discriminator 2)
     4a4:	3401      	adds	r4, #1
     4a6:	e7bc      	b.n	422 <dhex_dump+0x36>
/mnt/disk/raspbian-tee/optee_os/lib/libutils/ext/trace.c:247
     4a8:	2f0f      	cmp	r7, #15
     4aa:	d1fb      	bne.n	4a4 <dhex_dump+0xb8>
/mnt/disk/raspbian-tee/optee_os/lib/libutils/ext/trace.c:248
     4ac:	9b03      	ldr	r3, [sp, #12]
     4ae:	4642      	mov	r2, r8
     4b0:	9300      	str	r3, [sp, #0]
     4b2:	4651      	mov	r1, sl
     4b4:	2301      	movs	r3, #1
     4b6:	9501      	str	r5, [sp, #4]
     4b8:	4648      	mov	r0, r9
     4ba:	f7ff fef9 	bl	2b0 <trace_printf>
/mnt/disk/raspbian-tee/optee_os/lib/libutils/ext/trace.c:250
     4be:	2300      	movs	r3, #0
     4c0:	f8c5 3100 	str.w	r3, [r5, #256]	; 0x100
     4c4:	e7ee      	b.n	4a4 <dhex_dump+0xb8>
     4c6:	bf00      	nop
     4c8:	00009098 	.word	0x00009098
     4cc:	00000010 	.word	0x00000010
     4d0:	00007cd5 	.word	0x00007cd5
     4d4:	00007cd5 	.word	0x00007cd5
     4d8:	00007cd5 	.word	0x00007cd5
     4dc:	00007cbd 	.word	0x00007cbd
     4e0:	00007c56 	.word	0x00007c56
     4e4:	00007c8e 	.word	0x00007c8e
     4e8:	00007c57 	.word	0x00007c57

000004ec <__vsnprintf>:
__vsnprintf():
/mnt/disk/raspbian-tee/optee_os/lib/libutils/ext/snprintk.c:137
     4ec:	e92d 4ff0 	stmdb	sp!, {r4, r5, r6, r7, r8, r9, sl, fp, lr}
/mnt/disk/raspbian-tee/optee_os/lib/libutils/ext/snprintk.c:141
     4f0:	4680      	mov	r8, r0
     4f2:	461f      	mov	r7, r3
/mnt/disk/raspbian-tee/optee_os/lib/libutils/ext/snprintk.c:137
     4f4:	b09f      	sub	sp, #124	; 0x7c
kprintf():
/mnt/disk/raspbian-tee/optee_os/lib/libutils/ext/snprintk.c:269
     4f6:	2300      	movs	r3, #0
__vsnprintf():
/mnt/disk/raspbian-tee/optee_os/lib/libutils/ext/snprintk.c:137
     4f8:	920b      	str	r2, [sp, #44]	; 0x2c
     4fa:	f89d 20a0 	ldrb.w	r2, [sp, #160]	; 0xa0
     4fe:	9213      	str	r2, [sp, #76]	; 0x4c
/mnt/disk/raspbian-tee/optee_os/lib/libutils/ext/snprintk.c:141
     500:	4602      	mov	r2, r0
     502:	440a      	add	r2, r1
/mnt/disk/raspbian-tee/optee_os/lib/libutils/ext/snprintk.c:137
     504:	9010      	str	r0, [sp, #64]	; 0x40
     506:	9112      	str	r1, [sp, #72]	; 0x48
/mnt/disk/raspbian-tee/optee_os/lib/libutils/ext/snprintk.c:141
     508:	920e      	str	r2, [sp, #56]	; 0x38
kprintf():
/mnt/disk/raspbian-tee/optee_os/lib/libutils/ext/snprintk.c:269
     50a:	930f      	str	r3, [sp, #60]	; 0x3c
/mnt/disk/raspbian-tee/optee_os/lib/libutils/ext/snprintk.c:267
     50c:	930c      	str	r3, [sp, #48]	; 0x30
/mnt/disk/raspbian-tee/optee_os/lib/libutils/ext/snprintk.c:275
     50e:	9b0b      	ldr	r3, [sp, #44]	; 0x2c
     510:	781b      	ldrb	r3, [r3, #0]
     512:	2b25      	cmp	r3, #37	; 0x25
     514:	d024      	beq.n	560 <__vsnprintf+0x74>
     516:	b993      	cbnz	r3, 53e <__vsnprintf+0x52>
__vsnprintf():
/mnt/disk/raspbian-tee/optee_os/lib/libutils/ext/snprintk.c:143
     518:	9b10      	ldr	r3, [sp, #64]	; 0x40
     51a:	b163      	cbz	r3, 536 <__vsnprintf+0x4a>
/mnt/disk/raspbian-tee/optee_os/lib/libutils/ext/snprintk.c:143 (discriminator 1)
     51c:	9b12      	ldr	r3, [sp, #72]	; 0x48
     51e:	b153      	cbz	r3, 536 <__vsnprintf+0x4a>
/mnt/disk/raspbian-tee/optee_os/lib/libutils/ext/snprintk.c:145
     520:	9a0c      	ldr	r2, [sp, #48]	; 0x30
     522:	4293      	cmp	r3, r2
     524:	f04f 0300 	mov.w	r3, #0
/mnt/disk/raspbian-tee/optee_os/lib/libutils/ext/snprintk.c:146
     528:	9a10      	ldr	r2, [sp, #64]	; 0x40
/mnt/disk/raspbian-tee/optee_os/lib/libutils/ext/snprintk.c:145
     52a:	f200 835f 	bhi.w	bec <__vsnprintf+0x700>
/mnt/disk/raspbian-tee/optee_os/lib/libutils/ext/snprintk.c:146
     52e:	9912      	ldr	r1, [sp, #72]	; 0x48
     530:	440a      	add	r2, r1
     532:	f802 3c01 	strb.w	r3, [r2, #-1]
/mnt/disk/raspbian-tee/optee_os/lib/libutils/ext/snprintk.c:151
     536:	980c      	ldr	r0, [sp, #48]	; 0x30
     538:	b01f      	add	sp, #124	; 0x7c
     53a:	e8bd 8ff0 	ldmia.w	sp!, {r4, r5, r6, r7, r8, r9, sl, fp, pc}
kprintf():
/mnt/disk/raspbian-tee/optee_os/lib/libutils/ext/snprintk.c:276
     53e:	9a0c      	ldr	r2, [sp, #48]	; 0x30
     540:	3201      	adds	r2, #1
     542:	920c      	str	r2, [sp, #48]	; 0x30
/mnt/disk/raspbian-tee/optee_os/lib/libutils/ext/snprintk.c:277
     544:	f1b8 0f00 	cmp.w	r8, #0
     548:	d006      	beq.n	558 <__vsnprintf+0x6c>
     54a:	9a0e      	ldr	r2, [sp, #56]	; 0x38
     54c:	4542      	cmp	r2, r8
     54e:	d903      	bls.n	558 <__vsnprintf+0x6c>
     550:	f888 3000 	strb.w	r3, [r8]
     554:	f108 0801 	add.w	r8, r8, #1
/mnt/disk/raspbian-tee/optee_os/lib/libutils/ext/snprintk.c:275
     558:	9b0b      	ldr	r3, [sp, #44]	; 0x2c
     55a:	3301      	adds	r3, #1
     55c:	930b      	str	r3, [sp, #44]	; 0x2c
     55e:	e7d6      	b.n	50e <__vsnprintf+0x22>
/mnt/disk/raspbian-tee/optee_os/lib/libutils/ext/snprintk.c:282
     560:	9b0b      	ldr	r3, [sp, #44]	; 0x2c
/mnt/disk/raspbian-tee/optee_os/lib/libutils/ext/snprintk.c:288
     562:	f04f 0a00 	mov.w	sl, #0
/mnt/disk/raspbian-tee/optee_os/lib/libutils/ext/snprintk.c:282
     566:	463a      	mov	r2, r7
/mnt/disk/raspbian-tee/optee_os/lib/libutils/ext/snprintk.c:287
     568:	f04f 3bff 	mov.w	fp, #4294967295	; 0xffffffff
/mnt/disk/raspbian-tee/optee_os/lib/libutils/ext/snprintk.c:282
     56c:	3301      	adds	r3, #1
/mnt/disk/raspbian-tee/optee_os/lib/libutils/ext/snprintk.c:284
     56e:	4656      	mov	r6, sl
/mnt/disk/raspbian-tee/optee_os/lib/libutils/ext/snprintk.c:286
     570:	f8cd a034 	str.w	sl, [sp, #52]	; 0x34
/mnt/disk/raspbian-tee/optee_os/lib/libutils/ext/snprintk.c:290
     574:	f893 9000 	ldrb.w	r9, [r3]
     578:	1c59      	adds	r1, r3, #1
     57a:	910b      	str	r1, [sp, #44]	; 0x2c
/mnt/disk/raspbian-tee/optee_os/lib/libutils/ext/snprintk.c:291
     57c:	f1b9 0f63 	cmp.w	r9, #99	; 0x63
     580:	f000 8163 	beq.w	84a <__vsnprintf+0x35e>
     584:	f300 8095 	bgt.w	6b2 <__vsnprintf+0x1c6>
     588:	f1b9 0f30 	cmp.w	r9, #48	; 0x30
     58c:	f000 8147 	beq.w	81e <__vsnprintf+0x332>
     590:	dc26      	bgt.n	5e0 <__vsnprintf+0xf4>
     592:	f1b9 0f2a 	cmp.w	r9, #42	; 0x2a
     596:	f000 8119 	beq.w	7cc <__vsnprintf+0x2e0>
     59a:	dc13      	bgt.n	5c4 <__vsnprintf+0xd8>
     59c:	f1b9 0f20 	cmp.w	r9, #32
     5a0:	f000 810a 	beq.w	7b8 <__vsnprintf+0x2cc>
     5a4:	f1b9 0f23 	cmp.w	r9, #35	; 0x23
     5a8:	f000 810d 	beq.w	7c6 <__vsnprintf+0x2da>
/mnt/disk/raspbian-tee/optee_os/lib/libutils/ext/snprintk.c:541
     5ac:	f1b9 0f00 	cmp.w	r9, #0
     5b0:	d0b2      	beq.n	518 <__vsnprintf+0x2c>
/mnt/disk/raspbian-tee/optee_os/lib/libutils/ext/snprintk.c:545
     5b2:	ab1e      	add	r3, sp, #120	; 0x78
     5b4:	4617      	mov	r7, r2
/mnt/disk/raspbian-tee/optee_os/lib/libutils/ext/snprintk.c:546
     5b6:	f04f 0b01 	mov.w	fp, #1
/mnt/disk/raspbian-tee/optee_os/lib/libutils/ext/snprintk.c:545
     5ba:	f803 9d28 	strb.w	r9, [r3, #-40]!
     5be:	e0c0      	b.n	742 <__vsnprintf+0x256>
/mnt/disk/raspbian-tee/optee_os/lib/libutils/ext/snprintk.c:311
     5c0:	461a      	mov	r2, r3
     5c2:	e00b      	b.n	5dc <__vsnprintf+0xf0>
/mnt/disk/raspbian-tee/optee_os/lib/libutils/ext/snprintk.c:291
     5c4:	f1b9 0f2d 	cmp.w	r9, #45	; 0x2d
     5c8:	f000 8109 	beq.w	7de <__vsnprintf+0x2f2>
     5cc:	f1b9 0f2e 	cmp.w	r9, #46	; 0x2e
     5d0:	f000 8108 	beq.w	7e4 <__vsnprintf+0x2f8>
     5d4:	f1b9 0f2b 	cmp.w	r9, #43	; 0x2b
     5d8:	d1e8      	bne.n	5ac <__vsnprintf+0xc0>
/mnt/disk/raspbian-tee/optee_os/lib/libutils/ext/snprintk.c:319
     5da:	46ca      	mov	sl, r9
/mnt/disk/raspbian-tee/optee_os/lib/libutils/ext/snprintk.c:322
     5dc:	9b0b      	ldr	r3, [sp, #44]	; 0x2c
     5de:	e7c9      	b.n	574 <__vsnprintf+0x88>
/mnt/disk/raspbian-tee/optee_os/lib/libutils/ext/snprintk.c:291
     5e0:	f1b9 0f44 	cmp.w	r9, #68	; 0x44
     5e4:	f000 818a 	beq.w	8fc <__vsnprintf+0x410>
     5e8:	dc14      	bgt.n	614 <__vsnprintf+0x128>
     5ea:	f1b9 0f39 	cmp.w	r9, #57	; 0x39
     5ee:	dcdd      	bgt.n	5ac <__vsnprintf+0xc0>
     5f0:	2300      	movs	r3, #0
     5f2:	930d      	str	r3, [sp, #52]	; 0x34
/mnt/disk/raspbian-tee/optee_os/lib/libutils/ext/snprintk.c:346
     5f4:	9b0d      	ldr	r3, [sp, #52]	; 0x34
     5f6:	f1a9 0930 	sub.w	r9, r9, #48	; 0x30
     5fa:	210a      	movs	r1, #10
     5fc:	fb01 9303 	mla	r3, r1, r3, r9
     600:	930d      	str	r3, [sp, #52]	; 0x34
/mnt/disk/raspbian-tee/optee_os/lib/libutils/ext/snprintk.c:347
     602:	9b0b      	ldr	r3, [sp, #44]	; 0x2c
     604:	f813 9b01 	ldrb.w	r9, [r3], #1
     608:	930b      	str	r3, [sp, #44]	; 0x2c
/mnt/disk/raspbian-tee/optee_os/lib/libutils/ext/snprintk.c:348
     60a:	f1a9 0330 	sub.w	r3, r9, #48	; 0x30
     60e:	2b09      	cmp	r3, #9
     610:	d9f0      	bls.n	5f4 <__vsnprintf+0x108>
     612:	e7b3      	b.n	57c <__vsnprintf+0x90>
/mnt/disk/raspbian-tee/optee_os/lib/libutils/ext/snprintk.c:291
     614:	f1b9 0f55 	cmp.w	r9, #85	; 0x55
     618:	f000 823d 	beq.w	a96 <__vsnprintf+0x5aa>
     61c:	f1b9 0f58 	cmp.w	r9, #88	; 0x58
     620:	f000 80ab 	beq.w	77a <__vsnprintf+0x28e>
     624:	f1b9 0f4f 	cmp.w	r9, #79	; 0x4f
     628:	d1c0      	bne.n	5ac <__vsnprintf+0xc0>
/mnt/disk/raspbian-tee/optee_os/lib/libutils/ext/snprintk.c:408
     62a:	f046 0610 	orr.w	r6, r6, #16
/mnt/disk/raspbian-tee/optee_os/lib/libutils/ext/snprintk.c:411
     62e:	0635      	lsls	r5, r6, #24
     630:	f140 81c0 	bpl.w	9b4 <__vsnprintf+0x4c8>
     634:	3207      	adds	r2, #7
     636:	f022 0207 	bic.w	r2, r2, #7
     63a:	f102 0708 	add.w	r7, r2, #8
     63e:	e9d2 4500 	ldrd	r4, r5, [r2]
/mnt/disk/raspbian-tee/optee_os/lib/libutils/ext/snprintk.c:488
     642:	f04f 0a00 	mov.w	sl, #0
     646:	f1bb 3fff 	cmp.w	fp, #4294967295	; 0xffffffff
     64a:	d011      	beq.n	670 <__vsnprintf+0x184>
     64c:	4653      	mov	r3, sl
/mnt/disk/raspbian-tee/optee_os/lib/libutils/ext/snprintk.c:489
     64e:	f426 6680 	bic.w	r6, r6, #1024	; 0x400
/mnt/disk/raspbian-tee/optee_os/lib/libutils/ext/snprintk.c:497
     652:	ea54 0205 	orrs.w	r2, r4, r5
     656:	d105      	bne.n	664 <__vsnprintf+0x178>
     658:	f1bb 0f00 	cmp.w	fp, #0
     65c:	f000 8269 	beq.w	b32 <__vsnprintf+0x646>
     660:	2400      	movs	r4, #0
     662:	2500      	movs	r5, #0
/mnt/disk/raspbian-tee/optee_os/lib/libutils/ext/snprintk.c:503
     664:	2b01      	cmp	r3, #1
     666:	f000 8161 	beq.w	92c <__vsnprintf+0x440>
     66a:	2b02      	cmp	r3, #2
     66c:	f000 81f8 	beq.w	a60 <__vsnprintf+0x574>
/mnt/disk/raspbian-tee/optee_os/lib/libutils/ext/snprintk.c:488
     670:	f10d 0275 	add.w	r2, sp, #117	; 0x75
/mnt/disk/raspbian-tee/optee_os/lib/libutils/ext/snprintk.c:507
     674:	08e0      	lsrs	r0, r4, #3
     676:	ea4f 0cd5 	mov.w	ip, r5, lsr #3
     67a:	ea40 7045 	orr.w	r0, r0, r5, lsl #29
/mnt/disk/raspbian-tee/optee_os/lib/libutils/ext/snprintk.c:506
     67e:	f004 0107 	and.w	r1, r4, #7
/mnt/disk/raspbian-tee/optee_os/lib/libutils/ext/snprintk.c:507
     682:	4665      	mov	r5, ip
     684:	4604      	mov	r4, r0
/mnt/disk/raspbian-tee/optee_os/lib/libutils/ext/snprintk.c:506
     686:	3130      	adds	r1, #48	; 0x30
     688:	1e53      	subs	r3, r2, #1
     68a:	f802 1c01 	strb.w	r1, [r2, #-1]
/mnt/disk/raspbian-tee/optee_os/lib/libutils/ext/snprintk.c:508
     68e:	ea54 0005 	orrs.w	r0, r4, r5
     692:	f040 8239 	bne.w	b08 <__vsnprintf+0x61c>
/mnt/disk/raspbian-tee/optee_os/lib/libutils/ext/snprintk.c:510
     696:	07f5      	lsls	r5, r6, #31
     698:	d505      	bpl.n	6a6 <__vsnprintf+0x1ba>
     69a:	2930      	cmp	r1, #48	; 0x30
     69c:	d003      	beq.n	6a6 <__vsnprintf+0x1ba>
/mnt/disk/raspbian-tee/optee_os/lib/libutils/ext/snprintk.c:511
     69e:	2130      	movs	r1, #48	; 0x30
     6a0:	f803 1c01 	strb.w	r1, [r3, #-1]
     6a4:	1e93      	subs	r3, r2, #2
/mnt/disk/raspbian-tee/optee_os/lib/libutils/ext/snprintk.c:537
     6a6:	f10d 0275 	add.w	r2, sp, #117	; 0x75
     6aa:	4658      	mov	r0, fp
     6ac:	eba2 0b03 	sub.w	fp, r2, r3
     6b0:	e0d5      	b.n	85e <__vsnprintf+0x372>
/mnt/disk/raspbian-tee/optee_os/lib/libutils/ext/snprintk.c:291
     6b2:	f1b9 0f6f 	cmp.w	r9, #111	; 0x6f
     6b6:	d0ba      	beq.n	62e <__vsnprintf+0x142>
     6b8:	dc1e      	bgt.n	6f8 <__vsnprintf+0x20c>
     6ba:	f1b9 0f69 	cmp.w	r9, #105	; 0x69
     6be:	f000 811f 	beq.w	900 <__vsnprintf+0x414>
     6c2:	dc0a      	bgt.n	6da <__vsnprintf+0x1ee>
     6c4:	f1b9 0f64 	cmp.w	r9, #100	; 0x64
     6c8:	f000 811a 	beq.w	900 <__vsnprintf+0x414>
     6cc:	f1b9 0f68 	cmp.w	r9, #104	; 0x68
     6d0:	f47f af6c 	bne.w	5ac <__vsnprintf+0xc0>
/mnt/disk/raspbian-tee/optee_os/lib/libutils/ext/snprintk.c:352
     6d4:	f046 0640 	orr.w	r6, r6, #64	; 0x40
     6d8:	e780      	b.n	5dc <__vsnprintf+0xf0>
/mnt/disk/raspbian-tee/optee_os/lib/libutils/ext/snprintk.c:291
     6da:	f1b9 0f6c 	cmp.w	r9, #108	; 0x6c
     6de:	f000 80a1 	beq.w	824 <__vsnprintf+0x338>
     6e2:	f1b9 0f6e 	cmp.w	r9, #110	; 0x6e
     6e6:	f000 8146 	beq.w	976 <__vsnprintf+0x48a>
     6ea:	f1b9 0f6a 	cmp.w	r9, #106	; 0x6a
     6ee:	f47f af5d 	bne.w	5ac <__vsnprintf+0xc0>
/mnt/disk/raspbian-tee/optee_os/lib/libutils/ext/snprintk.c:355
     6f2:	f046 0680 	orr.w	r6, r6, #128	; 0x80
     6f6:	e771      	b.n	5dc <__vsnprintf+0xf0>
/mnt/disk/raspbian-tee/optee_os/lib/libutils/ext/snprintk.c:291
     6f8:	f1b9 0f74 	cmp.w	r9, #116	; 0x74
     6fc:	f000 809f 	beq.w	83e <__vsnprintf+0x352>
     700:	dc22      	bgt.n	748 <__vsnprintf+0x25c>
     702:	f1b9 0f71 	cmp.w	r9, #113	; 0x71
     706:	f000 8094 	beq.w	832 <__vsnprintf+0x346>
     70a:	f2c0 8167 	blt.w	9dc <__vsnprintf+0x4f0>
     70e:	f1b9 0f73 	cmp.w	r9, #115	; 0x73
     712:	f47f af4b 	bne.w	5ac <__vsnprintf+0xc0>
/mnt/disk/raspbian-tee/optee_os/lib/libutils/ext/snprintk.c:442
     716:	6813      	ldr	r3, [r2, #0]
     718:	1d17      	adds	r7, r2, #4
     71a:	b913      	cbnz	r3, 722 <__vsnprintf+0x236>
/mnt/disk/raspbian-tee/optee_os/lib/libutils/ext/snprintk.c:444
     71c:	f8df 34ec 	ldr.w	r3, [pc, #1260]	; c0c <__vsnprintf+0x720>
     720:	447b      	add	r3, pc
/mnt/disk/raspbian-tee/optee_os/lib/libutils/ext/snprintk.c:445
     722:	f1bb 3fff 	cmp.w	fp, #4294967295	; 0xffffffff
     726:	f000 81ad 	beq.w	a84 <__vsnprintf+0x598>
/mnt/disk/raspbian-tee/optee_os/lib/libutils/ext/snprintk.c:451
     72a:	4618      	mov	r0, r3
     72c:	465a      	mov	r2, fp
     72e:	2100      	movs	r1, #0
     730:	9311      	str	r3, [sp, #68]	; 0x44
     732:	f007 f91e 	bl	7972 <memchr>
/mnt/disk/raspbian-tee/optee_os/lib/libutils/ext/snprintk.c:453
     736:	9b11      	ldr	r3, [sp, #68]	; 0x44
     738:	b120      	cbz	r0, 744 <__vsnprintf+0x258>
/mnt/disk/raspbian-tee/optee_os/lib/libutils/ext/snprintk.c:454
     73a:	1ac0      	subs	r0, r0, r3
     73c:	4583      	cmp	fp, r0
     73e:	bfa8      	it	ge
     740:	4683      	movge	fp, r0
/mnt/disk/raspbian-tee/optee_os/lib/libutils/ext/snprintk.c:285
     742:	2000      	movs	r0, #0
/mnt/disk/raspbian-tee/optee_os/lib/libutils/ext/snprintk.c:461
     744:	4682      	mov	sl, r0
     746:	e08a      	b.n	85e <__vsnprintf+0x372>
/mnt/disk/raspbian-tee/optee_os/lib/libutils/ext/snprintk.c:291
     748:	f1b9 0f78 	cmp.w	r9, #120	; 0x78
     74c:	f000 81c2 	beq.w	ad4 <__vsnprintf+0x5e8>
     750:	f1b9 0f7a 	cmp.w	r9, #122	; 0x7a
     754:	d076      	beq.n	844 <__vsnprintf+0x358>
     756:	f1b9 0f75 	cmp.w	r9, #117	; 0x75
     75a:	f47f af27 	bne.w	5ac <__vsnprintf+0xc0>
/mnt/disk/raspbian-tee/optee_os/lib/libutils/ext/snprintk.c:467
     75e:	f016 0380 	ands.w	r3, r6, #128	; 0x80
     762:	f000 819b 	beq.w	a9c <__vsnprintf+0x5b0>
     766:	3207      	adds	r2, #7
     768:	f022 0207 	bic.w	r2, r2, #7
     76c:	f102 0708 	add.w	r7, r2, #8
     770:	e9d2 4500 	ldrd	r4, r5, [r2]
/mnt/disk/raspbian-tee/optee_os/lib/libutils/ext/snprintk.c:482
     774:	f04f 0a00 	mov.w	sl, #0
     778:	e0d4      	b.n	924 <__vsnprintf+0x438>
/mnt/disk/raspbian-tee/optee_os/lib/libutils/ext/snprintk.c:471
     77a:	f8df 3494 	ldr.w	r3, [pc, #1172]	; c10 <__vsnprintf+0x724>
     77e:	447b      	add	r3, pc
/mnt/disk/raspbian-tee/optee_os/lib/libutils/ext/snprintk.c:474
     780:	930f      	str	r3, [sp, #60]	; 0x3c
/mnt/disk/raspbian-tee/optee_os/lib/libutils/ext/snprintk.c:475
     782:	0637      	lsls	r7, r6, #24
     784:	f140 81aa 	bpl.w	adc <__vsnprintf+0x5f0>
     788:	3207      	adds	r2, #7
     78a:	f022 0207 	bic.w	r2, r2, #7
     78e:	f102 0708 	add.w	r7, r2, #8
     792:	e9d2 4500 	ldrd	r4, r5, [r2]
/mnt/disk/raspbian-tee/optee_os/lib/libutils/ext/snprintk.c:478
     796:	07f3      	lsls	r3, r6, #31
     798:	f140 815c 	bpl.w	a54 <__vsnprintf+0x568>
     79c:	ea54 0305 	orrs.w	r3, r4, r5
     7a0:	f000 822d 	beq.w	bfe <__vsnprintf+0x712>
/mnt/disk/raspbian-tee/optee_os/lib/libutils/ext/snprintk.c:479
     7a4:	f046 0602 	orr.w	r6, r6, #2
/mnt/disk/raspbian-tee/optee_os/lib/libutils/ext/snprintk.c:488
     7a8:	f1bb 3fff 	cmp.w	fp, #4294967295	; 0xffffffff
     7ac:	f000 822a 	beq.w	c04 <__vsnprintf+0x718>
     7b0:	f04f 0a00 	mov.w	sl, #0
     7b4:	2302      	movs	r3, #2
     7b6:	e74a      	b.n	64e <__vsnprintf+0x162>
/mnt/disk/raspbian-tee/optee_os/lib/libutils/ext/snprintk.c:299
     7b8:	f1ba 0f00 	cmp.w	sl, #0
     7bc:	f04f 0320 	mov.w	r3, #32
     7c0:	bf08      	it	eq
     7c2:	469a      	moveq	sl, r3
     7c4:	e70a      	b.n	5dc <__vsnprintf+0xf0>
/mnt/disk/raspbian-tee/optee_os/lib/libutils/ext/snprintk.c:302
     7c6:	f046 0601 	orr.w	r6, r6, #1
     7ca:	e707      	b.n	5dc <__vsnprintf+0xf0>
/mnt/disk/raspbian-tee/optee_os/lib/libutils/ext/snprintk.c:311
     7cc:	1d13      	adds	r3, r2, #4
     7ce:	6812      	ldr	r2, [r2, #0]
     7d0:	920d      	str	r2, [sp, #52]	; 0x34
     7d2:	2a00      	cmp	r2, #0
     7d4:	f6bf aef4 	bge.w	5c0 <__vsnprintf+0xd4>
/mnt/disk/raspbian-tee/optee_os/lib/libutils/ext/snprintk.c:313
     7d8:	4252      	negs	r2, r2
     7da:	920d      	str	r2, [sp, #52]	; 0x34
/mnt/disk/raspbian-tee/optee_os/lib/libutils/ext/snprintk.c:311
     7dc:	461a      	mov	r2, r3
/mnt/disk/raspbian-tee/optee_os/lib/libutils/ext/snprintk.c:316
     7de:	f046 0604 	orr.w	r6, r6, #4
     7e2:	e6fb      	b.n	5dc <__vsnprintf+0xf0>
/mnt/disk/raspbian-tee/optee_os/lib/libutils/ext/snprintk.c:322
     7e4:	990b      	ldr	r1, [sp, #44]	; 0x2c
     7e6:	9b0b      	ldr	r3, [sp, #44]	; 0x2c
     7e8:	f891 9000 	ldrb.w	r9, [r1]
     7ec:	3301      	adds	r3, #1
     7ee:	f1b9 0f2a 	cmp.w	r9, #42	; 0x2a
     7f2:	d00e      	beq.n	812 <__vsnprintf+0x326>
     7f4:	f04f 0b00 	mov.w	fp, #0
/mnt/disk/raspbian-tee/optee_os/lib/libutils/ext/snprintk.c:330
     7f8:	930b      	str	r3, [sp, #44]	; 0x2c
/mnt/disk/raspbian-tee/optee_os/lib/libutils/ext/snprintk.c:328
     7fa:	f1a9 0330 	sub.w	r3, r9, #48	; 0x30
     7fe:	2b09      	cmp	r3, #9
     800:	f63f aebc 	bhi.w	57c <__vsnprintf+0x90>
/mnt/disk/raspbian-tee/optee_os/lib/libutils/ext/snprintk.c:329
     804:	210a      	movs	r1, #10
     806:	fb01 3b0b 	mla	fp, r1, fp, r3
/mnt/disk/raspbian-tee/optee_os/lib/libutils/ext/snprintk.c:330
     80a:	9b0b      	ldr	r3, [sp, #44]	; 0x2c
     80c:	f813 9b01 	ldrb.w	r9, [r3], #1
     810:	e7f2      	b.n	7f8 <__vsnprintf+0x30c>
/mnt/disk/raspbian-tee/optee_os/lib/libutils/ext/snprintk.c:324
     812:	6811      	ldr	r1, [r2, #0]
/mnt/disk/raspbian-tee/optee_os/lib/libutils/ext/snprintk.c:323
     814:	3204      	adds	r2, #4
/mnt/disk/raspbian-tee/optee_os/lib/libutils/ext/snprintk.c:322
     816:	930b      	str	r3, [sp, #44]	; 0x2c
/mnt/disk/raspbian-tee/optee_os/lib/libutils/ext/snprintk.c:324
     818:	ea41 7be1 	orr.w	fp, r1, r1, asr #31
     81c:	e6de      	b.n	5dc <__vsnprintf+0xf0>
/mnt/disk/raspbian-tee/optee_os/lib/libutils/ext/snprintk.c:340
     81e:	f446 6680 	orr.w	r6, r6, #1024	; 0x400
     822:	e6db      	b.n	5dc <__vsnprintf+0xf0>
/mnt/disk/raspbian-tee/optee_os/lib/libutils/ext/snprintk.c:358
     824:	9b0b      	ldr	r3, [sp, #44]	; 0x2c
     826:	781b      	ldrb	r3, [r3, #0]
     828:	2b6c      	cmp	r3, #108	; 0x6c
     82a:	d105      	bne.n	838 <__vsnprintf+0x34c>
/mnt/disk/raspbian-tee/optee_os/lib/libutils/ext/snprintk.c:359
     82c:	9b0b      	ldr	r3, [sp, #44]	; 0x2c
     82e:	3301      	adds	r3, #1
     830:	930b      	str	r3, [sp, #44]	; 0x2c
/mnt/disk/raspbian-tee/optee_os/lib/libutils/ext/snprintk.c:366
     832:	f046 0620 	orr.w	r6, r6, #32
     836:	e6d1      	b.n	5dc <__vsnprintf+0xf0>
/mnt/disk/raspbian-tee/optee_os/lib/libutils/ext/snprintk.c:362
     838:	f046 0610 	orr.w	r6, r6, #16
     83c:	e6ce      	b.n	5dc <__vsnprintf+0xf0>
/mnt/disk/raspbian-tee/optee_os/lib/libutils/ext/snprintk.c:369
     83e:	f446 7680 	orr.w	r6, r6, #256	; 0x100
     842:	e6cb      	b.n	5dc <__vsnprintf+0xf0>
/mnt/disk/raspbian-tee/optee_os/lib/libutils/ext/snprintk.c:372
     844:	f446 7600 	orr.w	r6, r6, #512	; 0x200
     848:	e6c8      	b.n	5dc <__vsnprintf+0xf0>
/mnt/disk/raspbian-tee/optee_os/lib/libutils/ext/snprintk.c:375
     84a:	ab1e      	add	r3, sp, #120	; 0x78
/mnt/disk/raspbian-tee/optee_os/lib/libutils/ext/snprintk.c:285
     84c:	f04f 0a00 	mov.w	sl, #0
/mnt/disk/raspbian-tee/optee_os/lib/libutils/ext/snprintk.c:375
     850:	1d17      	adds	r7, r2, #4
/mnt/disk/raspbian-tee/optee_os/lib/libutils/ext/snprintk.c:376
     852:	f04f 0b01 	mov.w	fp, #1
/mnt/disk/raspbian-tee/optee_os/lib/libutils/ext/snprintk.c:375
     856:	6812      	ldr	r2, [r2, #0]
/mnt/disk/raspbian-tee/optee_os/lib/libutils/ext/snprintk.c:377
     858:	4650      	mov	r0, sl
/mnt/disk/raspbian-tee/optee_os/lib/libutils/ext/snprintk.c:375
     85a:	f803 2d28 	strb.w	r2, [r3, #-40]!
/mnt/disk/raspbian-tee/optee_os/lib/libutils/ext/snprintk.c:565
     85e:	4558      	cmp	r0, fp
     860:	4602      	mov	r2, r0
     862:	bfb8      	it	lt
     864:	465a      	movlt	r2, fp
/mnt/disk/raspbian-tee/optee_os/lib/libutils/ext/snprintk.c:566
     866:	f1ba 0f00 	cmp.w	sl, #0
     86a:	f000 8165 	beq.w	b38 <__vsnprintf+0x64c>
/mnt/disk/raspbian-tee/optee_os/lib/libutils/ext/snprintk.c:567
     86e:	3201      	adds	r2, #1
/mnt/disk/raspbian-tee/optee_os/lib/libutils/ext/snprintk.c:572
     870:	990d      	ldr	r1, [sp, #52]	; 0x34
     872:	9c0c      	ldr	r4, [sp, #48]	; 0x30
     874:	4291      	cmp	r1, r2
     876:	bfb8      	it	lt
     878:	4611      	movlt	r1, r2
     87a:	440c      	add	r4, r1
/mnt/disk/raspbian-tee/optee_os/lib/libutils/ext/snprintk.c:575
     87c:	f240 4104 	movw	r1, #1028	; 0x404
/mnt/disk/raspbian-tee/optee_os/lib/libutils/ext/snprintk.c:572
     880:	940c      	str	r4, [sp, #48]	; 0x30
/mnt/disk/raspbian-tee/optee_os/lib/libutils/ext/snprintk.c:575
     882:	ea16 0401 	ands.w	r4, r6, r1
     886:	d106      	bne.n	896 <__vsnprintf+0x3aa>
/mnt/disk/raspbian-tee/optee_os/lib/libutils/ext/snprintk.c:576
     888:	990d      	ldr	r1, [sp, #52]	; 0x34
/mnt/disk/raspbian-tee/optee_os/lib/libutils/ext/snprintk.c:578
     88a:	f04f 0c20 	mov.w	ip, #32
/mnt/disk/raspbian-tee/optee_os/lib/libutils/ext/snprintk.c:576
     88e:	1a89      	subs	r1, r1, r2
/mnt/disk/raspbian-tee/optee_os/lib/libutils/ext/snprintk.c:577
     890:	2900      	cmp	r1, #0
     892:	f300 8155 	bgt.w	b40 <__vsnprintf+0x654>
/mnt/disk/raspbian-tee/optee_os/lib/libutils/ext/snprintk.c:582
     896:	f1ba 0f00 	cmp.w	sl, #0
     89a:	f000 8166 	beq.w	b6a <__vsnprintf+0x67e>
/mnt/disk/raspbian-tee/optee_os/lib/libutils/ext/snprintk.c:583
     89e:	f1b8 0f00 	cmp.w	r8, #0
     8a2:	f040 8159 	bne.w	b58 <__vsnprintf+0x66c>
/mnt/disk/raspbian-tee/optee_os/lib/libutils/ext/snprintk.c:586
     8a6:	f04f 0800 	mov.w	r8, #0
/mnt/disk/raspbian-tee/optee_os/lib/libutils/ext/snprintk.c:590
     8aa:	f5b4 6f80 	cmp.w	r4, #1024	; 0x400
     8ae:	d105      	bne.n	8bc <__vsnprintf+0x3d0>
/mnt/disk/raspbian-tee/optee_os/lib/libutils/ext/snprintk.c:591
     8b0:	990d      	ldr	r1, [sp, #52]	; 0x34
/mnt/disk/raspbian-tee/optee_os/lib/libutils/ext/snprintk.c:593
     8b2:	2430      	movs	r4, #48	; 0x30
/mnt/disk/raspbian-tee/optee_os/lib/libutils/ext/snprintk.c:591
     8b4:	1a89      	subs	r1, r1, r2
/mnt/disk/raspbian-tee/optee_os/lib/libutils/ext/snprintk.c:592
     8b6:	2900      	cmp	r1, #0
     8b8:	f300 8173 	bgt.w	ba2 <__vsnprintf+0x6b6>
/mnt/disk/raspbian-tee/optee_os/lib/libutils/ext/snprintk.c:597
     8bc:	eba0 000b 	sub.w	r0, r0, fp
/mnt/disk/raspbian-tee/optee_os/lib/libutils/ext/snprintk.c:599
     8c0:	2130      	movs	r1, #48	; 0x30
/mnt/disk/raspbian-tee/optee_os/lib/libutils/ext/snprintk.c:598
     8c2:	2800      	cmp	r0, #0
     8c4:	f300 8179 	bgt.w	bba <__vsnprintf+0x6ce>
     8c8:	eb03 010b 	add.w	r1, r3, fp
/mnt/disk/raspbian-tee/optee_os/lib/libutils/ext/snprintk.c:602
     8cc:	428b      	cmp	r3, r1
     8ce:	f040 8180 	bne.w	bd2 <__vsnprintf+0x6e6>
/mnt/disk/raspbian-tee/optee_os/lib/libutils/ext/snprintk.c:605
     8d2:	0773      	lsls	r3, r6, #29
     8d4:	f57f ae1b 	bpl.w	50e <__vsnprintf+0x22>
/mnt/disk/raspbian-tee/optee_os/lib/libutils/ext/snprintk.c:606
     8d8:	9b0d      	ldr	r3, [sp, #52]	; 0x34
     8da:	1a9b      	subs	r3, r3, r2
/mnt/disk/raspbian-tee/optee_os/lib/libutils/ext/snprintk.c:608
     8dc:	2220      	movs	r2, #32
/mnt/disk/raspbian-tee/optee_os/lib/libutils/ext/snprintk.c:607
     8de:	2b00      	cmp	r3, #0
     8e0:	f77f ae15 	ble.w	50e <__vsnprintf+0x22>
/mnt/disk/raspbian-tee/optee_os/lib/libutils/ext/snprintk.c:608
     8e4:	f1b8 0f00 	cmp.w	r8, #0
     8e8:	d006      	beq.n	8f8 <__vsnprintf+0x40c>
     8ea:	990e      	ldr	r1, [sp, #56]	; 0x38
     8ec:	4541      	cmp	r1, r8
     8ee:	d903      	bls.n	8f8 <__vsnprintf+0x40c>
     8f0:	f888 2000 	strb.w	r2, [r8]
     8f4:	f108 0801 	add.w	r8, r8, #1
     8f8:	3b01      	subs	r3, #1
     8fa:	e7f0      	b.n	8de <__vsnprintf+0x3f2>
/mnt/disk/raspbian-tee/optee_os/lib/libutils/ext/snprintk.c:380
     8fc:	f046 0610 	orr.w	r6, r6, #16
/mnt/disk/raspbian-tee/optee_os/lib/libutils/ext/snprintk.c:384
     900:	0631      	lsls	r1, r6, #24
     902:	d523      	bpl.n	94c <__vsnprintf+0x460>
     904:	3207      	adds	r2, #7
     906:	f022 0207 	bic.w	r2, r2, #7
     90a:	f102 0708 	add.w	r7, r2, #8
     90e:	e9d2 4500 	ldrd	r4, r5, [r2]
/mnt/disk/raspbian-tee/optee_os/lib/libutils/ext/snprintk.c:385
     912:	2c00      	cmp	r4, #0
     914:	f175 0300 	sbcs.w	r3, r5, #0
     918:	da04      	bge.n	924 <__vsnprintf+0x438>
/mnt/disk/raspbian-tee/optee_os/lib/libutils/ext/snprintk.c:386
     91a:	4264      	negs	r4, r4
/mnt/disk/raspbian-tee/optee_os/lib/libutils/ext/snprintk.c:387
     91c:	f04f 0a2d 	mov.w	sl, #45	; 0x2d
/mnt/disk/raspbian-tee/optee_os/lib/libutils/ext/snprintk.c:386
     920:	eb65 0545 	sbc.w	r5, r5, r5, lsl #1
/mnt/disk/raspbian-tee/optee_os/lib/libutils/ext/snprintk.c:488
     924:	f1bb 3fff 	cmp.w	fp, #4294967295	; 0xffffffff
     928:	f040 80ec 	bne.w	b04 <__vsnprintf+0x618>
/mnt/disk/raspbian-tee/optee_os/lib/libutils/ext/snprintk.c:508
     92c:	f10d 0375 	add.w	r3, sp, #117	; 0x75
     930:	9311      	str	r3, [sp, #68]	; 0x44
     932:	9b11      	ldr	r3, [sp, #68]	; 0x44
/mnt/disk/raspbian-tee/optee_os/lib/libutils/ext/snprintk.c:516
     934:	2d00      	cmp	r5, #0
     936:	bf08      	it	eq
     938:	2c0a      	cmpeq	r4, #10
     93a:	f103 33ff 	add.w	r3, r3, #4294967295	; 0xffffffff
     93e:	f080 80e5 	bcs.w	b0c <__vsnprintf+0x620>
/mnt/disk/raspbian-tee/optee_os/lib/libutils/ext/snprintk.c:520
     942:	9a11      	ldr	r2, [sp, #68]	; 0x44
     944:	3430      	adds	r4, #48	; 0x30
     946:	f802 4c01 	strb.w	r4, [r2, #-1]
     94a:	e6ac      	b.n	6a6 <__vsnprintf+0x1ba>
/mnt/disk/raspbian-tee/optee_os/lib/libutils/ext/snprintk.c:384
     94c:	05f3      	lsls	r3, r6, #23
     94e:	d503      	bpl.n	958 <__vsnprintf+0x46c>
     950:	1d17      	adds	r7, r2, #4
     952:	6814      	ldr	r4, [r2, #0]
     954:	17e5      	asrs	r5, r4, #31
     956:	e7dc      	b.n	912 <__vsnprintf+0x426>
     958:	05b7      	lsls	r7, r6, #22
     95a:	d4f9      	bmi.n	950 <__vsnprintf+0x464>
     95c:	06b5      	lsls	r5, r6, #26
     95e:	d4d1      	bmi.n	904 <__vsnprintf+0x418>
     960:	f016 0f10 	tst.w	r6, #16
     964:	f102 0704 	add.w	r7, r2, #4
     968:	d1f3      	bne.n	952 <__vsnprintf+0x466>
     96a:	f016 0f40 	tst.w	r6, #64	; 0x40
     96e:	6814      	ldr	r4, [r2, #0]
     970:	d0f0      	beq.n	954 <__vsnprintf+0x468>
     972:	b224      	sxth	r4, r4
     974:	e7ee      	b.n	954 <__vsnprintf+0x468>
/mnt/disk/raspbian-tee/optee_os/lib/libutils/ext/snprintk.c:392
     976:	f016 0f80 	tst.w	r6, #128	; 0x80
     97a:	f102 0704 	add.w	r7, r2, #4
     97e:	d006      	beq.n	98e <__vsnprintf+0x4a2>
/mnt/disk/raspbian-tee/optee_os/lib/libutils/ext/snprintk.c:399
     980:	6813      	ldr	r3, [r2, #0]
     982:	9a0c      	ldr	r2, [sp, #48]	; 0x30
     984:	4610      	mov	r0, r2
     986:	17d1      	asrs	r1, r2, #31
     988:	e9c3 0100 	strd	r0, r1, [r3]
     98c:	e5bf      	b.n	50e <__vsnprintf+0x22>
/mnt/disk/raspbian-tee/optee_os/lib/libutils/ext/snprintk.c:394
     98e:	05f4      	lsls	r4, r6, #23
     990:	d503      	bpl.n	99a <__vsnprintf+0x4ae>
/mnt/disk/raspbian-tee/optee_os/lib/libutils/ext/snprintk.c:405
     992:	6813      	ldr	r3, [r2, #0]
     994:	9a0c      	ldr	r2, [sp, #48]	; 0x30
     996:	601a      	str	r2, [r3, #0]
     998:	e5b9      	b.n	50e <__vsnprintf+0x22>
/mnt/disk/raspbian-tee/optee_os/lib/libutils/ext/snprintk.c:396
     99a:	05b0      	lsls	r0, r6, #22
     99c:	d4f9      	bmi.n	992 <__vsnprintf+0x4a6>
/mnt/disk/raspbian-tee/optee_os/lib/libutils/ext/snprintk.c:398
     99e:	06b1      	lsls	r1, r6, #26
     9a0:	d4ee      	bmi.n	980 <__vsnprintf+0x494>
/mnt/disk/raspbian-tee/optee_os/lib/libutils/ext/snprintk.c:400
     9a2:	06f3      	lsls	r3, r6, #27
     9a4:	d4f5      	bmi.n	992 <__vsnprintf+0x4a6>
/mnt/disk/raspbian-tee/optee_os/lib/libutils/ext/snprintk.c:402
     9a6:	0676      	lsls	r6, r6, #25
     9a8:	d5f3      	bpl.n	992 <__vsnprintf+0x4a6>
/mnt/disk/raspbian-tee/optee_os/lib/libutils/ext/snprintk.c:403
     9aa:	6813      	ldr	r3, [r2, #0]
     9ac:	f8bd 2030 	ldrh.w	r2, [sp, #48]	; 0x30
     9b0:	801a      	strh	r2, [r3, #0]
     9b2:	e5ac      	b.n	50e <__vsnprintf+0x22>
/mnt/disk/raspbian-tee/optee_os/lib/libutils/ext/snprintk.c:411
     9b4:	05f4      	lsls	r4, r6, #23
     9b6:	d502      	bpl.n	9be <__vsnprintf+0x4d2>
     9b8:	1d17      	adds	r7, r2, #4
     9ba:	6814      	ldr	r4, [r2, #0]
     9bc:	e00c      	b.n	9d8 <__vsnprintf+0x4ec>
     9be:	05b0      	lsls	r0, r6, #22
     9c0:	d4fa      	bmi.n	9b8 <__vsnprintf+0x4cc>
     9c2:	06b1      	lsls	r1, r6, #26
     9c4:	f53f ae36 	bmi.w	634 <__vsnprintf+0x148>
     9c8:	f016 0f10 	tst.w	r6, #16
     9cc:	f102 0704 	add.w	r7, r2, #4
     9d0:	d1f3      	bne.n	9ba <__vsnprintf+0x4ce>
     9d2:	0673      	lsls	r3, r6, #25
     9d4:	d5f1      	bpl.n	9ba <__vsnprintf+0x4ce>
     9d6:	8814      	ldrh	r4, [r2, #0]
     9d8:	2500      	movs	r5, #0
     9da:	e632      	b.n	642 <__vsnprintf+0x156>
/mnt/disk/raspbian-tee/optee_os/lib/libutils/ext/snprintk.c:415
     9dc:	9b13      	ldr	r3, [sp, #76]	; 0x4c
     9de:	2b00      	cmp	r3, #0
     9e0:	d02d      	beq.n	a3e <__vsnprintf+0x552>
     9e2:	9b0b      	ldr	r3, [sp, #44]	; 0x2c
     9e4:	781b      	ldrb	r3, [r3, #0]
     9e6:	2b55      	cmp	r3, #85	; 0x55
     9e8:	d129      	bne.n	a3e <__vsnprintf+0x552>
     9ea:	9b0b      	ldr	r3, [sp, #44]	; 0x2c
     9ec:	785b      	ldrb	r3, [r3, #1]
     9ee:	2b6c      	cmp	r3, #108	; 0x6c
     9f0:	d125      	bne.n	a3e <__vsnprintf+0x552>
/mnt/disk/raspbian-tee/optee_os/lib/libutils/ext/snprintk.c:420
     9f2:	9b0b      	ldr	r3, [sp, #44]	; 0x2c
/mnt/disk/raspbian-tee/optee_os/lib/libutils/ext/snprintk.c:421
     9f4:	1d17      	adds	r7, r2, #4
uuid2str():
/mnt/disk/raspbian-tee/optee_os/lib/libutils/ext/snprintk.c:223
     9f6:	ac14      	add	r4, sp, #80	; 0x50
     9f8:	2125      	movs	r1, #37	; 0x25
kprintf():
/mnt/disk/raspbian-tee/optee_os/lib/libutils/ext/snprintk.c:420
     9fa:	3302      	adds	r3, #2
     9fc:	930b      	str	r3, [sp, #44]	; 0x2c
/mnt/disk/raspbian-tee/optee_os/lib/libutils/ext/snprintk.c:421
     9fe:	6813      	ldr	r3, [r2, #0]
uuid2str():
/mnt/disk/raspbian-tee/optee_os/lib/libutils/ext/snprintk.c:223
     a00:	4620      	mov	r0, r4
     a02:	7bda      	ldrb	r2, [r3, #15]
     a04:	9209      	str	r2, [sp, #36]	; 0x24
     a06:	7b9a      	ldrb	r2, [r3, #14]
     a08:	9208      	str	r2, [sp, #32]
     a0a:	7b5a      	ldrb	r2, [r3, #13]
     a0c:	9207      	str	r2, [sp, #28]
     a0e:	7b1a      	ldrb	r2, [r3, #12]
     a10:	9206      	str	r2, [sp, #24]
     a12:	7ada      	ldrb	r2, [r3, #11]
     a14:	9205      	str	r2, [sp, #20]
     a16:	7a9a      	ldrb	r2, [r3, #10]
     a18:	9204      	str	r2, [sp, #16]
     a1a:	7a5a      	ldrb	r2, [r3, #9]
     a1c:	9203      	str	r2, [sp, #12]
     a1e:	7a1a      	ldrb	r2, [r3, #8]
     a20:	9202      	str	r2, [sp, #8]
     a22:	88da      	ldrh	r2, [r3, #6]
     a24:	9201      	str	r2, [sp, #4]
     a26:	889a      	ldrh	r2, [r3, #4]
     a28:	9200      	str	r2, [sp, #0]
     a2a:	4a7a      	ldr	r2, [pc, #488]	; (c14 <__vsnprintf+0x728>)
     a2c:	681b      	ldr	r3, [r3, #0]
     a2e:	447a      	add	r2, pc
     a30:	f000 f8fd 	bl	c2e <snprintk>
     a34:	4683      	mov	fp, r0
kprintf():
/mnt/disk/raspbian-tee/optee_os/lib/libutils/ext/snprintk.c:285
     a36:	2000      	movs	r0, #0
/mnt/disk/raspbian-tee/optee_os/lib/libutils/ext/snprintk.c:423
     a38:	4623      	mov	r3, r4
/mnt/disk/raspbian-tee/optee_os/lib/libutils/ext/snprintk.c:424
     a3a:	4682      	mov	sl, r0
     a3c:	e70f      	b.n	85e <__vsnprintf+0x372>
/mnt/disk/raspbian-tee/optee_os/lib/libutils/ext/snprintk.c:437
     a3e:	4b76      	ldr	r3, [pc, #472]	; (c18 <__vsnprintf+0x72c>)
/mnt/disk/raspbian-tee/optee_os/lib/libutils/ext/snprintk.c:435
     a40:	1d17      	adds	r7, r2, #4
     a42:	6814      	ldr	r4, [r2, #0]
     a44:	2500      	movs	r5, #0
/mnt/disk/raspbian-tee/optee_os/lib/libutils/ext/snprintk.c:437
     a46:	447b      	add	r3, pc
/mnt/disk/raspbian-tee/optee_os/lib/libutils/ext/snprintk.c:438
     a48:	f046 0602 	orr.w	r6, r6, #2
/mnt/disk/raspbian-tee/optee_os/lib/libutils/ext/snprintk.c:439
     a4c:	f04f 0978 	mov.w	r9, #120	; 0x78
/mnt/disk/raspbian-tee/optee_os/lib/libutils/ext/snprintk.c:437
     a50:	3311      	adds	r3, #17
     a52:	930f      	str	r3, [sp, #60]	; 0x3c
/mnt/disk/raspbian-tee/optee_os/lib/libutils/ext/snprintk.c:488
     a54:	f1bb 3fff 	cmp.w	fp, #4294967295	; 0xffffffff
     a58:	f47f aeaa 	bne.w	7b0 <__vsnprintf+0x2c4>
     a5c:	f04f 0a00 	mov.w	sl, #0
     a60:	f10d 0375 	add.w	r3, sp, #117	; 0x75
/mnt/disk/raspbian-tee/optee_os/lib/libutils/ext/snprintk.c:525
     a64:	f004 020f 	and.w	r2, r4, #15
     a68:	990f      	ldr	r1, [sp, #60]	; 0x3c
     a6a:	5c8a      	ldrb	r2, [r1, r2]
/mnt/disk/raspbian-tee/optee_os/lib/libutils/ext/snprintk.c:526
     a6c:	0929      	lsrs	r1, r5, #4
/mnt/disk/raspbian-tee/optee_os/lib/libutils/ext/snprintk.c:525
     a6e:	f803 2d01 	strb.w	r2, [r3, #-1]!
/mnt/disk/raspbian-tee/optee_os/lib/libutils/ext/snprintk.c:526
     a72:	0922      	lsrs	r2, r4, #4
     a74:	ea42 7205 	orr.w	r2, r2, r5, lsl #28
     a78:	460d      	mov	r5, r1
     a7a:	4614      	mov	r4, r2
/mnt/disk/raspbian-tee/optee_os/lib/libutils/ext/snprintk.c:527
     a7c:	ea54 0205 	orrs.w	r2, r4, r5
     a80:	d1f0      	bne.n	a64 <__vsnprintf+0x578>
     a82:	e610      	b.n	6a6 <__vsnprintf+0x1ba>
/mnt/disk/raspbian-tee/optee_os/lib/libutils/ext/snprintk.c:460
     a84:	4618      	mov	r0, r3
     a86:	9311      	str	r3, [sp, #68]	; 0x44
     a88:	f006 ff81 	bl	798e <strlen>
     a8c:	4683      	mov	fp, r0
/mnt/disk/raspbian-tee/optee_os/lib/libutils/ext/snprintk.c:285
     a8e:	2000      	movs	r0, #0
     a90:	9b11      	ldr	r3, [sp, #68]	; 0x44
/mnt/disk/raspbian-tee/optee_os/lib/libutils/ext/snprintk.c:461
     a92:	4682      	mov	sl, r0
     a94:	e6e3      	b.n	85e <__vsnprintf+0x372>
/mnt/disk/raspbian-tee/optee_os/lib/libutils/ext/snprintk.c:464
     a96:	f046 0610 	orr.w	r6, r6, #16
     a9a:	e660      	b.n	75e <__vsnprintf+0x272>
/mnt/disk/raspbian-tee/optee_os/lib/libutils/ext/snprintk.c:467
     a9c:	f416 7a80 	ands.w	sl, r6, #256	; 0x100
     aa0:	d003      	beq.n	aaa <__vsnprintf+0x5be>
     aa2:	6814      	ldr	r4, [r2, #0]
     aa4:	1d17      	adds	r7, r2, #4
     aa6:	2500      	movs	r5, #0
     aa8:	e664      	b.n	774 <__vsnprintf+0x288>
     aaa:	f416 7300 	ands.w	r3, r6, #512	; 0x200
     aae:	d003      	beq.n	ab8 <__vsnprintf+0x5cc>
     ab0:	1d17      	adds	r7, r2, #4
     ab2:	6814      	ldr	r4, [r2, #0]
     ab4:	2500      	movs	r5, #0
     ab6:	e735      	b.n	924 <__vsnprintf+0x438>
     ab8:	f016 0a20 	ands.w	sl, r6, #32
     abc:	f47f ae53 	bne.w	766 <__vsnprintf+0x27a>
     ac0:	f016 0310 	ands.w	r3, r6, #16
     ac4:	f102 0704 	add.w	r7, r2, #4
     ac8:	d1f3      	bne.n	ab2 <__vsnprintf+0x5c6>
     aca:	f016 0a40 	ands.w	sl, r6, #64	; 0x40
     ace:	d0f0      	beq.n	ab2 <__vsnprintf+0x5c6>
     ad0:	8814      	ldrh	r4, [r2, #0]
     ad2:	e7e8      	b.n	aa6 <__vsnprintf+0x5ba>
/mnt/disk/raspbian-tee/optee_os/lib/libutils/ext/snprintk.c:474
     ad4:	4b51      	ldr	r3, [pc, #324]	; (c1c <__vsnprintf+0x730>)
     ad6:	447b      	add	r3, pc
     ad8:	3311      	adds	r3, #17
     ada:	e651      	b.n	780 <__vsnprintf+0x294>
/mnt/disk/raspbian-tee/optee_os/lib/libutils/ext/snprintk.c:475
     adc:	05f5      	lsls	r5, r6, #23
     ade:	d502      	bpl.n	ae6 <__vsnprintf+0x5fa>
     ae0:	1d17      	adds	r7, r2, #4
     ae2:	6814      	ldr	r4, [r2, #0]
     ae4:	e00c      	b.n	b00 <__vsnprintf+0x614>
     ae6:	05b4      	lsls	r4, r6, #22
     ae8:	d4fa      	bmi.n	ae0 <__vsnprintf+0x5f4>
     aea:	06b0      	lsls	r0, r6, #26
     aec:	f53f ae4c 	bmi.w	788 <__vsnprintf+0x29c>
     af0:	f016 0f10 	tst.w	r6, #16
     af4:	f102 0704 	add.w	r7, r2, #4
     af8:	d1f3      	bne.n	ae2 <__vsnprintf+0x5f6>
     afa:	0671      	lsls	r1, r6, #25
     afc:	d5f1      	bpl.n	ae2 <__vsnprintf+0x5f6>
     afe:	8814      	ldrh	r4, [r2, #0]
     b00:	2500      	movs	r5, #0
     b02:	e648      	b.n	796 <__vsnprintf+0x2aa>
/mnt/disk/raspbian-tee/optee_os/lib/libutils/ext/snprintk.c:488
     b04:	2301      	movs	r3, #1
     b06:	e5a2      	b.n	64e <__vsnprintf+0x162>
/mnt/disk/raspbian-tee/optee_os/lib/libutils/ext/snprintk.c:508
     b08:	461a      	mov	r2, r3
     b0a:	e5b3      	b.n	674 <__vsnprintf+0x188>
/mnt/disk/raspbian-tee/optee_os/lib/libutils/ext/snprintk.c:517
     b0c:	9311      	str	r3, [sp, #68]	; 0x44
     b0e:	4620      	mov	r0, r4
     b10:	4629      	mov	r1, r5
     b12:	220a      	movs	r2, #10
     b14:	2300      	movs	r3, #0
     b16:	f000 e8a4 	blx	c60 <__aeabi_uldivmod>
     b1a:	9b11      	ldr	r3, [sp, #68]	; 0x44
     b1c:	3230      	adds	r2, #48	; 0x30
/mnt/disk/raspbian-tee/optee_os/lib/libutils/ext/snprintk.c:518
     b1e:	4620      	mov	r0, r4
     b20:	4629      	mov	r1, r5
/mnt/disk/raspbian-tee/optee_os/lib/libutils/ext/snprintk.c:517
     b22:	701a      	strb	r2, [r3, #0]
/mnt/disk/raspbian-tee/optee_os/lib/libutils/ext/snprintk.c:518
     b24:	220a      	movs	r2, #10
     b26:	2300      	movs	r3, #0
     b28:	f000 e89a 	blx	c60 <__aeabi_uldivmod>
     b2c:	4604      	mov	r4, r0
     b2e:	460d      	mov	r5, r1
     b30:	e6ff      	b.n	932 <__vsnprintf+0x446>
/mnt/disk/raspbian-tee/optee_os/lib/libutils/ext/snprintk.c:496
     b32:	f10d 0375 	add.w	r3, sp, #117	; 0x75
     b36:	e5b6      	b.n	6a6 <__vsnprintf+0x1ba>
/mnt/disk/raspbian-tee/optee_os/lib/libutils/ext/snprintk.c:568
     b38:	07b4      	lsls	r4, r6, #30
/mnt/disk/raspbian-tee/optee_os/lib/libutils/ext/snprintk.c:569
     b3a:	bf48      	it	mi
     b3c:	3202      	addmi	r2, #2
     b3e:	e697      	b.n	870 <__vsnprintf+0x384>
/mnt/disk/raspbian-tee/optee_os/lib/libutils/ext/snprintk.c:578
     b40:	f1b8 0f00 	cmp.w	r8, #0
     b44:	d006      	beq.n	b54 <__vsnprintf+0x668>
     b46:	9d0e      	ldr	r5, [sp, #56]	; 0x38
     b48:	4545      	cmp	r5, r8
     b4a:	d903      	bls.n	b54 <__vsnprintf+0x668>
     b4c:	f888 c000 	strb.w	ip, [r8]
     b50:	f108 0801 	add.w	r8, r8, #1
     b54:	3901      	subs	r1, #1
     b56:	e69b      	b.n	890 <__vsnprintf+0x3a4>
/mnt/disk/raspbian-tee/optee_os/lib/libutils/ext/snprintk.c:583
     b58:	990e      	ldr	r1, [sp, #56]	; 0x38
     b5a:	4541      	cmp	r1, r8
     b5c:	f67f aea5 	bls.w	8aa <__vsnprintf+0x3be>
     b60:	f888 a000 	strb.w	sl, [r8]
     b64:	f108 0801 	add.w	r8, r8, #1
     b68:	e69f      	b.n	8aa <__vsnprintf+0x3be>
/mnt/disk/raspbian-tee/optee_os/lib/libutils/ext/snprintk.c:584
     b6a:	07b1      	lsls	r1, r6, #30
     b6c:	f57f ae9d 	bpl.w	8aa <__vsnprintf+0x3be>
/mnt/disk/raspbian-tee/optee_os/lib/libutils/ext/snprintk.c:585
     b70:	f1b8 0f00 	cmp.w	r8, #0
     b74:	f43f ae97 	beq.w	8a6 <__vsnprintf+0x3ba>
     b78:	990e      	ldr	r1, [sp, #56]	; 0x38
     b7a:	4541      	cmp	r1, r8
     b7c:	f67f ae95 	bls.w	8aa <__vsnprintf+0x3be>
     b80:	2130      	movs	r1, #48	; 0x30
     b82:	f888 1000 	strb.w	r1, [r8]
/mnt/disk/raspbian-tee/optee_os/lib/libutils/ext/snprintk.c:586
     b86:	f118 0101 	adds.w	r1, r8, #1
     b8a:	f43f ae8c 	beq.w	8a6 <__vsnprintf+0x3ba>
     b8e:	9d0e      	ldr	r5, [sp, #56]	; 0x38
     b90:	428d      	cmp	r5, r1
     b92:	d904      	bls.n	b9e <__vsnprintf+0x6b2>
     b94:	f888 9001 	strb.w	r9, [r8, #1]
     b98:	f108 0802 	add.w	r8, r8, #2
     b9c:	e685      	b.n	8aa <__vsnprintf+0x3be>
     b9e:	4688      	mov	r8, r1
     ba0:	e683      	b.n	8aa <__vsnprintf+0x3be>
/mnt/disk/raspbian-tee/optee_os/lib/libutils/ext/snprintk.c:593
     ba2:	f1b8 0f00 	cmp.w	r8, #0
     ba6:	d006      	beq.n	bb6 <__vsnprintf+0x6ca>
     ba8:	9d0e      	ldr	r5, [sp, #56]	; 0x38
     baa:	4545      	cmp	r5, r8
     bac:	d903      	bls.n	bb6 <__vsnprintf+0x6ca>
     bae:	f888 4000 	strb.w	r4, [r8]
     bb2:	f108 0801 	add.w	r8, r8, #1
     bb6:	3901      	subs	r1, #1
     bb8:	e67d      	b.n	8b6 <__vsnprintf+0x3ca>
/mnt/disk/raspbian-tee/optee_os/lib/libutils/ext/snprintk.c:599
     bba:	f1b8 0f00 	cmp.w	r8, #0
     bbe:	d006      	beq.n	bce <__vsnprintf+0x6e2>
     bc0:	9c0e      	ldr	r4, [sp, #56]	; 0x38
     bc2:	4544      	cmp	r4, r8
     bc4:	d903      	bls.n	bce <__vsnprintf+0x6e2>
     bc6:	f888 1000 	strb.w	r1, [r8]
     bca:	f108 0801 	add.w	r8, r8, #1
     bce:	3801      	subs	r0, #1
     bd0:	e677      	b.n	8c2 <__vsnprintf+0x3d6>
/mnt/disk/raspbian-tee/optee_os/lib/libutils/ext/snprintk.c:603
     bd2:	f1b8 0f00 	cmp.w	r8, #0
     bd6:	d007      	beq.n	be8 <__vsnprintf+0x6fc>
     bd8:	980e      	ldr	r0, [sp, #56]	; 0x38
     bda:	4540      	cmp	r0, r8
     bdc:	d904      	bls.n	be8 <__vsnprintf+0x6fc>
     bde:	7818      	ldrb	r0, [r3, #0]
     be0:	f108 0801 	add.w	r8, r8, #1
     be4:	f808 0c01 	strb.w	r0, [r8, #-1]
/mnt/disk/raspbian-tee/optee_os/lib/libutils/ext/snprintk.c:602
     be8:	3301      	adds	r3, #1
     bea:	e66f      	b.n	8cc <__vsnprintf+0x3e0>
__vsnprintf():
/mnt/disk/raspbian-tee/optee_os/lib/libutils/ext/snprintk.c:148
     bec:	990c      	ldr	r1, [sp, #48]	; 0x30
     bee:	5453      	strb	r3, [r2, r1]
/mnt/disk/raspbian-tee/optee_os/lib/libutils/ext/snprintk.c:150
     bf0:	e4a1      	b.n	536 <__vsnprintf+0x4a>
kprintf():
/mnt/disk/raspbian-tee/optee_os/lib/libutils/ext/snprintk.c:489
     bf2:	f426 6680 	bic.w	r6, r6, #1024	; 0x400
/mnt/disk/raspbian-tee/optee_os/lib/libutils/ext/snprintk.c:482
     bf6:	f04f 0a00 	mov.w	sl, #0
/mnt/disk/raspbian-tee/optee_os/lib/libutils/ext/snprintk.c:476
     bfa:	2302      	movs	r3, #2
     bfc:	e52c      	b.n	658 <__vsnprintf+0x16c>
/mnt/disk/raspbian-tee/optee_os/lib/libutils/ext/snprintk.c:488
     bfe:	f1bb 3fff 	cmp.w	fp, #4294967295	; 0xffffffff
     c02:	d1f6      	bne.n	bf2 <__vsnprintf+0x706>
     c04:	f04f 3bff 	mov.w	fp, #4294967295	; 0xffffffff
     c08:	e728      	b.n	a5c <__vsnprintf+0x570>
     c0a:	bf00      	nop
     c0c:	00007a07 	.word	0x00007a07
     c10:	00007987 	.word	0x00007987
     c14:	00007700 	.word	0x00007700
     c18:	000076bf 	.word	0x000076bf
     c1c:	0000762f 	.word	0x0000762f

00000c20 <vsnprintk>:
vsnprintk():
/mnt/disk/raspbian-tee/optee_os/lib/libutils/ext/snprintk.c:129
     c20:	b513      	push	{r0, r1, r4, lr}
/mnt/disk/raspbian-tee/optee_os/lib/libutils/ext/snprintk.c:130
     c22:	2401      	movs	r4, #1
     c24:	9400      	str	r4, [sp, #0]
     c26:	f7ff fc61 	bl	4ec <__vsnprintf>
/mnt/disk/raspbian-tee/optee_os/lib/libutils/ext/snprintk.c:131
     c2a:	b002      	add	sp, #8
     c2c:	bd10      	pop	{r4, pc}

00000c2e <snprintk>:
snprintk():
/mnt/disk/raspbian-tee/optee_os/lib/libutils/ext/snprintk.c:112
     c2e:	b40c      	push	{r2, r3}
     c30:	b507      	push	{r0, r1, r2, lr}
     c32:	ab04      	add	r3, sp, #16
     c34:	f853 2b04 	ldr.w	r2, [r3], #4
/mnt/disk/raspbian-tee/optee_os/lib/libutils/ext/snprintk.c:116
     c38:	9301      	str	r3, [sp, #4]
/mnt/disk/raspbian-tee/optee_os/lib/libutils/ext/snprintk.c:117
     c3a:	f7ff fff1 	bl	c20 <vsnprintk>
/mnt/disk/raspbian-tee/optee_os/lib/libutils/ext/snprintk.c:121
     c3e:	b003      	add	sp, #12
     c40:	f85d eb04 	ldr.w	lr, [sp], #4
     c44:	b002      	add	sp, #8
     c46:	4770      	bx	lr

00000c48 <__aeabi_ldivmod>:
__aeabi_ldivmod():
/mnt/disk/raspbian-tee/optee_os/lib/libutils/isoc/arch/arm/arm32_aeabi_ldivmod_a32.S:24
     c48:	e92d5000 	push	{ip, lr}
/mnt/disk/raspbian-tee/optee_os/lib/libutils/isoc/arch/arm/arm32_aeabi_ldivmod_a32.S:26
     c4c:	e92d000f 	push	{r0, r1, r2, r3}
/mnt/disk/raspbian-tee/optee_os/lib/libutils/isoc/arch/arm/arm32_aeabi_ldivmod_a32.S:28
     c50:	e1a0000d 	mov	r0, sp
/mnt/disk/raspbian-tee/optee_os/lib/libutils/isoc/arch/arm/arm32_aeabi_ldivmod_a32.S:29
     c54:	fb001b6d 	blx	7a12 <__l_divmod>
/mnt/disk/raspbian-tee/optee_os/lib/libutils/isoc/arch/arm/arm32_aeabi_ldivmod_a32.S:30
     c58:	e8bd000f 	pop	{r0, r1, r2, r3}
/mnt/disk/raspbian-tee/optee_os/lib/libutils/isoc/arch/arm/arm32_aeabi_ldivmod_a32.S:31
     c5c:	e8bd9000 	pop	{ip, pc}

00000c60 <__aeabi_uldivmod>:
__aeabi_uldivmod():
/mnt/disk/raspbian-tee/optee_os/lib/libutils/isoc/arch/arm/arm32_aeabi_ldivmod_a32.S:42
     c60:	e92d5000 	push	{ip, lr}
/mnt/disk/raspbian-tee/optee_os/lib/libutils/isoc/arch/arm/arm32_aeabi_ldivmod_a32.S:44
     c64:	e92d000f 	push	{r0, r1, r2, r3}
/mnt/disk/raspbian-tee/optee_os/lib/libutils/isoc/arch/arm/arm32_aeabi_ldivmod_a32.S:46
     c68:	e1a0000d 	mov	r0, sp
/mnt/disk/raspbian-tee/optee_os/lib/libutils/isoc/arch/arm/arm32_aeabi_ldivmod_a32.S:47
     c6c:	fb001b4a 	blx	799e <__ul_divmod>
/mnt/disk/raspbian-tee/optee_os/lib/libutils/isoc/arch/arm/arm32_aeabi_ldivmod_a32.S:48
     c70:	e8bd000f 	pop	{r0, r1, r2, r3}
/mnt/disk/raspbian-tee/optee_os/lib/libutils/isoc/arch/arm/arm32_aeabi_ldivmod_a32.S:49
     c74:	e8bd9000 	pop	{ip, pc}

00000c78 <trace_ext_puts>:
trace_ext_puts():
/mnt/disk/raspbian-tee/optee_os/lib/libutee/trace_ext.c:17
     c78:	b510      	push	{r4, lr}
     c7a:	4604      	mov	r4, r0
/mnt/disk/raspbian-tee/optee_os/lib/libutee/trace_ext.c:18
     c7c:	f006 fe87 	bl	798e <strlen>
     c80:	4601      	mov	r1, r0
     c82:	4620      	mov	r0, r4
/mnt/disk/raspbian-tee/optee_os/lib/libutee/trace_ext.c:19
     c84:	e8bd 4010 	ldmia.w	sp!, {r4, lr}
/mnt/disk/raspbian-tee/optee_os/lib/libutee/trace_ext.c:18
     c88:	f006 bfb6 	b.w	7bf8 <__utee_log_from_thumb>

00000c8c <trace_ext_get_thread_id>:
trace_ext_get_thread_id():
/mnt/disk/raspbian-tee/optee_os/lib/libutee/trace_ext.c:24
     c8c:	f04f 30ff 	mov.w	r0, #4294967295	; 0xffffffff
     c90:	4770      	bx	lr

00000c92 <printf>:
printf():
/mnt/disk/raspbian-tee/optee_os/lib/libutee/trace_ext.c:32
     c92:	b40f      	push	{r0, r1, r2, r3}
     c94:	b530      	push	{r4, r5, lr}
     c96:	b0c3      	sub	sp, #268	; 0x10c
/mnt/disk/raspbian-tee/optee_os/lib/libutee/trace_ext.c:37
     c98:	f7ff fb00 	bl	29c <trace_get_level>
     c9c:	2800      	cmp	r0, #0
     c9e:	dd13      	ble.n	cc8 <printf+0x36>
/mnt/disk/raspbian-tee/optee_os/lib/libutee/trace_ext.c:41
     ca0:	ad02      	add	r5, sp, #8
/mnt/disk/raspbian-tee/optee_os/lib/libutee/trace_ext.c:40
     ca2:	ab47      	add	r3, sp, #284	; 0x11c
/mnt/disk/raspbian-tee/optee_os/lib/libutee/trace_ext.c:41
     ca4:	9a46      	ldr	r2, [sp, #280]	; 0x118
     ca6:	f44f 7180 	mov.w	r1, #256	; 0x100
     caa:	4628      	mov	r0, r5
/mnt/disk/raspbian-tee/optee_os/lib/libutee/trace_ext.c:40
     cac:	9301      	str	r3, [sp, #4]
/mnt/disk/raspbian-tee/optee_os/lib/libutee/trace_ext.c:41
     cae:	f006 ff37 	bl	7b20 <vsnprintf>
/mnt/disk/raspbian-tee/optee_os/lib/libutee/trace_ext.c:44
     cb2:	1e04      	subs	r4, r0, #0
     cb4:	db02      	blt.n	cbc <printf+0x2a>
/mnt/disk/raspbian-tee/optee_os/lib/libutee/trace_ext.c:47
     cb6:	4628      	mov	r0, r5
     cb8:	f7ff ffde 	bl	c78 <trace_ext_puts>
/mnt/disk/raspbian-tee/optee_os/lib/libutee/trace_ext.c:50
     cbc:	4620      	mov	r0, r4
     cbe:	b043      	add	sp, #268	; 0x10c
     cc0:	e8bd 4030 	ldmia.w	sp!, {r4, r5, lr}
     cc4:	b004      	add	sp, #16
     cc6:	4770      	bx	lr
/mnt/disk/raspbian-tee/optee_os/lib/libutee/trace_ext.c:38
     cc8:	2400      	movs	r4, #0
     cca:	e7f7      	b.n	cbc <printf+0x2a>

00000ccc <puts>:
puts():
/mnt/disk/raspbian-tee/optee_os/lib/libutee/trace_ext.c:53
     ccc:	b510      	push	{r4, lr}
     cce:	4604      	mov	r4, r0
/mnt/disk/raspbian-tee/optee_os/lib/libutee/trace_ext.c:54
     cd0:	f7ff fae4 	bl	29c <trace_get_level>
     cd4:	2800      	cmp	r0, #0
     cd6:	dd06      	ble.n	ce6 <puts+0x1a>
/mnt/disk/raspbian-tee/optee_os/lib/libutee/trace_ext.c:55
     cd8:	4620      	mov	r0, r4
     cda:	f7ff ffcd 	bl	c78 <trace_ext_puts>
/mnt/disk/raspbian-tee/optee_os/lib/libutee/trace_ext.c:56
     cde:	4803      	ldr	r0, [pc, #12]	; (cec <puts+0x20>)
     ce0:	4478      	add	r0, pc
     ce2:	f7ff ffc9 	bl	c78 <trace_ext_puts>
/mnt/disk/raspbian-tee/optee_os/lib/libutee/trace_ext.c:59
     ce6:	2001      	movs	r0, #1
     ce8:	bd10      	pop	{r4, pc}
     cea:	bf00      	nop
     cec:	00007af0 	.word	0x00007af0

00000cf0 <putchar>:
putchar():
/mnt/disk/raspbian-tee/optee_os/lib/libutee/trace_ext.c:62
     cf0:	b513      	push	{r0, r1, r4, lr}
/mnt/disk/raspbian-tee/optee_os/lib/libutee/trace_ext.c:63
     cf2:	2300      	movs	r3, #0
/mnt/disk/raspbian-tee/optee_os/lib/libutee/trace_ext.c:62
     cf4:	4604      	mov	r4, r0
/mnt/disk/raspbian-tee/optee_os/lib/libutee/trace_ext.c:63
     cf6:	f88d 0004 	strb.w	r0, [sp, #4]
     cfa:	f88d 3005 	strb.w	r3, [sp, #5]
/mnt/disk/raspbian-tee/optee_os/lib/libutee/trace_ext.c:65
     cfe:	f7ff facd 	bl	29c <trace_get_level>
     d02:	2800      	cmp	r0, #0
     d04:	dd02      	ble.n	d0c <putchar+0x1c>
/mnt/disk/raspbian-tee/optee_os/lib/libutee/trace_ext.c:66
     d06:	a801      	add	r0, sp, #4
     d08:	f7ff ffb6 	bl	c78 <trace_ext_puts>
/mnt/disk/raspbian-tee/optee_os/lib/libutee/trace_ext.c:73
     d0c:	b2e0      	uxtb	r0, r4
     d0e:	b002      	add	sp, #8
     d10:	bd10      	pop	{r4, pc}
     d12:	bf00      	nop

00000d14 <__utee_from_param>:
__utee_from_param():
/mnt/disk/raspbian-tee/optee_os/lib/libutee/tee_api.c:23
     d14:	2300      	movs	r3, #0
/mnt/disk/raspbian-tee/optee_os/lib/libutee/tee_api.c:20
     d16:	b5f0      	push	{r4, r5, r6, r7, lr}
     d18:	4694      	mov	ip, r2
     d1a:	4615      	mov	r5, r2
/mnt/disk/raspbian-tee/optee_os/lib/libutee/tee_api.c:39
     d1c:	2600      	movs	r6, #0
     d1e:	2700      	movs	r7, #0
/mnt/disk/raspbian-tee/optee_os/lib/libutee/tee_api.c:35
     d20:	461a      	mov	r2, r3
/mnt/disk/raspbian-tee/optee_os/lib/libutee/tee_api.c:23
     d22:	e880 000a 	stmia.w	r0, {r1, r3}
/mnt/disk/raspbian-tee/optee_os/lib/libutee/tee_api.c:25
     d26:	fa21 f403 	lsr.w	r4, r1, r3
     d2a:	f004 040f 	and.w	r4, r4, #15
     d2e:	3c01      	subs	r4, #1
     d30:	2c06      	cmp	r4, #6
     d32:	d812      	bhi.n	d5a <__utee_from_param+0x46>
     d34:	e8df f004 	tbb	[pc, r4]
     d38:	11040404 	.word	0x11040404
     d3c:	0404      	.short	0x0404
     d3e:	04          	.byte	0x04
     d3f:	00          	.byte	0x00
/mnt/disk/raspbian-tee/optee_os/lib/libutee/tee_api.c:35
     d40:	f85c 4013 	ldr.w	r4, [ip, r3, lsl #1]
     d44:	6084      	str	r4, [r0, #8]
     d46:	60c2      	str	r2, [r0, #12]
/mnt/disk/raspbian-tee/optee_os/lib/libutee/tee_api.c:36
     d48:	686c      	ldr	r4, [r5, #4]
     d4a:	6104      	str	r4, [r0, #16]
     d4c:	6142      	str	r2, [r0, #20]
     d4e:	3304      	adds	r3, #4
     d50:	3508      	adds	r5, #8
     d52:	3010      	adds	r0, #16
/mnt/disk/raspbian-tee/optee_os/lib/libutee/tee_api.c:24 (discriminator 2)
     d54:	2b10      	cmp	r3, #16
     d56:	d1e6      	bne.n	d26 <__utee_from_param+0x12>
/mnt/disk/raspbian-tee/optee_os/lib/libutee/tee_api.c:44
     d58:	bdf0      	pop	{r4, r5, r6, r7, pc}
/mnt/disk/raspbian-tee/optee_os/lib/libutee/tee_api.c:39
     d5a:	e9c0 6702 	strd	r6, r7, [r0, #8]
/mnt/disk/raspbian-tee/optee_os/lib/libutee/tee_api.c:40
     d5e:	e9c0 6704 	strd	r6, r7, [r0, #16]
/mnt/disk/raspbian-tee/optee_os/lib/libutee/tee_api.c:41
     d62:	e7f4      	b.n	d4e <__utee_from_param+0x3a>

00000d64 <__utee_to_param>:
__utee_to_param():
/mnt/disk/raspbian-tee/optee_os/lib/libutee/tee_api.c:48
     d64:	b5f0      	push	{r4, r5, r6, r7, lr}
/mnt/disk/raspbian-tee/optee_os/lib/libutee/tee_api.c:50
     d66:	2300      	movs	r3, #0
     d68:	6816      	ldr	r6, [r2, #0]
     d6a:	4605      	mov	r5, r0
/mnt/disk/raspbian-tee/optee_os/lib/libutee/tee_api.c:56
     d6c:	fa26 f403 	lsr.w	r4, r6, r3
/mnt/disk/raspbian-tee/optee_os/lib/libutee/tee_api.c:53
     d70:	f8d2 c008 	ldr.w	ip, [r2, #8]
/mnt/disk/raspbian-tee/optee_os/lib/libutee/tee_api.c:56
     d74:	f004 040f 	and.w	r4, r4, #15
/mnt/disk/raspbian-tee/optee_os/lib/libutee/tee_api.c:54
     d78:	6917      	ldr	r7, [r2, #16]
/mnt/disk/raspbian-tee/optee_os/lib/libutee/tee_api.c:56
     d7a:	3c01      	subs	r4, #1
     d7c:	2c06      	cmp	r4, #6
     d7e:	d808      	bhi.n	d92 <__utee_to_param+0x2e>
     d80:	e8df f004 	tbb	[pc, r4]
     d84:	07040404 	.word	0x07040404
     d88:	0404      	.short	0x0404
     d8a:	04          	.byte	0x04
     d8b:	00          	.byte	0x00
/mnt/disk/raspbian-tee/optee_os/lib/libutee/tee_api.c:66
     d8c:	f840 c013 	str.w	ip, [r0, r3, lsl #1]
/mnt/disk/raspbian-tee/optee_os/lib/libutee/tee_api.c:67
     d90:	606f      	str	r7, [r5, #4]
     d92:	3304      	adds	r3, #4
     d94:	3210      	adds	r2, #16
     d96:	3508      	adds	r5, #8
/mnt/disk/raspbian-tee/optee_os/lib/libutee/tee_api.c:52 (discriminator 2)
     d98:	2b10      	cmp	r3, #16
     d9a:	d1e7      	bne.n	d6c <__utee_to_param+0x8>
/mnt/disk/raspbian-tee/optee_os/lib/libutee/tee_api.c:74
     d9c:	b101      	cbz	r1, da0 <__utee_to_param+0x3c>
/mnt/disk/raspbian-tee/optee_os/lib/libutee/tee_api.c:75
     d9e:	600e      	str	r6, [r1, #0]
     da0:	bdf0      	pop	{r4, r5, r6, r7, pc}

00000da2 <TEE_OpenTASession>:
TEE_OpenTASession():
/mnt/disk/raspbian-tee/optee_os/lib/libutee/tee_api.c:84
     da2:	b5f0      	push	{r4, r5, r6, r7, lr}
     da4:	4605      	mov	r5, r0
     da6:	460f      	mov	r7, r1
     da8:	b097      	sub	sp, #92	; 0x5c
     daa:	4611      	mov	r1, r2
/mnt/disk/raspbian-tee/optee_os/lib/libutee/tee_api.c:89
     dac:	ac04      	add	r4, sp, #16
     dae:	461a      	mov	r2, r3
     db0:	4620      	mov	r0, r4
/mnt/disk/raspbian-tee/optee_os/lib/libutee/tee_api.c:84
     db2:	461e      	mov	r6, r3
/mnt/disk/raspbian-tee/optee_os/lib/libutee/tee_api.c:89
     db4:	f7ff ffae 	bl	d14 <__utee_from_param>
/mnt/disk/raspbian-tee/optee_os/lib/libutee/tee_api.c:90
     db8:	9b1d      	ldr	r3, [sp, #116]	; 0x74
     dba:	9300      	str	r3, [sp, #0]
     dbc:	4622      	mov	r2, r4
     dbe:	4639      	mov	r1, r7
     dc0:	4628      	mov	r0, r5
     dc2:	ab03      	add	r3, sp, #12
     dc4:	f002 e90a 	blx	2fdc <utee_open_ta_session>
/mnt/disk/raspbian-tee/optee_os/lib/libutee/tee_api.c:92
     dc8:	4622      	mov	r2, r4
/mnt/disk/raspbian-tee/optee_os/lib/libutee/tee_api.c:90
     dca:	4605      	mov	r5, r0
/mnt/disk/raspbian-tee/optee_os/lib/libutee/tee_api.c:92
     dcc:	2100      	movs	r1, #0
     dce:	4630      	mov	r0, r6
     dd0:	f7ff ffc8 	bl	d64 <__utee_to_param>
/mnt/disk/raspbian-tee/optee_os/lib/libutee/tee_api.c:98
     dd4:	b10d      	cbz	r5, dda <TEE_OpenTASession+0x38>
/mnt/disk/raspbian-tee/optee_os/lib/libutee/tee_api.c:99
     dd6:	2300      	movs	r3, #0
     dd8:	9303      	str	r3, [sp, #12]
/mnt/disk/raspbian-tee/optee_os/lib/libutee/tee_api.c:101
     dda:	9b1c      	ldr	r3, [sp, #112]	; 0x70
/mnt/disk/raspbian-tee/optee_os/lib/libutee/tee_api.c:103
     ddc:	4628      	mov	r0, r5
/mnt/disk/raspbian-tee/optee_os/lib/libutee/tee_api.c:101
     dde:	9a03      	ldr	r2, [sp, #12]
     de0:	601a      	str	r2, [r3, #0]
/mnt/disk/raspbian-tee/optee_os/lib/libutee/tee_api.c:103
     de2:	b017      	add	sp, #92	; 0x5c
     de4:	bdf0      	pop	{r4, r5, r6, r7, pc}

00000de6 <TEE_CloseTASession>:
TEE_CloseTASession():
/mnt/disk/raspbian-tee/optee_os/lib/libutee/tee_api.c:106
     de6:	b508      	push	{r3, lr}
/mnt/disk/raspbian-tee/optee_os/lib/libutee/tee_api.c:107
     de8:	b130      	cbz	r0, df8 <TEE_CloseTASession+0x12>
/mnt/disk/raspbian-tee/optee_os/lib/libutee/tee_api.c:108
     dea:	f002 e904 	blx	2ff4 <utee_close_ta_session>
/mnt/disk/raspbian-tee/optee_os/lib/libutee/tee_api.c:110
     dee:	b118      	cbz	r0, df8 <TEE_CloseTASession+0x12>
/mnt/disk/raspbian-tee/optee_os/lib/libutee/tee_api.c:113
     df0:	e8bd 4008 	ldmia.w	sp!, {r3, lr}
/mnt/disk/raspbian-tee/optee_os/lib/libutee/tee_api.c:111
     df4:	f006 be83 	b.w	7afe <TEE_Panic>
     df8:	bd08      	pop	{r3, pc}

00000dfa <TEE_InvokeTACommand>:
TEE_InvokeTACommand():
/mnt/disk/raspbian-tee/optee_os/lib/libutee/tee_api.c:120
     dfa:	e92d 41f0 	stmdb	sp!, {r4, r5, r6, r7, r8, lr}
     dfe:	4604      	mov	r4, r0
     e00:	460f      	mov	r7, r1
     e02:	b096      	sub	sp, #88	; 0x58
/mnt/disk/raspbian-tee/optee_os/lib/libutee/tee_api.c:125
     e04:	4619      	mov	r1, r3
     e06:	ad04      	add	r5, sp, #16
/mnt/disk/raspbian-tee/optee_os/lib/libutee/tee_api.c:120
     e08:	4690      	mov	r8, r2
/mnt/disk/raspbian-tee/optee_os/lib/libutee/tee_api.c:125
     e0a:	4628      	mov	r0, r5
/mnt/disk/raspbian-tee/optee_os/lib/libutee/tee_api.c:120
     e0c:	9e1d      	ldr	r6, [sp, #116]	; 0x74
/mnt/disk/raspbian-tee/optee_os/lib/libutee/tee_api.c:125
     e0e:	9a1c      	ldr	r2, [sp, #112]	; 0x70
     e10:	f7ff ff80 	bl	d14 <__utee_from_param>
/mnt/disk/raspbian-tee/optee_os/lib/libutee/tee_api.c:126
     e14:	ab03      	add	r3, sp, #12
     e16:	4642      	mov	r2, r8
     e18:	9300      	str	r3, [sp, #0]
     e1a:	4639      	mov	r1, r7
     e1c:	462b      	mov	r3, r5
     e1e:	4620      	mov	r0, r4
     e20:	f002 e8f2 	blx	3008 <utee_invoke_ta_command>
/mnt/disk/raspbian-tee/optee_os/lib/libutee/tee_api.c:129
     e24:	462a      	mov	r2, r5
/mnt/disk/raspbian-tee/optee_os/lib/libutee/tee_api.c:126
     e26:	4604      	mov	r4, r0
/mnt/disk/raspbian-tee/optee_os/lib/libutee/tee_api.c:129
     e28:	2100      	movs	r1, #0
     e2a:	981c      	ldr	r0, [sp, #112]	; 0x70
     e2c:	f7ff ff9a 	bl	d64 <__utee_to_param>
     e30:	9b03      	ldr	r3, [sp, #12]
/mnt/disk/raspbian-tee/optee_os/lib/libutee/tee_api.c:131
     e32:	b106      	cbz	r6, e36 <TEE_InvokeTACommand+0x3c>
/mnt/disk/raspbian-tee/optee_os/lib/libutee/tee_api.c:132
     e34:	6033      	str	r3, [r6, #0]
/mnt/disk/raspbian-tee/optee_os/lib/libutee/tee_api.c:134
     e36:	2b04      	cmp	r3, #4
     e38:	d009      	beq.n	e4e <TEE_InvokeTACommand+0x54>
/mnt/disk/raspbian-tee/optee_os/lib/libutee/tee_api.c:137
     e3a:	b144      	cbz	r4, e4e <TEE_InvokeTACommand+0x54>
/mnt/disk/raspbian-tee/optee_os/lib/libutee/tee_api.c:137 (discriminator 1)
     e3c:	4b06      	ldr	r3, [pc, #24]	; (e58 <TEE_InvokeTACommand+0x5e>)
     e3e:	429c      	cmp	r4, r3
     e40:	d005      	beq.n	e4e <TEE_InvokeTACommand+0x54>
/mnt/disk/raspbian-tee/optee_os/lib/libutee/tee_api.c:138
     e42:	4b06      	ldr	r3, [pc, #24]	; (e5c <TEE_InvokeTACommand+0x62>)
     e44:	429c      	cmp	r4, r3
     e46:	d002      	beq.n	e4e <TEE_InvokeTACommand+0x54>
/mnt/disk/raspbian-tee/optee_os/lib/libutee/tee_api.c:140
     e48:	4620      	mov	r0, r4
     e4a:	f006 fe58 	bl	7afe <TEE_Panic>
/mnt/disk/raspbian-tee/optee_os/lib/libutee/tee_api.c:143
     e4e:	4620      	mov	r0, r4
     e50:	b016      	add	sp, #88	; 0x58
     e52:	e8bd 81f0 	ldmia.w	sp!, {r4, r5, r6, r7, r8, pc}
     e56:	bf00      	nop
     e58:	ffff000c 	.word	0xffff000c
     e5c:	ffff3024 	.word	0xffff3024

00000e60 <TEE_GetCancellationFlag>:
TEE_GetCancellationFlag():
/mnt/disk/raspbian-tee/optee_os/lib/libutee/tee_api.c:148
     e60:	b507      	push	{r0, r1, r2, lr}
/mnt/disk/raspbian-tee/optee_os/lib/libutee/tee_api.c:150
     e62:	a801      	add	r0, sp, #4
     e64:	f002 e8dc 	blx	3020 <utee_get_cancellation_flag>
/mnt/disk/raspbian-tee/optee_os/lib/libutee/tee_api.c:152
     e68:	b108      	cbz	r0, e6e <TEE_GetCancellationFlag+0xe>
/mnt/disk/raspbian-tee/optee_os/lib/libutee/tee_api.c:153
     e6a:	2300      	movs	r3, #0
     e6c:	9301      	str	r3, [sp, #4]
/mnt/disk/raspbian-tee/optee_os/lib/libutee/tee_api.c:155
     e6e:	9801      	ldr	r0, [sp, #4]
     e70:	3000      	adds	r0, #0
     e72:	bf18      	it	ne
     e74:	2001      	movne	r0, #1
     e76:	b003      	add	sp, #12
     e78:	f85d fb04 	ldr.w	pc, [sp], #4

00000e7c <TEE_UnmaskCancellation>:
TEE_UnmaskCancellation():
/mnt/disk/raspbian-tee/optee_os/lib/libutee/tee_api.c:158
     e7c:	b507      	push	{r0, r1, r2, lr}
/mnt/disk/raspbian-tee/optee_os/lib/libutee/tee_api.c:160
     e7e:	a801      	add	r0, sp, #4
     e80:	f002 e8e2 	blx	3048 <utee_unmask_cancellation>
/mnt/disk/raspbian-tee/optee_os/lib/libutee/tee_api.c:162
     e84:	b108      	cbz	r0, e8a <TEE_UnmaskCancellation+0xe>
/mnt/disk/raspbian-tee/optee_os/lib/libutee/tee_api.c:163
     e86:	f006 fe3a 	bl	7afe <TEE_Panic>
/mnt/disk/raspbian-tee/optee_os/lib/libutee/tee_api.c:165
     e8a:	9801      	ldr	r0, [sp, #4]
     e8c:	3000      	adds	r0, #0
     e8e:	bf18      	it	ne
     e90:	2001      	movne	r0, #1
     e92:	b003      	add	sp, #12
     e94:	f85d fb04 	ldr.w	pc, [sp], #4

00000e98 <TEE_MaskCancellation>:
TEE_MaskCancellation():
/mnt/disk/raspbian-tee/optee_os/lib/libutee/tee_api.c:168
     e98:	b507      	push	{r0, r1, r2, lr}
/mnt/disk/raspbian-tee/optee_os/lib/libutee/tee_api.c:170
     e9a:	a801      	add	r0, sp, #4
     e9c:	f002 e8de 	blx	305c <utee_mask_cancellation>
/mnt/disk/raspbian-tee/optee_os/lib/libutee/tee_api.c:172
     ea0:	b108      	cbz	r0, ea6 <TEE_MaskCancellation+0xe>
/mnt/disk/raspbian-tee/optee_os/lib/libutee/tee_api.c:173
     ea2:	f006 fe2c 	bl	7afe <TEE_Panic>
/mnt/disk/raspbian-tee/optee_os/lib/libutee/tee_api.c:175
     ea6:	9801      	ldr	r0, [sp, #4]
     ea8:	3000      	adds	r0, #0
     eaa:	bf18      	it	ne
     eac:	2001      	movne	r0, #1
     eae:	b003      	add	sp, #12
     eb0:	f85d fb04 	ldr.w	pc, [sp], #4

00000eb4 <TEE_CheckMemoryAccessRights>:
TEE_CheckMemoryAccessRights():
/mnt/disk/raspbian-tee/optee_os/lib/libutee/tee_api.c:184
     eb4:	b10a      	cbz	r2, eba <TEE_CheckMemoryAccessRights+0x6>
/mnt/disk/raspbian-tee/optee_os/lib/libutee/tee_api.c:188
     eb6:	f006 be8f 	b.w	7bd8 <__utee_check_access_rights_from_thumb>
/mnt/disk/raspbian-tee/optee_os/lib/libutee/tee_api.c:200
     eba:	4610      	mov	r0, r2
     ebc:	4770      	bx	lr

00000ebe <TEE_SetInstanceData>:
TEE_SetInstanceData():
/mnt/disk/raspbian-tee/optee_os/lib/libutee/tee_api.c:204
     ebe:	4b02      	ldr	r3, [pc, #8]	; (ec8 <TEE_SetInstanceData+0xa>)
     ec0:	447b      	add	r3, pc
     ec2:	6018      	str	r0, [r3, #0]
     ec4:	4770      	bx	lr
     ec6:	bf00      	nop
     ec8:	000091bc 	.word	0x000091bc

00000ecc <TEE_GetInstanceData>:
TEE_GetInstanceData():
/mnt/disk/raspbian-tee/optee_os/lib/libutee/tee_api.c:210
     ecc:	4b01      	ldr	r3, [pc, #4]	; (ed4 <TEE_GetInstanceData+0x8>)
     ece:	447b      	add	r3, pc
     ed0:	6818      	ldr	r0, [r3, #0]
     ed2:	4770      	bx	lr
     ed4:	000091ae 	.word	0x000091ae

00000ed8 <TEE_MemMove>:
TEE_MemMove():
/mnt/disk/raspbian-tee/optee_os/lib/libutee/tee_api.c:214
     ed8:	f006 be43 	b.w	7b62 <memmove>

00000edc <TEE_MemCompare>:
TEE_MemCompare():
/mnt/disk/raspbian-tee/optee_os/lib/libutee/tee_api.c:219
     edc:	f006 be27 	b.w	7b2e <memcmp>

00000ee0 <TEE_MemFill>:
TEE_MemFill():
/mnt/disk/raspbian-tee/optee_os/lib/libutee/tee_api.c:224
     ee0:	f006 be59 	b.w	7b96 <memset>

00000ee4 <TEE_GetSystemTime>:
TEE_GetSystemTime():
/mnt/disk/raspbian-tee/optee_os/lib/libutee/tee_api.c:230
     ee4:	b508      	push	{r3, lr}
/mnt/disk/raspbian-tee/optee_os/lib/libutee/tee_api.c:231
     ee6:	4601      	mov	r1, r0
     ee8:	2000      	movs	r0, #0
     eea:	f002 e8cc 	blx	3084 <utee_get_time>
/mnt/disk/raspbian-tee/optee_os/lib/libutee/tee_api.c:233
     eee:	b118      	cbz	r0, ef8 <TEE_GetSystemTime+0x14>
/mnt/disk/raspbian-tee/optee_os/lib/libutee/tee_api.c:235
     ef0:	e8bd 4008 	ldmia.w	sp!, {r3, lr}
/mnt/disk/raspbian-tee/optee_os/lib/libutee/tee_api.c:234
     ef4:	f006 be03 	b.w	7afe <TEE_Panic>
     ef8:	bd08      	pop	{r3, pc}

00000efa <TEE_Wait>:
TEE_Wait():
/mnt/disk/raspbian-tee/optee_os/lib/libutee/tee_api.c:238
     efa:	b510      	push	{r4, lr}
/mnt/disk/raspbian-tee/optee_os/lib/libutee/tee_api.c:239
     efc:	f002 e8b8 	blx	3070 <utee_wait>
/mnt/disk/raspbian-tee/optee_os/lib/libutee/tee_api.c:241
     f00:	4604      	mov	r4, r0
     f02:	b120      	cbz	r0, f0e <TEE_Wait+0x14>
/mnt/disk/raspbian-tee/optee_os/lib/libutee/tee_api.c:241 (discriminator 1)
     f04:	4b03      	ldr	r3, [pc, #12]	; (f14 <TEE_Wait+0x1a>)
     f06:	4298      	cmp	r0, r3
     f08:	d001      	beq.n	f0e <TEE_Wait+0x14>
/mnt/disk/raspbian-tee/optee_os/lib/libutee/tee_api.c:242
     f0a:	f006 fdf8 	bl	7afe <TEE_Panic>
/mnt/disk/raspbian-tee/optee_os/lib/libutee/tee_api.c:245
     f0e:	4620      	mov	r0, r4
     f10:	bd10      	pop	{r4, pc}
     f12:	bf00      	nop
     f14:	ffff0002 	.word	0xffff0002

00000f18 <TEE_GetTAPersistentTime>:
TEE_GetTAPersistentTime():
/mnt/disk/raspbian-tee/optee_os/lib/libutee/tee_api.c:248
     f18:	b538      	push	{r3, r4, r5, lr}
/mnt/disk/raspbian-tee/optee_os/lib/libutee/tee_api.c:251
     f1a:	4601      	mov	r1, r0
/mnt/disk/raspbian-tee/optee_os/lib/libutee/tee_api.c:248
     f1c:	4605      	mov	r5, r0
/mnt/disk/raspbian-tee/optee_os/lib/libutee/tee_api.c:251
     f1e:	2001      	movs	r0, #1
     f20:	f002 e8b0 	blx	3084 <utee_get_time>
/mnt/disk/raspbian-tee/optee_os/lib/libutee/tee_api.c:253
     f24:	4604      	mov	r4, r0
     f26:	b170      	cbz	r0, f46 <TEE_GetTAPersistentTime+0x2e>
/mnt/disk/raspbian-tee/optee_os/lib/libutee/tee_api.c:253 (discriminator 1)
     f28:	4b08      	ldr	r3, [pc, #32]	; (f4c <TEE_GetTAPersistentTime+0x34>)
     f2a:	4298      	cmp	r0, r3
     f2c:	d00b      	beq.n	f46 <TEE_GetTAPersistentTime+0x2e>
/mnt/disk/raspbian-tee/optee_os/lib/libutee/tee_api.c:254
     f2e:	2300      	movs	r3, #0
     f30:	602b      	str	r3, [r5, #0]
/mnt/disk/raspbian-tee/optee_os/lib/libutee/tee_api.c:255
     f32:	606b      	str	r3, [r5, #4]
/mnt/disk/raspbian-tee/optee_os/lib/libutee/tee_api.c:258
     f34:	f500 4330 	add.w	r3, r0, #45056	; 0xb000
     f38:	2b01      	cmp	r3, #1
     f3a:	d904      	bls.n	f46 <TEE_GetTAPersistentTime+0x2e>
/mnt/disk/raspbian-tee/optee_os/lib/libutee/tee_api.c:261
     f3c:	4b04      	ldr	r3, [pc, #16]	; (f50 <TEE_GetTAPersistentTime+0x38>)
     f3e:	4298      	cmp	r0, r3
     f40:	d001      	beq.n	f46 <TEE_GetTAPersistentTime+0x2e>
/mnt/disk/raspbian-tee/optee_os/lib/libutee/tee_api.c:263
     f42:	f006 fddc 	bl	7afe <TEE_Panic>
/mnt/disk/raspbian-tee/optee_os/lib/libutee/tee_api.c:266
     f46:	4620      	mov	r0, r4
     f48:	bd38      	pop	{r3, r4, r5, pc}
     f4a:	bf00      	nop
     f4c:	ffff300f 	.word	0xffff300f
     f50:	ffff000c 	.word	0xffff000c

00000f54 <TEE_SetTAPersistentTime>:
TEE_SetTAPersistentTime():
/mnt/disk/raspbian-tee/optee_os/lib/libutee/tee_api.c:269
     f54:	b510      	push	{r4, lr}
/mnt/disk/raspbian-tee/optee_os/lib/libutee/tee_api.c:272
     f56:	f002 e8a0 	blx	3098 <utee_set_ta_time>
/mnt/disk/raspbian-tee/optee_os/lib/libutee/tee_api.c:274
     f5a:	4604      	mov	r4, r0
     f5c:	b138      	cbz	r0, f6e <TEE_SetTAPersistentTime+0x1a>
/mnt/disk/raspbian-tee/optee_os/lib/libutee/tee_api.c:274 (discriminator 1)
     f5e:	4b05      	ldr	r3, [pc, #20]	; (f74 <TEE_SetTAPersistentTime+0x20>)
     f60:	4298      	cmp	r0, r3
     f62:	d004      	beq.n	f6e <TEE_SetTAPersistentTime+0x1a>
/mnt/disk/raspbian-tee/optee_os/lib/libutee/tee_api.c:275
     f64:	4b04      	ldr	r3, [pc, #16]	; (f78 <TEE_SetTAPersistentTime+0x24>)
     f66:	4298      	cmp	r0, r3
     f68:	d001      	beq.n	f6e <TEE_SetTAPersistentTime+0x1a>
/mnt/disk/raspbian-tee/optee_os/lib/libutee/tee_api.c:277
     f6a:	f006 fdc8 	bl	7afe <TEE_Panic>
/mnt/disk/raspbian-tee/optee_os/lib/libutee/tee_api.c:280
     f6e:	4620      	mov	r0, r4
     f70:	bd10      	pop	{r4, pc}
     f72:	bf00      	nop
     f74:	ffff000c 	.word	0xffff000c
     f78:	ffff3041 	.word	0xffff3041

00000f7c <TEE_GetREETime>:
TEE_GetREETime():
/mnt/disk/raspbian-tee/optee_os/lib/libutee/tee_api.c:283
     f7c:	b508      	push	{r3, lr}
/mnt/disk/raspbian-tee/optee_os/lib/libutee/tee_api.c:284
     f7e:	4601      	mov	r1, r0
     f80:	2002      	movs	r0, #2
     f82:	f002 e880 	blx	3084 <utee_get_time>
/mnt/disk/raspbian-tee/optee_os/lib/libutee/tee_api.c:286
     f86:	b118      	cbz	r0, f90 <TEE_GetREETime+0x14>
/mnt/disk/raspbian-tee/optee_os/lib/libutee/tee_api.c:288
     f88:	e8bd 4008 	ldmia.w	sp!, {r3, lr}
/mnt/disk/raspbian-tee/optee_os/lib/libutee/tee_api.c:287
     f8c:	f006 bdb7 	b.w	7afe <TEE_Panic>
     f90:	bd08      	pop	{r3, pc}

00000f92 <TEE_Malloc>:
TEE_Malloc():
/mnt/disk/raspbian-tee/optee_os/lib/libutee/tee_api.c:291
     f92:	b507      	push	{r0, r1, r2, lr}
/mnt/disk/raspbian-tee/optee_os/lib/libutee/tee_api.c:292
     f94:	b931      	cbnz	r1, fa4 <TEE_Malloc+0x12>
/mnt/disk/raspbian-tee/optee_os/lib/libutee/tee_api.c:293
     f96:	4601      	mov	r1, r0
     f98:	2001      	movs	r0, #1
/mnt/disk/raspbian-tee/optee_os/lib/libutee/tee_api.c:300
     f9a:	b003      	add	sp, #12
     f9c:	f85d eb04 	ldr.w	lr, [sp], #4
/mnt/disk/raspbian-tee/optee_os/lib/libutee/tee_api.c:293
     fa0:	f006 b99c 	b.w	72dc <calloc>
/mnt/disk/raspbian-tee/optee_os/lib/libutee/tee_api.c:294
     fa4:	f1b1 4f00 	cmp.w	r1, #2147483648	; 0x80000000
     fa8:	d104      	bne.n	fb4 <TEE_Malloc+0x22>
/mnt/disk/raspbian-tee/optee_os/lib/libutee/tee_api.c:300
     faa:	b003      	add	sp, #12
     fac:	f85d eb04 	ldr.w	lr, [sp], #4
/mnt/disk/raspbian-tee/optee_os/lib/libutee/tee_api.c:295
     fb0:	f006 b98a 	b.w	72c8 <malloc>
/mnt/disk/raspbian-tee/optee_os/lib/libutee/tee_api.c:297
     fb4:	4b07      	ldr	r3, [pc, #28]	; (fd4 <TEE_Malloc+0x42>)
     fb6:	4808      	ldr	r0, [pc, #32]	; (fd8 <TEE_Malloc+0x46>)
     fb8:	447b      	add	r3, pc
     fba:	9300      	str	r3, [sp, #0]
     fbc:	2301      	movs	r3, #1
     fbe:	9101      	str	r1, [sp, #4]
     fc0:	461a      	mov	r2, r3
     fc2:	f240 1129 	movw	r1, #297	; 0x129
     fc6:	4478      	add	r0, pc
     fc8:	f7ff f972 	bl	2b0 <trace_printf>
/mnt/disk/raspbian-tee/optee_os/lib/libutee/tee_api.c:300
     fcc:	2000      	movs	r0, #0
     fce:	b003      	add	sp, #12
     fd0:	f85d fb04 	ldr.w	pc, [sp], #4
     fd4:	000071b2 	.word	0x000071b2
     fd8:	00007199 	.word	0x00007199

00000fdc <TEE_Realloc>:
TEE_Realloc():
/mnt/disk/raspbian-tee/optee_os/lib/libutee/tee_api.c:304
     fdc:	f006 b9a2 	b.w	7324 <realloc>

00000fe0 <TEE_Free>:
TEE_Free():
/mnt/disk/raspbian-tee/optee_os/lib/libutee/tee_api.c:309
     fe0:	f006 b973 	b.w	72ca <free>

00000fe4 <TEE_CacheClean>:
TEE_CacheClean():
/mnt/disk/raspbian-tee/optee_os/lib/libutee/tee_api.c:315
     fe4:	2200      	movs	r2, #0
     fe6:	f006 bdff 	b.w	7be8 <__utee_cache_operation_from_thumb>

00000fea <TEE_CacheFlush>:
TEE_CacheFlush():
/mnt/disk/raspbian-tee/optee_os/lib/libutee/tee_api.c:319
     fea:	2201      	movs	r2, #1
     fec:	f006 bdfc 	b.w	7be8 <__utee_cache_operation_from_thumb>

00000ff0 <TEE_CacheInvalidate>:
TEE_CacheInvalidate():
/mnt/disk/raspbian-tee/optee_os/lib/libutee/tee_api.c:324
     ff0:	2202      	movs	r2, #2
     ff2:	f006 bdf9 	b.w	7be8 <__utee_cache_operation_from_thumb>
     ff6:	bf00      	nop

00000ff8 <__utee_from_attr>:
__utee_from_attr():
/mnt/disk/raspbian-tee/optee_os/lib/libutee/tee_api_objects.c:19
     ff8:	2318      	movs	r3, #24
     ffa:	b530      	push	{r4, r5, lr}
/mnt/disk/raspbian-tee/optee_os/lib/libutee/tee_api_objects.c:25
     ffc:	2400      	movs	r4, #0
     ffe:	fb03 0202 	mla	r2, r3, r2, r0
/mnt/disk/raspbian-tee/optee_os/lib/libutee/tee_api_objects.c:22 (discriminator 1)
    1002:	4290      	cmp	r0, r2
    1004:	d100      	bne.n	1008 <__utee_from_attr+0x10>
/mnt/disk/raspbian-tee/optee_os/lib/libutee/tee_api_objects.c:32
    1006:	bd30      	pop	{r4, r5, pc}
/mnt/disk/raspbian-tee/optee_os/lib/libutee/tee_api_objects.c:23
    1008:	680b      	ldr	r3, [r1, #0]
    100a:	6103      	str	r3, [r0, #16]
/mnt/disk/raspbian-tee/optee_os/lib/libutee/tee_api_objects.c:24
    100c:	f013 5300 	ands.w	r3, r3, #536870912	; 0x20000000
    1010:	d008      	beq.n	1024 <__utee_from_attr+0x2c>
/mnt/disk/raspbian-tee/optee_os/lib/libutee/tee_api_objects.c:25
    1012:	684b      	ldr	r3, [r1, #4]
    1014:	e880 0018 	stmia.w	r0, {r3, r4}
/mnt/disk/raspbian-tee/optee_os/lib/libutee/tee_api_objects.c:26
    1018:	688b      	ldr	r3, [r1, #8]
    101a:	6083      	str	r3, [r0, #8]
    101c:	60c4      	str	r4, [r0, #12]
    101e:	310c      	adds	r1, #12
    1020:	3018      	adds	r0, #24
    1022:	e7ee      	b.n	1002 <__utee_from_attr+0xa>
/mnt/disk/raspbian-tee/optee_os/lib/libutee/tee_api_objects.c:28
    1024:	684d      	ldr	r5, [r1, #4]
    1026:	6005      	str	r5, [r0, #0]
    1028:	6043      	str	r3, [r0, #4]
/mnt/disk/raspbian-tee/optee_os/lib/libutee/tee_api_objects.c:29
    102a:	688d      	ldr	r5, [r1, #8]
    102c:	6085      	str	r5, [r0, #8]
    102e:	60c3      	str	r3, [r0, #12]
    1030:	e7f5      	b.n	101e <__utee_from_attr+0x26>

00001032 <TEE_GetObjectInfo>:
TEE_GetObjectInfo():
/mnt/disk/raspbian-tee/optee_os/lib/libutee/tee_api_objects.c:42
    1032:	b510      	push	{r4, lr}
    1034:	460c      	mov	r4, r1
/mnt/disk/raspbian-tee/optee_os/lib/libutee/tee_api_objects.c:45
    1036:	f002 e89c 	blx	3170 <utee_cryp_obj_get_info>
/mnt/disk/raspbian-tee/optee_os/lib/libutee/tee_api_objects.c:47
    103a:	b108      	cbz	r0, 1040 <TEE_GetObjectInfo+0xe>
/mnt/disk/raspbian-tee/optee_os/lib/libutee/tee_api_objects.c:48
    103c:	f006 fd5f 	bl	7afe <TEE_Panic>
/mnt/disk/raspbian-tee/optee_os/lib/libutee/tee_api_objects.c:50
    1040:	6822      	ldr	r2, [r4, #0]
    1042:	4b05      	ldr	r3, [pc, #20]	; (1058 <TEE_GetObjectInfo+0x26>)
    1044:	429a      	cmp	r2, r3
    1046:	d106      	bne.n	1056 <TEE_GetObjectInfo+0x24>
/mnt/disk/raspbian-tee/optee_os/lib/libutee/tee_api_objects.c:51
    1048:	2300      	movs	r3, #0
    104a:	6063      	str	r3, [r4, #4]
/mnt/disk/raspbian-tee/optee_os/lib/libutee/tee_api_objects.c:52
    104c:	60a3      	str	r3, [r4, #8]
/mnt/disk/raspbian-tee/optee_os/lib/libutee/tee_api_objects.c:53
    104e:	60e3      	str	r3, [r4, #12]
/mnt/disk/raspbian-tee/optee_os/lib/libutee/tee_api_objects.c:54
    1050:	6123      	str	r3, [r4, #16]
/mnt/disk/raspbian-tee/optee_os/lib/libutee/tee_api_objects.c:55
    1052:	6163      	str	r3, [r4, #20]
/mnt/disk/raspbian-tee/optee_os/lib/libutee/tee_api_objects.c:56
    1054:	61a3      	str	r3, [r4, #24]
    1056:	bd10      	pop	{r4, pc}
    1058:	a00000be 	.word	0xa00000be

0000105c <TEE_GetObjectInfo1>:
TEE_GetObjectInfo1():
/mnt/disk/raspbian-tee/optee_os/lib/libutee/tee_api_objects.c:61
    105c:	b510      	push	{r4, lr}
/mnt/disk/raspbian-tee/optee_os/lib/libutee/tee_api_objects.c:64
    105e:	f002 e888 	blx	3170 <utee_cryp_obj_get_info>
/mnt/disk/raspbian-tee/optee_os/lib/libutee/tee_api_objects.c:66
    1062:	4604      	mov	r4, r0
    1064:	b130      	cbz	r0, 1074 <TEE_GetObjectInfo1+0x18>
/mnt/disk/raspbian-tee/optee_os/lib/libutee/tee_api_objects.c:66 (discriminator 1)
    1066:	4b04      	ldr	r3, [pc, #16]	; (1078 <TEE_GetObjectInfo1+0x1c>)
    1068:	f020 0202 	bic.w	r2, r0, #2
    106c:	429a      	cmp	r2, r3
    106e:	d001      	beq.n	1074 <TEE_GetObjectInfo1+0x18>
/mnt/disk/raspbian-tee/optee_os/lib/libutee/tee_api_objects.c:69
    1070:	f006 fd45 	bl	7afe <TEE_Panic>
/mnt/disk/raspbian-tee/optee_os/lib/libutee/tee_api_objects.c:72
    1074:	4620      	mov	r0, r4
    1076:	bd10      	pop	{r4, pc}
    1078:	f0100001 	.word	0xf0100001

0000107c <TEE_RestrictObjectUsage1>:
TEE_RestrictObjectUsage1():
/mnt/disk/raspbian-tee/optee_os/lib/libutee/tee_api_objects.c:96
    107c:	b510      	push	{r4, lr}
/mnt/disk/raspbian-tee/optee_os/lib/libutee/tee_api_objects.c:99
    107e:	f002 e882 	blx	3184 <utee_cryp_obj_restrict_usage>
/mnt/disk/raspbian-tee/optee_os/lib/libutee/tee_api_objects.c:101
    1082:	4604      	mov	r4, r0
    1084:	b130      	cbz	r0, 1094 <TEE_RestrictObjectUsage1+0x18>
/mnt/disk/raspbian-tee/optee_os/lib/libutee/tee_api_objects.c:101 (discriminator 1)
    1086:	4b04      	ldr	r3, [pc, #16]	; (1098 <TEE_RestrictObjectUsage1+0x1c>)
    1088:	f020 0202 	bic.w	r2, r0, #2
    108c:	429a      	cmp	r2, r3
    108e:	d001      	beq.n	1094 <TEE_RestrictObjectUsage1+0x18>
/mnt/disk/raspbian-tee/optee_os/lib/libutee/tee_api_objects.c:104
    1090:	f006 fd35 	bl	7afe <TEE_Panic>
/mnt/disk/raspbian-tee/optee_os/lib/libutee/tee_api_objects.c:107
    1094:	4620      	mov	r0, r4
    1096:	bd10      	pop	{r4, pc}
    1098:	f0100001 	.word	0xf0100001

0000109c <TEE_RestrictObjectUsage>:
TEE_RestrictObjectUsage():
/mnt/disk/raspbian-tee/optee_os/lib/libutee/tee_api_objects.c:81
    109c:	b530      	push	{r4, r5, lr}
    109e:	460d      	mov	r5, r1
    10a0:	4604      	mov	r4, r0
    10a2:	b089      	sub	sp, #36	; 0x24
/mnt/disk/raspbian-tee/optee_os/lib/libutee/tee_api_objects.c:85
    10a4:	a901      	add	r1, sp, #4
    10a6:	f002 e864 	blx	3170 <utee_cryp_obj_get_info>
/mnt/disk/raspbian-tee/optee_os/lib/libutee/tee_api_objects.c:86
    10aa:	4b06      	ldr	r3, [pc, #24]	; (10c4 <TEE_RestrictObjectUsage+0x28>)
    10ac:	9a01      	ldr	r2, [sp, #4]
    10ae:	429a      	cmp	r2, r3
    10b0:	d006      	beq.n	10c0 <TEE_RestrictObjectUsage+0x24>
/mnt/disk/raspbian-tee/optee_os/lib/libutee/tee_api_objects.c:89
    10b2:	4629      	mov	r1, r5
    10b4:	4620      	mov	r0, r4
    10b6:	f7ff ffe1 	bl	107c <TEE_RestrictObjectUsage1>
/mnt/disk/raspbian-tee/optee_os/lib/libutee/tee_api_objects.c:91
    10ba:	b108      	cbz	r0, 10c0 <TEE_RestrictObjectUsage+0x24>
/mnt/disk/raspbian-tee/optee_os/lib/libutee/tee_api_objects.c:92
    10bc:	f006 fd1f 	bl	7afe <TEE_Panic>
/mnt/disk/raspbian-tee/optee_os/lib/libutee/tee_api_objects.c:93
    10c0:	b009      	add	sp, #36	; 0x24
    10c2:	bd30      	pop	{r4, r5, pc}
    10c4:	a00000be 	.word	0xa00000be

000010c8 <TEE_GetObjectBufferAttribute>:
TEE_GetObjectBufferAttribute():
/mnt/disk/raspbian-tee/optee_os/lib/libutee/tee_api_objects.c:112
    10c8:	e92d 41f0 	stmdb	sp!, {r4, r5, r6, r7, r8, lr}
    10cc:	460e      	mov	r6, r1
    10ce:	4607      	mov	r7, r0
    10d0:	b08a      	sub	sp, #40	; 0x28
    10d2:	4690      	mov	r8, r2
/mnt/disk/raspbian-tee/optee_os/lib/libutee/tee_api_objects.c:117
    10d4:	a903      	add	r1, sp, #12
/mnt/disk/raspbian-tee/optee_os/lib/libutee/tee_api_objects.c:112
    10d6:	461d      	mov	r5, r3
/mnt/disk/raspbian-tee/optee_os/lib/libutee/tee_api_objects.c:117
    10d8:	f002 e84a 	blx	3170 <utee_cryp_obj_get_info>
/mnt/disk/raspbian-tee/optee_os/lib/libutee/tee_api_objects.c:118
    10dc:	4604      	mov	r4, r0
    10de:	b970      	cbnz	r0, 10fe <TEE_GetObjectBufferAttribute+0x36>
/mnt/disk/raspbian-tee/optee_os/lib/libutee/tee_api_objects.c:122
    10e0:	00b3      	lsls	r3, r6, #2
    10e2:	d422      	bmi.n	112a <TEE_GetObjectBufferAttribute+0x62>
/mnt/disk/raspbian-tee/optee_os/lib/libutee/tee_api_objects.c:127
    10e4:	682b      	ldr	r3, [r5, #0]
/mnt/disk/raspbian-tee/optee_os/lib/libutee/tee_api_objects.c:128
    10e6:	4642      	mov	r2, r8
/mnt/disk/raspbian-tee/optee_os/lib/libutee/tee_api_objects.c:127
    10e8:	e88d 0018 	stmia.w	sp, {r3, r4}
/mnt/disk/raspbian-tee/optee_os/lib/libutee/tee_api_objects.c:128
    10ec:	4631      	mov	r1, r6
    10ee:	466b      	mov	r3, sp
    10f0:	4638      	mov	r0, r7
    10f2:	f002 e852 	blx	3198 <utee_cryp_obj_get_attr>
/mnt/disk/raspbian-tee/optee_os/lib/libutee/tee_api_objects.c:130
    10f6:	9b00      	ldr	r3, [sp, #0]
    10f8:	602b      	str	r3, [r5, #0]
/mnt/disk/raspbian-tee/optee_os/lib/libutee/tee_api_objects.c:133
    10fa:	4604      	mov	r4, r0
    10fc:	b188      	cbz	r0, 1122 <TEE_GetObjectBufferAttribute+0x5a>
/mnt/disk/raspbian-tee/optee_os/lib/libutee/tee_api_objects.c:133 (discriminator 1)
    10fe:	4b0c      	ldr	r3, [pc, #48]	; (1130 <TEE_GetObjectBufferAttribute+0x68>)
    1100:	429c      	cmp	r4, r3
    1102:	d00e      	beq.n	1122 <TEE_GetObjectBufferAttribute+0x5a>
/mnt/disk/raspbian-tee/optee_os/lib/libutee/tee_api_objects.c:134
    1104:	3308      	adds	r3, #8
    1106:	429c      	cmp	r4, r3
    1108:	d00b      	beq.n	1122 <TEE_GetObjectBufferAttribute+0x5a>
/mnt/disk/raspbian-tee/optee_os/lib/libutee/tee_api_objects.c:135
    110a:	f1a3 637e 	sub.w	r3, r3, #266338304	; 0xfe00000
    110e:	f1a3 130f 	sub.w	r3, r3, #983055	; 0xf000f
    1112:	429c      	cmp	r4, r3
    1114:	d005      	beq.n	1122 <TEE_GetObjectBufferAttribute+0x5a>
/mnt/disk/raspbian-tee/optee_os/lib/libutee/tee_api_objects.c:136
    1116:	3302      	adds	r3, #2
    1118:	429c      	cmp	r4, r3
    111a:	d002      	beq.n	1122 <TEE_GetObjectBufferAttribute+0x5a>
/mnt/disk/raspbian-tee/optee_os/lib/libutee/tee_api_objects.c:138
    111c:	4620      	mov	r0, r4
    111e:	f006 fcee 	bl	7afe <TEE_Panic>
/mnt/disk/raspbian-tee/optee_os/lib/libutee/tee_api_objects.c:141
    1122:	4620      	mov	r0, r4
    1124:	b00a      	add	sp, #40	; 0x28
    1126:	e8bd 81f0 	ldmia.w	sp!, {r4, r5, r6, r7, r8, pc}
/mnt/disk/raspbian-tee/optee_os/lib/libutee/tee_api_objects.c:123
    112a:	4c02      	ldr	r4, [pc, #8]	; (1134 <TEE_GetObjectBufferAttribute+0x6c>)
    112c:	e7f6      	b.n	111c <TEE_GetObjectBufferAttribute+0x54>
    112e:	bf00      	nop
    1130:	ffff0008 	.word	0xffff0008
    1134:	ffff0006 	.word	0xffff0006

00001138 <TEE_GetObjectValueAttribute>:
TEE_GetObjectValueAttribute():
/mnt/disk/raspbian-tee/optee_os/lib/libutee/tee_api_objects.c:146
    1138:	e92d 41f0 	stmdb	sp!, {r4, r5, r6, r7, r8, lr}
    113c:	460f      	mov	r7, r1
    113e:	4680      	mov	r8, r0
    1140:	b08c      	sub	sp, #48	; 0x30
    1142:	4616      	mov	r6, r2
/mnt/disk/raspbian-tee/optee_os/lib/libutee/tee_api_objects.c:152
    1144:	a905      	add	r1, sp, #20
/mnt/disk/raspbian-tee/optee_os/lib/libutee/tee_api_objects.c:150
    1146:	2208      	movs	r2, #8
/mnt/disk/raspbian-tee/optee_os/lib/libutee/tee_api_objects.c:146
    1148:	461d      	mov	r5, r3
/mnt/disk/raspbian-tee/optee_os/lib/libutee/tee_api_objects.c:150
    114a:	2300      	movs	r3, #0
    114c:	e9cd 2300 	strd	r2, r3, [sp]
/mnt/disk/raspbian-tee/optee_os/lib/libutee/tee_api_objects.c:152
    1150:	f002 e80e 	blx	3170 <utee_cryp_obj_get_info>
/mnt/disk/raspbian-tee/optee_os/lib/libutee/tee_api_objects.c:153
    1154:	4604      	mov	r4, r0
    1156:	b948      	cbnz	r0, 116c <TEE_GetObjectValueAttribute+0x34>
/mnt/disk/raspbian-tee/optee_os/lib/libutee/tee_api_objects.c:157
    1158:	00bb      	lsls	r3, r7, #2
    115a:	d527      	bpl.n	11ac <TEE_GetObjectValueAttribute+0x74>
/mnt/disk/raspbian-tee/optee_os/lib/libutee/tee_api_objects.c:162
    115c:	466b      	mov	r3, sp
    115e:	aa03      	add	r2, sp, #12
    1160:	4639      	mov	r1, r7
    1162:	4640      	mov	r0, r8
    1164:	f002 e818 	blx	3198 <utee_cryp_obj_get_attr>
/mnt/disk/raspbian-tee/optee_os/lib/libutee/tee_api_objects.c:166
    1168:	4604      	mov	r4, r0
    116a:	b158      	cbz	r0, 1184 <TEE_GetObjectValueAttribute+0x4c>
/mnt/disk/raspbian-tee/optee_os/lib/libutee/tee_api_objects.c:166 (discriminator 1)
    116c:	4b10      	ldr	r3, [pc, #64]	; (11b0 <TEE_GetObjectValueAttribute+0x78>)
    116e:	429c      	cmp	r4, r3
    1170:	d008      	beq.n	1184 <TEE_GetObjectValueAttribute+0x4c>
/mnt/disk/raspbian-tee/optee_os/lib/libutee/tee_api_objects.c:167
    1172:	4b10      	ldr	r3, [pc, #64]	; (11b4 <TEE_GetObjectValueAttribute+0x7c>)
    1174:	429c      	cmp	r4, r3
    1176:	d005      	beq.n	1184 <TEE_GetObjectValueAttribute+0x4c>
/mnt/disk/raspbian-tee/optee_os/lib/libutee/tee_api_objects.c:168
    1178:	3302      	adds	r3, #2
    117a:	429c      	cmp	r4, r3
    117c:	d002      	beq.n	1184 <TEE_GetObjectValueAttribute+0x4c>
/mnt/disk/raspbian-tee/optee_os/lib/libutee/tee_api_objects.c:170
    117e:	4620      	mov	r0, r4
    1180:	f006 fcbd 	bl	7afe <TEE_Panic>
/mnt/disk/raspbian-tee/optee_os/lib/libutee/tee_api_objects.c:172
    1184:	e9dd 2300 	ldrd	r2, r3, [sp]
    1188:	2b00      	cmp	r3, #0
    118a:	bf08      	it	eq
    118c:	2a08      	cmpeq	r2, #8
    118e:	d002      	beq.n	1196 <TEE_GetObjectValueAttribute+0x5e>
/mnt/disk/raspbian-tee/optee_os/lib/libutee/tee_api_objects.c:173
    1190:	2000      	movs	r0, #0
    1192:	f006 fcb4 	bl	7afe <TEE_Panic>
/mnt/disk/raspbian-tee/optee_os/lib/libutee/tee_api_objects.c:175
    1196:	b92c      	cbnz	r4, 11a4 <TEE_GetObjectValueAttribute+0x6c>
/mnt/disk/raspbian-tee/optee_os/lib/libutee/tee_api_objects.c:176
    1198:	b10e      	cbz	r6, 119e <TEE_GetObjectValueAttribute+0x66>
/mnt/disk/raspbian-tee/optee_os/lib/libutee/tee_api_objects.c:177
    119a:	9b03      	ldr	r3, [sp, #12]
    119c:	6033      	str	r3, [r6, #0]
/mnt/disk/raspbian-tee/optee_os/lib/libutee/tee_api_objects.c:178
    119e:	b10d      	cbz	r5, 11a4 <TEE_GetObjectValueAttribute+0x6c>
/mnt/disk/raspbian-tee/optee_os/lib/libutee/tee_api_objects.c:179
    11a0:	9b04      	ldr	r3, [sp, #16]
    11a2:	602b      	str	r3, [r5, #0]
/mnt/disk/raspbian-tee/optee_os/lib/libutee/tee_api_objects.c:183
    11a4:	4620      	mov	r0, r4
    11a6:	b00c      	add	sp, #48	; 0x30
    11a8:	e8bd 81f0 	ldmia.w	sp!, {r4, r5, r6, r7, r8, pc}
/mnt/disk/raspbian-tee/optee_os/lib/libutee/tee_api_objects.c:158
    11ac:	4c02      	ldr	r4, [pc, #8]	; (11b8 <TEE_GetObjectValueAttribute+0x80>)
    11ae:	e7e6      	b.n	117e <TEE_GetObjectValueAttribute+0x46>
    11b0:	ffff0008 	.word	0xffff0008
    11b4:	f0100001 	.word	0xf0100001
    11b8:	ffff0006 	.word	0xffff0006

000011bc <TEE_CloseObject>:
TEE_CloseObject():
/mnt/disk/raspbian-tee/optee_os/lib/libutee/tee_api_objects.c:186
    11bc:	b508      	push	{r3, lr}
/mnt/disk/raspbian-tee/optee_os/lib/libutee/tee_api_objects.c:189
    11be:	b130      	cbz	r0, 11ce <TEE_CloseObject+0x12>
/mnt/disk/raspbian-tee/optee_os/lib/libutee/tee_api_objects.c:192
    11c0:	f001 effe 	blx	31c0 <utee_cryp_obj_close>
/mnt/disk/raspbian-tee/optee_os/lib/libutee/tee_api_objects.c:193
    11c4:	b118      	cbz	r0, 11ce <TEE_CloseObject+0x12>
/mnt/disk/raspbian-tee/optee_os/lib/libutee/tee_api_objects.c:195
    11c6:	e8bd 4008 	ldmia.w	sp!, {r3, lr}
/mnt/disk/raspbian-tee/optee_os/lib/libutee/tee_api_objects.c:194
    11ca:	f006 bc98 	b.w	7afe <TEE_Panic>
    11ce:	bd08      	pop	{r3, pc}

000011d0 <TEE_AllocateTransientObject>:
TEE_AllocateTransientObject():
/mnt/disk/raspbian-tee/optee_os/lib/libutee/tee_api_objects.c:202
    11d0:	b537      	push	{r0, r1, r2, r4, r5, lr}
    11d2:	4615      	mov	r5, r2
/mnt/disk/raspbian-tee/optee_os/lib/libutee/tee_api_objects.c:206
    11d4:	aa01      	add	r2, sp, #4
    11d6:	f001 efea 	blx	31ac <utee_cryp_obj_alloc>
/mnt/disk/raspbian-tee/optee_os/lib/libutee/tee_api_objects.c:208
    11da:	4604      	mov	r4, r0
    11dc:	b150      	cbz	r0, 11f4 <TEE_AllocateTransientObject+0x24>
/mnt/disk/raspbian-tee/optee_os/lib/libutee/tee_api_objects.c:208 (discriminator 1)
    11de:	4b07      	ldr	r3, [pc, #28]	; (11fc <TEE_AllocateTransientObject+0x2c>)
    11e0:	4298      	cmp	r0, r3
    11e2:	d004      	beq.n	11ee <TEE_AllocateTransientObject+0x1e>
/mnt/disk/raspbian-tee/optee_os/lib/libutee/tee_api_objects.c:209
    11e4:	3b02      	subs	r3, #2
    11e6:	4298      	cmp	r0, r3
    11e8:	d001      	beq.n	11ee <TEE_AllocateTransientObject+0x1e>
/mnt/disk/raspbian-tee/optee_os/lib/libutee/tee_api_objects.c:211
    11ea:	f006 fc88 	bl	7afe <TEE_Panic>
/mnt/disk/raspbian-tee/optee_os/lib/libutee/tee_api_objects.c:217
    11ee:	4620      	mov	r0, r4
    11f0:	b003      	add	sp, #12
    11f2:	bd30      	pop	{r4, r5, pc}
/mnt/disk/raspbian-tee/optee_os/lib/libutee/tee_api_objects.c:214
    11f4:	9b01      	ldr	r3, [sp, #4]
    11f6:	602b      	str	r3, [r5, #0]
    11f8:	e7f9      	b.n	11ee <TEE_AllocateTransientObject+0x1e>
    11fa:	bf00      	nop
    11fc:	ffff000c 	.word	0xffff000c

00001200 <TEE_FreeTransientObject>:
TEE_FreeTransientObject():
/mnt/disk/raspbian-tee/optee_os/lib/libutee/tee_api_objects.c:220
    1200:	b510      	push	{r4, lr}
/mnt/disk/raspbian-tee/optee_os/lib/libutee/tee_api_objects.c:224
    1202:	4604      	mov	r4, r0
/mnt/disk/raspbian-tee/optee_os/lib/libutee/tee_api_objects.c:220
    1204:	b088      	sub	sp, #32
/mnt/disk/raspbian-tee/optee_os/lib/libutee/tee_api_objects.c:224
    1206:	b188      	cbz	r0, 122c <TEE_FreeTransientObject+0x2c>
/mnt/disk/raspbian-tee/optee_os/lib/libutee/tee_api_objects.c:227
    1208:	a901      	add	r1, sp, #4
    120a:	f001 efb2 	blx	3170 <utee_cryp_obj_get_info>
/mnt/disk/raspbian-tee/optee_os/lib/libutee/tee_api_objects.c:228
    120e:	b108      	cbz	r0, 1214 <TEE_FreeTransientObject+0x14>
/mnt/disk/raspbian-tee/optee_os/lib/libutee/tee_api_objects.c:229
    1210:	f006 fc75 	bl	7afe <TEE_Panic>
/mnt/disk/raspbian-tee/optee_os/lib/libutee/tee_api_objects.c:231
    1214:	9b07      	ldr	r3, [sp, #28]
    1216:	03db      	lsls	r3, r3, #15
    1218:	d502      	bpl.n	1220 <TEE_FreeTransientObject+0x20>
/mnt/disk/raspbian-tee/optee_os/lib/libutee/tee_api_objects.c:232
    121a:	2000      	movs	r0, #0
    121c:	f006 fc6f 	bl	7afe <TEE_Panic>
/mnt/disk/raspbian-tee/optee_os/lib/libutee/tee_api_objects.c:234
    1220:	4620      	mov	r0, r4
    1222:	f001 efce 	blx	31c0 <utee_cryp_obj_close>
/mnt/disk/raspbian-tee/optee_os/lib/libutee/tee_api_objects.c:235
    1226:	b108      	cbz	r0, 122c <TEE_FreeTransientObject+0x2c>
/mnt/disk/raspbian-tee/optee_os/lib/libutee/tee_api_objects.c:236
    1228:	f006 fc69 	bl	7afe <TEE_Panic>
/mnt/disk/raspbian-tee/optee_os/lib/libutee/tee_api_objects.c:237
    122c:	b008      	add	sp, #32
    122e:	bd10      	pop	{r4, pc}

00001230 <TEE_ResetTransientObject>:
TEE_ResetTransientObject():
/mnt/disk/raspbian-tee/optee_os/lib/libutee/tee_api_objects.c:240
    1230:	b510      	push	{r4, lr}
/mnt/disk/raspbian-tee/optee_os/lib/libutee/tee_api_objects.c:244
    1232:	4604      	mov	r4, r0
/mnt/disk/raspbian-tee/optee_os/lib/libutee/tee_api_objects.c:240
    1234:	b088      	sub	sp, #32
/mnt/disk/raspbian-tee/optee_os/lib/libutee/tee_api_objects.c:244
    1236:	b188      	cbz	r0, 125c <TEE_ResetTransientObject+0x2c>
/mnt/disk/raspbian-tee/optee_os/lib/libutee/tee_api_objects.c:247
    1238:	a901      	add	r1, sp, #4
    123a:	f001 ef9a 	blx	3170 <utee_cryp_obj_get_info>
/mnt/disk/raspbian-tee/optee_os/lib/libutee/tee_api_objects.c:248
    123e:	b108      	cbz	r0, 1244 <TEE_ResetTransientObject+0x14>
/mnt/disk/raspbian-tee/optee_os/lib/libutee/tee_api_objects.c:249
    1240:	f006 fc5d 	bl	7afe <TEE_Panic>
/mnt/disk/raspbian-tee/optee_os/lib/libutee/tee_api_objects.c:251
    1244:	9b07      	ldr	r3, [sp, #28]
    1246:	03db      	lsls	r3, r3, #15
    1248:	d502      	bpl.n	1250 <TEE_ResetTransientObject+0x20>
/mnt/disk/raspbian-tee/optee_os/lib/libutee/tee_api_objects.c:252
    124a:	2000      	movs	r0, #0
    124c:	f006 fc57 	bl	7afe <TEE_Panic>
/mnt/disk/raspbian-tee/optee_os/lib/libutee/tee_api_objects.c:254
    1250:	4620      	mov	r0, r4
    1252:	f001 efc0 	blx	31d4 <utee_cryp_obj_reset>
/mnt/disk/raspbian-tee/optee_os/lib/libutee/tee_api_objects.c:255
    1256:	b108      	cbz	r0, 125c <TEE_ResetTransientObject+0x2c>
/mnt/disk/raspbian-tee/optee_os/lib/libutee/tee_api_objects.c:256
    1258:	f006 fc51 	bl	7afe <TEE_Panic>
/mnt/disk/raspbian-tee/optee_os/lib/libutee/tee_api_objects.c:257
    125c:	b008      	add	sp, #32
    125e:	bd10      	pop	{r4, pc}

00001260 <TEE_PopulateTransientObject>:
TEE_PopulateTransientObject():
/mnt/disk/raspbian-tee/optee_os/lib/libutee/tee_api_objects.c:265
    1260:	2318      	movs	r3, #24
/mnt/disk/raspbian-tee/optee_os/lib/libutee/tee_api_objects.c:262
    1262:	e92d 41f0 	stmdb	sp!, {r4, r5, r6, r7, r8, lr}
    1266:	4688      	mov	r8, r1
    1268:	b088      	sub	sp, #32
/mnt/disk/raspbian-tee/optee_os/lib/libutee/tee_api_objects.c:265
    126a:	4353      	muls	r3, r2
/mnt/disk/raspbian-tee/optee_os/lib/libutee/tee_api_objects.c:262
    126c:	af00      	add	r7, sp, #0
/mnt/disk/raspbian-tee/optee_os/lib/libutee/tee_api_objects.c:267
    126e:	1d39      	adds	r1, r7, #4
/mnt/disk/raspbian-tee/optee_os/lib/libutee/tee_api_objects.c:262
    1270:	4606      	mov	r6, r0
/mnt/disk/raspbian-tee/optee_os/lib/libutee/tee_api_objects.c:265
    1272:	3308      	adds	r3, #8
/mnt/disk/raspbian-tee/optee_os/lib/libutee/tee_api_objects.c:262
    1274:	4614      	mov	r4, r2
/mnt/disk/raspbian-tee/optee_os/lib/libutee/tee_api_objects.c:265
    1276:	ebad 0d03 	sub.w	sp, sp, r3
    127a:	466d      	mov	r5, sp
/mnt/disk/raspbian-tee/optee_os/lib/libutee/tee_api_objects.c:267
    127c:	f001 ef78 	blx	3170 <utee_cryp_obj_get_info>
/mnt/disk/raspbian-tee/optee_os/lib/libutee/tee_api_objects.c:268
    1280:	b108      	cbz	r0, 1286 <TEE_PopulateTransientObject+0x26>
/mnt/disk/raspbian-tee/optee_os/lib/libutee/tee_api_objects.c:269
    1282:	f006 fc3c 	bl	7afe <TEE_Panic>
/mnt/disk/raspbian-tee/optee_os/lib/libutee/tee_api_objects.c:272
    1286:	69fb      	ldr	r3, [r7, #28]
    1288:	03da      	lsls	r2, r3, #15
    128a:	d502      	bpl.n	1292 <TEE_PopulateTransientObject+0x32>
/mnt/disk/raspbian-tee/optee_os/lib/libutee/tee_api_objects.c:273
    128c:	2000      	movs	r0, #0
    128e:	f006 fc36 	bl	7afe <TEE_Panic>
/mnt/disk/raspbian-tee/optee_os/lib/libutee/tee_api_objects.c:276
    1292:	69fb      	ldr	r3, [r7, #28]
    1294:	039b      	lsls	r3, r3, #14
    1296:	d502      	bpl.n	129e <TEE_PopulateTransientObject+0x3e>
/mnt/disk/raspbian-tee/optee_os/lib/libutee/tee_api_objects.c:277
    1298:	2000      	movs	r0, #0
    129a:	f006 fc30 	bl	7afe <TEE_Panic>
/mnt/disk/raspbian-tee/optee_os/lib/libutee/tee_api_objects.c:279
    129e:	4622      	mov	r2, r4
    12a0:	4641      	mov	r1, r8
    12a2:	4628      	mov	r0, r5
    12a4:	f7ff fea8 	bl	ff8 <__utee_from_attr>
/mnt/disk/raspbian-tee/optee_os/lib/libutee/tee_api_objects.c:280
    12a8:	4622      	mov	r2, r4
    12aa:	4629      	mov	r1, r5
    12ac:	4630      	mov	r0, r6
    12ae:	f001 ef9c 	blx	31e8 <utee_cryp_obj_populate>
/mnt/disk/raspbian-tee/optee_os/lib/libutee/tee_api_objects.c:281
    12b2:	4604      	mov	r4, r0
    12b4:	b120      	cbz	r0, 12c0 <TEE_PopulateTransientObject+0x60>
/mnt/disk/raspbian-tee/optee_os/lib/libutee/tee_api_objects.c:281 (discriminator 1)
    12b6:	4b05      	ldr	r3, [pc, #20]	; (12cc <TEE_PopulateTransientObject+0x6c>)
    12b8:	4298      	cmp	r0, r3
    12ba:	d001      	beq.n	12c0 <TEE_PopulateTransientObject+0x60>
/mnt/disk/raspbian-tee/optee_os/lib/libutee/tee_api_objects.c:282
    12bc:	f006 fc1f 	bl	7afe <TEE_Panic>
/mnt/disk/raspbian-tee/optee_os/lib/libutee/tee_api_objects.c:284
    12c0:	4620      	mov	r0, r4
    12c2:	3720      	adds	r7, #32
    12c4:	46bd      	mov	sp, r7
    12c6:	e8bd 81f0 	ldmia.w	sp!, {r4, r5, r6, r7, r8, pc}
    12ca:	bf00      	nop
    12cc:	ffff0006 	.word	0xffff0006

000012d0 <TEE_InitRefAttribute>:
TEE_InitRefAttribute():
/mnt/disk/raspbian-tee/optee_os/lib/libutee/tee_api_objects.c:288
    12d0:	b5f8      	push	{r3, r4, r5, r6, r7, lr}
    12d2:	460d      	mov	r5, r1
    12d4:	4617      	mov	r7, r2
    12d6:	461e      	mov	r6, r3
/mnt/disk/raspbian-tee/optee_os/lib/libutee/tee_api_objects.c:289
    12d8:	4604      	mov	r4, r0
    12da:	b908      	cbnz	r0, 12e0 <TEE_InitRefAttribute+0x10>
/mnt/disk/raspbian-tee/optee_os/lib/libutee/tee_api_objects.c:290
    12dc:	f006 fc0f 	bl	7afe <TEE_Panic>
/mnt/disk/raspbian-tee/optee_os/lib/libutee/tee_api_objects.c:291
    12e0:	00ab      	lsls	r3, r5, #2
    12e2:	d502      	bpl.n	12ea <TEE_InitRefAttribute+0x1a>
/mnt/disk/raspbian-tee/optee_os/lib/libutee/tee_api_objects.c:292
    12e4:	2000      	movs	r0, #0
    12e6:	f006 fc0a 	bl	7afe <TEE_Panic>
/mnt/disk/raspbian-tee/optee_os/lib/libutee/tee_api_objects.c:294
    12ea:	e884 00a0 	stmia.w	r4, {r5, r7}
/mnt/disk/raspbian-tee/optee_os/lib/libutee/tee_api_objects.c:295
    12ee:	60a6      	str	r6, [r4, #8]
    12f0:	bdf8      	pop	{r3, r4, r5, r6, r7, pc}

000012f2 <TEE_InitValueAttribute>:
TEE_InitValueAttribute():
/mnt/disk/raspbian-tee/optee_os/lib/libutee/tee_api_objects.c:300
    12f2:	b5f8      	push	{r3, r4, r5, r6, r7, lr}
    12f4:	460d      	mov	r5, r1
    12f6:	4617      	mov	r7, r2
    12f8:	461e      	mov	r6, r3
/mnt/disk/raspbian-tee/optee_os/lib/libutee/tee_api_objects.c:301
    12fa:	4604      	mov	r4, r0
    12fc:	b908      	cbnz	r0, 1302 <TEE_InitValueAttribute+0x10>
/mnt/disk/raspbian-tee/optee_os/lib/libutee/tee_api_objects.c:302
    12fe:	f006 fbfe 	bl	7afe <TEE_Panic>
/mnt/disk/raspbian-tee/optee_os/lib/libutee/tee_api_objects.c:303
    1302:	f015 5000 	ands.w	r0, r5, #536870912	; 0x20000000
    1306:	d101      	bne.n	130c <TEE_InitValueAttribute+0x1a>
/mnt/disk/raspbian-tee/optee_os/lib/libutee/tee_api_objects.c:304
    1308:	f006 fbf9 	bl	7afe <TEE_Panic>
/mnt/disk/raspbian-tee/optee_os/lib/libutee/tee_api_objects.c:306
    130c:	e884 00a0 	stmia.w	r4, {r5, r7}
/mnt/disk/raspbian-tee/optee_os/lib/libutee/tee_api_objects.c:307
    1310:	60a6      	str	r6, [r4, #8]
    1312:	bdf8      	pop	{r3, r4, r5, r6, r7, pc}

00001314 <TEE_CopyObjectAttributes1>:
TEE_CopyObjectAttributes1():
/mnt/disk/raspbian-tee/optee_os/lib/libutee/tee_api_objects.c:333
    1314:	b570      	push	{r4, r5, r6, lr}
    1316:	460d      	mov	r5, r1
    1318:	4606      	mov	r6, r0
    131a:	b08e      	sub	sp, #56	; 0x38
/mnt/disk/raspbian-tee/optee_os/lib/libutee/tee_api_objects.c:338
    131c:	4669      	mov	r1, sp
    131e:	f001 ef28 	blx	3170 <utee_cryp_obj_get_info>
/mnt/disk/raspbian-tee/optee_os/lib/libutee/tee_api_objects.c:339
    1322:	4604      	mov	r4, r0
    1324:	b9e0      	cbnz	r0, 1360 <TEE_CopyObjectAttributes1+0x4c>
/mnt/disk/raspbian-tee/optee_os/lib/libutee/tee_api_objects.c:342
    1326:	a907      	add	r1, sp, #28
    1328:	4628      	mov	r0, r5
    132a:	f001 ef22 	blx	3170 <utee_cryp_obj_get_info>
/mnt/disk/raspbian-tee/optee_os/lib/libutee/tee_api_objects.c:343
    132e:	4604      	mov	r4, r0
    1330:	b9b0      	cbnz	r0, 1360 <TEE_CopyObjectAttributes1+0x4c>
/mnt/disk/raspbian-tee/optee_os/lib/libutee/tee_api_objects.c:346
    1332:	9b0d      	ldr	r3, [sp, #52]	; 0x34
    1334:	0399      	lsls	r1, r3, #14
    1336:	d401      	bmi.n	133c <TEE_CopyObjectAttributes1+0x28>
/mnt/disk/raspbian-tee/optee_os/lib/libutee/tee_api_objects.c:347
    1338:	f006 fbe1 	bl	7afe <TEE_Panic>
/mnt/disk/raspbian-tee/optee_os/lib/libutee/tee_api_objects.c:349
    133c:	9b06      	ldr	r3, [sp, #24]
    133e:	03da      	lsls	r2, r3, #15
    1340:	d502      	bpl.n	1348 <TEE_CopyObjectAttributes1+0x34>
/mnt/disk/raspbian-tee/optee_os/lib/libutee/tee_api_objects.c:350
    1342:	2000      	movs	r0, #0
    1344:	f006 fbdb 	bl	7afe <TEE_Panic>
/mnt/disk/raspbian-tee/optee_os/lib/libutee/tee_api_objects.c:352
    1348:	9b06      	ldr	r3, [sp, #24]
    134a:	039b      	lsls	r3, r3, #14
    134c:	d502      	bpl.n	1354 <TEE_CopyObjectAttributes1+0x40>
/mnt/disk/raspbian-tee/optee_os/lib/libutee/tee_api_objects.c:353
    134e:	2000      	movs	r0, #0
    1350:	f006 fbd5 	bl	7afe <TEE_Panic>
/mnt/disk/raspbian-tee/optee_os/lib/libutee/tee_api_objects.c:355
    1354:	4629      	mov	r1, r5
    1356:	4630      	mov	r0, r6
    1358:	f001 ef50 	blx	31fc <utee_cryp_obj_copy>
/mnt/disk/raspbian-tee/optee_os/lib/libutee/tee_api_objects.c:359
    135c:	4604      	mov	r4, r0
    135e:	b140      	cbz	r0, 1372 <TEE_CopyObjectAttributes1+0x5e>
/mnt/disk/raspbian-tee/optee_os/lib/libutee/tee_api_objects.c:359 (discriminator 1)
    1360:	4b05      	ldr	r3, [pc, #20]	; (1378 <TEE_CopyObjectAttributes1+0x64>)
    1362:	429c      	cmp	r4, r3
    1364:	d005      	beq.n	1372 <TEE_CopyObjectAttributes1+0x5e>
/mnt/disk/raspbian-tee/optee_os/lib/libutee/tee_api_objects.c:360
    1366:	3302      	adds	r3, #2
    1368:	429c      	cmp	r4, r3
    136a:	d002      	beq.n	1372 <TEE_CopyObjectAttributes1+0x5e>
/mnt/disk/raspbian-tee/optee_os/lib/libutee/tee_api_objects.c:362
    136c:	4620      	mov	r0, r4
    136e:	f006 fbc6 	bl	7afe <TEE_Panic>
/mnt/disk/raspbian-tee/optee_os/lib/libutee/tee_api_objects.c:365
    1372:	4620      	mov	r0, r4
    1374:	b00e      	add	sp, #56	; 0x38
    1376:	bd70      	pop	{r4, r5, r6, pc}
    1378:	f0100001 	.word	0xf0100001

0000137c <TEE_CopyObjectAttributes>:
TEE_CopyObjectAttributes():
/mnt/disk/raspbian-tee/optee_os/lib/libutee/tee_api_objects.c:318
    137c:	b530      	push	{r4, r5, lr}
    137e:	460c      	mov	r4, r1
    1380:	4605      	mov	r5, r0
    1382:	b089      	sub	sp, #36	; 0x24
/mnt/disk/raspbian-tee/optee_os/lib/libutee/tee_api_objects.c:322
    1384:	4620      	mov	r0, r4
    1386:	a901      	add	r1, sp, #4
    1388:	f001 eef2 	blx	3170 <utee_cryp_obj_get_info>
/mnt/disk/raspbian-tee/optee_os/lib/libutee/tee_api_objects.c:323
    138c:	4b06      	ldr	r3, [pc, #24]	; (13a8 <TEE_CopyObjectAttributes+0x2c>)
    138e:	9a01      	ldr	r2, [sp, #4]
    1390:	429a      	cmp	r2, r3
    1392:	d006      	beq.n	13a2 <TEE_CopyObjectAttributes+0x26>
/mnt/disk/raspbian-tee/optee_os/lib/libutee/tee_api_objects.c:326
    1394:	4621      	mov	r1, r4
    1396:	4628      	mov	r0, r5
    1398:	f7ff ffbc 	bl	1314 <TEE_CopyObjectAttributes1>
/mnt/disk/raspbian-tee/optee_os/lib/libutee/tee_api_objects.c:327
    139c:	b108      	cbz	r0, 13a2 <TEE_CopyObjectAttributes+0x26>
/mnt/disk/raspbian-tee/optee_os/lib/libutee/tee_api_objects.c:328
    139e:	f006 fbae 	bl	7afe <TEE_Panic>
/mnt/disk/raspbian-tee/optee_os/lib/libutee/tee_api_objects.c:329
    13a2:	b009      	add	sp, #36	; 0x24
    13a4:	bd30      	pop	{r4, r5, pc}
    13a6:	bf00      	nop
    13a8:	a00000be 	.word	0xa00000be

000013ac <TEE_GenerateKey>:
TEE_GenerateKey():
/mnt/disk/raspbian-tee/optee_os/lib/libutee/tee_api_objects.c:369
    13ac:	e92d 41f0 	stmdb	sp!, {r4, r5, r6, r7, r8, lr}
    13b0:	4688      	mov	r8, r1
    13b2:	4611      	mov	r1, r2
/mnt/disk/raspbian-tee/optee_os/lib/libutee/tee_api_objects.c:371
    13b4:	2218      	movs	r2, #24
/mnt/disk/raspbian-tee/optee_os/lib/libutee/tee_api_objects.c:369
    13b6:	af00      	add	r7, sp, #0
    13b8:	461c      	mov	r4, r3
    13ba:	4606      	mov	r6, r0
/mnt/disk/raspbian-tee/optee_os/lib/libutee/tee_api_objects.c:371
    13bc:	435a      	muls	r2, r3
    13be:	3208      	adds	r2, #8
    13c0:	ebad 0d02 	sub.w	sp, sp, r2
/mnt/disk/raspbian-tee/optee_os/lib/libutee/tee_api_objects.c:373
    13c4:	461a      	mov	r2, r3
    13c6:	4668      	mov	r0, sp
    13c8:	f7ff fe16 	bl	ff8 <__utee_from_attr>
/mnt/disk/raspbian-tee/optee_os/lib/libutee/tee_api_objects.c:374
    13cc:	4623      	mov	r3, r4
    13ce:	466a      	mov	r2, sp
    13d0:	4641      	mov	r1, r8
    13d2:	4630      	mov	r0, r6
    13d4:	f002 e808 	blx	33e8 <utee_cryp_obj_generate_key>
/mnt/disk/raspbian-tee/optee_os/lib/libutee/tee_api_objects.c:377
    13d8:	4604      	mov	r4, r0
    13da:	b120      	cbz	r0, 13e6 <TEE_GenerateKey+0x3a>
/mnt/disk/raspbian-tee/optee_os/lib/libutee/tee_api_objects.c:377 (discriminator 1)
    13dc:	4b04      	ldr	r3, [pc, #16]	; (13f0 <TEE_GenerateKey+0x44>)
    13de:	4298      	cmp	r0, r3
    13e0:	d001      	beq.n	13e6 <TEE_GenerateKey+0x3a>
/mnt/disk/raspbian-tee/optee_os/lib/libutee/tee_api_objects.c:378
    13e2:	f006 fb8c 	bl	7afe <TEE_Panic>
/mnt/disk/raspbian-tee/optee_os/lib/libutee/tee_api_objects.c:381
    13e6:	4620      	mov	r0, r4
    13e8:	46bd      	mov	sp, r7
    13ea:	e8bd 81f0 	ldmia.w	sp!, {r4, r5, r6, r7, r8, pc}
    13ee:	bf00      	nop
    13f0:	ffff0006 	.word	0xffff0006

000013f4 <TEE_OpenPersistentObject>:
TEE_OpenPersistentObject():
/mnt/disk/raspbian-tee/optee_os/lib/libutee/tee_api_objects.c:388
    13f4:	b530      	push	{r4, r5, lr}
    13f6:	b085      	sub	sp, #20
    13f8:	9d08      	ldr	r5, [sp, #32]
/mnt/disk/raspbian-tee/optee_os/lib/libutee/tee_api_objects.c:392
    13fa:	b919      	cbnz	r1, 1404 <TEE_OpenPersistentObject+0x10>
    13fc:	4c12      	ldr	r4, [pc, #72]	; (1448 <TEE_OpenPersistentObject+0x54>)
/mnt/disk/raspbian-tee/optee_os/lib/libutee/tee_api_objects.c:422
    13fe:	4620      	mov	r0, r4
    1400:	b005      	add	sp, #20
    1402:	bd30      	pop	{r4, r5, pc}
/mnt/disk/raspbian-tee/optee_os/lib/libutee/tee_api_objects.c:397
    1404:	2a40      	cmp	r2, #64	; 0x40
    1406:	d809      	bhi.n	141c <TEE_OpenPersistentObject+0x28>
/mnt/disk/raspbian-tee/optee_os/lib/libutee/tee_api_objects.c:402
    1408:	b145      	cbz	r5, 141c <TEE_OpenPersistentObject+0x28>
/mnt/disk/raspbian-tee/optee_os/lib/libutee/tee_api_objects.c:407
    140a:	ac03      	add	r4, sp, #12
    140c:	9400      	str	r4, [sp, #0]
    140e:	f001 ef66 	blx	32dc <utee_storage_obj_open>
/mnt/disk/raspbian-tee/optee_os/lib/libutee/tee_api_objects.c:409
    1412:	4604      	mov	r4, r0
    1414:	b920      	cbnz	r0, 1420 <TEE_OpenPersistentObject+0x2c>
/mnt/disk/raspbian-tee/optee_os/lib/libutee/tee_api_objects.c:410
    1416:	9b03      	ldr	r3, [sp, #12]
    1418:	602b      	str	r3, [r5, #0]
    141a:	e7f0      	b.n	13fe <TEE_OpenPersistentObject+0xa>
    141c:	4c0b      	ldr	r4, [pc, #44]	; (144c <TEE_OpenPersistentObject+0x58>)
    141e:	e00e      	b.n	143e <TEE_OpenPersistentObject+0x4a>
/mnt/disk/raspbian-tee/optee_os/lib/libutee/tee_api_objects.c:413
    1420:	4b09      	ldr	r3, [pc, #36]	; (1448 <TEE_OpenPersistentObject+0x54>)
    1422:	4298      	cmp	r0, r3
    1424:	d0ea      	beq.n	13fc <TEE_OpenPersistentObject+0x8>
/mnt/disk/raspbian-tee/optee_os/lib/libutee/tee_api_objects.c:414
    1426:	4b0a      	ldr	r3, [pc, #40]	; (1450 <TEE_OpenPersistentObject+0x5c>)
    1428:	429c      	cmp	r4, r3
    142a:	d0e8      	beq.n	13fe <TEE_OpenPersistentObject+0xa>
/mnt/disk/raspbian-tee/optee_os/lib/libutee/tee_api_objects.c:415
    142c:	3309      	adds	r3, #9
    142e:	429c      	cmp	r4, r3
    1430:	d0e5      	beq.n	13fe <TEE_OpenPersistentObject+0xa>
/mnt/disk/raspbian-tee/optee_os/lib/libutee/tee_api_objects.c:416
    1432:	4b08      	ldr	r3, [pc, #32]	; (1454 <TEE_OpenPersistentObject+0x60>)
    1434:	429c      	cmp	r4, r3
    1436:	d0e2      	beq.n	13fe <TEE_OpenPersistentObject+0xa>
/mnt/disk/raspbian-tee/optee_os/lib/libutee/tee_api_objects.c:417
    1438:	3302      	adds	r3, #2
    143a:	429c      	cmp	r4, r3
    143c:	d0df      	beq.n	13fe <TEE_OpenPersistentObject+0xa>
/mnt/disk/raspbian-tee/optee_os/lib/libutee/tee_api_objects.c:419
    143e:	4620      	mov	r0, r4
    1440:	f006 fb5d 	bl	7afe <TEE_Panic>
/mnt/disk/raspbian-tee/optee_os/lib/libutee/tee_api_objects.c:421
    1444:	e7db      	b.n	13fe <TEE_OpenPersistentObject+0xa>
    1446:	bf00      	nop
    1448:	ffff0008 	.word	0xffff0008
    144c:	ffff0006 	.word	0xffff0006
    1450:	ffff0003 	.word	0xffff0003
    1454:	f0100001 	.word	0xf0100001

00001458 <TEE_CreatePersistentObject>:
TEE_CreatePersistentObject():
/mnt/disk/raspbian-tee/optee_os/lib/libutee/tee_api_objects.c:430
    1458:	b530      	push	{r4, r5, lr}
    145a:	b087      	sub	sp, #28
    145c:	9c0d      	ldr	r4, [sp, #52]	; 0x34
/mnt/disk/raspbian-tee/optee_os/lib/libutee/tee_api_objects.c:434
    145e:	2900      	cmp	r1, #0
    1460:	d033      	beq.n	14ca <TEE_CreatePersistentObject+0x72>
/mnt/disk/raspbian-tee/optee_os/lib/libutee/tee_api_objects.c:439
    1462:	2a40      	cmp	r2, #64	; 0x40
    1464:	d835      	bhi.n	14d2 <TEE_CreatePersistentObject+0x7a>
/mnt/disk/raspbian-tee/optee_os/lib/libutee/tee_api_objects.c:444
    1466:	ad05      	add	r5, sp, #20
    1468:	9503      	str	r5, [sp, #12]
    146a:	9d0c      	ldr	r5, [sp, #48]	; 0x30
    146c:	9502      	str	r5, [sp, #8]
    146e:	9d0b      	ldr	r5, [sp, #44]	; 0x2c
    1470:	9501      	str	r5, [sp, #4]
    1472:	9d0a      	ldr	r5, [sp, #40]	; 0x28
    1474:	9500      	str	r5, [sp, #0]
    1476:	f001 ef3e 	blx	32f4 <utee_storage_obj_create>
/mnt/disk/raspbian-tee/optee_os/lib/libutee/tee_api_objects.c:447
    147a:	b970      	cbnz	r0, 149a <TEE_CreatePersistentObject+0x42>
/mnt/disk/raspbian-tee/optee_os/lib/libutee/tee_api_objects.c:448
    147c:	b11c      	cbz	r4, 1486 <TEE_CreatePersistentObject+0x2e>
/mnt/disk/raspbian-tee/optee_os/lib/libutee/tee_api_objects.c:449
    147e:	9b05      	ldr	r3, [sp, #20]
    1480:	6023      	str	r3, [r4, #0]
/mnt/disk/raspbian-tee/optee_os/lib/libutee/tee_api_objects.c:468
    1482:	b007      	add	sp, #28
    1484:	bd30      	pop	{r4, r5, pc}
/mnt/disk/raspbian-tee/optee_os/lib/libutee/tee_api_objects.c:451
    1486:	9805      	ldr	r0, [sp, #20]
    1488:	f001 ee9a 	blx	31c0 <utee_cryp_obj_close>
/mnt/disk/raspbian-tee/optee_os/lib/libutee/tee_api_objects.c:452
    148c:	2800      	cmp	r0, #0
    148e:	d0f8      	beq.n	1482 <TEE_CreatePersistentObject+0x2a>
/mnt/disk/raspbian-tee/optee_os/lib/libutee/tee_api_objects.c:458
    1490:	4b12      	ldr	r3, [pc, #72]	; (14dc <TEE_CreatePersistentObject+0x84>)
    1492:	4298      	cmp	r0, r3
    1494:	d106      	bne.n	14a4 <TEE_CreatePersistentObject+0x4c>
/mnt/disk/raspbian-tee/optee_os/lib/libutee/tee_api_objects.c:467
    1496:	4811      	ldr	r0, [pc, #68]	; (14dc <TEE_CreatePersistentObject+0x84>)
    1498:	e7f3      	b.n	1482 <TEE_CreatePersistentObject+0x2a>
/mnt/disk/raspbian-tee/optee_os/lib/libutee/tee_api_objects.c:456
    149a:	2c00      	cmp	r4, #0
    149c:	d0f8      	beq.n	1490 <TEE_CreatePersistentObject+0x38>
/mnt/disk/raspbian-tee/optee_os/lib/libutee/tee_api_objects.c:457
    149e:	2300      	movs	r3, #0
    14a0:	6023      	str	r3, [r4, #0]
    14a2:	e7f5      	b.n	1490 <TEE_CreatePersistentObject+0x38>
/mnt/disk/raspbian-tee/optee_os/lib/libutee/tee_api_objects.c:458 (discriminator 1)
    14a4:	4b0e      	ldr	r3, [pc, #56]	; (14e0 <TEE_CreatePersistentObject+0x88>)
    14a6:	4298      	cmp	r0, r3
    14a8:	d0eb      	beq.n	1482 <TEE_CreatePersistentObject+0x2a>
/mnt/disk/raspbian-tee/optee_os/lib/libutee/tee_api_objects.c:459
    14aa:	3309      	adds	r3, #9
    14ac:	4298      	cmp	r0, r3
    14ae:	d0e8      	beq.n	1482 <TEE_CreatePersistentObject+0x2a>
/mnt/disk/raspbian-tee/optee_os/lib/libutee/tee_api_objects.c:460
    14b0:	4b0c      	ldr	r3, [pc, #48]	; (14e4 <TEE_CreatePersistentObject+0x8c>)
    14b2:	4298      	cmp	r0, r3
    14b4:	d0e5      	beq.n	1482 <TEE_CreatePersistentObject+0x2a>
/mnt/disk/raspbian-tee/optee_os/lib/libutee/tee_api_objects.c:461
    14b6:	4b0c      	ldr	r3, [pc, #48]	; (14e8 <TEE_CreatePersistentObject+0x90>)
    14b8:	4298      	cmp	r0, r3
    14ba:	d0e2      	beq.n	1482 <TEE_CreatePersistentObject+0x2a>
/mnt/disk/raspbian-tee/optee_os/lib/libutee/tee_api_objects.c:462
    14bc:	3302      	adds	r3, #2
    14be:	4298      	cmp	r0, r3
    14c0:	d0df      	beq.n	1482 <TEE_CreatePersistentObject+0x2a>
/mnt/disk/raspbian-tee/optee_os/lib/libutee/tee_api_objects.c:465
    14c2:	f006 fb1c 	bl	7afe <TEE_Panic>
/mnt/disk/raspbian-tee/optee_os/lib/libutee/tee_api_objects.c:467
    14c6:	2000      	movs	r0, #0
    14c8:	e7db      	b.n	1482 <TEE_CreatePersistentObject+0x2a>
/mnt/disk/raspbian-tee/optee_os/lib/libutee/tee_api_objects.c:456
    14ca:	2c00      	cmp	r4, #0
    14cc:	d0e3      	beq.n	1496 <TEE_CreatePersistentObject+0x3e>
/mnt/disk/raspbian-tee/optee_os/lib/libutee/tee_api_objects.c:435
    14ce:	4803      	ldr	r0, [pc, #12]	; (14dc <TEE_CreatePersistentObject+0x84>)
    14d0:	e7e5      	b.n	149e <TEE_CreatePersistentObject+0x46>
/mnt/disk/raspbian-tee/optee_os/lib/libutee/tee_api_objects.c:440
    14d2:	4806      	ldr	r0, [pc, #24]	; (14ec <TEE_CreatePersistentObject+0x94>)
/mnt/disk/raspbian-tee/optee_os/lib/libutee/tee_api_objects.c:456
    14d4:	2c00      	cmp	r4, #0
    14d6:	d1e2      	bne.n	149e <TEE_CreatePersistentObject+0x46>
    14d8:	e7f3      	b.n	14c2 <TEE_CreatePersistentObject+0x6a>
    14da:	bf00      	nop
    14dc:	ffff0008 	.word	0xffff0008
    14e0:	ffff0003 	.word	0xffff0003
    14e4:	ffff3041 	.word	0xffff3041
    14e8:	f0100001 	.word	0xf0100001
    14ec:	ffff0006 	.word	0xffff0006

000014f0 <TEE_CloseAndDeletePersistentObject1>:
TEE_CloseAndDeletePersistentObject1():
/mnt/disk/raspbian-tee/optee_os/lib/libutee/tee_api_objects.c:490
    14f0:	b510      	push	{r4, lr}
/mnt/disk/raspbian-tee/optee_os/lib/libutee/tee_api_objects.c:493
    14f2:	b150      	cbz	r0, 150a <TEE_CloseAndDeletePersistentObject1+0x1a>
/mnt/disk/raspbian-tee/optee_os/lib/libutee/tee_api_objects.c:496
    14f4:	f001 ef0a 	blx	330c <utee_storage_obj_del>
/mnt/disk/raspbian-tee/optee_os/lib/libutee/tee_api_objects.c:498
    14f8:	4604      	mov	r4, r0
    14fa:	b120      	cbz	r0, 1506 <TEE_CloseAndDeletePersistentObject1+0x16>
    14fc:	4b04      	ldr	r3, [pc, #16]	; (1510 <TEE_CloseAndDeletePersistentObject1+0x20>)
    14fe:	4298      	cmp	r0, r3
    1500:	d001      	beq.n	1506 <TEE_CloseAndDeletePersistentObject1+0x16>
/mnt/disk/raspbian-tee/optee_os/lib/libutee/tee_api_objects.c:499
    1502:	f006 fafc 	bl	7afe <TEE_Panic>
/mnt/disk/raspbian-tee/optee_os/lib/libutee/tee_api_objects.c:502
    1506:	4620      	mov	r0, r4
    1508:	bd10      	pop	{r4, pc}
/mnt/disk/raspbian-tee/optee_os/lib/libutee/tee_api_objects.c:494
    150a:	4c01      	ldr	r4, [pc, #4]	; (1510 <TEE_CloseAndDeletePersistentObject1+0x20>)
    150c:	e7fb      	b.n	1506 <TEE_CloseAndDeletePersistentObject1+0x16>
    150e:	bf00      	nop
    1510:	f0100003 	.word	0xf0100003

00001514 <TEE_CloseAndDeletePersistentObject>:
TEE_CloseAndDeletePersistentObject():
/mnt/disk/raspbian-tee/optee_os/lib/libutee/tee_api_objects.c:477
    1514:	b508      	push	{r3, lr}
/mnt/disk/raspbian-tee/optee_os/lib/libutee/tee_api_objects.c:480
    1516:	b138      	cbz	r0, 1528 <TEE_CloseAndDeletePersistentObject+0x14>
/mnt/disk/raspbian-tee/optee_os/lib/libutee/tee_api_objects.c:483
    1518:	f7ff ffea 	bl	14f0 <TEE_CloseAndDeletePersistentObject1>
/mnt/disk/raspbian-tee/optee_os/lib/libutee/tee_api_objects.c:485
    151c:	b120      	cbz	r0, 1528 <TEE_CloseAndDeletePersistentObject+0x14>
/mnt/disk/raspbian-tee/optee_os/lib/libutee/tee_api_objects.c:486
    151e:	2000      	movs	r0, #0
/mnt/disk/raspbian-tee/optee_os/lib/libutee/tee_api_objects.c:487
    1520:	e8bd 4008 	ldmia.w	sp!, {r3, lr}
/mnt/disk/raspbian-tee/optee_os/lib/libutee/tee_api_objects.c:486
    1524:	f006 baeb 	b.w	7afe <TEE_Panic>
    1528:	bd08      	pop	{r3, pc}

0000152a <TEE_RenamePersistentObject>:
TEE_RenamePersistentObject():
/mnt/disk/raspbian-tee/optee_os/lib/libutee/tee_api_objects.c:508
    152a:	b510      	push	{r4, lr}
/mnt/disk/raspbian-tee/optee_os/lib/libutee/tee_api_objects.c:511
    152c:	b1a0      	cbz	r0, 1558 <TEE_RenamePersistentObject+0x2e>
/mnt/disk/raspbian-tee/optee_os/lib/libutee/tee_api_objects.c:516
    152e:	b1a9      	cbz	r1, 155c <TEE_RenamePersistentObject+0x32>
/mnt/disk/raspbian-tee/optee_os/lib/libutee/tee_api_objects.c:521
    1530:	2a40      	cmp	r2, #64	; 0x40
    1532:	d813      	bhi.n	155c <TEE_RenamePersistentObject+0x32>
/mnt/disk/raspbian-tee/optee_os/lib/libutee/tee_api_objects.c:526
    1534:	f001 eef4 	blx	3320 <utee_storage_obj_rename>
/mnt/disk/raspbian-tee/optee_os/lib/libutee/tee_api_objects.c:530
    1538:	4604      	mov	r4, r0
    153a:	b158      	cbz	r0, 1554 <TEE_RenamePersistentObject+0x2a>
/mnt/disk/raspbian-tee/optee_os/lib/libutee/tee_api_objects.c:530 (discriminator 1)
    153c:	4b08      	ldr	r3, [pc, #32]	; (1560 <TEE_RenamePersistentObject+0x36>)
    153e:	4298      	cmp	r0, r3
    1540:	d008      	beq.n	1554 <TEE_RenamePersistentObject+0x2a>
/mnt/disk/raspbian-tee/optee_os/lib/libutee/tee_api_objects.c:531
    1542:	4b08      	ldr	r3, [pc, #32]	; (1564 <TEE_RenamePersistentObject+0x3a>)
    1544:	4298      	cmp	r0, r3
    1546:	d005      	beq.n	1554 <TEE_RenamePersistentObject+0x2a>
/mnt/disk/raspbian-tee/optee_os/lib/libutee/tee_api_objects.c:532
    1548:	3302      	adds	r3, #2
    154a:	4298      	cmp	r0, r3
    154c:	d002      	beq.n	1554 <TEE_RenamePersistentObject+0x2a>
/mnt/disk/raspbian-tee/optee_os/lib/libutee/tee_api_objects.c:534
    154e:	4620      	mov	r0, r4
    1550:	f006 fad5 	bl	7afe <TEE_Panic>
/mnt/disk/raspbian-tee/optee_os/lib/libutee/tee_api_objects.c:537
    1554:	4620      	mov	r0, r4
    1556:	bd10      	pop	{r4, pc}
/mnt/disk/raspbian-tee/optee_os/lib/libutee/tee_api_objects.c:512
    1558:	4c03      	ldr	r4, [pc, #12]	; (1568 <TEE_RenamePersistentObject+0x3e>)
    155a:	e7f8      	b.n	154e <TEE_RenamePersistentObject+0x24>
/mnt/disk/raspbian-tee/optee_os/lib/libutee/tee_api_objects.c:517
    155c:	4c03      	ldr	r4, [pc, #12]	; (156c <TEE_RenamePersistentObject+0x42>)
    155e:	e7f6      	b.n	154e <TEE_RenamePersistentObject+0x24>
    1560:	ffff0003 	.word	0xffff0003
    1564:	f0100001 	.word	0xf0100001
    1568:	ffff0008 	.word	0xffff0008
    156c:	ffff0006 	.word	0xffff0006

00001570 <TEE_AllocatePersistentObjectEnumerator>:
TEE_AllocatePersistentObjectEnumerator():
/mnt/disk/raspbian-tee/optee_os/lib/libutee/tee_api_objects.c:541
    1570:	b537      	push	{r0, r1, r2, r4, r5, lr}
/mnt/disk/raspbian-tee/optee_os/lib/libutee/tee_api_objects.c:545
    1572:	4605      	mov	r5, r0
    1574:	b190      	cbz	r0, 159c <TEE_AllocatePersistentObjectEnumerator+0x2c>
/mnt/disk/raspbian-tee/optee_os/lib/libutee/tee_api_objects.c:548
    1576:	a801      	add	r0, sp, #4
    1578:	f001 eedc 	blx	3334 <utee_storage_alloc_enum>
/mnt/disk/raspbian-tee/optee_os/lib/libutee/tee_api_objects.c:550
    157c:	4604      	mov	r4, r0
    157e:	b108      	cbz	r0, 1584 <TEE_AllocatePersistentObjectEnumerator+0x14>
/mnt/disk/raspbian-tee/optee_os/lib/libutee/tee_api_objects.c:551
    1580:	2300      	movs	r3, #0
    1582:	9301      	str	r3, [sp, #4]
/mnt/disk/raspbian-tee/optee_os/lib/libutee/tee_api_objects.c:553
    1584:	9b01      	ldr	r3, [sp, #4]
    1586:	602b      	str	r3, [r5, #0]
/mnt/disk/raspbian-tee/optee_os/lib/libutee/tee_api_objects.c:555
    1588:	b12c      	cbz	r4, 1596 <TEE_AllocatePersistentObjectEnumerator+0x26>
/mnt/disk/raspbian-tee/optee_os/lib/libutee/tee_api_objects.c:555 (discriminator 1)
    158a:	4b05      	ldr	r3, [pc, #20]	; (15a0 <TEE_AllocatePersistentObjectEnumerator+0x30>)
    158c:	429c      	cmp	r4, r3
    158e:	d002      	beq.n	1596 <TEE_AllocatePersistentObjectEnumerator+0x26>
/mnt/disk/raspbian-tee/optee_os/lib/libutee/tee_api_objects.c:557
    1590:	4620      	mov	r0, r4
    1592:	f006 fab4 	bl	7afe <TEE_Panic>
/mnt/disk/raspbian-tee/optee_os/lib/libutee/tee_api_objects.c:560
    1596:	4620      	mov	r0, r4
    1598:	b003      	add	sp, #12
    159a:	bd30      	pop	{r4, r5, pc}
/mnt/disk/raspbian-tee/optee_os/lib/libutee/tee_api_objects.c:546
    159c:	4c01      	ldr	r4, [pc, #4]	; (15a4 <TEE_AllocatePersistentObjectEnumerator+0x34>)
    159e:	e7fa      	b.n	1596 <TEE_AllocatePersistentObjectEnumerator+0x26>
    15a0:	ffff0003 	.word	0xffff0003
    15a4:	ffff0006 	.word	0xffff0006

000015a8 <TEE_FreePersistentObjectEnumerator>:
TEE_FreePersistentObjectEnumerator():
/mnt/disk/raspbian-tee/optee_os/lib/libutee/tee_api_objects.c:563
    15a8:	b508      	push	{r3, lr}
/mnt/disk/raspbian-tee/optee_os/lib/libutee/tee_api_objects.c:566
    15aa:	b130      	cbz	r0, 15ba <TEE_FreePersistentObjectEnumerator+0x12>
/mnt/disk/raspbian-tee/optee_os/lib/libutee/tee_api_objects.c:569
    15ac:	f001 eecc 	blx	3348 <utee_storage_free_enum>
/mnt/disk/raspbian-tee/optee_os/lib/libutee/tee_api_objects.c:571
    15b0:	b118      	cbz	r0, 15ba <TEE_FreePersistentObjectEnumerator+0x12>
/mnt/disk/raspbian-tee/optee_os/lib/libutee/tee_api_objects.c:573
    15b2:	e8bd 4008 	ldmia.w	sp!, {r3, lr}
/mnt/disk/raspbian-tee/optee_os/lib/libutee/tee_api_objects.c:572
    15b6:	f006 baa2 	b.w	7afe <TEE_Panic>
    15ba:	bd08      	pop	{r3, pc}

000015bc <TEE_ResetPersistentObjectEnumerator>:
TEE_ResetPersistentObjectEnumerator():
/mnt/disk/raspbian-tee/optee_os/lib/libutee/tee_api_objects.c:576
    15bc:	b508      	push	{r3, lr}
/mnt/disk/raspbian-tee/optee_os/lib/libutee/tee_api_objects.c:579
    15be:	b130      	cbz	r0, 15ce <TEE_ResetPersistentObjectEnumerator+0x12>
/mnt/disk/raspbian-tee/optee_os/lib/libutee/tee_api_objects.c:582
    15c0:	f001 eecc 	blx	335c <utee_storage_reset_enum>
/mnt/disk/raspbian-tee/optee_os/lib/libutee/tee_api_objects.c:584
    15c4:	b118      	cbz	r0, 15ce <TEE_ResetPersistentObjectEnumerator+0x12>
/mnt/disk/raspbian-tee/optee_os/lib/libutee/tee_api_objects.c:586
    15c6:	e8bd 4008 	ldmia.w	sp!, {r3, lr}
/mnt/disk/raspbian-tee/optee_os/lib/libutee/tee_api_objects.c:585
    15ca:	f006 ba98 	b.w	7afe <TEE_Panic>
    15ce:	bd08      	pop	{r3, pc}

000015d0 <TEE_StartPersistentObjectEnumerator>:
TEE_StartPersistentObjectEnumerator():
/mnt/disk/raspbian-tee/optee_os/lib/libutee/tee_api_objects.c:591
    15d0:	b510      	push	{r4, lr}
/mnt/disk/raspbian-tee/optee_os/lib/libutee/tee_api_objects.c:594
    15d2:	f001 eece 	blx	3370 <utee_storage_start_enum>
/mnt/disk/raspbian-tee/optee_os/lib/libutee/tee_api_objects.c:597
    15d6:	4604      	mov	r4, r0
    15d8:	b148      	cbz	r0, 15ee <TEE_StartPersistentObjectEnumerator+0x1e>
/mnt/disk/raspbian-tee/optee_os/lib/libutee/tee_api_objects.c:597 (discriminator 1)
    15da:	4b06      	ldr	r3, [pc, #24]	; (15f4 <TEE_StartPersistentObjectEnumerator+0x24>)
    15dc:	4298      	cmp	r0, r3
    15de:	d006      	beq.n	15ee <TEE_StartPersistentObjectEnumerator+0x1e>
/mnt/disk/raspbian-tee/optee_os/lib/libutee/tee_api_objects.c:598
    15e0:	4b05      	ldr	r3, [pc, #20]	; (15f8 <TEE_StartPersistentObjectEnumerator+0x28>)
    15e2:	f020 0202 	bic.w	r2, r0, #2
    15e6:	429a      	cmp	r2, r3
    15e8:	d001      	beq.n	15ee <TEE_StartPersistentObjectEnumerator+0x1e>
/mnt/disk/raspbian-tee/optee_os/lib/libutee/tee_api_objects.c:601
    15ea:	f006 fa88 	bl	7afe <TEE_Panic>
/mnt/disk/raspbian-tee/optee_os/lib/libutee/tee_api_objects.c:604
    15ee:	4620      	mov	r0, r4
    15f0:	bd10      	pop	{r4, pc}
    15f2:	bf00      	nop
    15f4:	ffff0008 	.word	0xffff0008
    15f8:	f0100001 	.word	0xf0100001

000015fc <TEE_GetNextPersistentObject>:
TEE_GetNextPersistentObject():
/mnt/disk/raspbian-tee/optee_os/lib/libutee/tee_api_objects.c:609
    15fc:	b510      	push	{r4, lr}
    15fe:	461c      	mov	r4, r3
    1600:	b08a      	sub	sp, #40	; 0x28
/mnt/disk/raspbian-tee/optee_os/lib/libutee/tee_api_objects.c:615
    1602:	b1e2      	cbz	r2, 163e <TEE_GetNextPersistentObject+0x42>
/mnt/disk/raspbian-tee/optee_os/lib/libutee/tee_api_objects.c:620
    1604:	b1db      	cbz	r3, 163e <TEE_GetNextPersistentObject+0x42>
/mnt/disk/raspbian-tee/optee_os/lib/libutee/tee_api_objects.c:625
    1606:	b901      	cbnz	r1, 160a <TEE_GetNextPersistentObject+0xe>
/mnt/disk/raspbian-tee/optee_os/lib/libutee/tee_api_objects.c:628
    1608:	a903      	add	r1, sp, #12
/mnt/disk/raspbian-tee/optee_os/lib/libutee/tee_api_objects.c:629
    160a:	6823      	ldr	r3, [r4, #0]
    160c:	9300      	str	r3, [sp, #0]
    160e:	2300      	movs	r3, #0
    1610:	9301      	str	r3, [sp, #4]
/mnt/disk/raspbian-tee/optee_os/lib/libutee/tee_api_objects.c:630
    1612:	466b      	mov	r3, sp
    1614:	f001 eeb6 	blx	3384 <utee_storage_next_enum>
/mnt/disk/raspbian-tee/optee_os/lib/libutee/tee_api_objects.c:632
    1618:	9b00      	ldr	r3, [sp, #0]
    161a:	6023      	str	r3, [r4, #0]
/mnt/disk/raspbian-tee/optee_os/lib/libutee/tee_api_objects.c:635
    161c:	4604      	mov	r4, r0
    161e:	b158      	cbz	r0, 1638 <TEE_GetNextPersistentObject+0x3c>
/mnt/disk/raspbian-tee/optee_os/lib/libutee/tee_api_objects.c:635 (discriminator 1)
    1620:	4b08      	ldr	r3, [pc, #32]	; (1644 <TEE_GetNextPersistentObject+0x48>)
    1622:	4298      	cmp	r0, r3
    1624:	d008      	beq.n	1638 <TEE_GetNextPersistentObject+0x3c>
/mnt/disk/raspbian-tee/optee_os/lib/libutee/tee_api_objects.c:636
    1626:	4b08      	ldr	r3, [pc, #32]	; (1648 <TEE_GetNextPersistentObject+0x4c>)
    1628:	4298      	cmp	r0, r3
    162a:	d005      	beq.n	1638 <TEE_GetNextPersistentObject+0x3c>
/mnt/disk/raspbian-tee/optee_os/lib/libutee/tee_api_objects.c:637
    162c:	3302      	adds	r3, #2
    162e:	4298      	cmp	r0, r3
    1630:	d002      	beq.n	1638 <TEE_GetNextPersistentObject+0x3c>
/mnt/disk/raspbian-tee/optee_os/lib/libutee/tee_api_objects.c:639
    1632:	4620      	mov	r0, r4
    1634:	f006 fa63 	bl	7afe <TEE_Panic>
/mnt/disk/raspbian-tee/optee_os/lib/libutee/tee_api_objects.c:642
    1638:	4620      	mov	r0, r4
    163a:	b00a      	add	sp, #40	; 0x28
    163c:	bd10      	pop	{r4, pc}
    163e:	4c03      	ldr	r4, [pc, #12]	; (164c <TEE_GetNextPersistentObject+0x50>)
    1640:	e7f7      	b.n	1632 <TEE_GetNextPersistentObject+0x36>
    1642:	bf00      	nop
    1644:	ffff0008 	.word	0xffff0008
    1648:	f0100001 	.word	0xf0100001
    164c:	ffff0006 	.word	0xffff0006

00001650 <TEE_ReadObjectData>:
TEE_ReadObjectData():
/mnt/disk/raspbian-tee/optee_os/lib/libutee/tee_api_objects.c:648
    1650:	b513      	push	{r0, r1, r4, lr}
    1652:	461c      	mov	r4, r3
/mnt/disk/raspbian-tee/optee_os/lib/libutee/tee_api_objects.c:652
    1654:	b1b0      	cbz	r0, 1684 <TEE_ReadObjectData+0x34>
/mnt/disk/raspbian-tee/optee_os/lib/libutee/tee_api_objects.c:657
    1656:	681b      	ldr	r3, [r3, #0]
    1658:	9300      	str	r3, [sp, #0]
    165a:	2300      	movs	r3, #0
    165c:	9301      	str	r3, [sp, #4]
/mnt/disk/raspbian-tee/optee_os/lib/libutee/tee_api_objects.c:658
    165e:	466b      	mov	r3, sp
    1660:	f001 ee9a 	blx	3398 <utee_storage_obj_read>
/mnt/disk/raspbian-tee/optee_os/lib/libutee/tee_api_objects.c:660
    1664:	9b00      	ldr	r3, [sp, #0]
    1666:	6023      	str	r3, [r4, #0]
/mnt/disk/raspbian-tee/optee_os/lib/libutee/tee_api_objects.c:663
    1668:	4604      	mov	r4, r0
    166a:	b140      	cbz	r0, 167e <TEE_ReadObjectData+0x2e>
/mnt/disk/raspbian-tee/optee_os/lib/libutee/tee_api_objects.c:663 (discriminator 1)
    166c:	4b06      	ldr	r3, [pc, #24]	; (1688 <TEE_ReadObjectData+0x38>)
    166e:	4298      	cmp	r0, r3
    1670:	d005      	beq.n	167e <TEE_ReadObjectData+0x2e>
/mnt/disk/raspbian-tee/optee_os/lib/libutee/tee_api_objects.c:664
    1672:	3302      	adds	r3, #2
    1674:	4298      	cmp	r0, r3
    1676:	d002      	beq.n	167e <TEE_ReadObjectData+0x2e>
/mnt/disk/raspbian-tee/optee_os/lib/libutee/tee_api_objects.c:666
    1678:	4620      	mov	r0, r4
    167a:	f006 fa40 	bl	7afe <TEE_Panic>
/mnt/disk/raspbian-tee/optee_os/lib/libutee/tee_api_objects.c:669
    167e:	4620      	mov	r0, r4
    1680:	b002      	add	sp, #8
    1682:	bd10      	pop	{r4, pc}
/mnt/disk/raspbian-tee/optee_os/lib/libutee/tee_api_objects.c:653
    1684:	4c01      	ldr	r4, [pc, #4]	; (168c <TEE_ReadObjectData+0x3c>)
    1686:	e7f7      	b.n	1678 <TEE_ReadObjectData+0x28>
    1688:	f0100001 	.word	0xf0100001
    168c:	ffff0006 	.word	0xffff0006

00001690 <TEE_WriteObjectData>:
TEE_WriteObjectData():
/mnt/disk/raspbian-tee/optee_os/lib/libutee/tee_api_objects.c:673
    1690:	b510      	push	{r4, lr}
/mnt/disk/raspbian-tee/optee_os/lib/libutee/tee_api_objects.c:676
    1692:	b1a0      	cbz	r0, 16be <TEE_WriteObjectData+0x2e>
/mnt/disk/raspbian-tee/optee_os/lib/libutee/tee_api_objects.c:686
    1694:	f001 ee8a 	blx	33ac <utee_storage_obj_write>
/mnt/disk/raspbian-tee/optee_os/lib/libutee/tee_api_objects.c:689
    1698:	4604      	mov	r4, r0
    169a:	b170      	cbz	r0, 16ba <TEE_WriteObjectData+0x2a>
/mnt/disk/raspbian-tee/optee_os/lib/libutee/tee_api_objects.c:689 (discriminator 1)
    169c:	4b09      	ldr	r3, [pc, #36]	; (16c4 <TEE_WriteObjectData+0x34>)
    169e:	4298      	cmp	r0, r3
    16a0:	d00b      	beq.n	16ba <TEE_WriteObjectData+0x2a>
/mnt/disk/raspbian-tee/optee_os/lib/libutee/tee_api_objects.c:690
    16a2:	3b32      	subs	r3, #50	; 0x32
    16a4:	4298      	cmp	r0, r3
    16a6:	d008      	beq.n	16ba <TEE_WriteObjectData+0x2a>
/mnt/disk/raspbian-tee/optee_os/lib/libutee/tee_api_objects.c:691
    16a8:	4b07      	ldr	r3, [pc, #28]	; (16c8 <TEE_WriteObjectData+0x38>)
    16aa:	4298      	cmp	r0, r3
    16ac:	d005      	beq.n	16ba <TEE_WriteObjectData+0x2a>
/mnt/disk/raspbian-tee/optee_os/lib/libutee/tee_api_objects.c:692
    16ae:	3302      	adds	r3, #2
    16b0:	4298      	cmp	r0, r3
    16b2:	d002      	beq.n	16ba <TEE_WriteObjectData+0x2a>
/mnt/disk/raspbian-tee/optee_os/lib/libutee/tee_api_objects.c:694
    16b4:	4620      	mov	r0, r4
    16b6:	f006 fa22 	bl	7afe <TEE_Panic>
/mnt/disk/raspbian-tee/optee_os/lib/libutee/tee_api_objects.c:697
    16ba:	4620      	mov	r0, r4
    16bc:	bd10      	pop	{r4, pc}
/mnt/disk/raspbian-tee/optee_os/lib/libutee/tee_api_objects.c:677
    16be:	4c03      	ldr	r4, [pc, #12]	; (16cc <TEE_WriteObjectData+0x3c>)
    16c0:	e7f8      	b.n	16b4 <TEE_WriteObjectData+0x24>
    16c2:	bf00      	nop
    16c4:	ffff3041 	.word	0xffff3041
    16c8:	f0100001 	.word	0xf0100001
    16cc:	ffff0006 	.word	0xffff0006

000016d0 <TEE_TruncateObjectData>:
TEE_TruncateObjectData():
/mnt/disk/raspbian-tee/optee_os/lib/libutee/tee_api_objects.c:700
    16d0:	b510      	push	{r4, lr}
/mnt/disk/raspbian-tee/optee_os/lib/libutee/tee_api_objects.c:703
    16d2:	b188      	cbz	r0, 16f8 <TEE_TruncateObjectData+0x28>
/mnt/disk/raspbian-tee/optee_os/lib/libutee/tee_api_objects.c:708
    16d4:	f001 ee74 	blx	33c0 <utee_storage_obj_trunc>
/mnt/disk/raspbian-tee/optee_os/lib/libutee/tee_api_objects.c:711
    16d8:	4604      	mov	r4, r0
    16da:	b158      	cbz	r0, 16f4 <TEE_TruncateObjectData+0x24>
/mnt/disk/raspbian-tee/optee_os/lib/libutee/tee_api_objects.c:711 (discriminator 1)
    16dc:	4b07      	ldr	r3, [pc, #28]	; (16fc <TEE_TruncateObjectData+0x2c>)
    16de:	4298      	cmp	r0, r3
    16e0:	d008      	beq.n	16f4 <TEE_TruncateObjectData+0x24>
/mnt/disk/raspbian-tee/optee_os/lib/libutee/tee_api_objects.c:712
    16e2:	4b07      	ldr	r3, [pc, #28]	; (1700 <TEE_TruncateObjectData+0x30>)
    16e4:	4298      	cmp	r0, r3
    16e6:	d005      	beq.n	16f4 <TEE_TruncateObjectData+0x24>
/mnt/disk/raspbian-tee/optee_os/lib/libutee/tee_api_objects.c:713
    16e8:	3302      	adds	r3, #2
    16ea:	4298      	cmp	r0, r3
    16ec:	d002      	beq.n	16f4 <TEE_TruncateObjectData+0x24>
/mnt/disk/raspbian-tee/optee_os/lib/libutee/tee_api_objects.c:715
    16ee:	4620      	mov	r0, r4
    16f0:	f006 fa05 	bl	7afe <TEE_Panic>
/mnt/disk/raspbian-tee/optee_os/lib/libutee/tee_api_objects.c:718
    16f4:	4620      	mov	r0, r4
    16f6:	bd10      	pop	{r4, pc}
/mnt/disk/raspbian-tee/optee_os/lib/libutee/tee_api_objects.c:704
    16f8:	4c02      	ldr	r4, [pc, #8]	; (1704 <TEE_TruncateObjectData+0x34>)
    16fa:	e7f8      	b.n	16ee <TEE_TruncateObjectData+0x1e>
    16fc:	ffff3041 	.word	0xffff3041
    1700:	f0100001 	.word	0xf0100001
    1704:	ffff0006 	.word	0xffff0006

00001708 <TEE_SeekObjectData>:
TEE_SeekObjectData():
/mnt/disk/raspbian-tee/optee_os/lib/libutee/tee_api_objects.c:722
    1708:	b5f0      	push	{r4, r5, r6, r7, lr}
    170a:	460d      	mov	r5, r1
    170c:	4616      	mov	r6, r2
    170e:	b089      	sub	sp, #36	; 0x24
/mnt/disk/raspbian-tee/optee_os/lib/libutee/tee_api_objects.c:726
    1710:	4607      	mov	r7, r0
    1712:	b368      	cbz	r0, 1770 <TEE_SeekObjectData+0x68>
/mnt/disk/raspbian-tee/optee_os/lib/libutee/tee_api_objects.c:731
    1714:	a901      	add	r1, sp, #4
    1716:	f001 ed2c 	blx	3170 <utee_cryp_obj_get_info>
/mnt/disk/raspbian-tee/optee_os/lib/libutee/tee_api_objects.c:732
    171a:	4604      	mov	r4, r0
    171c:	b9d8      	cbnz	r0, 1756 <TEE_SeekObjectData+0x4e>
/mnt/disk/raspbian-tee/optee_os/lib/libutee/tee_api_objects.c:735
    171e:	2e01      	cmp	r6, #1
    1720:	d004      	beq.n	172c <TEE_SeekObjectData+0x24>
    1722:	d310      	bcc.n	1746 <TEE_SeekObjectData+0x3e>
    1724:	2e02      	cmp	r6, #2
    1726:	d00a      	beq.n	173e <TEE_SeekObjectData+0x36>
/mnt/disk/raspbian-tee/optee_os/lib/libutee/tee_api_objects.c:761
    1728:	4c12      	ldr	r4, [pc, #72]	; (1774 <TEE_SeekObjectData+0x6c>)
    172a:	e017      	b.n	175c <TEE_SeekObjectData+0x54>
/mnt/disk/raspbian-tee/optee_os/lib/libutee/tee_api_objects.c:743
    172c:	2d00      	cmp	r5, #0
    172e:	dd0a      	ble.n	1746 <TEE_SeekObjectData+0x3e>
/mnt/disk/raspbian-tee/optee_os/lib/libutee/tee_api_objects.c:743 (discriminator 1)
    1730:	9b06      	ldr	r3, [sp, #24]
    1732:	42dd      	cmn	r5, r3
    1734:	d307      	bcc.n	1746 <TEE_SeekObjectData+0x3e>
/mnt/disk/raspbian-tee/optee_os/lib/libutee/tee_api_objects.c:727
    1736:	4c10      	ldr	r4, [pc, #64]	; (1778 <TEE_SeekObjectData+0x70>)
/mnt/disk/raspbian-tee/optee_os/lib/libutee/tee_api_objects.c:775
    1738:	4620      	mov	r0, r4
    173a:	b009      	add	sp, #36	; 0x24
    173c:	bdf0      	pop	{r4, r5, r6, r7, pc}
/mnt/disk/raspbian-tee/optee_os/lib/libutee/tee_api_objects.c:753
    173e:	2d00      	cmp	r5, #0
    1740:	dd01      	ble.n	1746 <TEE_SeekObjectData+0x3e>
/mnt/disk/raspbian-tee/optee_os/lib/libutee/tee_api_objects.c:753 (discriminator 1)
    1742:	9b05      	ldr	r3, [sp, #20]
    1744:	e7f5      	b.n	1732 <TEE_SeekObjectData+0x2a>
/mnt/disk/raspbian-tee/optee_os/lib/libutee/tee_api_objects.c:765
    1746:	4632      	mov	r2, r6
    1748:	4629      	mov	r1, r5
    174a:	4638      	mov	r0, r7
    174c:	f001 ee42 	blx	33d4 <utee_storage_obj_seek>
/mnt/disk/raspbian-tee/optee_os/lib/libutee/tee_api_objects.c:768
    1750:	4604      	mov	r4, r0
    1752:	2800      	cmp	r0, #0
    1754:	d0f0      	beq.n	1738 <TEE_SeekObjectData+0x30>
/mnt/disk/raspbian-tee/optee_os/lib/libutee/tee_api_objects.c:768 (discriminator 1)
    1756:	4b08      	ldr	r3, [pc, #32]	; (1778 <TEE_SeekObjectData+0x70>)
    1758:	429c      	cmp	r4, r3
    175a:	d0ec      	beq.n	1736 <TEE_SeekObjectData+0x2e>
/mnt/disk/raspbian-tee/optee_os/lib/libutee/tee_api_objects.c:769
    175c:	4b07      	ldr	r3, [pc, #28]	; (177c <TEE_SeekObjectData+0x74>)
    175e:	429c      	cmp	r4, r3
    1760:	d0ea      	beq.n	1738 <TEE_SeekObjectData+0x30>
/mnt/disk/raspbian-tee/optee_os/lib/libutee/tee_api_objects.c:770
    1762:	3302      	adds	r3, #2
    1764:	429c      	cmp	r4, r3
    1766:	d0e7      	beq.n	1738 <TEE_SeekObjectData+0x30>
/mnt/disk/raspbian-tee/optee_os/lib/libutee/tee_api_objects.c:772
    1768:	4620      	mov	r0, r4
    176a:	f006 f9c8 	bl	7afe <TEE_Panic>
/mnt/disk/raspbian-tee/optee_os/lib/libutee/tee_api_objects.c:774
    176e:	e7e3      	b.n	1738 <TEE_SeekObjectData+0x30>
/mnt/disk/raspbian-tee/optee_os/lib/libutee/tee_api_objects.c:727
    1770:	4c03      	ldr	r4, [pc, #12]	; (1780 <TEE_SeekObjectData+0x78>)
    1772:	e7f9      	b.n	1768 <TEE_SeekObjectData+0x60>
    1774:	ffff0008 	.word	0xffff0008
    1778:	ffff300f 	.word	0xffff300f
    177c:	f0100001 	.word	0xf0100001
    1780:	ffff0006 	.word	0xffff0006

00001784 <tee_buffer_update>:
tee_buffer_update():
/mnt/disk/raspbian-tee/optee_os/lib/libutee/tee_api_operations.c:852
    1784:	e92d 4ff0 	stmdb	sp!, {r4, r5, r6, r7, r8, r9, sl, fp, lr}
    1788:	461f      	mov	r7, r3
    178a:	4604      	mov	r4, r0
    178c:	b087      	sub	sp, #28
    178e:	468b      	mov	fp, r1
/mnt/disk/raspbian-tee/optee_os/lib/libutee/tee_api_operations.c:864
    1790:	4692      	mov	sl, r2
/mnt/disk/raspbian-tee/optee_os/lib/libutee/tee_api_operations.c:857
    1792:	9b11      	ldr	r3, [sp, #68]	; 0x44
/mnt/disk/raspbian-tee/optee_os/lib/libutee/tee_api_operations.c:852
    1794:	f8dd 8040 	ldr.w	r8, [sp, #64]	; 0x40
/mnt/disk/raspbian-tee/optee_os/lib/libutee/tee_api_operations.c:857
    1798:	e9d3 0100 	ldrd	r0, r1, [r3]
    179c:	e9cd 0102 	strd	r0, r1, [sp, #8]
/mnt/disk/raspbian-tee/optee_os/lib/libutee/tee_api_operations.c:864
    17a0:	b962      	cbnz	r2, 17bc <tee_buffer_update+0x38>
/mnt/disk/raspbian-tee/optee_os/lib/libutee/tee_api_operations.c:865
    17a2:	b93f      	cbnz	r7, 17b4 <tee_buffer_update+0x30>
/mnt/disk/raspbian-tee/optee_os/lib/libutee/tee_api_operations.c:858
    17a4:	2500      	movs	r5, #0
/mnt/disk/raspbian-tee/optee_os/lib/libutee/tee_api_operations.c:940
    17a6:	9b11      	ldr	r3, [sp, #68]	; 0x44
    17a8:	2000      	movs	r0, #0
    17aa:	601d      	str	r5, [r3, #0]
    17ac:	6058      	str	r0, [r3, #4]
/mnt/disk/raspbian-tee/optee_os/lib/libutee/tee_api_operations.c:942
    17ae:	b007      	add	sp, #28
    17b0:	e8bd 8ff0 	ldmia.w	sp!, {r4, r5, r6, r7, r8, r9, sl, fp, pc}
/mnt/disk/raspbian-tee/optee_os/lib/libutee/tee_api_operations.c:866
    17b4:	4610      	mov	r0, r2
    17b6:	f006 f9a2 	bl	7afe <TEE_Panic>
    17ba:	e7f3      	b.n	17a4 <tee_buffer_update+0x20>
/mnt/disk/raspbian-tee/optee_os/lib/libutee/tee_api_operations.c:870
    17bc:	f894 3030 	ldrb.w	r3, [r4, #48]	; 0x30
    17c0:	6b65      	ldr	r5, [r4, #52]	; 0x34
    17c2:	2b00      	cmp	r3, #0
    17c4:	d05b      	beq.n	187e <tee_buffer_update+0xfa>
/mnt/disk/raspbian-tee/optee_os/lib/libutee/tee_api_operations.c:871
    17c6:	006e      	lsls	r6, r5, #1
/mnt/disk/raspbian-tee/optee_os/lib/libutee/tee_api_operations.c:872
    17c8:	f04f 0901 	mov.w	r9, #1
/mnt/disk/raspbian-tee/optee_os/lib/libutee/tee_api_operations.c:878
    17cc:	6ba0      	ldr	r0, [r4, #56]	; 0x38
    17ce:	b1c8      	cbz	r0, 1804 <tee_buffer_update+0x80>
/mnt/disk/raspbian-tee/optee_os/lib/libutee/tee_api_operations.c:880
    17d0:	42a8      	cmp	r0, r5
/mnt/disk/raspbian-tee/optee_os/lib/libutee/tee_api_operations.c:884
    17d2:	6ae3      	ldr	r3, [r4, #44]	; 0x2c
/mnt/disk/raspbian-tee/optee_os/lib/libutee/tee_api_operations.c:883
    17d4:	bf28      	it	cs
    17d6:	1a35      	subcs	r5, r6, r0
/mnt/disk/raspbian-tee/optee_os/lib/libutee/tee_api_operations.c:881
    17d8:	bf38      	it	cc
    17da:	1a2d      	subcc	r5, r5, r0
/mnt/disk/raspbian-tee/optee_os/lib/libutee/tee_api_operations.c:883
    17dc:	42bd      	cmp	r5, r7
/mnt/disk/raspbian-tee/optee_os/lib/libutee/tee_api_operations.c:884
    17de:	4651      	mov	r1, sl
/mnt/disk/raspbian-tee/optee_os/lib/libutee/tee_api_operations.c:883
    17e0:	bf28      	it	cs
    17e2:	463d      	movcs	r5, r7
/mnt/disk/raspbian-tee/optee_os/lib/libutee/tee_api_operations.c:884
    17e4:	4418      	add	r0, r3
    17e6:	462a      	mov	r2, r5
    17e8:	f006 f9b0 	bl	7b4c <memcpy>
/mnt/disk/raspbian-tee/optee_os/lib/libutee/tee_api_operations.c:885
    17ec:	6ba3      	ldr	r3, [r4, #56]	; 0x38
/mnt/disk/raspbian-tee/optee_os/lib/libutee/tee_api_operations.c:888
    17ee:	6b61      	ldr	r1, [r4, #52]	; 0x34
/mnt/disk/raspbian-tee/optee_os/lib/libutee/tee_api_operations.c:885
    17f0:	442b      	add	r3, r5
    17f2:	63a3      	str	r3, [r4, #56]	; 0x38
/mnt/disk/raspbian-tee/optee_os/lib/libutee/tee_api_operations.c:888
    17f4:	fbb3 f2f1 	udiv	r2, r3, r1
    17f8:	fb01 3312 	mls	r3, r1, r2, r3
    17fc:	2b00      	cmp	r3, #0
    17fe:	d1d1      	bne.n	17a4 <tee_buffer_update+0x20>
/mnt/disk/raspbian-tee/optee_os/lib/libutee/tee_api_operations.c:886
    1800:	44aa      	add	sl, r5
/mnt/disk/raspbian-tee/optee_os/lib/libutee/tee_api_operations.c:887
    1802:	1b7f      	subs	r7, r7, r5
/mnt/disk/raspbian-tee/optee_os/lib/libutee/tee_api_operations.c:893
    1804:	6ba5      	ldr	r5, [r4, #56]	; 0x38
/mnt/disk/raspbian-tee/optee_os/lib/libutee/tee_api_operations.c:857
    1806:	9902      	ldr	r1, [sp, #8]
/mnt/disk/raspbian-tee/optee_os/lib/libutee/tee_api_operations.c:893
    1808:	2d00      	cmp	r5, #0
    180a:	d03c      	beq.n	1886 <tee_buffer_update+0x102>
/mnt/disk/raspbian-tee/optee_os/lib/libutee/tee_api_operations.c:894 (discriminator 1)
    180c:	1978      	adds	r0, r7, r5
    180e:	eb06 0309 	add.w	r3, r6, r9
/mnt/disk/raspbian-tee/optee_os/lib/libutee/tee_api_operations.c:893 (discriminator 1)
    1812:	4298      	cmp	r0, r3
    1814:	d336      	bcc.n	1884 <tee_buffer_update+0x100>
/mnt/disk/raspbian-tee/optee_os/lib/libutee/tee_api_operations.c:895
    1816:	6b62      	ldr	r2, [r4, #52]	; 0x34
    1818:	1e53      	subs	r3, r2, #1
    181a:	4252      	negs	r2, r2
    181c:	1b9b      	subs	r3, r3, r6
    181e:	4403      	add	r3, r0
    1820:	4013      	ands	r3, r2
/mnt/disk/raspbian-tee/optee_os/lib/libutee/tee_api_operations.c:897
    1822:	429d      	cmp	r5, r3
    1824:	bf28      	it	cs
    1826:	461d      	movcs	r5, r3
/mnt/disk/raspbian-tee/optee_os/lib/libutee/tee_api_operations.c:898
    1828:	ab06      	add	r3, sp, #24
    182a:	e9dd 0102 	ldrd	r0, r1, [sp, #8]
    182e:	2100      	movs	r1, #0
    1830:	e963 0102 	strd	r0, r1, [r3, #-8]!
/mnt/disk/raspbian-tee/optee_os/lib/libutee/tee_api_operations.c:899
    1834:	462a      	mov	r2, r5
    1836:	6ae1      	ldr	r1, [r4, #44]	; 0x2c
    1838:	9300      	str	r3, [sp, #0]
    183a:	4643      	mov	r3, r8
    183c:	6be0      	ldr	r0, [r4, #60]	; 0x3c
    183e:	47d8      	blx	fp
/mnt/disk/raspbian-tee/optee_os/lib/libutee/tee_api_operations.c:900
    1840:	b108      	cbz	r0, 1846 <tee_buffer_update+0xc2>
/mnt/disk/raspbian-tee/optee_os/lib/libutee/tee_api_operations.c:901
    1842:	f006 f95c 	bl	7afe <TEE_Panic>
/mnt/disk/raspbian-tee/optee_os/lib/libutee/tee_api_operations.c:902
    1846:	9b04      	ldr	r3, [sp, #16]
/mnt/disk/raspbian-tee/optee_os/lib/libutee/tee_api_operations.c:903
    1848:	9a02      	ldr	r2, [sp, #8]
/mnt/disk/raspbian-tee/optee_os/lib/libutee/tee_api_operations.c:902
    184a:	4498      	add	r8, r3
/mnt/disk/raspbian-tee/optee_os/lib/libutee/tee_api_operations.c:903
    184c:	1ad1      	subs	r1, r2, r3
/mnt/disk/raspbian-tee/optee_os/lib/libutee/tee_api_operations.c:905
    184e:	6ba2      	ldr	r2, [r4, #56]	; 0x38
    1850:	1b52      	subs	r2, r2, r5
    1852:	63a2      	str	r2, [r4, #56]	; 0x38
/mnt/disk/raspbian-tee/optee_os/lib/libutee/tee_api_operations.c:906
    1854:	2a00      	cmp	r2, #0
    1856:	d03f      	beq.n	18d8 <tee_buffer_update+0x154>
/mnt/disk/raspbian-tee/optee_os/lib/libutee/tee_api_operations.c:910
    1858:	6ae0      	ldr	r0, [r4, #44]	; 0x2c
    185a:	1b72      	subs	r2, r6, r5
    185c:	9302      	str	r3, [sp, #8]
    185e:	1941      	adds	r1, r0, r5
    1860:	f006 f974 	bl	7b4c <memcpy>
/mnt/disk/raspbian-tee/optee_os/lib/libutee/tee_api_operations.c:911
    1864:	6ae5      	ldr	r5, [r4, #44]	; 0x2c
    1866:	6ba0      	ldr	r0, [r4, #56]	; 0x38
    1868:	463a      	mov	r2, r7
    186a:	4651      	mov	r1, sl
    186c:	4428      	add	r0, r5
    186e:	f006 f96d 	bl	7b4c <memcpy>
/mnt/disk/raspbian-tee/optee_os/lib/libutee/tee_api_operations.c:912
    1872:	6ba2      	ldr	r2, [r4, #56]	; 0x38
/mnt/disk/raspbian-tee/optee_os/lib/libutee/tee_api_operations.c:904
    1874:	9b02      	ldr	r3, [sp, #8]
/mnt/disk/raspbian-tee/optee_os/lib/libutee/tee_api_operations.c:912
    1876:	4417      	add	r7, r2
    1878:	63a7      	str	r7, [r4, #56]	; 0x38
/mnt/disk/raspbian-tee/optee_os/lib/libutee/tee_api_operations.c:904
    187a:	461d      	mov	r5, r3
/mnt/disk/raspbian-tee/optee_os/lib/libutee/tee_api_operations.c:913
    187c:	e793      	b.n	17a6 <tee_buffer_update+0x22>
/mnt/disk/raspbian-tee/optee_os/lib/libutee/tee_api_operations.c:874
    187e:	462e      	mov	r6, r5
/mnt/disk/raspbian-tee/optee_os/lib/libutee/tee_api_operations.c:875
    1880:	4699      	mov	r9, r3
    1882:	e7a3      	b.n	17cc <tee_buffer_update+0x48>
/mnt/disk/raspbian-tee/optee_os/lib/libutee/tee_api_operations.c:858
    1884:	2500      	movs	r5, #0
/mnt/disk/raspbian-tee/optee_os/lib/libutee/tee_api_operations.c:917
    1886:	44b1      	add	r9, r6
    1888:	454f      	cmp	r7, r9
    188a:	d31a      	bcc.n	18c2 <tee_buffer_update+0x13e>
/mnt/disk/raspbian-tee/optee_os/lib/libutee/tee_api_operations.c:919
    188c:	6822      	ldr	r2, [r4, #0]
    188e:	4b14      	ldr	r3, [pc, #80]	; (18e0 <tee_buffer_update+0x15c>)
    1890:	429a      	cmp	r2, r3
    1892:	6b62      	ldr	r2, [r4, #52]	; 0x34
    1894:	d122      	bne.n	18dc <tee_buffer_update+0x158>
/mnt/disk/raspbian-tee/optee_os/lib/libutee/tee_api_operations.c:920
    1896:	1e53      	subs	r3, r2, #1
    1898:	1b9e      	subs	r6, r3, r6
/mnt/disk/raspbian-tee/optee_os/lib/libutee/tee_api_operations.c:922
    189a:	4252      	negs	r2, r2
    189c:	443e      	add	r6, r7
    189e:	4016      	ands	r6, r2
/mnt/disk/raspbian-tee/optee_os/lib/libutee/tee_api_operations.c:924
    18a0:	2300      	movs	r3, #0
    18a2:	9104      	str	r1, [sp, #16]
/mnt/disk/raspbian-tee/optee_os/lib/libutee/tee_api_operations.c:925
    18a4:	4632      	mov	r2, r6
/mnt/disk/raspbian-tee/optee_os/lib/libutee/tee_api_operations.c:924
    18a6:	9305      	str	r3, [sp, #20]
/mnt/disk/raspbian-tee/optee_os/lib/libutee/tee_api_operations.c:925
    18a8:	4651      	mov	r1, sl
    18aa:	ab04      	add	r3, sp, #16
    18ac:	6be0      	ldr	r0, [r4, #60]	; 0x3c
    18ae:	9300      	str	r3, [sp, #0]
    18b0:	4643      	mov	r3, r8
    18b2:	47d8      	blx	fp
/mnt/disk/raspbian-tee/optee_os/lib/libutee/tee_api_operations.c:926
    18b4:	b108      	cbz	r0, 18ba <tee_buffer_update+0x136>
/mnt/disk/raspbian-tee/optee_os/lib/libutee/tee_api_operations.c:927
    18b6:	f006 f922 	bl	7afe <TEE_Panic>
/mnt/disk/raspbian-tee/optee_os/lib/libutee/tee_api_operations.c:932
    18ba:	9b04      	ldr	r3, [sp, #16]
/mnt/disk/raspbian-tee/optee_os/lib/libutee/tee_api_operations.c:928
    18bc:	44b2      	add	sl, r6
/mnt/disk/raspbian-tee/optee_os/lib/libutee/tee_api_operations.c:929
    18be:	1bbf      	subs	r7, r7, r6
/mnt/disk/raspbian-tee/optee_os/lib/libutee/tee_api_operations.c:932
    18c0:	441d      	add	r5, r3
/mnt/disk/raspbian-tee/optee_os/lib/libutee/tee_api_operations.c:936
    18c2:	6ba3      	ldr	r3, [r4, #56]	; 0x38
    18c4:	463a      	mov	r2, r7
    18c6:	6ae0      	ldr	r0, [r4, #44]	; 0x2c
    18c8:	4651      	mov	r1, sl
    18ca:	4418      	add	r0, r3
    18cc:	f006 f93e 	bl	7b4c <memcpy>
/mnt/disk/raspbian-tee/optee_os/lib/libutee/tee_api_operations.c:937
    18d0:	6ba3      	ldr	r3, [r4, #56]	; 0x38
    18d2:	441f      	add	r7, r3
    18d4:	63a7      	str	r7, [r4, #56]	; 0x38
    18d6:	e766      	b.n	17a6 <tee_buffer_update+0x22>
/mnt/disk/raspbian-tee/optee_os/lib/libutee/tee_api_operations.c:904
    18d8:	461d      	mov	r5, r3
    18da:	e7d4      	b.n	1886 <tee_buffer_update+0x102>
/mnt/disk/raspbian-tee/optee_os/lib/libutee/tee_api_operations.c:922
    18dc:	1b96      	subs	r6, r2, r6
    18de:	e7dc      	b.n	189a <tee_buffer_update+0x116>
    18e0:	10000310 	.word	0x10000310

000018e4 <TEE_FreeOperation>:
TEE_FreeOperation():
/mnt/disk/raspbian-tee/optee_os/lib/libutee/tee_api_operations.c:351
    18e4:	b510      	push	{r4, lr}
/mnt/disk/raspbian-tee/optee_os/lib/libutee/tee_api_operations.c:354
    18e6:	4604      	mov	r4, r0
    18e8:	b908      	cbnz	r0, 18ee <TEE_FreeOperation+0xa>
/mnt/disk/raspbian-tee/optee_os/lib/libutee/tee_api_operations.c:355
    18ea:	f006 f908 	bl	7afe <TEE_Panic>
/mnt/disk/raspbian-tee/optee_os/lib/libutee/tee_api_operations.c:362
    18ee:	6be0      	ldr	r0, [r4, #60]	; 0x3c
    18f0:	f001 ebf2 	blx	30d8 <utee_cryp_state_free>
/mnt/disk/raspbian-tee/optee_os/lib/libutee/tee_api_operations.c:363
    18f4:	b108      	cbz	r0, 18fa <TEE_FreeOperation+0x16>
/mnt/disk/raspbian-tee/optee_os/lib/libutee/tee_api_operations.c:364
    18f6:	f006 f902 	bl	7afe <TEE_Panic>
/mnt/disk/raspbian-tee/optee_os/lib/libutee/tee_api_operations.c:366
    18fa:	6ae0      	ldr	r0, [r4, #44]	; 0x2c
    18fc:	f7ff fb70 	bl	fe0 <TEE_Free>
/mnt/disk/raspbian-tee/optee_os/lib/libutee/tee_api_operations.c:367
    1900:	4620      	mov	r0, r4
/mnt/disk/raspbian-tee/optee_os/lib/libutee/tee_api_operations.c:368
    1902:	e8bd 4010 	ldmia.w	sp!, {r4, lr}
/mnt/disk/raspbian-tee/optee_os/lib/libutee/tee_api_operations.c:367
    1906:	f7ff bb6b 	b.w	fe0 <TEE_Free>

0000190a <TEE_AllocateOperation>:
TEE_AllocateOperation():
/mnt/disk/raspbian-tee/optee_os/lib/libutee/tee_api_operations.c:37
    190a:	e92d 4ff0 	stmdb	sp!, {r4, r5, r6, r7, r8, r9, sl, fp, lr}
    190e:	460c      	mov	r4, r1
    1910:	4617      	mov	r7, r2
    1912:	b087      	sub	sp, #28
    1914:	4699      	mov	r9, r3
/mnt/disk/raspbian-tee/optee_os/lib/libutee/tee_api_operations.c:46
    1916:	9003      	str	r0, [sp, #12]
    1918:	b908      	cbnz	r0, 191e <TEE_AllocateOperation+0x14>
/mnt/disk/raspbian-tee/optee_os/lib/libutee/tee_api_operations.c:47
    191a:	f006 f8f0 	bl	7afe <TEE_Panic>
/mnt/disk/raspbian-tee/optee_os/lib/libutee/tee_api_operations.c:49
    191e:	4bba      	ldr	r3, [pc, #744]	; (1c08 <TEE_AllocateOperation+0x2fe>)
    1920:	429c      	cmp	r4, r3
    1922:	f000 81b6 	beq.w	1c92 <TEE_AllocateOperation+0x388>
/mnt/disk/raspbian-tee/optee_os/lib/libutee/tee_api_operations.c:53
    1926:	4bb9      	ldr	r3, [pc, #740]	; (1c0c <TEE_AllocateOperation+0x302>)
    1928:	429c      	cmp	r4, r3
    192a:	d06e      	beq.n	1a0a <TEE_AllocateOperation+0x100>
    192c:	d83f      	bhi.n	19ae <TEE_AllocateOperation+0xa4>
    192e:	4ab8      	ldr	r2, [pc, #736]	; (1c10 <TEE_AllocateOperation+0x306>)
    1930:	4294      	cmp	r4, r2
    1932:	d055      	beq.n	19e0 <TEE_AllocateOperation+0xd6>
    1934:	d82d      	bhi.n	1992 <TEE_AllocateOperation+0x88>
    1936:	f5a2 5287 	sub.w	r2, r2, #4320	; 0x10e0
    193a:	3a10      	subs	r2, #16
    193c:	4294      	cmp	r4, r2
    193e:	d040      	beq.n	19c2 <TEE_AllocateOperation+0xb8>
    1940:	f502 5280 	add.w	r2, r2, #4096	; 0x1000
    1944:	4294      	cmp	r4, r2
    1946:	d065      	beq.n	1a14 <TEE_AllocateOperation+0x10a>
/mnt/disk/raspbian-tee/optee_os/lib/libutee/tee_api_operations.c:108
    1948:	4ab2      	ldr	r2, [pc, #712]	; (1c14 <TEE_AllocateOperation+0x30a>)
    194a:	4294      	cmp	r4, r2
    194c:	d050      	beq.n	19f0 <TEE_AllocateOperation+0xe6>
    194e:	f200 80d8 	bhi.w	1b02 <TEE_AllocateOperation+0x1f8>
    1952:	4bb1      	ldr	r3, [pc, #708]	; (1c18 <TEE_AllocateOperation+0x30e>)
    1954:	429c      	cmp	r4, r3
    1956:	d07d      	beq.n	1a54 <TEE_AllocateOperation+0x14a>
    1958:	f200 808e 	bhi.w	1a78 <TEE_AllocateOperation+0x16e>
    195c:	4baf      	ldr	r3, [pc, #700]	; (1c1c <TEE_AllocateOperation+0x312>)
    195e:	429c      	cmp	r4, r3
    1960:	f000 81a9 	beq.w	1cb6 <TEE_AllocateOperation+0x3ac>
    1964:	d86b      	bhi.n	1a3e <TEE_AllocateOperation+0x134>
    1966:	f46f 71ff 	mvn.w	r1, #510	; 0x1fe
    196a:	440b      	add	r3, r1
    196c:	429c      	cmp	r4, r3
    196e:	d85b      	bhi.n	1a28 <TEE_AllocateOperation+0x11e>
    1970:	3b01      	subs	r3, #1
    1972:	429c      	cmp	r4, r3
    1974:	d209      	bcs.n	198a <TEE_AllocateOperation+0x80>
    1976:	f5a3 7380 	sub.w	r3, r3, #256	; 0x100
    197a:	429c      	cmp	r4, r3
    197c:	d324      	bcc.n	19c8 <TEE_AllocateOperation+0xbe>
    197e:	3301      	adds	r3, #1
    1980:	429c      	cmp	r4, r3
    1982:	d902      	bls.n	198a <TEE_AllocateOperation+0x80>
    1984:	3302      	adds	r3, #2
    1986:	429c      	cmp	r4, r3
    1988:	d11e      	bne.n	19c8 <TEE_AllocateOperation+0xbe>
    198a:	f04f 0800 	mov.w	r8, #0
/mnt/disk/raspbian-tee/optee_os/lib/libutee/tee_api_operations.c:44
    198e:	4646      	mov	r6, r8
    1990:	e182      	b.n	1c98 <TEE_AllocateOperation+0x38e>
/mnt/disk/raspbian-tee/optee_os/lib/libutee/tee_api_operations.c:53
    1992:	4aa3      	ldr	r2, [pc, #652]	; (1c20 <TEE_AllocateOperation+0x316>)
    1994:	4294      	cmp	r4, r2
    1996:	d034      	beq.n	1a02 <TEE_AllocateOperation+0xf8>
    1998:	f502 6271 	add.w	r2, r2, #3856	; 0xf10
    199c:	4294      	cmp	r4, r2
    199e:	d03c      	beq.n	1a1a <TEE_AllocateOperation+0x110>
    19a0:	f5a2 5280 	sub.w	r2, r2, #4096	; 0x1000
    19a4:	4294      	cmp	r4, r2
    19a6:	d1cf      	bne.n	1948 <TEE_AllocateOperation+0x3e>
/mnt/disk/raspbian-tee/optee_os/lib/libutee/tee_api_operations.c:87
    19a8:	f5b9 7f80 	cmp.w	r9, #256	; 0x100
    19ac:	e00b      	b.n	19c6 <TEE_AllocateOperation+0xbc>
/mnt/disk/raspbian-tee/optee_os/lib/libutee/tee_api_operations.c:53
    19ae:	4a9d      	ldr	r2, [pc, #628]	; (1c24 <TEE_AllocateOperation+0x31a>)
    19b0:	4294      	cmp	r4, r2
    19b2:	d02f      	beq.n	1a14 <TEE_AllocateOperation+0x10a>
    19b4:	d80a      	bhi.n	19cc <TEE_AllocateOperation+0xc2>
    19b6:	4a9c      	ldr	r2, [pc, #624]	; (1c28 <TEE_AllocateOperation+0x31e>)
    19b8:	4294      	cmp	r4, r2
    19ba:	d031      	beq.n	1a20 <TEE_AllocateOperation+0x116>
    19bc:	4a9b      	ldr	r2, [pc, #620]	; (1c2c <TEE_AllocateOperation+0x322>)
    19be:	4294      	cmp	r4, r2
    19c0:	d1c2      	bne.n	1948 <TEE_AllocateOperation+0x3e>
/mnt/disk/raspbian-tee/optee_os/lib/libutee/tee_api_operations.c:75
    19c2:	f1b9 0fc0 	cmp.w	r9, #192	; 0xc0
/mnt/disk/raspbian-tee/optee_os/lib/libutee/tee_api_operations.c:99
    19c6:	d0bf      	beq.n	1948 <TEE_AllocateOperation+0x3e>
/mnt/disk/raspbian-tee/optee_os/lib/libutee/tee_api_operations.c:56
    19c8:	4e99      	ldr	r6, [pc, #612]	; (1c30 <TEE_AllocateOperation+0x326>)
    19ca:	e1ca      	b.n	1d62 <TEE_AllocateOperation+0x458>
/mnt/disk/raspbian-tee/optee_os/lib/libutee/tee_api_operations.c:53
    19cc:	4a99      	ldr	r2, [pc, #612]	; (1c34 <TEE_AllocateOperation+0x32a>)
    19ce:	4294      	cmp	r4, r2
    19d0:	d023      	beq.n	1a1a <TEE_AllocateOperation+0x110>
    19d2:	f502 5280 	add.w	r2, r2, #4096	; 0x1000
    19d6:	4294      	cmp	r4, r2
    19d8:	d022      	beq.n	1a20 <TEE_AllocateOperation+0x116>
    19da:	f5a2 5200 	sub.w	r2, r2, #8192	; 0x2000
    19de:	e7e1      	b.n	19a4 <TEE_AllocateOperation+0x9a>
/mnt/disk/raspbian-tee/optee_os/lib/libutee/tee_api_operations.c:55
    19e0:	f5a9 7300 	sub.w	r3, r9, #512	; 0x200
    19e4:	f5b3 7f00 	cmp.w	r3, #512	; 0x200
    19e8:	d8ee      	bhi.n	19c8 <TEE_AllocateOperation+0xbe>
/mnt/disk/raspbian-tee/optee_os/lib/libutee/tee_api_operations.c:59
    19ea:	f019 0f3f 	tst.w	r9, #63	; 0x3f
    19ee:	d1eb      	bne.n	19c8 <TEE_AllocateOperation+0xbe>
/mnt/disk/raspbian-tee/optee_os/lib/libutee/tee_api_operations.c:157
    19f0:	2f02      	cmp	r7, #2
    19f2:	f000 81bd 	beq.w	1d70 <TEE_AllocateOperation+0x466>
/mnt/disk/raspbian-tee/optee_os/lib/libutee/tee_api_operations.c:160
    19f6:	2f03      	cmp	r7, #3
    19f8:	d1e6      	bne.n	19c8 <TEE_AllocateOperation+0xbe>
/mnt/disk/raspbian-tee/optee_os/lib/libutee/tee_api_operations.c:44
    19fa:	2600      	movs	r6, #0
/mnt/disk/raspbian-tee/optee_os/lib/libutee/tee_api_operations.c:161
    19fc:	2220      	movs	r2, #32
/mnt/disk/raspbian-tee/optee_os/lib/libutee/tee_api_operations.c:43
    19fe:	46b2      	mov	sl, r6
    1a00:	e02d      	b.n	1a5e <TEE_AllocateOperation+0x154>
/mnt/disk/raspbian-tee/optee_os/lib/libutee/tee_api_operations.c:64
    1a02:	f5b9 6f00 	cmp.w	r9, #2048	; 0x800
/mnt/disk/raspbian-tee/optee_os/lib/libutee/tee_api_operations.c:108
    1a06:	d1df      	bne.n	19c8 <TEE_AllocateOperation+0xbe>
    1a08:	e7f2      	b.n	19f0 <TEE_AllocateOperation+0xe6>
/mnt/disk/raspbian-tee/optee_os/lib/libutee/tee_api_operations.c:69
    1a0a:	f429 6380 	bic.w	r3, r9, #1024	; 0x400
    1a0e:	f5b3 6f00 	cmp.w	r3, #2048	; 0x800
    1a12:	e7f8      	b.n	1a06 <TEE_AllocateOperation+0xfc>
/mnt/disk/raspbian-tee/optee_os/lib/libutee/tee_api_operations.c:81
    1a14:	f1b9 0fe0 	cmp.w	r9, #224	; 0xe0
    1a18:	e7d5      	b.n	19c6 <TEE_AllocateOperation+0xbc>
/mnt/disk/raspbian-tee/optee_os/lib/libutee/tee_api_operations.c:93
    1a1a:	f5b9 7fc0 	cmp.w	r9, #384	; 0x180
    1a1e:	e7d2      	b.n	19c6 <TEE_AllocateOperation+0xbc>
/mnt/disk/raspbian-tee/optee_os/lib/libutee/tee_api_operations.c:99
    1a20:	f240 2209 	movw	r2, #521	; 0x209
    1a24:	4591      	cmp	r9, r2
    1a26:	e7ce      	b.n	19c6 <TEE_AllocateOperation+0xbc>
/mnt/disk/raspbian-tee/optee_os/lib/libutee/tee_api_operations.c:108
    1a28:	4b83      	ldr	r3, [pc, #524]	; (1c38 <TEE_AllocateOperation+0x32e>)
    1a2a:	429c      	cmp	r4, r3
    1a2c:	d0ad      	beq.n	198a <TEE_AllocateOperation+0x80>
    1a2e:	33fd      	adds	r3, #253	; 0xfd
    1a30:	429c      	cmp	r4, r3
    1a32:	d1c9      	bne.n	19c8 <TEE_AllocateOperation+0xbe>
    1a34:	f04f 0800 	mov.w	r8, #0
/mnt/disk/raspbian-tee/optee_os/lib/libutee/tee_api_operations.c:41
    1a38:	2301      	movs	r3, #1
/mnt/disk/raspbian-tee/optee_os/lib/libutee/tee_api_operations.c:44
    1a3a:	4646      	mov	r6, r8
    1a3c:	e132      	b.n	1ca4 <TEE_AllocateOperation+0x39a>
/mnt/disk/raspbian-tee/optee_os/lib/libutee/tee_api_operations.c:108
    1a3e:	4b7f      	ldr	r3, [pc, #508]	; (1c3c <TEE_AllocateOperation+0x332>)
    1a40:	429c      	cmp	r4, r3
    1a42:	d80f      	bhi.n	1a64 <TEE_AllocateOperation+0x15a>
    1a44:	3b01      	subs	r3, #1
    1a46:	429c      	cmp	r4, r3
    1a48:	d204      	bcs.n	1a54 <TEE_AllocateOperation+0x14a>
    1a4a:	f104 4350 	add.w	r3, r4, #3489660928	; 0xd0000000
    1a4e:	3b01      	subs	r3, #1
    1a50:	2b05      	cmp	r3, #5
    1a52:	d8b9      	bhi.n	19c8 <TEE_AllocateOperation+0xbe>
/mnt/disk/raspbian-tee/optee_os/lib/libutee/tee_api_operations.c:244
    1a54:	2f04      	cmp	r7, #4
    1a56:	d1b7      	bne.n	19c8 <TEE_AllocateOperation+0xbe>
/mnt/disk/raspbian-tee/optee_os/lib/libutee/tee_api_operations.c:44
    1a58:	2600      	movs	r6, #0
/mnt/disk/raspbian-tee/optee_os/lib/libutee/tee_api_operations.c:246
    1a5a:	2208      	movs	r2, #8
/mnt/disk/raspbian-tee/optee_os/lib/libutee/tee_api_operations.c:43
    1a5c:	46b2      	mov	sl, r6
/mnt/disk/raspbian-tee/optee_os/lib/libutee/tee_api_operations.c:41
    1a5e:	2301      	movs	r3, #1
    1a60:	46b0      	mov	r8, r6
    1a62:	e13e      	b.n	1ce2 <TEE_AllocateOperation+0x3d8>
/mnt/disk/raspbian-tee/optee_os/lib/libutee/tee_api_operations.c:108
    1a64:	4b76      	ldr	r3, [pc, #472]	; (1c40 <TEE_AllocateOperation+0x336>)
    1a66:	429c      	cmp	r4, r3
    1a68:	d0f4      	beq.n	1a54 <TEE_AllocateOperation+0x14a>
    1a6a:	d3ad      	bcc.n	19c8 <TEE_AllocateOperation+0xbe>
    1a6c:	f104 4350 	add.w	r3, r4, #3489660928	; 0xd0000000
    1a70:	f5a3 63a2 	sub.w	r3, r3, #1296	; 0x510
    1a74:	2b01      	cmp	r3, #1
    1a76:	e7ec      	b.n	1a52 <TEE_AllocateOperation+0x148>
    1a78:	4b72      	ldr	r3, [pc, #456]	; (1c44 <TEE_AllocateOperation+0x33a>)
    1a7a:	429c      	cmp	r4, r3
    1a7c:	d01b      	beq.n	1ab6 <TEE_AllocateOperation+0x1ac>
    1a7e:	d823      	bhi.n	1ac8 <TEE_AllocateOperation+0x1be>
    1a80:	4b71      	ldr	r3, [pc, #452]	; (1c48 <TEE_AllocateOperation+0x33e>)
    1a82:	429c      	cmp	r4, r3
    1a84:	d80f      	bhi.n	1aa6 <TEE_AllocateOperation+0x19c>
    1a86:	f1b4 4fa0 	cmp.w	r4, #1342177280	; 0x50000000
    1a8a:	f200 8121 	bhi.w	1cd0 <TEE_AllocateOperation+0x3c6>
    1a8e:	4b6f      	ldr	r3, [pc, #444]	; (1c4c <TEE_AllocateOperation+0x342>)
    1a90:	429c      	cmp	r4, r3
    1a92:	f43f af7a 	beq.w	198a <TEE_AllocateOperation+0x80>
    1a96:	f503 7380 	add.w	r3, r3, #256	; 0x100
    1a9a:	429c      	cmp	r4, r3
    1a9c:	d0ca      	beq.n	1a34 <TEE_AllocateOperation+0x12a>
    1a9e:	4b6c      	ldr	r3, [pc, #432]	; (1c50 <TEE_AllocateOperation+0x346>)
    1aa0:	429c      	cmp	r4, r3
    1aa2:	d191      	bne.n	19c8 <TEE_AllocateOperation+0xbe>
    1aa4:	e7d6      	b.n	1a54 <TEE_AllocateOperation+0x14a>
    1aa6:	4b6b      	ldr	r3, [pc, #428]	; (1c54 <TEE_AllocateOperation+0x34a>)
    1aa8:	429c      	cmp	r4, r3
    1aaa:	f000 8107 	beq.w	1cbc <TEE_AllocateOperation+0x3b2>
    1aae:	f503 7380 	add.w	r3, r3, #256	; 0x100
    1ab2:	429c      	cmp	r4, r3
    1ab4:	d188      	bne.n	19c8 <TEE_AllocateOperation+0xbe>
/mnt/disk/raspbian-tee/optee_os/lib/libutee/tee_api_operations.c:173
    1ab6:	2f00      	cmp	r7, #0
    1ab8:	f000 815f 	beq.w	1d7a <TEE_AllocateOperation+0x470>
/mnt/disk/raspbian-tee/optee_os/lib/libutee/tee_api_operations.c:175
    1abc:	2f01      	cmp	r7, #1
    1abe:	d183      	bne.n	19c8 <TEE_AllocateOperation+0xbe>
/mnt/disk/raspbian-tee/optee_os/lib/libutee/tee_api_operations.c:44
    1ac0:	2600      	movs	r6, #0
/mnt/disk/raspbian-tee/optee_os/lib/libutee/tee_api_operations.c:176
    1ac2:	46ba      	mov	sl, r7
/mnt/disk/raspbian-tee/optee_os/lib/libutee/tee_api_operations.c:177
    1ac4:	2204      	movs	r2, #4
    1ac6:	e7ca      	b.n	1a5e <TEE_AllocateOperation+0x154>
/mnt/disk/raspbian-tee/optee_os/lib/libutee/tee_api_operations.c:108
    1ac8:	4b63      	ldr	r3, [pc, #396]	; (1c58 <TEE_AllocateOperation+0x34e>)
    1aca:	429c      	cmp	r4, r3
    1acc:	d0f3      	beq.n	1ab6 <TEE_AllocateOperation+0x1ac>
    1ace:	d80a      	bhi.n	1ae6 <TEE_AllocateOperation+0x1dc>
    1ad0:	f5a3 1300 	sub.w	r3, r3, #2097152	; 0x200000
    1ad4:	429c      	cmp	r4, r3
    1ad6:	d0ee      	beq.n	1ab6 <TEE_AllocateOperation+0x1ac>
    1ad8:	f503 1380 	add.w	r3, r3, #1048576	; 0x100000
    1adc:	429c      	cmp	r4, r3
    1ade:	d0ea      	beq.n	1ab6 <TEE_AllocateOperation+0x1ac>
    1ae0:	f5a3 1300 	sub.w	r3, r3, #2097152	; 0x200000
    1ae4:	e7e5      	b.n	1ab2 <TEE_AllocateOperation+0x1a8>
    1ae6:	4b5d      	ldr	r3, [pc, #372]	; (1c5c <TEE_AllocateOperation+0x352>)
    1ae8:	429c      	cmp	r4, r3
    1aea:	d081      	beq.n	19f0 <TEE_AllocateOperation+0xe6>
    1aec:	d802      	bhi.n	1af4 <TEE_AllocateOperation+0x1ea>
    1aee:	f2a3 73ef 	subw	r3, r3, #2031	; 0x7ef
    1af2:	e004      	b.n	1afe <TEE_AllocateOperation+0x1f4>
    1af4:	4b5a      	ldr	r3, [pc, #360]	; (1c60 <TEE_AllocateOperation+0x356>)
    1af6:	429c      	cmp	r4, r3
    1af8:	f43f af7a 	beq.w	19f0 <TEE_AllocateOperation+0xe6>
    1afc:	33f0      	adds	r3, #240	; 0xf0
    1afe:	429c      	cmp	r4, r3
    1b00:	e781      	b.n	1a06 <TEE_AllocateOperation+0xfc>
    1b02:	4a4a      	ldr	r2, [pc, #296]	; (1c2c <TEE_AllocateOperation+0x322>)
    1b04:	4294      	cmp	r4, r2
    1b06:	d064      	beq.n	1bd2 <TEE_AllocateOperation+0x2c8>
    1b08:	d843      	bhi.n	1b92 <TEE_AllocateOperation+0x288>
    1b0a:	4a56      	ldr	r2, [pc, #344]	; (1c64 <TEE_AllocateOperation+0x35a>)
    1b0c:	4294      	cmp	r4, r2
    1b0e:	f43f af6f 	beq.w	19f0 <TEE_AllocateOperation+0xe6>
    1b12:	d818      	bhi.n	1b46 <TEE_AllocateOperation+0x23c>
    1b14:	f5a2 52bf 	sub.w	r2, r2, #6112	; 0x17e0
    1b18:	3a0f      	subs	r2, #15
    1b1a:	4294      	cmp	r4, r2
    1b1c:	f43f af68 	beq.w	19f0 <TEE_AllocateOperation+0xe6>
    1b20:	d808      	bhi.n	1b34 <TEE_AllocateOperation+0x22a>
    1b22:	4b3f      	ldr	r3, [pc, #252]	; (1c20 <TEE_AllocateOperation+0x316>)
    1b24:	429c      	cmp	r4, r3
    1b26:	f43f af63 	beq.w	19f0 <TEE_AllocateOperation+0xe6>
    1b2a:	f203 63ff 	addw	r3, r3, #1791	; 0x6ff
    1b2e:	429c      	cmp	r4, r3
    1b30:	d1dd      	bne.n	1aee <TEE_AllocateOperation+0x1e4>
    1b32:	e75d      	b.n	19f0 <TEE_AllocateOperation+0xe6>
    1b34:	4a4c      	ldr	r2, [pc, #304]	; (1c68 <TEE_AllocateOperation+0x35e>)
    1b36:	4294      	cmp	r4, r2
    1b38:	f43f af5a 	beq.w	19f0 <TEE_AllocateOperation+0xe6>
    1b3c:	f602 0211 	addw	r2, r2, #2065	; 0x811
    1b40:	4294      	cmp	r4, r2
    1b42:	d1dc      	bne.n	1afe <TEE_AllocateOperation+0x1f4>
    1b44:	e754      	b.n	19f0 <TEE_AllocateOperation+0xe6>
    1b46:	4b49      	ldr	r3, [pc, #292]	; (1c6c <TEE_AllocateOperation+0x362>)
    1b48:	429c      	cmp	r4, r3
    1b4a:	f43f af51 	beq.w	19f0 <TEE_AllocateOperation+0xe6>
    1b4e:	d812      	bhi.n	1b76 <TEE_AllocateOperation+0x26c>
    1b50:	f5a3 1300 	sub.w	r3, r3, #2097152	; 0x200000
    1b54:	f5a3 5300 	sub.w	r3, r3, #8192	; 0x2000
    1b58:	429c      	cmp	r4, r3
    1b5a:	f43f af49 	beq.w	19f0 <TEE_AllocateOperation+0xe6>
    1b5e:	f503 1380 	add.w	r3, r3, #1048576	; 0x100000
    1b62:	f503 5380 	add.w	r3, r3, #4096	; 0x1000
    1b66:	429c      	cmp	r4, r3
    1b68:	f43f af42 	beq.w	19f0 <TEE_AllocateOperation+0xe6>
    1b6c:	f5a3 1343 	sub.w	r3, r3, #3194880	; 0x30c000
    1b70:	f5a3 5388 	sub.w	r3, r3, #4352	; 0x1100
    1b74:	e7c3      	b.n	1afe <TEE_AllocateOperation+0x1f4>
    1b76:	4b3e      	ldr	r3, [pc, #248]	; (1c70 <TEE_AllocateOperation+0x366>)
    1b78:	429c      	cmp	r4, r3
    1b7a:	f43f af39 	beq.w	19f0 <TEE_AllocateOperation+0xe6>
    1b7e:	4b3d      	ldr	r3, [pc, #244]	; (1c74 <TEE_AllocateOperation+0x36a>)
    1b80:	429c      	cmp	r4, r3
    1b82:	d026      	beq.n	1bd2 <TEE_AllocateOperation+0x2c8>
    1b84:	f1a3 637a 	sub.w	r3, r3, #262144000	; 0xfa00000
    1b88:	f5a3 236a 	sub.w	r3, r3, #958464	; 0xea000
    1b8c:	f2a3 7302 	subw	r3, r3, #1794	; 0x702
    1b90:	e7b5      	b.n	1afe <TEE_AllocateOperation+0x1f4>
    1b92:	4b28      	ldr	r3, [pc, #160]	; (1c34 <TEE_AllocateOperation+0x32a>)
    1b94:	429c      	cmp	r4, r3
    1b96:	d01c      	beq.n	1bd2 <TEE_AllocateOperation+0x2c8>
    1b98:	d824      	bhi.n	1be4 <TEE_AllocateOperation+0x2da>
    1b9a:	f5a3 53fc 	sub.w	r3, r3, #8064	; 0x1f80
    1b9e:	429c      	cmp	r4, r3
    1ba0:	d80b      	bhi.n	1bba <TEE_AllocateOperation+0x2b0>
    1ba2:	3b02      	subs	r3, #2
    1ba4:	429c      	cmp	r4, r3
    1ba6:	d214      	bcs.n	1bd2 <TEE_AllocateOperation+0x2c8>
    1ba8:	f5a3 5380 	sub.w	r3, r3, #4096	; 0x1000
    1bac:	429c      	cmp	r4, r3
    1bae:	d010      	beq.n	1bd2 <TEE_AllocateOperation+0x2c8>
    1bb0:	f603 7382 	addw	r3, r3, #3970	; 0xf82
    1bb4:	429c      	cmp	r4, r3
    1bb6:	d00c      	beq.n	1bd2 <TEE_AllocateOperation+0x2c8>
    1bb8:	e706      	b.n	19c8 <TEE_AllocateOperation+0xbe>
    1bba:	4b2f      	ldr	r3, [pc, #188]	; (1c78 <TEE_AllocateOperation+0x36e>)
    1bbc:	429c      	cmp	r4, r3
    1bbe:	d008      	beq.n	1bd2 <TEE_AllocateOperation+0x2c8>
    1bc0:	f4ff af02 	bcc.w	19c8 <TEE_AllocateOperation+0xbe>
    1bc4:	f104 4300 	add.w	r3, r4, #2147483648	; 0x80000000
    1bc8:	f5a3 5343 	sub.w	r3, r3, #12480	; 0x30c0
    1bcc:	2b01      	cmp	r3, #1
    1bce:	f63f aefb 	bhi.w	19c8 <TEE_AllocateOperation+0xbe>
/mnt/disk/raspbian-tee/optee_os/lib/libutee/tee_api_operations.c:212
    1bd2:	2f06      	cmp	r7, #6
    1bd4:	f47f aef8 	bne.w	19c8 <TEE_AllocateOperation+0xbe>
/mnt/disk/raspbian-tee/optee_os/lib/libutee/tee_api_operations.c:44
    1bd8:	2600      	movs	r6, #0
/mnt/disk/raspbian-tee/optee_os/lib/libutee/tee_api_operations.c:214
    1bda:	f04f 0a01 	mov.w	sl, #1
/mnt/disk/raspbian-tee/optee_os/lib/libutee/tee_api_operations.c:215
    1bde:	2240      	movs	r2, #64	; 0x40
/mnt/disk/raspbian-tee/optee_os/lib/libutee/tee_api_operations.c:41
    1be0:	4653      	mov	r3, sl
    1be2:	e73d      	b.n	1a60 <TEE_AllocateOperation+0x156>
/mnt/disk/raspbian-tee/optee_os/lib/libutee/tee_api_operations.c:108
    1be4:	4b25      	ldr	r3, [pc, #148]	; (1c7c <TEE_AllocateOperation+0x372>)
    1be6:	429c      	cmp	r4, r3
    1be8:	d84a      	bhi.n	1c80 <TEE_AllocateOperation+0x376>
    1bea:	3b01      	subs	r3, #1
    1bec:	429c      	cmp	r4, r3
    1bee:	d2f0      	bcs.n	1bd2 <TEE_AllocateOperation+0x2c8>
    1bf0:	f5a3 5380 	sub.w	r3, r3, #4096	; 0x1000
    1bf4:	429c      	cmp	r4, r3
    1bf6:	f4ff aee7 	bcc.w	19c8 <TEE_AllocateOperation+0xbe>
    1bfa:	3301      	adds	r3, #1
    1bfc:	429c      	cmp	r4, r3
    1bfe:	d9e8      	bls.n	1bd2 <TEE_AllocateOperation+0x2c8>
    1c00:	f603 7381 	addw	r3, r3, #3969	; 0xf81
    1c04:	e7d6      	b.n	1bb4 <TEE_AllocateOperation+0x2aa>
    1c06:	bf00      	nop
    1c08:	10000410 	.word	0x10000410
    1c0c:	70004131 	.word	0x70004131
    1c10:	70002131 	.word	0x70002131
    1c14:	70002830 	.word	0x70002830
    1c18:	30000513 	.word	0x30000513
    1c1c:	10000310 	.word	0x10000310
    1c20:	70003131 	.word	0x70003131
    1c24:	80002042 	.word	0x80002042
    1c28:	70005041 	.word	0x70005041
    1c2c:	80001042 	.word	0x80001042
    1c30:	ffff000a 	.word	0xffff000a
    1c34:	80004042 	.word	0x80004042
    1c38:	10000113 	.word	0x10000113
    1c3c:	30000111 	.word	0x30000111
    1c40:	30000113 	.word	0x30000113
    1c44:	60210230 	.word	0x60210230
    1c48:	50000006 	.word	0x50000006
    1c4c:	40000710 	.word	0x40000710
    1c50:	30000610 	.word	0x30000610
    1c54:	60000030 	.word	0x60000030
    1c58:	60610230 	.word	0x60610230
    1c5c:	70001830 	.word	0x70001830
    1c60:	70002041 	.word	0x70002041
    1c64:	70005830 	.word	0x70005830
    1c68:	70004830 	.word	0x70004830
    1c6c:	70414930 	.word	0x70414930
    1c70:	70616930 	.word	0x70616930
    1c74:	80000032 	.word	0x80000032
    1c78:	80003042 	.word	0x80003042
    1c7c:	800050c1 	.word	0x800050c1
    1c80:	4b6f      	ldr	r3, [pc, #444]	; (1e40 <TEE_AllocateOperation+0x536>)
    1c82:	429c      	cmp	r4, r3
    1c84:	f4ff aea0 	bcc.w	19c8 <TEE_AllocateOperation+0xbe>
    1c88:	3301      	adds	r3, #1
    1c8a:	429c      	cmp	r4, r3
    1c8c:	d9a1      	bls.n	1bd2 <TEE_AllocateOperation+0x2c8>
    1c8e:	4b6d      	ldr	r3, [pc, #436]	; (1e44 <TEE_AllocateOperation+0x53a>)
    1c90:	e735      	b.n	1afe <TEE_AllocateOperation+0x1f4>
/mnt/disk/raspbian-tee/optee_os/lib/libutee/tee_api_operations.c:50
    1c92:	f44f 2800 	mov.w	r8, #524288	; 0x80000
/mnt/disk/raspbian-tee/optee_os/lib/libutee/tee_api_operations.c:111
    1c96:	2601      	movs	r6, #1
/mnt/disk/raspbian-tee/optee_os/lib/libutee/tee_api_operations.c:120
    1c98:	b2e3      	uxtb	r3, r4
/mnt/disk/raspbian-tee/optee_os/lib/libutee/tee_api_operations.c:123
    1c9a:	2b10      	cmp	r3, #16
    1c9c:	f04f 0310 	mov.w	r3, #16
    1ca0:	bf18      	it	ne
    1ca2:	2308      	movne	r3, #8
/mnt/disk/raspbian-tee/optee_os/lib/libutee/tee_api_operations.c:127
    1ca4:	2f00      	cmp	r7, #0
    1ca6:	d060      	beq.n	1d6a <TEE_AllocateOperation+0x460>
/mnt/disk/raspbian-tee/optee_os/lib/libutee/tee_api_operations.c:129
    1ca8:	2f01      	cmp	r7, #1
    1caa:	f47f ae8d 	bne.w	19c8 <TEE_AllocateOperation+0xbe>
/mnt/disk/raspbian-tee/optee_os/lib/libutee/tee_api_operations.c:43
    1cae:	f04f 0a00 	mov.w	sl, #0
/mnt/disk/raspbian-tee/optee_os/lib/libutee/tee_api_operations.c:130
    1cb2:	2204      	movs	r2, #4
    1cb4:	e015      	b.n	1ce2 <TEE_AllocateOperation+0x3d8>
/mnt/disk/raspbian-tee/optee_os/lib/libutee/tee_api_operations.c:108
    1cb6:	f04f 0800 	mov.w	r8, #0
    1cba:	e7ec      	b.n	1c96 <TEE_AllocateOperation+0x38c>
/mnt/disk/raspbian-tee/optee_os/lib/libutee/tee_api_operations.c:184
    1cbc:	2f00      	cmp	r7, #0
    1cbe:	d062      	beq.n	1d86 <TEE_AllocateOperation+0x47c>
/mnt/disk/raspbian-tee/optee_os/lib/libutee/tee_api_operations.c:186
    1cc0:	2f01      	cmp	r7, #1
    1cc2:	f47f ae81 	bne.w	19c8 <TEE_AllocateOperation+0xbe>
/mnt/disk/raspbian-tee/optee_os/lib/libutee/tee_api_operations.c:44
    1cc6:	2600      	movs	r6, #0
/mnt/disk/raspbian-tee/optee_os/lib/libutee/tee_api_operations.c:187
    1cc8:	f04f 0a01 	mov.w	sl, #1
/mnt/disk/raspbian-tee/optee_os/lib/libutee/tee_api_operations.c:188
    1ccc:	2214      	movs	r2, #20
    1cce:	e787      	b.n	1be0 <TEE_AllocateOperation+0x2d6>
/mnt/disk/raspbian-tee/optee_os/lib/libutee/tee_api_operations.c:224
    1cd0:	2f05      	cmp	r7, #5
    1cd2:	f47f ae79 	bne.w	19c8 <TEE_AllocateOperation+0xbe>
/mnt/disk/raspbian-tee/optee_os/lib/libutee/tee_api_operations.c:44
    1cd6:	2600      	movs	r6, #0
/mnt/disk/raspbian-tee/optee_os/lib/libutee/tee_api_operations.c:41
    1cd8:	2301      	movs	r3, #1
/mnt/disk/raspbian-tee/optee_os/lib/libutee/tee_api_operations.c:43
    1cda:	46b2      	mov	sl, r6
/mnt/disk/raspbian-tee/optee_os/lib/libutee/tee_api_operations.c:228
    1cdc:	4632      	mov	r2, r6
/mnt/disk/raspbian-tee/optee_os/lib/libutee/tee_api_operations.c:227
    1cde:	f44f 2880 	mov.w	r8, #262144	; 0x40000
/mnt/disk/raspbian-tee/optee_os/lib/libutee/tee_api_operations.c:253
    1ce2:	2100      	movs	r1, #0
    1ce4:	2044      	movs	r0, #68	; 0x44
    1ce6:	9205      	str	r2, [sp, #20]
    1ce8:	9304      	str	r3, [sp, #16]
    1cea:	f7ff f952 	bl	f92 <TEE_Malloc>
/mnt/disk/raspbian-tee/optee_os/lib/libutee/tee_api_operations.c:254
    1cee:	4605      	mov	r5, r0
    1cf0:	2800      	cmp	r0, #0
    1cf2:	f000 80a0 	beq.w	1e36 <TEE_AllocateOperation+0x52c>
/mnt/disk/raspbian-tee/optee_os/lib/libutee/tee_api_operations.c:260
    1cf6:	4953      	ldr	r1, [pc, #332]	; (1e44 <TEE_AllocateOperation+0x53a>)
/mnt/disk/raspbian-tee/optee_os/lib/libutee/tee_api_operations.c:258
    1cf8:	ea4f 7b14 	mov.w	fp, r4, lsr #28
/mnt/disk/raspbian-tee/optee_os/lib/libutee/tee_api_operations.c:257
    1cfc:	6004      	str	r4, [r0, #0]
/mnt/disk/raspbian-tee/optee_os/lib/libutee/tee_api_operations.c:260
    1cfe:	428c      	cmp	r4, r1
    1d00:	9b04      	ldr	r3, [sp, #16]
    1d02:	9a05      	ldr	r2, [sp, #20]
    1d04:	d044      	beq.n	1d90 <TEE_AllocateOperation+0x486>
/mnt/disk/raspbian-tee/optee_os/lib/libutee/tee_api_operations.c:258
    1d06:	f8c0 b004 	str.w	fp, [r0, #4]
/mnt/disk/raspbian-tee/optee_os/lib/libutee/tee_api_operations.c:263
    1d0a:	60af      	str	r7, [r5, #8]
/mnt/disk/raspbian-tee/optee_os/lib/libutee/tee_api_operations.c:268
    1d0c:	2b01      	cmp	r3, #1
/mnt/disk/raspbian-tee/optee_os/lib/libutee/tee_api_operations.c:264
    1d0e:	f8c5 9010 	str.w	r9, [r5, #16]
/mnt/disk/raspbian-tee/optee_os/lib/libutee/tee_api_operations.c:265
    1d12:	61aa      	str	r2, [r5, #24]
/mnt/disk/raspbian-tee/optee_os/lib/libutee/tee_api_operations.c:266
    1d14:	f8c5 801c 	str.w	r8, [r5, #28]
/mnt/disk/raspbian-tee/optee_os/lib/libutee/tee_api_operations.c:268
    1d18:	d13d      	bne.n	1d96 <TEE_AllocateOperation+0x48c>
/mnt/disk/raspbian-tee/optee_os/lib/libutee/tee_api_operations.c:281
    1d1a:	636b      	str	r3, [r5, #52]	; 0x34
/mnt/disk/raspbian-tee/optee_os/lib/libutee/tee_api_operations.c:284
    1d1c:	f1bb 0f05 	cmp.w	fp, #5
/mnt/disk/raspbian-tee/optee_os/lib/libutee/tee_api_operations.c:282
    1d20:	f885 6030 	strb.w	r6, [r5, #48]	; 0x30
/mnt/disk/raspbian-tee/optee_os/lib/libutee/tee_api_operations.c:284
    1d24:	d146      	bne.n	1db4 <TEE_AllocateOperation+0x4aa>
/mnt/disk/raspbian-tee/optee_os/lib/libutee/tee_api_operations.c:308
    1d26:	f105 033c 	add.w	r3, r5, #60	; 0x3c
    1d2a:	9300      	str	r3, [sp, #0]
    1d2c:	4639      	mov	r1, r7
    1d2e:	4620      	mov	r0, r4
    1d30:	6a2a      	ldr	r2, [r5, #32]
    1d32:	6a6b      	ldr	r3, [r5, #36]	; 0x24
    1d34:	f001 e9ba 	blx	30ac <utee_cryp_state_alloc>
/mnt/disk/raspbian-tee/optee_os/lib/libutee/tee_api_operations.c:310
    1d38:	4602      	mov	r2, r0
    1d3a:	2800      	cmp	r0, #0
    1d3c:	d17d      	bne.n	1e3a <TEE_AllocateOperation+0x530>
/mnt/disk/raspbian-tee/optee_os/lib/libutee/tee_api_operations.c:318
    1d3e:	f1bb 0f05 	cmp.w	fp, #5
    1d42:	d10a      	bne.n	1d5a <TEE_AllocateOperation+0x450>
/mnt/disk/raspbian-tee/optee_os/lib/libutee/tee_api_operations.c:319
    1d44:	4601      	mov	r1, r0
    1d46:	6be8      	ldr	r0, [r5, #60]	; 0x3c
    1d48:	f001 e9d0 	blx	30ec <utee_hash_init>
/mnt/disk/raspbian-tee/optee_os/lib/libutee/tee_api_operations.c:320
    1d4c:	4606      	mov	r6, r0
    1d4e:	2800      	cmp	r0, #0
    1d50:	d155      	bne.n	1dfe <TEE_AllocateOperation+0x4f4>
/mnt/disk/raspbian-tee/optee_os/lib/libutee/tee_api_operations.c:323
    1d52:	69eb      	ldr	r3, [r5, #28]
    1d54:	f443 3300 	orr.w	r3, r3, #131072	; 0x20000
    1d58:	61eb      	str	r3, [r5, #28]
/mnt/disk/raspbian-tee/optee_os/lib/libutee/tee_api_operations.c:328
    1d5a:	9b03      	ldr	r3, [sp, #12]
/mnt/disk/raspbian-tee/optee_os/lib/libutee/tee_api_operations.c:326
    1d5c:	2600      	movs	r6, #0
    1d5e:	62ae      	str	r6, [r5, #40]	; 0x28
/mnt/disk/raspbian-tee/optee_os/lib/libutee/tee_api_operations.c:328
    1d60:	601d      	str	r5, [r3, #0]
/mnt/disk/raspbian-tee/optee_os/lib/libutee/tee_api_operations.c:348
    1d62:	4630      	mov	r0, r6
    1d64:	b007      	add	sp, #28
    1d66:	e8bd 8ff0 	ldmia.w	sp!, {r4, r5, r6, r7, r8, r9, sl, fp, pc}
/mnt/disk/raspbian-tee/optee_os/lib/libutee/tee_api_operations.c:43
    1d6a:	46ba      	mov	sl, r7
/mnt/disk/raspbian-tee/optee_os/lib/libutee/tee_api_operations.c:128
    1d6c:	2202      	movs	r2, #2
    1d6e:	e7b8      	b.n	1ce2 <TEE_AllocateOperation+0x3d8>
/mnt/disk/raspbian-tee/optee_os/lib/libutee/tee_api_operations.c:44
    1d70:	2600      	movs	r6, #0
/mnt/disk/raspbian-tee/optee_os/lib/libutee/tee_api_operations.c:158
    1d72:	f04f 0a01 	mov.w	sl, #1
/mnt/disk/raspbian-tee/optee_os/lib/libutee/tee_api_operations.c:159
    1d76:	2210      	movs	r2, #16
    1d78:	e732      	b.n	1be0 <TEE_AllocateOperation+0x2d6>
    1d7a:	46b8      	mov	r8, r7
/mnt/disk/raspbian-tee/optee_os/lib/libutee/tee_api_operations.c:44
    1d7c:	463e      	mov	r6, r7
/mnt/disk/raspbian-tee/optee_os/lib/libutee/tee_api_operations.c:43
    1d7e:	46ba      	mov	sl, r7
/mnt/disk/raspbian-tee/optee_os/lib/libutee/tee_api_operations.c:174
    1d80:	2202      	movs	r2, #2
/mnt/disk/raspbian-tee/optee_os/lib/libutee/tee_api_operations.c:41
    1d82:	2301      	movs	r3, #1
    1d84:	e7ad      	b.n	1ce2 <TEE_AllocateOperation+0x3d8>
    1d86:	46b8      	mov	r8, r7
/mnt/disk/raspbian-tee/optee_os/lib/libutee/tee_api_operations.c:44
    1d88:	463e      	mov	r6, r7
/mnt/disk/raspbian-tee/optee_os/lib/libutee/tee_api_operations.c:43
    1d8a:	46ba      	mov	sl, r7
/mnt/disk/raspbian-tee/optee_os/lib/libutee/tee_api_operations.c:185
    1d8c:	2222      	movs	r2, #34	; 0x22
    1d8e:	e7f8      	b.n	1d82 <TEE_AllocateOperation+0x478>
/mnt/disk/raspbian-tee/optee_os/lib/libutee/tee_api_operations.c:261
    1d90:	2107      	movs	r1, #7
    1d92:	6041      	str	r1, [r0, #4]
    1d94:	e7b9      	b.n	1d0a <TEE_AllocateOperation+0x400>
/mnt/disk/raspbian-tee/optee_os/lib/libutee/tee_api_operations.c:271
    1d96:	b15e      	cbz	r6, 1db0 <TEE_AllocateOperation+0x4a6>
/mnt/disk/raspbian-tee/optee_os/lib/libutee/tee_api_operations.c:272
    1d98:	0058      	lsls	r0, r3, #1
/mnt/disk/raspbian-tee/optee_os/lib/libutee/tee_api_operations.c:274
    1d9a:	f04f 4100 	mov.w	r1, #2147483648	; 0x80000000
    1d9e:	9304      	str	r3, [sp, #16]
    1da0:	f7ff f8f7 	bl	f92 <TEE_Malloc>
/mnt/disk/raspbian-tee/optee_os/lib/libutee/tee_api_operations.c:276
    1da4:	9b04      	ldr	r3, [sp, #16]
/mnt/disk/raspbian-tee/optee_os/lib/libutee/tee_api_operations.c:274
    1da6:	62e8      	str	r0, [r5, #44]	; 0x2c
/mnt/disk/raspbian-tee/optee_os/lib/libutee/tee_api_operations.c:276
    1da8:	2800      	cmp	r0, #0
    1daa:	d1b6      	bne.n	1d1a <TEE_AllocateOperation+0x410>
/mnt/disk/raspbian-tee/optee_os/lib/libutee/tee_api_operations.c:277
    1dac:	4e26      	ldr	r6, [pc, #152]	; (1e48 <TEE_AllocateOperation+0x53e>)
    1dae:	e02f      	b.n	1e10 <TEE_AllocateOperation+0x506>
    1db0:	4618      	mov	r0, r3
    1db2:	e7f2      	b.n	1d9a <TEE_AllocateOperation+0x490>
/mnt/disk/raspbian-tee/optee_os/lib/libutee/tee_api_operations.c:286
    1db4:	f1ba 0f00 	cmp.w	sl, #0
    1db8:	f04f 4220 	mov.w	r2, #2684354560	; 0xa0000000
    1dbc:	f04f 4321 	mov.w	r3, #2701131776	; 0xa1000000
    1dc0:	fa5f f884 	uxtb.w	r8, r4
    1dc4:	bf08      	it	eq
    1dc6:	4613      	moveq	r3, r2
    1dc8:	ea43 0808 	orr.w	r8, r3, r8
/mnt/disk/raspbian-tee/optee_os/lib/libutee/tee_api_operations.c:293
    1dcc:	69eb      	ldr	r3, [r5, #28]
    1dce:	031a      	lsls	r2, r3, #12
    1dd0:	d501      	bpl.n	1dd6 <TEE_AllocateOperation+0x4cc>
/mnt/disk/raspbian-tee/optee_os/lib/libutee/tee_api_operations.c:294
    1dd2:	ea4f 0959 	mov.w	r9, r9, lsr #1
/mnt/disk/raspbian-tee/optee_os/lib/libutee/tee_api_operations.c:296
    1dd6:	f105 0220 	add.w	r2, r5, #32
    1dda:	4649      	mov	r1, r9
    1ddc:	4640      	mov	r0, r8
    1dde:	f7ff f9f7 	bl	11d0 <TEE_AllocateTransientObject>
/mnt/disk/raspbian-tee/optee_os/lib/libutee/tee_api_operations.c:297
    1de2:	4606      	mov	r6, r0
    1de4:	b958      	cbnz	r0, 1dfe <TEE_AllocateOperation+0x4f4>
/mnt/disk/raspbian-tee/optee_os/lib/libutee/tee_api_operations.c:300
    1de6:	69eb      	ldr	r3, [r5, #28]
    1de8:	031b      	lsls	r3, r3, #12
    1dea:	d59c      	bpl.n	1d26 <TEE_AllocateOperation+0x41c>
/mnt/disk/raspbian-tee/optee_os/lib/libutee/tee_api_operations.c:301
    1dec:	f105 0224 	add.w	r2, r5, #36	; 0x24
    1df0:	4649      	mov	r1, r9
    1df2:	4640      	mov	r0, r8
    1df4:	f7ff f9ec 	bl	11d0 <TEE_AllocateTransientObject>
/mnt/disk/raspbian-tee/optee_os/lib/libutee/tee_api_operations.c:303
    1df8:	4606      	mov	r6, r0
    1dfa:	2800      	cmp	r0, #0
    1dfc:	d093      	beq.n	1d26 <TEE_AllocateOperation+0x41c>
/mnt/disk/raspbian-tee/optee_os/lib/libutee/tee_api_operations.c:332
    1dfe:	4b12      	ldr	r3, [pc, #72]	; (1e48 <TEE_AllocateOperation+0x53e>)
    1e00:	429e      	cmp	r6, r3
    1e02:	d005      	beq.n	1e10 <TEE_AllocateOperation+0x506>
/mnt/disk/raspbian-tee/optee_os/lib/libutee/tee_api_operations.c:332 (discriminator 1)
    1e04:	4b11      	ldr	r3, [pc, #68]	; (1e4c <TEE_AllocateOperation+0x542>)
    1e06:	429e      	cmp	r6, r3
    1e08:	d002      	beq.n	1e10 <TEE_AllocateOperation+0x506>
/mnt/disk/raspbian-tee/optee_os/lib/libutee/tee_api_operations.c:334
    1e0a:	4630      	mov	r0, r6
    1e0c:	f005 fe77 	bl	7afe <TEE_Panic>
/mnt/disk/raspbian-tee/optee_os/lib/libutee/tee_api_operations.c:336
    1e10:	6beb      	ldr	r3, [r5, #60]	; 0x3c
    1e12:	b11b      	cbz	r3, 1e1c <TEE_AllocateOperation+0x512>
/mnt/disk/raspbian-tee/optee_os/lib/libutee/tee_api_operations.c:337
    1e14:	4628      	mov	r0, r5
    1e16:	f7ff fd65 	bl	18e4 <TEE_FreeOperation>
    1e1a:	e7a2      	b.n	1d62 <TEE_AllocateOperation+0x458>
/mnt/disk/raspbian-tee/optee_os/lib/libutee/tee_api_operations.c:339
    1e1c:	6ae8      	ldr	r0, [r5, #44]	; 0x2c
    1e1e:	f7ff f8df 	bl	fe0 <TEE_Free>
/mnt/disk/raspbian-tee/optee_os/lib/libutee/tee_api_operations.c:340
    1e22:	6a28      	ldr	r0, [r5, #32]
    1e24:	f7ff f9ec 	bl	1200 <TEE_FreeTransientObject>
/mnt/disk/raspbian-tee/optee_os/lib/libutee/tee_api_operations.c:341
    1e28:	6a68      	ldr	r0, [r5, #36]	; 0x24
    1e2a:	f7ff f9e9 	bl	1200 <TEE_FreeTransientObject>
/mnt/disk/raspbian-tee/optee_os/lib/libutee/tee_api_operations.c:342
    1e2e:	4628      	mov	r0, r5
    1e30:	f7ff f8d6 	bl	fe0 <TEE_Free>
    1e34:	e795      	b.n	1d62 <TEE_AllocateOperation+0x458>
/mnt/disk/raspbian-tee/optee_os/lib/libutee/tee_api_operations.c:255
    1e36:	4e04      	ldr	r6, [pc, #16]	; (1e48 <TEE_AllocateOperation+0x53e>)
    1e38:	e793      	b.n	1d62 <TEE_AllocateOperation+0x458>
    1e3a:	4606      	mov	r6, r0
    1e3c:	e7df      	b.n	1dfe <TEE_AllocateOperation+0x4f4>
    1e3e:	bf00      	nop
    1e40:	800060c0 	.word	0x800060c0
    1e44:	f0000830 	.word	0xf0000830
    1e48:	ffff000c 	.word	0xffff000c
    1e4c:	ffff000a 	.word	0xffff000a

00001e50 <TEE_GetOperationInfo>:
TEE_GetOperationInfo():
/mnt/disk/raspbian-tee/optee_os/lib/libutee/tee_api_operations.c:372
    1e50:	b538      	push	{r3, r4, r5, lr}
    1e52:	460c      	mov	r4, r1
/mnt/disk/raspbian-tee/optee_os/lib/libutee/tee_api_operations.c:373
    1e54:	4605      	mov	r5, r0
    1e56:	b908      	cbnz	r0, 1e5c <TEE_GetOperationInfo+0xc>
/mnt/disk/raspbian-tee/optee_os/lib/libutee/tee_api_operations.c:374
    1e58:	f005 fe51 	bl	7afe <TEE_Panic>
/mnt/disk/raspbian-tee/optee_os/lib/libutee/tee_api_operations.c:376
    1e5c:	b914      	cbnz	r4, 1e64 <TEE_GetOperationInfo+0x14>
/mnt/disk/raspbian-tee/optee_os/lib/libutee/tee_api_operations.c:377
    1e5e:	4620      	mov	r0, r4
    1e60:	f005 fe4d 	bl	7afe <TEE_Panic>
/mnt/disk/raspbian-tee/optee_os/lib/libutee/tee_api_operations.c:379
    1e64:	cd0f      	ldmia	r5!, {r0, r1, r2, r3}
    1e66:	c40f      	stmia	r4!, {r0, r1, r2, r3}
    1e68:	e895 000f 	ldmia.w	r5, {r0, r1, r2, r3}
    1e6c:	e884 000f 	stmia.w	r4, {r0, r1, r2, r3}
    1e70:	bd38      	pop	{r3, r4, r5, pc}

00001e72 <TEE_GetOperationInfoMultiple>:
TEE_GetOperationInfoMultiple():
/mnt/disk/raspbian-tee/optee_os/lib/libutee/tee_api_operations.c:385
    1e72:	b5f0      	push	{r4, r5, r6, r7, lr}
    1e74:	460c      	mov	r4, r1
/mnt/disk/raspbian-tee/optee_os/lib/libutee/tee_api_operations.c:392
    1e76:	4605      	mov	r5, r0
/mnt/disk/raspbian-tee/optee_os/lib/libutee/tee_api_operations.c:385
    1e78:	b08f      	sub	sp, #60	; 0x3c
/mnt/disk/raspbian-tee/optee_os/lib/libutee/tee_api_operations.c:392
    1e7a:	2800      	cmp	r0, #0
    1e7c:	d04a      	beq.n	1f14 <TEE_GetOperationInfoMultiple+0xa2>
/mnt/disk/raspbian-tee/optee_os/lib/libutee/tee_api_operations.c:397
    1e7e:	2900      	cmp	r1, #0
    1e80:	d048      	beq.n	1f14 <TEE_GetOperationInfoMultiple+0xa2>
/mnt/disk/raspbian-tee/optee_os/lib/libutee/tee_api_operations.c:402
    1e82:	2a00      	cmp	r2, #0
    1e84:	d046      	beq.n	1f14 <TEE_GetOperationInfoMultiple+0xa2>
/mnt/disk/raspbian-tee/optee_os/lib/libutee/tee_api_operations.c:407
    1e86:	6817      	ldr	r7, [r2, #0]
    1e88:	3f20      	subs	r7, #32
    1e8a:	08ff      	lsrs	r7, r7, #3
/mnt/disk/raspbian-tee/optee_os/lib/libutee/tee_api_operations.c:410
    1e8c:	2f02      	cmp	r7, #2
    1e8e:	d841      	bhi.n	1f14 <TEE_GetOperationInfoMultiple+0xa2>
/mnt/disk/raspbian-tee/optee_os/lib/libutee/tee_api_operations.c:416
    1e90:	69c3      	ldr	r3, [r0, #28]
    1e92:	031b      	lsls	r3, r3, #12
    1e94:	d420      	bmi.n	1ed8 <TEE_GetOperationInfoMultiple+0x66>
/mnt/disk/raspbian-tee/optee_os/lib/libutee/tee_api_operations.c:424 (discriminator 1)
    1e96:	b33f      	cbz	r7, 1ee8 <TEE_GetOperationInfoMultiple+0x76>
/mnt/disk/raspbian-tee/optee_os/lib/libutee/tee_api_operations.c:425
    1e98:	2300      	movs	r3, #0
/mnt/disk/raspbian-tee/optee_os/lib/libutee/tee_api_operations.c:424
    1e9a:	2f02      	cmp	r7, #2
/mnt/disk/raspbian-tee/optee_os/lib/libutee/tee_api_operations.c:425
    1e9c:	6223      	str	r3, [r4, #32]
/mnt/disk/raspbian-tee/optee_os/lib/libutee/tee_api_operations.c:426
    1e9e:	6263      	str	r3, [r4, #36]	; 0x24
/mnt/disk/raspbian-tee/optee_os/lib/libutee/tee_api_operations.c:424
    1ea0:	d120      	bne.n	1ee4 <TEE_GetOperationInfoMultiple+0x72>
/mnt/disk/raspbian-tee/optee_os/lib/libutee/tee_api_operations.c:425
    1ea2:	62a3      	str	r3, [r4, #40]	; 0x28
/mnt/disk/raspbian-tee/optee_os/lib/libutee/tee_api_operations.c:430
    1ea4:	a907      	add	r1, sp, #28
/mnt/disk/raspbian-tee/optee_os/lib/libutee/tee_api_operations.c:426
    1ea6:	62e3      	str	r3, [r4, #44]	; 0x2c
/mnt/disk/raspbian-tee/optee_os/lib/libutee/tee_api_operations.c:430
    1ea8:	6a68      	ldr	r0, [r5, #36]	; 0x24
    1eaa:	f7ff f8d7 	bl	105c <TEE_GetObjectInfo1>
/mnt/disk/raspbian-tee/optee_os/lib/libutee/tee_api_operations.c:432
    1eae:	4606      	mov	r6, r0
    1eb0:	b970      	cbnz	r0, 1ed0 <TEE_GetOperationInfoMultiple+0x5e>
/mnt/disk/raspbian-tee/optee_os/lib/libutee/tee_api_operations.c:435
    1eb2:	9b08      	ldr	r3, [sp, #32]
    1eb4:	62a3      	str	r3, [r4, #40]	; 0x28
/mnt/disk/raspbian-tee/optee_os/lib/libutee/tee_api_operations.c:437
    1eb6:	69ab      	ldr	r3, [r5, #24]
    1eb8:	62e3      	str	r3, [r4, #44]	; 0x2c
/mnt/disk/raspbian-tee/optee_os/lib/libutee/tee_api_operations.c:442
    1eba:	4669      	mov	r1, sp
    1ebc:	6a28      	ldr	r0, [r5, #32]
    1ebe:	f7ff f8cd 	bl	105c <TEE_GetObjectInfo1>
/mnt/disk/raspbian-tee/optee_os/lib/libutee/tee_api_operations.c:444
    1ec2:	4606      	mov	r6, r0
    1ec4:	b308      	cbz	r0, 1f0a <TEE_GetOperationInfoMultiple+0x98>
/mnt/disk/raspbian-tee/optee_os/lib/libutee/tee_api_operations.c:445
    1ec6:	2f02      	cmp	r7, #2
    1ec8:	d102      	bne.n	1ed0 <TEE_GetOperationInfoMultiple+0x5e>
/mnt/disk/raspbian-tee/optee_os/lib/libutee/tee_api_operations.c:447
    1eca:	2300      	movs	r3, #0
    1ecc:	62a3      	str	r3, [r4, #40]	; 0x28
/mnt/disk/raspbian-tee/optee_os/lib/libutee/tee_api_operations.c:449
    1ece:	62e3      	str	r3, [r4, #44]	; 0x2c
/mnt/disk/raspbian-tee/optee_os/lib/libutee/tee_api_operations.c:471
    1ed0:	4b13      	ldr	r3, [pc, #76]	; (1f20 <TEE_GetOperationInfoMultiple+0xae>)
    1ed2:	429e      	cmp	r6, r3
    1ed4:	d002      	beq.n	1edc <TEE_GetOperationInfoMultiple+0x6a>
    1ed6:	e01e      	b.n	1f16 <TEE_GetOperationInfoMultiple+0xa4>
/mnt/disk/raspbian-tee/optee_os/lib/libutee/tee_api_operations.c:417
    1ed8:	2f02      	cmp	r7, #2
    1eda:	d0dd      	beq.n	1e98 <TEE_GetOperationInfoMultiple+0x26>
/mnt/disk/raspbian-tee/optee_os/lib/libutee/tee_api_operations.c:468
    1edc:	4e10      	ldr	r6, [pc, #64]	; (1f20 <TEE_GetOperationInfoMultiple+0xae>)
/mnt/disk/raspbian-tee/optee_os/lib/libutee/tee_api_operations.c:476
    1ede:	4630      	mov	r0, r6
    1ee0:	b00f      	add	sp, #60	; 0x3c
    1ee2:	bdf0      	pop	{r4, r5, r6, r7, pc}
/mnt/disk/raspbian-tee/optee_os/lib/libutee/tee_api_operations.c:441
    1ee4:	2f00      	cmp	r7, #0
    1ee6:	d1e8      	bne.n	1eba <TEE_GetOperationInfoMultiple+0x48>
/mnt/disk/raspbian-tee/optee_os/lib/libutee/tee_api_operations.c:461
    1ee8:	682b      	ldr	r3, [r5, #0]
/mnt/disk/raspbian-tee/optee_os/lib/libutee/tee_api_operations.c:468
    1eea:	2600      	movs	r6, #0
/mnt/disk/raspbian-tee/optee_os/lib/libutee/tee_api_operations.c:461
    1eec:	6023      	str	r3, [r4, #0]
/mnt/disk/raspbian-tee/optee_os/lib/libutee/tee_api_operations.c:462
    1eee:	686b      	ldr	r3, [r5, #4]
    1ef0:	6063      	str	r3, [r4, #4]
/mnt/disk/raspbian-tee/optee_os/lib/libutee/tee_api_operations.c:463
    1ef2:	68ab      	ldr	r3, [r5, #8]
    1ef4:	60a3      	str	r3, [r4, #8]
/mnt/disk/raspbian-tee/optee_os/lib/libutee/tee_api_operations.c:464
    1ef6:	68eb      	ldr	r3, [r5, #12]
    1ef8:	60e3      	str	r3, [r4, #12]
/mnt/disk/raspbian-tee/optee_os/lib/libutee/tee_api_operations.c:465
    1efa:	692b      	ldr	r3, [r5, #16]
    1efc:	6123      	str	r3, [r4, #16]
/mnt/disk/raspbian-tee/optee_os/lib/libutee/tee_api_operations.c:466
    1efe:	69eb      	ldr	r3, [r5, #28]
    1f00:	6163      	str	r3, [r4, #20]
/mnt/disk/raspbian-tee/optee_os/lib/libutee/tee_api_operations.c:467
    1f02:	6aab      	ldr	r3, [r5, #40]	; 0x28
    1f04:	61a3      	str	r3, [r4, #24]
/mnt/disk/raspbian-tee/optee_os/lib/libutee/tee_api_operations.c:468
    1f06:	61e7      	str	r7, [r4, #28]
    1f08:	e7e9      	b.n	1ede <TEE_GetOperationInfoMultiple+0x6c>
/mnt/disk/raspbian-tee/optee_os/lib/libutee/tee_api_operations.c:454
    1f0a:	9b01      	ldr	r3, [sp, #4]
    1f0c:	6223      	str	r3, [r4, #32]
/mnt/disk/raspbian-tee/optee_os/lib/libutee/tee_api_operations.c:456
    1f0e:	69ab      	ldr	r3, [r5, #24]
    1f10:	6263      	str	r3, [r4, #36]	; 0x24
    1f12:	e7e9      	b.n	1ee8 <TEE_GetOperationInfoMultiple+0x76>
    1f14:	4e03      	ldr	r6, [pc, #12]	; (1f24 <TEE_GetOperationInfoMultiple+0xb2>)
/mnt/disk/raspbian-tee/optee_os/lib/libutee/tee_api_operations.c:473
    1f16:	4630      	mov	r0, r6
    1f18:	f005 fdf1 	bl	7afe <TEE_Panic>
/mnt/disk/raspbian-tee/optee_os/lib/libutee/tee_api_operations.c:475
    1f1c:	e7df      	b.n	1ede <TEE_GetOperationInfoMultiple+0x6c>
    1f1e:	bf00      	nop
    1f20:	ffff0010 	.word	0xffff0010
    1f24:	ffff0006 	.word	0xffff0006

00001f28 <TEE_ResetOperation>:
TEE_ResetOperation():
/mnt/disk/raspbian-tee/optee_os/lib/libutee/tee_api_operations.c:479
    1f28:	b510      	push	{r4, lr}
/mnt/disk/raspbian-tee/optee_os/lib/libutee/tee_api_operations.c:482
    1f2a:	4604      	mov	r4, r0
    1f2c:	b908      	cbnz	r0, 1f32 <TEE_ResetOperation+0xa>
/mnt/disk/raspbian-tee/optee_os/lib/libutee/tee_api_operations.c:483
    1f2e:	f005 fde6 	bl	7afe <TEE_Panic>
/mnt/disk/raspbian-tee/optee_os/lib/libutee/tee_api_operations.c:485
    1f32:	69e0      	ldr	r0, [r4, #28]
    1f34:	f410 2080 	ands.w	r0, r0, #262144	; 0x40000
    1f38:	d101      	bne.n	1f3e <TEE_ResetOperation+0x16>
/mnt/disk/raspbian-tee/optee_os/lib/libutee/tee_api_operations.c:486
    1f3a:	f005 fde0 	bl	7afe <TEE_Panic>
/mnt/disk/raspbian-tee/optee_os/lib/libutee/tee_api_operations.c:490
    1f3e:	6863      	ldr	r3, [r4, #4]
/mnt/disk/raspbian-tee/optee_os/lib/libutee/tee_api_operations.c:488
    1f40:	2200      	movs	r2, #0
    1f42:	62a2      	str	r2, [r4, #40]	; 0x28
/mnt/disk/raspbian-tee/optee_os/lib/libutee/tee_api_operations.c:490
    1f44:	2b05      	cmp	r3, #5
    1f46:	d10b      	bne.n	1f60 <TEE_ResetOperation+0x38>
/mnt/disk/raspbian-tee/optee_os/lib/libutee/tee_api_operations.c:491
    1f48:	4611      	mov	r1, r2
    1f4a:	6be0      	ldr	r0, [r4, #60]	; 0x3c
    1f4c:	f001 e8ce 	blx	30ec <utee_hash_init>
/mnt/disk/raspbian-tee/optee_os/lib/libutee/tee_api_operations.c:492
    1f50:	b108      	cbz	r0, 1f56 <TEE_ResetOperation+0x2e>
/mnt/disk/raspbian-tee/optee_os/lib/libutee/tee_api_operations.c:493
    1f52:	f005 fdd4 	bl	7afe <TEE_Panic>
/mnt/disk/raspbian-tee/optee_os/lib/libutee/tee_api_operations.c:494
    1f56:	69e3      	ldr	r3, [r4, #28]
    1f58:	f443 3300 	orr.w	r3, r3, #131072	; 0x20000
/mnt/disk/raspbian-tee/optee_os/lib/libutee/tee_api_operations.c:496
    1f5c:	61e3      	str	r3, [r4, #28]
    1f5e:	bd10      	pop	{r4, pc}
    1f60:	69e3      	ldr	r3, [r4, #28]
    1f62:	f423 3300 	bic.w	r3, r3, #131072	; 0x20000
    1f66:	e7f9      	b.n	1f5c <TEE_ResetOperation+0x34>

00001f68 <TEE_SetOperationKey>:
TEE_SetOperationKey():
/mnt/disk/raspbian-tee/optee_os/lib/libutee/tee_api_operations.c:502
    1f68:	b5f0      	push	{r4, r5, r6, r7, lr}
    1f6a:	460e      	mov	r6, r1
/mnt/disk/raspbian-tee/optee_os/lib/libutee/tee_api_operations.c:507
    1f6c:	4604      	mov	r4, r0
/mnt/disk/raspbian-tee/optee_os/lib/libutee/tee_api_operations.c:502
    1f6e:	b089      	sub	sp, #36	; 0x24
/mnt/disk/raspbian-tee/optee_os/lib/libutee/tee_api_operations.c:507
    1f70:	b128      	cbz	r0, 1f7e <TEE_SetOperationKey+0x16>
/mnt/disk/raspbian-tee/optee_os/lib/libutee/tee_api_operations.c:512
    1f72:	6a83      	ldr	r3, [r0, #40]	; 0x28
    1f74:	b91b      	cbnz	r3, 1f7e <TEE_SetOperationKey+0x16>
/mnt/disk/raspbian-tee/optee_os/lib/libutee/tee_api_operations.c:517
    1f76:	b921      	cbnz	r1, 1f82 <TEE_SetOperationKey+0x1a>
/mnt/disk/raspbian-tee/optee_os/lib/libutee/tee_api_operations.c:519
    1f78:	6a00      	ldr	r0, [r0, #32]
    1f7a:	f7ff f959 	bl	1230 <TEE_ResetTransientObject>
/mnt/disk/raspbian-tee/optee_os/lib/libutee/tee_api_operations.c:502
    1f7e:	4d1a      	ldr	r5, [pc, #104]	; (1fe8 <TEE_SetOperationKey+0x80>)
    1f80:	e02e      	b.n	1fe0 <TEE_SetOperationKey+0x78>
/mnt/disk/raspbian-tee/optee_os/lib/libutee/tee_api_operations.c:525
    1f82:	6843      	ldr	r3, [r0, #4]
    1f84:	2b05      	cmp	r3, #5
    1f86:	d0fa      	beq.n	1f7e <TEE_SetOperationKey+0x16>
/mnt/disk/raspbian-tee/optee_os/lib/libutee/tee_api_operations.c:531
    1f88:	69c3      	ldr	r3, [r0, #28]
    1f8a:	031b      	lsls	r3, r3, #12
    1f8c:	d4f7      	bmi.n	1f7e <TEE_SetOperationKey+0x16>
/mnt/disk/raspbian-tee/optee_os/lib/libutee/tee_api_operations.c:537
    1f8e:	a901      	add	r1, sp, #4
    1f90:	4630      	mov	r0, r6
    1f92:	f7ff f863 	bl	105c <TEE_GetObjectInfo1>
/mnt/disk/raspbian-tee/optee_os/lib/libutee/tee_api_operations.c:539
    1f96:	4605      	mov	r5, r0
    1f98:	b9e0      	cbnz	r0, 1fd4 <TEE_SetOperationKey+0x6c>
/mnt/disk/raspbian-tee/optee_os/lib/libutee/tee_api_operations.c:543
    1f9a:	69a3      	ldr	r3, [r4, #24]
    1f9c:	9a04      	ldr	r2, [sp, #16]
    1f9e:	4393      	bics	r3, r2
    1fa0:	d1ed      	bne.n	1f7e <TEE_SetOperationKey+0x16>
/mnt/disk/raspbian-tee/optee_os/lib/libutee/tee_api_operations.c:549
    1fa2:	9f02      	ldr	r7, [sp, #8]
    1fa4:	6923      	ldr	r3, [r4, #16]
    1fa6:	42bb      	cmp	r3, r7
    1fa8:	d3e9      	bcc.n	1f7e <TEE_SetOperationKey+0x16>
/mnt/disk/raspbian-tee/optee_os/lib/libutee/tee_api_operations.c:556
    1faa:	6a20      	ldr	r0, [r4, #32]
    1fac:	f7ff f940 	bl	1230 <TEE_ResetTransientObject>
/mnt/disk/raspbian-tee/optee_os/lib/libutee/tee_api_operations.c:557
    1fb0:	69e3      	ldr	r3, [r4, #28]
/mnt/disk/raspbian-tee/optee_os/lib/libutee/tee_api_operations.c:559
    1fb2:	4631      	mov	r1, r6
    1fb4:	6a20      	ldr	r0, [r4, #32]
/mnt/disk/raspbian-tee/optee_os/lib/libutee/tee_api_operations.c:557
    1fb6:	f423 2380 	bic.w	r3, r3, #262144	; 0x40000
    1fba:	61e3      	str	r3, [r4, #28]
/mnt/disk/raspbian-tee/optee_os/lib/libutee/tee_api_operations.c:559
    1fbc:	f7ff f9aa 	bl	1314 <TEE_CopyObjectAttributes1>
/mnt/disk/raspbian-tee/optee_os/lib/libutee/tee_api_operations.c:560
    1fc0:	4605      	mov	r5, r0
    1fc2:	b938      	cbnz	r0, 1fd4 <TEE_SetOperationKey+0x6c>
/mnt/disk/raspbian-tee/optee_os/lib/libutee/tee_api_operations.c:563
    1fc4:	69e3      	ldr	r3, [r4, #28]
/mnt/disk/raspbian-tee/optee_os/lib/libutee/tee_api_operations.c:565
    1fc6:	6167      	str	r7, [r4, #20]
/mnt/disk/raspbian-tee/optee_os/lib/libutee/tee_api_operations.c:563
    1fc8:	f443 2380 	orr.w	r3, r3, #262144	; 0x40000
    1fcc:	61e3      	str	r3, [r4, #28]
/mnt/disk/raspbian-tee/optee_os/lib/libutee/tee_api_operations.c:574
    1fce:	4628      	mov	r0, r5
    1fd0:	b009      	add	sp, #36	; 0x24
    1fd2:	bdf0      	pop	{r4, r5, r6, r7, pc}
/mnt/disk/raspbian-tee/optee_os/lib/libutee/tee_api_operations.c:568
    1fd4:	4b05      	ldr	r3, [pc, #20]	; (1fec <TEE_SetOperationKey+0x84>)
    1fd6:	429d      	cmp	r5, r3
    1fd8:	d0f9      	beq.n	1fce <TEE_SetOperationKey+0x66>
/mnt/disk/raspbian-tee/optee_os/lib/libutee/tee_api_operations.c:569
    1fda:	4b05      	ldr	r3, [pc, #20]	; (1ff0 <TEE_SetOperationKey+0x88>)
    1fdc:	429d      	cmp	r5, r3
    1fde:	d0f6      	beq.n	1fce <TEE_SetOperationKey+0x66>
/mnt/disk/raspbian-tee/optee_os/lib/libutee/tee_api_operations.c:571
    1fe0:	4628      	mov	r0, r5
    1fe2:	f005 fd8c 	bl	7afe <TEE_Panic>
/mnt/disk/raspbian-tee/optee_os/lib/libutee/tee_api_operations.c:573
    1fe6:	e7f2      	b.n	1fce <TEE_SetOperationKey+0x66>
    1fe8:	ffff0006 	.word	0xffff0006
    1fec:	f0100001 	.word	0xf0100001
    1ff0:	f0100003 	.word	0xf0100003

00001ff4 <TEE_SetOperationKey2>:
TEE_SetOperationKey2():
/mnt/disk/raspbian-tee/optee_os/lib/libutee/tee_api_operations.c:578
    1ff4:	e92d 41f0 	stmdb	sp!, {r4, r5, r6, r7, r8, lr}
    1ff8:	4688      	mov	r8, r1
    1ffa:	4616      	mov	r6, r2
    1ffc:	b08e      	sub	sp, #56	; 0x38
/mnt/disk/raspbian-tee/optee_os/lib/libutee/tee_api_operations.c:584
    1ffe:	4604      	mov	r4, r0
    2000:	b130      	cbz	r0, 2010 <TEE_SetOperationKey2+0x1c>
/mnt/disk/raspbian-tee/optee_os/lib/libutee/tee_api_operations.c:589
    2002:	6a83      	ldr	r3, [r0, #40]	; 0x28
    2004:	b923      	cbnz	r3, 2010 <TEE_SetOperationKey2+0x1c>
/mnt/disk/raspbian-tee/optee_os/lib/libutee/tee_api_operations.c:598
    2006:	b129      	cbz	r1, 2014 <TEE_SetOperationKey2+0x20>
/mnt/disk/raspbian-tee/optee_os/lib/libutee/tee_api_operations.c:598 (discriminator 1)
    2008:	b952      	cbnz	r2, 2020 <TEE_SetOperationKey2+0x2c>
/mnt/disk/raspbian-tee/optee_os/lib/libutee/tee_api_operations.c:604
    200a:	6a60      	ldr	r0, [r4, #36]	; 0x24
    200c:	f7ff f910 	bl	1230 <TEE_ResetTransientObject>
/mnt/disk/raspbian-tee/optee_os/lib/libutee/tee_api_operations.c:578
    2010:	4d31      	ldr	r5, [pc, #196]	; (20d8 <TEE_SetOperationKey2+0xe4>)
    2012:	e05c      	b.n	20ce <TEE_SetOperationKey2+0xda>
/mnt/disk/raspbian-tee/optee_os/lib/libutee/tee_api_operations.c:601
    2014:	6a00      	ldr	r0, [r0, #32]
    2016:	f7ff f90b 	bl	1230 <TEE_ResetTransientObject>
/mnt/disk/raspbian-tee/optee_os/lib/libutee/tee_api_operations.c:603
    201a:	2e00      	cmp	r6, #0
    201c:	d1f8      	bne.n	2010 <TEE_SetOperationKey2+0x1c>
    201e:	e7f4      	b.n	200a <TEE_SetOperationKey2+0x16>
/mnt/disk/raspbian-tee/optee_os/lib/libutee/tee_api_operations.c:610
    2020:	6843      	ldr	r3, [r0, #4]
    2022:	2b05      	cmp	r3, #5
    2024:	d0f4      	beq.n	2010 <TEE_SetOperationKey2+0x1c>
/mnt/disk/raspbian-tee/optee_os/lib/libutee/tee_api_operations.c:616
    2026:	69c3      	ldr	r3, [r0, #28]
    2028:	031b      	lsls	r3, r3, #12
    202a:	d5f1      	bpl.n	2010 <TEE_SetOperationKey2+0x1c>
/mnt/disk/raspbian-tee/optee_os/lib/libutee/tee_api_operations.c:622
    202c:	4669      	mov	r1, sp
    202e:	4640      	mov	r0, r8
    2030:	f7ff f814 	bl	105c <TEE_GetObjectInfo1>
/mnt/disk/raspbian-tee/optee_os/lib/libutee/tee_api_operations.c:624
    2034:	4605      	mov	r5, r0
    2036:	2800      	cmp	r0, #0
    2038:	d13d      	bne.n	20b6 <TEE_SetOperationKey2+0xc2>
/mnt/disk/raspbian-tee/optee_os/lib/libutee/tee_api_operations.c:628
    203a:	69a3      	ldr	r3, [r4, #24]
    203c:	9a03      	ldr	r2, [sp, #12]
    203e:	4393      	bics	r3, r2
    2040:	d1e6      	bne.n	2010 <TEE_SetOperationKey2+0x1c>
/mnt/disk/raspbian-tee/optee_os/lib/libutee/tee_api_operations.c:634
    2042:	a907      	add	r1, sp, #28
    2044:	4630      	mov	r0, r6
    2046:	f7ff f809 	bl	105c <TEE_GetObjectInfo1>
/mnt/disk/raspbian-tee/optee_os/lib/libutee/tee_api_operations.c:636
    204a:	4605      	mov	r5, r0
    204c:	b120      	cbz	r0, 2058 <TEE_SetOperationKey2+0x64>
/mnt/disk/raspbian-tee/optee_os/lib/libutee/tee_api_operations.c:681
    204e:	4b23      	ldr	r3, [pc, #140]	; (20dc <TEE_SetOperationKey2+0xe8>)
    2050:	429d      	cmp	r5, r3
    2052:	d133      	bne.n	20bc <TEE_SetOperationKey2+0xc8>
/mnt/disk/raspbian-tee/optee_os/lib/libutee/tee_api_operations.c:578
    2054:	4d22      	ldr	r5, [pc, #136]	; (20e0 <TEE_SetOperationKey2+0xec>)
    2056:	e02a      	b.n	20ae <TEE_SetOperationKey2+0xba>
/mnt/disk/raspbian-tee/optee_os/lib/libutee/tee_api_operations.c:643
    2058:	69a3      	ldr	r3, [r4, #24]
    205a:	9a0a      	ldr	r2, [sp, #40]	; 0x28
    205c:	4393      	bics	r3, r2
    205e:	d1d7      	bne.n	2010 <TEE_SetOperationKey2+0x1c>
/mnt/disk/raspbian-tee/optee_os/lib/libutee/tee_api_operations.c:653
    2060:	6822      	ldr	r2, [r4, #0]
    2062:	4b20      	ldr	r3, [pc, #128]	; (20e4 <TEE_SetOperationKey2+0xf0>)
    2064:	9f01      	ldr	r7, [sp, #4]
    2066:	429a      	cmp	r2, r3
    2068:	d102      	bne.n	2070 <TEE_SetOperationKey2+0x7c>
/mnt/disk/raspbian-tee/optee_os/lib/libutee/tee_api_operations.c:653 (discriminator 1)
    206a:	9b08      	ldr	r3, [sp, #32]
    206c:	429f      	cmp	r7, r3
    206e:	d1cf      	bne.n	2010 <TEE_SetOperationKey2+0x1c>
/mnt/disk/raspbian-tee/optee_os/lib/libutee/tee_api_operations.c:660
    2070:	6923      	ldr	r3, [r4, #16]
    2072:	42bb      	cmp	r3, r7
    2074:	d3cc      	bcc.n	2010 <TEE_SetOperationKey2+0x1c>
/mnt/disk/raspbian-tee/optee_os/lib/libutee/tee_api_operations.c:671
    2076:	6a20      	ldr	r0, [r4, #32]
    2078:	f7ff f8da 	bl	1230 <TEE_ResetTransientObject>
/mnt/disk/raspbian-tee/optee_os/lib/libutee/tee_api_operations.c:672
    207c:	6a60      	ldr	r0, [r4, #36]	; 0x24
    207e:	f7ff f8d7 	bl	1230 <TEE_ResetTransientObject>
/mnt/disk/raspbian-tee/optee_os/lib/libutee/tee_api_operations.c:673
    2082:	69e3      	ldr	r3, [r4, #28]
/mnt/disk/raspbian-tee/optee_os/lib/libutee/tee_api_operations.c:675
    2084:	4641      	mov	r1, r8
    2086:	6a20      	ldr	r0, [r4, #32]
/mnt/disk/raspbian-tee/optee_os/lib/libutee/tee_api_operations.c:673
    2088:	f423 2380 	bic.w	r3, r3, #262144	; 0x40000
    208c:	61e3      	str	r3, [r4, #28]
/mnt/disk/raspbian-tee/optee_os/lib/libutee/tee_api_operations.c:675
    208e:	f7ff f941 	bl	1314 <TEE_CopyObjectAttributes1>
/mnt/disk/raspbian-tee/optee_os/lib/libutee/tee_api_operations.c:676
    2092:	4605      	mov	r5, r0
    2094:	b978      	cbnz	r0, 20b6 <TEE_SetOperationKey2+0xc2>
/mnt/disk/raspbian-tee/optee_os/lib/libutee/tee_api_operations.c:679
    2096:	4631      	mov	r1, r6
    2098:	6a60      	ldr	r0, [r4, #36]	; 0x24
    209a:	f7ff f93b 	bl	1314 <TEE_CopyObjectAttributes1>
/mnt/disk/raspbian-tee/optee_os/lib/libutee/tee_api_operations.c:680
    209e:	4605      	mov	r5, r0
    20a0:	2800      	cmp	r0, #0
    20a2:	d1d4      	bne.n	204e <TEE_SetOperationKey2+0x5a>
/mnt/disk/raspbian-tee/optee_os/lib/libutee/tee_api_operations.c:686
    20a4:	69e3      	ldr	r3, [r4, #28]
/mnt/disk/raspbian-tee/optee_os/lib/libutee/tee_api_operations.c:688
    20a6:	6167      	str	r7, [r4, #20]
/mnt/disk/raspbian-tee/optee_os/lib/libutee/tee_api_operations.c:686
    20a8:	f443 2380 	orr.w	r3, r3, #262144	; 0x40000
    20ac:	61e3      	str	r3, [r4, #28]
/mnt/disk/raspbian-tee/optee_os/lib/libutee/tee_api_operations.c:699
    20ae:	4628      	mov	r0, r5
    20b0:	b00e      	add	sp, #56	; 0x38
    20b2:	e8bd 81f0 	ldmia.w	sp!, {r4, r5, r6, r7, r8, pc}
/mnt/disk/raspbian-tee/optee_os/lib/libutee/tee_api_operations.c:691
    20b6:	4b09      	ldr	r3, [pc, #36]	; (20dc <TEE_SetOperationKey2+0xe8>)
    20b8:	429d      	cmp	r5, r3
    20ba:	d0f8      	beq.n	20ae <TEE_SetOperationKey2+0xba>
/mnt/disk/raspbian-tee/optee_os/lib/libutee/tee_api_operations.c:692
    20bc:	4b08      	ldr	r3, [pc, #32]	; (20e0 <TEE_SetOperationKey2+0xec>)
    20be:	429d      	cmp	r5, r3
    20c0:	d0c8      	beq.n	2054 <TEE_SetOperationKey2+0x60>
/mnt/disk/raspbian-tee/optee_os/lib/libutee/tee_api_operations.c:693
    20c2:	3301      	adds	r3, #1
    20c4:	429d      	cmp	r5, r3
    20c6:	d0f2      	beq.n	20ae <TEE_SetOperationKey2+0xba>
/mnt/disk/raspbian-tee/optee_os/lib/libutee/tee_api_operations.c:694
    20c8:	3301      	adds	r3, #1
    20ca:	429d      	cmp	r5, r3
    20cc:	d0ef      	beq.n	20ae <TEE_SetOperationKey2+0xba>
/mnt/disk/raspbian-tee/optee_os/lib/libutee/tee_api_operations.c:696
    20ce:	4628      	mov	r0, r5
    20d0:	f005 fd15 	bl	7afe <TEE_Panic>
/mnt/disk/raspbian-tee/optee_os/lib/libutee/tee_api_operations.c:698
    20d4:	e7eb      	b.n	20ae <TEE_SetOperationKey2+0xba>
    20d6:	bf00      	nop
    20d8:	ffff0006 	.word	0xffff0006
    20dc:	f0100001 	.word	0xf0100001
    20e0:	f0100002 	.word	0xf0100002
    20e4:	10000410 	.word	0x10000410

000020e8 <TEE_CopyOperation>:
TEE_CopyOperation():
/mnt/disk/raspbian-tee/optee_os/lib/libutee/tee_api_operations.c:702
    20e8:	b538      	push	{r3, r4, r5, lr}
    20ea:	460c      	mov	r4, r1
/mnt/disk/raspbian-tee/optee_os/lib/libutee/tee_api_operations.c:705
    20ec:	4605      	mov	r5, r0
    20ee:	b100      	cbz	r0, 20f2 <TEE_CopyOperation+0xa>
/mnt/disk/raspbian-tee/optee_os/lib/libutee/tee_api_operations.c:705 (discriminator 1)
    20f0:	b911      	cbnz	r1, 20f8 <TEE_CopyOperation+0x10>
/mnt/disk/raspbian-tee/optee_os/lib/libutee/tee_api_operations.c:706
    20f2:	2000      	movs	r0, #0
    20f4:	f005 fd03 	bl	7afe <TEE_Panic>
/mnt/disk/raspbian-tee/optee_os/lib/libutee/tee_api_operations.c:707
    20f8:	682a      	ldr	r2, [r5, #0]
    20fa:	6823      	ldr	r3, [r4, #0]
    20fc:	429a      	cmp	r2, r3
    20fe:	d002      	beq.n	2106 <TEE_CopyOperation+0x1e>
/mnt/disk/raspbian-tee/optee_os/lib/libutee/tee_api_operations.c:708
    2100:	2000      	movs	r0, #0
    2102:	f005 fcfc 	bl	7afe <TEE_Panic>
/mnt/disk/raspbian-tee/optee_os/lib/libutee/tee_api_operations.c:709
    2106:	6863      	ldr	r3, [r4, #4]
    2108:	2b05      	cmp	r3, #5
    210a:	d00a      	beq.n	2122 <TEE_CopyOperation+0x3a>
/mnt/disk/raspbian-tee/optee_os/lib/libutee/tee_api_operations.c:713
    210c:	69e3      	ldr	r3, [r4, #28]
    210e:	f413 2280 	ands.w	r2, r3, #262144	; 0x40000
    2112:	d030      	beq.n	2176 <TEE_CopyOperation+0x8e>
/mnt/disk/raspbian-tee/optee_os/lib/libutee/tee_api_operations.c:714
    2114:	6a21      	ldr	r1, [r4, #32]
/mnt/disk/raspbian-tee/optee_os/lib/libutee/tee_api_operations.c:715
    2116:	6a62      	ldr	r2, [r4, #36]	; 0x24
/mnt/disk/raspbian-tee/optee_os/lib/libutee/tee_api_operations.c:720
    2118:	4628      	mov	r0, r5
/mnt/disk/raspbian-tee/optee_os/lib/libutee/tee_api_operations.c:718
    211a:	031b      	lsls	r3, r3, #12
    211c:	d42d      	bmi.n	217a <TEE_CopyOperation+0x92>
/mnt/disk/raspbian-tee/optee_os/lib/libutee/tee_api_operations.c:720
    211e:	f7ff ff23 	bl	1f68 <TEE_SetOperationKey>
/mnt/disk/raspbian-tee/optee_os/lib/libutee/tee_api_operations.c:725
    2122:	69e3      	ldr	r3, [r4, #28]
    2124:	61eb      	str	r3, [r5, #28]
/mnt/disk/raspbian-tee/optee_os/lib/libutee/tee_api_operations.c:726
    2126:	6963      	ldr	r3, [r4, #20]
    2128:	616b      	str	r3, [r5, #20]
/mnt/disk/raspbian-tee/optee_os/lib/libutee/tee_api_operations.c:727
    212a:	6aa3      	ldr	r3, [r4, #40]	; 0x28
    212c:	62ab      	str	r3, [r5, #40]	; 0x28
/mnt/disk/raspbian-tee/optee_os/lib/libutee/tee_api_operations.c:729
    212e:	f895 2030 	ldrb.w	r2, [r5, #48]	; 0x30
    2132:	f894 3030 	ldrb.w	r3, [r4, #48]	; 0x30
    2136:	429a      	cmp	r2, r3
    2138:	d103      	bne.n	2142 <TEE_CopyOperation+0x5a>
/mnt/disk/raspbian-tee/optee_os/lib/libutee/tee_api_operations.c:729 (discriminator 1)
    213a:	6b6a      	ldr	r2, [r5, #52]	; 0x34
    213c:	6b63      	ldr	r3, [r4, #52]	; 0x34
    213e:	429a      	cmp	r2, r3
    2140:	d002      	beq.n	2148 <TEE_CopyOperation+0x60>
/mnt/disk/raspbian-tee/optee_os/lib/libutee/tee_api_operations.c:731
    2142:	2000      	movs	r0, #0
    2144:	f005 fcdb 	bl	7afe <TEE_Panic>
/mnt/disk/raspbian-tee/optee_os/lib/libutee/tee_api_operations.c:733
    2148:	6ae8      	ldr	r0, [r5, #44]	; 0x2c
    214a:	6ae3      	ldr	r3, [r4, #44]	; 0x2c
    214c:	b1c0      	cbz	r0, 2180 <TEE_CopyOperation+0x98>
/mnt/disk/raspbian-tee/optee_os/lib/libutee/tee_api_operations.c:734
    214e:	b913      	cbnz	r3, 2156 <TEE_CopyOperation+0x6e>
/mnt/disk/raspbian-tee/optee_os/lib/libutee/tee_api_operations.c:735
    2150:	4618      	mov	r0, r3
    2152:	f005 fcd4 	bl	7afe <TEE_Panic>
/mnt/disk/raspbian-tee/optee_os/lib/libutee/tee_api_operations.c:737
    2156:	6ba2      	ldr	r2, [r4, #56]	; 0x38
    2158:	6ae1      	ldr	r1, [r4, #44]	; 0x2c
    215a:	6ae8      	ldr	r0, [r5, #44]	; 0x2c
    215c:	f005 fcf6 	bl	7b4c <memcpy>
/mnt/disk/raspbian-tee/optee_os/lib/libutee/tee_api_operations.c:738
    2160:	6ba3      	ldr	r3, [r4, #56]	; 0x38
    2162:	63ab      	str	r3, [r5, #56]	; 0x38
/mnt/disk/raspbian-tee/optee_os/lib/libutee/tee_api_operations.c:743
    2164:	6be1      	ldr	r1, [r4, #60]	; 0x3c
    2166:	6be8      	ldr	r0, [r5, #60]	; 0x3c
    2168:	f000 efac 	blx	30c4 <utee_cryp_state_copy>
/mnt/disk/raspbian-tee/optee_os/lib/libutee/tee_api_operations.c:744
    216c:	b168      	cbz	r0, 218a <TEE_CopyOperation+0xa2>
/mnt/disk/raspbian-tee/optee_os/lib/libutee/tee_api_operations.c:746
    216e:	e8bd 4038 	ldmia.w	sp!, {r3, r4, r5, lr}
/mnt/disk/raspbian-tee/optee_os/lib/libutee/tee_api_operations.c:745
    2172:	f005 bcc4 	b.w	7afe <TEE_Panic>
/mnt/disk/raspbian-tee/optee_os/lib/libutee/tee_api_operations.c:710
    2176:	4611      	mov	r1, r2
    2178:	e7ce      	b.n	2118 <TEE_CopyOperation+0x30>
/mnt/disk/raspbian-tee/optee_os/lib/libutee/tee_api_operations.c:722
    217a:	f7ff ff3b 	bl	1ff4 <TEE_SetOperationKey2>
    217e:	e7d0      	b.n	2122 <TEE_CopyOperation+0x3a>
/mnt/disk/raspbian-tee/optee_os/lib/libutee/tee_api_operations.c:739
    2180:	2b00      	cmp	r3, #0
    2182:	d0ef      	beq.n	2164 <TEE_CopyOperation+0x7c>
/mnt/disk/raspbian-tee/optee_os/lib/libutee/tee_api_operations.c:740
    2184:	f005 fcbb 	bl	7afe <TEE_Panic>
    2188:	e7ec      	b.n	2164 <TEE_CopyOperation+0x7c>
    218a:	bd38      	pop	{r3, r4, r5, pc}

0000218c <TEE_DigestUpdate>:
TEE_DigestUpdate():
/mnt/disk/raspbian-tee/optee_os/lib/libutee/tee_api_operations.c:768
    218c:	b570      	push	{r4, r5, r6, lr}
    218e:	460d      	mov	r5, r1
    2190:	4616      	mov	r6, r2
/mnt/disk/raspbian-tee/optee_os/lib/libutee/tee_api_operations.c:771
    2192:	4604      	mov	r4, r0
    2194:	b110      	cbz	r0, 219c <TEE_DigestUpdate+0x10>
/mnt/disk/raspbian-tee/optee_os/lib/libutee/tee_api_operations.c:771 (discriminator 1)
    2196:	6843      	ldr	r3, [r0, #4]
    2198:	2b05      	cmp	r3, #5
    219a:	d002      	beq.n	21a2 <TEE_DigestUpdate+0x16>
/mnt/disk/raspbian-tee/optee_os/lib/libutee/tee_api_operations.c:773
    219c:	2000      	movs	r0, #0
    219e:	f005 fcae 	bl	7afe <TEE_Panic>
/mnt/disk/raspbian-tee/optee_os/lib/libutee/tee_api_operations.c:775
    21a2:	2301      	movs	r3, #1
/mnt/disk/raspbian-tee/optee_os/lib/libutee/tee_api_operations.c:777
    21a4:	4632      	mov	r2, r6
/mnt/disk/raspbian-tee/optee_os/lib/libutee/tee_api_operations.c:775
    21a6:	62a3      	str	r3, [r4, #40]	; 0x28
/mnt/disk/raspbian-tee/optee_os/lib/libutee/tee_api_operations.c:777
    21a8:	4629      	mov	r1, r5
    21aa:	6be0      	ldr	r0, [r4, #60]	; 0x3c
    21ac:	f000 efa8 	blx	3100 <utee_hash_update>
/mnt/disk/raspbian-tee/optee_os/lib/libutee/tee_api_operations.c:778
    21b0:	b118      	cbz	r0, 21ba <TEE_DigestUpdate+0x2e>
/mnt/disk/raspbian-tee/optee_os/lib/libutee/tee_api_operations.c:780
    21b2:	e8bd 4070 	ldmia.w	sp!, {r4, r5, r6, lr}
/mnt/disk/raspbian-tee/optee_os/lib/libutee/tee_api_operations.c:779
    21b6:	f005 bca2 	b.w	7afe <TEE_Panic>
    21ba:	bd70      	pop	{r4, r5, r6, pc}

000021bc <TEE_DigestDoFinal>:
TEE_DigestDoFinal():
/mnt/disk/raspbian-tee/optee_os/lib/libutee/tee_api_operations.c:784
    21bc:	b530      	push	{r4, r5, lr}
/mnt/disk/raspbian-tee/optee_os/lib/libutee/tee_api_operations.c:788
    21be:	4605      	mov	r5, r0
/mnt/disk/raspbian-tee/optee_os/lib/libutee/tee_api_operations.c:784
    21c0:	b085      	sub	sp, #20
    21c2:	9c08      	ldr	r4, [sp, #32]
/mnt/disk/raspbian-tee/optee_os/lib/libutee/tee_api_operations.c:788
    21c4:	b328      	cbz	r0, 2212 <TEE_DigestDoFinal+0x56>
/mnt/disk/raspbian-tee/optee_os/lib/libutee/tee_api_operations.c:788 (discriminator 1)
    21c6:	b901      	cbnz	r1, 21ca <TEE_DigestDoFinal+0xe>
/mnt/disk/raspbian-tee/optee_os/lib/libutee/tee_api_operations.c:789
    21c8:	bb1a      	cbnz	r2, 2212 <TEE_DigestDoFinal+0x56>
/mnt/disk/raspbian-tee/optee_os/lib/libutee/tee_api_operations.c:789 (discriminator 1)
    21ca:	b313      	cbz	r3, 2212 <TEE_DigestDoFinal+0x56>
/mnt/disk/raspbian-tee/optee_os/lib/libutee/tee_api_operations.c:790
    21cc:	b30c      	cbz	r4, 2212 <TEE_DigestDoFinal+0x56>
/mnt/disk/raspbian-tee/optee_os/lib/libutee/tee_api_operations.c:791
    21ce:	6868      	ldr	r0, [r5, #4]
    21d0:	2805      	cmp	r0, #5
    21d2:	d11e      	bne.n	2212 <TEE_DigestDoFinal+0x56>
/mnt/disk/raspbian-tee/optee_os/lib/libutee/tee_api_operations.c:797
    21d4:	6820      	ldr	r0, [r4, #0]
    21d6:	9002      	str	r0, [sp, #8]
    21d8:	2000      	movs	r0, #0
    21da:	9003      	str	r0, [sp, #12]
/mnt/disk/raspbian-tee/optee_os/lib/libutee/tee_api_operations.c:798
    21dc:	a802      	add	r0, sp, #8
    21de:	9000      	str	r0, [sp, #0]
    21e0:	6be8      	ldr	r0, [r5, #60]	; 0x3c
    21e2:	f000 ef98 	blx	3114 <utee_hash_final>
/mnt/disk/raspbian-tee/optee_os/lib/libutee/tee_api_operations.c:799
    21e6:	9b02      	ldr	r3, [sp, #8]
    21e8:	6023      	str	r3, [r4, #0]
/mnt/disk/raspbian-tee/optee_os/lib/libutee/tee_api_operations.c:800
    21ea:	4604      	mov	r4, r0
    21ec:	b9b0      	cbnz	r0, 221c <TEE_DigestDoFinal+0x60>
init_hash_operation():
/mnt/disk/raspbian-tee/optee_os/lib/libutee/tee_api_operations.c:759
    21ee:	4602      	mov	r2, r0
    21f0:	4601      	mov	r1, r0
    21f2:	6be8      	ldr	r0, [r5, #60]	; 0x3c
    21f4:	f000 ef7a 	blx	30ec <utee_hash_init>
/mnt/disk/raspbian-tee/optee_os/lib/libutee/tee_api_operations.c:760
    21f8:	b108      	cbz	r0, 21fe <TEE_DigestDoFinal+0x42>
/mnt/disk/raspbian-tee/optee_os/lib/libutee/tee_api_operations.c:761
    21fa:	f005 fc80 	bl	7afe <TEE_Panic>
/mnt/disk/raspbian-tee/optee_os/lib/libutee/tee_api_operations.c:763
    21fe:	69eb      	ldr	r3, [r5, #28]
/mnt/disk/raspbian-tee/optee_os/lib/libutee/tee_api_operations.c:762
    2200:	2200      	movs	r2, #0
    2202:	63aa      	str	r2, [r5, #56]	; 0x38
/mnt/disk/raspbian-tee/optee_os/lib/libutee/tee_api_operations.c:763
    2204:	f443 3300 	orr.w	r3, r3, #131072	; 0x20000
TEE_DigestDoFinal():
/mnt/disk/raspbian-tee/optee_os/lib/libutee/tee_api_operations.c:806
    2208:	62aa      	str	r2, [r5, #40]	; 0x28
init_hash_operation():
/mnt/disk/raspbian-tee/optee_os/lib/libutee/tee_api_operations.c:763
    220a:	61eb      	str	r3, [r5, #28]
TEE_DigestDoFinal():
/mnt/disk/raspbian-tee/optee_os/lib/libutee/tee_api_operations.c:814
    220c:	4620      	mov	r0, r4
    220e:	b005      	add	sp, #20
    2210:	bd30      	pop	{r4, r5, pc}
    2212:	4c04      	ldr	r4, [pc, #16]	; (2224 <TEE_DigestDoFinal+0x68>)
/mnt/disk/raspbian-tee/optee_os/lib/libutee/tee_api_operations.c:811
    2214:	4620      	mov	r0, r4
    2216:	f005 fc72 	bl	7afe <TEE_Panic>
/mnt/disk/raspbian-tee/optee_os/lib/libutee/tee_api_operations.c:813
    221a:	e7f7      	b.n	220c <TEE_DigestDoFinal+0x50>
/mnt/disk/raspbian-tee/optee_os/lib/libutee/tee_api_operations.c:809
    221c:	4b02      	ldr	r3, [pc, #8]	; (2228 <TEE_DigestDoFinal+0x6c>)
    221e:	4298      	cmp	r0, r3
    2220:	d0f4      	beq.n	220c <TEE_DigestDoFinal+0x50>
    2222:	e7f7      	b.n	2214 <TEE_DigestDoFinal+0x58>
    2224:	ffff0006 	.word	0xffff0006
    2228:	ffff0010 	.word	0xffff0010

0000222c <TEE_CipherInit>:
TEE_CipherInit():
/mnt/disk/raspbian-tee/optee_os/lib/libutee/tee_api_operations.c:820
    222c:	b570      	push	{r4, r5, r6, lr}
    222e:	460d      	mov	r5, r1
    2230:	4616      	mov	r6, r2
/mnt/disk/raspbian-tee/optee_os/lib/libutee/tee_api_operations.c:823
    2232:	4604      	mov	r4, r0
    2234:	b908      	cbnz	r0, 223a <TEE_CipherInit+0xe>
/mnt/disk/raspbian-tee/optee_os/lib/libutee/tee_api_operations.c:824
    2236:	f005 fc62 	bl	7afe <TEE_Panic>
/mnt/disk/raspbian-tee/optee_os/lib/libutee/tee_api_operations.c:826
    223a:	6863      	ldr	r3, [r4, #4]
    223c:	2b01      	cmp	r3, #1
    223e:	d002      	beq.n	2246 <TEE_CipherInit+0x1a>
/mnt/disk/raspbian-tee/optee_os/lib/libutee/tee_api_operations.c:827
    2240:	2000      	movs	r0, #0
    2242:	f005 fc5c 	bl	7afe <TEE_Panic>
/mnt/disk/raspbian-tee/optee_os/lib/libutee/tee_api_operations.c:829
    2246:	69e3      	ldr	r3, [r4, #28]
    2248:	035b      	lsls	r3, r3, #13
    224a:	d501      	bpl.n	2250 <TEE_CipherInit+0x24>
/mnt/disk/raspbian-tee/optee_os/lib/libutee/tee_api_operations.c:829 (discriminator 1)
    224c:	6a23      	ldr	r3, [r4, #32]
    224e:	b913      	cbnz	r3, 2256 <TEE_CipherInit+0x2a>
/mnt/disk/raspbian-tee/optee_os/lib/libutee/tee_api_operations.c:831
    2250:	2000      	movs	r0, #0
    2252:	f005 fc54 	bl	7afe <TEE_Panic>
/mnt/disk/raspbian-tee/optee_os/lib/libutee/tee_api_operations.c:833
    2256:	6aa3      	ldr	r3, [r4, #40]	; 0x28
    2258:	b113      	cbz	r3, 2260 <TEE_CipherInit+0x34>
/mnt/disk/raspbian-tee/optee_os/lib/libutee/tee_api_operations.c:834
    225a:	4620      	mov	r0, r4
    225c:	f7ff fe64 	bl	1f28 <TEE_ResetOperation>
/mnt/disk/raspbian-tee/optee_os/lib/libutee/tee_api_operations.c:836
    2260:	2301      	movs	r3, #1
/mnt/disk/raspbian-tee/optee_os/lib/libutee/tee_api_operations.c:838
    2262:	4632      	mov	r2, r6
/mnt/disk/raspbian-tee/optee_os/lib/libutee/tee_api_operations.c:836
    2264:	62a3      	str	r3, [r4, #40]	; 0x28
/mnt/disk/raspbian-tee/optee_os/lib/libutee/tee_api_operations.c:838
    2266:	4629      	mov	r1, r5
    2268:	6be0      	ldr	r0, [r4, #60]	; 0x3c
    226a:	f000 ef60 	blx	312c <utee_cipher_init>
/mnt/disk/raspbian-tee/optee_os/lib/libutee/tee_api_operations.c:839
    226e:	b108      	cbz	r0, 2274 <TEE_CipherInit+0x48>
/mnt/disk/raspbian-tee/optee_os/lib/libutee/tee_api_operations.c:840
    2270:	f005 fc45 	bl	7afe <TEE_Panic>
/mnt/disk/raspbian-tee/optee_os/lib/libutee/tee_api_operations.c:842
    2274:	2300      	movs	r3, #0
    2276:	63a3      	str	r3, [r4, #56]	; 0x38
/mnt/disk/raspbian-tee/optee_os/lib/libutee/tee_api_operations.c:843
    2278:	69e3      	ldr	r3, [r4, #28]
    227a:	f443 3300 	orr.w	r3, r3, #131072	; 0x20000
    227e:	61e3      	str	r3, [r4, #28]
    2280:	bd70      	pop	{r4, r5, r6, pc}

00002282 <TEE_CipherUpdate>:
TEE_CipherUpdate():
/mnt/disk/raspbian-tee/optee_os/lib/libutee/tee_api_operations.c:946
    2282:	b5f0      	push	{r4, r5, r6, r7, lr}
    2284:	4f36      	ldr	r7, [pc, #216]	; (2360 <TEE_CipherUpdate+0xde>)
    2286:	b087      	sub	sp, #28
    2288:	447f      	add	r7, pc
    228a:	9d0c      	ldr	r5, [sp, #48]	; 0x30
/mnt/disk/raspbian-tee/optee_os/lib/libutee/tee_api_operations.c:951
    228c:	2800      	cmp	r0, #0
    228e:	d060      	beq.n	2352 <TEE_CipherUpdate+0xd0>
/mnt/disk/raspbian-tee/optee_os/lib/libutee/tee_api_operations.c:951 (discriminator 1)
    2290:	b909      	cbnz	r1, 2296 <TEE_CipherUpdate+0x14>
/mnt/disk/raspbian-tee/optee_os/lib/libutee/tee_api_operations.c:952
    2292:	2a00      	cmp	r2, #0
    2294:	d15d      	bne.n	2352 <TEE_CipherUpdate+0xd0>
/mnt/disk/raspbian-tee/optee_os/lib/libutee/tee_api_operations.c:952 (discriminator 1)
    2296:	2d00      	cmp	r5, #0
    2298:	d05b      	beq.n	2352 <TEE_CipherUpdate+0xd0>
/mnt/disk/raspbian-tee/optee_os/lib/libutee/tee_api_operations.c:953
    229a:	b913      	cbnz	r3, 22a2 <TEE_CipherUpdate+0x20>
/mnt/disk/raspbian-tee/optee_os/lib/libutee/tee_api_operations.c:954
    229c:	682c      	ldr	r4, [r5, #0]
    229e:	2c00      	cmp	r4, #0
    22a0:	d157      	bne.n	2352 <TEE_CipherUpdate+0xd0>
/mnt/disk/raspbian-tee/optee_os/lib/libutee/tee_api_operations.c:959
    22a2:	6844      	ldr	r4, [r0, #4]
    22a4:	2c01      	cmp	r4, #1
    22a6:	d154      	bne.n	2352 <TEE_CipherUpdate+0xd0>
/mnt/disk/raspbian-tee/optee_os/lib/libutee/tee_api_operations.c:964
    22a8:	69c4      	ldr	r4, [r0, #28]
    22aa:	03a4      	lsls	r4, r4, #14
    22ac:	d551      	bpl.n	2352 <TEE_CipherUpdate+0xd0>
/mnt/disk/raspbian-tee/optee_os/lib/libutee/tee_api_operations.c:969
    22ae:	6a84      	ldr	r4, [r0, #40]	; 0x28
    22b0:	2c01      	cmp	r4, #1
    22b2:	d14e      	bne.n	2352 <TEE_CipherUpdate+0xd0>
/mnt/disk/raspbian-tee/optee_os/lib/libutee/tee_api_operations.c:974
    22b4:	b929      	cbnz	r1, 22c2 <TEE_CipherUpdate+0x40>
/mnt/disk/raspbian-tee/optee_os/lib/libutee/tee_api_operations.c:974 (discriminator 1)
    22b6:	b922      	cbnz	r2, 22c2 <TEE_CipherUpdate+0x40>
/mnt/disk/raspbian-tee/optee_os/lib/libutee/tee_api_operations.c:976
    22b8:	4614      	mov	r4, r2
/mnt/disk/raspbian-tee/optee_os/lib/libutee/tee_api_operations.c:975
    22ba:	602a      	str	r2, [r5, #0]
/mnt/disk/raspbian-tee/optee_os/lib/libutee/tee_api_operations.c:1025
    22bc:	4620      	mov	r0, r4
    22be:	b007      	add	sp, #28
    22c0:	bdf0      	pop	{r4, r5, r6, r7, pc}
/mnt/disk/raspbian-tee/optee_os/lib/libutee/tee_api_operations.c:981
    22c2:	6b46      	ldr	r6, [r0, #52]	; 0x34
    22c4:	2e01      	cmp	r6, #1
    22c6:	d916      	bls.n	22f6 <TEE_CipherUpdate+0x74>
/mnt/disk/raspbian-tee/optee_os/lib/libutee/tee_api_operations.c:982
    22c8:	6b84      	ldr	r4, [r0, #56]	; 0x38
    22ca:	4414      	add	r4, r2
    22cc:	fbb4 f4f6 	udiv	r4, r4, r6
    22d0:	4374      	muls	r4, r6
/mnt/disk/raspbian-tee/optee_os/lib/libutee/tee_api_operations.c:987
    22d2:	f890 c030 	ldrb.w	ip, [r0, #48]	; 0x30
    22d6:	f1bc 0f00 	cmp.w	ip, #0
    22da:	d005      	beq.n	22e8 <TEE_CipherUpdate+0x66>
/mnt/disk/raspbian-tee/optee_os/lib/libutee/tee_api_operations.c:988
    22dc:	ea4f 0c46 	mov.w	ip, r6, lsl #1
    22e0:	4564      	cmp	r4, ip
    22e2:	d90a      	bls.n	22fa <TEE_CipherUpdate+0x78>
/mnt/disk/raspbian-tee/optee_os/lib/libutee/tee_api_operations.c:989
    22e4:	eba4 040c 	sub.w	r4, r4, ip
/mnt/disk/raspbian-tee/optee_os/lib/libutee/tee_api_operations.c:998
    22e8:	f8d5 c000 	ldr.w	ip, [r5]
    22ec:	4564      	cmp	r4, ip
    22ee:	d906      	bls.n	22fe <TEE_CipherUpdate+0x7c>
/mnt/disk/raspbian-tee/optee_os/lib/libutee/tee_api_operations.c:999
    22f0:	602c      	str	r4, [r5, #0]
    22f2:	4c19      	ldr	r4, [pc, #100]	; (2358 <TEE_CipherUpdate+0xd6>)
    22f4:	e7e2      	b.n	22bc <TEE_CipherUpdate+0x3a>
    22f6:	4614      	mov	r4, r2
    22f8:	e7eb      	b.n	22d2 <TEE_CipherUpdate+0x50>
/mnt/disk/raspbian-tee/optee_os/lib/libutee/tee_api_operations.c:991
    22fa:	2400      	movs	r4, #0
    22fc:	e7f4      	b.n	22e8 <TEE_CipherUpdate+0x66>
/mnt/disk/raspbian-tee/optee_os/lib/libutee/tee_api_operations.c:1004
    22fe:	2400      	movs	r4, #0
    2300:	f8cd c010 	str.w	ip, [sp, #16]
    2304:	9405      	str	r4, [sp, #20]
/mnt/disk/raspbian-tee/optee_os/lib/libutee/tee_api_operations.c:1005
    2306:	2e01      	cmp	r6, #1
    2308:	d916      	bls.n	2338 <TEE_CipherUpdate+0xb6>
/mnt/disk/raspbian-tee/optee_os/lib/libutee/tee_api_operations.c:1006
    230a:	4c16      	ldr	r4, [pc, #88]	; (2364 <TEE_CipherUpdate+0xe2>)
    230c:	593c      	ldr	r4, [r7, r4]
    230e:	9403      	str	r4, [sp, #12]
    2310:	ac04      	add	r4, sp, #16
    2312:	e88d 0018 	stmia.w	sp, {r3, r4}
    2316:	4613      	mov	r3, r2
    2318:	460a      	mov	r2, r1
    231a:	9903      	ldr	r1, [sp, #12]
    231c:	f7ff fa32 	bl	1784 <tee_buffer_update>
/mnt/disk/raspbian-tee/optee_os/lib/libutee/tee_api_operations.c:1010
    2320:	4604      	mov	r4, r0
/mnt/disk/raspbian-tee/optee_os/lib/libutee/tee_api_operations.c:1017
    2322:	9b04      	ldr	r3, [sp, #16]
    2324:	602b      	str	r3, [r5, #0]
/mnt/disk/raspbian-tee/optee_os/lib/libutee/tee_api_operations.c:1020
    2326:	2c00      	cmp	r4, #0
    2328:	d0c8      	beq.n	22bc <TEE_CipherUpdate+0x3a>
/mnt/disk/raspbian-tee/optee_os/lib/libutee/tee_api_operations.c:1020 (discriminator 1)
    232a:	4b0b      	ldr	r3, [pc, #44]	; (2358 <TEE_CipherUpdate+0xd6>)
    232c:	429c      	cmp	r4, r3
    232e:	d0c5      	beq.n	22bc <TEE_CipherUpdate+0x3a>
/mnt/disk/raspbian-tee/optee_os/lib/libutee/tee_api_operations.c:1022
    2330:	4620      	mov	r0, r4
    2332:	f005 fbe4 	bl	7afe <TEE_Panic>
/mnt/disk/raspbian-tee/optee_os/lib/libutee/tee_api_operations.c:1024
    2336:	e7c1      	b.n	22bc <TEE_CipherUpdate+0x3a>
/mnt/disk/raspbian-tee/optee_os/lib/libutee/tee_api_operations.c:1009
    2338:	b12a      	cbz	r2, 2346 <TEE_CipherUpdate+0xc4>
/mnt/disk/raspbian-tee/optee_os/lib/libutee/tee_api_operations.c:1010
    233a:	ac04      	add	r4, sp, #16
    233c:	9400      	str	r4, [sp, #0]
    233e:	6bc0      	ldr	r0, [r0, #60]	; 0x3c
    2340:	f000 eefe 	blx	3140 <utee_cipher_update>
    2344:	e7ec      	b.n	2320 <TEE_CipherUpdate+0x9e>
/mnt/disk/raspbian-tee/optee_os/lib/libutee/tee_api_operations.c:1014
    2346:	2000      	movs	r0, #0
    2348:	2100      	movs	r1, #0
/mnt/disk/raspbian-tee/optee_os/lib/libutee/tee_api_operations.c:1013
    234a:	4614      	mov	r4, r2
/mnt/disk/raspbian-tee/optee_os/lib/libutee/tee_api_operations.c:1014
    234c:	e9cd 0104 	strd	r0, r1, [sp, #16]
    2350:	e7e7      	b.n	2322 <TEE_CipherUpdate+0xa0>
    2352:	4c02      	ldr	r4, [pc, #8]	; (235c <TEE_CipherUpdate+0xda>)
    2354:	e7ec      	b.n	2330 <TEE_CipherUpdate+0xae>
    2356:	bf00      	nop
    2358:	ffff0010 	.word	0xffff0010
    235c:	ffff0006 	.word	0xffff0006
    2360:	00007208 	.word	0x00007208
    2364:	0000002c 	.word	0x0000002c

00002368 <TEE_CipherDoFinal>:
TEE_CipherDoFinal():
/mnt/disk/raspbian-tee/optee_os/lib/libutee/tee_api_operations.c:1030
    2368:	e92d 43f0 	stmdb	sp!, {r4, r5, r6, r7, r8, r9, lr}
    236c:	4698      	mov	r8, r3
    236e:	4c40      	ldr	r4, [pc, #256]	; (2470 <TEE_CipherDoFinal+0x108>)
    2370:	b087      	sub	sp, #28
/mnt/disk/raspbian-tee/optee_os/lib/libutee/tee_api_operations.c:1037
    2372:	4605      	mov	r5, r0
/mnt/disk/raspbian-tee/optee_os/lib/libutee/tee_api_operations.c:1030
    2374:	447c      	add	r4, pc
    2376:	9f0e      	ldr	r7, [sp, #56]	; 0x38
/mnt/disk/raspbian-tee/optee_os/lib/libutee/tee_api_operations.c:1037
    2378:	2800      	cmp	r0, #0
    237a:	d069      	beq.n	2450 <TEE_CipherDoFinal+0xe8>
/mnt/disk/raspbian-tee/optee_os/lib/libutee/tee_api_operations.c:1037 (discriminator 1)
    237c:	b909      	cbnz	r1, 2382 <TEE_CipherDoFinal+0x1a>
/mnt/disk/raspbian-tee/optee_os/lib/libutee/tee_api_operations.c:1038
    237e:	2a00      	cmp	r2, #0
    2380:	d166      	bne.n	2450 <TEE_CipherDoFinal+0xe8>
/mnt/disk/raspbian-tee/optee_os/lib/libutee/tee_api_operations.c:1038 (discriminator 1)
    2382:	2f00      	cmp	r7, #0
    2384:	d064      	beq.n	2450 <TEE_CipherDoFinal+0xe8>
/mnt/disk/raspbian-tee/optee_os/lib/libutee/tee_api_operations.c:1039
    2386:	f1b8 0f00 	cmp.w	r8, #0
    238a:	d102      	bne.n	2392 <TEE_CipherDoFinal+0x2a>
/mnt/disk/raspbian-tee/optee_os/lib/libutee/tee_api_operations.c:1040
    238c:	683b      	ldr	r3, [r7, #0]
    238e:	2b00      	cmp	r3, #0
    2390:	d15e      	bne.n	2450 <TEE_CipherDoFinal+0xe8>
/mnt/disk/raspbian-tee/optee_os/lib/libutee/tee_api_operations.c:1045
    2392:	686b      	ldr	r3, [r5, #4]
    2394:	2b01      	cmp	r3, #1
    2396:	d15b      	bne.n	2450 <TEE_CipherDoFinal+0xe8>
/mnt/disk/raspbian-tee/optee_os/lib/libutee/tee_api_operations.c:1050
    2398:	69eb      	ldr	r3, [r5, #28]
    239a:	039b      	lsls	r3, r3, #14
    239c:	d558      	bpl.n	2450 <TEE_CipherDoFinal+0xe8>
/mnt/disk/raspbian-tee/optee_os/lib/libutee/tee_api_operations.c:1055
    239e:	6aab      	ldr	r3, [r5, #40]	; 0x28
    23a0:	2b01      	cmp	r3, #1
    23a2:	d155      	bne.n	2450 <TEE_CipherDoFinal+0xe8>
/mnt/disk/raspbian-tee/optee_os/lib/libutee/tee_api_operations.c:1064
    23a4:	682b      	ldr	r3, [r5, #0]
    23a6:	f423 7380 	bic.w	r3, r3, #256	; 0x100
    23aa:	f103 4070 	add.w	r0, r3, #4026531840	; 0xf0000000
    23ae:	3810      	subs	r0, #16
    23b0:	2801      	cmp	r0, #1
    23b2:	6b68      	ldr	r0, [r5, #52]	; 0x34
    23b4:	d902      	bls.n	23bc <TEE_CipherDoFinal+0x54>
/mnt/disk/raspbian-tee/optee_os/lib/libutee/tee_api_operations.c:1067 (discriminator 1)
    23b6:	4e2b      	ldr	r6, [pc, #172]	; (2464 <TEE_CipherDoFinal+0xfc>)
    23b8:	42b3      	cmp	r3, r6
    23ba:	d107      	bne.n	23cc <TEE_CipherDoFinal+0x64>
/mnt/disk/raspbian-tee/optee_os/lib/libutee/tee_api_operations.c:1070
    23bc:	6bab      	ldr	r3, [r5, #56]	; 0x38
    23be:	4413      	add	r3, r2
    23c0:	fbb3 f6f0 	udiv	r6, r3, r0
    23c4:	fb00 3316 	mls	r3, r0, r6, r3
    23c8:	2b00      	cmp	r3, #0
    23ca:	d141      	bne.n	2450 <TEE_CipherDoFinal+0xe8>
/mnt/disk/raspbian-tee/optee_os/lib/libutee/tee_api_operations.c:1082
    23cc:	2801      	cmp	r0, #1
    23ce:	d90b      	bls.n	23e8 <TEE_CipherDoFinal+0x80>
/mnt/disk/raspbian-tee/optee_os/lib/libutee/tee_api_operations.c:1083
    23d0:	6bab      	ldr	r3, [r5, #56]	; 0x38
    23d2:	4413      	add	r3, r2
/mnt/disk/raspbian-tee/optee_os/lib/libutee/tee_api_operations.c:1087
    23d4:	f8d7 c000 	ldr.w	ip, [r7]
    23d8:	4563      	cmp	r3, ip
    23da:	d907      	bls.n	23ec <TEE_CipherDoFinal+0x84>
/mnt/disk/raspbian-tee/optee_os/lib/libutee/tee_api_operations.c:1088
    23dc:	4c22      	ldr	r4, [pc, #136]	; (2468 <TEE_CipherDoFinal+0x100>)
    23de:	603b      	str	r3, [r7, #0]
/mnt/disk/raspbian-tee/optee_os/lib/libutee/tee_api_operations.c:1126
    23e0:	4620      	mov	r0, r4
    23e2:	b007      	add	sp, #28
    23e4:	e8bd 83f0 	ldmia.w	sp!, {r4, r5, r6, r7, r8, r9, pc}
    23e8:	4613      	mov	r3, r2
    23ea:	e7f3      	b.n	23d4 <TEE_CipherDoFinal+0x6c>
/mnt/disk/raspbian-tee/optee_os/lib/libutee/tee_api_operations.c:1093
    23ec:	2600      	movs	r6, #0
    23ee:	f8cd c010 	str.w	ip, [sp, #16]
    23f2:	9605      	str	r6, [sp, #20]
/mnt/disk/raspbian-tee/optee_os/lib/libutee/tee_api_operations.c:1094
    23f4:	2801      	cmp	r0, #1
    23f6:	f10d 0910 	add.w	r9, sp, #16
    23fa:	d925      	bls.n	2448 <TEE_CipherDoFinal+0xe0>
/mnt/disk/raspbian-tee/optee_os/lib/libutee/tee_api_operations.c:1095
    23fc:	4b1d      	ldr	r3, [pc, #116]	; (2474 <TEE_CipherDoFinal+0x10c>)
    23fe:	4628      	mov	r0, r5
    2400:	58e3      	ldr	r3, [r4, r3]
    2402:	9303      	str	r3, [sp, #12]
    2404:	4613      	mov	r3, r2
    2406:	e88d 0300 	stmia.w	sp, {r8, r9}
    240a:	460a      	mov	r2, r1
    240c:	9903      	ldr	r1, [sp, #12]
    240e:	f7ff f9b9 	bl	1784 <tee_buffer_update>
/mnt/disk/raspbian-tee/optee_os/lib/libutee/tee_api_operations.c:1097
    2412:	4604      	mov	r4, r0
    2414:	bb08      	cbnz	r0, 245a <TEE_CipherDoFinal+0xf2>
/mnt/disk/raspbian-tee/optee_os/lib/libutee/tee_api_operations.c:1103
    2416:	683b      	ldr	r3, [r7, #0]
/mnt/disk/raspbian-tee/optee_os/lib/libutee/tee_api_operations.c:1104
    2418:	f8cd 9000 	str.w	r9, [sp]
/mnt/disk/raspbian-tee/optee_os/lib/libutee/tee_api_operations.c:1100
    241c:	9e04      	ldr	r6, [sp, #16]
/mnt/disk/raspbian-tee/optee_os/lib/libutee/tee_api_operations.c:1104
    241e:	6baa      	ldr	r2, [r5, #56]	; 0x38
    2420:	6ae9      	ldr	r1, [r5, #44]	; 0x2c
/mnt/disk/raspbian-tee/optee_os/lib/libutee/tee_api_operations.c:1103
    2422:	1b9b      	subs	r3, r3, r6
    2424:	9304      	str	r3, [sp, #16]
/mnt/disk/raspbian-tee/optee_os/lib/libutee/tee_api_operations.c:1104
    2426:	eb08 0306 	add.w	r3, r8, r6
/mnt/disk/raspbian-tee/optee_os/lib/libutee/tee_api_operations.c:1103
    242a:	9005      	str	r0, [sp, #20]
/mnt/disk/raspbian-tee/optee_os/lib/libutee/tee_api_operations.c:1107
    242c:	6be8      	ldr	r0, [r5, #60]	; 0x3c
    242e:	f000 ee94 	blx	3158 <utee_cipher_final>
    2432:	4604      	mov	r4, r0
/mnt/disk/raspbian-tee/optee_os/lib/libutee/tee_api_operations.c:1110
    2434:	b988      	cbnz	r0, 245a <TEE_CipherDoFinal+0xf2>
/mnt/disk/raspbian-tee/optee_os/lib/libutee/tee_api_operations.c:1113
    2436:	9b04      	ldr	r3, [sp, #16]
    2438:	441e      	add	r6, r3
/mnt/disk/raspbian-tee/optee_os/lib/libutee/tee_api_operations.c:1114
    243a:	603e      	str	r6, [r7, #0]
/mnt/disk/raspbian-tee/optee_os/lib/libutee/tee_api_operations.c:1118
    243c:	62a8      	str	r0, [r5, #40]	; 0x28
/mnt/disk/raspbian-tee/optee_os/lib/libutee/tee_api_operations.c:1116
    243e:	69eb      	ldr	r3, [r5, #28]
    2440:	f423 3300 	bic.w	r3, r3, #131072	; 0x20000
    2444:	61eb      	str	r3, [r5, #28]
    2446:	e7cb      	b.n	23e0 <TEE_CipherDoFinal+0x78>
/mnt/disk/raspbian-tee/optee_os/lib/libutee/tee_api_operations.c:1107
    2448:	f8cd 9000 	str.w	r9, [sp]
    244c:	4643      	mov	r3, r8
    244e:	e7ed      	b.n	242c <TEE_CipherDoFinal+0xc4>
    2450:	4c06      	ldr	r4, [pc, #24]	; (246c <TEE_CipherDoFinal+0x104>)
/mnt/disk/raspbian-tee/optee_os/lib/libutee/tee_api_operations.c:1123
    2452:	4620      	mov	r0, r4
    2454:	f005 fb53 	bl	7afe <TEE_Panic>
/mnt/disk/raspbian-tee/optee_os/lib/libutee/tee_api_operations.c:1125
    2458:	e7c2      	b.n	23e0 <TEE_CipherDoFinal+0x78>
/mnt/disk/raspbian-tee/optee_os/lib/libutee/tee_api_operations.c:1121
    245a:	4b03      	ldr	r3, [pc, #12]	; (2468 <TEE_CipherDoFinal+0x100>)
    245c:	429c      	cmp	r4, r3
    245e:	d0bf      	beq.n	23e0 <TEE_CipherDoFinal+0x78>
    2460:	e7f7      	b.n	2452 <TEE_CipherDoFinal+0xea>
    2462:	bf00      	nop
    2464:	10000013 	.word	0x10000013
    2468:	ffff0010 	.word	0xffff0010
    246c:	ffff0006 	.word	0xffff0006
    2470:	0000711c 	.word	0x0000711c
    2474:	0000002c 	.word	0x0000002c

00002478 <TEE_MACInit>:
TEE_MACInit():
/mnt/disk/raspbian-tee/optee_os/lib/libutee/tee_api_operations.c:1131
    2478:	b570      	push	{r4, r5, r6, lr}
    247a:	460d      	mov	r5, r1
    247c:	4616      	mov	r6, r2
/mnt/disk/raspbian-tee/optee_os/lib/libutee/tee_api_operations.c:1132
    247e:	4604      	mov	r4, r0
    2480:	b908      	cbnz	r0, 2486 <TEE_MACInit+0xe>
/mnt/disk/raspbian-tee/optee_os/lib/libutee/tee_api_operations.c:1133
    2482:	f005 fb3c 	bl	7afe <TEE_Panic>
/mnt/disk/raspbian-tee/optee_os/lib/libutee/tee_api_operations.c:1135
    2486:	6863      	ldr	r3, [r4, #4]
    2488:	2b03      	cmp	r3, #3
    248a:	d002      	beq.n	2492 <TEE_MACInit+0x1a>
/mnt/disk/raspbian-tee/optee_os/lib/libutee/tee_api_operations.c:1136
    248c:	2000      	movs	r0, #0
    248e:	f005 fb36 	bl	7afe <TEE_Panic>
/mnt/disk/raspbian-tee/optee_os/lib/libutee/tee_api_operations.c:1138
    2492:	69e3      	ldr	r3, [r4, #28]
    2494:	035b      	lsls	r3, r3, #13
    2496:	d501      	bpl.n	249c <TEE_MACInit+0x24>
/mnt/disk/raspbian-tee/optee_os/lib/libutee/tee_api_operations.c:1138 (discriminator 1)
    2498:	6a23      	ldr	r3, [r4, #32]
    249a:	b913      	cbnz	r3, 24a2 <TEE_MACInit+0x2a>
/mnt/disk/raspbian-tee/optee_os/lib/libutee/tee_api_operations.c:1140
    249c:	2000      	movs	r0, #0
    249e:	f005 fb2e 	bl	7afe <TEE_Panic>
/mnt/disk/raspbian-tee/optee_os/lib/libutee/tee_api_operations.c:1142
    24a2:	6aa3      	ldr	r3, [r4, #40]	; 0x28
    24a4:	b113      	cbz	r3, 24ac <TEE_MACInit+0x34>
/mnt/disk/raspbian-tee/optee_os/lib/libutee/tee_api_operations.c:1143
    24a6:	4620      	mov	r0, r4
    24a8:	f7ff fd3e 	bl	1f28 <TEE_ResetOperation>
/mnt/disk/raspbian-tee/optee_os/lib/libutee/tee_api_operations.c:1145
    24ac:	2301      	movs	r3, #1
init_hash_operation():
/mnt/disk/raspbian-tee/optee_os/lib/libutee/tee_api_operations.c:759
    24ae:	4632      	mov	r2, r6
TEE_MACInit():
/mnt/disk/raspbian-tee/optee_os/lib/libutee/tee_api_operations.c:1145
    24b0:	62a3      	str	r3, [r4, #40]	; 0x28
init_hash_operation():
/mnt/disk/raspbian-tee/optee_os/lib/libutee/tee_api_operations.c:759
    24b2:	4629      	mov	r1, r5
    24b4:	6be0      	ldr	r0, [r4, #60]	; 0x3c
    24b6:	f000 ee1a 	blx	30ec <utee_hash_init>
/mnt/disk/raspbian-tee/optee_os/lib/libutee/tee_api_operations.c:760
    24ba:	b108      	cbz	r0, 24c0 <TEE_MACInit+0x48>
/mnt/disk/raspbian-tee/optee_os/lib/libutee/tee_api_operations.c:761
    24bc:	f005 fb1f 	bl	7afe <TEE_Panic>
/mnt/disk/raspbian-tee/optee_os/lib/libutee/tee_api_operations.c:762
    24c0:	2300      	movs	r3, #0
    24c2:	63a3      	str	r3, [r4, #56]	; 0x38
/mnt/disk/raspbian-tee/optee_os/lib/libutee/tee_api_operations.c:763
    24c4:	69e3      	ldr	r3, [r4, #28]
    24c6:	f443 3300 	orr.w	r3, r3, #131072	; 0x20000
    24ca:	61e3      	str	r3, [r4, #28]
    24cc:	bd70      	pop	{r4, r5, r6, pc}

000024ce <TEE_MACUpdate>:
TEE_MACUpdate():
/mnt/disk/raspbian-tee/optee_os/lib/libutee/tee_api_operations.c:1152
    24ce:	b570      	push	{r4, r5, r6, lr}
    24d0:	460d      	mov	r5, r1
    24d2:	4616      	mov	r6, r2
/mnt/disk/raspbian-tee/optee_os/lib/libutee/tee_api_operations.c:1155
    24d4:	4604      	mov	r4, r0
    24d6:	b108      	cbz	r0, 24dc <TEE_MACUpdate+0xe>
/mnt/disk/raspbian-tee/optee_os/lib/libutee/tee_api_operations.c:1155 (discriminator 1)
    24d8:	b919      	cbnz	r1, 24e2 <TEE_MACUpdate+0x14>
/mnt/disk/raspbian-tee/optee_os/lib/libutee/tee_api_operations.c:1155 (discriminator 2)
    24da:	b112      	cbz	r2, 24e2 <TEE_MACUpdate+0x14>
/mnt/disk/raspbian-tee/optee_os/lib/libutee/tee_api_operations.c:1156
    24dc:	2000      	movs	r0, #0
    24de:	f005 fb0e 	bl	7afe <TEE_Panic>
/mnt/disk/raspbian-tee/optee_os/lib/libutee/tee_api_operations.c:1158
    24e2:	6863      	ldr	r3, [r4, #4]
    24e4:	2b03      	cmp	r3, #3
    24e6:	d002      	beq.n	24ee <TEE_MACUpdate+0x20>
/mnt/disk/raspbian-tee/optee_os/lib/libutee/tee_api_operations.c:1159
    24e8:	2000      	movs	r0, #0
    24ea:	f005 fb08 	bl	7afe <TEE_Panic>
/mnt/disk/raspbian-tee/optee_os/lib/libutee/tee_api_operations.c:1161
    24ee:	69e0      	ldr	r0, [r4, #28]
    24f0:	f410 3000 	ands.w	r0, r0, #131072	; 0x20000
    24f4:	d101      	bne.n	24fa <TEE_MACUpdate+0x2c>
/mnt/disk/raspbian-tee/optee_os/lib/libutee/tee_api_operations.c:1162
    24f6:	f005 fb02 	bl	7afe <TEE_Panic>
/mnt/disk/raspbian-tee/optee_os/lib/libutee/tee_api_operations.c:1164
    24fa:	6aa3      	ldr	r3, [r4, #40]	; 0x28
    24fc:	2b01      	cmp	r3, #1
    24fe:	d002      	beq.n	2506 <TEE_MACUpdate+0x38>
/mnt/disk/raspbian-tee/optee_os/lib/libutee/tee_api_operations.c:1165
    2500:	2000      	movs	r0, #0
    2502:	f005 fafc 	bl	7afe <TEE_Panic>
/mnt/disk/raspbian-tee/optee_os/lib/libutee/tee_api_operations.c:1167
    2506:	4632      	mov	r2, r6
    2508:	4629      	mov	r1, r5
    250a:	6be0      	ldr	r0, [r4, #60]	; 0x3c
    250c:	f000 edf8 	blx	3100 <utee_hash_update>
/mnt/disk/raspbian-tee/optee_os/lib/libutee/tee_api_operations.c:1168
    2510:	b118      	cbz	r0, 251a <TEE_MACUpdate+0x4c>
/mnt/disk/raspbian-tee/optee_os/lib/libutee/tee_api_operations.c:1170
    2512:	e8bd 4070 	ldmia.w	sp!, {r4, r5, r6, lr}
/mnt/disk/raspbian-tee/optee_os/lib/libutee/tee_api_operations.c:1169
    2516:	f005 baf2 	b.w	7afe <TEE_Panic>
    251a:	bd70      	pop	{r4, r5, r6, pc}

0000251c <TEE_MACComputeFinal>:
TEE_MACComputeFinal():
/mnt/disk/raspbian-tee/optee_os/lib/libutee/tee_api_operations.c:1175
    251c:	b530      	push	{r4, r5, lr}
/mnt/disk/raspbian-tee/optee_os/lib/libutee/tee_api_operations.c:1179
    251e:	4605      	mov	r5, r0
/mnt/disk/raspbian-tee/optee_os/lib/libutee/tee_api_operations.c:1175
    2520:	b085      	sub	sp, #20
    2522:	9c08      	ldr	r4, [sp, #32]
/mnt/disk/raspbian-tee/optee_os/lib/libutee/tee_api_operations.c:1179
    2524:	b308      	cbz	r0, 256a <TEE_MACComputeFinal+0x4e>
/mnt/disk/raspbian-tee/optee_os/lib/libutee/tee_api_operations.c:1179 (discriminator 1)
    2526:	b901      	cbnz	r1, 252a <TEE_MACComputeFinal+0xe>
/mnt/disk/raspbian-tee/optee_os/lib/libutee/tee_api_operations.c:1180
    2528:	b9fa      	cbnz	r2, 256a <TEE_MACComputeFinal+0x4e>
/mnt/disk/raspbian-tee/optee_os/lib/libutee/tee_api_operations.c:1180 (discriminator 1)
    252a:	b1f3      	cbz	r3, 256a <TEE_MACComputeFinal+0x4e>
/mnt/disk/raspbian-tee/optee_os/lib/libutee/tee_api_operations.c:1181
    252c:	b1ec      	cbz	r4, 256a <TEE_MACComputeFinal+0x4e>
/mnt/disk/raspbian-tee/optee_os/lib/libutee/tee_api_operations.c:1187
    252e:	6868      	ldr	r0, [r5, #4]
    2530:	2803      	cmp	r0, #3
    2532:	d11a      	bne.n	256a <TEE_MACComputeFinal+0x4e>
/mnt/disk/raspbian-tee/optee_os/lib/libutee/tee_api_operations.c:1192
    2534:	69e8      	ldr	r0, [r5, #28]
    2536:	0380      	lsls	r0, r0, #14
    2538:	d517      	bpl.n	256a <TEE_MACComputeFinal+0x4e>
/mnt/disk/raspbian-tee/optee_os/lib/libutee/tee_api_operations.c:1197
    253a:	6aa8      	ldr	r0, [r5, #40]	; 0x28
    253c:	2801      	cmp	r0, #1
    253e:	d114      	bne.n	256a <TEE_MACComputeFinal+0x4e>
/mnt/disk/raspbian-tee/optee_os/lib/libutee/tee_api_operations.c:1202
    2540:	6820      	ldr	r0, [r4, #0]
    2542:	9002      	str	r0, [sp, #8]
    2544:	2000      	movs	r0, #0
    2546:	9003      	str	r0, [sp, #12]
/mnt/disk/raspbian-tee/optee_os/lib/libutee/tee_api_operations.c:1203
    2548:	a802      	add	r0, sp, #8
    254a:	9000      	str	r0, [sp, #0]
    254c:	6be8      	ldr	r0, [r5, #60]	; 0x3c
    254e:	f000 ede2 	blx	3114 <utee_hash_final>
/mnt/disk/raspbian-tee/optee_os/lib/libutee/tee_api_operations.c:1204
    2552:	9b02      	ldr	r3, [sp, #8]
    2554:	6023      	str	r3, [r4, #0]
/mnt/disk/raspbian-tee/optee_os/lib/libutee/tee_api_operations.c:1205
    2556:	4604      	mov	r4, r0
    2558:	b960      	cbnz	r0, 2574 <TEE_MACComputeFinal+0x58>
/mnt/disk/raspbian-tee/optee_os/lib/libutee/tee_api_operations.c:1208
    255a:	69eb      	ldr	r3, [r5, #28]
/mnt/disk/raspbian-tee/optee_os/lib/libutee/tee_api_operations.c:1210
    255c:	62a8      	str	r0, [r5, #40]	; 0x28
/mnt/disk/raspbian-tee/optee_os/lib/libutee/tee_api_operations.c:1208
    255e:	f423 3300 	bic.w	r3, r3, #131072	; 0x20000
    2562:	61eb      	str	r3, [r5, #28]
/mnt/disk/raspbian-tee/optee_os/lib/libutee/tee_api_operations.c:1218
    2564:	4620      	mov	r0, r4
    2566:	b005      	add	sp, #20
    2568:	bd30      	pop	{r4, r5, pc}
    256a:	4c04      	ldr	r4, [pc, #16]	; (257c <TEE_MACComputeFinal+0x60>)
/mnt/disk/raspbian-tee/optee_os/lib/libutee/tee_api_operations.c:1215
    256c:	4620      	mov	r0, r4
    256e:	f005 fac6 	bl	7afe <TEE_Panic>
/mnt/disk/raspbian-tee/optee_os/lib/libutee/tee_api_operations.c:1217
    2572:	e7f7      	b.n	2564 <TEE_MACComputeFinal+0x48>
/mnt/disk/raspbian-tee/optee_os/lib/libutee/tee_api_operations.c:1213
    2574:	4b02      	ldr	r3, [pc, #8]	; (2580 <TEE_MACComputeFinal+0x64>)
    2576:	4298      	cmp	r0, r3
    2578:	d0f4      	beq.n	2564 <TEE_MACComputeFinal+0x48>
    257a:	e7f7      	b.n	256c <TEE_MACComputeFinal+0x50>
    257c:	ffff0006 	.word	0xffff0006
    2580:	ffff0010 	.word	0xffff0010

00002584 <TEE_MACCompareFinal>:
TEE_MACCompareFinal():
/mnt/disk/raspbian-tee/optee_os/lib/libutee/tee_api_operations.c:1223
    2584:	b5f0      	push	{r4, r5, r6, r7, lr}
    2586:	461f      	mov	r7, r3
/mnt/disk/raspbian-tee/optee_os/lib/libutee/tee_api_operations.c:1226
    2588:	2340      	movs	r3, #64	; 0x40
/mnt/disk/raspbian-tee/optee_os/lib/libutee/tee_api_operations.c:1223
    258a:	b095      	sub	sp, #84	; 0x54
    258c:	4605      	mov	r5, r0
/mnt/disk/raspbian-tee/optee_os/lib/libutee/tee_api_operations.c:1226
    258e:	9303      	str	r3, [sp, #12]
/mnt/disk/raspbian-tee/optee_os/lib/libutee/tee_api_operations.c:1228
    2590:	6843      	ldr	r3, [r0, #4]
    2592:	2b03      	cmp	r3, #3
    2594:	d11a      	bne.n	25cc <TEE_MACCompareFinal+0x48>
/mnt/disk/raspbian-tee/optee_os/lib/libutee/tee_api_operations.c:1233
    2596:	69c3      	ldr	r3, [r0, #28]
    2598:	039b      	lsls	r3, r3, #14
    259a:	d517      	bpl.n	25cc <TEE_MACCompareFinal+0x48>
/mnt/disk/raspbian-tee/optee_os/lib/libutee/tee_api_operations.c:1238
    259c:	6a83      	ldr	r3, [r0, #40]	; 0x28
    259e:	2b01      	cmp	r3, #1
    25a0:	d114      	bne.n	25cc <TEE_MACCompareFinal+0x48>
/mnt/disk/raspbian-tee/optee_os/lib/libutee/tee_api_operations.c:1243
    25a2:	ae04      	add	r6, sp, #16
    25a4:	ab03      	add	r3, sp, #12
    25a6:	9300      	str	r3, [sp, #0]
    25a8:	4633      	mov	r3, r6
    25aa:	f7ff ffb7 	bl	251c <TEE_MACComputeFinal>
/mnt/disk/raspbian-tee/optee_os/lib/libutee/tee_api_operations.c:1245
    25ae:	4604      	mov	r4, r0
    25b0:	b988      	cbnz	r0, 25d6 <TEE_MACCompareFinal+0x52>
/mnt/disk/raspbian-tee/optee_os/lib/libutee/tee_api_operations.c:1248
    25b2:	9a03      	ldr	r2, [sp, #12]
    25b4:	9b1a      	ldr	r3, [sp, #104]	; 0x68
    25b6:	429a      	cmp	r2, r3
    25b8:	d110      	bne.n	25dc <TEE_MACCompareFinal+0x58>
/mnt/disk/raspbian-tee/optee_os/lib/libutee/tee_api_operations.c:1253
    25ba:	4631      	mov	r1, r6
    25bc:	4638      	mov	r0, r7
    25be:	f005 faf2 	bl	7ba6 <buf_compare_ct>
    25c2:	b958      	cbnz	r0, 25dc <TEE_MACCompareFinal+0x58>
/mnt/disk/raspbian-tee/optee_os/lib/libutee/tee_api_operations.c:1258
    25c4:	62ac      	str	r4, [r5, #40]	; 0x28
/mnt/disk/raspbian-tee/optee_os/lib/libutee/tee_api_operations.c:1266
    25c6:	4620      	mov	r0, r4
    25c8:	b015      	add	sp, #84	; 0x54
    25ca:	bdf0      	pop	{r4, r5, r6, r7, pc}
    25cc:	4c04      	ldr	r4, [pc, #16]	; (25e0 <TEE_MACCompareFinal+0x5c>)
/mnt/disk/raspbian-tee/optee_os/lib/libutee/tee_api_operations.c:1263
    25ce:	4620      	mov	r0, r4
    25d0:	f005 fa95 	bl	7afe <TEE_Panic>
/mnt/disk/raspbian-tee/optee_os/lib/libutee/tee_api_operations.c:1265
    25d4:	e7f7      	b.n	25c6 <TEE_MACCompareFinal+0x42>
/mnt/disk/raspbian-tee/optee_os/lib/libutee/tee_api_operations.c:1261
    25d6:	4b03      	ldr	r3, [pc, #12]	; (25e4 <TEE_MACCompareFinal+0x60>)
    25d8:	4298      	cmp	r0, r3
    25da:	d1f8      	bne.n	25ce <TEE_MACCompareFinal+0x4a>
    25dc:	4c01      	ldr	r4, [pc, #4]	; (25e4 <TEE_MACCompareFinal+0x60>)
    25de:	e7f2      	b.n	25c6 <TEE_MACCompareFinal+0x42>
    25e0:	ffff0006 	.word	0xffff0006
    25e4:	ffff3071 	.word	0xffff3071

000025e8 <TEE_AEInit>:
TEE_AEInit():
/mnt/disk/raspbian-tee/optee_os/lib/libutee/tee_api_operations.c:1273
    25e8:	b573      	push	{r0, r1, r4, r5, r6, lr}
/mnt/disk/raspbian-tee/optee_os/lib/libutee/tee_api_operations.c:1276
    25ea:	4605      	mov	r5, r0
    25ec:	b320      	cbz	r0, 2638 <TEE_AEInit+0x50>
/mnt/disk/raspbian-tee/optee_os/lib/libutee/tee_api_operations.c:1276 (discriminator 1)
    25ee:	b319      	cbz	r1, 2638 <TEE_AEInit+0x50>
/mnt/disk/raspbian-tee/optee_os/lib/libutee/tee_api_operations.c:1281
    25f0:	6840      	ldr	r0, [r0, #4]
    25f2:	2804      	cmp	r0, #4
    25f4:	d120      	bne.n	2638 <TEE_AEInit+0x50>
/mnt/disk/raspbian-tee/optee_os/lib/libutee/tee_api_operations.c:1286
    25f6:	6aa8      	ldr	r0, [r5, #40]	; 0x28
    25f8:	b9f0      	cbnz	r0, 2638 <TEE_AEInit+0x50>
/mnt/disk/raspbian-tee/optee_os/lib/libutee/tee_api_operations.c:1297
    25fa:	682c      	ldr	r4, [r5, #0]
    25fc:	4813      	ldr	r0, [pc, #76]	; (264c <TEE_AEInit+0x64>)
    25fe:	4284      	cmp	r4, r0
    2600:	d109      	bne.n	2616 <TEE_AEInit+0x2e>
/mnt/disk/raspbian-tee/optee_os/lib/libutee/tee_api_operations.c:1301
    2602:	f1a3 0060 	sub.w	r0, r3, #96	; 0x60
    2606:	2820      	cmp	r0, #32
    2608:	d903      	bls.n	2612 <TEE_AEInit+0x2a>
    260a:	4c11      	ldr	r4, [pc, #68]	; (2650 <TEE_AEInit+0x68>)
/mnt/disk/raspbian-tee/optee_os/lib/libutee/tee_api_operations.c:1321
    260c:	4620      	mov	r0, r4
    260e:	b002      	add	sp, #8
    2610:	bd70      	pop	{r4, r5, r6, pc}
/mnt/disk/raspbian-tee/optee_os/lib/libutee/tee_api_operations.c:1301 (discriminator 1)
    2612:	0758      	lsls	r0, r3, #29
    2614:	d1f9      	bne.n	260a <TEE_AEInit+0x22>
/mnt/disk/raspbian-tee/optee_os/lib/libutee/tee_api_operations.c:1307
    2616:	08de      	lsrs	r6, r3, #3
    2618:	9b07      	ldr	r3, [sp, #28]
    261a:	9301      	str	r3, [sp, #4]
    261c:	9b06      	ldr	r3, [sp, #24]
    261e:	9300      	str	r3, [sp, #0]
    2620:	4633      	mov	r3, r6
    2622:	6be8      	ldr	r0, [r5, #60]	; 0x3c
    2624:	f000 ee08 	blx	3238 <utee_authenc_init>
/mnt/disk/raspbian-tee/optee_os/lib/libutee/tee_api_operations.c:1309
    2628:	4604      	mov	r4, r0
    262a:	b950      	cbnz	r0, 2642 <TEE_AEInit+0x5a>
/mnt/disk/raspbian-tee/optee_os/lib/libutee/tee_api_operations.c:1313
    262c:	69eb      	ldr	r3, [r5, #28]
/mnt/disk/raspbian-tee/optee_os/lib/libutee/tee_api_operations.c:1312
    262e:	642e      	str	r6, [r5, #64]	; 0x40
/mnt/disk/raspbian-tee/optee_os/lib/libutee/tee_api_operations.c:1313
    2630:	f443 3300 	orr.w	r3, r3, #131072	; 0x20000
    2634:	61eb      	str	r3, [r5, #28]
    2636:	e7e9      	b.n	260c <TEE_AEInit+0x24>
    2638:	4c06      	ldr	r4, [pc, #24]	; (2654 <TEE_AEInit+0x6c>)
/mnt/disk/raspbian-tee/optee_os/lib/libutee/tee_api_operations.c:1318
    263a:	4620      	mov	r0, r4
    263c:	f005 fa5f 	bl	7afe <TEE_Panic>
/mnt/disk/raspbian-tee/optee_os/lib/libutee/tee_api_operations.c:1320
    2640:	e7e4      	b.n	260c <TEE_AEInit+0x24>
/mnt/disk/raspbian-tee/optee_os/lib/libutee/tee_api_operations.c:1316
    2642:	4b03      	ldr	r3, [pc, #12]	; (2650 <TEE_AEInit+0x68>)
    2644:	4298      	cmp	r0, r3
    2646:	d0e0      	beq.n	260a <TEE_AEInit+0x22>
    2648:	e7f7      	b.n	263a <TEE_AEInit+0x52>
    264a:	bf00      	nop
    264c:	40000810 	.word	0x40000810
    2650:	ffff000a 	.word	0xffff000a
    2654:	ffff0006 	.word	0xffff0006

00002658 <TEE_AEUpdateAAD>:
TEE_AEUpdateAAD():
/mnt/disk/raspbian-tee/optee_os/lib/libutee/tee_api_operations.c:1325
    2658:	b570      	push	{r4, r5, r6, lr}
    265a:	460d      	mov	r5, r1
    265c:	4616      	mov	r6, r2
/mnt/disk/raspbian-tee/optee_os/lib/libutee/tee_api_operations.c:1328
    265e:	4604      	mov	r4, r0
    2660:	b108      	cbz	r0, 2666 <TEE_AEUpdateAAD+0xe>
/mnt/disk/raspbian-tee/optee_os/lib/libutee/tee_api_operations.c:1328 (discriminator 1)
    2662:	b919      	cbnz	r1, 266c <TEE_AEUpdateAAD+0x14>
/mnt/disk/raspbian-tee/optee_os/lib/libutee/tee_api_operations.c:1329
    2664:	b112      	cbz	r2, 266c <TEE_AEUpdateAAD+0x14>
/mnt/disk/raspbian-tee/optee_os/lib/libutee/tee_api_operations.c:1330
    2666:	2000      	movs	r0, #0
    2668:	f005 fa49 	bl	7afe <TEE_Panic>
/mnt/disk/raspbian-tee/optee_os/lib/libutee/tee_api_operations.c:1332
    266c:	6863      	ldr	r3, [r4, #4]
    266e:	2b04      	cmp	r3, #4
    2670:	d002      	beq.n	2678 <TEE_AEUpdateAAD+0x20>
/mnt/disk/raspbian-tee/optee_os/lib/libutee/tee_api_operations.c:1333
    2672:	2000      	movs	r0, #0
    2674:	f005 fa43 	bl	7afe <TEE_Panic>
/mnt/disk/raspbian-tee/optee_os/lib/libutee/tee_api_operations.c:1335
    2678:	69e0      	ldr	r0, [r4, #28]
    267a:	f410 3000 	ands.w	r0, r0, #131072	; 0x20000
    267e:	d101      	bne.n	2684 <TEE_AEUpdateAAD+0x2c>
/mnt/disk/raspbian-tee/optee_os/lib/libutee/tee_api_operations.c:1336
    2680:	f005 fa3d 	bl	7afe <TEE_Panic>
/mnt/disk/raspbian-tee/optee_os/lib/libutee/tee_api_operations.c:1338
    2684:	4632      	mov	r2, r6
    2686:	4629      	mov	r1, r5
    2688:	6be0      	ldr	r0, [r4, #60]	; 0x3c
    268a:	f000 ede2 	blx	3250 <utee_authenc_update_aad>
/mnt/disk/raspbian-tee/optee_os/lib/libutee/tee_api_operations.c:1340
    268e:	2301      	movs	r3, #1
    2690:	62a3      	str	r3, [r4, #40]	; 0x28
/mnt/disk/raspbian-tee/optee_os/lib/libutee/tee_api_operations.c:1342
    2692:	b118      	cbz	r0, 269c <TEE_AEUpdateAAD+0x44>
/mnt/disk/raspbian-tee/optee_os/lib/libutee/tee_api_operations.c:1344
    2694:	e8bd 4070 	ldmia.w	sp!, {r4, r5, r6, lr}
/mnt/disk/raspbian-tee/optee_os/lib/libutee/tee_api_operations.c:1343
    2698:	f005 ba31 	b.w	7afe <TEE_Panic>
    269c:	bd70      	pop	{r4, r5, r6, pc}

0000269e <TEE_AEUpdate>:
TEE_AEUpdate():
/mnt/disk/raspbian-tee/optee_os/lib/libutee/tee_api_operations.c:1348
    269e:	b5f0      	push	{r4, r5, r6, r7, lr}
/mnt/disk/raspbian-tee/optee_os/lib/libutee/tee_api_operations.c:1353
    26a0:	4605      	mov	r5, r0
/mnt/disk/raspbian-tee/optee_os/lib/libutee/tee_api_operations.c:1348
    26a2:	4f30      	ldr	r7, [pc, #192]	; (2764 <TEE_AEUpdate+0xc6>)
    26a4:	b087      	sub	sp, #28
    26a6:	447f      	add	r7, pc
    26a8:	9e0c      	ldr	r6, [sp, #48]	; 0x30
/mnt/disk/raspbian-tee/optee_os/lib/libutee/tee_api_operations.c:1353
    26aa:	2800      	cmp	r0, #0
    26ac:	d04c      	beq.n	2748 <TEE_AEUpdate+0xaa>
/mnt/disk/raspbian-tee/optee_os/lib/libutee/tee_api_operations.c:1353 (discriminator 1)
    26ae:	b909      	cbnz	r1, 26b4 <TEE_AEUpdate+0x16>
/mnt/disk/raspbian-tee/optee_os/lib/libutee/tee_api_operations.c:1354
    26b0:	2a00      	cmp	r2, #0
    26b2:	d149      	bne.n	2748 <TEE_AEUpdate+0xaa>
/mnt/disk/raspbian-tee/optee_os/lib/libutee/tee_api_operations.c:1354 (discriminator 1)
    26b4:	2e00      	cmp	r6, #0
    26b6:	d047      	beq.n	2748 <TEE_AEUpdate+0xaa>
/mnt/disk/raspbian-tee/optee_os/lib/libutee/tee_api_operations.c:1355
    26b8:	b913      	cbnz	r3, 26c0 <TEE_AEUpdate+0x22>
/mnt/disk/raspbian-tee/optee_os/lib/libutee/tee_api_operations.c:1356
    26ba:	6830      	ldr	r0, [r6, #0]
    26bc:	2800      	cmp	r0, #0
    26be:	d143      	bne.n	2748 <TEE_AEUpdate+0xaa>
/mnt/disk/raspbian-tee/optee_os/lib/libutee/tee_api_operations.c:1361
    26c0:	6868      	ldr	r0, [r5, #4]
    26c2:	2804      	cmp	r0, #4
    26c4:	d140      	bne.n	2748 <TEE_AEUpdate+0xaa>
/mnt/disk/raspbian-tee/optee_os/lib/libutee/tee_api_operations.c:1366
    26c6:	69e8      	ldr	r0, [r5, #28]
    26c8:	0380      	lsls	r0, r0, #14
    26ca:	d53d      	bpl.n	2748 <TEE_AEUpdate+0xaa>
/mnt/disk/raspbian-tee/optee_os/lib/libutee/tee_api_operations.c:1371
    26cc:	b919      	cbnz	r1, 26d6 <TEE_AEUpdate+0x38>
/mnt/disk/raspbian-tee/optee_os/lib/libutee/tee_api_operations.c:1371 (discriminator 1)
    26ce:	b912      	cbnz	r2, 26d6 <TEE_AEUpdate+0x38>
/mnt/disk/raspbian-tee/optee_os/lib/libutee/tee_api_operations.c:1372
    26d0:	6032      	str	r2, [r6, #0]
/mnt/disk/raspbian-tee/optee_os/lib/libutee/tee_api_operations.c:1414
    26d2:	2400      	movs	r4, #0
    26d4:	e00e      	b.n	26f4 <TEE_AEUpdate+0x56>
/mnt/disk/raspbian-tee/optee_os/lib/libutee/tee_api_operations.c:1382
    26d6:	6b6c      	ldr	r4, [r5, #52]	; 0x34
    26d8:	2c01      	cmp	r4, #1
    26da:	d90e      	bls.n	26fa <TEE_AEUpdate+0x5c>
/mnt/disk/raspbian-tee/optee_os/lib/libutee/tee_api_operations.c:1383
    26dc:	6ba8      	ldr	r0, [r5, #56]	; 0x38
    26de:	f1c4 0c00 	rsb	ip, r4, #0
    26e2:	4410      	add	r0, r2
    26e4:	ea00 000c 	and.w	r0, r0, ip
/mnt/disk/raspbian-tee/optee_os/lib/libutee/tee_api_operations.c:1389
    26e8:	f8d6 c000 	ldr.w	ip, [r6]
    26ec:	4560      	cmp	r0, ip
    26ee:	d906      	bls.n	26fe <TEE_AEUpdate+0x60>
/mnt/disk/raspbian-tee/optee_os/lib/libutee/tee_api_operations.c:1390
    26f0:	4c1a      	ldr	r4, [pc, #104]	; (275c <TEE_AEUpdate+0xbe>)
    26f2:	6030      	str	r0, [r6, #0]
/mnt/disk/raspbian-tee/optee_os/lib/libutee/tee_api_operations.c:1422
    26f4:	4620      	mov	r0, r4
    26f6:	b007      	add	sp, #28
    26f8:	bdf0      	pop	{r4, r5, r6, r7, pc}
    26fa:	4610      	mov	r0, r2
    26fc:	e7f4      	b.n	26e8 <TEE_AEUpdate+0x4a>
/mnt/disk/raspbian-tee/optee_os/lib/libutee/tee_api_operations.c:1395
    26fe:	2000      	movs	r0, #0
    2700:	f8cd c010 	str.w	ip, [sp, #16]
    2704:	9005      	str	r0, [sp, #20]
/mnt/disk/raspbian-tee/optee_os/lib/libutee/tee_api_operations.c:1396
    2706:	2c01      	cmp	r4, #1
    2708:	d912      	bls.n	2730 <TEE_AEUpdate+0x92>
/mnt/disk/raspbian-tee/optee_os/lib/libutee/tee_api_operations.c:1397
    270a:	4817      	ldr	r0, [pc, #92]	; (2768 <TEE_AEUpdate+0xca>)
    270c:	5838      	ldr	r0, [r7, r0]
    270e:	9003      	str	r0, [sp, #12]
    2710:	a804      	add	r0, sp, #16
    2712:	9300      	str	r3, [sp, #0]
    2714:	4613      	mov	r3, r2
    2716:	9001      	str	r0, [sp, #4]
    2718:	460a      	mov	r2, r1
    271a:	4628      	mov	r0, r5
    271c:	9903      	ldr	r1, [sp, #12]
    271e:	f7ff f831 	bl	1784 <tee_buffer_update>
/mnt/disk/raspbian-tee/optee_os/lib/libutee/tee_api_operations.c:1401
    2722:	4604      	mov	r4, r0
/mnt/disk/raspbian-tee/optee_os/lib/libutee/tee_api_operations.c:1409
    2724:	b9a8      	cbnz	r0, 2752 <TEE_AEUpdate+0xb4>
/mnt/disk/raspbian-tee/optee_os/lib/libutee/tee_api_operations.c:1412
    2726:	9b04      	ldr	r3, [sp, #16]
    2728:	6033      	str	r3, [r6, #0]
/mnt/disk/raspbian-tee/optee_os/lib/libutee/tee_api_operations.c:1414
    272a:	2301      	movs	r3, #1
    272c:	62ab      	str	r3, [r5, #40]	; 0x28
    272e:	e7d0      	b.n	26d2 <TEE_AEUpdate+0x34>
/mnt/disk/raspbian-tee/optee_os/lib/libutee/tee_api_operations.c:1400
    2730:	b12a      	cbz	r2, 273e <TEE_AEUpdate+0xa0>
/mnt/disk/raspbian-tee/optee_os/lib/libutee/tee_api_operations.c:1401
    2732:	a804      	add	r0, sp, #16
    2734:	9000      	str	r0, [sp, #0]
    2736:	6be8      	ldr	r0, [r5, #60]	; 0x3c
    2738:	f000 ed94 	blx	3264 <utee_authenc_update_payload>
    273c:	e7f1      	b.n	2722 <TEE_AEUpdate+0x84>
/mnt/disk/raspbian-tee/optee_os/lib/libutee/tee_api_operations.c:1405
    273e:	2200      	movs	r2, #0
    2740:	2300      	movs	r3, #0
    2742:	e9cd 2304 	strd	r2, r3, [sp, #16]
    2746:	e7ee      	b.n	2726 <TEE_AEUpdate+0x88>
    2748:	4c05      	ldr	r4, [pc, #20]	; (2760 <TEE_AEUpdate+0xc2>)
/mnt/disk/raspbian-tee/optee_os/lib/libutee/tee_api_operations.c:1419
    274a:	4620      	mov	r0, r4
    274c:	f005 f9d7 	bl	7afe <TEE_Panic>
/mnt/disk/raspbian-tee/optee_os/lib/libutee/tee_api_operations.c:1421
    2750:	e7d0      	b.n	26f4 <TEE_AEUpdate+0x56>
/mnt/disk/raspbian-tee/optee_os/lib/libutee/tee_api_operations.c:1417
    2752:	4b02      	ldr	r3, [pc, #8]	; (275c <TEE_AEUpdate+0xbe>)
    2754:	4298      	cmp	r0, r3
    2756:	d0cd      	beq.n	26f4 <TEE_AEUpdate+0x56>
    2758:	e7f7      	b.n	274a <TEE_AEUpdate+0xac>
    275a:	bf00      	nop
    275c:	ffff0010 	.word	0xffff0010
    2760:	ffff0006 	.word	0xffff0006
    2764:	00006dea 	.word	0x00006dea
    2768:	00000014 	.word	0x00000014

0000276c <TEE_AEEncryptFinal>:
TEE_AEEncryptFinal():
/mnt/disk/raspbian-tee/optee_os/lib/libutee/tee_api_operations.c:1428
    276c:	e92d 4ff0 	stmdb	sp!, {r4, r5, r6, r7, r8, r9, sl, fp, lr}
    2770:	4698      	mov	r8, r3
    2772:	f8df c108 	ldr.w	ip, [pc, #264]	; 287c <TEE_AEEncryptFinal+0x110>
    2776:	b08b      	sub	sp, #44	; 0x2c
/mnt/disk/raspbian-tee/optee_os/lib/libutee/tee_api_operations.c:1436
    2778:	4604      	mov	r4, r0
/mnt/disk/raspbian-tee/optee_os/lib/libutee/tee_api_operations.c:1428
    277a:	44fc      	add	ip, pc
    277c:	9e14      	ldr	r6, [sp, #80]	; 0x50
    277e:	f8dd b054 	ldr.w	fp, [sp, #84]	; 0x54
    2782:	9f16      	ldr	r7, [sp, #88]	; 0x58
/mnt/disk/raspbian-tee/optee_os/lib/libutee/tee_api_operations.c:1436
    2784:	2800      	cmp	r0, #0
    2786:	d069      	beq.n	285c <TEE_AEEncryptFinal+0xf0>
/mnt/disk/raspbian-tee/optee_os/lib/libutee/tee_api_operations.c:1436 (discriminator 1)
    2788:	b909      	cbnz	r1, 278e <TEE_AEEncryptFinal+0x22>
/mnt/disk/raspbian-tee/optee_os/lib/libutee/tee_api_operations.c:1437
    278a:	2a00      	cmp	r2, #0
    278c:	d166      	bne.n	285c <TEE_AEEncryptFinal+0xf0>
/mnt/disk/raspbian-tee/optee_os/lib/libutee/tee_api_operations.c:1437 (discriminator 1)
    278e:	2e00      	cmp	r6, #0
    2790:	d064      	beq.n	285c <TEE_AEEncryptFinal+0xf0>
/mnt/disk/raspbian-tee/optee_os/lib/libutee/tee_api_operations.c:1438
    2792:	f1b8 0f00 	cmp.w	r8, #0
    2796:	d102      	bne.n	279e <TEE_AEEncryptFinal+0x32>
/mnt/disk/raspbian-tee/optee_os/lib/libutee/tee_api_operations.c:1439
    2798:	6833      	ldr	r3, [r6, #0]
    279a:	2b00      	cmp	r3, #0
    279c:	d15e      	bne.n	285c <TEE_AEEncryptFinal+0xf0>
/mnt/disk/raspbian-tee/optee_os/lib/libutee/tee_api_operations.c:1439 (discriminator 1)
    279e:	f1bb 0f00 	cmp.w	fp, #0
    27a2:	d05b      	beq.n	285c <TEE_AEEncryptFinal+0xf0>
/mnt/disk/raspbian-tee/optee_os/lib/libutee/tee_api_operations.c:1440
    27a4:	2f00      	cmp	r7, #0
    27a6:	d059      	beq.n	285c <TEE_AEEncryptFinal+0xf0>
/mnt/disk/raspbian-tee/optee_os/lib/libutee/tee_api_operations.c:1445
    27a8:	6863      	ldr	r3, [r4, #4]
    27aa:	2b04      	cmp	r3, #4
    27ac:	d156      	bne.n	285c <TEE_AEEncryptFinal+0xf0>
/mnt/disk/raspbian-tee/optee_os/lib/libutee/tee_api_operations.c:1450
    27ae:	69e3      	ldr	r3, [r4, #28]
    27b0:	039b      	lsls	r3, r3, #14
    27b2:	d553      	bpl.n	285c <TEE_AEEncryptFinal+0xf0>
/mnt/disk/raspbian-tee/optee_os/lib/libutee/tee_api_operations.c:1465
    27b4:	6ba3      	ldr	r3, [r4, #56]	; 0x38
/mnt/disk/raspbian-tee/optee_os/lib/libutee/tee_api_operations.c:1466
    27b6:	6830      	ldr	r0, [r6, #0]
/mnt/disk/raspbian-tee/optee_os/lib/libutee/tee_api_operations.c:1465
    27b8:	4413      	add	r3, r2
    27ba:	f8df 90b4 	ldr.w	r9, [pc, #180]	; 2870 <TEE_AEEncryptFinal+0x104>
/mnt/disk/raspbian-tee/optee_os/lib/libutee/tee_api_operations.c:1466
    27be:	4283      	cmp	r3, r0
    27c0:	d908      	bls.n	27d4 <TEE_AEEncryptFinal+0x68>
/mnt/disk/raspbian-tee/optee_os/lib/libutee/tee_api_operations.c:1468
    27c2:	4648      	mov	r0, r9
/mnt/disk/raspbian-tee/optee_os/lib/libutee/tee_api_operations.c:1467
    27c4:	6033      	str	r3, [r6, #0]
/mnt/disk/raspbian-tee/optee_os/lib/libutee/tee_api_operations.c:1471
    27c6:	683b      	ldr	r3, [r7, #0]
    27c8:	6c25      	ldr	r5, [r4, #64]	; 0x40
    27ca:	42ab      	cmp	r3, r5
    27cc:	d204      	bcs.n	27d8 <TEE_AEEncryptFinal+0x6c>
/mnt/disk/raspbian-tee/optee_os/lib/libutee/tee_api_operations.c:1472
    27ce:	603d      	str	r5, [r7, #0]
    27d0:	4b27      	ldr	r3, [pc, #156]	; (2870 <TEE_AEEncryptFinal+0x104>)
    27d2:	e039      	b.n	2848 <TEE_AEEncryptFinal+0xdc>
/mnt/disk/raspbian-tee/optee_os/lib/libutee/tee_api_operations.c:1463
    27d4:	4827      	ldr	r0, [pc, #156]	; (2874 <TEE_AEEncryptFinal+0x108>)
    27d6:	e7f6      	b.n	27c6 <TEE_AEEncryptFinal+0x5a>
/mnt/disk/raspbian-tee/optee_os/lib/libutee/tee_api_operations.c:1476
    27d8:	4548      	cmp	r0, r9
    27da:	d0f9      	beq.n	27d0 <TEE_AEEncryptFinal+0x64>
/mnt/disk/raspbian-tee/optee_os/lib/libutee/tee_api_operations.c:1479
    27dc:	9308      	str	r3, [sp, #32]
    27de:	2500      	movs	r5, #0
/mnt/disk/raspbian-tee/optee_os/lib/libutee/tee_api_operations.c:1480
    27e0:	6833      	ldr	r3, [r6, #0]
    27e2:	f10d 0a18 	add.w	sl, sp, #24
    27e6:	9306      	str	r3, [sp, #24]
/mnt/disk/raspbian-tee/optee_os/lib/libutee/tee_api_operations.c:1481
    27e8:	6b63      	ldr	r3, [r4, #52]	; 0x34
/mnt/disk/raspbian-tee/optee_os/lib/libutee/tee_api_operations.c:1479
    27ea:	9509      	str	r5, [sp, #36]	; 0x24
/mnt/disk/raspbian-tee/optee_os/lib/libutee/tee_api_operations.c:1480
    27ec:	9507      	str	r5, [sp, #28]
/mnt/disk/raspbian-tee/optee_os/lib/libutee/tee_api_operations.c:1481
    27ee:	2b01      	cmp	r3, #1
    27f0:	d92e      	bls.n	2850 <TEE_AEEncryptFinal+0xe4>
/mnt/disk/raspbian-tee/optee_os/lib/libutee/tee_api_operations.c:1482
    27f2:	4b23      	ldr	r3, [pc, #140]	; (2880 <TEE_AEEncryptFinal+0x114>)
    27f4:	4620      	mov	r0, r4
    27f6:	f85c 3003 	ldr.w	r3, [ip, r3]
    27fa:	9305      	str	r3, [sp, #20]
    27fc:	4613      	mov	r3, r2
    27fe:	e88d 0500 	stmia.w	sp, {r8, sl}
    2802:	460a      	mov	r2, r1
    2804:	9905      	ldr	r1, [sp, #20]
    2806:	f7fe ffbd 	bl	1784 <tee_buffer_update>
/mnt/disk/raspbian-tee/optee_os/lib/libutee/tee_api_operations.c:1484
    280a:	4603      	mov	r3, r0
    280c:	2800      	cmp	r0, #0
    280e:	d12c      	bne.n	286a <TEE_AEEncryptFinal+0xfe>
/mnt/disk/raspbian-tee/optee_os/lib/libutee/tee_api_operations.c:1487
    2810:	9d06      	ldr	r5, [sp, #24]
/mnt/disk/raspbian-tee/optee_os/lib/libutee/tee_api_operations.c:1491
    2812:	ab08      	add	r3, sp, #32
/mnt/disk/raspbian-tee/optee_os/lib/libutee/tee_api_operations.c:1490
    2814:	6832      	ldr	r2, [r6, #0]
/mnt/disk/raspbian-tee/optee_os/lib/libutee/tee_api_operations.c:1491
    2816:	9302      	str	r3, [sp, #8]
    2818:	eb08 0305 	add.w	r3, r8, r5
    281c:	e88d 0c00 	stmia.w	sp, {sl, fp}
/mnt/disk/raspbian-tee/optee_os/lib/libutee/tee_api_operations.c:1490
    2820:	1b52      	subs	r2, r2, r5
    2822:	9206      	str	r2, [sp, #24]
/mnt/disk/raspbian-tee/optee_os/lib/libutee/tee_api_operations.c:1491
    2824:	6ae1      	ldr	r1, [r4, #44]	; 0x2c
    2826:	6ba2      	ldr	r2, [r4, #56]	; 0x38
/mnt/disk/raspbian-tee/optee_os/lib/libutee/tee_api_operations.c:1490
    2828:	9007      	str	r0, [sp, #28]
/mnt/disk/raspbian-tee/optee_os/lib/libutee/tee_api_operations.c:1496
    282a:	6be0      	ldr	r0, [r4, #60]	; 0x3c
    282c:	f000 ed26 	blx	327c <utee_authenc_enc_final>
/mnt/disk/raspbian-tee/optee_os/lib/libutee/tee_api_operations.c:1500
    2830:	9a08      	ldr	r2, [sp, #32]
/mnt/disk/raspbian-tee/optee_os/lib/libutee/tee_api_operations.c:1496
    2832:	4603      	mov	r3, r0
/mnt/disk/raspbian-tee/optee_os/lib/libutee/tee_api_operations.c:1500
    2834:	603a      	str	r2, [r7, #0]
/mnt/disk/raspbian-tee/optee_os/lib/libutee/tee_api_operations.c:1501
    2836:	b9c0      	cbnz	r0, 286a <TEE_AEEncryptFinal+0xfe>
/mnt/disk/raspbian-tee/optee_os/lib/libutee/tee_api_operations.c:1504
    2838:	9a06      	ldr	r2, [sp, #24]
    283a:	4415      	add	r5, r2
/mnt/disk/raspbian-tee/optee_os/lib/libutee/tee_api_operations.c:1505
    283c:	6035      	str	r5, [r6, #0]
/mnt/disk/raspbian-tee/optee_os/lib/libutee/tee_api_operations.c:1509
    283e:	62a0      	str	r0, [r4, #40]	; 0x28
/mnt/disk/raspbian-tee/optee_os/lib/libutee/tee_api_operations.c:1507
    2840:	69e2      	ldr	r2, [r4, #28]
    2842:	f422 3200 	bic.w	r2, r2, #131072	; 0x20000
    2846:	61e2      	str	r2, [r4, #28]
/mnt/disk/raspbian-tee/optee_os/lib/libutee/tee_api_operations.c:1517
    2848:	4618      	mov	r0, r3
    284a:	b00b      	add	sp, #44	; 0x2c
    284c:	e8bd 8ff0 	ldmia.w	sp!, {r4, r5, r6, r7, r8, r9, sl, fp, pc}
/mnt/disk/raspbian-tee/optee_os/lib/libutee/tee_api_operations.c:1496
    2850:	ab08      	add	r3, sp, #32
    2852:	e88d 0c00 	stmia.w	sp, {sl, fp}
    2856:	9302      	str	r3, [sp, #8]
    2858:	4643      	mov	r3, r8
    285a:	e7e6      	b.n	282a <TEE_AEEncryptFinal+0xbe>
    285c:	4b06      	ldr	r3, [pc, #24]	; (2878 <TEE_AEEncryptFinal+0x10c>)
/mnt/disk/raspbian-tee/optee_os/lib/libutee/tee_api_operations.c:1514
    285e:	4618      	mov	r0, r3
    2860:	9305      	str	r3, [sp, #20]
    2862:	f005 f94c 	bl	7afe <TEE_Panic>
/mnt/disk/raspbian-tee/optee_os/lib/libutee/tee_api_operations.c:1516
    2866:	9b05      	ldr	r3, [sp, #20]
    2868:	e7ee      	b.n	2848 <TEE_AEEncryptFinal+0xdc>
/mnt/disk/raspbian-tee/optee_os/lib/libutee/tee_api_operations.c:1512
    286a:	454b      	cmp	r3, r9
    286c:	d0b0      	beq.n	27d0 <TEE_AEEncryptFinal+0x64>
    286e:	e7f6      	b.n	285e <TEE_AEEncryptFinal+0xf2>
    2870:	ffff0010 	.word	0xffff0010
    2874:	ffff0000 	.word	0xffff0000
    2878:	ffff0006 	.word	0xffff0006
    287c:	00006d16 	.word	0x00006d16
    2880:	00000014 	.word	0x00000014

00002884 <TEE_AEDecryptFinal>:
TEE_AEDecryptFinal():
/mnt/disk/raspbian-tee/optee_os/lib/libutee/tee_api_operations.c:1523
    2884:	e92d 4ff0 	stmdb	sp!, {r4, r5, r6, r7, r8, r9, sl, fp, lr}
    2888:	4699      	mov	r9, r3
    288a:	4c3e      	ldr	r4, [pc, #248]	; (2984 <TEE_AEDecryptFinal+0x100>)
    288c:	b089      	sub	sp, #36	; 0x24
/mnt/disk/raspbian-tee/optee_os/lib/libutee/tee_api_operations.c:1530
    288e:	4605      	mov	r5, r0
/mnt/disk/raspbian-tee/optee_os/lib/libutee/tee_api_operations.c:1523
    2890:	447c      	add	r4, pc
    2892:	9f12      	ldr	r7, [sp, #72]	; 0x48
    2894:	f8dd b04c 	ldr.w	fp, [sp, #76]	; 0x4c
    2898:	f8dd 8050 	ldr.w	r8, [sp, #80]	; 0x50
/mnt/disk/raspbian-tee/optee_os/lib/libutee/tee_api_operations.c:1530
    289c:	2800      	cmp	r0, #0
    289e:	d068      	beq.n	2972 <TEE_AEDecryptFinal+0xee>
/mnt/disk/raspbian-tee/optee_os/lib/libutee/tee_api_operations.c:1530 (discriminator 1)
    28a0:	b909      	cbnz	r1, 28a6 <TEE_AEDecryptFinal+0x22>
/mnt/disk/raspbian-tee/optee_os/lib/libutee/tee_api_operations.c:1531
    28a2:	2a00      	cmp	r2, #0
    28a4:	d165      	bne.n	2972 <TEE_AEDecryptFinal+0xee>
/mnt/disk/raspbian-tee/optee_os/lib/libutee/tee_api_operations.c:1531 (discriminator 1)
    28a6:	2f00      	cmp	r7, #0
    28a8:	d063      	beq.n	2972 <TEE_AEDecryptFinal+0xee>
/mnt/disk/raspbian-tee/optee_os/lib/libutee/tee_api_operations.c:1532
    28aa:	f1b9 0f00 	cmp.w	r9, #0
    28ae:	d102      	bne.n	28b6 <TEE_AEDecryptFinal+0x32>
/mnt/disk/raspbian-tee/optee_os/lib/libutee/tee_api_operations.c:1533
    28b0:	683b      	ldr	r3, [r7, #0]
    28b2:	2b00      	cmp	r3, #0
    28b4:	d15d      	bne.n	2972 <TEE_AEDecryptFinal+0xee>
/mnt/disk/raspbian-tee/optee_os/lib/libutee/tee_api_operations.c:1533 (discriminator 1)
    28b6:	f1bb 0f00 	cmp.w	fp, #0
    28ba:	d102      	bne.n	28c2 <TEE_AEDecryptFinal+0x3e>
/mnt/disk/raspbian-tee/optee_os/lib/libutee/tee_api_operations.c:1534
    28bc:	f1b8 0f00 	cmp.w	r8, #0
    28c0:	d157      	bne.n	2972 <TEE_AEDecryptFinal+0xee>
/mnt/disk/raspbian-tee/optee_os/lib/libutee/tee_api_operations.c:1539
    28c2:	686b      	ldr	r3, [r5, #4]
    28c4:	2b04      	cmp	r3, #4
    28c6:	d154      	bne.n	2972 <TEE_AEDecryptFinal+0xee>
/mnt/disk/raspbian-tee/optee_os/lib/libutee/tee_api_operations.c:1544
    28c8:	69eb      	ldr	r3, [r5, #28]
    28ca:	039b      	lsls	r3, r3, #14
    28cc:	d551      	bpl.n	2972 <TEE_AEDecryptFinal+0xee>
/mnt/disk/raspbian-tee/optee_os/lib/libutee/tee_api_operations.c:1554
    28ce:	6bab      	ldr	r3, [r5, #56]	; 0x38
/mnt/disk/raspbian-tee/optee_os/lib/libutee/tee_api_operations.c:1555
    28d0:	6838      	ldr	r0, [r7, #0]
/mnt/disk/raspbian-tee/optee_os/lib/libutee/tee_api_operations.c:1554
    28d2:	4413      	add	r3, r2
/mnt/disk/raspbian-tee/optee_os/lib/libutee/tee_api_operations.c:1555
    28d4:	4283      	cmp	r3, r0
    28d6:	d905      	bls.n	28e4 <TEE_AEDecryptFinal+0x60>
/mnt/disk/raspbian-tee/optee_os/lib/libutee/tee_api_operations.c:1556
    28d8:	4c27      	ldr	r4, [pc, #156]	; (2978 <TEE_AEDecryptFinal+0xf4>)
    28da:	603b      	str	r3, [r7, #0]
/mnt/disk/raspbian-tee/optee_os/lib/libutee/tee_api_operations.c:1602
    28dc:	4620      	mov	r0, r4
    28de:	b009      	add	sp, #36	; 0x24
    28e0:	e8bd 8ff0 	ldmia.w	sp!, {r4, r5, r6, r7, r8, r9, sl, fp, pc}
/mnt/disk/raspbian-tee/optee_os/lib/libutee/tee_api_operations.c:1562
    28e4:	6b6b      	ldr	r3, [r5, #52]	; 0x34
/mnt/disk/raspbian-tee/optee_os/lib/libutee/tee_api_operations.c:1561
    28e6:	2600      	movs	r6, #0
    28e8:	9006      	str	r0, [sp, #24]
    28ea:	f10d 0a18 	add.w	sl, sp, #24
    28ee:	9607      	str	r6, [sp, #28]
/mnt/disk/raspbian-tee/optee_os/lib/libutee/tee_api_operations.c:1562
    28f0:	2b01      	cmp	r3, #1
    28f2:	d938      	bls.n	2966 <TEE_AEDecryptFinal+0xe2>
/mnt/disk/raspbian-tee/optee_os/lib/libutee/tee_api_operations.c:1563
    28f4:	4b24      	ldr	r3, [pc, #144]	; (2988 <TEE_AEDecryptFinal+0x104>)
    28f6:	4628      	mov	r0, r5
    28f8:	58e3      	ldr	r3, [r4, r3]
    28fa:	9305      	str	r3, [sp, #20]
    28fc:	4613      	mov	r3, r2
    28fe:	e88d 0600 	stmia.w	sp, {r9, sl}
    2902:	460a      	mov	r2, r1
    2904:	9905      	ldr	r1, [sp, #20]
    2906:	f7fe ff3d 	bl	1784 <tee_buffer_update>
/mnt/disk/raspbian-tee/optee_os/lib/libutee/tee_api_operations.c:1565
    290a:	4604      	mov	r4, r0
    290c:	bb08      	cbnz	r0, 2952 <TEE_AEDecryptFinal+0xce>
/mnt/disk/raspbian-tee/optee_os/lib/libutee/tee_api_operations.c:1571
    290e:	683b      	ldr	r3, [r7, #0]
/mnt/disk/raspbian-tee/optee_os/lib/libutee/tee_api_operations.c:1572
    2910:	f8cd 8008 	str.w	r8, [sp, #8]
    2914:	e88d 0c00 	stmia.w	sp, {sl, fp}
/mnt/disk/raspbian-tee/optee_os/lib/libutee/tee_api_operations.c:1568
    2918:	9e06      	ldr	r6, [sp, #24]
/mnt/disk/raspbian-tee/optee_os/lib/libutee/tee_api_operations.c:1572
    291a:	6baa      	ldr	r2, [r5, #56]	; 0x38
    291c:	6ae9      	ldr	r1, [r5, #44]	; 0x2c
/mnt/disk/raspbian-tee/optee_os/lib/libutee/tee_api_operations.c:1571
    291e:	1b9b      	subs	r3, r3, r6
    2920:	9306      	str	r3, [sp, #24]
/mnt/disk/raspbian-tee/optee_os/lib/libutee/tee_api_operations.c:1572
    2922:	eb09 0306 	add.w	r3, r9, r6
/mnt/disk/raspbian-tee/optee_os/lib/libutee/tee_api_operations.c:1571
    2926:	9007      	str	r0, [sp, #28]
/mnt/disk/raspbian-tee/optee_os/lib/libutee/tee_api_operations.c:1577
    2928:	6be8      	ldr	r0, [r5, #60]	; 0x3c
    292a:	f000 ecb4 	blx	3294 <utee_authenc_dec_final>
    292e:	4604      	mov	r4, r0
/mnt/disk/raspbian-tee/optee_os/lib/libutee/tee_api_operations.c:1581
    2930:	b978      	cbnz	r0, 2952 <TEE_AEDecryptFinal+0xce>
/mnt/disk/raspbian-tee/optee_os/lib/libutee/tee_api_operations.c:1585
    2932:	6c2a      	ldr	r2, [r5, #64]	; 0x40
/mnt/disk/raspbian-tee/optee_os/lib/libutee/tee_api_operations.c:1586
    2934:	4b11      	ldr	r3, [pc, #68]	; (297c <TEE_AEDecryptFinal+0xf8>)
    2936:	4590      	cmp	r8, r2
    2938:	bf18      	it	ne
    293a:	461c      	movne	r4, r3
/mnt/disk/raspbian-tee/optee_os/lib/libutee/tee_api_operations.c:1588
    293c:	9b06      	ldr	r3, [sp, #24]
    293e:	441e      	add	r6, r3
/mnt/disk/raspbian-tee/optee_os/lib/libutee/tee_api_operations.c:1589
    2940:	603e      	str	r6, [r7, #0]
/mnt/disk/raspbian-tee/optee_os/lib/libutee/tee_api_operations.c:1591
    2942:	69eb      	ldr	r3, [r5, #28]
    2944:	f423 3300 	bic.w	r3, r3, #131072	; 0x20000
    2948:	61eb      	str	r3, [r5, #28]
/mnt/disk/raspbian-tee/optee_os/lib/libutee/tee_api_operations.c:1593
    294a:	2300      	movs	r3, #0
    294c:	62ab      	str	r3, [r5, #40]	; 0x28
/mnt/disk/raspbian-tee/optee_os/lib/libutee/tee_api_operations.c:1596
    294e:	2c00      	cmp	r4, #0
    2950:	d0c4      	beq.n	28dc <TEE_AEDecryptFinal+0x58>
/mnt/disk/raspbian-tee/optee_os/lib/libutee/tee_api_operations.c:1596 (discriminator 1)
    2952:	4b09      	ldr	r3, [pc, #36]	; (2978 <TEE_AEDecryptFinal+0xf4>)
    2954:	429c      	cmp	r4, r3
    2956:	d0c1      	beq.n	28dc <TEE_AEDecryptFinal+0x58>
/mnt/disk/raspbian-tee/optee_os/lib/libutee/tee_api_operations.c:1597
    2958:	4b08      	ldr	r3, [pc, #32]	; (297c <TEE_AEDecryptFinal+0xf8>)
    295a:	429c      	cmp	r4, r3
    295c:	d0be      	beq.n	28dc <TEE_AEDecryptFinal+0x58>
/mnt/disk/raspbian-tee/optee_os/lib/libutee/tee_api_operations.c:1599
    295e:	4620      	mov	r0, r4
    2960:	f005 f8cd 	bl	7afe <TEE_Panic>
/mnt/disk/raspbian-tee/optee_os/lib/libutee/tee_api_operations.c:1601
    2964:	e7ba      	b.n	28dc <TEE_AEDecryptFinal+0x58>
/mnt/disk/raspbian-tee/optee_os/lib/libutee/tee_api_operations.c:1577
    2966:	f8cd 8008 	str.w	r8, [sp, #8]
    296a:	464b      	mov	r3, r9
    296c:	e88d 0c00 	stmia.w	sp, {sl, fp}
    2970:	e7da      	b.n	2928 <TEE_AEDecryptFinal+0xa4>
    2972:	4c03      	ldr	r4, [pc, #12]	; (2980 <TEE_AEDecryptFinal+0xfc>)
    2974:	e7f3      	b.n	295e <TEE_AEDecryptFinal+0xda>
    2976:	bf00      	nop
    2978:	ffff0010 	.word	0xffff0010
    297c:	ffff3071 	.word	0xffff3071
    2980:	ffff0006 	.word	0xffff0006
    2984:	00006c00 	.word	0x00006c00
    2988:	00000014 	.word	0x00000014

0000298c <TEE_AsymmetricEncrypt>:
TEE_AsymmetricEncrypt():
/mnt/disk/raspbian-tee/optee_os/lib/libutee/tee_api_operations.c:1611
    298c:	e92d 4ff0 	stmdb	sp!, {r4, r5, r6, r7, r8, r9, sl, fp, lr}
    2990:	469a      	mov	sl, r3
/mnt/disk/raspbian-tee/optee_os/lib/libutee/tee_api_operations.c:1613
    2992:	2318      	movs	r3, #24
/mnt/disk/raspbian-tee/optee_os/lib/libutee/tee_api_operations.c:1611
    2994:	b087      	sub	sp, #28
    2996:	af04      	add	r7, sp, #16
    2998:	4688      	mov	r8, r1
/mnt/disk/raspbian-tee/optee_os/lib/libutee/tee_api_operations.c:1613
    299a:	4353      	muls	r3, r2
/mnt/disk/raspbian-tee/optee_os/lib/libutee/tee_api_operations.c:1611
    299c:	4616      	mov	r6, r2
/mnt/disk/raspbian-tee/optee_os/lib/libutee/tee_api_operations.c:1616
    299e:	4604      	mov	r4, r0
/mnt/disk/raspbian-tee/optee_os/lib/libutee/tee_api_operations.c:1613
    29a0:	3308      	adds	r3, #8
/mnt/disk/raspbian-tee/optee_os/lib/libutee/tee_api_operations.c:1611
    29a2:	f8d7 b034 	ldr.w	fp, [r7, #52]	; 0x34
/mnt/disk/raspbian-tee/optee_os/lib/libutee/tee_api_operations.c:1613
    29a6:	ebad 0d03 	sub.w	sp, sp, r3
/mnt/disk/raspbian-tee/optee_os/lib/libutee/tee_api_operations.c:1611
    29aa:	6bbd      	ldr	r5, [r7, #56]	; 0x38
/mnt/disk/raspbian-tee/optee_os/lib/libutee/tee_api_operations.c:1613
    29ac:	f10d 0910 	add.w	r9, sp, #16
/mnt/disk/raspbian-tee/optee_os/lib/libutee/tee_api_operations.c:1616
    29b0:	b150      	cbz	r0, 29c8 <TEE_AsymmetricEncrypt+0x3c>
/mnt/disk/raspbian-tee/optee_os/lib/libutee/tee_api_operations.c:1616 (discriminator 1)
    29b2:	f1ba 0f00 	cmp.w	sl, #0
    29b6:	d101      	bne.n	29bc <TEE_AsymmetricEncrypt+0x30>
/mnt/disk/raspbian-tee/optee_os/lib/libutee/tee_api_operations.c:1616 (discriminator 2)
    29b8:	6b3b      	ldr	r3, [r7, #48]	; 0x30
    29ba:	b92b      	cbnz	r3, 29c8 <TEE_AsymmetricEncrypt+0x3c>
/mnt/disk/raspbian-tee/optee_os/lib/libutee/tee_api_operations.c:1616 (discriminator 4)
    29bc:	b125      	cbz	r5, 29c8 <TEE_AsymmetricEncrypt+0x3c>
/mnt/disk/raspbian-tee/optee_os/lib/libutee/tee_api_operations.c:1617
    29be:	f1bb 0f00 	cmp.w	fp, #0
    29c2:	d104      	bne.n	29ce <TEE_AsymmetricEncrypt+0x42>
/mnt/disk/raspbian-tee/optee_os/lib/libutee/tee_api_operations.c:1617 (discriminator 1)
    29c4:	682b      	ldr	r3, [r5, #0]
    29c6:	b113      	cbz	r3, 29ce <TEE_AsymmetricEncrypt+0x42>
/mnt/disk/raspbian-tee/optee_os/lib/libutee/tee_api_operations.c:1618
    29c8:	2000      	movs	r0, #0
    29ca:	f005 f898 	bl	7afe <TEE_Panic>
/mnt/disk/raspbian-tee/optee_os/lib/libutee/tee_api_operations.c:1619
    29ce:	f1b8 0f00 	cmp.w	r8, #0
    29d2:	d103      	bne.n	29dc <TEE_AsymmetricEncrypt+0x50>
/mnt/disk/raspbian-tee/optee_os/lib/libutee/tee_api_operations.c:1619 (discriminator 1)
    29d4:	b116      	cbz	r6, 29dc <TEE_AsymmetricEncrypt+0x50>
/mnt/disk/raspbian-tee/optee_os/lib/libutee/tee_api_operations.c:1620
    29d6:	4640      	mov	r0, r8
    29d8:	f005 f891 	bl	7afe <TEE_Panic>
/mnt/disk/raspbian-tee/optee_os/lib/libutee/tee_api_operations.c:1621
    29dc:	6a20      	ldr	r0, [r4, #32]
    29de:	b908      	cbnz	r0, 29e4 <TEE_AsymmetricEncrypt+0x58>
/mnt/disk/raspbian-tee/optee_os/lib/libutee/tee_api_operations.c:1622
    29e0:	f005 f88d 	bl	7afe <TEE_Panic>
/mnt/disk/raspbian-tee/optee_os/lib/libutee/tee_api_operations.c:1623
    29e4:	6863      	ldr	r3, [r4, #4]
    29e6:	2b06      	cmp	r3, #6
    29e8:	d002      	beq.n	29f0 <TEE_AsymmetricEncrypt+0x64>
/mnt/disk/raspbian-tee/optee_os/lib/libutee/tee_api_operations.c:1624
    29ea:	2000      	movs	r0, #0
    29ec:	f005 f887 	bl	7afe <TEE_Panic>
/mnt/disk/raspbian-tee/optee_os/lib/libutee/tee_api_operations.c:1625
    29f0:	68a3      	ldr	r3, [r4, #8]
    29f2:	b113      	cbz	r3, 29fa <TEE_AsymmetricEncrypt+0x6e>
/mnt/disk/raspbian-tee/optee_os/lib/libutee/tee_api_operations.c:1626
    29f4:	2000      	movs	r0, #0
    29f6:	f005 f882 	bl	7afe <TEE_Panic>
/mnt/disk/raspbian-tee/optee_os/lib/libutee/tee_api_operations.c:1628
    29fa:	4632      	mov	r2, r6
    29fc:	4641      	mov	r1, r8
    29fe:	4648      	mov	r0, r9
    2a00:	f7fe fafa 	bl	ff8 <__utee_from_attr>
/mnt/disk/raspbian-tee/optee_os/lib/libutee/tee_api_operations.c:1629
    2a04:	682b      	ldr	r3, [r5, #0]
    2a06:	603b      	str	r3, [r7, #0]
    2a08:	2300      	movs	r3, #0
    2a0a:	607b      	str	r3, [r7, #4]
/mnt/disk/raspbian-tee/optee_os/lib/libutee/tee_api_operations.c:1630
    2a0c:	4632      	mov	r2, r6
    2a0e:	6b3b      	ldr	r3, [r7, #48]	; 0x30
    2a10:	4649      	mov	r1, r9
    2a12:	9300      	str	r3, [sp, #0]
    2a14:	4653      	mov	r3, sl
    2a16:	9702      	str	r7, [sp, #8]
    2a18:	f8cd b004 	str.w	fp, [sp, #4]
    2a1c:	6be0      	ldr	r0, [r4, #60]	; 0x3c
    2a1e:	f000 ec46 	blx	32ac <utee_asymm_operate>
/mnt/disk/raspbian-tee/optee_os/lib/libutee/tee_api_operations.c:1632
    2a22:	683b      	ldr	r3, [r7, #0]
    2a24:	602b      	str	r3, [r5, #0]
/mnt/disk/raspbian-tee/optee_os/lib/libutee/tee_api_operations.c:1634
    2a26:	4604      	mov	r4, r0
    2a28:	b138      	cbz	r0, 2a3a <TEE_AsymmetricEncrypt+0xae>
/mnt/disk/raspbian-tee/optee_os/lib/libutee/tee_api_operations.c:1634 (discriminator 1)
    2a2a:	4b06      	ldr	r3, [pc, #24]	; (2a44 <TEE_AsymmetricEncrypt+0xb8>)
    2a2c:	4298      	cmp	r0, r3
    2a2e:	d004      	beq.n	2a3a <TEE_AsymmetricEncrypt+0xae>
/mnt/disk/raspbian-tee/optee_os/lib/libutee/tee_api_operations.c:1635
    2a30:	3b0a      	subs	r3, #10
    2a32:	4298      	cmp	r0, r3
    2a34:	d001      	beq.n	2a3a <TEE_AsymmetricEncrypt+0xae>
/mnt/disk/raspbian-tee/optee_os/lib/libutee/tee_api_operations.c:1637
    2a36:	f005 f862 	bl	7afe <TEE_Panic>
/mnt/disk/raspbian-tee/optee_os/lib/libutee/tee_api_operations.c:1640
    2a3a:	4620      	mov	r0, r4
    2a3c:	370c      	adds	r7, #12
    2a3e:	46bd      	mov	sp, r7
    2a40:	e8bd 8ff0 	ldmia.w	sp!, {r4, r5, r6, r7, r8, r9, sl, fp, pc}
    2a44:	ffff0010 	.word	0xffff0010

00002a48 <TEE_AsymmetricDecrypt>:
TEE_AsymmetricDecrypt():
/mnt/disk/raspbian-tee/optee_os/lib/libutee/tee_api_operations.c:1647
    2a48:	e92d 4ff0 	stmdb	sp!, {r4, r5, r6, r7, r8, r9, sl, fp, lr}
    2a4c:	469a      	mov	sl, r3
/mnt/disk/raspbian-tee/optee_os/lib/libutee/tee_api_operations.c:1649
    2a4e:	2318      	movs	r3, #24
/mnt/disk/raspbian-tee/optee_os/lib/libutee/tee_api_operations.c:1647
    2a50:	b087      	sub	sp, #28
    2a52:	af04      	add	r7, sp, #16
    2a54:	4688      	mov	r8, r1
/mnt/disk/raspbian-tee/optee_os/lib/libutee/tee_api_operations.c:1649
    2a56:	4353      	muls	r3, r2
/mnt/disk/raspbian-tee/optee_os/lib/libutee/tee_api_operations.c:1647
    2a58:	4616      	mov	r6, r2
/mnt/disk/raspbian-tee/optee_os/lib/libutee/tee_api_operations.c:1652
    2a5a:	4604      	mov	r4, r0
/mnt/disk/raspbian-tee/optee_os/lib/libutee/tee_api_operations.c:1649
    2a5c:	3308      	adds	r3, #8
/mnt/disk/raspbian-tee/optee_os/lib/libutee/tee_api_operations.c:1647
    2a5e:	f8d7 b034 	ldr.w	fp, [r7, #52]	; 0x34
/mnt/disk/raspbian-tee/optee_os/lib/libutee/tee_api_operations.c:1649
    2a62:	ebad 0d03 	sub.w	sp, sp, r3
/mnt/disk/raspbian-tee/optee_os/lib/libutee/tee_api_operations.c:1647
    2a66:	6bbd      	ldr	r5, [r7, #56]	; 0x38
/mnt/disk/raspbian-tee/optee_os/lib/libutee/tee_api_operations.c:1649
    2a68:	f10d 0910 	add.w	r9, sp, #16
/mnt/disk/raspbian-tee/optee_os/lib/libutee/tee_api_operations.c:1652
    2a6c:	b150      	cbz	r0, 2a84 <TEE_AsymmetricDecrypt+0x3c>
/mnt/disk/raspbian-tee/optee_os/lib/libutee/tee_api_operations.c:1652 (discriminator 1)
    2a6e:	f1ba 0f00 	cmp.w	sl, #0
    2a72:	d101      	bne.n	2a78 <TEE_AsymmetricDecrypt+0x30>
/mnt/disk/raspbian-tee/optee_os/lib/libutee/tee_api_operations.c:1652 (discriminator 2)
    2a74:	6b3b      	ldr	r3, [r7, #48]	; 0x30
    2a76:	b92b      	cbnz	r3, 2a84 <TEE_AsymmetricDecrypt+0x3c>
/mnt/disk/raspbian-tee/optee_os/lib/libutee/tee_api_operations.c:1652 (discriminator 4)
    2a78:	b125      	cbz	r5, 2a84 <TEE_AsymmetricDecrypt+0x3c>
/mnt/disk/raspbian-tee/optee_os/lib/libutee/tee_api_operations.c:1653
    2a7a:	f1bb 0f00 	cmp.w	fp, #0
    2a7e:	d104      	bne.n	2a8a <TEE_AsymmetricDecrypt+0x42>
/mnt/disk/raspbian-tee/optee_os/lib/libutee/tee_api_operations.c:1653 (discriminator 1)
    2a80:	682b      	ldr	r3, [r5, #0]
    2a82:	b113      	cbz	r3, 2a8a <TEE_AsymmetricDecrypt+0x42>
/mnt/disk/raspbian-tee/optee_os/lib/libutee/tee_api_operations.c:1654
    2a84:	2000      	movs	r0, #0
    2a86:	f005 f83a 	bl	7afe <TEE_Panic>
/mnt/disk/raspbian-tee/optee_os/lib/libutee/tee_api_operations.c:1655
    2a8a:	f1b8 0f00 	cmp.w	r8, #0
    2a8e:	d103      	bne.n	2a98 <TEE_AsymmetricDecrypt+0x50>
/mnt/disk/raspbian-tee/optee_os/lib/libutee/tee_api_operations.c:1655 (discriminator 1)
    2a90:	b116      	cbz	r6, 2a98 <TEE_AsymmetricDecrypt+0x50>
/mnt/disk/raspbian-tee/optee_os/lib/libutee/tee_api_operations.c:1656
    2a92:	4640      	mov	r0, r8
    2a94:	f005 f833 	bl	7afe <TEE_Panic>
/mnt/disk/raspbian-tee/optee_os/lib/libutee/tee_api_operations.c:1657
    2a98:	6a20      	ldr	r0, [r4, #32]
    2a9a:	b908      	cbnz	r0, 2aa0 <TEE_AsymmetricDecrypt+0x58>
/mnt/disk/raspbian-tee/optee_os/lib/libutee/tee_api_operations.c:1658
    2a9c:	f005 f82f 	bl	7afe <TEE_Panic>
/mnt/disk/raspbian-tee/optee_os/lib/libutee/tee_api_operations.c:1659
    2aa0:	6863      	ldr	r3, [r4, #4]
    2aa2:	2b06      	cmp	r3, #6
    2aa4:	d002      	beq.n	2aac <TEE_AsymmetricDecrypt+0x64>
/mnt/disk/raspbian-tee/optee_os/lib/libutee/tee_api_operations.c:1660
    2aa6:	2000      	movs	r0, #0
    2aa8:	f005 f829 	bl	7afe <TEE_Panic>
/mnt/disk/raspbian-tee/optee_os/lib/libutee/tee_api_operations.c:1661
    2aac:	68a3      	ldr	r3, [r4, #8]
    2aae:	2b01      	cmp	r3, #1
    2ab0:	d002      	beq.n	2ab8 <TEE_AsymmetricDecrypt+0x70>
/mnt/disk/raspbian-tee/optee_os/lib/libutee/tee_api_operations.c:1662
    2ab2:	2000      	movs	r0, #0
    2ab4:	f005 f823 	bl	7afe <TEE_Panic>
/mnt/disk/raspbian-tee/optee_os/lib/libutee/tee_api_operations.c:1664
    2ab8:	4632      	mov	r2, r6
    2aba:	4641      	mov	r1, r8
    2abc:	4648      	mov	r0, r9
    2abe:	f7fe fa9b 	bl	ff8 <__utee_from_attr>
/mnt/disk/raspbian-tee/optee_os/lib/libutee/tee_api_operations.c:1665
    2ac2:	682b      	ldr	r3, [r5, #0]
    2ac4:	603b      	str	r3, [r7, #0]
    2ac6:	2300      	movs	r3, #0
    2ac8:	607b      	str	r3, [r7, #4]
/mnt/disk/raspbian-tee/optee_os/lib/libutee/tee_api_operations.c:1666
    2aca:	4632      	mov	r2, r6
    2acc:	6b3b      	ldr	r3, [r7, #48]	; 0x30
    2ace:	4649      	mov	r1, r9
    2ad0:	9300      	str	r3, [sp, #0]
    2ad2:	4653      	mov	r3, sl
    2ad4:	9702      	str	r7, [sp, #8]
    2ad6:	f8cd b004 	str.w	fp, [sp, #4]
    2ada:	6be0      	ldr	r0, [r4, #60]	; 0x3c
    2adc:	f000 ebe6 	blx	32ac <utee_asymm_operate>
/mnt/disk/raspbian-tee/optee_os/lib/libutee/tee_api_operations.c:1668
    2ae0:	683b      	ldr	r3, [r7, #0]
    2ae2:	602b      	str	r3, [r5, #0]
/mnt/disk/raspbian-tee/optee_os/lib/libutee/tee_api_operations.c:1670
    2ae4:	4604      	mov	r4, r0
    2ae6:	b138      	cbz	r0, 2af8 <TEE_AsymmetricDecrypt+0xb0>
/mnt/disk/raspbian-tee/optee_os/lib/libutee/tee_api_operations.c:1670 (discriminator 1)
    2ae8:	4b06      	ldr	r3, [pc, #24]	; (2b04 <TEE_AsymmetricDecrypt+0xbc>)
    2aea:	4298      	cmp	r0, r3
    2aec:	d004      	beq.n	2af8 <TEE_AsymmetricDecrypt+0xb0>
/mnt/disk/raspbian-tee/optee_os/lib/libutee/tee_api_operations.c:1671
    2aee:	3b0a      	subs	r3, #10
    2af0:	4298      	cmp	r0, r3
    2af2:	d001      	beq.n	2af8 <TEE_AsymmetricDecrypt+0xb0>
/mnt/disk/raspbian-tee/optee_os/lib/libutee/tee_api_operations.c:1673
    2af4:	f005 f803 	bl	7afe <TEE_Panic>
/mnt/disk/raspbian-tee/optee_os/lib/libutee/tee_api_operations.c:1676
    2af8:	4620      	mov	r0, r4
    2afa:	370c      	adds	r7, #12
    2afc:	46bd      	mov	sp, r7
    2afe:	e8bd 8ff0 	ldmia.w	sp!, {r4, r5, r6, r7, r8, r9, sl, fp, pc}
    2b02:	bf00      	nop
    2b04:	ffff0010 	.word	0xffff0010

00002b08 <TEE_AsymmetricSignDigest>:
TEE_AsymmetricSignDigest():
/mnt/disk/raspbian-tee/optee_os/lib/libutee/tee_api_operations.c:1683
    2b08:	e92d 4ff0 	stmdb	sp!, {r4, r5, r6, r7, r8, r9, sl, fp, lr}
    2b0c:	469a      	mov	sl, r3
/mnt/disk/raspbian-tee/optee_os/lib/libutee/tee_api_operations.c:1685
    2b0e:	2318      	movs	r3, #24
/mnt/disk/raspbian-tee/optee_os/lib/libutee/tee_api_operations.c:1683
    2b10:	b087      	sub	sp, #28
    2b12:	af04      	add	r7, sp, #16
    2b14:	4688      	mov	r8, r1
/mnt/disk/raspbian-tee/optee_os/lib/libutee/tee_api_operations.c:1685
    2b16:	4353      	muls	r3, r2
/mnt/disk/raspbian-tee/optee_os/lib/libutee/tee_api_operations.c:1683
    2b18:	4615      	mov	r5, r2
/mnt/disk/raspbian-tee/optee_os/lib/libutee/tee_api_operations.c:1688
    2b1a:	4604      	mov	r4, r0
/mnt/disk/raspbian-tee/optee_os/lib/libutee/tee_api_operations.c:1685
    2b1c:	3308      	adds	r3, #8
/mnt/disk/raspbian-tee/optee_os/lib/libutee/tee_api_operations.c:1683
    2b1e:	f8d7 b034 	ldr.w	fp, [r7, #52]	; 0x34
/mnt/disk/raspbian-tee/optee_os/lib/libutee/tee_api_operations.c:1685
    2b22:	ebad 0d03 	sub.w	sp, sp, r3
/mnt/disk/raspbian-tee/optee_os/lib/libutee/tee_api_operations.c:1683
    2b26:	6bbe      	ldr	r6, [r7, #56]	; 0x38
/mnt/disk/raspbian-tee/optee_os/lib/libutee/tee_api_operations.c:1685
    2b28:	f10d 0910 	add.w	r9, sp, #16
/mnt/disk/raspbian-tee/optee_os/lib/libutee/tee_api_operations.c:1688
    2b2c:	b140      	cbz	r0, 2b40 <TEE_AsymmetricSignDigest+0x38>
/mnt/disk/raspbian-tee/optee_os/lib/libutee/tee_api_operations.c:1688 (discriminator 1)
    2b2e:	f1ba 0f00 	cmp.w	sl, #0
    2b32:	d101      	bne.n	2b38 <TEE_AsymmetricSignDigest+0x30>
/mnt/disk/raspbian-tee/optee_os/lib/libutee/tee_api_operations.c:1689
    2b34:	6b3b      	ldr	r3, [r7, #48]	; 0x30
    2b36:	b91b      	cbnz	r3, 2b40 <TEE_AsymmetricSignDigest+0x38>
/mnt/disk/raspbian-tee/optee_os/lib/libutee/tee_api_operations.c:1689 (discriminator 1)
    2b38:	f1bb 0f00 	cmp.w	fp, #0
    2b3c:	d000      	beq.n	2b40 <TEE_AsymmetricSignDigest+0x38>
/mnt/disk/raspbian-tee/optee_os/lib/libutee/tee_api_operations.c:1690
    2b3e:	b916      	cbnz	r6, 2b46 <TEE_AsymmetricSignDigest+0x3e>
/mnt/disk/raspbian-tee/optee_os/lib/libutee/tee_api_operations.c:1691
    2b40:	2000      	movs	r0, #0
    2b42:	f004 ffdc 	bl	7afe <TEE_Panic>
/mnt/disk/raspbian-tee/optee_os/lib/libutee/tee_api_operations.c:1692
    2b46:	f1b8 0f00 	cmp.w	r8, #0
    2b4a:	d103      	bne.n	2b54 <TEE_AsymmetricSignDigest+0x4c>
/mnt/disk/raspbian-tee/optee_os/lib/libutee/tee_api_operations.c:1692 (discriminator 1)
    2b4c:	b115      	cbz	r5, 2b54 <TEE_AsymmetricSignDigest+0x4c>
/mnt/disk/raspbian-tee/optee_os/lib/libutee/tee_api_operations.c:1693
    2b4e:	4640      	mov	r0, r8
    2b50:	f004 ffd5 	bl	7afe <TEE_Panic>
/mnt/disk/raspbian-tee/optee_os/lib/libutee/tee_api_operations.c:1694
    2b54:	6a20      	ldr	r0, [r4, #32]
    2b56:	b908      	cbnz	r0, 2b5c <TEE_AsymmetricSignDigest+0x54>
/mnt/disk/raspbian-tee/optee_os/lib/libutee/tee_api_operations.c:1695
    2b58:	f004 ffd1 	bl	7afe <TEE_Panic>
/mnt/disk/raspbian-tee/optee_os/lib/libutee/tee_api_operations.c:1696
    2b5c:	6863      	ldr	r3, [r4, #4]
    2b5e:	2b07      	cmp	r3, #7
    2b60:	d002      	beq.n	2b68 <TEE_AsymmetricSignDigest+0x60>
/mnt/disk/raspbian-tee/optee_os/lib/libutee/tee_api_operations.c:1698
    2b62:	2000      	movs	r0, #0
    2b64:	f004 ffcb 	bl	7afe <TEE_Panic>
/mnt/disk/raspbian-tee/optee_os/lib/libutee/tee_api_operations.c:1699
    2b68:	68a3      	ldr	r3, [r4, #8]
    2b6a:	2b02      	cmp	r3, #2
    2b6c:	d002      	beq.n	2b74 <TEE_AsymmetricSignDigest+0x6c>
/mnt/disk/raspbian-tee/optee_os/lib/libutee/tee_api_operations.c:1700
    2b6e:	2000      	movs	r0, #0
    2b70:	f004 ffc5 	bl	7afe <TEE_Panic>
/mnt/disk/raspbian-tee/optee_os/lib/libutee/tee_api_operations.c:1702
    2b74:	462a      	mov	r2, r5
    2b76:	4641      	mov	r1, r8
    2b78:	4648      	mov	r0, r9
    2b7a:	f7fe fa3d 	bl	ff8 <__utee_from_attr>
/mnt/disk/raspbian-tee/optee_os/lib/libutee/tee_api_operations.c:1703
    2b7e:	6833      	ldr	r3, [r6, #0]
    2b80:	603b      	str	r3, [r7, #0]
    2b82:	2300      	movs	r3, #0
    2b84:	607b      	str	r3, [r7, #4]
/mnt/disk/raspbian-tee/optee_os/lib/libutee/tee_api_operations.c:1704
    2b86:	462a      	mov	r2, r5
    2b88:	6b3b      	ldr	r3, [r7, #48]	; 0x30
    2b8a:	4649      	mov	r1, r9
    2b8c:	9300      	str	r3, [sp, #0]
    2b8e:	4653      	mov	r3, sl
    2b90:	9702      	str	r7, [sp, #8]
    2b92:	f8cd b004 	str.w	fp, [sp, #4]
    2b96:	6be0      	ldr	r0, [r4, #60]	; 0x3c
    2b98:	f000 eb88 	blx	32ac <utee_asymm_operate>
/mnt/disk/raspbian-tee/optee_os/lib/libutee/tee_api_operations.c:1706
    2b9c:	683b      	ldr	r3, [r7, #0]
    2b9e:	6033      	str	r3, [r6, #0]
/mnt/disk/raspbian-tee/optee_os/lib/libutee/tee_api_operations.c:1708
    2ba0:	4604      	mov	r4, r0
    2ba2:	b120      	cbz	r0, 2bae <TEE_AsymmetricSignDigest+0xa6>
/mnt/disk/raspbian-tee/optee_os/lib/libutee/tee_api_operations.c:1708 (discriminator 1)
    2ba4:	4b04      	ldr	r3, [pc, #16]	; (2bb8 <TEE_AsymmetricSignDigest+0xb0>)
    2ba6:	4298      	cmp	r0, r3
    2ba8:	d001      	beq.n	2bae <TEE_AsymmetricSignDigest+0xa6>
/mnt/disk/raspbian-tee/optee_os/lib/libutee/tee_api_operations.c:1709
    2baa:	f004 ffa8 	bl	7afe <TEE_Panic>
/mnt/disk/raspbian-tee/optee_os/lib/libutee/tee_api_operations.c:1712
    2bae:	4620      	mov	r0, r4
    2bb0:	370c      	adds	r7, #12
    2bb2:	46bd      	mov	sp, r7
    2bb4:	e8bd 8ff0 	ldmia.w	sp!, {r4, r5, r6, r7, r8, r9, sl, fp, pc}
    2bb8:	ffff0010 	.word	0xffff0010

00002bbc <TEE_AsymmetricVerifyDigest>:
TEE_AsymmetricVerifyDigest():
/mnt/disk/raspbian-tee/optee_os/lib/libutee/tee_api_operations.c:1720
    2bbc:	e92d 4ff0 	stmdb	sp!, {r4, r5, r6, r7, r8, r9, sl, fp, lr}
    2bc0:	4699      	mov	r9, r3
/mnt/disk/raspbian-tee/optee_os/lib/libutee/tee_api_operations.c:1722
    2bc2:	2318      	movs	r3, #24
/mnt/disk/raspbian-tee/optee_os/lib/libutee/tee_api_operations.c:1720
    2bc4:	b085      	sub	sp, #20
    2bc6:	af04      	add	r7, sp, #16
    2bc8:	460e      	mov	r6, r1
/mnt/disk/raspbian-tee/optee_os/lib/libutee/tee_api_operations.c:1722
    2bca:	4353      	muls	r3, r2
/mnt/disk/raspbian-tee/optee_os/lib/libutee/tee_api_operations.c:1720
    2bcc:	4615      	mov	r5, r2
/mnt/disk/raspbian-tee/optee_os/lib/libutee/tee_api_operations.c:1724
    2bce:	4604      	mov	r4, r0
/mnt/disk/raspbian-tee/optee_os/lib/libutee/tee_api_operations.c:1722
    2bd0:	3308      	adds	r3, #8
/mnt/disk/raspbian-tee/optee_os/lib/libutee/tee_api_operations.c:1720
    2bd2:	f8d7 a02c 	ldr.w	sl, [r7, #44]	; 0x2c
/mnt/disk/raspbian-tee/optee_os/lib/libutee/tee_api_operations.c:1722
    2bd6:	ebad 0d03 	sub.w	sp, sp, r3
/mnt/disk/raspbian-tee/optee_os/lib/libutee/tee_api_operations.c:1720
    2bda:	f8d7 b030 	ldr.w	fp, [r7, #48]	; 0x30
/mnt/disk/raspbian-tee/optee_os/lib/libutee/tee_api_operations.c:1722
    2bde:	f10d 0810 	add.w	r8, sp, #16
/mnt/disk/raspbian-tee/optee_os/lib/libutee/tee_api_operations.c:1724
    2be2:	b150      	cbz	r0, 2bfa <TEE_AsymmetricVerifyDigest+0x3e>
/mnt/disk/raspbian-tee/optee_os/lib/libutee/tee_api_operations.c:1724 (discriminator 1)
    2be4:	f1b9 0f00 	cmp.w	r9, #0
    2be8:	d101      	bne.n	2bee <TEE_AsymmetricVerifyDigest+0x32>
/mnt/disk/raspbian-tee/optee_os/lib/libutee/tee_api_operations.c:1725
    2bea:	6abb      	ldr	r3, [r7, #40]	; 0x28
    2bec:	b92b      	cbnz	r3, 2bfa <TEE_AsymmetricVerifyDigest+0x3e>
/mnt/disk/raspbian-tee/optee_os/lib/libutee/tee_api_operations.c:1725 (discriminator 1)
    2bee:	f1ba 0f00 	cmp.w	sl, #0
    2bf2:	d105      	bne.n	2c00 <TEE_AsymmetricVerifyDigest+0x44>
/mnt/disk/raspbian-tee/optee_os/lib/libutee/tee_api_operations.c:1726
    2bf4:	f1bb 0f00 	cmp.w	fp, #0
    2bf8:	d002      	beq.n	2c00 <TEE_AsymmetricVerifyDigest+0x44>
/mnt/disk/raspbian-tee/optee_os/lib/libutee/tee_api_operations.c:1727
    2bfa:	2000      	movs	r0, #0
    2bfc:	f004 ff7f 	bl	7afe <TEE_Panic>
/mnt/disk/raspbian-tee/optee_os/lib/libutee/tee_api_operations.c:1728
    2c00:	b91e      	cbnz	r6, 2c0a <TEE_AsymmetricVerifyDigest+0x4e>
/mnt/disk/raspbian-tee/optee_os/lib/libutee/tee_api_operations.c:1728 (discriminator 1)
    2c02:	b115      	cbz	r5, 2c0a <TEE_AsymmetricVerifyDigest+0x4e>
/mnt/disk/raspbian-tee/optee_os/lib/libutee/tee_api_operations.c:1729
    2c04:	4630      	mov	r0, r6
    2c06:	f004 ff7a 	bl	7afe <TEE_Panic>
/mnt/disk/raspbian-tee/optee_os/lib/libutee/tee_api_operations.c:1730
    2c0a:	6a20      	ldr	r0, [r4, #32]
    2c0c:	b908      	cbnz	r0, 2c12 <TEE_AsymmetricVerifyDigest+0x56>
/mnt/disk/raspbian-tee/optee_os/lib/libutee/tee_api_operations.c:1731
    2c0e:	f004 ff76 	bl	7afe <TEE_Panic>
/mnt/disk/raspbian-tee/optee_os/lib/libutee/tee_api_operations.c:1732
    2c12:	6863      	ldr	r3, [r4, #4]
    2c14:	2b07      	cmp	r3, #7
    2c16:	d002      	beq.n	2c1e <TEE_AsymmetricVerifyDigest+0x62>
/mnt/disk/raspbian-tee/optee_os/lib/libutee/tee_api_operations.c:1734
    2c18:	2000      	movs	r0, #0
    2c1a:	f004 ff70 	bl	7afe <TEE_Panic>
/mnt/disk/raspbian-tee/optee_os/lib/libutee/tee_api_operations.c:1735
    2c1e:	68a3      	ldr	r3, [r4, #8]
    2c20:	2b03      	cmp	r3, #3
    2c22:	d002      	beq.n	2c2a <TEE_AsymmetricVerifyDigest+0x6e>
/mnt/disk/raspbian-tee/optee_os/lib/libutee/tee_api_operations.c:1736
    2c24:	2000      	movs	r0, #0
    2c26:	f004 ff6a 	bl	7afe <TEE_Panic>
/mnt/disk/raspbian-tee/optee_os/lib/libutee/tee_api_operations.c:1738
    2c2a:	462a      	mov	r2, r5
    2c2c:	4631      	mov	r1, r6
    2c2e:	4640      	mov	r0, r8
    2c30:	f7fe f9e2 	bl	ff8 <__utee_from_attr>
/mnt/disk/raspbian-tee/optee_os/lib/libutee/tee_api_operations.c:1739
    2c34:	6abb      	ldr	r3, [r7, #40]	; 0x28
    2c36:	9300      	str	r3, [sp, #0]
    2c38:	462a      	mov	r2, r5
    2c3a:	f8cd b008 	str.w	fp, [sp, #8]
    2c3e:	464b      	mov	r3, r9
    2c40:	f8cd a004 	str.w	sl, [sp, #4]
    2c44:	4641      	mov	r1, r8
    2c46:	6be0      	ldr	r0, [r4, #60]	; 0x3c
    2c48:	f000 eb3c 	blx	32c4 <utee_asymm_verify>
/mnt/disk/raspbian-tee/optee_os/lib/libutee/tee_api_operations.c:1742
    2c4c:	4604      	mov	r4, r0
    2c4e:	b120      	cbz	r0, 2c5a <TEE_AsymmetricVerifyDigest+0x9e>
/mnt/disk/raspbian-tee/optee_os/lib/libutee/tee_api_operations.c:1742 (discriminator 1)
    2c50:	4b04      	ldr	r3, [pc, #16]	; (2c64 <TEE_AsymmetricVerifyDigest+0xa8>)
    2c52:	4298      	cmp	r0, r3
    2c54:	d001      	beq.n	2c5a <TEE_AsymmetricVerifyDigest+0x9e>
/mnt/disk/raspbian-tee/optee_os/lib/libutee/tee_api_operations.c:1743
    2c56:	f004 ff52 	bl	7afe <TEE_Panic>
/mnt/disk/raspbian-tee/optee_os/lib/libutee/tee_api_operations.c:1746
    2c5a:	4620      	mov	r0, r4
    2c5c:	3704      	adds	r7, #4
    2c5e:	46bd      	mov	sp, r7
    2c60:	e8bd 8ff0 	ldmia.w	sp!, {r4, r5, r6, r7, r8, r9, sl, fp, pc}
    2c64:	ffff3072 	.word	0xffff3072

00002c68 <TEE_DeriveKey>:
TEE_DeriveKey():
/mnt/disk/raspbian-tee/optee_os/lib/libutee/tee_api_operations.c:1753
    2c68:	e92d 43f0 	stmdb	sp!, {r4, r5, r6, r7, r8, r9, lr}
    2c6c:	461e      	mov	r6, r3
/mnt/disk/raspbian-tee/optee_os/lib/libutee/tee_api_operations.c:1756
    2c6e:	2318      	movs	r3, #24
/mnt/disk/raspbian-tee/optee_os/lib/libutee/tee_api_operations.c:1753
    2c70:	b089      	sub	sp, #36	; 0x24
    2c72:	af00      	add	r7, sp, #0
    2c74:	4688      	mov	r8, r1
/mnt/disk/raspbian-tee/optee_os/lib/libutee/tee_api_operations.c:1756
    2c76:	4353      	muls	r3, r2
/mnt/disk/raspbian-tee/optee_os/lib/libutee/tee_api_operations.c:1753
    2c78:	4615      	mov	r5, r2
/mnt/disk/raspbian-tee/optee_os/lib/libutee/tee_api_operations.c:1758
    2c7a:	4604      	mov	r4, r0
/mnt/disk/raspbian-tee/optee_os/lib/libutee/tee_api_operations.c:1756
    2c7c:	3308      	adds	r3, #8
    2c7e:	ebad 0d03 	sub.w	sp, sp, r3
    2c82:	46e9      	mov	r9, sp
/mnt/disk/raspbian-tee/optee_os/lib/libutee/tee_api_operations.c:1758
    2c84:	b100      	cbz	r0, 2c88 <TEE_DeriveKey+0x20>
/mnt/disk/raspbian-tee/optee_os/lib/libutee/tee_api_operations.c:1758 (discriminator 1)
    2c86:	b916      	cbnz	r6, 2c8e <TEE_DeriveKey+0x26>
/mnt/disk/raspbian-tee/optee_os/lib/libutee/tee_api_operations.c:1759
    2c88:	2000      	movs	r0, #0
    2c8a:	f004 ff38 	bl	7afe <TEE_Panic>
/mnt/disk/raspbian-tee/optee_os/lib/libutee/tee_api_operations.c:1760
    2c8e:	f1b8 0f00 	cmp.w	r8, #0
    2c92:	d103      	bne.n	2c9c <TEE_DeriveKey+0x34>
/mnt/disk/raspbian-tee/optee_os/lib/libutee/tee_api_operations.c:1760 (discriminator 1)
    2c94:	b115      	cbz	r5, 2c9c <TEE_DeriveKey+0x34>
/mnt/disk/raspbian-tee/optee_os/lib/libutee/tee_api_operations.c:1761
    2c96:	4640      	mov	r0, r8
    2c98:	f004 ff31 	bl	7afe <TEE_Panic>
/mnt/disk/raspbian-tee/optee_os/lib/libutee/tee_api_operations.c:1762
    2c9c:	6823      	ldr	r3, [r4, #0]
    2c9e:	0f1b      	lsrs	r3, r3, #28
    2ca0:	2b08      	cmp	r3, #8
    2ca2:	d002      	beq.n	2caa <TEE_DeriveKey+0x42>
/mnt/disk/raspbian-tee/optee_os/lib/libutee/tee_api_operations.c:1764
    2ca4:	2000      	movs	r0, #0
    2ca6:	f004 ff2a 	bl	7afe <TEE_Panic>
/mnt/disk/raspbian-tee/optee_os/lib/libutee/tee_api_operations.c:1766
    2caa:	6863      	ldr	r3, [r4, #4]
    2cac:	2b08      	cmp	r3, #8
    2cae:	d002      	beq.n	2cb6 <TEE_DeriveKey+0x4e>
/mnt/disk/raspbian-tee/optee_os/lib/libutee/tee_api_operations.c:1767
    2cb0:	2000      	movs	r0, #0
    2cb2:	f004 ff24 	bl	7afe <TEE_Panic>
/mnt/disk/raspbian-tee/optee_os/lib/libutee/tee_api_operations.c:1768
    2cb6:	6a20      	ldr	r0, [r4, #32]
    2cb8:	b908      	cbnz	r0, 2cbe <TEE_DeriveKey+0x56>
/mnt/disk/raspbian-tee/optee_os/lib/libutee/tee_api_operations.c:1769
    2cba:	f004 ff20 	bl	7afe <TEE_Panic>
/mnt/disk/raspbian-tee/optee_os/lib/libutee/tee_api_operations.c:1770
    2cbe:	68a3      	ldr	r3, [r4, #8]
    2cc0:	2b06      	cmp	r3, #6
    2cc2:	d002      	beq.n	2cca <TEE_DeriveKey+0x62>
/mnt/disk/raspbian-tee/optee_os/lib/libutee/tee_api_operations.c:1771
    2cc4:	2000      	movs	r0, #0
    2cc6:	f004 ff1a 	bl	7afe <TEE_Panic>
/mnt/disk/raspbian-tee/optee_os/lib/libutee/tee_api_operations.c:1772
    2cca:	69e0      	ldr	r0, [r4, #28]
    2ccc:	f410 2080 	ands.w	r0, r0, #262144	; 0x40000
    2cd0:	d101      	bne.n	2cd6 <TEE_DeriveKey+0x6e>
/mnt/disk/raspbian-tee/optee_os/lib/libutee/tee_api_operations.c:1773
    2cd2:	f004 ff14 	bl	7afe <TEE_Panic>
/mnt/disk/raspbian-tee/optee_os/lib/libutee/tee_api_operations.c:1775
    2cd6:	1d39      	adds	r1, r7, #4
    2cd8:	4630      	mov	r0, r6
    2cda:	f000 ea4a 	blx	3170 <utee_cryp_obj_get_info>
/mnt/disk/raspbian-tee/optee_os/lib/libutee/tee_api_operations.c:1776
    2cde:	b108      	cbz	r0, 2ce4 <TEE_DeriveKey+0x7c>
/mnt/disk/raspbian-tee/optee_os/lib/libutee/tee_api_operations.c:1777
    2ce0:	f004 ff0d 	bl	7afe <TEE_Panic>
/mnt/disk/raspbian-tee/optee_os/lib/libutee/tee_api_operations.c:1779
    2ce4:	687b      	ldr	r3, [r7, #4]
    2ce6:	f1b3 4f20 	cmp.w	r3, #2684354560	; 0xa0000000
    2cea:	d002      	beq.n	2cf2 <TEE_DeriveKey+0x8a>
/mnt/disk/raspbian-tee/optee_os/lib/libutee/tee_api_operations.c:1780
    2cec:	2000      	movs	r0, #0
    2cee:	f004 ff06 	bl	7afe <TEE_Panic>
/mnt/disk/raspbian-tee/optee_os/lib/libutee/tee_api_operations.c:1781
    2cf2:	69fb      	ldr	r3, [r7, #28]
    2cf4:	039b      	lsls	r3, r3, #14
    2cf6:	d502      	bpl.n	2cfe <TEE_DeriveKey+0x96>
/mnt/disk/raspbian-tee/optee_os/lib/libutee/tee_api_operations.c:1782
    2cf8:	2000      	movs	r0, #0
    2cfa:	f004 ff00 	bl	7afe <TEE_Panic>
/mnt/disk/raspbian-tee/optee_os/lib/libutee/tee_api_operations.c:1784
    2cfe:	462a      	mov	r2, r5
    2d00:	4641      	mov	r1, r8
    2d02:	4648      	mov	r0, r9
    2d04:	f7fe f978 	bl	ff8 <__utee_from_attr>
/mnt/disk/raspbian-tee/optee_os/lib/libutee/tee_api_operations.c:1785
    2d08:	4633      	mov	r3, r6
    2d0a:	462a      	mov	r2, r5
    2d0c:	4649      	mov	r1, r9
    2d0e:	6be0      	ldr	r0, [r4, #60]	; 0x3c
    2d10:	f000 ea7e 	blx	3210 <utee_cryp_derive_key>
/mnt/disk/raspbian-tee/optee_os/lib/libutee/tee_api_operations.c:1787
    2d14:	b108      	cbz	r0, 2d1a <TEE_DeriveKey+0xb2>
/mnt/disk/raspbian-tee/optee_os/lib/libutee/tee_api_operations.c:1788
    2d16:	f004 fef2 	bl	7afe <TEE_Panic>
/mnt/disk/raspbian-tee/optee_os/lib/libutee/tee_api_operations.c:1789
    2d1a:	3724      	adds	r7, #36	; 0x24
    2d1c:	46bd      	mov	sp, r7
    2d1e:	e8bd 83f0 	ldmia.w	sp!, {r4, r5, r6, r7, r8, r9, pc}

00002d22 <TEE_GenerateRandom>:
TEE_GenerateRandom():
/mnt/disk/raspbian-tee/optee_os/lib/libutee/tee_api_operations.c:1794
    2d22:	b508      	push	{r3, lr}
/mnt/disk/raspbian-tee/optee_os/lib/libutee/tee_api_operations.c:1797
    2d24:	f000 ea7e 	blx	3224 <utee_cryp_random_number_generate>
/mnt/disk/raspbian-tee/optee_os/lib/libutee/tee_api_operations.c:1798
    2d28:	b118      	cbz	r0, 2d32 <TEE_GenerateRandom+0x10>
/mnt/disk/raspbian-tee/optee_os/lib/libutee/tee_api_operations.c:1800
    2d2a:	e8bd 4008 	ldmia.w	sp!, {r3, lr}
/mnt/disk/raspbian-tee/optee_os/lib/libutee/tee_api_operations.c:1799
    2d2e:	f004 bee6 	b.w	7afe <TEE_Panic>
    2d32:	bd08      	pop	{r3, pc}

00002d34 <rand>:
rand():
/mnt/disk/raspbian-tee/optee_os/lib/libutee/tee_api_operations.c:1803
    2d34:	b507      	push	{r0, r1, r2, lr}
/mnt/disk/raspbian-tee/optee_os/lib/libutee/tee_api_operations.c:1806
    2d36:	2104      	movs	r1, #4
    2d38:	eb0d 0001 	add.w	r0, sp, r1
    2d3c:	f7ff fff1 	bl	2d22 <TEE_GenerateRandom>
/mnt/disk/raspbian-tee/optee_os/lib/libutee/tee_api_operations.c:1813
    2d40:	9801      	ldr	r0, [sp, #4]
    2d42:	f020 4000 	bic.w	r0, r0, #2147483648	; 0x80000000
    2d46:	b003      	add	sp, #12
    2d48:	f85d fb04 	ldr.w	pc, [sp], #4

00002d4c <ta_header_get_session>:
ta_header_get_session():
/mnt/disk/raspbian-tee/optee_os/lib/libutee/arch/arm/user_ta_entry.c:81
    2d4c:	4b05      	ldr	r3, [pc, #20]	; (2d64 <ta_header_get_session+0x18>)
    2d4e:	447b      	add	r3, pc
    2d50:	681b      	ldr	r3, [r3, #0]
/mnt/disk/raspbian-tee/optee_os/lib/libutee/arch/arm/user_ta_entry.c:81 (discriminator 1)
    2d52:	b90b      	cbnz	r3, 2d58 <ta_header_get_session+0xc>
/mnt/disk/raspbian-tee/optee_os/lib/libutee/arch/arm/user_ta_entry.c:86
    2d54:	4618      	mov	r0, r3
    2d56:	4770      	bx	lr
/mnt/disk/raspbian-tee/optee_os/lib/libutee/arch/arm/user_ta_entry.c:82
    2d58:	681a      	ldr	r2, [r3, #0]
    2d5a:	4282      	cmp	r2, r0
    2d5c:	d0fa      	beq.n	2d54 <ta_header_get_session+0x8>
/mnt/disk/raspbian-tee/optee_os/lib/libutee/arch/arm/user_ta_entry.c:81 (discriminator 2)
    2d5e:	689b      	ldr	r3, [r3, #8]
    2d60:	e7f7      	b.n	2d52 <ta_header_get_session+0x6>
    2d62:	bf00      	nop
    2d64:	0000730a 	.word	0x0000730a

00002d68 <ta_header_remove_session>:
ta_header_remove_session():
/mnt/disk/raspbian-tee/optee_os/lib/libutee/arch/arm/user_ta_entry.c:119
    2d68:	4b14      	ldr	r3, [pc, #80]	; (2dbc <ta_header_remove_session+0x54>)
/mnt/disk/raspbian-tee/optee_os/lib/libutee/arch/arm/user_ta_entry.c:115
    2d6a:	b510      	push	{r4, lr}
/mnt/disk/raspbian-tee/optee_os/lib/libutee/arch/arm/user_ta_entry.c:119
    2d6c:	447b      	add	r3, pc
/mnt/disk/raspbian-tee/optee_os/lib/libutee/arch/arm/user_ta_entry.c:115
    2d6e:	4c14      	ldr	r4, [pc, #80]	; (2dc0 <ta_header_remove_session+0x58>)
/mnt/disk/raspbian-tee/optee_os/lib/libutee/arch/arm/user_ta_entry.c:119
    2d70:	681b      	ldr	r3, [r3, #0]
/mnt/disk/raspbian-tee/optee_os/lib/libutee/arch/arm/user_ta_entry.c:115
    2d72:	447c      	add	r4, pc
/mnt/disk/raspbian-tee/optee_os/lib/libutee/arch/arm/user_ta_entry.c:119 (discriminator 1)
    2d74:	b903      	cbnz	r3, 2d78 <ta_header_remove_session+0x10>
    2d76:	bd10      	pop	{r4, pc}
/mnt/disk/raspbian-tee/optee_os/lib/libutee/arch/arm/user_ta_entry.c:120
    2d78:	681a      	ldr	r2, [r3, #0]
    2d7a:	4282      	cmp	r2, r0
    2d7c:	689a      	ldr	r2, [r3, #8]
    2d7e:	d11b      	bne.n	2db8 <ta_header_remove_session+0x50>
    2d80:	68d9      	ldr	r1, [r3, #12]
/mnt/disk/raspbian-tee/optee_os/lib/libutee/arch/arm/user_ta_entry.c:121
    2d82:	b1aa      	cbz	r2, 2db0 <ta_header_remove_session+0x48>
/mnt/disk/raspbian-tee/optee_os/lib/libutee/arch/arm/user_ta_entry.c:121 (discriminator 1)
    2d84:	60d1      	str	r1, [r2, #12]
/mnt/disk/raspbian-tee/optee_os/lib/libutee/arch/arm/user_ta_entry.c:121 (discriminator 4)
    2d86:	68d9      	ldr	r1, [r3, #12]
/mnt/disk/raspbian-tee/optee_os/lib/libutee/arch/arm/user_ta_entry.c:122 (discriminator 4)
    2d88:	4618      	mov	r0, r3
/mnt/disk/raspbian-tee/optee_os/lib/libutee/arch/arm/user_ta_entry.c:121 (discriminator 4)
    2d8a:	600a      	str	r2, [r1, #0]
/mnt/disk/raspbian-tee/optee_os/lib/libutee/arch/arm/user_ta_entry.c:122 (discriminator 4)
    2d8c:	f7fe f928 	bl	fe0 <TEE_Free>
/mnt/disk/raspbian-tee/optee_os/lib/libutee/arch/arm/user_ta_entry.c:127 (discriminator 4)
    2d90:	4b0c      	ldr	r3, [pc, #48]	; (2dc4 <ta_header_remove_session+0x5c>)
    2d92:	447b      	add	r3, pc
    2d94:	681b      	ldr	r3, [r3, #0]
    2d96:	2b00      	cmp	r3, #0
    2d98:	d1ed      	bne.n	2d76 <ta_header_remove_session+0xe>
/mnt/disk/raspbian-tee/optee_os/lib/libutee/arch/arm/user_ta_entry.c:125 (discriminator 1)
    2d9a:	4b0b      	ldr	r3, [pc, #44]	; (2dc8 <ta_header_remove_session+0x60>)
    2d9c:	58e3      	ldr	r3, [r4, r3]
    2d9e:	695b      	ldr	r3, [r3, #20]
    2da0:	f003 0314 	and.w	r3, r3, #20
/mnt/disk/raspbian-tee/optee_os/lib/libutee/arch/arm/user_ta_entry.c:127 (discriminator 1)
    2da4:	2b14      	cmp	r3, #20
    2da6:	d0e6      	beq.n	2d76 <ta_header_remove_session+0xe>
/mnt/disk/raspbian-tee/optee_os/lib/libutee/arch/arm/user_ta_entry.c:133
    2da8:	e8bd 4010 	ldmia.w	sp!, {r4, lr}
uninit_instance():
/mnt/disk/raspbian-tee/optee_os/lib/libutee/arch/arm/user_ta_entry.c:63
    2dac:	f7fd b93a 	b.w	24 <TA_DestroyEntryPoint>
ta_header_remove_session():
/mnt/disk/raspbian-tee/optee_os/lib/libutee/arch/arm/user_ta_entry.c:121 (discriminator 2)
    2db0:	4806      	ldr	r0, [pc, #24]	; (2dcc <ta_header_remove_session+0x64>)
    2db2:	4478      	add	r0, pc
    2db4:	6041      	str	r1, [r0, #4]
    2db6:	e7e6      	b.n	2d86 <ta_header_remove_session+0x1e>
/mnt/disk/raspbian-tee/optee_os/lib/libutee/arch/arm/user_ta_entry.c:119 (discriminator 2)
    2db8:	4613      	mov	r3, r2
    2dba:	e7db      	b.n	2d74 <ta_header_remove_session+0xc>
    2dbc:	000072ec 	.word	0x000072ec
    2dc0:	0000671e 	.word	0x0000671e
    2dc4:	000072c6 	.word	0x000072c6
    2dc8:	00000034 	.word	0x00000034
    2dcc:	000072a6 	.word	0x000072a6

00002dd0 <__utee_entry>:
__utee_entry():
/mnt/disk/raspbian-tee/optee_os/lib/libutee/arch/arm/user_ta_entry.c:200
    2dd0:	b580      	push	{r7, lr}
    2dd2:	4616      	mov	r6, r2
    2dd4:	4c5a      	ldr	r4, [pc, #360]	; (2f40 <__utee_entry+0x170>)
    2dd6:	b08c      	sub	sp, #48	; 0x30
    2dd8:	460f      	mov	r7, r1
    2dda:	447c      	add	r4, pc
    2ddc:	4698      	mov	r8, r3
/mnt/disk/raspbian-tee/optee_os/lib/libutee/arch/arm/user_ta_entry.c:211
    2dde:	2801      	cmp	r0, #1
    2de0:	d074      	beq.n	2ecc <__utee_entry+0xfc>
    2de2:	d307      	bcc.n	2df4 <__utee_entry+0x24>
    2de4:	2802      	cmp	r0, #2
    2de6:	d07e      	beq.n	2ee6 <__utee_entry+0x116>
/mnt/disk/raspbian-tee/optee_os/lib/libutee/arch/arm/user_ta_entry.c:223
    2de8:	2000      	movs	r0, #0
/mnt/disk/raspbian-tee/optee_os/lib/libutee/arch/arm/user_ta_entry.c:222
    2dea:	f04f 34ff 	mov.w	r4, #4294967295	; 0xffffffff
/mnt/disk/raspbian-tee/optee_os/lib/libutee/arch/arm/user_ta_entry.c:223
    2dee:	f004 fe86 	bl	7afe <TEE_Panic>
/mnt/disk/raspbian-tee/optee_os/lib/libutee/arch/arm/user_ta_entry.c:224
    2df2:	e026      	b.n	2e42 <__utee_entry+0x72>
ta_header_add_session():
/mnt/disk/raspbian-tee/optee_os/lib/libutee/arch/arm/user_ta_entry.c:90
    2df4:	4608      	mov	r0, r1
    2df6:	f7ff ffa9 	bl	2d4c <ta_header_get_session>
/mnt/disk/raspbian-tee/optee_os/lib/libutee/arch/arm/user_ta_entry.c:93
    2dfa:	2800      	cmp	r0, #0
    2dfc:	d138      	bne.n	2e70 <__utee_entry+0xa0>
/mnt/disk/raspbian-tee/optee_os/lib/libutee/arch/arm/user_ta_entry.c:96
    2dfe:	4b51      	ldr	r3, [pc, #324]	; (2f44 <__utee_entry+0x174>)
    2e00:	447b      	add	r3, pc
    2e02:	781a      	ldrb	r2, [r3, #0]
    2e04:	b13a      	cbz	r2, 2e16 <__utee_entry+0x46>
/mnt/disk/raspbian-tee/optee_os/lib/libutee/arch/arm/user_ta_entry.c:103
    2e06:	f04f 4100 	mov.w	r1, #2147483648	; 0x80000000
    2e0a:	2010      	movs	r0, #16
    2e0c:	f7fe f8c1 	bl	f92 <TEE_Malloc>
/mnt/disk/raspbian-tee/optee_os/lib/libutee/arch/arm/user_ta_entry.c:105
    2e10:	bb18      	cbnz	r0, 2e5a <__utee_entry+0x8a>
/mnt/disk/raspbian-tee/optee_os/lib/libutee/arch/arm/user_ta_entry.c:106
    2e12:	4c49      	ldr	r4, [pc, #292]	; (2f38 <__utee_entry+0x168>)
    2e14:	e015      	b.n	2e42 <__utee_entry+0x72>
/mnt/disk/raspbian-tee/optee_os/lib/libutee/arch/arm/user_ta_entry.c:97
    2e16:	2201      	movs	r2, #1
    2e18:	701a      	strb	r2, [r3, #0]
init_instance():
/mnt/disk/raspbian-tee/optee_os/lib/libutee/arch/arm/user_ta_entry.c:53
    2e1a:	f004 fda5 	bl	7968 <tahead_get_trace_level>
    2e1e:	f7fd fa2e 	bl	27e <trace_set_level>
/mnt/disk/raspbian-tee/optee_os/lib/libutee/arch/arm/user_ta_entry.c:55
    2e22:	4b49      	ldr	r3, [pc, #292]	; (2f48 <__utee_entry+0x178>)
    2e24:	4a49      	ldr	r2, [pc, #292]	; (2f4c <__utee_entry+0x17c>)
    2e26:	58e3      	ldr	r3, [r4, r3]
    2e28:	58a2      	ldr	r2, [r4, r2]
    2e2a:	9201      	str	r2, [sp, #4]
    2e2c:	6819      	ldr	r1, [r3, #0]
    2e2e:	4610      	mov	r0, r2
    2e30:	f004 fbec 	bl	760c <malloc_add_pool>
/mnt/disk/raspbian-tee/optee_os/lib/libutee/arch/arm/user_ta_entry.c:56
    2e34:	f000 fdc8 	bl	39c8 <_TEE_MathAPI_Init>
/mnt/disk/raspbian-tee/optee_os/lib/libutee/arch/arm/user_ta_entry.c:57
    2e38:	f7fd f8f2 	bl	20 <TA_CreateEntryPoint>
ta_header_add_session():
/mnt/disk/raspbian-tee/optee_os/lib/libutee/arch/arm/user_ta_entry.c:99
    2e3c:	4604      	mov	r4, r0
    2e3e:	2800      	cmp	r0, #0
    2e40:	d0e1      	beq.n	2e06 <__utee_entry+0x36>
ta_header_save_params():
/mnt/disk/raspbian-tee/optee_os/lib/libutee/arch/arm/user_ta_entry.c:69
    2e42:	4843      	ldr	r0, [pc, #268]	; (2f50 <__utee_entry+0x180>)
    2e44:	2100      	movs	r1, #0
/mnt/disk/raspbian-tee/optee_os/lib/libutee/arch/arm/user_ta_entry.c:74
    2e46:	2220      	movs	r2, #32
/mnt/disk/raspbian-tee/optee_os/lib/libutee/arch/arm/user_ta_entry.c:69
    2e48:	4478      	add	r0, pc
/mnt/disk/raspbian-tee/optee_os/lib/libutee/arch/arm/user_ta_entry.c:74
    2e4a:	3008      	adds	r0, #8
/mnt/disk/raspbian-tee/optee_os/lib/libutee/arch/arm/user_ta_entry.c:69
    2e4c:	f840 1c04 	str.w	r1, [r0, #-4]
/mnt/disk/raspbian-tee/optee_os/lib/libutee/arch/arm/user_ta_entry.c:74
    2e50:	f004 fea1 	bl	7b96 <memset>
__utee_entry():
/mnt/disk/raspbian-tee/optee_os/lib/libutee/arch/arm/user_ta_entry.c:227
    2e54:	4620      	mov	r0, r4
    2e56:	f000 e88e 	blx	2f74 <utee_return>
ta_header_add_session():
/mnt/disk/raspbian-tee/optee_os/lib/libutee/arch/arm/user_ta_entry.c:108
    2e5a:	2300      	movs	r3, #0
    2e5c:	6043      	str	r3, [r0, #4]
/mnt/disk/raspbian-tee/optee_os/lib/libutee/arch/arm/user_ta_entry.c:109
    2e5e:	6083      	str	r3, [r0, #8]
    2e60:	4b3c      	ldr	r3, [pc, #240]	; (2f54 <__utee_entry+0x184>)
/mnt/disk/raspbian-tee/optee_os/lib/libutee/arch/arm/user_ta_entry.c:107
    2e62:	6007      	str	r7, [r0, #0]
/mnt/disk/raspbian-tee/optee_os/lib/libutee/arch/arm/user_ta_entry.c:109
    2e64:	447b      	add	r3, pc
    2e66:	685a      	ldr	r2, [r3, #4]
    2e68:	60c2      	str	r2, [r0, #12]
    2e6a:	6010      	str	r0, [r2, #0]
    2e6c:	3008      	adds	r0, #8
    2e6e:	6058      	str	r0, [r3, #4]
entry_open_session():
/mnt/disk/raspbian-tee/optee_os/lib/libutee/arch/arm/user_ta_entry.c:147
    2e70:	4638      	mov	r0, r7
    2e72:	f7ff ff6b 	bl	2d4c <ta_header_get_session>
/mnt/disk/raspbian-tee/optee_os/lib/libutee/arch/arm/user_ta_entry.c:148
    2e76:	4681      	mov	r9, r0
    2e78:	b908      	cbnz	r0, 2e7e <__utee_entry+0xae>
entry_close_session():
/mnt/disk/raspbian-tee/optee_os/lib/libutee/arch/arm/user_ta_entry.c:169
    2e7a:	4c30      	ldr	r4, [pc, #192]	; (2f3c <__utee_entry+0x16c>)
    2e7c:	e7e1      	b.n	2e42 <__utee_entry+0x72>
entry_open_session():
/mnt/disk/raspbian-tee/optee_os/lib/libutee/arch/arm/user_ta_entry.c:151
    2e7e:	f10d 0810 	add.w	r8, sp, #16
ta_header_save_params():
/mnt/disk/raspbian-tee/optee_os/lib/libutee/arch/arm/user_ta_entry.c:69
    2e82:	4c35      	ldr	r4, [pc, #212]	; (2f58 <__utee_entry+0x188>)
/mnt/disk/raspbian-tee/optee_os/lib/libutee/arch/arm/user_ta_entry.c:72
    2e84:	4645      	mov	r5, r8
entry_open_session():
/mnt/disk/raspbian-tee/optee_os/lib/libutee/arch/arm/user_ta_entry.c:151
    2e86:	4632      	mov	r2, r6
    2e88:	a903      	add	r1, sp, #12
    2e8a:	4640      	mov	r0, r8
ta_header_save_params():
/mnt/disk/raspbian-tee/optee_os/lib/libutee/arch/arm/user_ta_entry.c:69
    2e8c:	447c      	add	r4, pc
entry_open_session():
/mnt/disk/raspbian-tee/optee_os/lib/libutee/arch/arm/user_ta_entry.c:151
    2e8e:	f7fd ff69 	bl	d64 <__utee_to_param>
ta_header_save_params():
/mnt/disk/raspbian-tee/optee_os/lib/libutee/arch/arm/user_ta_entry.c:72
    2e92:	cd0f      	ldmia	r5!, {r0, r1, r2, r3}
    2e94:	3408      	adds	r4, #8
entry_open_session():
/mnt/disk/raspbian-tee/optee_os/lib/libutee/arch/arm/user_ta_entry.c:152
    2e96:	f8dd c00c 	ldr.w	ip, [sp, #12]
ta_header_save_params():
/mnt/disk/raspbian-tee/optee_os/lib/libutee/arch/arm/user_ta_entry.c:69
    2e9a:	f844 cc04 	str.w	ip, [r4, #-4]
/mnt/disk/raspbian-tee/optee_os/lib/libutee/arch/arm/user_ta_entry.c:72
    2e9e:	c40f      	stmia	r4!, {r0, r1, r2, r3}
    2ea0:	e895 000f 	ldmia.w	r5, {r0, r1, r2, r3}
    2ea4:	e884 000f 	stmia.w	r4, {r0, r1, r2, r3}
entry_open_session():
/mnt/disk/raspbian-tee/optee_os/lib/libutee/arch/arm/user_ta_entry.c:154
    2ea8:	f109 0204 	add.w	r2, r9, #4
    2eac:	4641      	mov	r1, r8
    2eae:	4660      	mov	r0, ip
    2eb0:	f7fd f8b9 	bl	26 <TA_OpenSessionEntryPoint>
/mnt/disk/raspbian-tee/optee_os/lib/libutee/arch/arm/user_ta_entry.c:157
    2eb4:	4642      	mov	r2, r8
/mnt/disk/raspbian-tee/optee_os/lib/libutee/arch/arm/user_ta_entry.c:154
    2eb6:	4604      	mov	r4, r0
/mnt/disk/raspbian-tee/optee_os/lib/libutee/arch/arm/user_ta_entry.c:157
    2eb8:	9903      	ldr	r1, [sp, #12]
    2eba:	4630      	mov	r0, r6
    2ebc:	f7fd ff2a 	bl	d14 <__utee_from_param>
/mnt/disk/raspbian-tee/optee_os/lib/libutee/arch/arm/user_ta_entry.c:159
    2ec0:	2c00      	cmp	r4, #0
    2ec2:	d0be      	beq.n	2e42 <__utee_entry+0x72>
/mnt/disk/raspbian-tee/optee_os/lib/libutee/arch/arm/user_ta_entry.c:160
    2ec4:	4638      	mov	r0, r7
    2ec6:	f7ff ff4f 	bl	2d68 <ta_header_remove_session>
    2eca:	e7ba      	b.n	2e42 <__utee_entry+0x72>
entry_close_session():
/mnt/disk/raspbian-tee/optee_os/lib/libutee/arch/arm/user_ta_entry.c:166
    2ecc:	4608      	mov	r0, r1
    2ece:	f7ff ff3d 	bl	2d4c <ta_header_get_session>
/mnt/disk/raspbian-tee/optee_os/lib/libutee/arch/arm/user_ta_entry.c:168
    2ed2:	2800      	cmp	r0, #0
    2ed4:	d0d1      	beq.n	2e7a <__utee_entry+0xaa>
/mnt/disk/raspbian-tee/optee_os/lib/libutee/arch/arm/user_ta_entry.c:171
    2ed6:	6840      	ldr	r0, [r0, #4]
/mnt/disk/raspbian-tee/optee_os/lib/libutee/arch/arm/user_ta_entry.c:174
    2ed8:	2400      	movs	r4, #0
/mnt/disk/raspbian-tee/optee_os/lib/libutee/arch/arm/user_ta_entry.c:171
    2eda:	f7fd f8b5 	bl	48 <TA_CloseSessionEntryPoint>
/mnt/disk/raspbian-tee/optee_os/lib/libutee/arch/arm/user_ta_entry.c:173
    2ede:	4638      	mov	r0, r7
    2ee0:	f7ff ff42 	bl	2d68 <ta_header_remove_session>
    2ee4:	e7ad      	b.n	2e42 <__utee_entry+0x72>
entry_invoke_command():
/mnt/disk/raspbian-tee/optee_os/lib/libutee/arch/arm/user_ta_entry.c:183
    2ee6:	4608      	mov	r0, r1
    2ee8:	f7ff ff30 	bl	2d4c <ta_header_get_session>
/mnt/disk/raspbian-tee/optee_os/lib/libutee/arch/arm/user_ta_entry.c:185
    2eec:	4681      	mov	r9, r0
    2eee:	2800      	cmp	r0, #0
    2ef0:	d0c3      	beq.n	2e7a <__utee_entry+0xaa>
/mnt/disk/raspbian-tee/optee_os/lib/libutee/arch/arm/user_ta_entry.c:188
    2ef2:	af04      	add	r7, sp, #16
ta_header_save_params():
/mnt/disk/raspbian-tee/optee_os/lib/libutee/arch/arm/user_ta_entry.c:69
    2ef4:	4c19      	ldr	r4, [pc, #100]	; (2f5c <__utee_entry+0x18c>)
/mnt/disk/raspbian-tee/optee_os/lib/libutee/arch/arm/user_ta_entry.c:72
    2ef6:	463d      	mov	r5, r7
entry_invoke_command():
/mnt/disk/raspbian-tee/optee_os/lib/libutee/arch/arm/user_ta_entry.c:188
    2ef8:	4632      	mov	r2, r6
    2efa:	a903      	add	r1, sp, #12
    2efc:	4638      	mov	r0, r7
ta_header_save_params():
/mnt/disk/raspbian-tee/optee_os/lib/libutee/arch/arm/user_ta_entry.c:69
    2efe:	447c      	add	r4, pc
entry_invoke_command():
/mnt/disk/raspbian-tee/optee_os/lib/libutee/arch/arm/user_ta_entry.c:188
    2f00:	f7fd ff30 	bl	d64 <__utee_to_param>
ta_header_save_params():
/mnt/disk/raspbian-tee/optee_os/lib/libutee/arch/arm/user_ta_entry.c:72
    2f04:	cd0f      	ldmia	r5!, {r0, r1, r2, r3}
    2f06:	3408      	adds	r4, #8
entry_invoke_command():
/mnt/disk/raspbian-tee/optee_os/lib/libutee/arch/arm/user_ta_entry.c:189
    2f08:	f8dd c00c 	ldr.w	ip, [sp, #12]
ta_header_save_params():
/mnt/disk/raspbian-tee/optee_os/lib/libutee/arch/arm/user_ta_entry.c:69
    2f0c:	f844 cc04 	str.w	ip, [r4, #-4]
/mnt/disk/raspbian-tee/optee_os/lib/libutee/arch/arm/user_ta_entry.c:72
    2f10:	c40f      	stmia	r4!, {r0, r1, r2, r3}
    2f12:	e895 000f 	ldmia.w	r5, {r0, r1, r2, r3}
    2f16:	e884 000f 	stmia.w	r4, {r0, r1, r2, r3}
entry_invoke_command():
/mnt/disk/raspbian-tee/optee_os/lib/libutee/arch/arm/user_ta_entry.c:191
    2f1a:	4662      	mov	r2, ip
    2f1c:	4641      	mov	r1, r8
    2f1e:	463b      	mov	r3, r7
    2f20:	f8d9 0004 	ldr.w	r0, [r9, #4]
    2f24:	f7fd f89a 	bl	5c <TA_InvokeCommandEntryPoint>
/mnt/disk/raspbian-tee/optee_os/lib/libutee/arch/arm/user_ta_entry.c:194
    2f28:	463a      	mov	r2, r7
/mnt/disk/raspbian-tee/optee_os/lib/libutee/arch/arm/user_ta_entry.c:191
    2f2a:	4604      	mov	r4, r0
/mnt/disk/raspbian-tee/optee_os/lib/libutee/arch/arm/user_ta_entry.c:194
    2f2c:	9903      	ldr	r1, [sp, #12]
    2f2e:	4630      	mov	r0, r6
    2f30:	f7fd fef0 	bl	d14 <__utee_from_param>
    2f34:	e785      	b.n	2e42 <__utee_entry+0x72>
    2f36:	bf00      	nop
    2f38:	ffff000c 	.word	0xffff000c
    2f3c:	ffff0007 	.word	0xffff0007
    2f40:	000066b6 	.word	0x000066b6
    2f44:	00007280 	.word	0x00007280
    2f48:	0000000c 	.word	0x0000000c
    2f4c:	00000024 	.word	0x00000024
    2f50:	00007238 	.word	0x00007238
    2f54:	000071f4 	.word	0x000071f4
    2f58:	000071f4 	.word	0x000071f4
    2f5c:	00007182 	.word	0x00007182

00002f60 <utee_panic>:
utee_panic():
/mnt/disk/raspbian-tee/optee_os/lib/libutee/arch/arm/utee_syscalls_a32.S:47
    2f60:	e92d4fff 	push	{r0, r1, r2, r3, r4, r5, r6, r7, r8, r9, sl, fp, lr}
/mnt/disk/raspbian-tee/optee_os/lib/libutee/arch/arm/utee_syscalls_a32.S:49
    2f64:	e1a0e00f 	mov	lr, pc
/mnt/disk/raspbian-tee/optee_os/lib/libutee/arch/arm/utee_syscalls_a32.S:50
    2f68:	e52de004 	push	{lr}		; (str lr, [sp, #-4]!)
/mnt/disk/raspbian-tee/optee_os/lib/libutee/arch/arm/utee_syscalls_a32.S:52
    2f6c:	e1a0100d 	mov	r1, sp
/mnt/disk/raspbian-tee/optee_os/lib/libutee/arch/arm/utee_syscalls_a32.S:53
    2f70:	eb000009 	bl	2f9c <__utee_panic>

00002f74 <utee_return>:
utee_return():
/mnt/disk/raspbian-tee/optee_os/lib/libutee/arch/arm/utee_syscalls_asm.S:8
    2f74:	e92d40e0 	push	{r5, r6, r7, lr}
    2f78:	e3a07000 	mov	r7, #0
    2f7c:	e3a06000 	mov	r6, #0
    2f80:	ef000000 	svc	0x00000000
    2f84:	e8bd80e0 	pop	{r5, r6, r7, pc}

00002f88 <utee_log>:
utee_log():
/mnt/disk/raspbian-tee/optee_os/lib/libutee/arch/arm/utee_syscalls_asm.S:10
    2f88:	e92d40e0 	push	{r5, r6, r7, lr}
    2f8c:	e3a07001 	mov	r7, #1
    2f90:	e3a06000 	mov	r6, #0
    2f94:	ef000000 	svc	0x00000000
    2f98:	e8bd80e0 	pop	{r5, r6, r7, pc}

00002f9c <__utee_panic>:
__utee_panic():
/mnt/disk/raspbian-tee/optee_os/lib/libutee/arch/arm/utee_syscalls_asm.S:12
    2f9c:	e92d40e0 	push	{r5, r6, r7, lr}
    2fa0:	e3a07002 	mov	r7, #2
    2fa4:	e3a06000 	mov	r6, #0
    2fa8:	ef000000 	svc	0x00000000
    2fac:	e8bd80e0 	pop	{r5, r6, r7, pc}

00002fb0 <utee_get_property>:
utee_get_property():
/mnt/disk/raspbian-tee/optee_os/lib/libutee/arch/arm/utee_syscalls_asm.S:14
    2fb0:	e92d40e0 	push	{r5, r6, r7, lr}
    2fb4:	e3a07003 	mov	r7, #3
    2fb8:	e3a06003 	mov	r6, #3
    2fbc:	e28d5010 	add	r5, sp, #16
    2fc0:	ef000000 	svc	0x00000000
    2fc4:	e8bd80e0 	pop	{r5, r6, r7, pc}

00002fc8 <utee_get_property_name_to_index>:
utee_get_property_name_to_index():
/mnt/disk/raspbian-tee/optee_os/lib/libutee/arch/arm/utee_syscalls_asm.S:16
    2fc8:	e92d40e0 	push	{r5, r6, r7, lr}
    2fcc:	e3a07004 	mov	r7, #4
    2fd0:	e3a06000 	mov	r6, #0
    2fd4:	ef000000 	svc	0x00000000
    2fd8:	e8bd80e0 	pop	{r5, r6, r7, pc}

00002fdc <utee_open_ta_session>:
utee_open_ta_session():
/mnt/disk/raspbian-tee/optee_os/lib/libutee/arch/arm/utee_syscalls_asm.S:19
    2fdc:	e92d40e0 	push	{r5, r6, r7, lr}
    2fe0:	e3a07005 	mov	r7, #5
    2fe4:	e3a06001 	mov	r6, #1
    2fe8:	e28d5010 	add	r5, sp, #16
    2fec:	ef000000 	svc	0x00000000
    2ff0:	e8bd80e0 	pop	{r5, r6, r7, pc}

00002ff4 <utee_close_ta_session>:
utee_close_ta_session():
/mnt/disk/raspbian-tee/optee_os/lib/libutee/arch/arm/utee_syscalls_asm.S:21
    2ff4:	e92d40e0 	push	{r5, r6, r7, lr}
    2ff8:	e3a07006 	mov	r7, #6
    2ffc:	e3a06000 	mov	r6, #0
    3000:	ef000000 	svc	0x00000000
    3004:	e8bd80e0 	pop	{r5, r6, r7, pc}

00003008 <utee_invoke_ta_command>:
utee_invoke_ta_command():
/mnt/disk/raspbian-tee/optee_os/lib/libutee/arch/arm/utee_syscalls_asm.S:23
    3008:	e92d40e0 	push	{r5, r6, r7, lr}
    300c:	e3a07007 	mov	r7, #7
    3010:	e3a06001 	mov	r6, #1
    3014:	e28d5010 	add	r5, sp, #16
    3018:	ef000000 	svc	0x00000000
    301c:	e8bd80e0 	pop	{r5, r6, r7, pc}

00003020 <utee_get_cancellation_flag>:
utee_get_cancellation_flag():
/mnt/disk/raspbian-tee/optee_os/lib/libutee/arch/arm/utee_syscalls_asm.S:25
    3020:	e92d40e0 	push	{r5, r6, r7, lr}
    3024:	e3a07009 	mov	r7, #9
    3028:	e3a06000 	mov	r6, #0
    302c:	ef000000 	svc	0x00000000
    3030:	e8bd80e0 	pop	{r5, r6, r7, pc}

00003034 <utee_check_access_rights>:
utee_check_access_rights():
/mnt/disk/raspbian-tee/optee_os/lib/libutee/arch/arm/utee_syscalls_asm.S:28
    3034:	e92d40e0 	push	{r5, r6, r7, lr}
    3038:	e3a07008 	mov	r7, #8
    303c:	e3a06000 	mov	r6, #0
    3040:	ef000000 	svc	0x00000000
    3044:	e8bd80e0 	pop	{r5, r6, r7, pc}

00003048 <utee_unmask_cancellation>:
utee_unmask_cancellation():
/mnt/disk/raspbian-tee/optee_os/lib/libutee/arch/arm/utee_syscalls_asm.S:30
    3048:	e92d40e0 	push	{r5, r6, r7, lr}
    304c:	e3a0700a 	mov	r7, #10
    3050:	e3a06000 	mov	r6, #0
    3054:	ef000000 	svc	0x00000000
    3058:	e8bd80e0 	pop	{r5, r6, r7, pc}

0000305c <utee_mask_cancellation>:
utee_mask_cancellation():
/mnt/disk/raspbian-tee/optee_os/lib/libutee/arch/arm/utee_syscalls_asm.S:32
    305c:	e92d40e0 	push	{r5, r6, r7, lr}
    3060:	e3a0700b 	mov	r7, #11
    3064:	e3a06000 	mov	r6, #0
    3068:	ef000000 	svc	0x00000000
    306c:	e8bd80e0 	pop	{r5, r6, r7, pc}

00003070 <utee_wait>:
utee_wait():
/mnt/disk/raspbian-tee/optee_os/lib/libutee/arch/arm/utee_syscalls_asm.S:34
    3070:	e92d40e0 	push	{r5, r6, r7, lr}
    3074:	e3a0700c 	mov	r7, #12
    3078:	e3a06000 	mov	r6, #0
    307c:	ef000000 	svc	0x00000000
    3080:	e8bd80e0 	pop	{r5, r6, r7, pc}

00003084 <utee_get_time>:
utee_get_time():
/mnt/disk/raspbian-tee/optee_os/lib/libutee/arch/arm/utee_syscalls_asm.S:36
    3084:	e92d40e0 	push	{r5, r6, r7, lr}
    3088:	e3a0700d 	mov	r7, #13
    308c:	e3a06000 	mov	r6, #0
    3090:	ef000000 	svc	0x00000000
    3094:	e8bd80e0 	pop	{r5, r6, r7, pc}

00003098 <utee_set_ta_time>:
utee_set_ta_time():
/mnt/disk/raspbian-tee/optee_os/lib/libutee/arch/arm/utee_syscalls_asm.S:38
    3098:	e92d40e0 	push	{r5, r6, r7, lr}
    309c:	e3a0700e 	mov	r7, #14
    30a0:	e3a06000 	mov	r6, #0
    30a4:	ef000000 	svc	0x00000000
    30a8:	e8bd80e0 	pop	{r5, r6, r7, pc}

000030ac <utee_cryp_state_alloc>:
utee_cryp_state_alloc():
/mnt/disk/raspbian-tee/optee_os/lib/libutee/arch/arm/utee_syscalls_asm.S:40
    30ac:	e92d40e0 	push	{r5, r6, r7, lr}
    30b0:	e3a0700f 	mov	r7, #15
    30b4:	e3a06001 	mov	r6, #1
    30b8:	e28d5010 	add	r5, sp, #16
    30bc:	ef000000 	svc	0x00000000
    30c0:	e8bd80e0 	pop	{r5, r6, r7, pc}

000030c4 <utee_cryp_state_copy>:
utee_cryp_state_copy():
/mnt/disk/raspbian-tee/optee_os/lib/libutee/arch/arm/utee_syscalls_asm.S:42
    30c4:	e92d40e0 	push	{r5, r6, r7, lr}
    30c8:	e3a07010 	mov	r7, #16
    30cc:	e3a06000 	mov	r6, #0
    30d0:	ef000000 	svc	0x00000000
    30d4:	e8bd80e0 	pop	{r5, r6, r7, pc}

000030d8 <utee_cryp_state_free>:
utee_cryp_state_free():
/mnt/disk/raspbian-tee/optee_os/lib/libutee/arch/arm/utee_syscalls_asm.S:44
    30d8:	e92d40e0 	push	{r5, r6, r7, lr}
    30dc:	e3a07011 	mov	r7, #17
    30e0:	e3a06000 	mov	r6, #0
    30e4:	ef000000 	svc	0x00000000
    30e8:	e8bd80e0 	pop	{r5, r6, r7, pc}

000030ec <utee_hash_init>:
utee_hash_init():
/mnt/disk/raspbian-tee/optee_os/lib/libutee/arch/arm/utee_syscalls_asm.S:46
    30ec:	e92d40e0 	push	{r5, r6, r7, lr}
    30f0:	e3a07012 	mov	r7, #18
    30f4:	e3a06000 	mov	r6, #0
    30f8:	ef000000 	svc	0x00000000
    30fc:	e8bd80e0 	pop	{r5, r6, r7, pc}

00003100 <utee_hash_update>:
utee_hash_update():
/mnt/disk/raspbian-tee/optee_os/lib/libutee/arch/arm/utee_syscalls_asm.S:48
    3100:	e92d40e0 	push	{r5, r6, r7, lr}
    3104:	e3a07013 	mov	r7, #19
    3108:	e3a06000 	mov	r6, #0
    310c:	ef000000 	svc	0x00000000
    3110:	e8bd80e0 	pop	{r5, r6, r7, pc}

00003114 <utee_hash_final>:
utee_hash_final():
/mnt/disk/raspbian-tee/optee_os/lib/libutee/arch/arm/utee_syscalls_asm.S:50
    3114:	e92d40e0 	push	{r5, r6, r7, lr}
    3118:	e3a07014 	mov	r7, #20
    311c:	e3a06001 	mov	r6, #1
    3120:	e28d5010 	add	r5, sp, #16
    3124:	ef000000 	svc	0x00000000
    3128:	e8bd80e0 	pop	{r5, r6, r7, pc}

0000312c <utee_cipher_init>:
utee_cipher_init():
/mnt/disk/raspbian-tee/optee_os/lib/libutee/arch/arm/utee_syscalls_asm.S:52
    312c:	e92d40e0 	push	{r5, r6, r7, lr}
    3130:	e3a07015 	mov	r7, #21
    3134:	e3a06000 	mov	r6, #0
    3138:	ef000000 	svc	0x00000000
    313c:	e8bd80e0 	pop	{r5, r6, r7, pc}

00003140 <utee_cipher_update>:
utee_cipher_update():
/mnt/disk/raspbian-tee/optee_os/lib/libutee/arch/arm/utee_syscalls_asm.S:54
    3140:	e92d40e0 	push	{r5, r6, r7, lr}
    3144:	e3a07016 	mov	r7, #22
    3148:	e3a06001 	mov	r6, #1
    314c:	e28d5010 	add	r5, sp, #16
    3150:	ef000000 	svc	0x00000000
    3154:	e8bd80e0 	pop	{r5, r6, r7, pc}

00003158 <utee_cipher_final>:
utee_cipher_final():
/mnt/disk/raspbian-tee/optee_os/lib/libutee/arch/arm/utee_syscalls_asm.S:56
    3158:	e92d40e0 	push	{r5, r6, r7, lr}
    315c:	e3a07017 	mov	r7, #23
    3160:	e3a06001 	mov	r6, #1
    3164:	e28d5010 	add	r5, sp, #16
    3168:	ef000000 	svc	0x00000000
    316c:	e8bd80e0 	pop	{r5, r6, r7, pc}

00003170 <utee_cryp_obj_get_info>:
utee_cryp_obj_get_info():
/mnt/disk/raspbian-tee/optee_os/lib/libutee/arch/arm/utee_syscalls_asm.S:58
    3170:	e92d40e0 	push	{r5, r6, r7, lr}
    3174:	e3a07018 	mov	r7, #24
    3178:	e3a06000 	mov	r6, #0
    317c:	ef000000 	svc	0x00000000
    3180:	e8bd80e0 	pop	{r5, r6, r7, pc}

00003184 <utee_cryp_obj_restrict_usage>:
utee_cryp_obj_restrict_usage():
/mnt/disk/raspbian-tee/optee_os/lib/libutee/arch/arm/utee_syscalls_asm.S:60
    3184:	e92d40e0 	push	{r5, r6, r7, lr}
    3188:	e3a07019 	mov	r7, #25
    318c:	e3a06000 	mov	r6, #0
    3190:	ef000000 	svc	0x00000000
    3194:	e8bd80e0 	pop	{r5, r6, r7, pc}

00003198 <utee_cryp_obj_get_attr>:
utee_cryp_obj_get_attr():
/mnt/disk/raspbian-tee/optee_os/lib/libutee/arch/arm/utee_syscalls_asm.S:63
    3198:	e92d40e0 	push	{r5, r6, r7, lr}
    319c:	e3a0701a 	mov	r7, #26
    31a0:	e3a06000 	mov	r6, #0
    31a4:	ef000000 	svc	0x00000000
    31a8:	e8bd80e0 	pop	{r5, r6, r7, pc}

000031ac <utee_cryp_obj_alloc>:
utee_cryp_obj_alloc():
/mnt/disk/raspbian-tee/optee_os/lib/libutee/arch/arm/utee_syscalls_asm.S:65
    31ac:	e92d40e0 	push	{r5, r6, r7, lr}
    31b0:	e3a0701b 	mov	r7, #27
    31b4:	e3a06000 	mov	r6, #0
    31b8:	ef000000 	svc	0x00000000
    31bc:	e8bd80e0 	pop	{r5, r6, r7, pc}

000031c0 <utee_cryp_obj_close>:
utee_cryp_obj_close():
/mnt/disk/raspbian-tee/optee_os/lib/libutee/arch/arm/utee_syscalls_asm.S:67
    31c0:	e92d40e0 	push	{r5, r6, r7, lr}
    31c4:	e3a0701c 	mov	r7, #28
    31c8:	e3a06000 	mov	r6, #0
    31cc:	ef000000 	svc	0x00000000
    31d0:	e8bd80e0 	pop	{r5, r6, r7, pc}

000031d4 <utee_cryp_obj_reset>:
utee_cryp_obj_reset():
/mnt/disk/raspbian-tee/optee_os/lib/libutee/arch/arm/utee_syscalls_asm.S:69
    31d4:	e92d40e0 	push	{r5, r6, r7, lr}
    31d8:	e3a0701d 	mov	r7, #29
    31dc:	e3a06000 	mov	r6, #0
    31e0:	ef000000 	svc	0x00000000
    31e4:	e8bd80e0 	pop	{r5, r6, r7, pc}

000031e8 <utee_cryp_obj_populate>:
utee_cryp_obj_populate():
/mnt/disk/raspbian-tee/optee_os/lib/libutee/arch/arm/utee_syscalls_asm.S:71
    31e8:	e92d40e0 	push	{r5, r6, r7, lr}
    31ec:	e3a0701e 	mov	r7, #30
    31f0:	e3a06000 	mov	r6, #0
    31f4:	ef000000 	svc	0x00000000
    31f8:	e8bd80e0 	pop	{r5, r6, r7, pc}

000031fc <utee_cryp_obj_copy>:
utee_cryp_obj_copy():
/mnt/disk/raspbian-tee/optee_os/lib/libutee/arch/arm/utee_syscalls_asm.S:73
    31fc:	e92d40e0 	push	{r5, r6, r7, lr}
    3200:	e3a0701f 	mov	r7, #31
    3204:	e3a06000 	mov	r6, #0
    3208:	ef000000 	svc	0x00000000
    320c:	e8bd80e0 	pop	{r5, r6, r7, pc}

00003210 <utee_cryp_derive_key>:
utee_cryp_derive_key():
/mnt/disk/raspbian-tee/optee_os/lib/libutee/arch/arm/utee_syscalls_asm.S:75
    3210:	e92d40e0 	push	{r5, r6, r7, lr}
    3214:	e3a07020 	mov	r7, #32
    3218:	e3a06000 	mov	r6, #0
    321c:	ef000000 	svc	0x00000000
    3220:	e8bd80e0 	pop	{r5, r6, r7, pc}

00003224 <utee_cryp_random_number_generate>:
utee_cryp_random_number_generate():
/mnt/disk/raspbian-tee/optee_os/lib/libutee/arch/arm/utee_syscalls_asm.S:77
    3224:	e92d40e0 	push	{r5, r6, r7, lr}
    3228:	e3a07021 	mov	r7, #33	; 0x21
    322c:	e3a06000 	mov	r6, #0
    3230:	ef000000 	svc	0x00000000
    3234:	e8bd80e0 	pop	{r5, r6, r7, pc}

00003238 <utee_authenc_init>:
utee_authenc_init():
/mnt/disk/raspbian-tee/optee_os/lib/libutee/arch/arm/utee_syscalls_asm.S:80
    3238:	e92d40e0 	push	{r5, r6, r7, lr}
    323c:	e3a07022 	mov	r7, #34	; 0x22
    3240:	e3a06002 	mov	r6, #2
    3244:	e28d5010 	add	r5, sp, #16
    3248:	ef000000 	svc	0x00000000
    324c:	e8bd80e0 	pop	{r5, r6, r7, pc}

00003250 <utee_authenc_update_aad>:
utee_authenc_update_aad():
/mnt/disk/raspbian-tee/optee_os/lib/libutee/arch/arm/utee_syscalls_asm.S:82
    3250:	e92d40e0 	push	{r5, r6, r7, lr}
    3254:	e3a07023 	mov	r7, #35	; 0x23
    3258:	e3a06000 	mov	r6, #0
    325c:	ef000000 	svc	0x00000000
    3260:	e8bd80e0 	pop	{r5, r6, r7, pc}

00003264 <utee_authenc_update_payload>:
utee_authenc_update_payload():
/mnt/disk/raspbian-tee/optee_os/lib/libutee/arch/arm/utee_syscalls_asm.S:84
    3264:	e92d40e0 	push	{r5, r6, r7, lr}
    3268:	e3a07024 	mov	r7, #36	; 0x24
    326c:	e3a06001 	mov	r6, #1
    3270:	e28d5010 	add	r5, sp, #16
    3274:	ef000000 	svc	0x00000000
    3278:	e8bd80e0 	pop	{r5, r6, r7, pc}

0000327c <utee_authenc_enc_final>:
utee_authenc_enc_final():
/mnt/disk/raspbian-tee/optee_os/lib/libutee/arch/arm/utee_syscalls_asm.S:87
    327c:	e92d40e0 	push	{r5, r6, r7, lr}
    3280:	e3a07025 	mov	r7, #37	; 0x25
    3284:	e3a06003 	mov	r6, #3
    3288:	e28d5010 	add	r5, sp, #16
    328c:	ef000000 	svc	0x00000000
    3290:	e8bd80e0 	pop	{r5, r6, r7, pc}

00003294 <utee_authenc_dec_final>:
utee_authenc_dec_final():
/mnt/disk/raspbian-tee/optee_os/lib/libutee/arch/arm/utee_syscalls_asm.S:89
    3294:	e92d40e0 	push	{r5, r6, r7, lr}
    3298:	e3a07026 	mov	r7, #38	; 0x26
    329c:	e3a06003 	mov	r6, #3
    32a0:	e28d5010 	add	r5, sp, #16
    32a4:	ef000000 	svc	0x00000000
    32a8:	e8bd80e0 	pop	{r5, r6, r7, pc}

000032ac <utee_asymm_operate>:
utee_asymm_operate():
/mnt/disk/raspbian-tee/optee_os/lib/libutee/arch/arm/utee_syscalls_asm.S:91
    32ac:	e92d40e0 	push	{r5, r6, r7, lr}
    32b0:	e3a07027 	mov	r7, #39	; 0x27
    32b4:	e3a06003 	mov	r6, #3
    32b8:	e28d5010 	add	r5, sp, #16
    32bc:	ef000000 	svc	0x00000000
    32c0:	e8bd80e0 	pop	{r5, r6, r7, pc}

000032c4 <utee_asymm_verify>:
utee_asymm_verify():
/mnt/disk/raspbian-tee/optee_os/lib/libutee/arch/arm/utee_syscalls_asm.S:93
    32c4:	e92d40e0 	push	{r5, r6, r7, lr}
    32c8:	e3a07028 	mov	r7, #40	; 0x28
    32cc:	e3a06003 	mov	r6, #3
    32d0:	e28d5010 	add	r5, sp, #16
    32d4:	ef000000 	svc	0x00000000
    32d8:	e8bd80e0 	pop	{r5, r6, r7, pc}

000032dc <utee_storage_obj_open>:
utee_storage_obj_open():
/mnt/disk/raspbian-tee/optee_os/lib/libutee/arch/arm/utee_syscalls_asm.S:95
    32dc:	e92d40e0 	push	{r5, r6, r7, lr}
    32e0:	e3a07029 	mov	r7, #41	; 0x29
    32e4:	e3a06001 	mov	r6, #1
    32e8:	e28d5010 	add	r5, sp, #16
    32ec:	ef000000 	svc	0x00000000
    32f0:	e8bd80e0 	pop	{r5, r6, r7, pc}

000032f4 <utee_storage_obj_create>:
utee_storage_obj_create():
/mnt/disk/raspbian-tee/optee_os/lib/libutee/arch/arm/utee_syscalls_asm.S:97
    32f4:	e92d40e0 	push	{r5, r6, r7, lr}
    32f8:	e3a0702a 	mov	r7, #42	; 0x2a
    32fc:	e3a06004 	mov	r6, #4
    3300:	e28d5010 	add	r5, sp, #16
    3304:	ef000000 	svc	0x00000000
    3308:	e8bd80e0 	pop	{r5, r6, r7, pc}

0000330c <utee_storage_obj_del>:
utee_storage_obj_del():
/mnt/disk/raspbian-tee/optee_os/lib/libutee/arch/arm/utee_syscalls_asm.S:99
    330c:	e92d40e0 	push	{r5, r6, r7, lr}
    3310:	e3a0702b 	mov	r7, #43	; 0x2b
    3314:	e3a06000 	mov	r6, #0
    3318:	ef000000 	svc	0x00000000
    331c:	e8bd80e0 	pop	{r5, r6, r7, pc}

00003320 <utee_storage_obj_rename>:
utee_storage_obj_rename():
/mnt/disk/raspbian-tee/optee_os/lib/libutee/arch/arm/utee_syscalls_asm.S:101
    3320:	e92d40e0 	push	{r5, r6, r7, lr}
    3324:	e3a0702c 	mov	r7, #44	; 0x2c
    3328:	e3a06000 	mov	r6, #0
    332c:	ef000000 	svc	0x00000000
    3330:	e8bd80e0 	pop	{r5, r6, r7, pc}

00003334 <utee_storage_alloc_enum>:
utee_storage_alloc_enum():
/mnt/disk/raspbian-tee/optee_os/lib/libutee/arch/arm/utee_syscalls_asm.S:103
    3334:	e92d40e0 	push	{r5, r6, r7, lr}
    3338:	e3a0702d 	mov	r7, #45	; 0x2d
    333c:	e3a06000 	mov	r6, #0
    3340:	ef000000 	svc	0x00000000
    3344:	e8bd80e0 	pop	{r5, r6, r7, pc}

00003348 <utee_storage_free_enum>:
utee_storage_free_enum():
/mnt/disk/raspbian-tee/optee_os/lib/libutee/arch/arm/utee_syscalls_asm.S:105
    3348:	e92d40e0 	push	{r5, r6, r7, lr}
    334c:	e3a0702e 	mov	r7, #46	; 0x2e
    3350:	e3a06000 	mov	r6, #0
    3354:	ef000000 	svc	0x00000000
    3358:	e8bd80e0 	pop	{r5, r6, r7, pc}

0000335c <utee_storage_reset_enum>:
utee_storage_reset_enum():
/mnt/disk/raspbian-tee/optee_os/lib/libutee/arch/arm/utee_syscalls_asm.S:107
    335c:	e92d40e0 	push	{r5, r6, r7, lr}
    3360:	e3a0702f 	mov	r7, #47	; 0x2f
    3364:	e3a06000 	mov	r6, #0
    3368:	ef000000 	svc	0x00000000
    336c:	e8bd80e0 	pop	{r5, r6, r7, pc}

00003370 <utee_storage_start_enum>:
utee_storage_start_enum():
/mnt/disk/raspbian-tee/optee_os/lib/libutee/arch/arm/utee_syscalls_asm.S:109
    3370:	e92d40e0 	push	{r5, r6, r7, lr}
    3374:	e3a07030 	mov	r7, #48	; 0x30
    3378:	e3a06000 	mov	r6, #0
    337c:	ef000000 	svc	0x00000000
    3380:	e8bd80e0 	pop	{r5, r6, r7, pc}

00003384 <utee_storage_next_enum>:
utee_storage_next_enum():
/mnt/disk/raspbian-tee/optee_os/lib/libutee/arch/arm/utee_syscalls_asm.S:111
    3384:	e92d40e0 	push	{r5, r6, r7, lr}
    3388:	e3a07031 	mov	r7, #49	; 0x31
    338c:	e3a06000 	mov	r6, #0
    3390:	ef000000 	svc	0x00000000
    3394:	e8bd80e0 	pop	{r5, r6, r7, pc}

00003398 <utee_storage_obj_read>:
utee_storage_obj_read():
/mnt/disk/raspbian-tee/optee_os/lib/libutee/arch/arm/utee_syscalls_asm.S:113
    3398:	e92d40e0 	push	{r5, r6, r7, lr}
    339c:	e3a07032 	mov	r7, #50	; 0x32
    33a0:	e3a06000 	mov	r6, #0
    33a4:	ef000000 	svc	0x00000000
    33a8:	e8bd80e0 	pop	{r5, r6, r7, pc}

000033ac <utee_storage_obj_write>:
utee_storage_obj_write():
/mnt/disk/raspbian-tee/optee_os/lib/libutee/arch/arm/utee_syscalls_asm.S:115
    33ac:	e92d40e0 	push	{r5, r6, r7, lr}
    33b0:	e3a07033 	mov	r7, #51	; 0x33
    33b4:	e3a06000 	mov	r6, #0
    33b8:	ef000000 	svc	0x00000000
    33bc:	e8bd80e0 	pop	{r5, r6, r7, pc}

000033c0 <utee_storage_obj_trunc>:
utee_storage_obj_trunc():
/mnt/disk/raspbian-tee/optee_os/lib/libutee/arch/arm/utee_syscalls_asm.S:117
    33c0:	e92d40e0 	push	{r5, r6, r7, lr}
    33c4:	e3a07034 	mov	r7, #52	; 0x34
    33c8:	e3a06000 	mov	r6, #0
    33cc:	ef000000 	svc	0x00000000
    33d0:	e8bd80e0 	pop	{r5, r6, r7, pc}

000033d4 <utee_storage_obj_seek>:
utee_storage_obj_seek():
/mnt/disk/raspbian-tee/optee_os/lib/libutee/arch/arm/utee_syscalls_asm.S:119
    33d4:	e92d40e0 	push	{r5, r6, r7, lr}
    33d8:	e3a07035 	mov	r7, #53	; 0x35
    33dc:	e3a06000 	mov	r6, #0
    33e0:	ef000000 	svc	0x00000000
    33e4:	e8bd80e0 	pop	{r5, r6, r7, pc}

000033e8 <utee_cryp_obj_generate_key>:
utee_cryp_obj_generate_key():
/mnt/disk/raspbian-tee/optee_os/lib/libutee/arch/arm/utee_syscalls_asm.S:121
    33e8:	e92d40e0 	push	{r5, r6, r7, lr}
    33ec:	e3a07036 	mov	r7, #54	; 0x36
    33f0:	e3a06000 	mov	r6, #0
    33f4:	ef000000 	svc	0x00000000
    33f8:	e8bd80e0 	pop	{r5, r6, r7, pc}

000033fc <utee_cache_operation>:
utee_cache_operation():
/mnt/disk/raspbian-tee/optee_os/lib/libutee/arch/arm/utee_syscalls_asm.S:124
    33fc:	e92d40e0 	push	{r5, r6, r7, lr}
    3400:	e3a07046 	mov	r7, #70	; 0x46
    3404:	e3a06000 	mov	r6, #0
    3408:	ef000000 	svc	0x00000000
    340c:	e8bd80e0 	pop	{r5, r6, r7, pc}

00003410 <__utee_mcount>:
__utee_mcount():
/mnt/disk/raspbian-tee/optee_os/lib/libutee/arch/arm/gprof/gprof_a32.S:49
    3410:	e52de004 	push	{lr}		; (str lr, [sp, #-4]!)
/mnt/disk/raspbian-tee/optee_os/lib/libutee/arch/arm/gprof/gprof_a32.S:50
    3414:	e8bd5000 	pop	{ip, lr}
/mnt/disk/raspbian-tee/optee_os/lib/libutee/arch/arm/gprof/gprof_a32.S:51
    3418:	e12fff1c 	bx	ip

0000341c <mpi_panic>:
mpi_panic():
/mnt/disk/raspbian-tee/optee_os/lib/libutee/tee_api_arith_mpi.c:29
    341c:	b508      	push	{r3, lr}
/mnt/disk/raspbian-tee/optee_os/lib/libutee/tee_api_arith_mpi.c:30
    341e:	4613      	mov	r3, r2
    3420:	460a      	mov	r2, r1
    3422:	4601      	mov	r1, r0
    3424:	4804      	ldr	r0, [pc, #16]	; (3438 <mpi_panic+0x1c>)
    3426:	4478      	add	r0, pc
    3428:	f7fd fc33 	bl	c92 <printf>
/mnt/disk/raspbian-tee/optee_os/lib/libutee/tee_api_arith_mpi.c:31
    342c:	4801      	ldr	r0, [pc, #4]	; (3434 <mpi_panic+0x18>)
    342e:	f004 fb66 	bl	7afe <TEE_Panic>
    3432:	e7fe      	b.n	3432 <mpi_panic+0x16>
    3434:	00b16127 	.word	0x00b16127
    3438:	00004eb8 	.word	0x00004eb8

0000343c <get_const_mpi>:
get_const_mpi():
/mnt/disk/raspbian-tee/optee_os/lib/libutee/tee_api_arith_mpi.c:110
    343c:	b530      	push	{r4, r5, lr}
init_static_mpi():
/mnt/disk/raspbian-tee/optee_os/lib/libutee/tee_api_arith_mpi.c:65
    343e:	3108      	adds	r1, #8
    3440:	f831 2c02 	ldrh.w	r2, [r1, #-2]
get_const_mpi():
/mnt/disk/raspbian-tee/optee_os/lib/libutee/tee_api_arith_mpi.c:110
    3444:	b087      	sub	sp, #28
init_static_mpi():
/mnt/disk/raspbian-tee/optee_os/lib/libutee/tee_api_arith_mpi.c:65
    3446:	f831 3c04 	ldrh.w	r3, [r1, #-4]
    344a:	ac03      	add	r4, sp, #12
get_const_mpi():
/mnt/disk/raspbian-tee/optee_os/lib/libutee/tee_api_arith_mpi.c:110
    344c:	4605      	mov	r5, r0
init_static_mpi():
/mnt/disk/raspbian-tee/optee_os/lib/libutee/tee_api_arith_mpi.c:65
    344e:	4620      	mov	r0, r4
    3450:	9200      	str	r2, [sp, #0]
    3452:	f851 2c08 	ldr.w	r2, [r1, #-8]
    3456:	f001 facf 	bl	49f8 <mbedtls_mpi_init_static>
get_mpi():
/mnt/disk/raspbian-tee/optee_os/lib/libutee/tee_api_arith_mpi.c:99
    345a:	4628      	mov	r0, r5
    345c:	f001 fab9 	bl	49d2 <mbedtls_mpi_init_mempool>
get_const_mpi():
/mnt/disk/raspbian-tee/optee_os/lib/libutee/tee_api_arith_mpi.c:115
    3460:	4621      	mov	r1, r4
    3462:	4628      	mov	r0, r5
    3464:	f001 fbb2 	bl	4bcc <mbedtls_mpi_copy>
    3468:	4602      	mov	r2, r0
    346a:	b120      	cbz	r0, 3476 <get_const_mpi+0x3a>
/mnt/disk/raspbian-tee/optee_os/lib/libutee/tee_api_arith_mpi.c:115 (discriminator 1)
    346c:	4803      	ldr	r0, [pc, #12]	; (347c <get_const_mpi+0x40>)
    346e:	2173      	movs	r1, #115	; 0x73
    3470:	4478      	add	r0, pc
    3472:	f7ff ffd3 	bl	341c <mpi_panic>
/mnt/disk/raspbian-tee/optee_os/lib/libutee/tee_api_arith_mpi.c:116
    3476:	b007      	add	sp, #28
    3478:	bd30      	pop	{r4, r5, pc}
    347a:	bf00      	nop
    347c:	00004d0b 	.word	0x00004d0b

00003480 <mpi_is_odd>:
mpi_is_odd():
/mnt/disk/raspbian-tee/optee_os/lib/libutee/tee_api_arith_mpi.c:599
    3480:	b508      	push	{r3, lr}
/mnt/disk/raspbian-tee/optee_os/lib/libutee/tee_api_arith_mpi.c:600
    3482:	2100      	movs	r1, #0
    3484:	f001 fc79 	bl	4d7a <mbedtls_mpi_get_bit>
/mnt/disk/raspbian-tee/optee_os/lib/libutee/tee_api_arith_mpi.c:601
    3488:	3000      	adds	r0, #0
    348a:	bf18      	it	ne
    348c:	2001      	movne	r0, #1
    348e:	bd08      	pop	{r3, pc}

00003490 <rng_read>:
rng_read():
/mnt/disk/raspbian-tee/optee_os/lib/libutee/tee_api_arith_mpi.c:763
    3490:	b508      	push	{r3, lr}
    3492:	4608      	mov	r0, r1
/mnt/disk/raspbian-tee/optee_os/lib/libutee/tee_api_arith_mpi.c:764
    3494:	4611      	mov	r1, r2
    3496:	f7ff eec6 	blx	3224 <utee_cryp_random_number_generate>
    349a:	2800      	cmp	r0, #0
/mnt/disk/raspbian-tee/optee_os/lib/libutee/tee_api_arith_mpi.c:767
    349c:	f06f 0001 	mvn.w	r0, #1
    34a0:	bf08      	it	eq
    34a2:	2000      	moveq	r0, #0
    34a4:	bd08      	pop	{r3, pc}

000034a6 <put_mpi>:
put_mpi():
/mnt/disk/raspbian-tee/optee_os/lib/libutee/tee_api_arith_mpi.c:128
    34a6:	7842      	ldrb	r2, [r0, #1]
    34a8:	2a02      	cmp	r2, #2
    34aa:	d108      	bne.n	34be <put_mpi+0x18>
/mnt/disk/raspbian-tee/optee_os/lib/libutee/tee_api_arith_mpi.c:129
    34ac:	6882      	ldr	r2, [r0, #8]
/mnt/disk/raspbian-tee/optee_os/lib/libutee/tee_api_arith_mpi.c:131
    34ae:	f990 1000 	ldrsb.w	r1, [r0]
/mnt/disk/raspbian-tee/optee_os/lib/libutee/tee_api_arith_mpi.c:132
    34b2:	8883      	ldrh	r3, [r0, #4]
/mnt/disk/raspbian-tee/optee_os/lib/libutee/tee_api_arith_mpi.c:131
    34b4:	f842 1c08 	str.w	r1, [r2, #-8]
/mnt/disk/raspbian-tee/optee_os/lib/libutee/tee_api_arith_mpi.c:132
    34b8:	f822 3c02 	strh.w	r3, [r2, #-2]
    34bc:	4770      	bx	lr
/mnt/disk/raspbian-tee/optee_os/lib/libutee/tee_api_arith_mpi.c:134
    34be:	f001 baa4 	b.w	4a0a <mbedtls_mpi_free>

000034c2 <mpi_egcd>:
mpi_egcd():
/mnt/disk/raspbian-tee/optee_os/lib/libutee/tee_api_arith_mpi.c:614
    34c2:	e92d 4ff0 	stmdb	sp!, {r4, r5, r6, r7, r8, r9, sl, fp, lr}
    34c6:	4681      	mov	r9, r0
    34c8:	b09b      	sub	sp, #108	; 0x6c
get_mpi():
/mnt/disk/raspbian-tee/optee_os/lib/libutee/tee_api_arith_mpi.c:99
    34ca:	f10d 0814 	add.w	r8, sp, #20
    34ce:	af08      	add	r7, sp, #32
    34d0:	4640      	mov	r0, r8
    34d2:	ad0b      	add	r5, sp, #44	; 0x2c
mpi_egcd():
/mnt/disk/raspbian-tee/optee_os/lib/libutee/tee_api_arith_mpi.c:614
    34d4:	9102      	str	r1, [sp, #8]
get_mpi():
/mnt/disk/raspbian-tee/optee_os/lib/libutee/tee_api_arith_mpi.c:99
    34d6:	ac0e      	add	r4, sp, #56	; 0x38
mpi_egcd():
/mnt/disk/raspbian-tee/optee_os/lib/libutee/tee_api_arith_mpi.c:614
    34d8:	9203      	str	r2, [sp, #12]
get_mpi():
/mnt/disk/raspbian-tee/optee_os/lib/libutee/tee_api_arith_mpi.c:99
    34da:	f10d 0a44 	add.w	sl, sp, #68	; 0x44
mpi_egcd():
/mnt/disk/raspbian-tee/optee_os/lib/libutee/tee_api_arith_mpi.c:614
    34de:	9301      	str	r3, [sp, #4]
get_mpi():
/mnt/disk/raspbian-tee/optee_os/lib/libutee/tee_api_arith_mpi.c:99
    34e0:	f001 fa77 	bl	49d2 <mbedtls_mpi_init_mempool>
    34e4:	4638      	mov	r0, r7
    34e6:	f10d 0b50 	add.w	fp, sp, #80	; 0x50
    34ea:	f001 fa72 	bl	49d2 <mbedtls_mpi_init_mempool>
    34ee:	4628      	mov	r0, r5
    34f0:	f001 fa6f 	bl	49d2 <mbedtls_mpi_init_mempool>
    34f4:	4620      	mov	r0, r4
    34f6:	f001 fa6c 	bl	49d2 <mbedtls_mpi_init_mempool>
    34fa:	4650      	mov	r0, sl
    34fc:	f001 fa69 	bl	49d2 <mbedtls_mpi_init_mempool>
    3500:	ae17      	add	r6, sp, #92	; 0x5c
    3502:	4658      	mov	r0, fp
    3504:	f001 fa65 	bl	49d2 <mbedtls_mpi_init_mempool>
    3508:	4630      	mov	r0, r6
    350a:	f001 fa62 	bl	49d2 <mbedtls_mpi_init_mempool>
mpi_egcd():
/mnt/disk/raspbian-tee/optee_os/lib/libutee/tee_api_arith_mpi.c:633
    350e:	2100      	movs	r1, #0
    3510:	9824      	ldr	r0, [sp, #144]	; 0x90
    3512:	f001 fe08 	bl	5126 <mbedtls_mpi_cmp_int>
    3516:	bb20      	cbnz	r0, 3562 <mpi_egcd+0xa0>
/mnt/disk/raspbian-tee/optee_os/lib/libutee/tee_api_arith_mpi.c:634
    3518:	2101      	movs	r1, #1
    351a:	9802      	ldr	r0, [sp, #8]
    351c:	f001 fc11 	bl	4d42 <mbedtls_mpi_lset>
    3520:	4602      	mov	r2, r0
    3522:	b130      	cbz	r0, 3532 <mpi_egcd+0x70>
/mnt/disk/raspbian-tee/optee_os/lib/libutee/tee_api_arith_mpi.c:634 (discriminator 1)
    3524:	48dd      	ldr	r0, [pc, #884]	; (389c <mpi_egcd+0x3da>)
    3526:	f240 217a 	movw	r1, #634	; 0x27a
    352a:	4478      	add	r0, pc
/mnt/disk/raspbian-tee/optee_os/lib/libutee/tee_api_arith_mpi.c:635 (discriminator 1)
    352c:	300e      	adds	r0, #14
    352e:	f7ff ff75 	bl	341c <mpi_panic>
/mnt/disk/raspbian-tee/optee_os/lib/libutee/tee_api_arith_mpi.c:635
    3532:	4601      	mov	r1, r0
    3534:	9803      	ldr	r0, [sp, #12]
    3536:	f001 fc04 	bl	4d42 <mbedtls_mpi_lset>
    353a:	4602      	mov	r2, r0
    353c:	b120      	cbz	r0, 3548 <mpi_egcd+0x86>
/mnt/disk/raspbian-tee/optee_os/lib/libutee/tee_api_arith_mpi.c:635 (discriminator 1)
    353e:	48d8      	ldr	r0, [pc, #864]	; (38a0 <mpi_egcd+0x3de>)
    3540:	f240 217b 	movw	r1, #635	; 0x27b
    3544:	4478      	add	r0, pc
    3546:	e7f1      	b.n	352c <mpi_egcd+0x6a>
/mnt/disk/raspbian-tee/optee_os/lib/libutee/tee_api_arith_mpi.c:636
    3548:	9901      	ldr	r1, [sp, #4]
    354a:	4648      	mov	r0, r9
    354c:	f001 fb3e 	bl	4bcc <mbedtls_mpi_copy>
    3550:	4602      	mov	r2, r0
    3552:	2800      	cmp	r0, #0
    3554:	f000 818a 	beq.w	386c <mpi_egcd+0x3aa>
/mnt/disk/raspbian-tee/optee_os/lib/libutee/tee_api_arith_mpi.c:636 (discriminator 1)
    3558:	48d2      	ldr	r0, [pc, #840]	; (38a4 <mpi_egcd+0x3e2>)
    355a:	f44f 711f 	mov.w	r1, #636	; 0x27c
    355e:	4478      	add	r0, pc
    3560:	e7e4      	b.n	352c <mpi_egcd+0x6a>
/mnt/disk/raspbian-tee/optee_os/lib/libutee/tee_api_arith_mpi.c:640
    3562:	9901      	ldr	r1, [sp, #4]
    3564:	4650      	mov	r0, sl
    3566:	f001 fb31 	bl	4bcc <mbedtls_mpi_copy>
    356a:	4602      	mov	r2, r0
    356c:	b120      	cbz	r0, 3578 <mpi_egcd+0xb6>
/mnt/disk/raspbian-tee/optee_os/lib/libutee/tee_api_arith_mpi.c:640 (discriminator 1)
    356e:	48ce      	ldr	r0, [pc, #824]	; (38a8 <mpi_egcd+0x3e6>)
    3570:	f44f 7120 	mov.w	r1, #640	; 0x280
    3574:	4478      	add	r0, pc
    3576:	e7d9      	b.n	352c <mpi_egcd+0x6a>
/mnt/disk/raspbian-tee/optee_os/lib/libutee/tee_api_arith_mpi.c:641
    3578:	9924      	ldr	r1, [sp, #144]	; 0x90
    357a:	4658      	mov	r0, fp
    357c:	f001 fb26 	bl	4bcc <mbedtls_mpi_copy>
    3580:	4602      	mov	r2, r0
    3582:	b178      	cbz	r0, 35a4 <mpi_egcd+0xe2>
/mnt/disk/raspbian-tee/optee_os/lib/libutee/tee_api_arith_mpi.c:641 (discriminator 1)
    3584:	48c9      	ldr	r0, [pc, #804]	; (38ac <mpi_egcd+0x3ea>)
    3586:	f240 2181 	movw	r1, #641	; 0x281
    358a:	4478      	add	r0, pc
    358c:	e7ce      	b.n	352c <mpi_egcd+0x6a>
/mnt/disk/raspbian-tee/optee_os/lib/libutee/tee_api_arith_mpi.c:647
    358e:	2101      	movs	r1, #1
    3590:	4658      	mov	r0, fp
    3592:	f001 fd0a 	bl	4faa <mbedtls_mpi_shift_r>
    3596:	4602      	mov	r2, r0
    3598:	b128      	cbz	r0, 35a6 <mpi_egcd+0xe4>
/mnt/disk/raspbian-tee/optee_os/lib/libutee/tee_api_arith_mpi.c:647 (discriminator 1)
    359a:	48c5      	ldr	r0, [pc, #788]	; (38b0 <mpi_egcd+0x3ee>)
    359c:	f240 2187 	movw	r1, #647	; 0x287
    35a0:	4478      	add	r0, pc
    35a2:	e7c3      	b.n	352c <mpi_egcd+0x6a>
    35a4:	9001      	str	r0, [sp, #4]
mpi_is_even():
/mnt/disk/raspbian-tee/optee_os/lib/libutee/tee_api_arith_mpi.c:605
    35a6:	4650      	mov	r0, sl
    35a8:	f7ff ff6a 	bl	3480 <mpi_is_odd>
mpi_egcd():
/mnt/disk/raspbian-tee/optee_os/lib/libutee/tee_api_arith_mpi.c:644
    35ac:	b150      	cbz	r0, 35c4 <mpi_egcd+0x102>
/mnt/disk/raspbian-tee/optee_os/lib/libutee/tee_api_arith_mpi.c:650
    35ae:	4651      	mov	r1, sl
    35b0:	4630      	mov	r0, r6
    35b2:	f001 fb0b 	bl	4bcc <mbedtls_mpi_copy>
    35b6:	4602      	mov	r2, r0
    35b8:	b1c0      	cbz	r0, 35ec <mpi_egcd+0x12a>
/mnt/disk/raspbian-tee/optee_os/lib/libutee/tee_api_arith_mpi.c:650 (discriminator 1)
    35ba:	48be      	ldr	r0, [pc, #760]	; (38b4 <mpi_egcd+0x3f2>)
    35bc:	f240 218a 	movw	r1, #650	; 0x28a
    35c0:	4478      	add	r0, pc
    35c2:	e7b3      	b.n	352c <mpi_egcd+0x6a>
mpi_is_even():
/mnt/disk/raspbian-tee/optee_os/lib/libutee/tee_api_arith_mpi.c:605
    35c4:	4658      	mov	r0, fp
    35c6:	f7ff ff5b 	bl	3480 <mpi_is_odd>
mpi_egcd():
/mnt/disk/raspbian-tee/optee_os/lib/libutee/tee_api_arith_mpi.c:644
    35ca:	2800      	cmp	r0, #0
    35cc:	d1ef      	bne.n	35ae <mpi_egcd+0xec>
/mnt/disk/raspbian-tee/optee_os/lib/libutee/tee_api_arith_mpi.c:645
    35ce:	9b01      	ldr	r3, [sp, #4]
/mnt/disk/raspbian-tee/optee_os/lib/libutee/tee_api_arith_mpi.c:646
    35d0:	2101      	movs	r1, #1
    35d2:	4650      	mov	r0, sl
/mnt/disk/raspbian-tee/optee_os/lib/libutee/tee_api_arith_mpi.c:645
    35d4:	3301      	adds	r3, #1
    35d6:	9301      	str	r3, [sp, #4]
/mnt/disk/raspbian-tee/optee_os/lib/libutee/tee_api_arith_mpi.c:646
    35d8:	f001 fce7 	bl	4faa <mbedtls_mpi_shift_r>
    35dc:	4602      	mov	r2, r0
    35de:	2800      	cmp	r0, #0
    35e0:	d0d5      	beq.n	358e <mpi_egcd+0xcc>
/mnt/disk/raspbian-tee/optee_os/lib/libutee/tee_api_arith_mpi.c:646 (discriminator 1)
    35e2:	48b5      	ldr	r0, [pc, #724]	; (38b8 <mpi_egcd+0x3f6>)
    35e4:	f240 2186 	movw	r1, #646	; 0x286
    35e8:	4478      	add	r0, pc
    35ea:	e79f      	b.n	352c <mpi_egcd+0x6a>
/mnt/disk/raspbian-tee/optee_os/lib/libutee/tee_api_arith_mpi.c:651
    35ec:	4659      	mov	r1, fp
    35ee:	4648      	mov	r0, r9
    35f0:	f001 faec 	bl	4bcc <mbedtls_mpi_copy>
    35f4:	4602      	mov	r2, r0
    35f6:	b120      	cbz	r0, 3602 <mpi_egcd+0x140>
/mnt/disk/raspbian-tee/optee_os/lib/libutee/tee_api_arith_mpi.c:651 (discriminator 1)
    35f8:	48b0      	ldr	r0, [pc, #704]	; (38bc <mpi_egcd+0x3fa>)
    35fa:	f240 218b 	movw	r1, #651	; 0x28b
    35fe:	4478      	add	r0, pc
    3600:	e794      	b.n	352c <mpi_egcd+0x6a>
/mnt/disk/raspbian-tee/optee_os/lib/libutee/tee_api_arith_mpi.c:652
    3602:	2101      	movs	r1, #1
    3604:	4640      	mov	r0, r8
    3606:	f001 fb9c 	bl	4d42 <mbedtls_mpi_lset>
    360a:	4602      	mov	r2, r0
    360c:	b120      	cbz	r0, 3618 <mpi_egcd+0x156>
/mnt/disk/raspbian-tee/optee_os/lib/libutee/tee_api_arith_mpi.c:652 (discriminator 1)
    360e:	48ac      	ldr	r0, [pc, #688]	; (38c0 <mpi_egcd+0x3fe>)
    3610:	f44f 7123 	mov.w	r1, #652	; 0x28c
    3614:	4478      	add	r0, pc
    3616:	e789      	b.n	352c <mpi_egcd+0x6a>
/mnt/disk/raspbian-tee/optee_os/lib/libutee/tee_api_arith_mpi.c:653
    3618:	4601      	mov	r1, r0
    361a:	4638      	mov	r0, r7
    361c:	f001 fb91 	bl	4d42 <mbedtls_mpi_lset>
    3620:	4602      	mov	r2, r0
    3622:	b120      	cbz	r0, 362e <mpi_egcd+0x16c>
/mnt/disk/raspbian-tee/optee_os/lib/libutee/tee_api_arith_mpi.c:653 (discriminator 1)
    3624:	48a7      	ldr	r0, [pc, #668]	; (38c4 <mpi_egcd+0x402>)
    3626:	f240 218d 	movw	r1, #653	; 0x28d
    362a:	4478      	add	r0, pc
    362c:	e77e      	b.n	352c <mpi_egcd+0x6a>
/mnt/disk/raspbian-tee/optee_os/lib/libutee/tee_api_arith_mpi.c:654
    362e:	4601      	mov	r1, r0
    3630:	4628      	mov	r0, r5
    3632:	f001 fb86 	bl	4d42 <mbedtls_mpi_lset>
    3636:	4602      	mov	r2, r0
    3638:	b120      	cbz	r0, 3644 <mpi_egcd+0x182>
/mnt/disk/raspbian-tee/optee_os/lib/libutee/tee_api_arith_mpi.c:654 (discriminator 1)
    363a:	48a3      	ldr	r0, [pc, #652]	; (38c8 <mpi_egcd+0x406>)
    363c:	f240 218e 	movw	r1, #654	; 0x28e
    3640:	4478      	add	r0, pc
    3642:	e773      	b.n	352c <mpi_egcd+0x6a>
/mnt/disk/raspbian-tee/optee_os/lib/libutee/tee_api_arith_mpi.c:655
    3644:	2101      	movs	r1, #1
    3646:	4620      	mov	r0, r4
    3648:	f001 fb7b 	bl	4d42 <mbedtls_mpi_lset>
    364c:	4602      	mov	r2, r0
    364e:	2800      	cmp	r0, #0
    3650:	f000 80e4 	beq.w	381c <mpi_egcd+0x35a>
/mnt/disk/raspbian-tee/optee_os/lib/libutee/tee_api_arith_mpi.c:655 (discriminator 1)
    3654:	489d      	ldr	r0, [pc, #628]	; (38cc <mpi_egcd+0x40a>)
    3656:	f240 218f 	movw	r1, #655	; 0x28f
    365a:	4478      	add	r0, pc
    365c:	e766      	b.n	352c <mpi_egcd+0x6a>
/mnt/disk/raspbian-tee/optee_os/lib/libutee/tee_api_arith_mpi.c:659
    365e:	2101      	movs	r1, #1
    3660:	4630      	mov	r0, r6
    3662:	f001 fca2 	bl	4faa <mbedtls_mpi_shift_r>
    3666:	4602      	mov	r2, r0
    3668:	b120      	cbz	r0, 3674 <mpi_egcd+0x1b2>
/mnt/disk/raspbian-tee/optee_os/lib/libutee/tee_api_arith_mpi.c:659 (discriminator 1)
    366a:	4899      	ldr	r0, [pc, #612]	; (38d0 <mpi_egcd+0x40e>)
    366c:	f240 2193 	movw	r1, #659	; 0x293
    3670:	4478      	add	r0, pc
    3672:	e75b      	b.n	352c <mpi_egcd+0x6a>
/mnt/disk/raspbian-tee/optee_os/lib/libutee/tee_api_arith_mpi.c:660
    3674:	4640      	mov	r0, r8
    3676:	f7ff ff03 	bl	3480 <mpi_is_odd>
    367a:	b158      	cbz	r0, 3694 <mpi_egcd+0x1d2>
/mnt/disk/raspbian-tee/optee_os/lib/libutee/tee_api_arith_mpi.c:661
    367c:	465a      	mov	r2, fp
    367e:	4641      	mov	r1, r8
    3680:	4640      	mov	r0, r8
    3682:	f001 fe06 	bl	5292 <mbedtls_mpi_add_mpi>
    3686:	4602      	mov	r2, r0
    3688:	b1a0      	cbz	r0, 36b4 <mpi_egcd+0x1f2>
/mnt/disk/raspbian-tee/optee_os/lib/libutee/tee_api_arith_mpi.c:661 (discriminator 1)
    368a:	4892      	ldr	r0, [pc, #584]	; (38d4 <mpi_egcd+0x412>)
    368c:	f240 2195 	movw	r1, #661	; 0x295
    3690:	4478      	add	r0, pc
    3692:	e74b      	b.n	352c <mpi_egcd+0x6a>
/mnt/disk/raspbian-tee/optee_os/lib/libutee/tee_api_arith_mpi.c:660 (discriminator 1)
    3694:	4638      	mov	r0, r7
    3696:	f7ff fef3 	bl	3480 <mpi_is_odd>
    369a:	2800      	cmp	r0, #0
    369c:	d1ee      	bne.n	367c <mpi_egcd+0x1ba>
/mnt/disk/raspbian-tee/optee_os/lib/libutee/tee_api_arith_mpi.c:664
    369e:	2101      	movs	r1, #1
    36a0:	4640      	mov	r0, r8
    36a2:	f001 fc82 	bl	4faa <mbedtls_mpi_shift_r>
    36a6:	4602      	mov	r2, r0
    36a8:	b188      	cbz	r0, 36ce <mpi_egcd+0x20c>
/mnt/disk/raspbian-tee/optee_os/lib/libutee/tee_api_arith_mpi.c:664 (discriminator 1)
    36aa:	488b      	ldr	r0, [pc, #556]	; (38d8 <mpi_egcd+0x416>)
    36ac:	f44f 7126 	mov.w	r1, #664	; 0x298
    36b0:	4478      	add	r0, pc
    36b2:	e73b      	b.n	352c <mpi_egcd+0x6a>
/mnt/disk/raspbian-tee/optee_os/lib/libutee/tee_api_arith_mpi.c:662
    36b4:	4652      	mov	r2, sl
    36b6:	4639      	mov	r1, r7
    36b8:	4638      	mov	r0, r7
    36ba:	f001 fe0e 	bl	52da <mbedtls_mpi_sub_mpi>
    36be:	4602      	mov	r2, r0
    36c0:	2800      	cmp	r0, #0
    36c2:	d0ec      	beq.n	369e <mpi_egcd+0x1dc>
/mnt/disk/raspbian-tee/optee_os/lib/libutee/tee_api_arith_mpi.c:662 (discriminator 1)
    36c4:	4885      	ldr	r0, [pc, #532]	; (38dc <mpi_egcd+0x41a>)
    36c6:	f240 2196 	movw	r1, #662	; 0x296
    36ca:	4478      	add	r0, pc
    36cc:	e72e      	b.n	352c <mpi_egcd+0x6a>
/mnt/disk/raspbian-tee/optee_os/lib/libutee/tee_api_arith_mpi.c:665
    36ce:	2101      	movs	r1, #1
    36d0:	4638      	mov	r0, r7
    36d2:	f001 fc6a 	bl	4faa <mbedtls_mpi_shift_r>
    36d6:	4602      	mov	r2, r0
    36d8:	b120      	cbz	r0, 36e4 <mpi_egcd+0x222>
/mnt/disk/raspbian-tee/optee_os/lib/libutee/tee_api_arith_mpi.c:665 (discriminator 1)
    36da:	4881      	ldr	r0, [pc, #516]	; (38e0 <mpi_egcd+0x41e>)
    36dc:	f240 2199 	movw	r1, #665	; 0x299
    36e0:	4478      	add	r0, pc
    36e2:	e723      	b.n	352c <mpi_egcd+0x6a>
mpi_is_even():
/mnt/disk/raspbian-tee/optee_os/lib/libutee/tee_api_arith_mpi.c:605
    36e4:	4630      	mov	r0, r6
    36e6:	f7ff fecb 	bl	3480 <mpi_is_odd>
mpi_egcd():
/mnt/disk/raspbian-tee/optee_os/lib/libutee/tee_api_arith_mpi.c:658
    36ea:	2800      	cmp	r0, #0
    36ec:	d0b7      	beq.n	365e <mpi_egcd+0x19c>
mpi_is_even():
/mnt/disk/raspbian-tee/optee_os/lib/libutee/tee_api_arith_mpi.c:605
    36ee:	4648      	mov	r0, r9
    36f0:	f7ff fec6 	bl	3480 <mpi_is_odd>
mpi_egcd():
/mnt/disk/raspbian-tee/optee_os/lib/libutee/tee_api_arith_mpi.c:668
    36f4:	b190      	cbz	r0, 371c <mpi_egcd+0x25a>
/mnt/disk/raspbian-tee/optee_os/lib/libutee/tee_api_arith_mpi.c:679
    36f6:	4649      	mov	r1, r9
    36f8:	4630      	mov	r0, r6
    36fa:	f001 fcc9 	bl	5090 <mbedtls_mpi_cmp_mpi>
    36fe:	2800      	cmp	r0, #0
    3700:	db68      	blt.n	37d4 <mpi_egcd+0x312>
/mnt/disk/raspbian-tee/optee_os/lib/libutee/tee_api_arith_mpi.c:680
    3702:	464a      	mov	r2, r9
    3704:	4631      	mov	r1, r6
    3706:	4630      	mov	r0, r6
    3708:	f001 fde7 	bl	52da <mbedtls_mpi_sub_mpi>
    370c:	4602      	mov	r2, r0
    370e:	2800      	cmp	r0, #0
    3710:	d048      	beq.n	37a4 <mpi_egcd+0x2e2>
/mnt/disk/raspbian-tee/optee_os/lib/libutee/tee_api_arith_mpi.c:680 (discriminator 1)
    3712:	4874      	ldr	r0, [pc, #464]	; (38e4 <mpi_egcd+0x422>)
    3714:	f44f 712a 	mov.w	r1, #680	; 0x2a8
    3718:	4478      	add	r0, pc
    371a:	e707      	b.n	352c <mpi_egcd+0x6a>
/mnt/disk/raspbian-tee/optee_os/lib/libutee/tee_api_arith_mpi.c:669
    371c:	2101      	movs	r1, #1
    371e:	4648      	mov	r0, r9
    3720:	f001 fc43 	bl	4faa <mbedtls_mpi_shift_r>
    3724:	4602      	mov	r2, r0
    3726:	b120      	cbz	r0, 3732 <mpi_egcd+0x270>
/mnt/disk/raspbian-tee/optee_os/lib/libutee/tee_api_arith_mpi.c:669 (discriminator 1)
    3728:	486f      	ldr	r0, [pc, #444]	; (38e8 <mpi_egcd+0x426>)
    372a:	f240 219d 	movw	r1, #669	; 0x29d
    372e:	4478      	add	r0, pc
    3730:	e6fc      	b.n	352c <mpi_egcd+0x6a>
/mnt/disk/raspbian-tee/optee_os/lib/libutee/tee_api_arith_mpi.c:670
    3732:	4628      	mov	r0, r5
    3734:	f7ff fea4 	bl	3480 <mpi_is_odd>
    3738:	b158      	cbz	r0, 3752 <mpi_egcd+0x290>
/mnt/disk/raspbian-tee/optee_os/lib/libutee/tee_api_arith_mpi.c:671
    373a:	465a      	mov	r2, fp
    373c:	4629      	mov	r1, r5
    373e:	4628      	mov	r0, r5
    3740:	f001 fda7 	bl	5292 <mbedtls_mpi_add_mpi>
    3744:	4602      	mov	r2, r0
    3746:	b1a0      	cbz	r0, 3772 <mpi_egcd+0x2b0>
/mnt/disk/raspbian-tee/optee_os/lib/libutee/tee_api_arith_mpi.c:671 (discriminator 1)
    3748:	4868      	ldr	r0, [pc, #416]	; (38ec <mpi_egcd+0x42a>)
    374a:	f240 219f 	movw	r1, #671	; 0x29f
    374e:	4478      	add	r0, pc
    3750:	e6ec      	b.n	352c <mpi_egcd+0x6a>
/mnt/disk/raspbian-tee/optee_os/lib/libutee/tee_api_arith_mpi.c:670 (discriminator 1)
    3752:	4620      	mov	r0, r4
    3754:	f7ff fe94 	bl	3480 <mpi_is_odd>
    3758:	2800      	cmp	r0, #0
    375a:	d1ee      	bne.n	373a <mpi_egcd+0x278>
/mnt/disk/raspbian-tee/optee_os/lib/libutee/tee_api_arith_mpi.c:674
    375c:	2101      	movs	r1, #1
    375e:	4628      	mov	r0, r5
    3760:	f001 fc23 	bl	4faa <mbedtls_mpi_shift_r>
    3764:	4602      	mov	r2, r0
    3766:	b188      	cbz	r0, 378c <mpi_egcd+0x2ca>
/mnt/disk/raspbian-tee/optee_os/lib/libutee/tee_api_arith_mpi.c:674 (discriminator 1)
    3768:	4861      	ldr	r0, [pc, #388]	; (38f0 <mpi_egcd+0x42e>)
    376a:	f240 21a2 	movw	r1, #674	; 0x2a2
    376e:	4478      	add	r0, pc
    3770:	e6dc      	b.n	352c <mpi_egcd+0x6a>
/mnt/disk/raspbian-tee/optee_os/lib/libutee/tee_api_arith_mpi.c:672
    3772:	4652      	mov	r2, sl
    3774:	4621      	mov	r1, r4
    3776:	4620      	mov	r0, r4
    3778:	f001 fdaf 	bl	52da <mbedtls_mpi_sub_mpi>
    377c:	4602      	mov	r2, r0
    377e:	2800      	cmp	r0, #0
    3780:	d0ec      	beq.n	375c <mpi_egcd+0x29a>
/mnt/disk/raspbian-tee/optee_os/lib/libutee/tee_api_arith_mpi.c:672 (discriminator 1)
    3782:	485c      	ldr	r0, [pc, #368]	; (38f4 <mpi_egcd+0x432>)
    3784:	f44f 7128 	mov.w	r1, #672	; 0x2a0
    3788:	4478      	add	r0, pc
    378a:	e6cf      	b.n	352c <mpi_egcd+0x6a>
/mnt/disk/raspbian-tee/optee_os/lib/libutee/tee_api_arith_mpi.c:675
    378c:	2101      	movs	r1, #1
    378e:	4620      	mov	r0, r4
    3790:	f001 fc0b 	bl	4faa <mbedtls_mpi_shift_r>
    3794:	4602      	mov	r2, r0
    3796:	2800      	cmp	r0, #0
    3798:	d0a9      	beq.n	36ee <mpi_egcd+0x22c>
/mnt/disk/raspbian-tee/optee_os/lib/libutee/tee_api_arith_mpi.c:675 (discriminator 1)
    379a:	4857      	ldr	r0, [pc, #348]	; (38f8 <mpi_egcd+0x436>)
    379c:	f240 21a3 	movw	r1, #675	; 0x2a3
    37a0:	4478      	add	r0, pc
    37a2:	e6c3      	b.n	352c <mpi_egcd+0x6a>
/mnt/disk/raspbian-tee/optee_os/lib/libutee/tee_api_arith_mpi.c:681
    37a4:	462a      	mov	r2, r5
    37a6:	4641      	mov	r1, r8
    37a8:	4640      	mov	r0, r8
    37aa:	f001 fd96 	bl	52da <mbedtls_mpi_sub_mpi>
    37ae:	4602      	mov	r2, r0
    37b0:	b120      	cbz	r0, 37bc <mpi_egcd+0x2fa>
/mnt/disk/raspbian-tee/optee_os/lib/libutee/tee_api_arith_mpi.c:681 (discriminator 1)
    37b2:	4852      	ldr	r0, [pc, #328]	; (38fc <mpi_egcd+0x43a>)
    37b4:	f240 21a9 	movw	r1, #681	; 0x2a9
    37b8:	4478      	add	r0, pc
    37ba:	e6b7      	b.n	352c <mpi_egcd+0x6a>
/mnt/disk/raspbian-tee/optee_os/lib/libutee/tee_api_arith_mpi.c:682
    37bc:	4622      	mov	r2, r4
    37be:	4639      	mov	r1, r7
    37c0:	4638      	mov	r0, r7
    37c2:	f001 fd8a 	bl	52da <mbedtls_mpi_sub_mpi>
    37c6:	4602      	mov	r2, r0
    37c8:	b340      	cbz	r0, 381c <mpi_egcd+0x35a>
/mnt/disk/raspbian-tee/optee_os/lib/libutee/tee_api_arith_mpi.c:682 (discriminator 1)
    37ca:	484d      	ldr	r0, [pc, #308]	; (3900 <mpi_egcd+0x43e>)
    37cc:	f240 21aa 	movw	r1, #682	; 0x2aa
    37d0:	4478      	add	r0, pc
    37d2:	e6ab      	b.n	352c <mpi_egcd+0x6a>
/mnt/disk/raspbian-tee/optee_os/lib/libutee/tee_api_arith_mpi.c:684
    37d4:	4632      	mov	r2, r6
    37d6:	4649      	mov	r1, r9
    37d8:	4648      	mov	r0, r9
    37da:	f001 fd7e 	bl	52da <mbedtls_mpi_sub_mpi>
    37de:	4602      	mov	r2, r0
    37e0:	b120      	cbz	r0, 37ec <mpi_egcd+0x32a>
/mnt/disk/raspbian-tee/optee_os/lib/libutee/tee_api_arith_mpi.c:684 (discriminator 1)
    37e2:	4848      	ldr	r0, [pc, #288]	; (3904 <mpi_egcd+0x442>)
    37e4:	f44f 712b 	mov.w	r1, #684	; 0x2ac
    37e8:	4478      	add	r0, pc
    37ea:	e69f      	b.n	352c <mpi_egcd+0x6a>
/mnt/disk/raspbian-tee/optee_os/lib/libutee/tee_api_arith_mpi.c:685
    37ec:	4642      	mov	r2, r8
    37ee:	4629      	mov	r1, r5
    37f0:	4628      	mov	r0, r5
    37f2:	f001 fd72 	bl	52da <mbedtls_mpi_sub_mpi>
    37f6:	4602      	mov	r2, r0
    37f8:	b120      	cbz	r0, 3804 <mpi_egcd+0x342>
/mnt/disk/raspbian-tee/optee_os/lib/libutee/tee_api_arith_mpi.c:685 (discriminator 1)
    37fa:	4843      	ldr	r0, [pc, #268]	; (3908 <mpi_egcd+0x446>)
    37fc:	f240 21ad 	movw	r1, #685	; 0x2ad
    3800:	4478      	add	r0, pc
    3802:	e693      	b.n	352c <mpi_egcd+0x6a>
/mnt/disk/raspbian-tee/optee_os/lib/libutee/tee_api_arith_mpi.c:686
    3804:	463a      	mov	r2, r7
    3806:	4621      	mov	r1, r4
    3808:	4620      	mov	r0, r4
    380a:	f001 fd66 	bl	52da <mbedtls_mpi_sub_mpi>
    380e:	4602      	mov	r2, r0
    3810:	b120      	cbz	r0, 381c <mpi_egcd+0x35a>
/mnt/disk/raspbian-tee/optee_os/lib/libutee/tee_api_arith_mpi.c:686 (discriminator 1)
    3812:	483e      	ldr	r0, [pc, #248]	; (390c <mpi_egcd+0x44a>)
    3814:	f240 21ae 	movw	r1, #686	; 0x2ae
    3818:	4478      	add	r0, pc
    381a:	e687      	b.n	352c <mpi_egcd+0x6a>
/mnt/disk/raspbian-tee/optee_os/lib/libutee/tee_api_arith_mpi.c:657
    381c:	2100      	movs	r1, #0
    381e:	4630      	mov	r0, r6
    3820:	f001 fc81 	bl	5126 <mbedtls_mpi_cmp_int>
    3824:	2800      	cmp	r0, #0
    3826:	f47f af5d 	bne.w	36e4 <mpi_egcd+0x222>
/mnt/disk/raspbian-tee/optee_os/lib/libutee/tee_api_arith_mpi.c:690
    382a:	4629      	mov	r1, r5
    382c:	9802      	ldr	r0, [sp, #8]
    382e:	f001 f9cd 	bl	4bcc <mbedtls_mpi_copy>
    3832:	4602      	mov	r2, r0
    3834:	b120      	cbz	r0, 3840 <mpi_egcd+0x37e>
/mnt/disk/raspbian-tee/optee_os/lib/libutee/tee_api_arith_mpi.c:690 (discriminator 1)
    3836:	4836      	ldr	r0, [pc, #216]	; (3910 <mpi_egcd+0x44e>)
    3838:	f240 21b2 	movw	r1, #690	; 0x2b2
    383c:	4478      	add	r0, pc
    383e:	e675      	b.n	352c <mpi_egcd+0x6a>
/mnt/disk/raspbian-tee/optee_os/lib/libutee/tee_api_arith_mpi.c:691
    3840:	4621      	mov	r1, r4
    3842:	9803      	ldr	r0, [sp, #12]
    3844:	f001 f9c2 	bl	4bcc <mbedtls_mpi_copy>
    3848:	4602      	mov	r2, r0
    384a:	b120      	cbz	r0, 3856 <mpi_egcd+0x394>
/mnt/disk/raspbian-tee/optee_os/lib/libutee/tee_api_arith_mpi.c:691 (discriminator 1)
    384c:	4831      	ldr	r0, [pc, #196]	; (3914 <mpi_egcd+0x452>)
    384e:	f240 21b3 	movw	r1, #691	; 0x2b3
    3852:	4478      	add	r0, pc
    3854:	e66a      	b.n	352c <mpi_egcd+0x6a>
/mnt/disk/raspbian-tee/optee_os/lib/libutee/tee_api_arith_mpi.c:692
    3856:	9901      	ldr	r1, [sp, #4]
    3858:	4648      	mov	r0, r9
    385a:	f001 fb5a 	bl	4f12 <mbedtls_mpi_shift_l>
    385e:	4602      	mov	r2, r0
    3860:	b120      	cbz	r0, 386c <mpi_egcd+0x3aa>
/mnt/disk/raspbian-tee/optee_os/lib/libutee/tee_api_arith_mpi.c:692 (discriminator 1)
    3862:	482d      	ldr	r0, [pc, #180]	; (3918 <mpi_egcd+0x456>)
    3864:	f44f 712d 	mov.w	r1, #692	; 0x2b4
    3868:	4478      	add	r0, pc
    386a:	e65f      	b.n	352c <mpi_egcd+0x6a>
/mnt/disk/raspbian-tee/optee_os/lib/libutee/tee_api_arith_mpi.c:695
    386c:	4640      	mov	r0, r8
    386e:	f7ff fe1a 	bl	34a6 <put_mpi>
/mnt/disk/raspbian-tee/optee_os/lib/libutee/tee_api_arith_mpi.c:696
    3872:	4638      	mov	r0, r7
    3874:	f7ff fe17 	bl	34a6 <put_mpi>
/mnt/disk/raspbian-tee/optee_os/lib/libutee/tee_api_arith_mpi.c:697
    3878:	4628      	mov	r0, r5
    387a:	f7ff fe14 	bl	34a6 <put_mpi>
/mnt/disk/raspbian-tee/optee_os/lib/libutee/tee_api_arith_mpi.c:698
    387e:	4620      	mov	r0, r4
    3880:	f7ff fe11 	bl	34a6 <put_mpi>
/mnt/disk/raspbian-tee/optee_os/lib/libutee/tee_api_arith_mpi.c:699
    3884:	4650      	mov	r0, sl
    3886:	f7ff fe0e 	bl	34a6 <put_mpi>
/mnt/disk/raspbian-tee/optee_os/lib/libutee/tee_api_arith_mpi.c:700
    388a:	4658      	mov	r0, fp
    388c:	f7ff fe0b 	bl	34a6 <put_mpi>
/mnt/disk/raspbian-tee/optee_os/lib/libutee/tee_api_arith_mpi.c:701
    3890:	4630      	mov	r0, r6
    3892:	f7ff fe08 	bl	34a6 <put_mpi>
/mnt/disk/raspbian-tee/optee_os/lib/libutee/tee_api_arith_mpi.c:702
    3896:	b01b      	add	sp, #108	; 0x6c
    3898:	e8bd 8ff0 	ldmia.w	sp!, {r4, r5, r6, r7, r8, r9, sl, fp, pc}
    389c:	00004c51 	.word	0x00004c51
    38a0:	00004c37 	.word	0x00004c37
    38a4:	00004c1d 	.word	0x00004c1d
    38a8:	00004c07 	.word	0x00004c07
    38ac:	00004bf1 	.word	0x00004bf1
    38b0:	00004bdb 	.word	0x00004bdb
    38b4:	00004bbb 	.word	0x00004bbb
    38b8:	00004b93 	.word	0x00004b93
    38bc:	00004b7d 	.word	0x00004b7d
    38c0:	00004b67 	.word	0x00004b67
    38c4:	00004b51 	.word	0x00004b51
    38c8:	00004b3b 	.word	0x00004b3b
    38cc:	00004b21 	.word	0x00004b21
    38d0:	00004b0b 	.word	0x00004b0b
    38d4:	00004aeb 	.word	0x00004aeb
    38d8:	00004acb 	.word	0x00004acb
    38dc:	00004ab1 	.word	0x00004ab1
    38e0:	00004a9b 	.word	0x00004a9b
    38e4:	00004a63 	.word	0x00004a63
    38e8:	00004a4d 	.word	0x00004a4d
    38ec:	00004a2d 	.word	0x00004a2d
    38f0:	00004a0d 	.word	0x00004a0d
    38f4:	000049f3 	.word	0x000049f3
    38f8:	000049db 	.word	0x000049db
    38fc:	000049c3 	.word	0x000049c3
    3900:	000049ab 	.word	0x000049ab
    3904:	00004993 	.word	0x00004993
    3908:	0000497b 	.word	0x0000497b
    390c:	00004963 	.word	0x00004963
    3910:	0000493f 	.word	0x0000493f
    3914:	00004929 	.word	0x00004929
    3918:	00004913 	.word	0x00004913

0000391c <get_mpi>:
get_mpi():
/mnt/disk/raspbian-tee/optee_os/lib/libutee/tee_api_arith_mpi.c:81
    391c:	b507      	push	{r0, r1, r2, lr}
/mnt/disk/raspbian-tee/optee_os/lib/libutee/tee_api_arith_mpi.c:96
    391e:	b151      	cbz	r1, 3936 <get_mpi+0x1a>
init_static_mpi():
/mnt/disk/raspbian-tee/optee_os/lib/libutee/tee_api_arith_mpi.c:65
    3920:	88ca      	ldrh	r2, [r1, #6]
    3922:	888b      	ldrh	r3, [r1, #4]
    3924:	3108      	adds	r1, #8
    3926:	9200      	str	r2, [sp, #0]
    3928:	f851 2c08 	ldr.w	r2, [r1, #-8]
    392c:	f001 f864 	bl	49f8 <mbedtls_mpi_init_static>
get_mpi():
/mnt/disk/raspbian-tee/optee_os/lib/libutee/tee_api_arith_mpi.c:100
    3930:	b003      	add	sp, #12
    3932:	f85d fb04 	ldr.w	pc, [sp], #4
    3936:	b003      	add	sp, #12
    3938:	f85d eb04 	ldr.w	lr, [sp], #4
/mnt/disk/raspbian-tee/optee_os/lib/libutee/tee_api_arith_mpi.c:99
    393c:	f001 b849 	b.w	49d2 <mbedtls_mpi_init_mempool>

00003940 <bigint_binary>:
bigint_binary():
/mnt/disk/raspbian-tee/optee_os/lib/libutee/tee_api_arith_mpi.c:336
    3940:	e92d 47f0 	stmdb	sp!, {r4, r5, r6, r7, r8, r9, sl, lr}
    3944:	4607      	mov	r7, r0
    3946:	4689      	mov	r9, r1
    3948:	b08a      	sub	sp, #40	; 0x28
/mnt/disk/raspbian-tee/optee_os/lib/libutee/tee_api_arith_mpi.c:343
    394a:	4601      	mov	r1, r0
    394c:	ae01      	add	r6, sp, #4
/mnt/disk/raspbian-tee/optee_os/lib/libutee/tee_api_arith_mpi.c:336
    394e:	4614      	mov	r4, r2
/mnt/disk/raspbian-tee/optee_os/lib/libutee/tee_api_arith_mpi.c:343
    3950:	4630      	mov	r0, r6
/mnt/disk/raspbian-tee/optee_os/lib/libutee/tee_api_arith_mpi.c:336
    3952:	469a      	mov	sl, r3
    3954:	f10d 0810 	add.w	r8, sp, #16
/mnt/disk/raspbian-tee/optee_os/lib/libutee/tee_api_arith_mpi.c:343
    3958:	f7ff ffe0 	bl	391c <get_mpi>
/mnt/disk/raspbian-tee/optee_os/lib/libutee/tee_api_arith_mpi.c:345
    395c:	454f      	cmp	r7, r9
    395e:	d01b      	beq.n	3998 <bigint_binary+0x58>
/mnt/disk/raspbian-tee/optee_os/lib/libutee/tee_api_arith_mpi.c:340
    3960:	4645      	mov	r5, r8
/mnt/disk/raspbian-tee/optee_os/lib/libutee/tee_api_arith_mpi.c:348
    3962:	4649      	mov	r1, r9
    3964:	4640      	mov	r0, r8
    3966:	f7ff fd69 	bl	343c <get_const_mpi>
/mnt/disk/raspbian-tee/optee_os/lib/libutee/tee_api_arith_mpi.c:350
    396a:	42a7      	cmp	r7, r4
    396c:	af07      	add	r7, sp, #28
    396e:	d015      	beq.n	399c <bigint_binary+0x5c>
/mnt/disk/raspbian-tee/optee_os/lib/libutee/tee_api_arith_mpi.c:352
    3970:	45a1      	cmp	r9, r4
    3972:	d015      	beq.n	39a0 <bigint_binary+0x60>
/mnt/disk/raspbian-tee/optee_os/lib/libutee/tee_api_arith_mpi.c:355
    3974:	4621      	mov	r1, r4
/mnt/disk/raspbian-tee/optee_os/lib/libutee/tee_api_arith_mpi.c:341
    3976:	463c      	mov	r4, r7
/mnt/disk/raspbian-tee/optee_os/lib/libutee/tee_api_arith_mpi.c:355
    3978:	4638      	mov	r0, r7
    397a:	f7ff fd5f 	bl	343c <get_const_mpi>
/mnt/disk/raspbian-tee/optee_os/lib/libutee/tee_api_arith_mpi.c:357
    397e:	4622      	mov	r2, r4
    3980:	4629      	mov	r1, r5
    3982:	4630      	mov	r0, r6
    3984:	47d0      	blx	sl
    3986:	4602      	mov	r2, r0
    3988:	b160      	cbz	r0, 39a4 <bigint_binary+0x64>
/mnt/disk/raspbian-tee/optee_os/lib/libutee/tee_api_arith_mpi.c:357 (discriminator 1)
    398a:	480e      	ldr	r0, [pc, #56]	; (39c4 <bigint_binary+0x84>)
    398c:	f240 1165 	movw	r1, #357	; 0x165
    3990:	4478      	add	r0, pc
    3992:	3017      	adds	r0, #23
    3994:	f7ff fd42 	bl	341c <mpi_panic>
/mnt/disk/raspbian-tee/optee_os/lib/libutee/tee_api_arith_mpi.c:346
    3998:	4635      	mov	r5, r6
    399a:	e7e6      	b.n	396a <bigint_binary+0x2a>
/mnt/disk/raspbian-tee/optee_os/lib/libutee/tee_api_arith_mpi.c:351
    399c:	4634      	mov	r4, r6
    399e:	e7ee      	b.n	397e <bigint_binary+0x3e>
/mnt/disk/raspbian-tee/optee_os/lib/libutee/tee_api_arith_mpi.c:353
    39a0:	462c      	mov	r4, r5
    39a2:	e7ec      	b.n	397e <bigint_binary+0x3e>
/mnt/disk/raspbian-tee/optee_os/lib/libutee/tee_api_arith_mpi.c:359
    39a4:	4630      	mov	r0, r6
    39a6:	f7ff fd7e 	bl	34a6 <put_mpi>
/mnt/disk/raspbian-tee/optee_os/lib/libutee/tee_api_arith_mpi.c:360
    39aa:	4545      	cmp	r5, r8
    39ac:	d102      	bne.n	39b4 <bigint_binary+0x74>
/mnt/disk/raspbian-tee/optee_os/lib/libutee/tee_api_arith_mpi.c:361
    39ae:	4628      	mov	r0, r5
    39b0:	f7ff fd79 	bl	34a6 <put_mpi>
/mnt/disk/raspbian-tee/optee_os/lib/libutee/tee_api_arith_mpi.c:362
    39b4:	42bc      	cmp	r4, r7
    39b6:	d102      	bne.n	39be <bigint_binary+0x7e>
/mnt/disk/raspbian-tee/optee_os/lib/libutee/tee_api_arith_mpi.c:363
    39b8:	4620      	mov	r0, r4
    39ba:	f7ff fd74 	bl	34a6 <put_mpi>
/mnt/disk/raspbian-tee/optee_os/lib/libutee/tee_api_arith_mpi.c:364
    39be:	b00a      	add	sp, #40	; 0x28
    39c0:	e8bd 87f0 	ldmia.w	sp!, {r4, r5, r6, r7, r8, r9, sl, pc}
    39c4:	000047eb 	.word	0x000047eb

000039c8 <_TEE_MathAPI_Init>:
_TEE_MathAPI_Init():
/mnt/disk/raspbian-tee/optee_os/lib/libutee/tee_api_arith_mpi.c:48
    39c8:	480b      	ldr	r0, [pc, #44]	; (39f8 <_TEE_MathAPI_Init+0x30>)
    39ca:	2200      	movs	r2, #0
/mnt/disk/raspbian-tee/optee_os/lib/libutee/tee_api_arith_mpi.c:44
    39cc:	b510      	push	{r4, lr}
/mnt/disk/raspbian-tee/optee_os/lib/libutee/tee_api_arith_mpi.c:48
    39ce:	f44f 5100 	mov.w	r1, #8192	; 0x2000
/mnt/disk/raspbian-tee/optee_os/lib/libutee/tee_api_arith_mpi.c:44
    39d2:	4c0a      	ldr	r4, [pc, #40]	; (39fc <_TEE_MathAPI_Init+0x34>)
/mnt/disk/raspbian-tee/optee_os/lib/libutee/tee_api_arith_mpi.c:48
    39d4:	4478      	add	r0, pc
    39d6:	f003 ff29 	bl	782c <mempool_alloc_pool>
    39da:	4b09      	ldr	r3, [pc, #36]	; (3a00 <_TEE_MathAPI_Init+0x38>)
/mnt/disk/raspbian-tee/optee_os/lib/libutee/tee_api_arith_mpi.c:44
    39dc:	447c      	add	r4, pc
/mnt/disk/raspbian-tee/optee_os/lib/libutee/tee_api_arith_mpi.c:48
    39de:	58e3      	ldr	r3, [r4, r3]
    39e0:	6018      	str	r0, [r3, #0]
/mnt/disk/raspbian-tee/optee_os/lib/libutee/tee_api_arith_mpi.c:49
    39e2:	b938      	cbnz	r0, 39f4 <_TEE_MathAPI_Init+0x2c>
/mnt/disk/raspbian-tee/optee_os/lib/libutee/tee_api_arith_mpi.c:50
    39e4:	4807      	ldr	r0, [pc, #28]	; (3a04 <_TEE_MathAPI_Init+0x3c>)
    39e6:	2132      	movs	r1, #50	; 0x32
    39e8:	4a07      	ldr	r2, [pc, #28]	; (3a08 <_TEE_MathAPI_Init+0x40>)
    39ea:	4478      	add	r0, pc
    39ec:	447a      	add	r2, pc
    39ee:	3025      	adds	r0, #37	; 0x25
    39f0:	f000 fd1e 	bl	4430 <api_panic>
    39f4:	bd10      	pop	{r4, pc}
    39f6:	bf00      	nop
    39f8:	000066d4 	.word	0x000066d4
    39fc:	00005ab4 	.word	0x00005ab4
    3a00:	00000038 	.word	0x00000038
    3a04:	00004791 	.word	0x00004791
    3a08:	00004917 	.word	0x00004917

00003a0c <TEE_BigIntInit>:
TEE_BigIntInit():
/mnt/disk/raspbian-tee/optee_os/lib/libutee/tee_api_arith_mpi.c:140
    3a0c:	f101 021f 	add.w	r2, r1, #31
/mnt/disk/raspbian-tee/optee_os/lib/libutee/tee_api_arith_mpi.c:139
    3a10:	b538      	push	{r3, r4, r5, lr}
/mnt/disk/raspbian-tee/optee_os/lib/libutee/tee_api_arith_mpi.c:140
    3a12:	0952      	lsrs	r2, r2, #5
/mnt/disk/raspbian-tee/optee_os/lib/libutee/tee_api_arith_mpi.c:139
    3a14:	4605      	mov	r5, r0
    3a16:	460c      	mov	r4, r1
/mnt/disk/raspbian-tee/optee_os/lib/libutee/tee_api_arith_mpi.c:140
    3a18:	3202      	adds	r2, #2
    3a1a:	2100      	movs	r1, #0
    3a1c:	0092      	lsls	r2, r2, #2
/mnt/disk/raspbian-tee/optee_os/lib/libutee/tee_api_arith_mpi.c:146
    3a1e:	3c02      	subs	r4, #2
/mnt/disk/raspbian-tee/optee_os/lib/libutee/tee_api_arith_mpi.c:140
    3a20:	f004 f8b9 	bl	7b96 <memset>
/mnt/disk/raspbian-tee/optee_os/lib/libutee/tee_api_arith_mpi.c:145
    3a24:	2301      	movs	r3, #1
    3a26:	602b      	str	r3, [r5, #0]
/mnt/disk/raspbian-tee/optee_os/lib/libutee/tee_api_arith_mpi.c:146
    3a28:	f242 7310 	movw	r3, #10000	; 0x2710
    3a2c:	429c      	cmp	r4, r3
    3a2e:	d907      	bls.n	3a40 <TEE_BigIntInit+0x34>
/mnt/disk/raspbian-tee/optee_os/lib/libutee/tee_api_arith_mpi.c:147
    3a30:	4804      	ldr	r0, [pc, #16]	; (3a44 <TEE_BigIntInit+0x38>)
    3a32:	2193      	movs	r1, #147	; 0x93
    3a34:	4a04      	ldr	r2, [pc, #16]	; (3a48 <TEE_BigIntInit+0x3c>)
    3a36:	4478      	add	r0, pc
    3a38:	447a      	add	r2, pc
    3a3a:	3037      	adds	r0, #55	; 0x37
    3a3c:	f000 fcf8 	bl	4430 <api_panic>
/mnt/disk/raspbian-tee/optee_os/lib/libutee/tee_api_arith_mpi.c:148
    3a40:	80ac      	strh	r4, [r5, #4]
    3a42:	bd38      	pop	{r3, r4, r5, pc}
    3a44:	00004745 	.word	0x00004745
    3a48:	000048ec 	.word	0x000048ec

00003a4c <TEE_BigIntConvertFromOctetString>:
TEE_BigIntConvertFromOctetString():
/mnt/disk/raspbian-tee/optee_os/lib/libutee/tee_api_arith_mpi.c:154
    3a4c:	b5f0      	push	{r4, r5, r6, r7, lr}
    3a4e:	460c      	mov	r4, r1
    3a50:	4617      	mov	r7, r2
    3a52:	b085      	sub	sp, #20
/mnt/disk/raspbian-tee/optee_os/lib/libutee/tee_api_arith_mpi.c:158
    3a54:	4601      	mov	r1, r0
    3a56:	ad01      	add	r5, sp, #4
/mnt/disk/raspbian-tee/optee_os/lib/libutee/tee_api_arith_mpi.c:154
    3a58:	461e      	mov	r6, r3
/mnt/disk/raspbian-tee/optee_os/lib/libutee/tee_api_arith_mpi.c:158
    3a5a:	4628      	mov	r0, r5
    3a5c:	f7ff ff5e 	bl	391c <get_mpi>
/mnt/disk/raspbian-tee/optee_os/lib/libutee/tee_api_arith_mpi.c:160
    3a60:	4621      	mov	r1, r4
    3a62:	463a      	mov	r2, r7
    3a64:	4628      	mov	r0, r5
    3a66:	f001 f9fe 	bl	4e66 <mbedtls_mpi_read_binary>
/mnt/disk/raspbian-tee/optee_os/lib/libutee/tee_api_arith_mpi.c:163
    3a6a:	2800      	cmp	r0, #0
    3a6c:	4c06      	ldr	r4, [pc, #24]	; (3a88 <TEE_BigIntConvertFromOctetString+0x3c>)
    3a6e:	bf08      	it	eq
    3a70:	2400      	moveq	r4, #0
/mnt/disk/raspbian-tee/optee_os/lib/libutee/tee_api_arith_mpi.c:165
    3a72:	2e00      	cmp	r6, #0
    3a74:	da02      	bge.n	3a7c <TEE_BigIntConvertFromOctetString+0x30>
/mnt/disk/raspbian-tee/optee_os/lib/libutee/tee_api_arith_mpi.c:166
    3a76:	23ff      	movs	r3, #255	; 0xff
    3a78:	f88d 3004 	strb.w	r3, [sp, #4]
/mnt/disk/raspbian-tee/optee_os/lib/libutee/tee_api_arith_mpi.c:168
    3a7c:	4628      	mov	r0, r5
    3a7e:	f7ff fd12 	bl	34a6 <put_mpi>
/mnt/disk/raspbian-tee/optee_os/lib/libutee/tee_api_arith_mpi.c:171
    3a82:	4620      	mov	r0, r4
    3a84:	b005      	add	sp, #20
    3a86:	bdf0      	pop	{r4, r5, r6, r7, pc}
    3a88:	ffff300f 	.word	0xffff300f

00003a8c <TEE_BigIntConvertToOctetString>:
TEE_BigIntConvertToOctetString():
/mnt/disk/raspbian-tee/optee_os/lib/libutee/tee_api_arith_mpi.c:175
    3a8c:	b5f0      	push	{r4, r5, r6, r7, lr}
    3a8e:	460f      	mov	r7, r1
    3a90:	4604      	mov	r4, r0
    3a92:	b085      	sub	sp, #20
/mnt/disk/raspbian-tee/optee_os/lib/libutee/tee_api_arith_mpi.c:180
    3a94:	4611      	mov	r1, r2
    3a96:	ad01      	add	r5, sp, #4
    3a98:	4628      	mov	r0, r5
    3a9a:	f7ff fccf 	bl	343c <get_const_mpi>
/mnt/disk/raspbian-tee/optee_os/lib/libutee/tee_api_arith_mpi.c:182
    3a9e:	4628      	mov	r0, r5
    3aa0:	f001 f9db 	bl	4e5a <mbedtls_mpi_size>
/mnt/disk/raspbian-tee/optee_os/lib/libutee/tee_api_arith_mpi.c:183
    3aa4:	683b      	ldr	r3, [r7, #0]
/mnt/disk/raspbian-tee/optee_os/lib/libutee/tee_api_arith_mpi.c:182
    3aa6:	4606      	mov	r6, r0
/mnt/disk/raspbian-tee/optee_os/lib/libutee/tee_api_arith_mpi.c:183
    3aa8:	4298      	cmp	r0, r3
    3aaa:	d80c      	bhi.n	3ac6 <TEE_BigIntConvertToOctetString+0x3a>
/mnt/disk/raspbian-tee/optee_os/lib/libutee/tee_api_arith_mpi.c:184
    3aac:	4602      	mov	r2, r0
    3aae:	4621      	mov	r1, r4
    3ab0:	4628      	mov	r0, r5
    3ab2:	f001 fa0b 	bl	4ecc <mbedtls_mpi_write_binary>
    3ab6:	b170      	cbz	r0, 3ad6 <TEE_BigIntConvertToOctetString+0x4a>
/mnt/disk/raspbian-tee/optee_os/lib/libutee/tee_api_arith_mpi.c:184 (discriminator 1)
    3ab8:	4602      	mov	r2, r0
    3aba:	4809      	ldr	r0, [pc, #36]	; (3ae0 <TEE_BigIntConvertToOctetString+0x54>)
    3abc:	21b8      	movs	r1, #184	; 0xb8
    3abe:	4478      	add	r0, pc
    3ac0:	3046      	adds	r0, #70	; 0x46
    3ac2:	f7ff fcab 	bl	341c <mpi_panic>
/mnt/disk/raspbian-tee/optee_os/lib/libutee/tee_api_arith_mpi.c:186
    3ac6:	4c05      	ldr	r4, [pc, #20]	; (3adc <TEE_BigIntConvertToOctetString+0x50>)
/mnt/disk/raspbian-tee/optee_os/lib/libutee/tee_api_arith_mpi.c:190
    3ac8:	4628      	mov	r0, r5
/mnt/disk/raspbian-tee/optee_os/lib/libutee/tee_api_arith_mpi.c:188
    3aca:	603e      	str	r6, [r7, #0]
/mnt/disk/raspbian-tee/optee_os/lib/libutee/tee_api_arith_mpi.c:190
    3acc:	f7ff fceb 	bl	34a6 <put_mpi>
/mnt/disk/raspbian-tee/optee_os/lib/libutee/tee_api_arith_mpi.c:193
    3ad0:	4620      	mov	r0, r4
    3ad2:	b005      	add	sp, #20
    3ad4:	bdf0      	pop	{r4, r5, r6, r7, pc}
/mnt/disk/raspbian-tee/optee_os/lib/libutee/tee_api_arith_mpi.c:176
    3ad6:	4604      	mov	r4, r0
    3ad8:	e7f6      	b.n	3ac8 <TEE_BigIntConvertToOctetString+0x3c>
    3ada:	bf00      	nop
    3adc:	ffff0010 	.word	0xffff0010
    3ae0:	000046bd 	.word	0x000046bd

00003ae4 <TEE_BigIntConvertFromS32>:
TEE_BigIntConvertFromS32():
/mnt/disk/raspbian-tee/optee_os/lib/libutee/tee_api_arith_mpi.c:196
    3ae4:	b530      	push	{r4, r5, lr}
    3ae6:	460d      	mov	r5, r1
/mnt/disk/raspbian-tee/optee_os/lib/libutee/tee_api_arith_mpi.c:199
    3ae8:	4601      	mov	r1, r0
/mnt/disk/raspbian-tee/optee_os/lib/libutee/tee_api_arith_mpi.c:196
    3aea:	b085      	sub	sp, #20
/mnt/disk/raspbian-tee/optee_os/lib/libutee/tee_api_arith_mpi.c:199
    3aec:	ac01      	add	r4, sp, #4
    3aee:	4620      	mov	r0, r4
    3af0:	f7ff ff14 	bl	391c <get_mpi>
/mnt/disk/raspbian-tee/optee_os/lib/libutee/tee_api_arith_mpi.c:201
    3af4:	4629      	mov	r1, r5
    3af6:	4620      	mov	r0, r4
    3af8:	f001 f923 	bl	4d42 <mbedtls_mpi_lset>
    3afc:	4602      	mov	r2, r0
    3afe:	b128      	cbz	r0, 3b0c <TEE_BigIntConvertFromS32+0x28>
/mnt/disk/raspbian-tee/optee_os/lib/libutee/tee_api_arith_mpi.c:201 (discriminator 1)
    3b00:	4805      	ldr	r0, [pc, #20]	; (3b18 <TEE_BigIntConvertFromS32+0x34>)
    3b02:	21c9      	movs	r1, #201	; 0xc9
    3b04:	4478      	add	r0, pc
    3b06:	3065      	adds	r0, #101	; 0x65
    3b08:	f7ff fc88 	bl	341c <mpi_panic>
/mnt/disk/raspbian-tee/optee_os/lib/libutee/tee_api_arith_mpi.c:203
    3b0c:	4620      	mov	r0, r4
    3b0e:	f7ff fcca 	bl	34a6 <put_mpi>
/mnt/disk/raspbian-tee/optee_os/lib/libutee/tee_api_arith_mpi.c:204
    3b12:	b005      	add	sp, #20
    3b14:	bd30      	pop	{r4, r5, pc}
    3b16:	bf00      	nop
    3b18:	00004677 	.word	0x00004677

00003b1c <TEE_BigIntConvertToS32>:
TEE_BigIntConvertToS32():
/mnt/disk/raspbian-tee/optee_os/lib/libutee/tee_api_arith_mpi.c:207
    3b1c:	b530      	push	{r4, r5, lr}
    3b1e:	4605      	mov	r5, r0
    3b20:	b085      	sub	sp, #20
/mnt/disk/raspbian-tee/optee_os/lib/libutee/tee_api_arith_mpi.c:212
    3b22:	ac01      	add	r4, sp, #4
    3b24:	4620      	mov	r0, r4
    3b26:	f7ff fc89 	bl	343c <get_const_mpi>
/mnt/disk/raspbian-tee/optee_os/lib/libutee/tee_api_arith_mpi.c:214
    3b2a:	2204      	movs	r2, #4
    3b2c:	4669      	mov	r1, sp
    3b2e:	4620      	mov	r0, r4
    3b30:	f001 f9cc 	bl	4ecc <mbedtls_mpi_write_binary>
    3b34:	b9d0      	cbnz	r0, 3b6c <TEE_BigIntConvertToS32+0x50>
/mnt/disk/raspbian-tee/optee_os/lib/libutee/tee_api_arith_mpi.c:219
    3b36:	f99d 3004 	ldrsb.w	r3, [sp, #4]
    3b3a:	2b00      	cmp	r3, #0
    3b3c:	9b00      	ldr	r3, [sp, #0]
/mnt/disk/raspbian-tee/optee_os/lib/libutee/tee_api_arith_mpi.c:220
    3b3e:	ba1b      	rev	r3, r3
/mnt/disk/raspbian-tee/optee_os/lib/libutee/tee_api_arith_mpi.c:219
    3b40:	dd09      	ble.n	3b56 <TEE_BigIntConvertToS32+0x3a>
/mnt/disk/raspbian-tee/optee_os/lib/libutee/tee_api_arith_mpi.c:220
    3b42:	602b      	str	r3, [r5, #0]
    3b44:	2b00      	cmp	r3, #0
    3b46:	db11      	blt.n	3b6c <TEE_BigIntConvertToS32+0x50>
/mnt/disk/raspbian-tee/optee_os/lib/libutee/tee_api_arith_mpi.c:208
    3b48:	2500      	movs	r5, #0
/mnt/disk/raspbian-tee/optee_os/lib/libutee/tee_api_arith_mpi.c:228
    3b4a:	4620      	mov	r0, r4
    3b4c:	f7ff fcab 	bl	34a6 <put_mpi>
/mnt/disk/raspbian-tee/optee_os/lib/libutee/tee_api_arith_mpi.c:231
    3b50:	4628      	mov	r0, r5
    3b52:	b005      	add	sp, #20
    3b54:	bd30      	pop	{r4, r5, pc}
/mnt/disk/raspbian-tee/optee_os/lib/libutee/tee_api_arith_mpi.c:223
    3b56:	425a      	negs	r2, r3
    3b58:	b11b      	cbz	r3, 3b62 <TEE_BigIntConvertToS32+0x46>
    3b5a:	2a00      	cmp	r2, #0
    3b5c:	db03      	blt.n	3b66 <TEE_BigIntConvertToS32+0x4a>
    3b5e:	2001      	movs	r0, #1
    3b60:	e001      	b.n	3b66 <TEE_BigIntConvertToS32+0x4a>
    3b62:	2a00      	cmp	r2, #0
    3b64:	dbfb      	blt.n	3b5e <TEE_BigIntConvertToS32+0x42>
    3b66:	602a      	str	r2, [r5, #0]
    3b68:	2800      	cmp	r0, #0
    3b6a:	d0ed      	beq.n	3b48 <TEE_BigIntConvertToS32+0x2c>
/mnt/disk/raspbian-tee/optee_os/lib/libutee/tee_api_arith_mpi.c:221
    3b6c:	4d00      	ldr	r5, [pc, #0]	; (3b70 <TEE_BigIntConvertToS32+0x54>)
    3b6e:	e7ec      	b.n	3b4a <TEE_BigIntConvertToS32+0x2e>
    3b70:	ffff300f 	.word	0xffff300f

00003b74 <TEE_BigIntCmp>:
TEE_BigIntCmp():
/mnt/disk/raspbian-tee/optee_os/lib/libutee/tee_api_arith_mpi.c:234
    3b74:	b570      	push	{r4, r5, r6, lr}
    3b76:	460c      	mov	r4, r1
/mnt/disk/raspbian-tee/optee_os/lib/libutee/tee_api_arith_mpi.c:239
    3b78:	4601      	mov	r1, r0
/mnt/disk/raspbian-tee/optee_os/lib/libutee/tee_api_arith_mpi.c:234
    3b7a:	b086      	sub	sp, #24
/mnt/disk/raspbian-tee/optee_os/lib/libutee/tee_api_arith_mpi.c:239
    3b7c:	4668      	mov	r0, sp
    3b7e:	f7ff fc5d 	bl	343c <get_const_mpi>
/mnt/disk/raspbian-tee/optee_os/lib/libutee/tee_api_arith_mpi.c:240
    3b82:	4621      	mov	r1, r4
    3b84:	ac03      	add	r4, sp, #12
    3b86:	4620      	mov	r0, r4
    3b88:	f7ff fc58 	bl	343c <get_const_mpi>
/mnt/disk/raspbian-tee/optee_os/lib/libutee/tee_api_arith_mpi.c:242
    3b8c:	4621      	mov	r1, r4
    3b8e:	4668      	mov	r0, sp
    3b90:	f001 fa7e 	bl	5090 <mbedtls_mpi_cmp_mpi>
    3b94:	4606      	mov	r6, r0
/mnt/disk/raspbian-tee/optee_os/lib/libutee/tee_api_arith_mpi.c:244
    3b96:	4668      	mov	r0, sp
    3b98:	f7ff fc85 	bl	34a6 <put_mpi>
/mnt/disk/raspbian-tee/optee_os/lib/libutee/tee_api_arith_mpi.c:245
    3b9c:	4620      	mov	r0, r4
    3b9e:	f7ff fc82 	bl	34a6 <put_mpi>
/mnt/disk/raspbian-tee/optee_os/lib/libutee/tee_api_arith_mpi.c:248
    3ba2:	4630      	mov	r0, r6
    3ba4:	b006      	add	sp, #24
    3ba6:	bd70      	pop	{r4, r5, r6, pc}

00003ba8 <TEE_BigIntCmpS32>:
TEE_BigIntCmpS32():
/mnt/disk/raspbian-tee/optee_os/lib/libutee/tee_api_arith_mpi.c:251
    3ba8:	b530      	push	{r4, r5, lr}
    3baa:	460d      	mov	r5, r1
/mnt/disk/raspbian-tee/optee_os/lib/libutee/tee_api_arith_mpi.c:255
    3bac:	4601      	mov	r1, r0
/mnt/disk/raspbian-tee/optee_os/lib/libutee/tee_api_arith_mpi.c:251
    3bae:	b085      	sub	sp, #20
/mnt/disk/raspbian-tee/optee_os/lib/libutee/tee_api_arith_mpi.c:255
    3bb0:	ac01      	add	r4, sp, #4
    3bb2:	4620      	mov	r0, r4
    3bb4:	f7ff fc42 	bl	343c <get_const_mpi>
/mnt/disk/raspbian-tee/optee_os/lib/libutee/tee_api_arith_mpi.c:257
    3bb8:	4629      	mov	r1, r5
    3bba:	4620      	mov	r0, r4
    3bbc:	f001 fab3 	bl	5126 <mbedtls_mpi_cmp_int>
    3bc0:	4605      	mov	r5, r0
/mnt/disk/raspbian-tee/optee_os/lib/libutee/tee_api_arith_mpi.c:259
    3bc2:	4620      	mov	r0, r4
    3bc4:	f7ff fc6f 	bl	34a6 <put_mpi>
/mnt/disk/raspbian-tee/optee_os/lib/libutee/tee_api_arith_mpi.c:262
    3bc8:	4628      	mov	r0, r5
    3bca:	b005      	add	sp, #20
    3bcc:	bd30      	pop	{r4, r5, pc}

00003bce <bigint_binary_mod>:
bigint_binary_mod():
/mnt/disk/raspbian-tee/optee_os/lib/libutee/tee_api_arith_mpi.c:370
    3bce:	e92d 47f0 	stmdb	sp!, {r4, r5, r6, r7, r8, r9, sl, lr}
    3bd2:	4680      	mov	r8, r0
    3bd4:	460f      	mov	r7, r1
    3bd6:	b090      	sub	sp, #64	; 0x40
/mnt/disk/raspbian-tee/optee_os/lib/libutee/tee_api_arith_mpi.c:371
    3bd8:	2102      	movs	r1, #2
    3bda:	4618      	mov	r0, r3
/mnt/disk/raspbian-tee/optee_os/lib/libutee/tee_api_arith_mpi.c:370
    3bdc:	4614      	mov	r4, r2
    3bde:	461d      	mov	r5, r3
/mnt/disk/raspbian-tee/optee_os/lib/libutee/tee_api_arith_mpi.c:371
    3be0:	f7ff ffe2 	bl	3ba8 <TEE_BigIntCmpS32>
    3be4:	2800      	cmp	r0, #0
    3be6:	da08      	bge.n	3bfa <bigint_binary_mod+0x2c>
/mnt/disk/raspbian-tee/optee_os/lib/libutee/tee_api_arith_mpi.c:372
    3be8:	482f      	ldr	r0, [pc, #188]	; (3ca8 <bigint_binary_mod+0xda>)
    3bea:	f44f 71ba 	mov.w	r1, #372	; 0x174
    3bee:	4a2f      	ldr	r2, [pc, #188]	; (3cac <bigint_binary_mod+0xde>)
    3bf0:	4478      	add	r0, pc
    3bf2:	447a      	add	r2, pc
    3bf4:	307e      	adds	r0, #126	; 0x7e
    3bf6:	f000 fc1b 	bl	4430 <api_panic>
/mnt/disk/raspbian-tee/optee_os/lib/libutee/tee_api_arith_mpi.c:382
    3bfa:	ae01      	add	r6, sp, #4
    3bfc:	4641      	mov	r1, r8
    3bfe:	4630      	mov	r0, r6
/mnt/disk/raspbian-tee/optee_os/lib/libutee/tee_api_arith_mpi.c:383
    3c00:	f10d 0a28 	add.w	sl, sp, #40	; 0x28
/mnt/disk/raspbian-tee/optee_os/lib/libutee/tee_api_arith_mpi.c:382
    3c04:	f7ff fe8a 	bl	391c <get_mpi>
/mnt/disk/raspbian-tee/optee_os/lib/libutee/tee_api_arith_mpi.c:383
    3c08:	4629      	mov	r1, r5
    3c0a:	4650      	mov	r0, sl
    3c0c:	f10d 0910 	add.w	r9, sp, #16
    3c10:	f7ff fc14 	bl	343c <get_const_mpi>
/mnt/disk/raspbian-tee/optee_os/lib/libutee/tee_api_arith_mpi.c:385
    3c14:	45b8      	cmp	r8, r7
    3c16:	d021      	beq.n	3c5c <bigint_binary_mod+0x8e>
/mnt/disk/raspbian-tee/optee_os/lib/libutee/tee_api_arith_mpi.c:378
    3c18:	464d      	mov	r5, r9
/mnt/disk/raspbian-tee/optee_os/lib/libutee/tee_api_arith_mpi.c:388
    3c1a:	4639      	mov	r1, r7
    3c1c:	4648      	mov	r0, r9
    3c1e:	f7ff fc0d 	bl	343c <get_const_mpi>
/mnt/disk/raspbian-tee/optee_os/lib/libutee/tee_api_arith_mpi.c:390
    3c22:	45a0      	cmp	r8, r4
    3c24:	f10d 081c 	add.w	r8, sp, #28
    3c28:	d01a      	beq.n	3c60 <bigint_binary_mod+0x92>
/mnt/disk/raspbian-tee/optee_os/lib/libutee/tee_api_arith_mpi.c:392
    3c2a:	42a7      	cmp	r7, r4
    3c2c:	d01a      	beq.n	3c64 <bigint_binary_mod+0x96>
/mnt/disk/raspbian-tee/optee_os/lib/libutee/tee_api_arith_mpi.c:395
    3c2e:	4621      	mov	r1, r4
/mnt/disk/raspbian-tee/optee_os/lib/libutee/tee_api_arith_mpi.c:379
    3c30:	4644      	mov	r4, r8
/mnt/disk/raspbian-tee/optee_os/lib/libutee/tee_api_arith_mpi.c:395
    3c32:	4640      	mov	r0, r8
    3c34:	f7ff fc02 	bl	343c <get_const_mpi>
get_mpi():
/mnt/disk/raspbian-tee/optee_os/lib/libutee/tee_api_arith_mpi.c:99
    3c38:	af0d      	add	r7, sp, #52	; 0x34
    3c3a:	4638      	mov	r0, r7
    3c3c:	f000 fec9 	bl	49d2 <mbedtls_mpi_init_mempool>
bigint_binary_mod():
/mnt/disk/raspbian-tee/optee_os/lib/libutee/tee_api_arith_mpi.c:399
    3c40:	4622      	mov	r2, r4
    3c42:	4629      	mov	r1, r5
    3c44:	4638      	mov	r0, r7
    3c46:	9b18      	ldr	r3, [sp, #96]	; 0x60
    3c48:	4798      	blx	r3
    3c4a:	4602      	mov	r2, r0
    3c4c:	b160      	cbz	r0, 3c68 <bigint_binary_mod+0x9a>
/mnt/disk/raspbian-tee/optee_os/lib/libutee/tee_api_arith_mpi.c:399 (discriminator 1)
    3c4e:	4818      	ldr	r0, [pc, #96]	; (3cb0 <bigint_binary_mod+0xe2>)
    3c50:	f240 118f 	movw	r1, #399	; 0x18f
    3c54:	4478      	add	r0, pc
/mnt/disk/raspbian-tee/optee_os/lib/libutee/tee_api_arith_mpi.c:400 (discriminator 1)
    3c56:	307e      	adds	r0, #126	; 0x7e
    3c58:	f7ff fbe0 	bl	341c <mpi_panic>
/mnt/disk/raspbian-tee/optee_os/lib/libutee/tee_api_arith_mpi.c:386
    3c5c:	4635      	mov	r5, r6
    3c5e:	e7e0      	b.n	3c22 <bigint_binary_mod+0x54>
/mnt/disk/raspbian-tee/optee_os/lib/libutee/tee_api_arith_mpi.c:391
    3c60:	4634      	mov	r4, r6
    3c62:	e7e9      	b.n	3c38 <bigint_binary_mod+0x6a>
/mnt/disk/raspbian-tee/optee_os/lib/libutee/tee_api_arith_mpi.c:393
    3c64:	462c      	mov	r4, r5
    3c66:	e7e7      	b.n	3c38 <bigint_binary_mod+0x6a>
/mnt/disk/raspbian-tee/optee_os/lib/libutee/tee_api_arith_mpi.c:400
    3c68:	4652      	mov	r2, sl
    3c6a:	4639      	mov	r1, r7
    3c6c:	4630      	mov	r0, r6
    3c6e:	f001 fe85 	bl	597c <mbedtls_mpi_mod_mpi>
    3c72:	4602      	mov	r2, r0
    3c74:	b120      	cbz	r0, 3c80 <bigint_binary_mod+0xb2>
/mnt/disk/raspbian-tee/optee_os/lib/libutee/tee_api_arith_mpi.c:400 (discriminator 1)
    3c76:	480f      	ldr	r0, [pc, #60]	; (3cb4 <bigint_binary_mod+0xe6>)
    3c78:	f44f 71c8 	mov.w	r1, #400	; 0x190
    3c7c:	4478      	add	r0, pc
    3c7e:	e7ea      	b.n	3c56 <bigint_binary_mod+0x88>
/mnt/disk/raspbian-tee/optee_os/lib/libutee/tee_api_arith_mpi.c:402
    3c80:	4630      	mov	r0, r6
    3c82:	f7ff fc10 	bl	34a6 <put_mpi>
/mnt/disk/raspbian-tee/optee_os/lib/libutee/tee_api_arith_mpi.c:403
    3c86:	454d      	cmp	r5, r9
    3c88:	d102      	bne.n	3c90 <bigint_binary_mod+0xc2>
/mnt/disk/raspbian-tee/optee_os/lib/libutee/tee_api_arith_mpi.c:404
    3c8a:	4628      	mov	r0, r5
    3c8c:	f7ff fc0b 	bl	34a6 <put_mpi>
/mnt/disk/raspbian-tee/optee_os/lib/libutee/tee_api_arith_mpi.c:405
    3c90:	4544      	cmp	r4, r8
    3c92:	d102      	bne.n	3c9a <bigint_binary_mod+0xcc>
/mnt/disk/raspbian-tee/optee_os/lib/libutee/tee_api_arith_mpi.c:406
    3c94:	4620      	mov	r0, r4
    3c96:	f7ff fc06 	bl	34a6 <put_mpi>
/mnt/disk/raspbian-tee/optee_os/lib/libutee/tee_api_arith_mpi.c:407
    3c9a:	4638      	mov	r0, r7
    3c9c:	f7ff fc03 	bl	34a6 <put_mpi>
/mnt/disk/raspbian-tee/optee_os/lib/libutee/tee_api_arith_mpi.c:408
    3ca0:	b010      	add	sp, #64	; 0x40
    3ca2:	e8bd 87f0 	ldmia.w	sp!, {r4, r5, r6, r7, r8, r9, sl, pc}
    3ca6:	bf00      	nop
    3ca8:	0000458b 	.word	0x0000458b
    3cac:	00004743 	.word	0x00004743
    3cb0:	00004527 	.word	0x00004527
    3cb4:	000044ff 	.word	0x000044ff

00003cb8 <TEE_BigIntShiftRight>:
TEE_BigIntShiftRight():
/mnt/disk/raspbian-tee/optee_os/lib/libutee/tee_api_arith_mpi.c:265
    3cb8:	b5f0      	push	{r4, r5, r6, r7, lr}
    3cba:	4605      	mov	r5, r0
    3cbc:	460e      	mov	r6, r1
    3cbe:	b08b      	sub	sp, #44	; 0x2c
/mnt/disk/raspbian-tee/optee_os/lib/libutee/tee_api_arith_mpi.c:269
    3cc0:	4601      	mov	r1, r0
    3cc2:	ac01      	add	r4, sp, #4
/mnt/disk/raspbian-tee/optee_os/lib/libutee/tee_api_arith_mpi.c:265
    3cc4:	4617      	mov	r7, r2
/mnt/disk/raspbian-tee/optee_os/lib/libutee/tee_api_arith_mpi.c:269
    3cc6:	4620      	mov	r0, r4
    3cc8:	f7ff fe28 	bl	391c <get_mpi>
/mnt/disk/raspbian-tee/optee_os/lib/libutee/tee_api_arith_mpi.c:271
    3ccc:	42b5      	cmp	r5, r6
    3cce:	d10d      	bne.n	3cec <TEE_BigIntShiftRight+0x34>
/mnt/disk/raspbian-tee/optee_os/lib/libutee/tee_api_arith_mpi.c:272
    3cd0:	4639      	mov	r1, r7
    3cd2:	4620      	mov	r0, r4
    3cd4:	f001 f969 	bl	4faa <mbedtls_mpi_shift_r>
    3cd8:	4602      	mov	r2, r0
    3cda:	2800      	cmp	r0, #0
    3cdc:	d055      	beq.n	3d8a <TEE_BigIntShiftRight+0xd2>
/mnt/disk/raspbian-tee/optee_os/lib/libutee/tee_api_arith_mpi.c:272 (discriminator 1)
    3cde:	482d      	ldr	r0, [pc, #180]	; (3d94 <TEE_BigIntShiftRight+0xdc>)
    3ce0:	f44f 7188 	mov.w	r1, #272	; 0x110
    3ce4:	4478      	add	r0, pc
/mnt/disk/raspbian-tee/optee_os/lib/libutee/tee_api_arith_mpi.c:279 (discriminator 1)
    3ce6:	3090      	adds	r0, #144	; 0x90
    3ce8:	f7ff fb98 	bl	341c <mpi_panic>
/mnt/disk/raspbian-tee/optee_os/lib/libutee/tee_api_arith_mpi.c:276
    3cec:	ad04      	add	r5, sp, #16
    3cee:	4631      	mov	r1, r6
    3cf0:	4628      	mov	r0, r5
    3cf2:	f7ff fba3 	bl	343c <get_const_mpi>
/mnt/disk/raspbian-tee/optee_os/lib/libutee/tee_api_arith_mpi.c:278
    3cf6:	4620      	mov	r0, r4
    3cf8:	f001 f8af 	bl	4e5a <mbedtls_mpi_size>
    3cfc:	4606      	mov	r6, r0
    3cfe:	4628      	mov	r0, r5
    3d00:	f001 f8ab 	bl	4e5a <mbedtls_mpi_size>
    3d04:	4286      	cmp	r6, r0
    3d06:	d315      	bcc.n	3d34 <TEE_BigIntShiftRight+0x7c>
/mnt/disk/raspbian-tee/optee_os/lib/libutee/tee_api_arith_mpi.c:279
    3d08:	4629      	mov	r1, r5
    3d0a:	4620      	mov	r0, r4
    3d0c:	f000 ff5e 	bl	4bcc <mbedtls_mpi_copy>
    3d10:	4602      	mov	r2, r0
    3d12:	b120      	cbz	r0, 3d1e <TEE_BigIntShiftRight+0x66>
/mnt/disk/raspbian-tee/optee_os/lib/libutee/tee_api_arith_mpi.c:279 (discriminator 1)
    3d14:	4820      	ldr	r0, [pc, #128]	; (3d98 <TEE_BigIntShiftRight+0xe0>)
    3d16:	f240 1117 	movw	r1, #279	; 0x117
    3d1a:	4478      	add	r0, pc
    3d1c:	e7e3      	b.n	3ce6 <TEE_BigIntShiftRight+0x2e>
/mnt/disk/raspbian-tee/optee_os/lib/libutee/tee_api_arith_mpi.c:280
    3d1e:	4639      	mov	r1, r7
    3d20:	4620      	mov	r0, r4
    3d22:	f001 f942 	bl	4faa <mbedtls_mpi_shift_r>
    3d26:	4602      	mov	r2, r0
    3d28:	b360      	cbz	r0, 3d84 <TEE_BigIntShiftRight+0xcc>
/mnt/disk/raspbian-tee/optee_os/lib/libutee/tee_api_arith_mpi.c:280 (discriminator 1)
    3d2a:	481c      	ldr	r0, [pc, #112]	; (3d9c <TEE_BigIntShiftRight+0xe4>)
    3d2c:	f44f 718c 	mov.w	r1, #280	; 0x118
    3d30:	4478      	add	r0, pc
    3d32:	e7d8      	b.n	3ce6 <TEE_BigIntShiftRight+0x2e>
get_mpi():
/mnt/disk/raspbian-tee/optee_os/lib/libutee/tee_api_arith_mpi.c:99
    3d34:	ae07      	add	r6, sp, #28
    3d36:	4630      	mov	r0, r6
    3d38:	f000 fe4b 	bl	49d2 <mbedtls_mpi_init_mempool>
TEE_BigIntShiftRight():
/mnt/disk/raspbian-tee/optee_os/lib/libutee/tee_api_arith_mpi.c:291
    3d3c:	4629      	mov	r1, r5
    3d3e:	4630      	mov	r0, r6
    3d40:	f000 ff44 	bl	4bcc <mbedtls_mpi_copy>
    3d44:	4602      	mov	r2, r0
    3d46:	b120      	cbz	r0, 3d52 <TEE_BigIntShiftRight+0x9a>
/mnt/disk/raspbian-tee/optee_os/lib/libutee/tee_api_arith_mpi.c:291 (discriminator 1)
    3d48:	4815      	ldr	r0, [pc, #84]	; (3da0 <TEE_BigIntShiftRight+0xe8>)
    3d4a:	f240 1123 	movw	r1, #291	; 0x123
    3d4e:	4478      	add	r0, pc
    3d50:	e7c9      	b.n	3ce6 <TEE_BigIntShiftRight+0x2e>
/mnt/disk/raspbian-tee/optee_os/lib/libutee/tee_api_arith_mpi.c:292
    3d52:	4639      	mov	r1, r7
    3d54:	4630      	mov	r0, r6
    3d56:	f001 f928 	bl	4faa <mbedtls_mpi_shift_r>
    3d5a:	4602      	mov	r2, r0
    3d5c:	b120      	cbz	r0, 3d68 <TEE_BigIntShiftRight+0xb0>
/mnt/disk/raspbian-tee/optee_os/lib/libutee/tee_api_arith_mpi.c:292 (discriminator 1)
    3d5e:	4811      	ldr	r0, [pc, #68]	; (3da4 <TEE_BigIntShiftRight+0xec>)
    3d60:	f44f 7192 	mov.w	r1, #292	; 0x124
    3d64:	4478      	add	r0, pc
    3d66:	e7be      	b.n	3ce6 <TEE_BigIntShiftRight+0x2e>
/mnt/disk/raspbian-tee/optee_os/lib/libutee/tee_api_arith_mpi.c:293
    3d68:	4631      	mov	r1, r6
    3d6a:	4620      	mov	r0, r4
    3d6c:	f000 ff2e 	bl	4bcc <mbedtls_mpi_copy>
    3d70:	4602      	mov	r2, r0
    3d72:	b120      	cbz	r0, 3d7e <TEE_BigIntShiftRight+0xc6>
/mnt/disk/raspbian-tee/optee_os/lib/libutee/tee_api_arith_mpi.c:293 (discriminator 1)
    3d74:	480c      	ldr	r0, [pc, #48]	; (3da8 <TEE_BigIntShiftRight+0xf0>)
    3d76:	f240 1125 	movw	r1, #293	; 0x125
    3d7a:	4478      	add	r0, pc
    3d7c:	e7b3      	b.n	3ce6 <TEE_BigIntShiftRight+0x2e>
/mnt/disk/raspbian-tee/optee_os/lib/libutee/tee_api_arith_mpi.c:295
    3d7e:	4630      	mov	r0, r6
    3d80:	f7ff fb91 	bl	34a6 <put_mpi>
/mnt/disk/raspbian-tee/optee_os/lib/libutee/tee_api_arith_mpi.c:298
    3d84:	4628      	mov	r0, r5
    3d86:	f7ff fb8e 	bl	34a6 <put_mpi>
/mnt/disk/raspbian-tee/optee_os/lib/libutee/tee_api_arith_mpi.c:301
    3d8a:	4620      	mov	r0, r4
    3d8c:	f7ff fb8b 	bl	34a6 <put_mpi>
/mnt/disk/raspbian-tee/optee_os/lib/libutee/tee_api_arith_mpi.c:302
    3d90:	b00b      	add	sp, #44	; 0x2c
    3d92:	bdf0      	pop	{r4, r5, r6, r7, pc}
    3d94:	00004497 	.word	0x00004497
    3d98:	00004461 	.word	0x00004461
    3d9c:	0000444b 	.word	0x0000444b
    3da0:	0000442d 	.word	0x0000442d
    3da4:	00004417 	.word	0x00004417
    3da8:	00004401 	.word	0x00004401

00003dac <TEE_BigIntGetBit>:
TEE_BigIntGetBit():
/mnt/disk/raspbian-tee/optee_os/lib/libutee/tee_api_arith_mpi.c:305
    3dac:	b530      	push	{r4, r5, lr}
    3dae:	460d      	mov	r5, r1
/mnt/disk/raspbian-tee/optee_os/lib/libutee/tee_api_arith_mpi.c:309
    3db0:	4601      	mov	r1, r0
/mnt/disk/raspbian-tee/optee_os/lib/libutee/tee_api_arith_mpi.c:305
    3db2:	b085      	sub	sp, #20
/mnt/disk/raspbian-tee/optee_os/lib/libutee/tee_api_arith_mpi.c:309
    3db4:	ac01      	add	r4, sp, #4
    3db6:	4620      	mov	r0, r4
    3db8:	f7ff fb40 	bl	343c <get_const_mpi>
/mnt/disk/raspbian-tee/optee_os/lib/libutee/tee_api_arith_mpi.c:311
    3dbc:	4629      	mov	r1, r5
    3dbe:	4620      	mov	r0, r4
    3dc0:	f000 ffdb 	bl	4d7a <mbedtls_mpi_get_bit>
    3dc4:	4605      	mov	r5, r0
/mnt/disk/raspbian-tee/optee_os/lib/libutee/tee_api_arith_mpi.c:313
    3dc6:	4620      	mov	r0, r4
    3dc8:	f7ff fb6d 	bl	34a6 <put_mpi>
/mnt/disk/raspbian-tee/optee_os/lib/libutee/tee_api_arith_mpi.c:316
    3dcc:	1c28      	adds	r0, r5, #0
    3dce:	bf18      	it	ne
    3dd0:	2001      	movne	r0, #1
    3dd2:	b005      	add	sp, #20
    3dd4:	bd30      	pop	{r4, r5, pc}

00003dd6 <TEE_BigIntGetBitCount>:
TEE_BigIntGetBitCount():
/mnt/disk/raspbian-tee/optee_os/lib/libutee/tee_api_arith_mpi.c:319
    3dd6:	b530      	push	{r4, r5, lr}
/mnt/disk/raspbian-tee/optee_os/lib/libutee/tee_api_arith_mpi.c:323
    3dd8:	4601      	mov	r1, r0
/mnt/disk/raspbian-tee/optee_os/lib/libutee/tee_api_arith_mpi.c:319
    3dda:	b085      	sub	sp, #20
/mnt/disk/raspbian-tee/optee_os/lib/libutee/tee_api_arith_mpi.c:323
    3ddc:	ac01      	add	r4, sp, #4
    3dde:	4620      	mov	r0, r4
    3de0:	f7ff fb2c 	bl	343c <get_const_mpi>
/mnt/disk/raspbian-tee/optee_os/lib/libutee/tee_api_arith_mpi.c:325
    3de4:	4620      	mov	r0, r4
    3de6:	f001 f817 	bl	4e18 <mbedtls_mpi_bitlen>
    3dea:	4605      	mov	r5, r0
/mnt/disk/raspbian-tee/optee_os/lib/libutee/tee_api_arith_mpi.c:327
    3dec:	4620      	mov	r0, r4
    3dee:	f7ff fb5a 	bl	34a6 <put_mpi>
/mnt/disk/raspbian-tee/optee_os/lib/libutee/tee_api_arith_mpi.c:330
    3df2:	4628      	mov	r0, r5
    3df4:	b005      	add	sp, #20
    3df6:	bd30      	pop	{r4, r5, pc}

00003df8 <TEE_BigIntAdd>:
TEE_BigIntAdd():
/mnt/disk/raspbian-tee/optee_os/lib/libutee/tee_api_arith_mpi.c:412
    3df8:	4b04      	ldr	r3, [pc, #16]	; (3e0c <TEE_BigIntAdd+0x14>)
    3dfa:	b417      	push	{r0, r1, r2, r4}
/mnt/disk/raspbian-tee/optee_os/lib/libutee/tee_api_arith_mpi.c:413
    3dfc:	4c04      	ldr	r4, [pc, #16]	; (3e10 <TEE_BigIntAdd+0x18>)
/mnt/disk/raspbian-tee/optee_os/lib/libutee/tee_api_arith_mpi.c:412
    3dfe:	447b      	add	r3, pc
/mnt/disk/raspbian-tee/optee_os/lib/libutee/tee_api_arith_mpi.c:413
    3e00:	591b      	ldr	r3, [r3, r4]
    3e02:	9301      	str	r3, [sp, #4]
/mnt/disk/raspbian-tee/optee_os/lib/libutee/tee_api_arith_mpi.c:414
    3e04:	b003      	add	sp, #12
    3e06:	f85d 4b04 	ldr.w	r4, [sp], #4
/mnt/disk/raspbian-tee/optee_os/lib/libutee/tee_api_arith_mpi.c:413
    3e0a:	e599      	b.n	3940 <bigint_binary>
    3e0c:	00005692 	.word	0x00005692
    3e10:	00000020 	.word	0x00000020

00003e14 <TEE_BigIntSub>:
TEE_BigIntSub():
/mnt/disk/raspbian-tee/optee_os/lib/libutee/tee_api_arith_mpi.c:418
    3e14:	4b04      	ldr	r3, [pc, #16]	; (3e28 <TEE_BigIntSub+0x14>)
    3e16:	b417      	push	{r0, r1, r2, r4}
/mnt/disk/raspbian-tee/optee_os/lib/libutee/tee_api_arith_mpi.c:419
    3e18:	4c04      	ldr	r4, [pc, #16]	; (3e2c <TEE_BigIntSub+0x18>)
/mnt/disk/raspbian-tee/optee_os/lib/libutee/tee_api_arith_mpi.c:418
    3e1a:	447b      	add	r3, pc
/mnt/disk/raspbian-tee/optee_os/lib/libutee/tee_api_arith_mpi.c:419
    3e1c:	591b      	ldr	r3, [r3, r4]
    3e1e:	9301      	str	r3, [sp, #4]
/mnt/disk/raspbian-tee/optee_os/lib/libutee/tee_api_arith_mpi.c:420
    3e20:	b003      	add	sp, #12
    3e22:	f85d 4b04 	ldr.w	r4, [sp], #4
/mnt/disk/raspbian-tee/optee_os/lib/libutee/tee_api_arith_mpi.c:419
    3e26:	e58b      	b.n	3940 <bigint_binary>
    3e28:	00005676 	.word	0x00005676
    3e2c:	00000028 	.word	0x00000028

00003e30 <TEE_BigIntNeg>:
TEE_BigIntNeg():
/mnt/disk/raspbian-tee/optee_os/lib/libutee/tee_api_arith_mpi.c:423
    3e30:	b570      	push	{r4, r5, r6, lr}
    3e32:	4605      	mov	r5, r0
    3e34:	460e      	mov	r6, r1
    3e36:	b086      	sub	sp, #24
/mnt/disk/raspbian-tee/optee_os/lib/libutee/tee_api_arith_mpi.c:426
    3e38:	4601      	mov	r1, r0
    3e3a:	4668      	mov	r0, sp
    3e3c:	466c      	mov	r4, sp
    3e3e:	f7ff fd6d 	bl	391c <get_mpi>
/mnt/disk/raspbian-tee/optee_os/lib/libutee/tee_api_arith_mpi.c:428
    3e42:	42b5      	cmp	r5, r6
    3e44:	d014      	beq.n	3e70 <TEE_BigIntNeg+0x40>
/mnt/disk/raspbian-tee/optee_os/lib/libutee/tee_api_arith_mpi.c:431
    3e46:	ad03      	add	r5, sp, #12
    3e48:	4631      	mov	r1, r6
    3e4a:	4628      	mov	r0, r5
    3e4c:	f7ff faf6 	bl	343c <get_const_mpi>
/mnt/disk/raspbian-tee/optee_os/lib/libutee/tee_api_arith_mpi.c:433
    3e50:	4629      	mov	r1, r5
    3e52:	4668      	mov	r0, sp
    3e54:	f000 feba 	bl	4bcc <mbedtls_mpi_copy>
    3e58:	4602      	mov	r2, r0
    3e5a:	b130      	cbz	r0, 3e6a <TEE_BigIntNeg+0x3a>
/mnt/disk/raspbian-tee/optee_os/lib/libutee/tee_api_arith_mpi.c:433 (discriminator 1)
    3e5c:	4809      	ldr	r0, [pc, #36]	; (3e84 <TEE_BigIntNeg+0x54>)
    3e5e:	f240 11b1 	movw	r1, #433	; 0x1b1
    3e62:	4478      	add	r0, pc
    3e64:	30a5      	adds	r0, #165	; 0xa5
    3e66:	f7ff fad9 	bl	341c <mpi_panic>
/mnt/disk/raspbian-tee/optee_os/lib/libutee/tee_api_arith_mpi.c:435
    3e6a:	4628      	mov	r0, r5
    3e6c:	f7ff fb1b 	bl	34a6 <put_mpi>
/mnt/disk/raspbian-tee/optee_os/lib/libutee/tee_api_arith_mpi.c:438
    3e70:	f89d 3000 	ldrb.w	r3, [sp]
/mnt/disk/raspbian-tee/optee_os/lib/libutee/tee_api_arith_mpi.c:440
    3e74:	4620      	mov	r0, r4
/mnt/disk/raspbian-tee/optee_os/lib/libutee/tee_api_arith_mpi.c:438
    3e76:	425b      	negs	r3, r3
    3e78:	f88d 3000 	strb.w	r3, [sp]
/mnt/disk/raspbian-tee/optee_os/lib/libutee/tee_api_arith_mpi.c:440
    3e7c:	f7ff fb13 	bl	34a6 <put_mpi>
/mnt/disk/raspbian-tee/optee_os/lib/libutee/tee_api_arith_mpi.c:441
    3e80:	b006      	add	sp, #24
    3e82:	bd70      	pop	{r4, r5, r6, pc}
    3e84:	00004319 	.word	0x00004319

00003e88 <TEE_BigIntMul>:
TEE_BigIntMul():
/mnt/disk/raspbian-tee/optee_os/lib/libutee/tee_api_arith_mpi.c:445
    3e88:	e92d 4ff0 	stmdb	sp!, {r4, r5, r6, r7, r8, r9, sl, fp, lr}
    3e8c:	4690      	mov	r8, r2
    3e8e:	4681      	mov	r9, r0
    3e90:	b087      	sub	sp, #28
/mnt/disk/raspbian-tee/optee_os/lib/libutee/tee_api_arith_mpi.c:446
    3e92:	4608      	mov	r0, r1
/mnt/disk/raspbian-tee/optee_os/lib/libutee/tee_api_arith_mpi.c:445
    3e94:	460f      	mov	r7, r1
/mnt/disk/raspbian-tee/optee_os/lib/libutee/tee_api_arith_mpi.c:449
    3e96:	f10d 0a0c 	add.w	sl, sp, #12
/mnt/disk/raspbian-tee/optee_os/lib/libutee/tee_api_arith_mpi.c:446
    3e9a:	f7ff ff9c 	bl	3dd6 <TEE_BigIntGetBitCount>
    3e9e:	4604      	mov	r4, r0
/mnt/disk/raspbian-tee/optee_os/lib/libutee/tee_api_arith_mpi.c:447
    3ea0:	4640      	mov	r0, r8
/mnt/disk/raspbian-tee/optee_os/lib/libutee/tee_api_arith_mpi.c:445
    3ea2:	4e1f      	ldr	r6, [pc, #124]	; (3f20 <TEE_BigIntMul+0x98>)
/mnt/disk/raspbian-tee/optee_os/lib/libutee/tee_api_arith_mpi.c:447
    3ea4:	f7ff ff97 	bl	3dd6 <TEE_BigIntGetBitCount>
/mnt/disk/raspbian-tee/optee_os/lib/libutee/tee_api_arith_mpi.c:448
    3ea8:	f104 031f 	add.w	r3, r4, #31
    3eac:	f100 041f 	add.w	r4, r0, #31
/mnt/disk/raspbian-tee/optee_os/lib/libutee/tee_api_arith_mpi.c:445
    3eb0:	447e      	add	r6, pc
/mnt/disk/raspbian-tee/optee_os/lib/libutee/tee_api_arith_mpi.c:448
    3eb2:	0964      	lsrs	r4, r4, #5
    3eb4:	eb04 1453 	add.w	r4, r4, r3, lsr #5
/mnt/disk/raspbian-tee/optee_os/lib/libutee/tee_api_arith_mpi.c:449
    3eb8:	2300      	movs	r3, #0
    3eba:	9303      	str	r3, [sp, #12]
/mnt/disk/raspbian-tee/optee_os/lib/libutee/tee_api_arith_mpi.c:448
    3ebc:	3404      	adds	r4, #4
/mnt/disk/raspbian-tee/optee_os/lib/libutee/tee_api_arith_mpi.c:449
    3ebe:	f8ca 3004 	str.w	r3, [sl, #4]
/mnt/disk/raspbian-tee/optee_os/lib/libutee/tee_api_arith_mpi.c:452
    3ec2:	00a1      	lsls	r1, r4, #2
/mnt/disk/raspbian-tee/optee_os/lib/libutee/tee_api_arith_mpi.c:449
    3ec4:	f8ca 3008 	str.w	r3, [sl, #8]
/mnt/disk/raspbian-tee/optee_os/lib/libutee/tee_api_arith_mpi.c:452
    3ec8:	4b16      	ldr	r3, [pc, #88]	; (3f24 <TEE_BigIntMul+0x9c>)
    3eca:	f856 b003 	ldr.w	fp, [r6, r3]
    3ece:	f8db 0000 	ldr.w	r0, [fp]
    3ed2:	f003 fccd 	bl	7870 <mempool_alloc>
/mnt/disk/raspbian-tee/optee_os/lib/libutee/tee_api_arith_mpi.c:453
    3ed6:	4605      	mov	r5, r0
    3ed8:	b910      	cbnz	r0, 3ee0 <TEE_BigIntMul+0x58>
/mnt/disk/raspbian-tee/optee_os/lib/libutee/tee_api_arith_mpi.c:454
    3eda:	4810      	ldr	r0, [pc, #64]	; (3f1c <TEE_BigIntMul+0x94>)
    3edc:	f003 fe0f 	bl	7afe <TEE_Panic>
/mnt/disk/raspbian-tee/optee_os/lib/libutee/tee_api_arith_mpi.c:456
    3ee0:	4621      	mov	r1, r4
    3ee2:	4628      	mov	r0, r5
    3ee4:	f7ff fd92 	bl	3a0c <TEE_BigIntInit>
/mnt/disk/raspbian-tee/optee_os/lib/libutee/tee_api_arith_mpi.c:457
    3ee8:	4650      	mov	r0, sl
    3eea:	2103      	movs	r1, #3
    3eec:	f7ff fd8e 	bl	3a0c <TEE_BigIntInit>
/mnt/disk/raspbian-tee/optee_os/lib/libutee/tee_api_arith_mpi.c:459
    3ef0:	4b0d      	ldr	r3, [pc, #52]	; (3f28 <TEE_BigIntMul+0xa0>)
    3ef2:	4642      	mov	r2, r8
    3ef4:	4639      	mov	r1, r7
    3ef6:	4628      	mov	r0, r5
    3ef8:	58f3      	ldr	r3, [r6, r3]
    3efa:	9301      	str	r3, [sp, #4]
    3efc:	f7ff fd20 	bl	3940 <bigint_binary>
/mnt/disk/raspbian-tee/optee_os/lib/libutee/tee_api_arith_mpi.c:461
    3f00:	4652      	mov	r2, sl
    3f02:	4629      	mov	r1, r5
    3f04:	4648      	mov	r0, r9
    3f06:	f7ff ff77 	bl	3df8 <TEE_BigIntAdd>
/mnt/disk/raspbian-tee/optee_os/lib/libutee/tee_api_arith_mpi.c:463
    3f0a:	4629      	mov	r1, r5
    3f0c:	f8db 0000 	ldr.w	r0, [fp]
    3f10:	f003 fcf6 	bl	7900 <mempool_free>
/mnt/disk/raspbian-tee/optee_os/lib/libutee/tee_api_arith_mpi.c:464
    3f14:	b007      	add	sp, #28
    3f16:	e8bd 8ff0 	ldmia.w	sp!, {r4, r5, r6, r7, r8, r9, sl, fp, pc}
    3f1a:	bf00      	nop
    3f1c:	ffff000c 	.word	0xffff000c
    3f20:	000055e0 	.word	0x000055e0
    3f24:	00000038 	.word	0x00000038
    3f28:	0000001c 	.word	0x0000001c

00003f2c <TEE_BigIntSquare>:
TEE_BigIntSquare():
/mnt/disk/raspbian-tee/optee_os/lib/libutee/tee_api_arith_mpi.c:468
    3f2c:	460a      	mov	r2, r1
    3f2e:	f7ff bfab 	b.w	3e88 <TEE_BigIntMul>

00003f32 <TEE_BigIntDiv>:
TEE_BigIntDiv():
/mnt/disk/raspbian-tee/optee_os/lib/libutee/tee_api_arith_mpi.c:473
    3f32:	e92d 4ff0 	stmdb	sp!, {r4, r5, r6, r7, r8, r9, sl, fp, lr}
    3f36:	4681      	mov	r9, r0
    3f38:	468b      	mov	fp, r1
    3f3a:	b08d      	sub	sp, #52	; 0x34
/mnt/disk/raspbian-tee/optee_os/lib/libutee/tee_api_arith_mpi.c:481
    3f3c:	4601      	mov	r1, r0
/mnt/disk/raspbian-tee/optee_os/lib/libutee/tee_api_arith_mpi.c:482
    3f3e:	ae03      	add	r6, sp, #12
/mnt/disk/raspbian-tee/optee_os/lib/libutee/tee_api_arith_mpi.c:481
    3f40:	4668      	mov	r0, sp
/mnt/disk/raspbian-tee/optee_os/lib/libutee/tee_api_arith_mpi.c:473
    3f42:	4690      	mov	r8, r2
    3f44:	461c      	mov	r4, r3
/mnt/disk/raspbian-tee/optee_os/lib/libutee/tee_api_arith_mpi.c:481
    3f46:	f7ff fce9 	bl	391c <get_mpi>
/mnt/disk/raspbian-tee/optee_os/lib/libutee/tee_api_arith_mpi.c:482
    3f4a:	4659      	mov	r1, fp
    3f4c:	4630      	mov	r0, r6
/mnt/disk/raspbian-tee/optee_os/lib/libutee/tee_api_arith_mpi.c:481
    3f4e:	466f      	mov	r7, sp
/mnt/disk/raspbian-tee/optee_os/lib/libutee/tee_api_arith_mpi.c:482
    3f50:	f7ff fce4 	bl	391c <get_mpi>
    3f54:	f10d 0a18 	add.w	sl, sp, #24
/mnt/disk/raspbian-tee/optee_os/lib/libutee/tee_api_arith_mpi.c:484
    3f58:	45c1      	cmp	r9, r8
    3f5a:	d022      	beq.n	3fa2 <TEE_BigIntDiv+0x70>
/mnt/disk/raspbian-tee/optee_os/lib/libutee/tee_api_arith_mpi.c:486
    3f5c:	45c3      	cmp	fp, r8
    3f5e:	d022      	beq.n	3fa6 <TEE_BigIntDiv+0x74>
/mnt/disk/raspbian-tee/optee_os/lib/libutee/tee_api_arith_mpi.c:478
    3f60:	4655      	mov	r5, sl
/mnt/disk/raspbian-tee/optee_os/lib/libutee/tee_api_arith_mpi.c:489
    3f62:	4641      	mov	r1, r8
    3f64:	4650      	mov	r0, sl
    3f66:	f7ff fa69 	bl	343c <get_const_mpi>
/mnt/disk/raspbian-tee/optee_os/lib/libutee/tee_api_arith_mpi.c:491
    3f6a:	45a1      	cmp	r9, r4
    3f6c:	f10d 0924 	add.w	r9, sp, #36	; 0x24
    3f70:	d01b      	beq.n	3faa <TEE_BigIntDiv+0x78>
/mnt/disk/raspbian-tee/optee_os/lib/libutee/tee_api_arith_mpi.c:493
    3f72:	45a3      	cmp	fp, r4
    3f74:	d01b      	beq.n	3fae <TEE_BigIntDiv+0x7c>
/mnt/disk/raspbian-tee/optee_os/lib/libutee/tee_api_arith_mpi.c:495
    3f76:	45a0      	cmp	r8, r4
    3f78:	d01b      	beq.n	3fb2 <TEE_BigIntDiv+0x80>
/mnt/disk/raspbian-tee/optee_os/lib/libutee/tee_api_arith_mpi.c:498
    3f7a:	4621      	mov	r1, r4
/mnt/disk/raspbian-tee/optee_os/lib/libutee/tee_api_arith_mpi.c:479
    3f7c:	464c      	mov	r4, r9
/mnt/disk/raspbian-tee/optee_os/lib/libutee/tee_api_arith_mpi.c:498
    3f7e:	4648      	mov	r0, r9
    3f80:	f7ff fa5c 	bl	343c <get_const_mpi>
/mnt/disk/raspbian-tee/optee_os/lib/libutee/tee_api_arith_mpi.c:500
    3f84:	462a      	mov	r2, r5
    3f86:	4623      	mov	r3, r4
    3f88:	4631      	mov	r1, r6
    3f8a:	4638      	mov	r0, r7
    3f8c:	f001 fb0e 	bl	55ac <mbedtls_mpi_div_mpi>
    3f90:	4602      	mov	r2, r0
    3f92:	b180      	cbz	r0, 3fb6 <TEE_BigIntDiv+0x84>
/mnt/disk/raspbian-tee/optee_os/lib/libutee/tee_api_arith_mpi.c:500 (discriminator 1)
    3f94:	4811      	ldr	r0, [pc, #68]	; (3fdc <TEE_BigIntDiv+0xaa>)
    3f96:	f44f 71fa 	mov.w	r1, #500	; 0x1f4
    3f9a:	4478      	add	r0, pc
    3f9c:	30b3      	adds	r0, #179	; 0xb3
    3f9e:	f7ff fa3d 	bl	341c <mpi_panic>
/mnt/disk/raspbian-tee/optee_os/lib/libutee/tee_api_arith_mpi.c:485
    3fa2:	466d      	mov	r5, sp
    3fa4:	e7e1      	b.n	3f6a <TEE_BigIntDiv+0x38>
/mnt/disk/raspbian-tee/optee_os/lib/libutee/tee_api_arith_mpi.c:487
    3fa6:	4635      	mov	r5, r6
    3fa8:	e7df      	b.n	3f6a <TEE_BigIntDiv+0x38>
/mnt/disk/raspbian-tee/optee_os/lib/libutee/tee_api_arith_mpi.c:492
    3faa:	463c      	mov	r4, r7
    3fac:	e7ea      	b.n	3f84 <TEE_BigIntDiv+0x52>
/mnt/disk/raspbian-tee/optee_os/lib/libutee/tee_api_arith_mpi.c:494
    3fae:	4634      	mov	r4, r6
    3fb0:	e7e8      	b.n	3f84 <TEE_BigIntDiv+0x52>
/mnt/disk/raspbian-tee/optee_os/lib/libutee/tee_api_arith_mpi.c:496
    3fb2:	462c      	mov	r4, r5
    3fb4:	e7e6      	b.n	3f84 <TEE_BigIntDiv+0x52>
/mnt/disk/raspbian-tee/optee_os/lib/libutee/tee_api_arith_mpi.c:502
    3fb6:	4638      	mov	r0, r7
    3fb8:	f7ff fa75 	bl	34a6 <put_mpi>
/mnt/disk/raspbian-tee/optee_os/lib/libutee/tee_api_arith_mpi.c:503
    3fbc:	4630      	mov	r0, r6
    3fbe:	f7ff fa72 	bl	34a6 <put_mpi>
/mnt/disk/raspbian-tee/optee_os/lib/libutee/tee_api_arith_mpi.c:504
    3fc2:	4555      	cmp	r5, sl
    3fc4:	d102      	bne.n	3fcc <TEE_BigIntDiv+0x9a>
/mnt/disk/raspbian-tee/optee_os/lib/libutee/tee_api_arith_mpi.c:505
    3fc6:	4628      	mov	r0, r5
    3fc8:	f7ff fa6d 	bl	34a6 <put_mpi>
/mnt/disk/raspbian-tee/optee_os/lib/libutee/tee_api_arith_mpi.c:506
    3fcc:	454c      	cmp	r4, r9
    3fce:	d102      	bne.n	3fd6 <TEE_BigIntDiv+0xa4>
/mnt/disk/raspbian-tee/optee_os/lib/libutee/tee_api_arith_mpi.c:507
    3fd0:	4620      	mov	r0, r4
    3fd2:	f7ff fa68 	bl	34a6 <put_mpi>
/mnt/disk/raspbian-tee/optee_os/lib/libutee/tee_api_arith_mpi.c:508
    3fd6:	b00d      	add	sp, #52	; 0x34
    3fd8:	e8bd 8ff0 	ldmia.w	sp!, {r4, r5, r6, r7, r8, r9, sl, fp, pc}
    3fdc:	000041e1 	.word	0x000041e1

00003fe0 <TEE_BigIntMod>:
TEE_BigIntMod():
/mnt/disk/raspbian-tee/optee_os/lib/libutee/tee_api_arith_mpi.c:511
    3fe0:	b5f7      	push	{r0, r1, r2, r4, r5, r6, r7, lr}
    3fe2:	4606      	mov	r6, r0
    3fe4:	4d0e      	ldr	r5, [pc, #56]	; (4020 <TEE_BigIntMod+0x40>)
    3fe6:	460f      	mov	r7, r1
/mnt/disk/raspbian-tee/optee_os/lib/libutee/tee_api_arith_mpi.c:512
    3fe8:	4610      	mov	r0, r2
    3fea:	2102      	movs	r1, #2
/mnt/disk/raspbian-tee/optee_os/lib/libutee/tee_api_arith_mpi.c:511
    3fec:	4614      	mov	r4, r2
    3fee:	447d      	add	r5, pc
/mnt/disk/raspbian-tee/optee_os/lib/libutee/tee_api_arith_mpi.c:512
    3ff0:	f7ff fdda 	bl	3ba8 <TEE_BigIntCmpS32>
    3ff4:	2800      	cmp	r0, #0
    3ff6:	da08      	bge.n	400a <TEE_BigIntMod+0x2a>
/mnt/disk/raspbian-tee/optee_os/lib/libutee/tee_api_arith_mpi.c:513
    3ff8:	480a      	ldr	r0, [pc, #40]	; (4024 <TEE_BigIntMod+0x44>)
    3ffa:	f240 2101 	movw	r1, #513	; 0x201
    3ffe:	4a0a      	ldr	r2, [pc, #40]	; (4028 <TEE_BigIntMod+0x48>)
    4000:	4478      	add	r0, pc
    4002:	447a      	add	r2, pc
    4004:	30c1      	adds	r0, #193	; 0xc1
    4006:	f000 fa13 	bl	4430 <api_panic>
/mnt/disk/raspbian-tee/optee_os/lib/libutee/tee_api_arith_mpi.c:515
    400a:	4b08      	ldr	r3, [pc, #32]	; (402c <TEE_BigIntMod+0x4c>)
    400c:	4622      	mov	r2, r4
    400e:	4639      	mov	r1, r7
    4010:	4630      	mov	r0, r6
    4012:	58eb      	ldr	r3, [r5, r3]
    4014:	9301      	str	r3, [sp, #4]
/mnt/disk/raspbian-tee/optee_os/lib/libutee/tee_api_arith_mpi.c:516
    4016:	b003      	add	sp, #12
    4018:	e8bd 40f0 	ldmia.w	sp!, {r4, r5, r6, r7, lr}
/mnt/disk/raspbian-tee/optee_os/lib/libutee/tee_api_arith_mpi.c:515
    401c:	e490      	b.n	3940 <bigint_binary>
    401e:	bf00      	nop
    4020:	000054a2 	.word	0x000054a2
    4024:	0000417b 	.word	0x0000417b
    4028:	00004333 	.word	0x00004333
    402c:	00000030 	.word	0x00000030

00004030 <TEE_BigIntAddMod>:
TEE_BigIntAddMod():
/mnt/disk/raspbian-tee/optee_os/lib/libutee/tee_api_arith_mpi.c:520
    4030:	b537      	push	{r0, r1, r2, r4, r5, lr}
    4032:	4c04      	ldr	r4, [pc, #16]	; (4044 <TEE_BigIntAddMod+0x14>)
/mnt/disk/raspbian-tee/optee_os/lib/libutee/tee_api_arith_mpi.c:521
    4034:	4d04      	ldr	r5, [pc, #16]	; (4048 <TEE_BigIntAddMod+0x18>)
/mnt/disk/raspbian-tee/optee_os/lib/libutee/tee_api_arith_mpi.c:520
    4036:	447c      	add	r4, pc
/mnt/disk/raspbian-tee/optee_os/lib/libutee/tee_api_arith_mpi.c:521
    4038:	5964      	ldr	r4, [r4, r5]
    403a:	9400      	str	r4, [sp, #0]
    403c:	f7ff fdc7 	bl	3bce <bigint_binary_mod>
/mnt/disk/raspbian-tee/optee_os/lib/libutee/tee_api_arith_mpi.c:522
    4040:	b003      	add	sp, #12
    4042:	bd30      	pop	{r4, r5, pc}
    4044:	0000545a 	.word	0x0000545a
    4048:	00000020 	.word	0x00000020

0000404c <TEE_BigIntSubMod>:
TEE_BigIntSubMod():
/mnt/disk/raspbian-tee/optee_os/lib/libutee/tee_api_arith_mpi.c:526
    404c:	b537      	push	{r0, r1, r2, r4, r5, lr}
    404e:	4c04      	ldr	r4, [pc, #16]	; (4060 <TEE_BigIntSubMod+0x14>)
/mnt/disk/raspbian-tee/optee_os/lib/libutee/tee_api_arith_mpi.c:527
    4050:	4d04      	ldr	r5, [pc, #16]	; (4064 <TEE_BigIntSubMod+0x18>)
/mnt/disk/raspbian-tee/optee_os/lib/libutee/tee_api_arith_mpi.c:526
    4052:	447c      	add	r4, pc
/mnt/disk/raspbian-tee/optee_os/lib/libutee/tee_api_arith_mpi.c:527
    4054:	5964      	ldr	r4, [r4, r5]
    4056:	9400      	str	r4, [sp, #0]
    4058:	f7ff fdb9 	bl	3bce <bigint_binary_mod>
/mnt/disk/raspbian-tee/optee_os/lib/libutee/tee_api_arith_mpi.c:528
    405c:	b003      	add	sp, #12
    405e:	bd30      	pop	{r4, r5, pc}
    4060:	0000543e 	.word	0x0000543e
    4064:	00000028 	.word	0x00000028

00004068 <TEE_BigIntMulMod>:
TEE_BigIntMulMod():
/mnt/disk/raspbian-tee/optee_os/lib/libutee/tee_api_arith_mpi.c:532
    4068:	b537      	push	{r0, r1, r2, r4, r5, lr}
    406a:	4c04      	ldr	r4, [pc, #16]	; (407c <TEE_BigIntMulMod+0x14>)
/mnt/disk/raspbian-tee/optee_os/lib/libutee/tee_api_arith_mpi.c:533
    406c:	4d04      	ldr	r5, [pc, #16]	; (4080 <TEE_BigIntMulMod+0x18>)
/mnt/disk/raspbian-tee/optee_os/lib/libutee/tee_api_arith_mpi.c:532
    406e:	447c      	add	r4, pc
/mnt/disk/raspbian-tee/optee_os/lib/libutee/tee_api_arith_mpi.c:533
    4070:	5964      	ldr	r4, [r4, r5]
    4072:	9400      	str	r4, [sp, #0]
    4074:	f7ff fdab 	bl	3bce <bigint_binary_mod>
/mnt/disk/raspbian-tee/optee_os/lib/libutee/tee_api_arith_mpi.c:534
    4078:	b003      	add	sp, #12
    407a:	bd30      	pop	{r4, r5, pc}
    407c:	00005422 	.word	0x00005422
    4080:	0000001c 	.word	0x0000001c

00004084 <TEE_BigIntSquareMod>:
TEE_BigIntSquareMod():
/mnt/disk/raspbian-tee/optee_os/lib/libutee/tee_api_arith_mpi.c:539
    4084:	4613      	mov	r3, r2
    4086:	460a      	mov	r2, r1
    4088:	f7ff bfee 	b.w	4068 <TEE_BigIntMulMod>

0000408c <TEE_BigIntInvMod>:
TEE_BigIntInvMod():
/mnt/disk/raspbian-tee/optee_os/lib/libutee/tee_api_arith_mpi.c:544
    408c:	e92d 41f0 	stmdb	sp!, {r4, r5, r6, r7, r8, lr}
    4090:	4606      	mov	r6, r0
    4092:	460c      	mov	r4, r1
    4094:	b08a      	sub	sp, #40	; 0x28
/mnt/disk/raspbian-tee/optee_os/lib/libutee/tee_api_arith_mpi.c:545
    4096:	2102      	movs	r1, #2
    4098:	4610      	mov	r0, r2
/mnt/disk/raspbian-tee/optee_os/lib/libutee/tee_api_arith_mpi.c:544
    409a:	4690      	mov	r8, r2
/mnt/disk/raspbian-tee/optee_os/lib/libutee/tee_api_arith_mpi.c:545
    409c:	f7ff fd84 	bl	3ba8 <TEE_BigIntCmpS32>
    40a0:	2800      	cmp	r0, #0
    40a2:	da08      	bge.n	40b6 <TEE_BigIntInvMod+0x2a>
/mnt/disk/raspbian-tee/optee_os/lib/libutee/tee_api_arith_mpi.c:546
    40a4:	481f      	ldr	r0, [pc, #124]	; (4124 <TEE_BigIntInvMod+0x98>)
    40a6:	f240 2122 	movw	r1, #546	; 0x222
    40aa:	4a1f      	ldr	r2, [pc, #124]	; (4128 <TEE_BigIntInvMod+0x9c>)
    40ac:	4478      	add	r0, pc
    40ae:	447a      	add	r2, pc
    40b0:	30cf      	adds	r0, #207	; 0xcf
    40b2:	f000 f9bd 	bl	4430 <api_panic>
/mnt/disk/raspbian-tee/optee_os/lib/libutee/tee_api_arith_mpi.c:545 (discriminator 1)
    40b6:	2100      	movs	r1, #0
    40b8:	4620      	mov	r0, r4
    40ba:	f7ff fd75 	bl	3ba8 <TEE_BigIntCmpS32>
    40be:	2800      	cmp	r0, #0
    40c0:	d0f0      	beq.n	40a4 <TEE_BigIntInvMod+0x18>
/mnt/disk/raspbian-tee/optee_os/lib/libutee/tee_api_arith_mpi.c:553
    40c2:	ad01      	add	r5, sp, #4
    40c4:	4631      	mov	r1, r6
    40c6:	4628      	mov	r0, r5
/mnt/disk/raspbian-tee/optee_os/lib/libutee/tee_api_arith_mpi.c:554
    40c8:	af07      	add	r7, sp, #28
/mnt/disk/raspbian-tee/optee_os/lib/libutee/tee_api_arith_mpi.c:553
    40ca:	f7ff fc27 	bl	391c <get_mpi>
/mnt/disk/raspbian-tee/optee_os/lib/libutee/tee_api_arith_mpi.c:554
    40ce:	4641      	mov	r1, r8
    40d0:	4638      	mov	r0, r7
    40d2:	f7ff f9b3 	bl	343c <get_const_mpi>
/mnt/disk/raspbian-tee/optee_os/lib/libutee/tee_api_arith_mpi.c:556
    40d6:	42b4      	cmp	r4, r6
    40d8:	ae04      	add	r6, sp, #16
    40da:	d012      	beq.n	4102 <TEE_BigIntInvMod+0x76>
/mnt/disk/raspbian-tee/optee_os/lib/libutee/tee_api_arith_mpi.c:559
    40dc:	4621      	mov	r1, r4
/mnt/disk/raspbian-tee/optee_os/lib/libutee/tee_api_arith_mpi.c:551
    40de:	4634      	mov	r4, r6
/mnt/disk/raspbian-tee/optee_os/lib/libutee/tee_api_arith_mpi.c:559
    40e0:	4630      	mov	r0, r6
    40e2:	f7ff f9ab 	bl	343c <get_const_mpi>
/mnt/disk/raspbian-tee/optee_os/lib/libutee/tee_api_arith_mpi.c:561
    40e6:	463a      	mov	r2, r7
    40e8:	4621      	mov	r1, r4
    40ea:	4628      	mov	r0, r5
    40ec:	f002 f9e9 	bl	64c2 <mbedtls_mpi_inv_mod>
    40f0:	4602      	mov	r2, r0
    40f2:	b140      	cbz	r0, 4106 <TEE_BigIntInvMod+0x7a>
/mnt/disk/raspbian-tee/optee_os/lib/libutee/tee_api_arith_mpi.c:561 (discriminator 1)
    40f4:	480d      	ldr	r0, [pc, #52]	; (412c <TEE_BigIntInvMod+0xa0>)
    40f6:	f240 2131 	movw	r1, #561	; 0x231
    40fa:	4478      	add	r0, pc
    40fc:	30cf      	adds	r0, #207	; 0xcf
    40fe:	f7ff f98d 	bl	341c <mpi_panic>
/mnt/disk/raspbian-tee/optee_os/lib/libutee/tee_api_arith_mpi.c:557
    4102:	462c      	mov	r4, r5
    4104:	e7ef      	b.n	40e6 <TEE_BigIntInvMod+0x5a>
/mnt/disk/raspbian-tee/optee_os/lib/libutee/tee_api_arith_mpi.c:563
    4106:	4628      	mov	r0, r5
    4108:	f7ff f9cd 	bl	34a6 <put_mpi>
/mnt/disk/raspbian-tee/optee_os/lib/libutee/tee_api_arith_mpi.c:564
    410c:	4638      	mov	r0, r7
    410e:	f7ff f9ca 	bl	34a6 <put_mpi>
/mnt/disk/raspbian-tee/optee_os/lib/libutee/tee_api_arith_mpi.c:565
    4112:	42b4      	cmp	r4, r6
    4114:	d102      	bne.n	411c <TEE_BigIntInvMod+0x90>
/mnt/disk/raspbian-tee/optee_os/lib/libutee/tee_api_arith_mpi.c:566
    4116:	4620      	mov	r0, r4
    4118:	f7ff f9c5 	bl	34a6 <put_mpi>
/mnt/disk/raspbian-tee/optee_os/lib/libutee/tee_api_arith_mpi.c:567
    411c:	b00a      	add	sp, #40	; 0x28
    411e:	e8bd 81f0 	ldmia.w	sp!, {r4, r5, r6, r7, r8, pc}
    4122:	bf00      	nop
    4124:	000040cf 	.word	0x000040cf
    4128:	0000429c 	.word	0x0000429c
    412c:	00004081 	.word	0x00004081

00004130 <TEE_BigIntRelativePrime>:
TEE_BigIntRelativePrime():
/mnt/disk/raspbian-tee/optee_os/lib/libutee/tee_api_arith_mpi.c:570
    4130:	e92d 41f0 	stmdb	sp!, {r4, r5, r6, r7, r8, lr}
    4134:	4604      	mov	r4, r0
    4136:	460e      	mov	r6, r1
    4138:	b08a      	sub	sp, #40	; 0x28
/mnt/disk/raspbian-tee/optee_os/lib/libutee/tee_api_arith_mpi.c:577
    413a:	4601      	mov	r1, r0
    413c:	ad01      	add	r5, sp, #4
    413e:	4628      	mov	r0, r5
    4140:	f7ff f97c 	bl	343c <get_const_mpi>
/mnt/disk/raspbian-tee/optee_os/lib/libutee/tee_api_arith_mpi.c:579
    4144:	42b4      	cmp	r4, r6
    4146:	ac04      	add	r4, sp, #16
    4148:	d016      	beq.n	4178 <TEE_BigIntRelativePrime+0x48>
/mnt/disk/raspbian-tee/optee_os/lib/libutee/tee_api_arith_mpi.c:574
    414a:	46a0      	mov	r8, r4
/mnt/disk/raspbian-tee/optee_os/lib/libutee/tee_api_arith_mpi.c:582
    414c:	4631      	mov	r1, r6
    414e:	4620      	mov	r0, r4
    4150:	f7ff f974 	bl	343c <get_const_mpi>
get_mpi():
/mnt/disk/raspbian-tee/optee_os/lib/libutee/tee_api_arith_mpi.c:99
    4154:	ae07      	add	r6, sp, #28
    4156:	4630      	mov	r0, r6
    4158:	f000 fc3b 	bl	49d2 <mbedtls_mpi_init_mempool>
TEE_BigIntRelativePrime():
/mnt/disk/raspbian-tee/optee_os/lib/libutee/tee_api_arith_mpi.c:586
    415c:	4622      	mov	r2, r4
    415e:	4629      	mov	r1, r5
    4160:	4630      	mov	r0, r6
    4162:	f002 f800 	bl	6166 <mbedtls_mpi_gcd>
    4166:	4602      	mov	r2, r0
    4168:	b140      	cbz	r0, 417c <TEE_BigIntRelativePrime+0x4c>
/mnt/disk/raspbian-tee/optee_os/lib/libutee/tee_api_arith_mpi.c:586 (discriminator 1)
    416a:	480f      	ldr	r0, [pc, #60]	; (41a8 <TEE_BigIntRelativePrime+0x78>)
    416c:	f240 214a 	movw	r1, #586	; 0x24a
    4170:	4478      	add	r0, pc
    4172:	30e0      	adds	r0, #224	; 0xe0
    4174:	f7ff f952 	bl	341c <mpi_panic>
/mnt/disk/raspbian-tee/optee_os/lib/libutee/tee_api_arith_mpi.c:580
    4178:	46a8      	mov	r8, r5
    417a:	e7eb      	b.n	4154 <TEE_BigIntRelativePrime+0x24>
/mnt/disk/raspbian-tee/optee_os/lib/libutee/tee_api_arith_mpi.c:588
    417c:	2101      	movs	r1, #1
    417e:	4630      	mov	r0, r6
    4180:	f000 ffd1 	bl	5126 <mbedtls_mpi_cmp_int>
    4184:	fab0 f780 	clz	r7, r0
/mnt/disk/raspbian-tee/optee_os/lib/libutee/tee_api_arith_mpi.c:590
    4188:	4630      	mov	r0, r6
/mnt/disk/raspbian-tee/optee_os/lib/libutee/tee_api_arith_mpi.c:588
    418a:	097f      	lsrs	r7, r7, #5
/mnt/disk/raspbian-tee/optee_os/lib/libutee/tee_api_arith_mpi.c:590
    418c:	f7ff f98b 	bl	34a6 <put_mpi>
/mnt/disk/raspbian-tee/optee_os/lib/libutee/tee_api_arith_mpi.c:591
    4190:	4628      	mov	r0, r5
    4192:	f7ff f988 	bl	34a6 <put_mpi>
/mnt/disk/raspbian-tee/optee_os/lib/libutee/tee_api_arith_mpi.c:592
    4196:	45a0      	cmp	r8, r4
    4198:	d102      	bne.n	41a0 <TEE_BigIntRelativePrime+0x70>
/mnt/disk/raspbian-tee/optee_os/lib/libutee/tee_api_arith_mpi.c:593
    419a:	4640      	mov	r0, r8
    419c:	f7ff f983 	bl	34a6 <put_mpi>
/mnt/disk/raspbian-tee/optee_os/lib/libutee/tee_api_arith_mpi.c:596
    41a0:	4638      	mov	r0, r7
    41a2:	b00a      	add	sp, #40	; 0x28
    41a4:	e8bd 81f0 	ldmia.w	sp!, {r4, r5, r6, r7, r8, pc}
    41a8:	0000400b 	.word	0x0000400b

000041ac <TEE_BigIntComputeExtendedGcd>:
TEE_BigIntComputeExtendedGcd():
/mnt/disk/raspbian-tee/optee_os/lib/libutee/tee_api_arith_mpi.c:707
    41ac:	e92d 4ff0 	stmdb	sp!, {r4, r5, r6, r7, r8, r9, sl, fp, lr}
    41b0:	4699      	mov	r9, r3
    41b2:	4680      	mov	r8, r0
    41b4:	b095      	sub	sp, #84	; 0x54
    41b6:	460f      	mov	r7, r1
/mnt/disk/raspbian-tee/optee_os/lib/libutee/tee_api_arith_mpi.c:713
    41b8:	ae05      	add	r6, sp, #20
    41ba:	4601      	mov	r1, r0
/mnt/disk/raspbian-tee/optee_os/lib/libutee/tee_api_arith_mpi.c:714
    41bc:	ad08      	add	r5, sp, #32
/mnt/disk/raspbian-tee/optee_os/lib/libutee/tee_api_arith_mpi.c:713
    41be:	4630      	mov	r0, r6
/mnt/disk/raspbian-tee/optee_os/lib/libutee/tee_api_arith_mpi.c:707
    41c0:	9c1e      	ldr	r4, [sp, #120]	; 0x78
    41c2:	4692      	mov	sl, r2
/mnt/disk/raspbian-tee/optee_os/lib/libutee/tee_api_arith_mpi.c:713
    41c4:	f7ff fbaa 	bl	391c <get_mpi>
/mnt/disk/raspbian-tee/optee_os/lib/libutee/tee_api_arith_mpi.c:714
    41c8:	4649      	mov	r1, r9
    41ca:	4628      	mov	r0, r5
    41cc:	f7ff f936 	bl	343c <get_const_mpi>
/mnt/disk/raspbian-tee/optee_os/lib/libutee/tee_api_arith_mpi.c:716
    41d0:	45a1      	cmp	r9, r4
    41d2:	f10d 092c 	add.w	r9, sp, #44	; 0x2c
    41d6:	d01a      	beq.n	420e <TEE_BigIntComputeExtendedGcd+0x62>
/mnt/disk/raspbian-tee/optee_os/lib/libutee/tee_api_arith_mpi.c:719
    41d8:	4621      	mov	r1, r4
/mnt/disk/raspbian-tee/optee_os/lib/libutee/tee_api_arith_mpi.c:711
    41da:	464c      	mov	r4, r9
/mnt/disk/raspbian-tee/optee_os/lib/libutee/tee_api_arith_mpi.c:719
    41dc:	4648      	mov	r0, r9
    41de:	f7ff f92d 	bl	343c <get_const_mpi>
/mnt/disk/raspbian-tee/optee_os/lib/libutee/tee_api_arith_mpi.c:721
    41e2:	b9b7      	cbnz	r7, 4212 <TEE_BigIntComputeExtendedGcd+0x66>
/mnt/disk/raspbian-tee/optee_os/lib/libutee/tee_api_arith_mpi.c:721 (discriminator 1)
    41e4:	f1ba 0f00 	cmp.w	sl, #0
    41e8:	d113      	bne.n	4212 <TEE_BigIntComputeExtendedGcd+0x66>
/mnt/disk/raspbian-tee/optee_os/lib/libutee/tee_api_arith_mpi.c:722
    41ea:	f1b8 0f00 	cmp.w	r8, #0
    41ee:	d06c      	beq.n	42ca <TEE_BigIntComputeExtendedGcd+0x11e>
/mnt/disk/raspbian-tee/optee_os/lib/libutee/tee_api_arith_mpi.c:723
    41f0:	4622      	mov	r2, r4
    41f2:	4629      	mov	r1, r5
    41f4:	4630      	mov	r0, r6
    41f6:	f001 ffb6 	bl	6166 <mbedtls_mpi_gcd>
    41fa:	4602      	mov	r2, r0
    41fc:	2800      	cmp	r0, #0
    41fe:	d064      	beq.n	42ca <TEE_BigIntComputeExtendedGcd+0x11e>
/mnt/disk/raspbian-tee/optee_os/lib/libutee/tee_api_arith_mpi.c:723 (discriminator 1)
    4200:	483b      	ldr	r0, [pc, #236]	; (42f0 <TEE_BigIntComputeExtendedGcd+0x144>)
    4202:	f44f 7135 	mov.w	r1, #724	; 0x2d4
    4206:	4478      	add	r0, pc
/mnt/disk/raspbian-tee/optee_os/lib/libutee/tee_api_arith_mpi.c:740 (discriminator 1)
    4208:	30f8      	adds	r0, #248	; 0xf8
    420a:	f7ff f907 	bl	341c <mpi_panic>
/mnt/disk/raspbian-tee/optee_os/lib/libutee/tee_api_arith_mpi.c:717
    420e:	462c      	mov	r4, r5
    4210:	e7e7      	b.n	41e2 <TEE_BigIntComputeExtendedGcd+0x36>
/mnt/disk/raspbian-tee/optee_os/lib/libutee/tee_api_arith_mpi.c:728
    4212:	f99d 3020 	ldrsb.w	r3, [sp, #32]
/mnt/disk/raspbian-tee/optee_os/lib/libutee/tee_api_arith_mpi.c:735
    4216:	f10d 0838 	add.w	r8, sp, #56	; 0x38
    421a:	4639      	mov	r1, r7
/mnt/disk/raspbian-tee/optee_os/lib/libutee/tee_api_arith_mpi.c:728
    421c:	9302      	str	r3, [sp, #8]
/mnt/disk/raspbian-tee/optee_os/lib/libutee/tee_api_arith_mpi.c:732
    421e:	f04f 0b01 	mov.w	fp, #1
/mnt/disk/raspbian-tee/optee_os/lib/libutee/tee_api_arith_mpi.c:729
    4222:	f994 3000 	ldrsb.w	r3, [r4]
/mnt/disk/raspbian-tee/optee_os/lib/libutee/tee_api_arith_mpi.c:735
    4226:	4640      	mov	r0, r8
/mnt/disk/raspbian-tee/optee_os/lib/libutee/tee_api_arith_mpi.c:732
    4228:	f88d b020 	strb.w	fp, [sp, #32]
/mnt/disk/raspbian-tee/optee_os/lib/libutee/tee_api_arith_mpi.c:736
    422c:	af11      	add	r7, sp, #68	; 0x44
/mnt/disk/raspbian-tee/optee_os/lib/libutee/tee_api_arith_mpi.c:733
    422e:	f884 b000 	strb.w	fp, [r4]
/mnt/disk/raspbian-tee/optee_os/lib/libutee/tee_api_arith_mpi.c:729
    4232:	9303      	str	r3, [sp, #12]
/mnt/disk/raspbian-tee/optee_os/lib/libutee/tee_api_arith_mpi.c:735
    4234:	f7ff fb72 	bl	391c <get_mpi>
/mnt/disk/raspbian-tee/optee_os/lib/libutee/tee_api_arith_mpi.c:736
    4238:	4651      	mov	r1, sl
    423a:	4638      	mov	r0, r7
    423c:	f7ff fb6e 	bl	391c <get_mpi>
/mnt/disk/raspbian-tee/optee_os/lib/libutee/tee_api_arith_mpi.c:738
    4240:	4621      	mov	r1, r4
    4242:	4628      	mov	r0, r5
    4244:	f000 feed 	bl	5022 <mbedtls_mpi_cmp_abs>
/mnt/disk/raspbian-tee/optee_os/lib/libutee/tee_api_arith_mpi.c:739
    4248:	2800      	cmp	r0, #0
    424a:	d120      	bne.n	428e <TEE_BigIntComputeExtendedGcd+0xe2>
/mnt/disk/raspbian-tee/optee_os/lib/libutee/tee_api_arith_mpi.c:740
    424c:	4629      	mov	r1, r5
    424e:	4630      	mov	r0, r6
    4250:	f000 fcbc 	bl	4bcc <mbedtls_mpi_copy>
    4254:	4602      	mov	r2, r0
    4256:	b120      	cbz	r0, 4262 <TEE_BigIntComputeExtendedGcd+0xb6>
/mnt/disk/raspbian-tee/optee_os/lib/libutee/tee_api_arith_mpi.c:740 (discriminator 1)
    4258:	4826      	ldr	r0, [pc, #152]	; (42f4 <TEE_BigIntComputeExtendedGcd+0x148>)
    425a:	f44f 7139 	mov.w	r1, #740	; 0x2e4
    425e:	4478      	add	r0, pc
    4260:	e7d2      	b.n	4208 <TEE_BigIntComputeExtendedGcd+0x5c>
/mnt/disk/raspbian-tee/optee_os/lib/libutee/tee_api_arith_mpi.c:741
    4262:	4659      	mov	r1, fp
    4264:	4640      	mov	r0, r8
    4266:	f000 fd6c 	bl	4d42 <mbedtls_mpi_lset>
    426a:	4602      	mov	r2, r0
    426c:	b120      	cbz	r0, 4278 <TEE_BigIntComputeExtendedGcd+0xcc>
/mnt/disk/raspbian-tee/optee_os/lib/libutee/tee_api_arith_mpi.c:741 (discriminator 1)
    426e:	4822      	ldr	r0, [pc, #136]	; (42f8 <TEE_BigIntComputeExtendedGcd+0x14c>)
    4270:	f240 21e5 	movw	r1, #741	; 0x2e5
    4274:	4478      	add	r0, pc
    4276:	e7c7      	b.n	4208 <TEE_BigIntComputeExtendedGcd+0x5c>
/mnt/disk/raspbian-tee/optee_os/lib/libutee/tee_api_arith_mpi.c:742
    4278:	4601      	mov	r1, r0
    427a:	4638      	mov	r0, r7
    427c:	f000 fd61 	bl	4d42 <mbedtls_mpi_lset>
    4280:	4602      	mov	r2, r0
    4282:	b160      	cbz	r0, 429e <TEE_BigIntComputeExtendedGcd+0xf2>
/mnt/disk/raspbian-tee/optee_os/lib/libutee/tee_api_arith_mpi.c:742 (discriminator 1)
    4284:	481d      	ldr	r0, [pc, #116]	; (42fc <TEE_BigIntComputeExtendedGcd+0x150>)
    4286:	f240 21e6 	movw	r1, #742	; 0x2e6
    428a:	4478      	add	r0, pc
    428c:	e7bc      	b.n	4208 <TEE_BigIntComputeExtendedGcd+0x5c>
/mnt/disk/raspbian-tee/optee_os/lib/libutee/tee_api_arith_mpi.c:743
    428e:	dd2a      	ble.n	42e6 <TEE_BigIntComputeExtendedGcd+0x13a>
/mnt/disk/raspbian-tee/optee_os/lib/libutee/tee_api_arith_mpi.c:744
    4290:	462b      	mov	r3, r5
    4292:	463a      	mov	r2, r7
    4294:	4641      	mov	r1, r8
    4296:	9400      	str	r4, [sp, #0]
/mnt/disk/raspbian-tee/optee_os/lib/libutee/tee_api_arith_mpi.c:746
    4298:	4630      	mov	r0, r6
    429a:	f7ff f912 	bl	34c2 <mpi_egcd>
/mnt/disk/raspbian-tee/optee_os/lib/libutee/tee_api_arith_mpi.c:749 (discriminator 1)
    429e:	f89d 3038 	ldrb.w	r3, [sp, #56]	; 0x38
/mnt/disk/raspbian-tee/optee_os/lib/libutee/tee_api_arith_mpi.c:752 (discriminator 1)
    42a2:	4640      	mov	r0, r8
/mnt/disk/raspbian-tee/optee_os/lib/libutee/tee_api_arith_mpi.c:749 (discriminator 1)
    42a4:	f8bd 2008 	ldrh.w	r2, [sp, #8]
    42a8:	fb13 fb02 	smulbb	fp, r3, r2
/mnt/disk/raspbian-tee/optee_os/lib/libutee/tee_api_arith_mpi.c:750 (discriminator 1)
    42ac:	f89d 3044 	ldrb.w	r3, [sp, #68]	; 0x44
    42b0:	f8bd 200c 	ldrh.w	r2, [sp, #12]
/mnt/disk/raspbian-tee/optee_os/lib/libutee/tee_api_arith_mpi.c:749 (discriminator 1)
    42b4:	f88d b038 	strb.w	fp, [sp, #56]	; 0x38
/mnt/disk/raspbian-tee/optee_os/lib/libutee/tee_api_arith_mpi.c:750 (discriminator 1)
    42b8:	fb13 f302 	smulbb	r3, r3, r2
    42bc:	f88d 3044 	strb.w	r3, [sp, #68]	; 0x44
/mnt/disk/raspbian-tee/optee_os/lib/libutee/tee_api_arith_mpi.c:752 (discriminator 1)
    42c0:	f7ff f8f1 	bl	34a6 <put_mpi>
/mnt/disk/raspbian-tee/optee_os/lib/libutee/tee_api_arith_mpi.c:753 (discriminator 1)
    42c4:	4638      	mov	r0, r7
    42c6:	f7ff f8ee 	bl	34a6 <put_mpi>
/mnt/disk/raspbian-tee/optee_os/lib/libutee/tee_api_arith_mpi.c:756
    42ca:	4630      	mov	r0, r6
    42cc:	f7ff f8eb 	bl	34a6 <put_mpi>
/mnt/disk/raspbian-tee/optee_os/lib/libutee/tee_api_arith_mpi.c:757
    42d0:	4628      	mov	r0, r5
    42d2:	f7ff f8e8 	bl	34a6 <put_mpi>
/mnt/disk/raspbian-tee/optee_os/lib/libutee/tee_api_arith_mpi.c:758
    42d6:	454c      	cmp	r4, r9
    42d8:	d102      	bne.n	42e0 <TEE_BigIntComputeExtendedGcd+0x134>
/mnt/disk/raspbian-tee/optee_os/lib/libutee/tee_api_arith_mpi.c:759
    42da:	4620      	mov	r0, r4
    42dc:	f7ff f8e3 	bl	34a6 <put_mpi>
/mnt/disk/raspbian-tee/optee_os/lib/libutee/tee_api_arith_mpi.c:760
    42e0:	b015      	add	sp, #84	; 0x54
    42e2:	e8bd 8ff0 	ldmia.w	sp!, {r4, r5, r6, r7, r8, r9, sl, fp, pc}
/mnt/disk/raspbian-tee/optee_os/lib/libutee/tee_api_arith_mpi.c:746
    42e6:	9500      	str	r5, [sp, #0]
    42e8:	4623      	mov	r3, r4
    42ea:	4642      	mov	r2, r8
    42ec:	4639      	mov	r1, r7
    42ee:	e7d3      	b.n	4298 <TEE_BigIntComputeExtendedGcd+0xec>
    42f0:	00003f75 	.word	0x00003f75
    42f4:	00003f1d 	.word	0x00003f1d
    42f8:	00003f07 	.word	0x00003f07
    42fc:	00003ef1 	.word	0x00003ef1

00004300 <TEE_BigIntIsProbablePrime>:
TEE_BigIntIsProbablePrime():
/mnt/disk/raspbian-tee/optee_os/lib/libutee/tee_api_arith_mpi.c:771
    4300:	b530      	push	{r4, r5, lr}
/mnt/disk/raspbian-tee/optee_os/lib/libutee/tee_api_arith_mpi.c:775
    4302:	4601      	mov	r1, r0
/mnt/disk/raspbian-tee/optee_os/lib/libutee/tee_api_arith_mpi.c:771
    4304:	b085      	sub	sp, #20
/mnt/disk/raspbian-tee/optee_os/lib/libutee/tee_api_arith_mpi.c:775
    4306:	ac01      	add	r4, sp, #4
    4308:	4620      	mov	r0, r4
    430a:	f7ff f897 	bl	343c <get_const_mpi>
/mnt/disk/raspbian-tee/optee_os/lib/libutee/tee_api_arith_mpi.c:777
    430e:	4907      	ldr	r1, [pc, #28]	; (432c <TEE_BigIntIsProbablePrime+0x2c>)
    4310:	2200      	movs	r2, #0
    4312:	4620      	mov	r0, r4
    4314:	4479      	add	r1, pc
    4316:	f002 fa3c 	bl	6792 <mbedtls_mpi_is_prime>
    431a:	4605      	mov	r5, r0
/mnt/disk/raspbian-tee/optee_os/lib/libutee/tee_api_arith_mpi.c:779
    431c:	4620      	mov	r0, r4
    431e:	f7ff f8c2 	bl	34a6 <put_mpi>
/mnt/disk/raspbian-tee/optee_os/lib/libutee/tee_api_arith_mpi.c:785
    4322:	fab5 f085 	clz	r0, r5
    4326:	0940      	lsrs	r0, r0, #5
    4328:	b005      	add	sp, #20
    432a:	bd30      	pop	{r4, r5, pc}
    432c:	fffff179 	.word	0xfffff179

00004330 <TEE_BigIntInitFMM>:
TEE_BigIntInitFMM():
/mnt/disk/raspbian-tee/optee_os/lib/libutee/tee_api_arith_mpi.c:797
    4330:	f7ff bb6c 	b.w	3a0c <TEE_BigIntInit>

00004334 <TEE_BigIntInitFMMContext>:
TEE_BigIntInitFMMContext():
/mnt/disk/raspbian-tee/optee_os/lib/libutee/tee_api_arith_mpi.c:803
    4334:	4770      	bx	lr

00004336 <TEE_BigIntFMMSizeInU32>:
TEE_BigIntFMMSizeInU32():
/mnt/disk/raspbian-tee/optee_os/lib/libutee/tee_api_arith_mpi.c:808
    4336:	301f      	adds	r0, #31
    4338:	0940      	lsrs	r0, r0, #5
/mnt/disk/raspbian-tee/optee_os/lib/libutee/tee_api_arith_mpi.c:809
    433a:	3002      	adds	r0, #2
    433c:	4770      	bx	lr

0000433e <TEE_BigIntFMMContextSizeInU32>:
TEE_BigIntFMMContextSizeInU32():
/mnt/disk/raspbian-tee/optee_os/lib/libutee/tee_api_arith_mpi.c:815
    433e:	2001      	movs	r0, #1
    4340:	4770      	bx	lr

00004342 <TEE_BigIntConvertToFMM>:
TEE_BigIntConvertToFMM():
/mnt/disk/raspbian-tee/optee_os/lib/libutee/tee_api_arith_mpi.c:821
    4342:	f7ff be4d 	b.w	3fe0 <TEE_BigIntMod>

00004346 <TEE_BigIntConvertFromFMM>:
TEE_BigIntConvertFromFMM():
/mnt/disk/raspbian-tee/optee_os/lib/libutee/tee_api_arith_mpi.c:827
    4346:	b570      	push	{r4, r5, r6, lr}
    4348:	460e      	mov	r6, r1
/mnt/disk/raspbian-tee/optee_os/lib/libutee/tee_api_arith_mpi.c:831
    434a:	4601      	mov	r1, r0
/mnt/disk/raspbian-tee/optee_os/lib/libutee/tee_api_arith_mpi.c:827
    434c:	b086      	sub	sp, #24
/mnt/disk/raspbian-tee/optee_os/lib/libutee/tee_api_arith_mpi.c:831
    434e:	4668      	mov	r0, sp
/mnt/disk/raspbian-tee/optee_os/lib/libutee/tee_api_arith_mpi.c:832
    4350:	ac03      	add	r4, sp, #12
/mnt/disk/raspbian-tee/optee_os/lib/libutee/tee_api_arith_mpi.c:831
    4352:	f7ff fae3 	bl	391c <get_mpi>
/mnt/disk/raspbian-tee/optee_os/lib/libutee/tee_api_arith_mpi.c:832
    4356:	4631      	mov	r1, r6
    4358:	4620      	mov	r0, r4
    435a:	f7ff f86f 	bl	343c <get_const_mpi>
/mnt/disk/raspbian-tee/optee_os/lib/libutee/tee_api_arith_mpi.c:834
    435e:	4621      	mov	r1, r4
    4360:	4668      	mov	r0, sp
    4362:	f000 fc33 	bl	4bcc <mbedtls_mpi_copy>
    4366:	4602      	mov	r2, r0
    4368:	b138      	cbz	r0, 437a <TEE_BigIntConvertFromFMM+0x34>
/mnt/disk/raspbian-tee/optee_os/lib/libutee/tee_api_arith_mpi.c:834 (discriminator 1)
    436a:	4808      	ldr	r0, [pc, #32]	; (438c <TEE_BigIntConvertFromFMM+0x46>)
    436c:	f240 3142 	movw	r1, #834	; 0x342
    4370:	4478      	add	r0, pc
    4372:	f200 1015 	addw	r0, r0, #277	; 0x115
    4376:	f7ff f851 	bl	341c <mpi_panic>
/mnt/disk/raspbian-tee/optee_os/lib/libutee/tee_api_arith_mpi.c:836
    437a:	4668      	mov	r0, sp
    437c:	f7ff f893 	bl	34a6 <put_mpi>
/mnt/disk/raspbian-tee/optee_os/lib/libutee/tee_api_arith_mpi.c:837
    4380:	4620      	mov	r0, r4
    4382:	f7ff f890 	bl	34a6 <put_mpi>
/mnt/disk/raspbian-tee/optee_os/lib/libutee/tee_api_arith_mpi.c:838
    4386:	b006      	add	sp, #24
    4388:	bd70      	pop	{r4, r5, r6, pc}
    438a:	bf00      	nop
    438c:	00003e0b 	.word	0x00003e0b

00004390 <TEE_BigIntComputeFMM>:
TEE_BigIntComputeFMM():
/mnt/disk/raspbian-tee/optee_os/lib/libutee/tee_api_arith_mpi.c:843
    4390:	e92d 41f0 	stmdb	sp!, {r4, r5, r6, r7, r8, lr}
    4394:	460f      	mov	r7, r1
/mnt/disk/raspbian-tee/optee_os/lib/libutee/tee_api_arith_mpi.c:850
    4396:	4601      	mov	r1, r0
/mnt/disk/raspbian-tee/optee_os/lib/libutee/tee_api_arith_mpi.c:843
    4398:	b090      	sub	sp, #64	; 0x40
    439a:	4690      	mov	r8, r2
/mnt/disk/raspbian-tee/optee_os/lib/libutee/tee_api_arith_mpi.c:850
    439c:	ad01      	add	r5, sp, #4
/mnt/disk/raspbian-tee/optee_os/lib/libutee/tee_api_arith_mpi.c:851
    439e:	ae04      	add	r6, sp, #16
/mnt/disk/raspbian-tee/optee_os/lib/libutee/tee_api_arith_mpi.c:850
    43a0:	4628      	mov	r0, r5
/mnt/disk/raspbian-tee/optee_os/lib/libutee/tee_api_arith_mpi.c:843
    43a2:	461c      	mov	r4, r3
/mnt/disk/raspbian-tee/optee_os/lib/libutee/tee_api_arith_mpi.c:850
    43a4:	f7ff faba 	bl	391c <get_mpi>
/mnt/disk/raspbian-tee/optee_os/lib/libutee/tee_api_arith_mpi.c:851
    43a8:	4639      	mov	r1, r7
    43aa:	4630      	mov	r0, r6
/mnt/disk/raspbian-tee/optee_os/lib/libutee/tee_api_arith_mpi.c:852
    43ac:	af07      	add	r7, sp, #28
/mnt/disk/raspbian-tee/optee_os/lib/libutee/tee_api_arith_mpi.c:851
    43ae:	f7ff f845 	bl	343c <get_const_mpi>
/mnt/disk/raspbian-tee/optee_os/lib/libutee/tee_api_arith_mpi.c:852
    43b2:	4641      	mov	r1, r8
    43b4:	4638      	mov	r0, r7
/mnt/disk/raspbian-tee/optee_os/lib/libutee/tee_api_arith_mpi.c:853
    43b6:	f10d 0828 	add.w	r8, sp, #40	; 0x28
/mnt/disk/raspbian-tee/optee_os/lib/libutee/tee_api_arith_mpi.c:852
    43ba:	f7ff f83f 	bl	343c <get_const_mpi>
/mnt/disk/raspbian-tee/optee_os/lib/libutee/tee_api_arith_mpi.c:853
    43be:	4621      	mov	r1, r4
    43c0:	4640      	mov	r0, r8
get_mpi():
/mnt/disk/raspbian-tee/optee_os/lib/libutee/tee_api_arith_mpi.c:99
    43c2:	ac0d      	add	r4, sp, #52	; 0x34
TEE_BigIntComputeFMM():
/mnt/disk/raspbian-tee/optee_os/lib/libutee/tee_api_arith_mpi.c:853
    43c4:	f7ff f83a 	bl	343c <get_const_mpi>
get_mpi():
/mnt/disk/raspbian-tee/optee_os/lib/libutee/tee_api_arith_mpi.c:99
    43c8:	4620      	mov	r0, r4
    43ca:	f000 fb02 	bl	49d2 <mbedtls_mpi_init_mempool>
TEE_BigIntComputeFMM():
/mnt/disk/raspbian-tee/optee_os/lib/libutee/tee_api_arith_mpi.c:856
    43ce:	463a      	mov	r2, r7
    43d0:	4631      	mov	r1, r6
    43d2:	4620      	mov	r0, r4
    43d4:	f000 ffd7 	bl	5386 <mbedtls_mpi_mul_mpi>
    43d8:	4602      	mov	r2, r0
    43da:	b138      	cbz	r0, 43ec <TEE_BigIntComputeFMM+0x5c>
/mnt/disk/raspbian-tee/optee_os/lib/libutee/tee_api_arith_mpi.c:856 (discriminator 1)
    43dc:	4812      	ldr	r0, [pc, #72]	; (4428 <TEE_BigIntComputeFMM+0x98>)
    43de:	f44f 7156 	mov.w	r1, #856	; 0x358
    43e2:	4478      	add	r0, pc
/mnt/disk/raspbian-tee/optee_os/lib/libutee/tee_api_arith_mpi.c:857 (discriminator 1)
    43e4:	f500 7097 	add.w	r0, r0, #302	; 0x12e
    43e8:	f7ff f818 	bl	341c <mpi_panic>
/mnt/disk/raspbian-tee/optee_os/lib/libutee/tee_api_arith_mpi.c:857
    43ec:	4642      	mov	r2, r8
    43ee:	4621      	mov	r1, r4
    43f0:	4628      	mov	r0, r5
    43f2:	f001 fac3 	bl	597c <mbedtls_mpi_mod_mpi>
    43f6:	4602      	mov	r2, r0
    43f8:	b120      	cbz	r0, 4404 <TEE_BigIntComputeFMM+0x74>
/mnt/disk/raspbian-tee/optee_os/lib/libutee/tee_api_arith_mpi.c:857 (discriminator 1)
    43fa:	480c      	ldr	r0, [pc, #48]	; (442c <TEE_BigIntComputeFMM+0x9c>)
    43fc:	f240 3159 	movw	r1, #857	; 0x359
    4400:	4478      	add	r0, pc
    4402:	e7ef      	b.n	43e4 <TEE_BigIntComputeFMM+0x54>
/mnt/disk/raspbian-tee/optee_os/lib/libutee/tee_api_arith_mpi.c:859
    4404:	4620      	mov	r0, r4
    4406:	f7ff f84e 	bl	34a6 <put_mpi>
/mnt/disk/raspbian-tee/optee_os/lib/libutee/tee_api_arith_mpi.c:860
    440a:	4640      	mov	r0, r8
    440c:	f7ff f84b 	bl	34a6 <put_mpi>
/mnt/disk/raspbian-tee/optee_os/lib/libutee/tee_api_arith_mpi.c:861
    4410:	4638      	mov	r0, r7
    4412:	f7ff f848 	bl	34a6 <put_mpi>
/mnt/disk/raspbian-tee/optee_os/lib/libutee/tee_api_arith_mpi.c:862
    4416:	4630      	mov	r0, r6
    4418:	f7ff f845 	bl	34a6 <put_mpi>
/mnt/disk/raspbian-tee/optee_os/lib/libutee/tee_api_arith_mpi.c:863
    441c:	4628      	mov	r0, r5
    441e:	f7ff f842 	bl	34a6 <put_mpi>
/mnt/disk/raspbian-tee/optee_os/lib/libutee/tee_api_arith_mpi.c:864
    4422:	b010      	add	sp, #64	; 0x40
    4424:	e8bd 81f0 	ldmia.w	sp!, {r4, r5, r6, r7, r8, pc}
    4428:	00003d99 	.word	0x00003d99
    442c:	00003d7b 	.word	0x00003d7b

00004430 <api_panic>:
api_panic():
/mnt/disk/raspbian-tee/optee_os/lib/libutee/tee_api_arith_mpi.c:19
    4430:	b508      	push	{r3, lr}
/mnt/disk/raspbian-tee/optee_os/lib/libutee/tee_api_arith_mpi.c:20
    4432:	4613      	mov	r3, r2
    4434:	460a      	mov	r2, r1
    4436:	4601      	mov	r1, r0
    4438:	4804      	ldr	r0, [pc, #16]	; (444c <api_panic+0x1c>)
    443a:	4478      	add	r0, pc
    443c:	f7fc fc29 	bl	c92 <printf>
/mnt/disk/raspbian-tee/optee_os/lib/libutee/tee_api_arith_mpi.c:21
    4440:	4801      	ldr	r0, [pc, #4]	; (4448 <api_panic+0x18>)
    4442:	f003 fb5c 	bl	7afe <TEE_Panic>
    4446:	e7fe      	b.n	4446 <api_panic+0x16>
    4448:	00b16127 	.word	0x00b16127
    444c:	00003e84 	.word	0x00003e84

00004450 <mpi_get_digit>:
mpi_get_digit():
/mnt/disk/raspbian-tee/optee_os/lib/libmbedtls/mbedtls/library/bignum.c:488
    4450:	f1a2 0330 	sub.w	r3, r2, #48	; 0x30
/mnt/disk/raspbian-tee/optee_os/lib/libmbedtls/mbedtls/library/bignum.c:485
    4454:	b510      	push	{r4, lr}
/mnt/disk/raspbian-tee/optee_os/lib/libmbedtls/mbedtls/library/bignum.c:488
    4456:	b2dc      	uxtb	r4, r3
    4458:	2c09      	cmp	r4, #9
/mnt/disk/raspbian-tee/optee_os/lib/libmbedtls/mbedtls/library/bignum.c:486
    445a:	bf88      	it	hi
    445c:	23ff      	movhi	r3, #255	; 0xff
/mnt/disk/raspbian-tee/optee_os/lib/libmbedtls/mbedtls/library/bignum.c:488
    445e:	6003      	str	r3, [r0, #0]
/mnt/disk/raspbian-tee/optee_os/lib/libmbedtls/mbedtls/library/bignum.c:489
    4460:	f1a2 0341 	sub.w	r3, r2, #65	; 0x41
    4464:	2b05      	cmp	r3, #5
    4466:	d802      	bhi.n	446e <mpi_get_digit+0x1e>
/mnt/disk/raspbian-tee/optee_os/lib/libmbedtls/mbedtls/library/bignum.c:489 (discriminator 1)
    4468:	f1a2 0337 	sub.w	r3, r2, #55	; 0x37
    446c:	6003      	str	r3, [r0, #0]
/mnt/disk/raspbian-tee/optee_os/lib/libmbedtls/mbedtls/library/bignum.c:490
    446e:	f1a2 0361 	sub.w	r3, r2, #97	; 0x61
    4472:	2b05      	cmp	r3, #5
    4474:	d801      	bhi.n	447a <mpi_get_digit+0x2a>
/mnt/disk/raspbian-tee/optee_os/lib/libmbedtls/mbedtls/library/bignum.c:490 (discriminator 1)
    4476:	3a57      	subs	r2, #87	; 0x57
    4478:	6002      	str	r2, [r0, #0]
/mnt/disk/raspbian-tee/optee_os/lib/libmbedtls/mbedtls/library/bignum.c:492
    447a:	6803      	ldr	r3, [r0, #0]
/mnt/disk/raspbian-tee/optee_os/lib/libmbedtls/mbedtls/library/bignum.c:496
    447c:	f06f 0005 	mvn.w	r0, #5
/mnt/disk/raspbian-tee/optee_os/lib/libmbedtls/mbedtls/library/bignum.c:492
    4480:	428b      	cmp	r3, r1
/mnt/disk/raspbian-tee/optee_os/lib/libmbedtls/mbedtls/library/bignum.c:496
    4482:	bf38      	it	cc
    4484:	2000      	movcc	r0, #0
    4486:	bd10      	pop	{r4, pc}

00004488 <mpi_sub_hlp>:
mpi_sub_hlp():
/mnt/disk/raspbian-tee/optee_os/lib/libmbedtls/mbedtls/library/bignum.c:1025
    4488:	2300      	movs	r3, #0
/mnt/disk/raspbian-tee/optee_os/lib/libmbedtls/mbedtls/library/bignum.c:1021
    448a:	e92d 41f0 	stmdb	sp!, {r4, r5, r6, r7, r8, lr}
    448e:	4688      	mov	r8, r1
/mnt/disk/raspbian-tee/optee_os/lib/libmbedtls/mbedtls/library/bignum.c:1025
    4490:	4616      	mov	r6, r2
    4492:	461c      	mov	r4, r3
/mnt/disk/raspbian-tee/optee_os/lib/libmbedtls/mbedtls/library/bignum.c:1025 (discriminator 1)
    4494:	4284      	cmp	r4, r0
    4496:	d104      	bne.n	44a2 <mpi_sub_hlp+0x1a>
    4498:	eb02 0284 	add.w	r2, r2, r4, lsl #2
/mnt/disk/raspbian-tee/optee_os/lib/libmbedtls/mbedtls/library/bignum.c:1031
    449c:	b9c3      	cbnz	r3, 44d0 <mpi_sub_hlp+0x48>
/mnt/disk/raspbian-tee/optee_os/lib/libmbedtls/mbedtls/library/bignum.c:1036
    449e:	e8bd 81f0 	ldmia.w	sp!, {r4, r5, r6, r7, r8, pc}
/mnt/disk/raspbian-tee/optee_os/lib/libmbedtls/mbedtls/library/bignum.c:1027 (discriminator 3)
    44a2:	f8d6 c000 	ldr.w	ip, [r6]
    44a6:	ebac 0503 	sub.w	r5, ip, r3
    44aa:	6035      	str	r5, [r6, #0]
/mnt/disk/raspbian-tee/optee_os/lib/libmbedtls/mbedtls/library/bignum.c:1028 (discriminator 3)
    44ac:	f858 7024 	ldr.w	r7, [r8, r4, lsl #2]
/mnt/disk/raspbian-tee/optee_os/lib/libmbedtls/mbedtls/library/bignum.c:1025 (discriminator 3)
    44b0:	3401      	adds	r4, #1
/mnt/disk/raspbian-tee/optee_os/lib/libmbedtls/mbedtls/library/bignum.c:1028 (discriminator 3)
    44b2:	42bd      	cmp	r5, r7
    44b4:	eba5 0507 	sub.w	r5, r5, r7
    44b8:	bf28      	it	cs
    44ba:	2100      	movcs	r1, #0
    44bc:	bf38      	it	cc
    44be:	2101      	movcc	r1, #1
    44c0:	4563      	cmp	r3, ip
    44c2:	468e      	mov	lr, r1
    44c4:	bf88      	it	hi
    44c6:	3101      	addhi	r1, #1
    44c8:	f846 5b04 	str.w	r5, [r6], #4
    44cc:	460b      	mov	r3, r1
    44ce:	e7e1      	b.n	4494 <mpi_sub_hlp+0xc>
/mnt/disk/raspbian-tee/optee_os/lib/libmbedtls/mbedtls/library/bignum.c:1033
    44d0:	6811      	ldr	r1, [r2, #0]
/mnt/disk/raspbian-tee/optee_os/lib/libmbedtls/mbedtls/library/bignum.c:1034
    44d2:	428b      	cmp	r3, r1
/mnt/disk/raspbian-tee/optee_os/lib/libmbedtls/mbedtls/library/bignum.c:1033
    44d4:	eba1 0003 	sub.w	r0, r1, r3
/mnt/disk/raspbian-tee/optee_os/lib/libmbedtls/mbedtls/library/bignum.c:1034
    44d8:	bf98      	it	ls
    44da:	2300      	movls	r3, #0
/mnt/disk/raspbian-tee/optee_os/lib/libmbedtls/mbedtls/library/bignum.c:1033
    44dc:	f842 0b04 	str.w	r0, [r2], #4
/mnt/disk/raspbian-tee/optee_os/lib/libmbedtls/mbedtls/library/bignum.c:1034
    44e0:	bf88      	it	hi
    44e2:	2301      	movhi	r3, #1
    44e4:	e7da      	b.n	449c <mpi_sub_hlp+0x14>

000044e6 <mpi_mul_hlp>:
mpi_mul_hlp():
/mnt/disk/raspbian-tee/optee_os/lib/libmbedtls/mbedtls/library/bignum.c:1187
    44e6:	e92d 47f0 	stmdb	sp!, {r4, r5, r6, r7, r8, r9, sl, lr}
/mnt/disk/raspbian-tee/optee_os/lib/libmbedtls/mbedtls/library/bignum.c:1205
    44ea:	4684      	mov	ip, r0
/mnt/disk/raspbian-tee/optee_os/lib/libmbedtls/mbedtls/library/bignum.c:1187
    44ec:	468a      	mov	sl, r1
    44ee:	460d      	mov	r5, r1
    44f0:	4614      	mov	r4, r2
/mnt/disk/raspbian-tee/optee_os/lib/libmbedtls/mbedtls/library/bignum.c:1188
    44f2:	f04f 0e00 	mov.w	lr, #0
    44f6:	3540      	adds	r5, #64	; 0x40
    44f8:	3440      	adds	r4, #64	; 0x40
/mnt/disk/raspbian-tee/optee_os/lib/libmbedtls/mbedtls/library/bignum.c:1205 (discriminator 1)
    44fa:	f1bc 0f0f 	cmp.w	ip, #15
    44fe:	f200 80b4 	bhi.w	466a <mpi_mul_hlp+0x184>
    4502:	ea4f 1c10 	mov.w	ip, r0, lsr #4
    4506:	eba0 100c 	sub.w	r0, r0, ip, lsl #4
    450a:	ea4f 1c8c 	mov.w	ip, ip, lsl #6
    450e:	eb0a 050c 	add.w	r5, sl, ip
    4512:	eb02 040c 	add.w	r4, r2, ip
/mnt/disk/raspbian-tee/optee_os/lib/libmbedtls/mbedtls/library/bignum.c:1220
    4516:	2807      	cmp	r0, #7
    4518:	f240 808e 	bls.w	4638 <mpi_mul_hlp+0x152>
/mnt/disk/raspbian-tee/optee_os/lib/libmbedtls/mbedtls/library/bignum.c:1223
    451c:	f85a 600c 	ldr.w	r6, [sl, ip]
    4520:	2101      	movs	r1, #1
    4522:	fba3 6706 	umull	r6, r7, r3, r6
    4526:	eb1e 0e06 	adds.w	lr, lr, r6
    452a:	f852 600c 	ldr.w	r6, [r2, ip]
    452e:	bf38      	it	cc
    4530:	2100      	movcc	r1, #0
    4532:	eb1e 0606 	adds.w	r6, lr, r6
    4536:	f842 600c 	str.w	r6, [r2, ip]
    453a:	eb01 0807 	add.w	r8, r1, r7
    453e:	f04f 0100 	mov.w	r1, #0
    4542:	686e      	ldr	r6, [r5, #4]
    4544:	bf28      	it	cs
    4546:	2101      	movcs	r1, #1
    4548:	eb01 0208 	add.w	r2, r1, r8
    454c:	2101      	movs	r1, #1
    454e:	f04f 0e00 	mov.w	lr, #0
    4552:	fba3 6706 	umull	r6, r7, r3, r6
    4556:	1992      	adds	r2, r2, r6
    4558:	6866      	ldr	r6, [r4, #4]
    455a:	bf38      	it	cc
    455c:	2100      	movcc	r1, #0
    455e:	1992      	adds	r2, r2, r6
    4560:	6062      	str	r2, [r4, #4]
    4562:	eb01 0c07 	add.w	ip, r1, r7
    4566:	f04f 0100 	mov.w	r1, #0
/mnt/disk/raspbian-tee/optee_os/lib/libmbedtls/mbedtls/library/bignum.c:1224
    456a:	68ae      	ldr	r6, [r5, #8]
    456c:	bf28      	it	cs
    456e:	2101      	movcs	r1, #1
/mnt/disk/raspbian-tee/optee_os/lib/libmbedtls/mbedtls/library/bignum.c:1223
    4570:	4461      	add	r1, ip
/mnt/disk/raspbian-tee/optee_os/lib/libmbedtls/mbedtls/library/bignum.c:1224
    4572:	2201      	movs	r2, #1
    4574:	fba3 6706 	umull	r6, r7, r3, r6
    4578:	1989      	adds	r1, r1, r6
    457a:	68a6      	ldr	r6, [r4, #8]
    457c:	bf38      	it	cc
    457e:	2200      	movcc	r2, #0
    4580:	1989      	adds	r1, r1, r6
    4582:	60a1      	str	r1, [r4, #8]
    4584:	eb02 0c07 	add.w	ip, r2, r7
    4588:	f04f 0200 	mov.w	r2, #0
    458c:	68ee      	ldr	r6, [r5, #12]
    458e:	bf28      	it	cs
    4590:	2201      	movcs	r2, #1
    4592:	4462      	add	r2, ip
    4594:	2101      	movs	r1, #1
    4596:	fba3 6706 	umull	r6, r7, r3, r6
    459a:	1992      	adds	r2, r2, r6
    459c:	68e6      	ldr	r6, [r4, #12]
    459e:	bf38      	it	cc
    45a0:	2100      	movcc	r1, #0
    45a2:	1992      	adds	r2, r2, r6
    45a4:	60e2      	str	r2, [r4, #12]
    45a6:	eb01 0c07 	add.w	ip, r1, r7
    45aa:	f04f 0100 	mov.w	r1, #0
/mnt/disk/raspbian-tee/optee_os/lib/libmbedtls/mbedtls/library/bignum.c:1226
    45ae:	692e      	ldr	r6, [r5, #16]
    45b0:	bf28      	it	cs
    45b2:	2101      	movcs	r1, #1
/mnt/disk/raspbian-tee/optee_os/lib/libmbedtls/mbedtls/library/bignum.c:1224
    45b4:	4461      	add	r1, ip
/mnt/disk/raspbian-tee/optee_os/lib/libmbedtls/mbedtls/library/bignum.c:1226
    45b6:	2201      	movs	r2, #1
    45b8:	fba3 6706 	umull	r6, r7, r3, r6
    45bc:	1989      	adds	r1, r1, r6
    45be:	6926      	ldr	r6, [r4, #16]
    45c0:	bf38      	it	cc
    45c2:	2200      	movcc	r2, #0
    45c4:	1989      	adds	r1, r1, r6
    45c6:	6121      	str	r1, [r4, #16]
    45c8:	eb02 0c07 	add.w	ip, r2, r7
    45cc:	f04f 0200 	mov.w	r2, #0
    45d0:	696e      	ldr	r6, [r5, #20]
    45d2:	bf28      	it	cs
    45d4:	2201      	movcs	r2, #1
    45d6:	4462      	add	r2, ip
    45d8:	2101      	movs	r1, #1
    45da:	fba3 6706 	umull	r6, r7, r3, r6
    45de:	1992      	adds	r2, r2, r6
    45e0:	6966      	ldr	r6, [r4, #20]
    45e2:	bf38      	it	cc
    45e4:	2100      	movcc	r1, #0
    45e6:	1992      	adds	r2, r2, r6
    45e8:	6162      	str	r2, [r4, #20]
    45ea:	eb01 0c07 	add.w	ip, r1, r7
    45ee:	f04f 0100 	mov.w	r1, #0
/mnt/disk/raspbian-tee/optee_os/lib/libmbedtls/mbedtls/library/bignum.c:1227
    45f2:	69ae      	ldr	r6, [r5, #24]
    45f4:	bf28      	it	cs
    45f6:	2101      	movcs	r1, #1
/mnt/disk/raspbian-tee/optee_os/lib/libmbedtls/mbedtls/library/bignum.c:1226
    45f8:	4461      	add	r1, ip
/mnt/disk/raspbian-tee/optee_os/lib/libmbedtls/mbedtls/library/bignum.c:1227
    45fa:	2201      	movs	r2, #1
    45fc:	fba3 6706 	umull	r6, r7, r3, r6
    4600:	1989      	adds	r1, r1, r6
    4602:	69a6      	ldr	r6, [r4, #24]
    4604:	bf38      	it	cc
    4606:	2200      	movcc	r2, #0
    4608:	1989      	adds	r1, r1, r6
    460a:	61a1      	str	r1, [r4, #24]
    460c:	eb02 0c07 	add.w	ip, r2, r7
    4610:	f04f 0200 	mov.w	r2, #0
    4614:	69ee      	ldr	r6, [r5, #28]
    4616:	bf28      	it	cs
    4618:	2201      	movcs	r2, #1
    461a:	4462      	add	r2, ip
    461c:	2101      	movs	r1, #1
    461e:	fba3 6706 	umull	r6, r7, r3, r6
    4622:	1992      	adds	r2, r2, r6
    4624:	69e6      	ldr	r6, [r4, #28]
    4626:	bf38      	it	cc
    4628:	2100      	movcc	r1, #0
    462a:	4439      	add	r1, r7
    462c:	1992      	adds	r2, r2, r6
    462e:	d301      	bcc.n	4634 <mpi_mul_hlp+0x14e>
    4630:	f04f 0e01 	mov.w	lr, #1
    4634:	448e      	add	lr, r1
    4636:	61e2      	str	r2, [r4, #28]
    4638:	08c2      	lsrs	r2, r0, #3
    463a:	0151      	lsls	r1, r2, #5
    463c:	eba0 00c2 	sub.w	r0, r0, r2, lsl #3
    4640:	440c      	add	r4, r1
    4642:	440d      	add	r5, r1
    4644:	eb04 0080 	add.w	r0, r4, r0, lsl #2
/mnt/disk/raspbian-tee/optee_os/lib/libmbedtls/mbedtls/library/bignum.c:1231 (discriminator 1)
    4648:	4284      	cmp	r4, r0
    464a:	f040 8180 	bne.w	494e <mpi_mul_hlp+0x468>
    464e:	6803      	ldr	r3, [r0, #0]
    4650:	2200      	movs	r2, #0
    4652:	eb1e 0303 	adds.w	r3, lr, r3
/mnt/disk/raspbian-tee/optee_os/lib/libmbedtls/mbedtls/library/bignum.c:1242 (discriminator 1)
    4656:	f04f 0e01 	mov.w	lr, #1
    465a:	bf28      	it	cs
    465c:	2201      	movcs	r2, #1
    465e:	f840 3b04 	str.w	r3, [r0], #4
/mnt/disk/raspbian-tee/optee_os/lib/libmbedtls/mbedtls/library/bignum.c:1244 (discriminator 1)
    4662:	2a00      	cmp	r2, #0
    4664:	d1f3      	bne.n	464e <mpi_mul_hlp+0x168>
/mnt/disk/raspbian-tee/optee_os/lib/libmbedtls/mbedtls/library/bignum.c:1245
    4666:	e8bd 87f0 	ldmia.w	sp!, {r4, r5, r6, r7, r8, r9, sl, pc}
/mnt/disk/raspbian-tee/optee_os/lib/libmbedtls/mbedtls/library/bignum.c:1208 (discriminator 2)
    466a:	f855 6c40 	ldr.w	r6, [r5, #-64]
    466e:	2101      	movs	r1, #1
    4670:	f04f 0800 	mov.w	r8, #0
    4674:	fba3 6706 	umull	r6, r7, r3, r6
    4678:	eb1e 0e06 	adds.w	lr, lr, r6
    467c:	bf38      	it	cc
    467e:	2100      	movcc	r1, #0
    4680:	eb01 0907 	add.w	r9, r1, r7
    4684:	f854 7c40 	ldr.w	r7, [r4, #-64]
    4688:	eb1e 0707 	adds.w	r7, lr, r7
    468c:	d301      	bcc.n	4692 <mpi_mul_hlp+0x1ac>
    468e:	f04f 0801 	mov.w	r8, #1
    4692:	f844 7c40 	str.w	r7, [r4, #-64]
    4696:	44c8      	add	r8, r9
    4698:	2101      	movs	r1, #1
    469a:	f04f 0e00 	mov.w	lr, #0
    469e:	f855 6c3c 	ldr.w	r6, [r5, #-60]
    46a2:	fba3 6706 	umull	r6, r7, r3, r6
    46a6:	eb18 0806 	adds.w	r8, r8, r6
    46aa:	f854 6c3c 	ldr.w	r6, [r4, #-60]
    46ae:	bf38      	it	cc
    46b0:	2100      	movcc	r1, #0
    46b2:	eb01 0907 	add.w	r9, r1, r7
    46b6:	eb18 0606 	adds.w	r6, r8, r6
    46ba:	d301      	bcc.n	46c0 <mpi_mul_hlp+0x1da>
    46bc:	f04f 0e01 	mov.w	lr, #1
    46c0:	f844 6c3c 	str.w	r6, [r4, #-60]
    46c4:	44ce      	add	lr, r9
/mnt/disk/raspbian-tee/optee_os/lib/libmbedtls/mbedtls/library/bignum.c:1209 (discriminator 2)
    46c6:	2101      	movs	r1, #1
    46c8:	f04f 0800 	mov.w	r8, #0
    46cc:	f855 6c38 	ldr.w	r6, [r5, #-56]
    46d0:	fba3 6706 	umull	r6, r7, r3, r6
    46d4:	eb1e 0e06 	adds.w	lr, lr, r6
    46d8:	bf38      	it	cc
    46da:	2100      	movcc	r1, #0
    46dc:	eb01 0907 	add.w	r9, r1, r7
    46e0:	f854 7c38 	ldr.w	r7, [r4, #-56]
    46e4:	eb1e 0707 	adds.w	r7, lr, r7
    46e8:	d301      	bcc.n	46ee <mpi_mul_hlp+0x208>
    46ea:	f04f 0801 	mov.w	r8, #1
    46ee:	f844 7c38 	str.w	r7, [r4, #-56]
    46f2:	44c8      	add	r8, r9
    46f4:	2101      	movs	r1, #1
    46f6:	f04f 0e00 	mov.w	lr, #0
    46fa:	f855 6c34 	ldr.w	r6, [r5, #-52]
    46fe:	fba3 6706 	umull	r6, r7, r3, r6
    4702:	eb18 0806 	adds.w	r8, r8, r6
    4706:	f854 6c34 	ldr.w	r6, [r4, #-52]
    470a:	bf38      	it	cc
    470c:	2100      	movcc	r1, #0
    470e:	eb01 0907 	add.w	r9, r1, r7
    4712:	eb18 0606 	adds.w	r6, r8, r6
    4716:	d301      	bcc.n	471c <mpi_mul_hlp+0x236>
    4718:	f04f 0e01 	mov.w	lr, #1
    471c:	f844 6c34 	str.w	r6, [r4, #-52]
    4720:	44ce      	add	lr, r9
/mnt/disk/raspbian-tee/optee_os/lib/libmbedtls/mbedtls/library/bignum.c:1210 (discriminator 2)
    4722:	2101      	movs	r1, #1
    4724:	f04f 0800 	mov.w	r8, #0
    4728:	f855 6c30 	ldr.w	r6, [r5, #-48]
    472c:	fba3 6706 	umull	r6, r7, r3, r6
    4730:	eb1e 0e06 	adds.w	lr, lr, r6
    4734:	bf38      	it	cc
    4736:	2100      	movcc	r1, #0
    4738:	eb01 0907 	add.w	r9, r1, r7
    473c:	f854 7c30 	ldr.w	r7, [r4, #-48]
    4740:	eb1e 0707 	adds.w	r7, lr, r7
    4744:	d301      	bcc.n	474a <mpi_mul_hlp+0x264>
    4746:	f04f 0801 	mov.w	r8, #1
    474a:	f844 7c30 	str.w	r7, [r4, #-48]
    474e:	44c8      	add	r8, r9
    4750:	2101      	movs	r1, #1
    4752:	f04f 0e00 	mov.w	lr, #0
    4756:	f855 6c2c 	ldr.w	r6, [r5, #-44]
    475a:	fba3 6706 	umull	r6, r7, r3, r6
    475e:	eb18 0806 	adds.w	r8, r8, r6
    4762:	f854 6c2c 	ldr.w	r6, [r4, #-44]
    4766:	bf38      	it	cc
    4768:	2100      	movcc	r1, #0
    476a:	eb01 0907 	add.w	r9, r1, r7
    476e:	eb18 0606 	adds.w	r6, r8, r6
    4772:	d301      	bcc.n	4778 <mpi_mul_hlp+0x292>
    4774:	f04f 0e01 	mov.w	lr, #1
    4778:	f844 6c2c 	str.w	r6, [r4, #-44]
    477c:	44ce      	add	lr, r9
/mnt/disk/raspbian-tee/optee_os/lib/libmbedtls/mbedtls/library/bignum.c:1211 (discriminator 2)
    477e:	2101      	movs	r1, #1
    4780:	f04f 0800 	mov.w	r8, #0
    4784:	f855 6c28 	ldr.w	r6, [r5, #-40]
    4788:	fba3 6706 	umull	r6, r7, r3, r6
    478c:	eb1e 0e06 	adds.w	lr, lr, r6
    4790:	bf38      	it	cc
    4792:	2100      	movcc	r1, #0
    4794:	eb01 0907 	add.w	r9, r1, r7
    4798:	f854 7c28 	ldr.w	r7, [r4, #-40]
    479c:	eb1e 0707 	adds.w	r7, lr, r7
    47a0:	d301      	bcc.n	47a6 <mpi_mul_hlp+0x2c0>
    47a2:	f04f 0801 	mov.w	r8, #1
    47a6:	f844 7c28 	str.w	r7, [r4, #-40]
    47aa:	44c8      	add	r8, r9
    47ac:	2101      	movs	r1, #1
    47ae:	f04f 0e00 	mov.w	lr, #0
    47b2:	f855 6c24 	ldr.w	r6, [r5, #-36]
    47b6:	fba3 6706 	umull	r6, r7, r3, r6
    47ba:	eb18 0806 	adds.w	r8, r8, r6
    47be:	f854 6c24 	ldr.w	r6, [r4, #-36]
    47c2:	bf38      	it	cc
    47c4:	2100      	movcc	r1, #0
    47c6:	eb01 0907 	add.w	r9, r1, r7
    47ca:	eb18 0606 	adds.w	r6, r8, r6
    47ce:	d301      	bcc.n	47d4 <mpi_mul_hlp+0x2ee>
    47d0:	f04f 0e01 	mov.w	lr, #1
    47d4:	f844 6c24 	str.w	r6, [r4, #-36]
    47d8:	44ce      	add	lr, r9
/mnt/disk/raspbian-tee/optee_os/lib/libmbedtls/mbedtls/library/bignum.c:1213 (discriminator 2)
    47da:	2101      	movs	r1, #1
    47dc:	f04f 0800 	mov.w	r8, #0
    47e0:	f855 6c20 	ldr.w	r6, [r5, #-32]
    47e4:	fba3 6706 	umull	r6, r7, r3, r6
    47e8:	eb1e 0e06 	adds.w	lr, lr, r6
    47ec:	bf38      	it	cc
    47ee:	2100      	movcc	r1, #0
    47f0:	eb01 0907 	add.w	r9, r1, r7
    47f4:	f854 7c20 	ldr.w	r7, [r4, #-32]
    47f8:	eb1e 0707 	adds.w	r7, lr, r7
    47fc:	d301      	bcc.n	4802 <mpi_mul_hlp+0x31c>
    47fe:	f04f 0801 	mov.w	r8, #1
    4802:	f844 7c20 	str.w	r7, [r4, #-32]
    4806:	44c8      	add	r8, r9
    4808:	2101      	movs	r1, #1
    480a:	f04f 0e00 	mov.w	lr, #0
    480e:	f855 6c1c 	ldr.w	r6, [r5, #-28]
    4812:	fba3 6706 	umull	r6, r7, r3, r6
    4816:	eb18 0806 	adds.w	r8, r8, r6
    481a:	f854 6c1c 	ldr.w	r6, [r4, #-28]
    481e:	bf38      	it	cc
    4820:	2100      	movcc	r1, #0
    4822:	eb01 0907 	add.w	r9, r1, r7
    4826:	eb18 0606 	adds.w	r6, r8, r6
    482a:	d301      	bcc.n	4830 <mpi_mul_hlp+0x34a>
    482c:	f04f 0e01 	mov.w	lr, #1
    4830:	f844 6c1c 	str.w	r6, [r4, #-28]
    4834:	44ce      	add	lr, r9
/mnt/disk/raspbian-tee/optee_os/lib/libmbedtls/mbedtls/library/bignum.c:1214 (discriminator 2)
    4836:	2101      	movs	r1, #1
    4838:	f04f 0800 	mov.w	r8, #0
    483c:	f855 6c18 	ldr.w	r6, [r5, #-24]
    4840:	fba3 6706 	umull	r6, r7, r3, r6
    4844:	eb1e 0e06 	adds.w	lr, lr, r6
    4848:	bf38      	it	cc
    484a:	2100      	movcc	r1, #0
    484c:	eb01 0907 	add.w	r9, r1, r7
    4850:	f854 7c18 	ldr.w	r7, [r4, #-24]
    4854:	eb1e 0707 	adds.w	r7, lr, r7
    4858:	d301      	bcc.n	485e <mpi_mul_hlp+0x378>
    485a:	f04f 0801 	mov.w	r8, #1
    485e:	f844 7c18 	str.w	r7, [r4, #-24]
    4862:	44c8      	add	r8, r9
    4864:	2101      	movs	r1, #1
    4866:	f04f 0e00 	mov.w	lr, #0
    486a:	f855 6c14 	ldr.w	r6, [r5, #-20]
    486e:	fba3 6706 	umull	r6, r7, r3, r6
    4872:	eb18 0806 	adds.w	r8, r8, r6
    4876:	f854 6c14 	ldr.w	r6, [r4, #-20]
    487a:	bf38      	it	cc
    487c:	2100      	movcc	r1, #0
    487e:	eb01 0907 	add.w	r9, r1, r7
    4882:	eb18 0606 	adds.w	r6, r8, r6
    4886:	d301      	bcc.n	488c <mpi_mul_hlp+0x3a6>
    4888:	f04f 0e01 	mov.w	lr, #1
    488c:	f844 6c14 	str.w	r6, [r4, #-20]
    4890:	44ce      	add	lr, r9
/mnt/disk/raspbian-tee/optee_os/lib/libmbedtls/mbedtls/library/bignum.c:1215 (discriminator 2)
    4892:	2101      	movs	r1, #1
    4894:	f04f 0800 	mov.w	r8, #0
    4898:	f855 6c10 	ldr.w	r6, [r5, #-16]
    489c:	fba3 6706 	umull	r6, r7, r3, r6
    48a0:	eb1e 0e06 	adds.w	lr, lr, r6
    48a4:	bf38      	it	cc
    48a6:	2100      	movcc	r1, #0
    48a8:	eb01 0907 	add.w	r9, r1, r7
    48ac:	f854 7c10 	ldr.w	r7, [r4, #-16]
    48b0:	eb1e 0707 	adds.w	r7, lr, r7
    48b4:	d301      	bcc.n	48ba <mpi_mul_hlp+0x3d4>
    48b6:	f04f 0801 	mov.w	r8, #1
    48ba:	f844 7c10 	str.w	r7, [r4, #-16]
    48be:	44c8      	add	r8, r9
    48c0:	2101      	movs	r1, #1
    48c2:	f04f 0e00 	mov.w	lr, #0
    48c6:	f855 6c0c 	ldr.w	r6, [r5, #-12]
    48ca:	fba3 6706 	umull	r6, r7, r3, r6
    48ce:	eb18 0806 	adds.w	r8, r8, r6
    48d2:	f854 6c0c 	ldr.w	r6, [r4, #-12]
    48d6:	bf38      	it	cc
    48d8:	2100      	movcc	r1, #0
    48da:	eb01 0907 	add.w	r9, r1, r7
    48de:	eb18 0606 	adds.w	r6, r8, r6
    48e2:	d301      	bcc.n	48e8 <mpi_mul_hlp+0x402>
    48e4:	f04f 0e01 	mov.w	lr, #1
    48e8:	f844 6c0c 	str.w	r6, [r4, #-12]
    48ec:	44ce      	add	lr, r9
/mnt/disk/raspbian-tee/optee_os/lib/libmbedtls/mbedtls/library/bignum.c:1216 (discriminator 2)
    48ee:	2101      	movs	r1, #1
    48f0:	f04f 0800 	mov.w	r8, #0
    48f4:	f855 6c08 	ldr.w	r6, [r5, #-8]
    48f8:	fba3 6706 	umull	r6, r7, r3, r6
    48fc:	eb1e 0e06 	adds.w	lr, lr, r6
    4900:	bf38      	it	cc
    4902:	2100      	movcc	r1, #0
    4904:	eb01 0907 	add.w	r9, r1, r7
    4908:	f854 7c08 	ldr.w	r7, [r4, #-8]
    490c:	eb1e 0707 	adds.w	r7, lr, r7
    4910:	d301      	bcc.n	4916 <mpi_mul_hlp+0x430>
    4912:	f04f 0801 	mov.w	r8, #1
    4916:	f844 7c08 	str.w	r7, [r4, #-8]
    491a:	44c8      	add	r8, r9
    491c:	2101      	movs	r1, #1
    491e:	f04f 0e00 	mov.w	lr, #0
    4922:	f855 6c04 	ldr.w	r6, [r5, #-4]
    4926:	fba3 6706 	umull	r6, r7, r3, r6
    492a:	eb18 0806 	adds.w	r8, r8, r6
    492e:	f854 6c04 	ldr.w	r6, [r4, #-4]
    4932:	bf38      	it	cc
    4934:	2100      	movcc	r1, #0
    4936:	440f      	add	r7, r1
    4938:	eb18 0606 	adds.w	r6, r8, r6
    493c:	d301      	bcc.n	4942 <mpi_mul_hlp+0x45c>
    493e:	f04f 0e01 	mov.w	lr, #1
    4942:	f844 6c04 	str.w	r6, [r4, #-4]
/mnt/disk/raspbian-tee/optee_os/lib/libmbedtls/mbedtls/library/bignum.c:1205 (discriminator 2)
    4946:	f1ac 0c10 	sub.w	ip, ip, #16
/mnt/disk/raspbian-tee/optee_os/lib/libmbedtls/mbedtls/library/bignum.c:1216 (discriminator 2)
    494a:	44be      	add	lr, r7
    494c:	e5d3      	b.n	44f6 <mpi_mul_hlp+0x10>
/mnt/disk/raspbian-tee/optee_os/lib/libmbedtls/mbedtls/library/bignum.c:1234 (discriminator 2)
    494e:	f855 6b04 	ldr.w	r6, [r5], #4
    4952:	2101      	movs	r1, #1
    4954:	fba3 6706 	umull	r6, r7, r3, r6
    4958:	eb1e 0206 	adds.w	r2, lr, r6
    495c:	6826      	ldr	r6, [r4, #0]
    495e:	bf38      	it	cc
    4960:	2100      	movcc	r1, #0
    4962:	f04f 0e00 	mov.w	lr, #0
    4966:	4439      	add	r1, r7
    4968:	1992      	adds	r2, r2, r6
    496a:	d301      	bcc.n	4970 <mpi_mul_hlp+0x48a>
    496c:	f04f 0e01 	mov.w	lr, #1
    4970:	f844 2b04 	str.w	r2, [r4], #4
    4974:	448e      	add	lr, r1
    4976:	e667      	b.n	4648 <mpi_mul_hlp+0x162>

00004978 <mbedtls_mpi_mod_int.part.1>:
mbedtls_mpi_mod_int():
/mnt/disk/raspbian-tee/optee_os/lib/libmbedtls/mbedtls/library/bignum.c:1554
    4978:	b5f0      	push	{r4, r5, r6, r7, lr}
/mnt/disk/raspbian-tee/optee_os/lib/libmbedtls/mbedtls/library/bignum.c:1583
    497a:	2300      	movs	r3, #0
    497c:	888f      	ldrh	r7, [r1, #4]
    497e:	f107 4480 	add.w	r4, r7, #1073741824	; 0x40000000
    4982:	3c01      	subs	r4, #1
    4984:	00a4      	lsls	r4, r4, #2
    4986:	b947      	cbnz	r7, 499a <mbedtls_mpi_mod_int.part.1+0x22>
/mnt/disk/raspbian-tee/optee_os/lib/libmbedtls/mbedtls/library/bignum.c:1600
    4988:	f991 1000 	ldrsb.w	r1, [r1]
    498c:	2900      	cmp	r1, #0
    498e:	da01      	bge.n	4994 <mbedtls_mpi_mod_int.part.1+0x1c>
    4990:	b103      	cbz	r3, 4994 <mbedtls_mpi_mod_int.part.1+0x1c>
/mnt/disk/raspbian-tee/optee_os/lib/libmbedtls/mbedtls/library/bignum.c:1601
    4992:	1ad3      	subs	r3, r2, r3
/mnt/disk/raspbian-tee/optee_os/lib/libmbedtls/mbedtls/library/bignum.c:1603
    4994:	6003      	str	r3, [r0, #0]
/mnt/disk/raspbian-tee/optee_os/lib/libmbedtls/mbedtls/library/bignum.c:1606
    4996:	2000      	movs	r0, #0
    4998:	bdf0      	pop	{r4, r5, r6, r7, pc}
/mnt/disk/raspbian-tee/optee_os/lib/libmbedtls/mbedtls/library/bignum.c:1585
    499a:	688d      	ldr	r5, [r1, #8]
/mnt/disk/raspbian-tee/optee_os/lib/libmbedtls/mbedtls/library/bignum.c:1583
    499c:	3f01      	subs	r7, #1
/mnt/disk/raspbian-tee/optee_os/lib/libmbedtls/mbedtls/library/bignum.c:1585
    499e:	592e      	ldr	r6, [r5, r4]
    49a0:	3c04      	subs	r4, #4
/mnt/disk/raspbian-tee/optee_os/lib/libmbedtls/mbedtls/library/bignum.c:1586
    49a2:	0c35      	lsrs	r5, r6, #16
    49a4:	ea45 4303 	orr.w	r3, r5, r3, lsl #16
/mnt/disk/raspbian-tee/optee_os/lib/libmbedtls/mbedtls/library/bignum.c:1591
    49a8:	fbb3 f5f2 	udiv	r5, r3, r2
    49ac:	fb02 3315 	mls	r3, r2, r5, r3
    49b0:	b2b5      	uxth	r5, r6
    49b2:	ea45 4503 	orr.w	r5, r5, r3, lsl #16
    49b6:	fbb5 f3f2 	udiv	r3, r5, r2
    49ba:	fb02 5313 	mls	r3, r2, r3, r5
    49be:	e7e2      	b.n	4986 <mbedtls_mpi_mod_int.part.1+0xe>

000049c0 <mbedtls_mpi_init>:
mpi_init():
/mnt/disk/raspbian-tee/optee_os/lib/libmbedtls/mbedtls/library/bignum.c:90
    49c0:	b130      	cbz	r0, 49d0 <mbedtls_mpi_init+0x10>
/mnt/disk/raspbian-tee/optee_os/lib/libmbedtls/mbedtls/library/bignum.c:93
    49c2:	2301      	movs	r3, #1
    49c4:	7003      	strb	r3, [r0, #0]
/mnt/disk/raspbian-tee/optee_os/lib/libmbedtls/mbedtls/library/bignum.c:94
    49c6:	2300      	movs	r3, #0
    49c8:	7043      	strb	r3, [r0, #1]
/mnt/disk/raspbian-tee/optee_os/lib/libmbedtls/mbedtls/library/bignum.c:95
    49ca:	8043      	strh	r3, [r0, #2]
/mnt/disk/raspbian-tee/optee_os/lib/libmbedtls/mbedtls/library/bignum.c:96
    49cc:	8083      	strh	r3, [r0, #4]
/mnt/disk/raspbian-tee/optee_os/lib/libmbedtls/mbedtls/library/bignum.c:97
    49ce:	6083      	str	r3, [r0, #8]
    49d0:	4770      	bx	lr

000049d2 <mbedtls_mpi_init_mempool>:
mbedtls_mpi_init_mempool():
/mnt/disk/raspbian-tee/optee_os/lib/libmbedtls/mbedtls/library/bignum.c:107
    49d2:	4a08      	ldr	r2, [pc, #32]	; (49f4 <mbedtls_mpi_init_mempool+0x22>)
    49d4:	447a      	add	r2, pc
    49d6:	6812      	ldr	r2, [r2, #0]
    49d8:	b142      	cbz	r2, 49ec <mbedtls_mpi_init_mempool+0x1a>
mpi_init():
/mnt/disk/raspbian-tee/optee_os/lib/libmbedtls/mbedtls/library/bignum.c:90
    49da:	b148      	cbz	r0, 49f0 <mbedtls_mpi_init_mempool+0x1e>
/mnt/disk/raspbian-tee/optee_os/lib/libmbedtls/mbedtls/library/bignum.c:93
    49dc:	2201      	movs	r2, #1
    49de:	7002      	strb	r2, [r0, #0]
/mnt/disk/raspbian-tee/optee_os/lib/libmbedtls/mbedtls/library/bignum.c:94
    49e0:	7042      	strb	r2, [r0, #1]
/mnt/disk/raspbian-tee/optee_os/lib/libmbedtls/mbedtls/library/bignum.c:95
    49e2:	2200      	movs	r2, #0
    49e4:	8042      	strh	r2, [r0, #2]
/mnt/disk/raspbian-tee/optee_os/lib/libmbedtls/mbedtls/library/bignum.c:96
    49e6:	8082      	strh	r2, [r0, #4]
/mnt/disk/raspbian-tee/optee_os/lib/libmbedtls/mbedtls/library/bignum.c:97
    49e8:	6082      	str	r2, [r0, #8]
    49ea:	4770      	bx	lr
mbedtls_mpi_init_mempool():
/mnt/disk/raspbian-tee/optee_os/lib/libmbedtls/mbedtls/library/bignum.c:110
    49ec:	f7ff bfe8 	b.w	49c0 <mbedtls_mpi_init>
    49f0:	4770      	bx	lr
    49f2:	bf00      	nop
    49f4:	000076d4 	.word	0x000076d4

000049f8 <mbedtls_mpi_init_static>:
mpi_init():
/mnt/disk/raspbian-tee/optee_os/lib/libmbedtls/mbedtls/library/bignum.c:90
    49f8:	b130      	cbz	r0, 4a08 <mbedtls_mpi_init_static+0x10>
/mnt/disk/raspbian-tee/optee_os/lib/libmbedtls/mbedtls/library/bignum.c:95
    49fa:	8043      	strh	r3, [r0, #2]
/mnt/disk/raspbian-tee/optee_os/lib/libmbedtls/mbedtls/library/bignum.c:96
    49fc:	9b00      	ldr	r3, [sp, #0]
/mnt/disk/raspbian-tee/optee_os/lib/libmbedtls/mbedtls/library/bignum.c:93
    49fe:	7002      	strb	r2, [r0, #0]
/mnt/disk/raspbian-tee/optee_os/lib/libmbedtls/mbedtls/library/bignum.c:94
    4a00:	2202      	movs	r2, #2
/mnt/disk/raspbian-tee/optee_os/lib/libmbedtls/mbedtls/library/bignum.c:96
    4a02:	8083      	strh	r3, [r0, #4]
/mnt/disk/raspbian-tee/optee_os/lib/libmbedtls/mbedtls/library/bignum.c:94
    4a04:	7042      	strb	r2, [r0, #1]
/mnt/disk/raspbian-tee/optee_os/lib/libmbedtls/mbedtls/library/bignum.c:97
    4a06:	6081      	str	r1, [r0, #8]
    4a08:	4770      	bx	lr

00004a0a <mbedtls_mpi_free>:
mbedtls_mpi_free():
/mnt/disk/raspbian-tee/optee_os/lib/libmbedtls/mbedtls/library/bignum.c:123
    4a0a:	b538      	push	{r3, r4, r5, lr}
/mnt/disk/raspbian-tee/optee_os/lib/libmbedtls/mbedtls/library/bignum.c:124
    4a0c:	4604      	mov	r4, r0
    4a0e:	b178      	cbz	r0, 4a30 <mbedtls_mpi_free+0x26>
/mnt/disk/raspbian-tee/optee_os/lib/libmbedtls/mbedtls/library/bignum.c:127
    4a10:	6881      	ldr	r1, [r0, #8]
    4a12:	b149      	cbz	r1, 4a28 <mbedtls_mpi_free+0x1e>
/mnt/disk/raspbian-tee/optee_os/lib/libmbedtls/mbedtls/library/bignum.c:129
    4a14:	8883      	ldrh	r3, [r0, #4]
    4a16:	460a      	mov	r2, r1
mbedtls_mpi_zeroize():
/mnt/disk/raspbian-tee/optee_os/lib/libmbedtls/mbedtls/library/bignum.c:65
    4a18:	2000      	movs	r0, #0
    4a1a:	f113 33ff 	adds.w	r3, r3, #4294967295	; 0xffffffff
    4a1e:	d208      	bcs.n	4a32 <mbedtls_mpi_free+0x28>
mbedtls_mpi_free():
/mnt/disk/raspbian-tee/optee_os/lib/libmbedtls/mbedtls/library/bignum.c:130
    4a20:	7865      	ldrb	r5, [r4, #1]
    4a22:	b14d      	cbz	r5, 4a38 <mbedtls_mpi_free+0x2e>
    4a24:	2d01      	cmp	r5, #1
    4a26:	d00c      	beq.n	4a42 <mbedtls_mpi_free+0x38>
/mnt/disk/raspbian-tee/optee_os/lib/libmbedtls/mbedtls/library/bignum.c:144
    4a28:	2301      	movs	r3, #1
    4a2a:	7023      	strb	r3, [r4, #0]
/mnt/disk/raspbian-tee/optee_os/lib/libmbedtls/mbedtls/library/bignum.c:145
    4a2c:	2300      	movs	r3, #0
    4a2e:	80a3      	strh	r3, [r4, #4]
    4a30:	bd38      	pop	{r3, r4, r5, pc}
mbedtls_mpi_zeroize():
/mnt/disk/raspbian-tee/optee_os/lib/libmbedtls/mbedtls/library/bignum.c:65
    4a32:	6010      	str	r0, [r2, #0]
    4a34:	3204      	adds	r2, #4
    4a36:	e7f0      	b.n	4a1a <mbedtls_mpi_free+0x10>
mbedtls_mpi_free():
/mnt/disk/raspbian-tee/optee_os/lib/libmbedtls/mbedtls/library/bignum.c:132
    4a38:	4608      	mov	r0, r1
    4a3a:	f002 fc46 	bl	72ca <free>
/mnt/disk/raspbian-tee/optee_os/lib/libmbedtls/mbedtls/library/bignum.c:133
    4a3e:	60a5      	str	r5, [r4, #8]
/mnt/disk/raspbian-tee/optee_os/lib/libmbedtls/mbedtls/library/bignum.c:134
    4a40:	e7f2      	b.n	4a28 <mbedtls_mpi_free+0x1e>
/mnt/disk/raspbian-tee/optee_os/lib/libmbedtls/mbedtls/library/bignum.c:136
    4a42:	4b04      	ldr	r3, [pc, #16]	; (4a54 <mbedtls_mpi_free+0x4a>)
    4a44:	447b      	add	r3, pc
    4a46:	6818      	ldr	r0, [r3, #0]
    4a48:	f002 ff5a 	bl	7900 <mempool_free>
/mnt/disk/raspbian-tee/optee_os/lib/libmbedtls/mbedtls/library/bignum.c:137
    4a4c:	2300      	movs	r3, #0
    4a4e:	60a3      	str	r3, [r4, #8]
/mnt/disk/raspbian-tee/optee_os/lib/libmbedtls/mbedtls/library/bignum.c:138
    4a50:	e7ea      	b.n	4a28 <mbedtls_mpi_free+0x1e>
    4a52:	bf00      	nop
    4a54:	00007664 	.word	0x00007664

00004a58 <mbedtls_mpi_grow>:
mbedtls_mpi_grow():
/mnt/disk/raspbian-tee/optee_os/lib/libmbedtls/mbedtls/library/bignum.c:152
    4a58:	b570      	push	{r4, r5, r6, lr}
/mnt/disk/raspbian-tee/optee_os/lib/libmbedtls/mbedtls/library/bignum.c:155
    4a5a:	f242 7310 	movw	r3, #10000	; 0x2710
/mnt/disk/raspbian-tee/optee_os/lib/libmbedtls/mbedtls/library/bignum.c:152
    4a5e:	4604      	mov	r4, r0
    4a60:	460d      	mov	r5, r1
/mnt/disk/raspbian-tee/optee_os/lib/libmbedtls/mbedtls/library/bignum.c:155
    4a62:	4299      	cmp	r1, r3
    4a64:	d902      	bls.n	4a6c <mbedtls_mpi_grow+0x14>
/mnt/disk/raspbian-tee/optee_os/lib/libmbedtls/mbedtls/library/bignum.c:156
    4a66:	f06f 000f 	mvn.w	r0, #15
    4a6a:	bd70      	pop	{r4, r5, r6, pc}
/mnt/disk/raspbian-tee/optee_os/lib/libmbedtls/mbedtls/library/bignum.c:158
    4a6c:	8883      	ldrh	r3, [r0, #4]
    4a6e:	4299      	cmp	r1, r3
    4a70:	d92d      	bls.n	4ace <mbedtls_mpi_grow+0x76>
/mnt/disk/raspbian-tee/optee_os/lib/libmbedtls/mbedtls/library/bignum.c:161
    4a72:	7842      	ldrb	r2, [r0, #1]
    4a74:	2a01      	cmp	r2, #1
    4a76:	d017      	beq.n	4aa8 <mbedtls_mpi_grow+0x50>
    4a78:	d304      	bcc.n	4a84 <mbedtls_mpi_grow+0x2c>
    4a7a:	2a02      	cmp	r2, #2
    4a7c:	d01b      	beq.n	4ab6 <mbedtls_mpi_grow+0x5e>
/mnt/disk/raspbian-tee/optee_os/lib/libmbedtls/mbedtls/library/bignum.c:174
    4a7e:	f06f 0003 	mvn.w	r0, #3
/mnt/disk/raspbian-tee/optee_os/lib/libmbedtls/mbedtls/library/bignum.c:196
    4a82:	bd70      	pop	{r4, r5, r6, pc}
/mnt/disk/raspbian-tee/optee_os/lib/libmbedtls/mbedtls/library/bignum.c:163
    4a84:	2104      	movs	r1, #4
    4a86:	4628      	mov	r0, r5
    4a88:	f002 fc28 	bl	72dc <calloc>
/mnt/disk/raspbian-tee/optee_os/lib/libmbedtls/mbedtls/library/bignum.c:166
    4a8c:	4606      	mov	r6, r0
/mnt/disk/raspbian-tee/optee_os/lib/libmbedtls/mbedtls/library/bignum.c:177
    4a8e:	2800      	cmp	r0, #0
    4a90:	d0e9      	beq.n	4a66 <mbedtls_mpi_grow+0xe>
/mnt/disk/raspbian-tee/optee_os/lib/libmbedtls/mbedtls/library/bignum.c:180
    4a92:	68a1      	ldr	r1, [r4, #8]
    4a94:	b9e9      	cbnz	r1, 4ad2 <mbedtls_mpi_grow+0x7a>
/mnt/disk/raspbian-tee/optee_os/lib/libmbedtls/mbedtls/library/bignum.c:186
    4a96:	7863      	ldrb	r3, [r4, #1]
    4a98:	b343      	cbz	r3, 4aec <mbedtls_mpi_grow+0x94>
/mnt/disk/raspbian-tee/optee_os/lib/libmbedtls/mbedtls/library/bignum.c:189
    4a9a:	4b17      	ldr	r3, [pc, #92]	; (4af8 <mbedtls_mpi_grow+0xa0>)
    4a9c:	68a1      	ldr	r1, [r4, #8]
    4a9e:	447b      	add	r3, pc
    4aa0:	6818      	ldr	r0, [r3, #0]
    4aa2:	f002 ff2d 	bl	7900 <mempool_free>
    4aa6:	e024      	b.n	4af2 <mbedtls_mpi_grow+0x9a>
/mnt/disk/raspbian-tee/optee_os/lib/libmbedtls/mbedtls/library/bignum.c:166
    4aa8:	4b14      	ldr	r3, [pc, #80]	; (4afc <mbedtls_mpi_grow+0xa4>)
    4aaa:	2204      	movs	r2, #4
    4aac:	447b      	add	r3, pc
    4aae:	6818      	ldr	r0, [r3, #0]
    4ab0:	f002 ff14 	bl	78dc <mempool_calloc>
    4ab4:	e7ea      	b.n	4a8c <mbedtls_mpi_grow+0x34>
/mnt/disk/raspbian-tee/optee_os/lib/libmbedtls/mbedtls/library/bignum.c:169
    4ab6:	8842      	ldrh	r2, [r0, #2]
    4ab8:	4291      	cmp	r1, r2
    4aba:	d8d4      	bhi.n	4a66 <mbedtls_mpi_grow+0xe>
/mnt/disk/raspbian-tee/optee_os/lib/libmbedtls/mbedtls/library/bignum.c:171
    4abc:	6880      	ldr	r0, [r0, #8]
    4abe:	1aca      	subs	r2, r1, r3
    4ac0:	0092      	lsls	r2, r2, #2
    4ac2:	2100      	movs	r1, #0
    4ac4:	eb00 0083 	add.w	r0, r0, r3, lsl #2
    4ac8:	f003 f865 	bl	7b96 <memset>
/mnt/disk/raspbian-tee/optee_os/lib/libmbedtls/mbedtls/library/bignum.c:193
    4acc:	80a5      	strh	r5, [r4, #4]
/mnt/disk/raspbian-tee/optee_os/lib/libmbedtls/mbedtls/library/bignum.c:159
    4ace:	2000      	movs	r0, #0
    4ad0:	bd70      	pop	{r4, r5, r6, pc}
/mnt/disk/raspbian-tee/optee_os/lib/libmbedtls/mbedtls/library/bignum.c:181
    4ad2:	88a2      	ldrh	r2, [r4, #4]
    4ad4:	0092      	lsls	r2, r2, #2
    4ad6:	f003 f839 	bl	7b4c <memcpy>
/mnt/disk/raspbian-tee/optee_os/lib/libmbedtls/mbedtls/library/bignum.c:182
    4ada:	88a3      	ldrh	r3, [r4, #4]
mbedtls_mpi_zeroize():
/mnt/disk/raspbian-tee/optee_os/lib/libmbedtls/mbedtls/library/bignum.c:65
    4adc:	68a2      	ldr	r2, [r4, #8]
    4ade:	2100      	movs	r1, #0
    4ae0:	f113 33ff 	adds.w	r3, r3, #4294967295	; 0xffffffff
    4ae4:	d3d7      	bcc.n	4a96 <mbedtls_mpi_grow+0x3e>
    4ae6:	6011      	str	r1, [r2, #0]
    4ae8:	3204      	adds	r2, #4
    4aea:	e7f9      	b.n	4ae0 <mbedtls_mpi_grow+0x88>
mbedtls_mpi_grow():
/mnt/disk/raspbian-tee/optee_os/lib/libmbedtls/mbedtls/library/bignum.c:187
    4aec:	68a0      	ldr	r0, [r4, #8]
    4aee:	f002 fbec 	bl	72ca <free>
/mnt/disk/raspbian-tee/optee_os/lib/libmbedtls/mbedtls/library/bignum.c:191
    4af2:	60a6      	str	r6, [r4, #8]
    4af4:	e7ea      	b.n	4acc <mbedtls_mpi_grow+0x74>
    4af6:	bf00      	nop
    4af8:	0000760a 	.word	0x0000760a
    4afc:	000075fc 	.word	0x000075fc

00004b00 <mbedtls_mpi_shrink>:
mbedtls_mpi_shrink():
/mnt/disk/raspbian-tee/optee_os/lib/libmbedtls/mbedtls/library/bignum.c:208
    4b00:	8883      	ldrh	r3, [r0, #4]
/mnt/disk/raspbian-tee/optee_os/lib/libmbedtls/mbedtls/library/bignum.c:203
    4b02:	b570      	push	{r4, r5, r6, lr}
    4b04:	4604      	mov	r4, r0
    4b06:	460e      	mov	r6, r1
/mnt/disk/raspbian-tee/optee_os/lib/libmbedtls/mbedtls/library/bignum.c:208
    4b08:	428b      	cmp	r3, r1
    4b0a:	d803      	bhi.n	4b14 <mbedtls_mpi_shrink+0x14>
/mnt/disk/raspbian-tee/optee_os/lib/libmbedtls/mbedtls/library/bignum.c:252
    4b0c:	e8bd 4070 	ldmia.w	sp!, {r4, r5, r6, lr}
/mnt/disk/raspbian-tee/optee_os/lib/libmbedtls/mbedtls/library/bignum.c:209
    4b10:	f7ff bfa2 	b.w	4a58 <mbedtls_mpi_grow>
/mnt/disk/raspbian-tee/optee_os/lib/libmbedtls/mbedtls/library/bignum.c:211
    4b14:	1e5a      	subs	r2, r3, #1
    4b16:	4619      	mov	r1, r3
    4b18:	0092      	lsls	r2, r2, #2
    4b1a:	1e4d      	subs	r5, r1, #1
/mnt/disk/raspbian-tee/optee_os/lib/libmbedtls/mbedtls/library/bignum.c:211 (discriminator 1)
    4b1c:	2901      	cmp	r1, #1
    4b1e:	d101      	bne.n	4b24 <mbedtls_mpi_shrink+0x24>
    4b20:	2500      	movs	r5, #0
    4b22:	e005      	b.n	4b30 <mbedtls_mpi_shrink+0x30>
/mnt/disk/raspbian-tee/optee_os/lib/libmbedtls/mbedtls/library/bignum.c:212
    4b24:	68a1      	ldr	r1, [r4, #8]
    4b26:	5888      	ldr	r0, [r1, r2]
    4b28:	4629      	mov	r1, r5
    4b2a:	3a04      	subs	r2, #4
    4b2c:	2800      	cmp	r0, #0
    4b2e:	d0f4      	beq.n	4b1a <mbedtls_mpi_shrink+0x1a>
/mnt/disk/raspbian-tee/optee_os/lib/libmbedtls/mbedtls/library/bignum.c:214
    4b30:	3501      	adds	r5, #1
/mnt/disk/raspbian-tee/optee_os/lib/libmbedtls/mbedtls/library/bignum.c:219
    4b32:	7862      	ldrb	r2, [r4, #1]
    4b34:	42b5      	cmp	r5, r6
    4b36:	bf38      	it	cc
    4b38:	4635      	movcc	r5, r6
    4b3a:	2a01      	cmp	r2, #1
    4b3c:	d01d      	beq.n	4b7a <mbedtls_mpi_shrink+0x7a>
    4b3e:	d304      	bcc.n	4b4a <mbedtls_mpi_shrink+0x4a>
    4b40:	2a02      	cmp	r2, #2
    4b42:	d022      	beq.n	4b8a <mbedtls_mpi_shrink+0x8a>
/mnt/disk/raspbian-tee/optee_os/lib/libmbedtls/mbedtls/library/bignum.c:233
    4b44:	f06f 0003 	mvn.w	r0, #3
    4b48:	bd70      	pop	{r4, r5, r6, pc}
/mnt/disk/raspbian-tee/optee_os/lib/libmbedtls/mbedtls/library/bignum.c:221
    4b4a:	2104      	movs	r1, #4
    4b4c:	4630      	mov	r0, r6
    4b4e:	f002 fbc5 	bl	72dc <calloc>
/mnt/disk/raspbian-tee/optee_os/lib/libmbedtls/mbedtls/library/bignum.c:237
    4b52:	68a1      	ldr	r1, [r4, #8]
/mnt/disk/raspbian-tee/optee_os/lib/libmbedtls/mbedtls/library/bignum.c:224
    4b54:	4606      	mov	r6, r0
/mnt/disk/raspbian-tee/optee_os/lib/libmbedtls/mbedtls/library/bignum.c:237
    4b56:	b171      	cbz	r1, 4b76 <mbedtls_mpi_shrink+0x76>
/mnt/disk/raspbian-tee/optee_os/lib/libmbedtls/mbedtls/library/bignum.c:239
    4b58:	00aa      	lsls	r2, r5, #2
    4b5a:	f002 fff7 	bl	7b4c <memcpy>
/mnt/disk/raspbian-tee/optee_os/lib/libmbedtls/mbedtls/library/bignum.c:240
    4b5e:	68a1      	ldr	r1, [r4, #8]
    4b60:	88a3      	ldrh	r3, [r4, #4]
mbedtls_mpi_zeroize():
/mnt/disk/raspbian-tee/optee_os/lib/libmbedtls/mbedtls/library/bignum.c:65
    4b62:	2000      	movs	r0, #0
    4b64:	460a      	mov	r2, r1
    4b66:	f113 33ff 	adds.w	r3, r3, #4294967295	; 0xffffffff
    4b6a:	d21f      	bcs.n	4bac <mbedtls_mpi_shrink+0xac>
mbedtls_mpi_shrink():
/mnt/disk/raspbian-tee/optee_os/lib/libmbedtls/mbedtls/library/bignum.c:241
    4b6c:	7863      	ldrb	r3, [r4, #1]
    4b6e:	bb03      	cbnz	r3, 4bb2 <mbedtls_mpi_shrink+0xb2>
/mnt/disk/raspbian-tee/optee_os/lib/libmbedtls/mbedtls/library/bignum.c:242
    4b70:	4608      	mov	r0, r1
    4b72:	f002 fbaa 	bl	72ca <free>
/mnt/disk/raspbian-tee/optee_os/lib/libmbedtls/mbedtls/library/bignum.c:247
    4b76:	60a6      	str	r6, [r4, #8]
    4b78:	e012      	b.n	4ba0 <mbedtls_mpi_shrink+0xa0>
/mnt/disk/raspbian-tee/optee_os/lib/libmbedtls/mbedtls/library/bignum.c:224
    4b7a:	4b12      	ldr	r3, [pc, #72]	; (4bc4 <mbedtls_mpi_shrink+0xc4>)
    4b7c:	2204      	movs	r2, #4
    4b7e:	4631      	mov	r1, r6
    4b80:	447b      	add	r3, pc
    4b82:	6818      	ldr	r0, [r3, #0]
    4b84:	f002 feaa 	bl	78dc <mempool_calloc>
    4b88:	e7e3      	b.n	4b52 <mbedtls_mpi_shrink+0x52>
/mnt/disk/raspbian-tee/optee_os/lib/libmbedtls/mbedtls/library/bignum.c:227
    4b8a:	8862      	ldrh	r2, [r4, #2]
    4b8c:	4296      	cmp	r6, r2
    4b8e:	d816      	bhi.n	4bbe <mbedtls_mpi_shrink+0xbe>
/mnt/disk/raspbian-tee/optee_os/lib/libmbedtls/mbedtls/library/bignum.c:229
    4b90:	68a2      	ldr	r2, [r4, #8]
    4b92:	1b5b      	subs	r3, r3, r5
mbedtls_mpi_zeroize():
/mnt/disk/raspbian-tee/optee_os/lib/libmbedtls/mbedtls/library/bignum.c:65
    4b94:	2100      	movs	r1, #0
    4b96:	eb02 0285 	add.w	r2, r2, r5, lsl #2
    4b9a:	f113 33ff 	adds.w	r3, r3, #4294967295	; 0xffffffff
    4b9e:	d202      	bcs.n	4ba6 <mbedtls_mpi_shrink+0xa6>
mbedtls_mpi_shrink():
/mnt/disk/raspbian-tee/optee_os/lib/libmbedtls/mbedtls/library/bignum.c:249
    4ba0:	80a5      	strh	r5, [r4, #4]
/mnt/disk/raspbian-tee/optee_os/lib/libmbedtls/mbedtls/library/bignum.c:251
    4ba2:	2000      	movs	r0, #0
    4ba4:	bd70      	pop	{r4, r5, r6, pc}
mbedtls_mpi_zeroize():
/mnt/disk/raspbian-tee/optee_os/lib/libmbedtls/mbedtls/library/bignum.c:65
    4ba6:	6011      	str	r1, [r2, #0]
    4ba8:	3204      	adds	r2, #4
    4baa:	e7f6      	b.n	4b9a <mbedtls_mpi_shrink+0x9a>
    4bac:	6010      	str	r0, [r2, #0]
    4bae:	3204      	adds	r2, #4
    4bb0:	e7d9      	b.n	4b66 <mbedtls_mpi_shrink+0x66>
mbedtls_mpi_shrink():
/mnt/disk/raspbian-tee/optee_os/lib/libmbedtls/mbedtls/library/bignum.c:244
    4bb2:	4b05      	ldr	r3, [pc, #20]	; (4bc8 <mbedtls_mpi_shrink+0xc8>)
    4bb4:	447b      	add	r3, pc
    4bb6:	6818      	ldr	r0, [r3, #0]
    4bb8:	f002 fea2 	bl	7900 <mempool_free>
    4bbc:	e7db      	b.n	4b76 <mbedtls_mpi_shrink+0x76>
/mnt/disk/raspbian-tee/optee_os/lib/libmbedtls/mbedtls/library/bignum.c:228
    4bbe:	f06f 000f 	mvn.w	r0, #15
/mnt/disk/raspbian-tee/optee_os/lib/libmbedtls/mbedtls/library/bignum.c:252
    4bc2:	bd70      	pop	{r4, r5, r6, pc}
    4bc4:	00007528 	.word	0x00007528
    4bc8:	000074f4 	.word	0x000074f4

00004bcc <mbedtls_mpi_copy>:
mbedtls_mpi_copy():
/mnt/disk/raspbian-tee/optee_os/lib/libmbedtls/mbedtls/library/bignum.c:258
    4bcc:	b5f8      	push	{r3, r4, r5, r6, r7, lr}
/mnt/disk/raspbian-tee/optee_os/lib/libmbedtls/mbedtls/library/bignum.c:262
    4bce:	4288      	cmp	r0, r1
/mnt/disk/raspbian-tee/optee_os/lib/libmbedtls/mbedtls/library/bignum.c:258
    4bd0:	4606      	mov	r6, r0
    4bd2:	460f      	mov	r7, r1
/mnt/disk/raspbian-tee/optee_os/lib/libmbedtls/mbedtls/library/bignum.c:262
    4bd4:	d023      	beq.n	4c1e <mbedtls_mpi_copy+0x52>
/mnt/disk/raspbian-tee/optee_os/lib/libmbedtls/mbedtls/library/bignum.c:265
    4bd6:	688d      	ldr	r5, [r1, #8]
    4bd8:	b91d      	cbnz	r5, 4be2 <mbedtls_mpi_copy+0x16>
/mnt/disk/raspbian-tee/optee_os/lib/libmbedtls/mbedtls/library/bignum.c:267
    4bda:	f7ff ff16 	bl	4a0a <mbedtls_mpi_free>
/mnt/disk/raspbian-tee/optee_os/lib/libmbedtls/mbedtls/library/bignum.c:286
    4bde:	4628      	mov	r0, r5
    4be0:	bdf8      	pop	{r3, r4, r5, r6, r7, pc}
/mnt/disk/raspbian-tee/optee_os/lib/libmbedtls/mbedtls/library/bignum.c:271
    4be2:	888a      	ldrh	r2, [r1, #4]
/mnt/disk/raspbian-tee/optee_os/lib/libmbedtls/mbedtls/library/bignum.c:271 (discriminator 2)
    4be4:	3a01      	subs	r2, #1
    4be6:	b11a      	cbz	r2, 4bf0 <mbedtls_mpi_copy+0x24>
/mnt/disk/raspbian-tee/optee_os/lib/libmbedtls/mbedtls/library/bignum.c:272
    4be8:	f855 3022 	ldr.w	r3, [r5, r2, lsl #2]
    4bec:	2b00      	cmp	r3, #0
    4bee:	d0f9      	beq.n	4be4 <mbedtls_mpi_copy+0x18>
/mnt/disk/raspbian-tee/optee_os/lib/libmbedtls/mbedtls/library/bignum.c:274
    4bf0:	1c54      	adds	r4, r2, #1
/mnt/disk/raspbian-tee/optee_os/lib/libmbedtls/mbedtls/library/bignum.c:276
    4bf2:	f997 3000 	ldrsb.w	r3, [r7]
    4bf6:	7033      	strb	r3, [r6, #0]
/mnt/disk/raspbian-tee/optee_os/lib/libmbedtls/mbedtls/library/bignum.c:278
    4bf8:	4621      	mov	r1, r4
    4bfa:	4630      	mov	r0, r6
    4bfc:	f7ff ff2c 	bl	4a58 <mbedtls_mpi_grow>
    4c00:	4605      	mov	r5, r0
    4c02:	2800      	cmp	r0, #0
    4c04:	d1eb      	bne.n	4bde <mbedtls_mpi_copy+0x12>
/mnt/disk/raspbian-tee/optee_os/lib/libmbedtls/mbedtls/library/bignum.c:280
    4c06:	88b2      	ldrh	r2, [r6, #4]
    4c08:	4601      	mov	r1, r0
    4c0a:	68b0      	ldr	r0, [r6, #8]
    4c0c:	0092      	lsls	r2, r2, #2
    4c0e:	f002 ffc2 	bl	7b96 <memset>
/mnt/disk/raspbian-tee/optee_os/lib/libmbedtls/mbedtls/library/bignum.c:281
    4c12:	00a2      	lsls	r2, r4, #2
    4c14:	68b9      	ldr	r1, [r7, #8]
    4c16:	68b0      	ldr	r0, [r6, #8]
    4c18:	f002 ff98 	bl	7b4c <memcpy>
    4c1c:	e7df      	b.n	4bde <mbedtls_mpi_copy+0x12>
/mnt/disk/raspbian-tee/optee_os/lib/libmbedtls/mbedtls/library/bignum.c:263
    4c1e:	2500      	movs	r5, #0
    4c20:	e7dd      	b.n	4bde <mbedtls_mpi_copy+0x12>

00004c22 <mbedtls_mpi_swap>:
mbedtls_mpi_swap():
/mnt/disk/raspbian-tee/optee_os/lib/libmbedtls/mbedtls/library/bignum.c:292
    4c22:	b5f0      	push	{r4, r5, r6, r7, lr}
/mnt/disk/raspbian-tee/optee_os/lib/libmbedtls/mbedtls/library/bignum.c:295
    4c24:	250c      	movs	r5, #12
/mnt/disk/raspbian-tee/optee_os/lib/libmbedtls/mbedtls/library/bignum.c:292
    4c26:	460e      	mov	r6, r1
    4c28:	b085      	sub	sp, #20
    4c2a:	4607      	mov	r7, r0
/mnt/disk/raspbian-tee/optee_os/lib/libmbedtls/mbedtls/library/bignum.c:295
    4c2c:	ac01      	add	r4, sp, #4
    4c2e:	462a      	mov	r2, r5
    4c30:	4601      	mov	r1, r0
    4c32:	4620      	mov	r0, r4
    4c34:	f002 ff8a 	bl	7b4c <memcpy>
/mnt/disk/raspbian-tee/optee_os/lib/libmbedtls/mbedtls/library/bignum.c:296
    4c38:	462a      	mov	r2, r5
    4c3a:	4631      	mov	r1, r6
    4c3c:	4638      	mov	r0, r7
    4c3e:	f002 ff85 	bl	7b4c <memcpy>
/mnt/disk/raspbian-tee/optee_os/lib/libmbedtls/mbedtls/library/bignum.c:297
    4c42:	462a      	mov	r2, r5
    4c44:	4621      	mov	r1, r4
    4c46:	4630      	mov	r0, r6
    4c48:	f002 ff80 	bl	7b4c <memcpy>
/mnt/disk/raspbian-tee/optee_os/lib/libmbedtls/mbedtls/library/bignum.c:298
    4c4c:	b005      	add	sp, #20
    4c4e:	bdf0      	pop	{r4, r5, r6, r7, pc}

00004c50 <mbedtls_mpi_safe_cond_assign>:
mbedtls_mpi_safe_cond_assign():
/mnt/disk/raspbian-tee/optee_os/lib/libmbedtls/mbedtls/library/bignum.c:306
    4c50:	e92d 41f0 	stmdb	sp!, {r4, r5, r6, r7, r8, lr}
    4c54:	460e      	mov	r6, r1
/mnt/disk/raspbian-tee/optee_os/lib/libmbedtls/mbedtls/library/bignum.c:313
    4c56:	8889      	ldrh	r1, [r1, #4]
/mnt/disk/raspbian-tee/optee_os/lib/libmbedtls/mbedtls/library/bignum.c:306
    4c58:	4605      	mov	r5, r0
    4c5a:	4614      	mov	r4, r2
/mnt/disk/raspbian-tee/optee_os/lib/libmbedtls/mbedtls/library/bignum.c:313
    4c5c:	f7ff fefc 	bl	4a58 <mbedtls_mpi_grow>
    4c60:	b9a0      	cbnz	r0, 4c8c <mbedtls_mpi_safe_cond_assign+0x3c>
/mnt/disk/raspbian-tee/optee_os/lib/libmbedtls/mbedtls/library/bignum.c:311
    4c62:	4262      	negs	r2, r4
/mnt/disk/raspbian-tee/optee_os/lib/libmbedtls/mbedtls/library/bignum.c:315
    4c64:	7831      	ldrb	r1, [r6, #0]
/mnt/disk/raspbian-tee/optee_os/lib/libmbedtls/mbedtls/library/bignum.c:311
    4c66:	4322      	orrs	r2, r4
/mnt/disk/raspbian-tee/optee_os/lib/libmbedtls/mbedtls/library/bignum.c:315
    4c68:	782b      	ldrb	r3, [r5, #0]
/mnt/disk/raspbian-tee/optee_os/lib/libmbedtls/mbedtls/library/bignum.c:311
    4c6a:	f3c2 12c0 	ubfx	r2, r2, #7, #1
/mnt/disk/raspbian-tee/optee_os/lib/libmbedtls/mbedtls/library/bignum.c:315
    4c6e:	f1c2 0401 	rsb	r4, r2, #1
    4c72:	fb11 f102 	smulbb	r1, r1, r2
    4c76:	fb03 1304 	mla	r3, r3, r4, r1
    4c7a:	702b      	strb	r3, [r5, #0]
/mnt/disk/raspbian-tee/optee_os/lib/libmbedtls/mbedtls/library/bignum.c:317
    4c7c:	4603      	mov	r3, r0
    4c7e:	88b1      	ldrh	r1, [r6, #4]
/mnt/disk/raspbian-tee/optee_os/lib/libmbedtls/mbedtls/library/bignum.c:317 (discriminator 1)
    4c80:	428b      	cmp	r3, r1
    4c82:	d305      	bcc.n	4c90 <mbedtls_mpi_safe_cond_assign+0x40>
/mnt/disk/raspbian-tee/optee_os/lib/libmbedtls/mbedtls/library/bignum.c:320
    4c84:	88af      	ldrh	r7, [r5, #4]
    4c86:	008b      	lsls	r3, r1, #2
/mnt/disk/raspbian-tee/optee_os/lib/libmbedtls/mbedtls/library/bignum.c:320 (discriminator 1)
    4c88:	42b9      	cmp	r1, r7
    4c8a:	d310      	bcc.n	4cae <mbedtls_mpi_safe_cond_assign+0x5e>
/mnt/disk/raspbian-tee/optee_os/lib/libmbedtls/mbedtls/library/bignum.c:325
    4c8c:	e8bd 81f0 	ldmia.w	sp!, {r4, r5, r6, r7, r8, pc}
/mnt/disk/raspbian-tee/optee_os/lib/libmbedtls/mbedtls/library/bignum.c:318 (discriminator 3)
    4c90:	68b7      	ldr	r7, [r6, #8]
    4c92:	f8d5 e008 	ldr.w	lr, [r5, #8]
    4c96:	f857 8023 	ldr.w	r8, [r7, r3, lsl #2]
    4c9a:	f85e 7023 	ldr.w	r7, [lr, r3, lsl #2]
    4c9e:	fb07 fc04 	mul.w	ip, r7, r4
    4ca2:	fb08 c702 	mla	r7, r8, r2, ip
    4ca6:	f84e 7023 	str.w	r7, [lr, r3, lsl #2]
/mnt/disk/raspbian-tee/optee_os/lib/libmbedtls/mbedtls/library/bignum.c:317 (discriminator 3)
    4caa:	3301      	adds	r3, #1
    4cac:	e7e8      	b.n	4c80 <mbedtls_mpi_safe_cond_assign+0x30>
/mnt/disk/raspbian-tee/optee_os/lib/libmbedtls/mbedtls/library/bignum.c:321 (discriminator 2)
    4cae:	68ae      	ldr	r6, [r5, #8]
/mnt/disk/raspbian-tee/optee_os/lib/libmbedtls/mbedtls/library/bignum.c:320 (discriminator 2)
    4cb0:	3101      	adds	r1, #1
/mnt/disk/raspbian-tee/optee_os/lib/libmbedtls/mbedtls/library/bignum.c:321 (discriminator 2)
    4cb2:	58f2      	ldr	r2, [r6, r3]
    4cb4:	4362      	muls	r2, r4
    4cb6:	50f2      	str	r2, [r6, r3]
    4cb8:	3304      	adds	r3, #4
    4cba:	e7e5      	b.n	4c88 <mbedtls_mpi_safe_cond_assign+0x38>

00004cbc <mbedtls_mpi_safe_cond_swap>:
mbedtls_mpi_safe_cond_swap():
/mnt/disk/raspbian-tee/optee_os/lib/libmbedtls/mbedtls/library/bignum.c:334
    4cbc:	e92d 41f0 	stmdb	sp!, {r4, r5, r6, r7, r8, lr}
/mnt/disk/raspbian-tee/optee_os/lib/libmbedtls/mbedtls/library/bignum.c:339
    4cc0:	4288      	cmp	r0, r1
/mnt/disk/raspbian-tee/optee_os/lib/libmbedtls/mbedtls/library/bignum.c:334
    4cc2:	4605      	mov	r5, r0
    4cc4:	460c      	mov	r4, r1
    4cc6:	4616      	mov	r6, r2
/mnt/disk/raspbian-tee/optee_os/lib/libmbedtls/mbedtls/library/bignum.c:339
    4cc8:	d102      	bne.n	4cd0 <mbedtls_mpi_safe_cond_swap+0x14>
/mnt/disk/raspbian-tee/optee_os/lib/libmbedtls/mbedtls/library/bignum.c:340
    4cca:	2000      	movs	r0, #0
    4ccc:	e8bd 81f0 	ldmia.w	sp!, {r4, r5, r6, r7, r8, pc}
/mnt/disk/raspbian-tee/optee_os/lib/libmbedtls/mbedtls/library/bignum.c:345
    4cd0:	8889      	ldrh	r1, [r1, #4]
    4cd2:	f7ff fec1 	bl	4a58 <mbedtls_mpi_grow>
    4cd6:	bb90      	cbnz	r0, 4d3e <mbedtls_mpi_safe_cond_swap+0x82>
/mnt/disk/raspbian-tee/optee_os/lib/libmbedtls/mbedtls/library/bignum.c:346
    4cd8:	88a9      	ldrh	r1, [r5, #4]
    4cda:	4620      	mov	r0, r4
    4cdc:	f7ff febc 	bl	4a58 <mbedtls_mpi_grow>
    4ce0:	bb68      	cbnz	r0, 4d3e <mbedtls_mpi_safe_cond_swap+0x82>
/mnt/disk/raspbian-tee/optee_os/lib/libmbedtls/mbedtls/library/bignum.c:343
    4ce2:	4272      	negs	r2, r6
/mnt/disk/raspbian-tee/optee_os/lib/libmbedtls/mbedtls/library/bignum.c:349
    4ce4:	7829      	ldrb	r1, [r5, #0]
/mnt/disk/raspbian-tee/optee_os/lib/libmbedtls/mbedtls/library/bignum.c:343
    4ce6:	4332      	orrs	r2, r6
/mnt/disk/raspbian-tee/optee_os/lib/libmbedtls/mbedtls/library/bignum.c:349
    4ce8:	7827      	ldrb	r7, [r4, #0]
/mnt/disk/raspbian-tee/optee_os/lib/libmbedtls/mbedtls/library/bignum.c:343
    4cea:	f3c2 12c0 	ubfx	r2, r2, #7, #1
/mnt/disk/raspbian-tee/optee_os/lib/libmbedtls/mbedtls/library/bignum.c:349
    4cee:	f1c2 0601 	rsb	r6, r2, #1
    4cf2:	b2f3      	uxtb	r3, r6
    4cf4:	fb11 fc03 	smulbb	ip, r1, r3
    4cf8:	fb07 c702 	mla	r7, r7, r2, ip
    4cfc:	702f      	strb	r7, [r5, #0]
/mnt/disk/raspbian-tee/optee_os/lib/libmbedtls/mbedtls/library/bignum.c:350
    4cfe:	fb12 f101 	smulbb	r1, r2, r1
    4d02:	7827      	ldrb	r7, [r4, #0]
    4d04:	fb07 1303 	mla	r3, r7, r3, r1
    4d08:	7023      	strb	r3, [r4, #0]
/mnt/disk/raspbian-tee/optee_os/lib/libmbedtls/mbedtls/library/bignum.c:353
    4d0a:	f8b5 c004 	ldrh.w	ip, [r5, #4]
/mnt/disk/raspbian-tee/optee_os/lib/libmbedtls/mbedtls/library/bignum.c:353 (discriminator 1)
    4d0e:	4560      	cmp	r0, ip
    4d10:	d2db      	bcs.n	4cca <mbedtls_mpi_safe_cond_swap+0xe>
/mnt/disk/raspbian-tee/optee_os/lib/libmbedtls/mbedtls/library/bignum.c:355 (discriminator 3)
    4d12:	f8d5 e008 	ldr.w	lr, [r5, #8]
/mnt/disk/raspbian-tee/optee_os/lib/libmbedtls/mbedtls/library/bignum.c:356 (discriminator 3)
    4d16:	68a7      	ldr	r7, [r4, #8]
/mnt/disk/raspbian-tee/optee_os/lib/libmbedtls/mbedtls/library/bignum.c:355 (discriminator 3)
    4d18:	f85e 3020 	ldr.w	r3, [lr, r0, lsl #2]
/mnt/disk/raspbian-tee/optee_os/lib/libmbedtls/mbedtls/library/bignum.c:356 (discriminator 3)
    4d1c:	f857 1020 	ldr.w	r1, [r7, r0, lsl #2]
    4d20:	fb06 f803 	mul.w	r8, r6, r3
    4d24:	fb01 8102 	mla	r1, r1, r2, r8
    4d28:	f84e 1020 	str.w	r1, [lr, r0, lsl #2]
/mnt/disk/raspbian-tee/optee_os/lib/libmbedtls/mbedtls/library/bignum.c:357 (discriminator 3)
    4d2c:	4353      	muls	r3, r2
    4d2e:	f857 1020 	ldr.w	r1, [r7, r0, lsl #2]
    4d32:	fb01 3306 	mla	r3, r1, r6, r3
    4d36:	f847 3020 	str.w	r3, [r7, r0, lsl #2]
/mnt/disk/raspbian-tee/optee_os/lib/libmbedtls/mbedtls/library/bignum.c:353 (discriminator 3)
    4d3a:	3001      	adds	r0, #1
    4d3c:	e7e7      	b.n	4d0e <mbedtls_mpi_safe_cond_swap+0x52>
/mnt/disk/raspbian-tee/optee_os/lib/libmbedtls/mbedtls/library/bignum.c:362
    4d3e:	e8bd 81f0 	ldmia.w	sp!, {r4, r5, r6, r7, r8, pc}

00004d42 <mbedtls_mpi_lset>:
mbedtls_mpi_lset():
/mnt/disk/raspbian-tee/optee_os/lib/libmbedtls/mbedtls/library/bignum.c:368
    4d42:	b570      	push	{r4, r5, r6, lr}
    4d44:	460e      	mov	r6, r1
/mnt/disk/raspbian-tee/optee_os/lib/libmbedtls/mbedtls/library/bignum.c:371
    4d46:	2101      	movs	r1, #1
/mnt/disk/raspbian-tee/optee_os/lib/libmbedtls/mbedtls/library/bignum.c:368
    4d48:	4604      	mov	r4, r0
/mnt/disk/raspbian-tee/optee_os/lib/libmbedtls/mbedtls/library/bignum.c:371
    4d4a:	f7ff fe85 	bl	4a58 <mbedtls_mpi_grow>
    4d4e:	4605      	mov	r5, r0
    4d50:	b988      	cbnz	r0, 4d76 <mbedtls_mpi_lset+0x34>
/mnt/disk/raspbian-tee/optee_os/lib/libmbedtls/mbedtls/library/bignum.c:372
    4d52:	88a2      	ldrh	r2, [r4, #4]
    4d54:	4601      	mov	r1, r0
    4d56:	68a0      	ldr	r0, [r4, #8]
    4d58:	0092      	lsls	r2, r2, #2
    4d5a:	f002 ff1c 	bl	7b96 <memset>
/mnt/disk/raspbian-tee/optee_os/lib/libmbedtls/mbedtls/library/bignum.c:374
    4d5e:	68a3      	ldr	r3, [r4, #8]
    4d60:	ea86 72e6 	eor.w	r2, r6, r6, asr #31
/mnt/disk/raspbian-tee/optee_os/lib/libmbedtls/mbedtls/library/bignum.c:375
    4d64:	2e00      	cmp	r6, #0
/mnt/disk/raspbian-tee/optee_os/lib/libmbedtls/mbedtls/library/bignum.c:374
    4d66:	eba2 72e6 	sub.w	r2, r2, r6, asr #31
    4d6a:	601a      	str	r2, [r3, #0]
/mnt/disk/raspbian-tee/optee_os/lib/libmbedtls/mbedtls/library/bignum.c:375
    4d6c:	f04f 33ff 	mov.w	r3, #4294967295	; 0xffffffff
    4d70:	bfa8      	it	ge
    4d72:	2301      	movge	r3, #1
    4d74:	7023      	strb	r3, [r4, #0]
/mnt/disk/raspbian-tee/optee_os/lib/libmbedtls/mbedtls/library/bignum.c:380
    4d76:	4628      	mov	r0, r5
    4d78:	bd70      	pop	{r4, r5, r6, pc}

00004d7a <mbedtls_mpi_get_bit>:
mbedtls_mpi_get_bit():
/mnt/disk/raspbian-tee/optee_os/lib/libmbedtls/mbedtls/library/bignum.c:387
    4d7a:	8883      	ldrh	r3, [r0, #4]
    4d7c:	ebb1 1f43 	cmp.w	r1, r3, lsl #5
    4d80:	d209      	bcs.n	4d96 <mbedtls_mpi_get_bit+0x1c>
/mnt/disk/raspbian-tee/optee_os/lib/libmbedtls/mbedtls/library/bignum.c:390
    4d82:	094a      	lsrs	r2, r1, #5
    4d84:	6883      	ldr	r3, [r0, #8]
    4d86:	f001 011f 	and.w	r1, r1, #31
    4d8a:	f853 0022 	ldr.w	r0, [r3, r2, lsl #2]
    4d8e:	40c8      	lsrs	r0, r1
    4d90:	f000 0001 	and.w	r0, r0, #1
    4d94:	4770      	bx	lr
/mnt/disk/raspbian-tee/optee_os/lib/libmbedtls/mbedtls/library/bignum.c:388
    4d96:	2000      	movs	r0, #0
/mnt/disk/raspbian-tee/optee_os/lib/libmbedtls/mbedtls/library/bignum.c:391
    4d98:	4770      	bx	lr

00004d9a <mbedtls_mpi_set_bit>:
mbedtls_mpi_set_bit():
/mnt/disk/raspbian-tee/optee_os/lib/libmbedtls/mbedtls/library/bignum.c:397
    4d9a:	b5f8      	push	{r3, r4, r5, r6, r7, lr}
/mnt/disk/raspbian-tee/optee_os/lib/libmbedtls/mbedtls/library/bignum.c:402
    4d9c:	2a01      	cmp	r2, #1
/mnt/disk/raspbian-tee/optee_os/lib/libmbedtls/mbedtls/library/bignum.c:397
    4d9e:	4607      	mov	r7, r0
    4da0:	460c      	mov	r4, r1
    4da2:	4615      	mov	r5, r2
/mnt/disk/raspbian-tee/optee_os/lib/libmbedtls/mbedtls/library/bignum.c:399
    4da4:	ea4f 1651 	mov.w	r6, r1, lsr #5
/mnt/disk/raspbian-tee/optee_os/lib/libmbedtls/mbedtls/library/bignum.c:402
    4da8:	d81c      	bhi.n	4de4 <mbedtls_mpi_set_bit+0x4a>
/mnt/disk/raspbian-tee/optee_os/lib/libmbedtls/mbedtls/library/bignum.c:405
    4daa:	8883      	ldrh	r3, [r0, #4]
    4dac:	ebb1 1f43 	cmp.w	r1, r3, lsl #5
    4db0:	d210      	bcs.n	4dd4 <mbedtls_mpi_set_bit+0x3a>
/mnt/disk/raspbian-tee/optee_os/lib/libmbedtls/mbedtls/library/bignum.c:413
    4db2:	68b9      	ldr	r1, [r7, #8]
/mnt/disk/raspbian-tee/optee_os/lib/libmbedtls/mbedtls/library/bignum.c:400
    4db4:	f004 041f 	and.w	r4, r4, #31
/mnt/disk/raspbian-tee/optee_os/lib/libmbedtls/mbedtls/library/bignum.c:413
    4db8:	2301      	movs	r3, #1
    4dba:	fa03 f204 	lsl.w	r2, r3, r4
    4dbe:	f851 3026 	ldr.w	r3, [r1, r6, lsl #2]
/mnt/disk/raspbian-tee/optee_os/lib/libmbedtls/mbedtls/library/bignum.c:414
    4dc2:	fa05 f404 	lsl.w	r4, r5, r4
/mnt/disk/raspbian-tee/optee_os/lib/libmbedtls/mbedtls/library/bignum.c:413
    4dc6:	ea23 0302 	bic.w	r3, r3, r2
/mnt/disk/raspbian-tee/optee_os/lib/libmbedtls/mbedtls/library/bignum.c:414
    4dca:	431c      	orrs	r4, r3
    4dcc:	f841 4026 	str.w	r4, [r1, r6, lsl #2]
    4dd0:	2000      	movs	r0, #0
    4dd2:	bdf8      	pop	{r3, r4, r5, r6, r7, pc}
/mnt/disk/raspbian-tee/optee_os/lib/libmbedtls/mbedtls/library/bignum.c:407
    4dd4:	2a00      	cmp	r2, #0
    4dd6:	d0fb      	beq.n	4dd0 <mbedtls_mpi_set_bit+0x36>
/mnt/disk/raspbian-tee/optee_os/lib/libmbedtls/mbedtls/library/bignum.c:410
    4dd8:	1c71      	adds	r1, r6, #1
    4dda:	f7ff fe3d 	bl	4a58 <mbedtls_mpi_grow>
    4dde:	2800      	cmp	r0, #0
    4de0:	d0e7      	beq.n	4db2 <mbedtls_mpi_set_bit+0x18>
    4de2:	bdf8      	pop	{r3, r4, r5, r6, r7, pc}
/mnt/disk/raspbian-tee/optee_os/lib/libmbedtls/mbedtls/library/bignum.c:403
    4de4:	f06f 0003 	mvn.w	r0, #3
    4de8:	bdf8      	pop	{r3, r4, r5, r6, r7, pc}

00004dea <mbedtls_mpi_lsb>:
mbedtls_mpi_lsb():
/mnt/disk/raspbian-tee/optee_os/lib/libmbedtls/mbedtls/library/bignum.c:425
    4dea:	b570      	push	{r4, r5, r6, lr}
/mnt/disk/raspbian-tee/optee_os/lib/libmbedtls/mbedtls/library/bignum.c:426
    4dec:	2300      	movs	r3, #0
/mnt/disk/raspbian-tee/optee_os/lib/libmbedtls/mbedtls/library/bignum.c:428
    4dee:	8885      	ldrh	r5, [r0, #4]
    4df0:	4619      	mov	r1, r3
/mnt/disk/raspbian-tee/optee_os/lib/libmbedtls/mbedtls/library/bignum.c:428 (discriminator 1)
    4df2:	42a9      	cmp	r1, r5
    4df4:	d20d      	bcs.n	4e12 <mbedtls_mpi_lsb+0x28>
/mnt/disk/raspbian-tee/optee_os/lib/libmbedtls/mbedtls/library/bignum.c:430
    4df6:	6882      	ldr	r2, [r0, #8]
    4df8:	f852 4021 	ldr.w	r4, [r2, r1, lsl #2]
    4dfc:	2200      	movs	r2, #0
    4dfe:	fa24 f602 	lsr.w	r6, r4, r2
    4e02:	07f6      	lsls	r6, r6, #31
    4e04:	d406      	bmi.n	4e14 <mbedtls_mpi_lsb+0x2a>
/mnt/disk/raspbian-tee/optee_os/lib/libmbedtls/mbedtls/library/bignum.c:429 (discriminator 2)
    4e06:	3201      	adds	r2, #1
    4e08:	3301      	adds	r3, #1
    4e0a:	2a20      	cmp	r2, #32
    4e0c:	d1f7      	bne.n	4dfe <mbedtls_mpi_lsb+0x14>
/mnt/disk/raspbian-tee/optee_os/lib/libmbedtls/mbedtls/library/bignum.c:428 (discriminator 2)
    4e0e:	3101      	adds	r1, #1
    4e10:	e7ef      	b.n	4df2 <mbedtls_mpi_lsb+0x8>
/mnt/disk/raspbian-tee/optee_os/lib/libmbedtls/mbedtls/library/bignum.c:433
    4e12:	2300      	movs	r3, #0
/mnt/disk/raspbian-tee/optee_os/lib/libmbedtls/mbedtls/library/bignum.c:434
    4e14:	4618      	mov	r0, r3
    4e16:	bd70      	pop	{r4, r5, r6, pc}

00004e18 <mbedtls_mpi_bitlen>:
mbedtls_mpi_bitlen():
/mnt/disk/raspbian-tee/optee_os/lib/libmbedtls/mbedtls/library/bignum.c:461
    4e18:	8883      	ldrh	r3, [r0, #4]
/mnt/disk/raspbian-tee/optee_os/lib/libmbedtls/mbedtls/library/bignum.c:458
    4e1a:	b530      	push	{r4, r5, lr}
/mnt/disk/raspbian-tee/optee_os/lib/libmbedtls/mbedtls/library/bignum.c:461
    4e1c:	b1db      	cbz	r3, 4e56 <mbedtls_mpi_bitlen+0x3e>
/mnt/disk/raspbian-tee/optee_os/lib/libmbedtls/mbedtls/library/bignum.c:464
    4e1e:	1e5a      	subs	r2, r3, #1
    4e20:	0092      	lsls	r2, r2, #2
    4e22:	1e59      	subs	r1, r3, #1
/mnt/disk/raspbian-tee/optee_os/lib/libmbedtls/mbedtls/library/bignum.c:464 (discriminator 1)
    4e24:	2b01      	cmp	r3, #1
    4e26:	6884      	ldr	r4, [r0, #8]
    4e28:	d101      	bne.n	4e2e <mbedtls_mpi_bitlen+0x16>
    4e2a:	2100      	movs	r1, #0
    4e2c:	e004      	b.n	4e38 <mbedtls_mpi_bitlen+0x20>
/mnt/disk/raspbian-tee/optee_os/lib/libmbedtls/mbedtls/library/bignum.c:465
    4e2e:	58a5      	ldr	r5, [r4, r2]
    4e30:	460b      	mov	r3, r1
    4e32:	3a04      	subs	r2, #4
    4e34:	2d00      	cmp	r5, #0
    4e36:	d0f4      	beq.n	4e22 <mbedtls_mpi_bitlen+0xa>
/mnt/disk/raspbian-tee/optee_os/lib/libmbedtls/mbedtls/library/bignum.c:468
    4e38:	f854 2021 	ldr.w	r2, [r4, r1, lsl #2]
mbedtls_clz():
/mnt/disk/raspbian-tee/optee_os/lib/libmbedtls/mbedtls/library/bignum.c:444
    4e3c:	2000      	movs	r0, #0
/mnt/disk/raspbian-tee/optee_os/lib/libmbedtls/mbedtls/library/bignum.c:442
    4e3e:	f04f 4300 	mov.w	r3, #2147483648	; 0x80000000
/mnt/disk/raspbian-tee/optee_os/lib/libmbedtls/mbedtls/library/bignum.c:446
    4e42:	421a      	tst	r2, r3
    4e44:	d103      	bne.n	4e4e <mbedtls_mpi_bitlen+0x36>
/mnt/disk/raspbian-tee/optee_os/lib/libmbedtls/mbedtls/library/bignum.c:444
    4e46:	3001      	adds	r0, #1
/mnt/disk/raspbian-tee/optee_os/lib/libmbedtls/mbedtls/library/bignum.c:448
    4e48:	085b      	lsrs	r3, r3, #1
/mnt/disk/raspbian-tee/optee_os/lib/libmbedtls/mbedtls/library/bignum.c:444
    4e4a:	2820      	cmp	r0, #32
    4e4c:	d1f9      	bne.n	4e42 <mbedtls_mpi_bitlen+0x2a>
mbedtls_mpi_bitlen():
/mnt/disk/raspbian-tee/optee_os/lib/libmbedtls/mbedtls/library/bignum.c:470
    4e4e:	ebc0 1041 	rsb	r0, r0, r1, lsl #5
    4e52:	3020      	adds	r0, #32
    4e54:	bd30      	pop	{r4, r5, pc}
/mnt/disk/raspbian-tee/optee_os/lib/libmbedtls/mbedtls/library/bignum.c:462
    4e56:	4618      	mov	r0, r3
/mnt/disk/raspbian-tee/optee_os/lib/libmbedtls/mbedtls/library/bignum.c:471
    4e58:	bd30      	pop	{r4, r5, pc}

00004e5a <mbedtls_mpi_size>:
mbedtls_mpi_size():
/mnt/disk/raspbian-tee/optee_os/lib/libmbedtls/mbedtls/library/bignum.c:477
    4e5a:	b508      	push	{r3, lr}
/mnt/disk/raspbian-tee/optee_os/lib/libmbedtls/mbedtls/library/bignum.c:478
    4e5c:	f7ff ffdc 	bl	4e18 <mbedtls_mpi_bitlen>
    4e60:	3007      	adds	r0, #7
/mnt/disk/raspbian-tee/optee_os/lib/libmbedtls/mbedtls/library/bignum.c:479
    4e62:	08c0      	lsrs	r0, r0, #3
    4e64:	bd08      	pop	{r3, pc}

00004e66 <mbedtls_mpi_read_binary>:
mbedtls_mpi_read_binary():
/mnt/disk/raspbian-tee/optee_os/lib/libmbedtls/mbedtls/library/bignum.c:750
    4e66:	b5f8      	push	{r3, r4, r5, r6, r7, lr}
    4e68:	4606      	mov	r6, r0
    4e6a:	460f      	mov	r7, r1
    4e6c:	4615      	mov	r5, r2
/mnt/disk/raspbian-tee/optee_os/lib/libmbedtls/mbedtls/library/bignum.c:754
    4e6e:	2400      	movs	r4, #0
/mnt/disk/raspbian-tee/optee_os/lib/libmbedtls/mbedtls/library/bignum.c:754 (discriminator 1)
    4e70:	42ac      	cmp	r4, r5
    4e72:	d001      	beq.n	4e78 <mbedtls_mpi_read_binary+0x12>
/mnt/disk/raspbian-tee/optee_os/lib/libmbedtls/mbedtls/library/bignum.c:755
    4e74:	5d3b      	ldrb	r3, [r7, r4]
    4e76:	b1b3      	cbz	r3, 4ea6 <mbedtls_mpi_read_binary+0x40>
/mnt/disk/raspbian-tee/optee_os/lib/libmbedtls/mbedtls/library/bignum.c:758
    4e78:	1b29      	subs	r1, r5, r4
    4e7a:	4630      	mov	r0, r6
    4e7c:	f011 0303 	ands.w	r3, r1, #3
    4e80:	bf18      	it	ne
    4e82:	2301      	movne	r3, #1
    4e84:	eb03 0191 	add.w	r1, r3, r1, lsr #2
    4e88:	f7ff fde6 	bl	4a58 <mbedtls_mpi_grow>
    4e8c:	b950      	cbnz	r0, 4ea4 <mbedtls_mpi_read_binary+0x3e>
/mnt/disk/raspbian-tee/optee_os/lib/libmbedtls/mbedtls/library/bignum.c:759
    4e8e:	4601      	mov	r1, r0
    4e90:	4630      	mov	r0, r6
    4e92:	f7ff ff56 	bl	4d42 <mbedtls_mpi_lset>
    4e96:	b928      	cbnz	r0, 4ea4 <mbedtls_mpi_read_binary+0x3e>
    4e98:	eb07 0e05 	add.w	lr, r7, r5
    4e9c:	4603      	mov	r3, r0
/mnt/disk/raspbian-tee/optee_os/lib/libmbedtls/mbedtls/library/bignum.c:761 (discriminator 1)
    4e9e:	1aea      	subs	r2, r5, r3
    4ea0:	4294      	cmp	r4, r2
    4ea2:	d302      	bcc.n	4eaa <mbedtls_mpi_read_binary+0x44>
/mnt/disk/raspbian-tee/optee_os/lib/libmbedtls/mbedtls/library/bignum.c:767
    4ea4:	bdf8      	pop	{r3, r4, r5, r6, r7, pc}
/mnt/disk/raspbian-tee/optee_os/lib/libmbedtls/mbedtls/library/bignum.c:754 (discriminator 2)
    4ea6:	3401      	adds	r4, #1
    4ea8:	e7e2      	b.n	4e70 <mbedtls_mpi_read_binary+0xa>
/mnt/disk/raspbian-tee/optee_os/lib/libmbedtls/mbedtls/library/bignum.c:762 (discriminator 3)
    4eaa:	f023 0c03 	bic.w	ip, r3, #3
    4eae:	f81e 2d01 	ldrb.w	r2, [lr, #-1]!
    4eb2:	68b1      	ldr	r1, [r6, #8]
    4eb4:	00df      	lsls	r7, r3, #3
    4eb6:	f007 0718 	and.w	r7, r7, #24
/mnt/disk/raspbian-tee/optee_os/lib/libmbedtls/mbedtls/library/bignum.c:761 (discriminator 3)
    4eba:	3301      	adds	r3, #1
/mnt/disk/raspbian-tee/optee_os/lib/libmbedtls/mbedtls/library/bignum.c:762 (discriminator 3)
    4ebc:	fa02 f707 	lsl.w	r7, r2, r7
    4ec0:	f851 200c 	ldr.w	r2, [r1, ip]
    4ec4:	433a      	orrs	r2, r7
    4ec6:	f841 200c 	str.w	r2, [r1, ip]
    4eca:	e7e8      	b.n	4e9e <mbedtls_mpi_read_binary+0x38>

00004ecc <mbedtls_mpi_write_binary>:
mbedtls_mpi_write_binary():
/mnt/disk/raspbian-tee/optee_os/lib/libmbedtls/mbedtls/library/bignum.c:773
    4ecc:	b5f8      	push	{r3, r4, r5, r6, r7, lr}
    4ece:	4617      	mov	r7, r2
    4ed0:	4605      	mov	r5, r0
    4ed2:	460c      	mov	r4, r1
/mnt/disk/raspbian-tee/optee_os/lib/libmbedtls/mbedtls/library/bignum.c:776
    4ed4:	f7ff ffc1 	bl	4e5a <mbedtls_mpi_size>
    4ed8:	4606      	mov	r6, r0
/mnt/disk/raspbian-tee/optee_os/lib/libmbedtls/mbedtls/library/bignum.c:778
    4eda:	42b8      	cmp	r0, r7
    4edc:	d816      	bhi.n	4f0c <mbedtls_mpi_write_binary+0x40>
/mnt/disk/raspbian-tee/optee_os/lib/libmbedtls/mbedtls/library/bignum.c:781
    4ede:	4620      	mov	r0, r4
    4ee0:	463a      	mov	r2, r7
    4ee2:	2100      	movs	r1, #0
    4ee4:	443c      	add	r4, r7
    4ee6:	f002 fe56 	bl	7b96 <memset>
/mnt/disk/raspbian-tee/optee_os/lib/libmbedtls/mbedtls/library/bignum.c:783
    4eea:	2300      	movs	r3, #0
/mnt/disk/raspbian-tee/optee_os/lib/libmbedtls/mbedtls/library/bignum.c:783 (discriminator 1)
    4eec:	42b3      	cmp	r3, r6
    4eee:	d101      	bne.n	4ef4 <mbedtls_mpi_write_binary+0x28>
/mnt/disk/raspbian-tee/optee_os/lib/libmbedtls/mbedtls/library/bignum.c:786
    4ef0:	2000      	movs	r0, #0
    4ef2:	bdf8      	pop	{r3, r4, r5, r6, r7, pc}
/mnt/disk/raspbian-tee/optee_os/lib/libmbedtls/mbedtls/library/bignum.c:784 (discriminator 3)
    4ef4:	f023 0003 	bic.w	r0, r3, #3
    4ef8:	68af      	ldr	r7, [r5, #8]
    4efa:	00da      	lsls	r2, r3, #3
/mnt/disk/raspbian-tee/optee_os/lib/libmbedtls/mbedtls/library/bignum.c:783 (discriminator 3)
    4efc:	3301      	adds	r3, #1
/mnt/disk/raspbian-tee/optee_os/lib/libmbedtls/mbedtls/library/bignum.c:784 (discriminator 3)
    4efe:	f002 0118 	and.w	r1, r2, #24
    4f02:	583a      	ldr	r2, [r7, r0]
    4f04:	40ca      	lsrs	r2, r1
    4f06:	f804 2d01 	strb.w	r2, [r4, #-1]!
    4f0a:	e7ef      	b.n	4eec <mbedtls_mpi_write_binary+0x20>
/mnt/disk/raspbian-tee/optee_os/lib/libmbedtls/mbedtls/library/bignum.c:779
    4f0c:	f06f 0007 	mvn.w	r0, #7
/mnt/disk/raspbian-tee/optee_os/lib/libmbedtls/mbedtls/library/bignum.c:787
    4f10:	bdf8      	pop	{r3, r4, r5, r6, r7, pc}

00004f12 <mbedtls_mpi_shift_l>:
mbedtls_mpi_shift_l():
/mnt/disk/raspbian-tee/optee_os/lib/libmbedtls/mbedtls/library/bignum.c:793
    4f12:	b5f8      	push	{r3, r4, r5, r6, r7, lr}
    4f14:	4606      	mov	r6, r0
    4f16:	460c      	mov	r4, r1
/mnt/disk/raspbian-tee/optee_os/lib/libmbedtls/mbedtls/library/bignum.c:798
    4f18:	094d      	lsrs	r5, r1, #5
/mnt/disk/raspbian-tee/optee_os/lib/libmbedtls/mbedtls/library/bignum.c:799
    4f1a:	f001 071f 	and.w	r7, r1, #31
/mnt/disk/raspbian-tee/optee_os/lib/libmbedtls/mbedtls/library/bignum.c:801
    4f1e:	f7ff ff7b 	bl	4e18 <mbedtls_mpi_bitlen>
/mnt/disk/raspbian-tee/optee_os/lib/libmbedtls/mbedtls/library/bignum.c:803
    4f22:	88b3      	ldrh	r3, [r6, #4]
/mnt/disk/raspbian-tee/optee_os/lib/libmbedtls/mbedtls/library/bignum.c:801
    4f24:	4420      	add	r0, r4
/mnt/disk/raspbian-tee/optee_os/lib/libmbedtls/mbedtls/library/bignum.c:803
    4f26:	ebb0 1f43 	cmp.w	r0, r3, lsl #5
    4f2a:	d803      	bhi.n	4f34 <mbedtls_mpi_shift_l+0x22>
/mnt/disk/raspbian-tee/optee_os/lib/libmbedtls/mbedtls/library/bignum.c:811
    4f2c:	b975      	cbnz	r5, 4f4c <mbedtls_mpi_shift_l+0x3a>
/mnt/disk/raspbian-tee/optee_os/lib/libmbedtls/mbedtls/library/bignum.c:823
    4f2e:	bb4f      	cbnz	r7, 4f84 <mbedtls_mpi_shift_l+0x72>
/mnt/disk/raspbian-tee/optee_os/lib/libmbedtls/mbedtls/library/bignum.c:806
    4f30:	2000      	movs	r0, #0
    4f32:	bdf8      	pop	{r3, r4, r5, r6, r7, pc}
/mnt/disk/raspbian-tee/optee_os/lib/libmbedtls/mbedtls/library/bignum.c:804
    4f34:	f010 011f 	ands.w	r1, r0, #31
    4f38:	bf18      	it	ne
    4f3a:	2101      	movne	r1, #1
    4f3c:	eb01 1150 	add.w	r1, r1, r0, lsr #5
    4f40:	4630      	mov	r0, r6
    4f42:	f7ff fd89 	bl	4a58 <mbedtls_mpi_grow>
    4f46:	2800      	cmp	r0, #0
    4f48:	d0f0      	beq.n	4f2c <mbedtls_mpi_shift_l+0x1a>
    4f4a:	bdf8      	pop	{r3, r4, r5, r6, r7, pc}
/mnt/disk/raspbian-tee/optee_os/lib/libmbedtls/mbedtls/library/bignum.c:813
    4f4c:	88b3      	ldrh	r3, [r6, #4]
    4f4e:	f06f 0103 	mvn.w	r1, #3
    4f52:	f103 4280 	add.w	r2, r3, #1073741824	; 0x40000000
    4f56:	3a01      	subs	r2, #1
    4f58:	4369      	muls	r1, r5
    4f5a:	0092      	lsls	r2, r2, #2
/mnt/disk/raspbian-tee/optee_os/lib/libmbedtls/mbedtls/library/bignum.c:813 (discriminator 1)
    4f5c:	42ab      	cmp	r3, r5
    4f5e:	d80a      	bhi.n	4f76 <mbedtls_mpi_shift_l+0x64>
    4f60:	f103 4380 	add.w	r3, r3, #1073741824	; 0x40000000
/mnt/disk/raspbian-tee/optee_os/lib/libmbedtls/mbedtls/library/bignum.c:817
    4f64:	2200      	movs	r2, #0
    4f66:	3b01      	subs	r3, #1
    4f68:	009b      	lsls	r3, r3, #2
/mnt/disk/raspbian-tee/optee_os/lib/libmbedtls/mbedtls/library/bignum.c:816 (discriminator 1)
    4f6a:	1d19      	adds	r1, r3, #4
    4f6c:	d0df      	beq.n	4f2e <mbedtls_mpi_shift_l+0x1c>
/mnt/disk/raspbian-tee/optee_os/lib/libmbedtls/mbedtls/library/bignum.c:817 (discriminator 2)
    4f6e:	68b1      	ldr	r1, [r6, #8]
    4f70:	50ca      	str	r2, [r1, r3]
    4f72:	3b04      	subs	r3, #4
    4f74:	e7f9      	b.n	4f6a <mbedtls_mpi_shift_l+0x58>
/mnt/disk/raspbian-tee/optee_os/lib/libmbedtls/mbedtls/library/bignum.c:814 (discriminator 3)
    4f76:	68b0      	ldr	r0, [r6, #8]
/mnt/disk/raspbian-tee/optee_os/lib/libmbedtls/mbedtls/library/bignum.c:813 (discriminator 3)
    4f78:	3b01      	subs	r3, #1
/mnt/disk/raspbian-tee/optee_os/lib/libmbedtls/mbedtls/library/bignum.c:814 (discriminator 3)
    4f7a:	1884      	adds	r4, r0, r2
    4f7c:	5864      	ldr	r4, [r4, r1]
    4f7e:	5084      	str	r4, [r0, r2]
    4f80:	3a04      	subs	r2, #4
    4f82:	e7eb      	b.n	4f5c <mbedtls_mpi_shift_l+0x4a>
/mnt/disk/raspbian-tee/optee_os/lib/libmbedtls/mbedtls/library/bignum.c:825
    4f84:	f8b6 c004 	ldrh.w	ip, [r6, #4]
    4f88:	00ab      	lsls	r3, r5, #2
    4f8a:	2100      	movs	r1, #0
/mnt/disk/raspbian-tee/optee_os/lib/libmbedtls/mbedtls/library/bignum.c:827
    4f8c:	f1c7 0e20 	rsb	lr, r7, #32
/mnt/disk/raspbian-tee/optee_os/lib/libmbedtls/mbedtls/library/bignum.c:825 (discriminator 1)
    4f90:	4565      	cmp	r5, ip
    4f92:	d2cd      	bcs.n	4f30 <mbedtls_mpi_shift_l+0x1e>
/mnt/disk/raspbian-tee/optee_os/lib/libmbedtls/mbedtls/library/bignum.c:827 (discriminator 3)
    4f94:	68b4      	ldr	r4, [r6, #8]
/mnt/disk/raspbian-tee/optee_os/lib/libmbedtls/mbedtls/library/bignum.c:825 (discriminator 3)
    4f96:	3501      	adds	r5, #1
/mnt/disk/raspbian-tee/optee_os/lib/libmbedtls/mbedtls/library/bignum.c:827 (discriminator 3)
    4f98:	58e0      	ldr	r0, [r4, r3]
/mnt/disk/raspbian-tee/optee_os/lib/libmbedtls/mbedtls/library/bignum.c:828 (discriminator 3)
    4f9a:	fa00 f207 	lsl.w	r2, r0, r7
/mnt/disk/raspbian-tee/optee_os/lib/libmbedtls/mbedtls/library/bignum.c:829 (discriminator 3)
    4f9e:	430a      	orrs	r2, r1
/mnt/disk/raspbian-tee/optee_os/lib/libmbedtls/mbedtls/library/bignum.c:827 (discriminator 3)
    4fa0:	fa20 f10e 	lsr.w	r1, r0, lr
/mnt/disk/raspbian-tee/optee_os/lib/libmbedtls/mbedtls/library/bignum.c:829 (discriminator 3)
    4fa4:	50e2      	str	r2, [r4, r3]
    4fa6:	3304      	adds	r3, #4
    4fa8:	e7f2      	b.n	4f90 <mbedtls_mpi_shift_l+0x7e>

00004faa <mbedtls_mpi_shift_r>:
mbedtls_mpi_shift_r():
/mnt/disk/raspbian-tee/optee_os/lib/libmbedtls/mbedtls/library/bignum.c:850
    4faa:	8882      	ldrh	r2, [r0, #4]
/mnt/disk/raspbian-tee/optee_os/lib/libmbedtls/mbedtls/library/bignum.c:843
    4fac:	b4f0      	push	{r4, r5, r6, r7}
/mnt/disk/raspbian-tee/optee_os/lib/libmbedtls/mbedtls/library/bignum.c:847
    4fae:	094c      	lsrs	r4, r1, #5
/mnt/disk/raspbian-tee/optee_os/lib/libmbedtls/mbedtls/library/bignum.c:850
    4fb0:	4294      	cmp	r4, r2
/mnt/disk/raspbian-tee/optee_os/lib/libmbedtls/mbedtls/library/bignum.c:848
    4fb2:	f001 011f 	and.w	r1, r1, #31
/mnt/disk/raspbian-tee/optee_os/lib/libmbedtls/mbedtls/library/bignum.c:850
    4fb6:	d801      	bhi.n	4fbc <mbedtls_mpi_shift_r+0x12>
/mnt/disk/raspbian-tee/optee_os/lib/libmbedtls/mbedtls/library/bignum.c:850 (discriminator 1)
    4fb8:	d104      	bne.n	4fc4 <mbedtls_mpi_shift_r+0x1a>
/mnt/disk/raspbian-tee/optee_os/lib/libmbedtls/mbedtls/library/bignum.c:850 (discriminator 2)
    4fba:	b371      	cbz	r1, 501a <mbedtls_mpi_shift_r+0x70>
/mnt/disk/raspbian-tee/optee_os/lib/libmbedtls/mbedtls/library/bignum.c:851
    4fbc:	2100      	movs	r1, #0
/mnt/disk/raspbian-tee/optee_os/lib/libmbedtls/mbedtls/library/bignum.c:880
    4fbe:	bcf0      	pop	{r4, r5, r6, r7}
/mnt/disk/raspbian-tee/optee_os/lib/libmbedtls/mbedtls/library/bignum.c:851
    4fc0:	f7ff bebf 	b.w	4d42 <mbedtls_mpi_lset>
/mnt/disk/raspbian-tee/optee_os/lib/libmbedtls/mbedtls/library/bignum.c:856
    4fc4:	bb5c      	cbnz	r4, 501e <mbedtls_mpi_shift_r+0x74>
/mnt/disk/raspbian-tee/optee_os/lib/libmbedtls/mbedtls/library/bignum.c:868
    4fc6:	b139      	cbz	r1, 4fd8 <mbedtls_mpi_shift_r+0x2e>
    4fc8:	f102 4380 	add.w	r3, r2, #1073741824	; 0x40000000
/mnt/disk/raspbian-tee/optee_os/lib/libmbedtls/mbedtls/library/bignum.c:868 (discriminator 1)
    4fcc:	2500      	movs	r5, #0
    4fce:	3b01      	subs	r3, #1
/mnt/disk/raspbian-tee/optee_os/lib/libmbedtls/mbedtls/library/bignum.c:872 (discriminator 1)
    4fd0:	f1c1 0c20 	rsb	ip, r1, #32
    4fd4:	009b      	lsls	r3, r3, #2
/mnt/disk/raspbian-tee/optee_os/lib/libmbedtls/mbedtls/library/bignum.c:870 (discriminator 1)
    4fd6:	b9aa      	cbnz	r2, 5004 <mbedtls_mpi_shift_r+0x5a>
/mnt/disk/raspbian-tee/optee_os/lib/libmbedtls/mbedtls/library/bignum.c:880
    4fd8:	2000      	movs	r0, #0
    4fda:	bcf0      	pop	{r4, r5, r6, r7}
    4fdc:	4770      	bx	lr
/mnt/disk/raspbian-tee/optee_os/lib/libmbedtls/mbedtls/library/bignum.c:859 (discriminator 3)
    4fde:	6885      	ldr	r5, [r0, #8]
    4fe0:	191e      	adds	r6, r3, r4
    4fe2:	f855 6026 	ldr.w	r6, [r5, r6, lsl #2]
    4fe6:	f845 6023 	str.w	r6, [r5, r3, lsl #2]
/mnt/disk/raspbian-tee/optee_os/lib/libmbedtls/mbedtls/library/bignum.c:858 (discriminator 3)
    4fea:	3301      	adds	r3, #1
/mnt/disk/raspbian-tee/optee_os/lib/libmbedtls/mbedtls/library/bignum.c:858 (discriminator 1)
    4fec:	1b15      	subs	r5, r2, r4
    4fee:	42ab      	cmp	r3, r5
    4ff0:	d3f5      	bcc.n	4fde <mbedtls_mpi_shift_r+0x34>
    4ff2:	00ab      	lsls	r3, r5, #2
/mnt/disk/raspbian-tee/optee_os/lib/libmbedtls/mbedtls/library/bignum.c:862
    4ff4:	2400      	movs	r4, #0
/mnt/disk/raspbian-tee/optee_os/lib/libmbedtls/mbedtls/library/bignum.c:861 (discriminator 1)
    4ff6:	4295      	cmp	r5, r2
    4ff8:	d2e5      	bcs.n	4fc6 <mbedtls_mpi_shift_r+0x1c>
/mnt/disk/raspbian-tee/optee_os/lib/libmbedtls/mbedtls/library/bignum.c:862 (discriminator 2)
    4ffa:	6886      	ldr	r6, [r0, #8]
/mnt/disk/raspbian-tee/optee_os/lib/libmbedtls/mbedtls/library/bignum.c:861 (discriminator 2)
    4ffc:	3501      	adds	r5, #1
/mnt/disk/raspbian-tee/optee_os/lib/libmbedtls/mbedtls/library/bignum.c:862 (discriminator 2)
    4ffe:	50f4      	str	r4, [r6, r3]
    5000:	3304      	adds	r3, #4
    5002:	e7f8      	b.n	4ff6 <mbedtls_mpi_shift_r+0x4c>
/mnt/disk/raspbian-tee/optee_os/lib/libmbedtls/mbedtls/library/bignum.c:872 (discriminator 3)
    5004:	6887      	ldr	r7, [r0, #8]
/mnt/disk/raspbian-tee/optee_os/lib/libmbedtls/mbedtls/library/bignum.c:870 (discriminator 3)
    5006:	3a01      	subs	r2, #1
/mnt/disk/raspbian-tee/optee_os/lib/libmbedtls/mbedtls/library/bignum.c:872 (discriminator 3)
    5008:	58fe      	ldr	r6, [r7, r3]
/mnt/disk/raspbian-tee/optee_os/lib/libmbedtls/mbedtls/library/bignum.c:873 (discriminator 3)
    500a:	fa26 f401 	lsr.w	r4, r6, r1
/mnt/disk/raspbian-tee/optee_os/lib/libmbedtls/mbedtls/library/bignum.c:874 (discriminator 3)
    500e:	432c      	orrs	r4, r5
/mnt/disk/raspbian-tee/optee_os/lib/libmbedtls/mbedtls/library/bignum.c:872 (discriminator 3)
    5010:	fa06 f50c 	lsl.w	r5, r6, ip
/mnt/disk/raspbian-tee/optee_os/lib/libmbedtls/mbedtls/library/bignum.c:874 (discriminator 3)
    5014:	50fc      	str	r4, [r7, r3]
    5016:	3b04      	subs	r3, #4
    5018:	e7dd      	b.n	4fd6 <mbedtls_mpi_shift_r+0x2c>
/mnt/disk/raspbian-tee/optee_os/lib/libmbedtls/mbedtls/library/bignum.c:856
    501a:	2c00      	cmp	r4, #0
    501c:	d0dc      	beq.n	4fd8 <mbedtls_mpi_shift_r+0x2e>
    501e:	2300      	movs	r3, #0
    5020:	e7e4      	b.n	4fec <mbedtls_mpi_shift_r+0x42>

00005022 <mbedtls_mpi_cmp_abs>:
mbedtls_mpi_cmp_abs():
/mnt/disk/raspbian-tee/optee_os/lib/libmbedtls/mbedtls/library/bignum.c:889
    5022:	8883      	ldrh	r3, [r0, #4]
/mnt/disk/raspbian-tee/optee_os/lib/libmbedtls/mbedtls/library/bignum.c:886
    5024:	b530      	push	{r4, r5, lr}
    5026:	f103 4280 	add.w	r2, r3, #1073741824	; 0x40000000
    502a:	3a01      	subs	r2, #1
    502c:	0092      	lsls	r2, r2, #2
/mnt/disk/raspbian-tee/optee_os/lib/libmbedtls/mbedtls/library/bignum.c:889 (discriminator 1)
    502e:	b99b      	cbnz	r3, 5058 <mbedtls_mpi_cmp_abs+0x36>
/mnt/disk/raspbian-tee/optee_os/lib/libmbedtls/mbedtls/library/bignum.c:893
    5030:	888c      	ldrh	r4, [r1, #4]
    5032:	f104 4280 	add.w	r2, r4, #1073741824	; 0x40000000
    5036:	3a01      	subs	r2, #1
    5038:	0092      	lsls	r2, r2, #2
/mnt/disk/raspbian-tee/optee_os/lib/libmbedtls/mbedtls/library/bignum.c:893 (discriminator 1)
    503a:	b9a4      	cbnz	r4, 5066 <mbedtls_mpi_cmp_abs+0x44>
/mnt/disk/raspbian-tee/optee_os/lib/libmbedtls/mbedtls/library/bignum.c:897
    503c:	ea53 0204 	orrs.w	r2, r3, r4
    5040:	d008      	beq.n	5054 <mbedtls_mpi_cmp_abs+0x32>
/mnt/disk/raspbian-tee/optee_os/lib/libmbedtls/mbedtls/library/bignum.c:900
    5042:	42a3      	cmp	r3, r4
    5044:	d822      	bhi.n	508c <mbedtls_mpi_cmp_abs+0x6a>
/mnt/disk/raspbian-tee/optee_os/lib/libmbedtls/mbedtls/library/bignum.c:901
    5046:	d31e      	bcc.n	5086 <mbedtls_mpi_cmp_abs+0x64>
    5048:	f103 4380 	add.w	r3, r3, #1073741824	; 0x40000000
    504c:	3b01      	subs	r3, #1
    504e:	009b      	lsls	r3, r3, #2
/mnt/disk/raspbian-tee/optee_os/lib/libmbedtls/mbedtls/library/bignum.c:903 (discriminator 1)
    5050:	1d1a      	adds	r2, r3, #4
    5052:	d10f      	bne.n	5074 <mbedtls_mpi_cmp_abs+0x52>
/mnt/disk/raspbian-tee/optee_os/lib/libmbedtls/mbedtls/library/bignum.c:898
    5054:	2000      	movs	r0, #0
    5056:	bd30      	pop	{r4, r5, pc}
/mnt/disk/raspbian-tee/optee_os/lib/libmbedtls/mbedtls/library/bignum.c:890
    5058:	6884      	ldr	r4, [r0, #8]
    505a:	58a4      	ldr	r4, [r4, r2]
    505c:	3a04      	subs	r2, #4
    505e:	2c00      	cmp	r4, #0
    5060:	d1e6      	bne.n	5030 <mbedtls_mpi_cmp_abs+0xe>
/mnt/disk/raspbian-tee/optee_os/lib/libmbedtls/mbedtls/library/bignum.c:889 (discriminator 2)
    5062:	3b01      	subs	r3, #1
    5064:	e7e3      	b.n	502e <mbedtls_mpi_cmp_abs+0xc>
/mnt/disk/raspbian-tee/optee_os/lib/libmbedtls/mbedtls/library/bignum.c:894
    5066:	688d      	ldr	r5, [r1, #8]
    5068:	58ad      	ldr	r5, [r5, r2]
    506a:	3a04      	subs	r2, #4
    506c:	2d00      	cmp	r5, #0
    506e:	d1e5      	bne.n	503c <mbedtls_mpi_cmp_abs+0x1a>
/mnt/disk/raspbian-tee/optee_os/lib/libmbedtls/mbedtls/library/bignum.c:893 (discriminator 2)
    5070:	3c01      	subs	r4, #1
    5072:	e7e2      	b.n	503a <mbedtls_mpi_cmp_abs+0x18>
/mnt/disk/raspbian-tee/optee_os/lib/libmbedtls/mbedtls/library/bignum.c:905
    5074:	6882      	ldr	r2, [r0, #8]
    5076:	58d4      	ldr	r4, [r2, r3]
    5078:	688a      	ldr	r2, [r1, #8]
    507a:	58d2      	ldr	r2, [r2, r3]
    507c:	4294      	cmp	r4, r2
    507e:	d805      	bhi.n	508c <mbedtls_mpi_cmp_abs+0x6a>
    5080:	f1a3 0304 	sub.w	r3, r3, #4
/mnt/disk/raspbian-tee/optee_os/lib/libmbedtls/mbedtls/library/bignum.c:906
    5084:	d2e4      	bcs.n	5050 <mbedtls_mpi_cmp_abs+0x2e>
/mnt/disk/raspbian-tee/optee_os/lib/libmbedtls/mbedtls/library/bignum.c:901
    5086:	f04f 30ff 	mov.w	r0, #4294967295	; 0xffffffff
/mnt/disk/raspbian-tee/optee_os/lib/libmbedtls/mbedtls/library/bignum.c:910
    508a:	bd30      	pop	{r4, r5, pc}
/mnt/disk/raspbian-tee/optee_os/lib/libmbedtls/mbedtls/library/bignum.c:900
    508c:	2001      	movs	r0, #1
    508e:	bd30      	pop	{r4, r5, pc}

00005090 <mbedtls_mpi_cmp_mpi>:
mbedtls_mpi_cmp_mpi():
/mnt/disk/raspbian-tee/optee_os/lib/libmbedtls/mbedtls/library/bignum.c:919
    5090:	8883      	ldrh	r3, [r0, #4]
/mnt/disk/raspbian-tee/optee_os/lib/libmbedtls/mbedtls/library/bignum.c:916
    5092:	b530      	push	{r4, r5, lr}
    5094:	f103 4280 	add.w	r2, r3, #1073741824	; 0x40000000
    5098:	3a01      	subs	r2, #1
    509a:	0092      	lsls	r2, r2, #2
/mnt/disk/raspbian-tee/optee_os/lib/libmbedtls/mbedtls/library/bignum.c:919 (discriminator 1)
    509c:	b973      	cbnz	r3, 50bc <mbedtls_mpi_cmp_mpi+0x2c>
/mnt/disk/raspbian-tee/optee_os/lib/libmbedtls/mbedtls/library/bignum.c:923
    509e:	888c      	ldrh	r4, [r1, #4]
    50a0:	f104 4280 	add.w	r2, r4, #1073741824	; 0x40000000
    50a4:	3a01      	subs	r2, #1
    50a6:	0092      	lsls	r2, r2, #2
/mnt/disk/raspbian-tee/optee_os/lib/libmbedtls/mbedtls/library/bignum.c:923 (discriminator 1)
    50a8:	b97c      	cbnz	r4, 50ca <mbedtls_mpi_cmp_mpi+0x3a>
/mnt/disk/raspbian-tee/optee_os/lib/libmbedtls/mbedtls/library/bignum.c:927
    50aa:	ea53 0204 	orrs.w	r2, r3, r4
    50ae:	d003      	beq.n	50b8 <mbedtls_mpi_cmp_mpi+0x28>
/mnt/disk/raspbian-tee/optee_os/lib/libmbedtls/mbedtls/library/bignum.c:930
    50b0:	42a3      	cmp	r3, r4
    50b2:	d911      	bls.n	50d8 <mbedtls_mpi_cmp_mpi+0x48>
/mnt/disk/raspbian-tee/optee_os/lib/libmbedtls/mbedtls/library/bignum.c:930 (discriminator 1)
    50b4:	f990 2000 	ldrsb.w	r2, [r0]
/mnt/disk/raspbian-tee/optee_os/lib/libmbedtls/mbedtls/library/bignum.c:943
    50b8:	4610      	mov	r0, r2
    50ba:	bd30      	pop	{r4, r5, pc}
/mnt/disk/raspbian-tee/optee_os/lib/libmbedtls/mbedtls/library/bignum.c:920
    50bc:	6884      	ldr	r4, [r0, #8]
    50be:	58a4      	ldr	r4, [r4, r2]
    50c0:	3a04      	subs	r2, #4
    50c2:	2c00      	cmp	r4, #0
    50c4:	d1eb      	bne.n	509e <mbedtls_mpi_cmp_mpi+0xe>
/mnt/disk/raspbian-tee/optee_os/lib/libmbedtls/mbedtls/library/bignum.c:919 (discriminator 2)
    50c6:	3b01      	subs	r3, #1
    50c8:	e7e8      	b.n	509c <mbedtls_mpi_cmp_mpi+0xc>
/mnt/disk/raspbian-tee/optee_os/lib/libmbedtls/mbedtls/library/bignum.c:924
    50ca:	688d      	ldr	r5, [r1, #8]
    50cc:	58ad      	ldr	r5, [r5, r2]
    50ce:	3a04      	subs	r2, #4
    50d0:	2d00      	cmp	r5, #0
    50d2:	d1ea      	bne.n	50aa <mbedtls_mpi_cmp_mpi+0x1a>
/mnt/disk/raspbian-tee/optee_os/lib/libmbedtls/mbedtls/library/bignum.c:923 (discriminator 2)
    50d4:	3c01      	subs	r4, #1
    50d6:	e7e7      	b.n	50a8 <mbedtls_mpi_cmp_mpi+0x18>
    50d8:	f991 4000 	ldrsb.w	r4, [r1]
/mnt/disk/raspbian-tee/optee_os/lib/libmbedtls/mbedtls/library/bignum.c:931
    50dc:	d201      	bcs.n	50e2 <mbedtls_mpi_cmp_mpi+0x52>
/mnt/disk/raspbian-tee/optee_os/lib/libmbedtls/mbedtls/library/bignum.c:931 (discriminator 1)
    50de:	4262      	negs	r2, r4
    50e0:	e7ea      	b.n	50b8 <mbedtls_mpi_cmp_mpi+0x28>
/mnt/disk/raspbian-tee/optee_os/lib/libmbedtls/mbedtls/library/bignum.c:933
    50e2:	f990 2000 	ldrsb.w	r2, [r0]
    50e6:	2a00      	cmp	r2, #0
    50e8:	dd01      	ble.n	50ee <mbedtls_mpi_cmp_mpi+0x5e>
/mnt/disk/raspbian-tee/optee_os/lib/libmbedtls/mbedtls/library/bignum.c:933 (discriminator 1)
    50ea:	2c00      	cmp	r4, #0
    50ec:	db16      	blt.n	511c <mbedtls_mpi_cmp_mpi+0x8c>
/mnt/disk/raspbian-tee/optee_os/lib/libmbedtls/mbedtls/library/bignum.c:934
    50ee:	2c00      	cmp	r4, #0
    50f0:	dd01      	ble.n	50f6 <mbedtls_mpi_cmp_mpi+0x66>
/mnt/disk/raspbian-tee/optee_os/lib/libmbedtls/mbedtls/library/bignum.c:934 (discriminator 1)
    50f2:	2a00      	cmp	r2, #0
    50f4:	db14      	blt.n	5120 <mbedtls_mpi_cmp_mpi+0x90>
    50f6:	f103 4380 	add.w	r3, r3, #1073741824	; 0x40000000
    50fa:	3b01      	subs	r3, #1
    50fc:	009b      	lsls	r3, r3, #2
/mnt/disk/raspbian-tee/optee_os/lib/libmbedtls/mbedtls/library/bignum.c:936 (discriminator 1)
    50fe:	1d1c      	adds	r4, r3, #4
    5100:	d101      	bne.n	5106 <mbedtls_mpi_cmp_mpi+0x76>
/mnt/disk/raspbian-tee/optee_os/lib/libmbedtls/mbedtls/library/bignum.c:928
    5102:	2200      	movs	r2, #0
    5104:	e7d8      	b.n	50b8 <mbedtls_mpi_cmp_mpi+0x28>
/mnt/disk/raspbian-tee/optee_os/lib/libmbedtls/mbedtls/library/bignum.c:938
    5106:	6884      	ldr	r4, [r0, #8]
    5108:	58e5      	ldr	r5, [r4, r3]
    510a:	688c      	ldr	r4, [r1, #8]
    510c:	58e4      	ldr	r4, [r4, r3]
    510e:	42a5      	cmp	r5, r4
    5110:	d8d2      	bhi.n	50b8 <mbedtls_mpi_cmp_mpi+0x28>
    5112:	f1a3 0304 	sub.w	r3, r3, #4
/mnt/disk/raspbian-tee/optee_os/lib/libmbedtls/mbedtls/library/bignum.c:939
    5116:	d2f2      	bcs.n	50fe <mbedtls_mpi_cmp_mpi+0x6e>
/mnt/disk/raspbian-tee/optee_os/lib/libmbedtls/mbedtls/library/bignum.c:939 (discriminator 1)
    5118:	4252      	negs	r2, r2
    511a:	e7cd      	b.n	50b8 <mbedtls_mpi_cmp_mpi+0x28>
/mnt/disk/raspbian-tee/optee_os/lib/libmbedtls/mbedtls/library/bignum.c:933
    511c:	2201      	movs	r2, #1
    511e:	e7cb      	b.n	50b8 <mbedtls_mpi_cmp_mpi+0x28>
/mnt/disk/raspbian-tee/optee_os/lib/libmbedtls/mbedtls/library/bignum.c:934
    5120:	f04f 32ff 	mov.w	r2, #4294967295	; 0xffffffff
    5124:	e7c8      	b.n	50b8 <mbedtls_mpi_cmp_mpi+0x28>

00005126 <mbedtls_mpi_cmp_int>:
mbedtls_mpi_cmp_int():
/mnt/disk/raspbian-tee/optee_os/lib/libmbedtls/mbedtls/library/bignum.c:949
    5126:	b51f      	push	{r0, r1, r2, r3, r4, lr}
/mnt/disk/raspbian-tee/optee_os/lib/libmbedtls/mbedtls/library/bignum.c:953
    5128:	ea81 73e1 	eor.w	r3, r1, r1, asr #31
/mnt/disk/raspbian-tee/optee_os/lib/libmbedtls/mbedtls/library/bignum.c:954
    512c:	2900      	cmp	r1, #0
/mnt/disk/raspbian-tee/optee_os/lib/libmbedtls/mbedtls/library/bignum.c:953
    512e:	eba3 73e1 	sub.w	r3, r3, r1, asr #31
/mnt/disk/raspbian-tee/optee_os/lib/libmbedtls/mbedtls/library/bignum.c:958
    5132:	a901      	add	r1, sp, #4
/mnt/disk/raspbian-tee/optee_os/lib/libmbedtls/mbedtls/library/bignum.c:953
    5134:	9300      	str	r3, [sp, #0]
/mnt/disk/raspbian-tee/optee_os/lib/libmbedtls/mbedtls/library/bignum.c:954
    5136:	f04f 33ff 	mov.w	r3, #4294967295	; 0xffffffff
/mnt/disk/raspbian-tee/optee_os/lib/libmbedtls/mbedtls/library/bignum.c:956
    513a:	f8cd d00c 	str.w	sp, [sp, #12]
/mnt/disk/raspbian-tee/optee_os/lib/libmbedtls/mbedtls/library/bignum.c:954
    513e:	bfa8      	it	ge
    5140:	2301      	movge	r3, #1
    5142:	f88d 3004 	strb.w	r3, [sp, #4]
/mnt/disk/raspbian-tee/optee_os/lib/libmbedtls/mbedtls/library/bignum.c:955
    5146:	2301      	movs	r3, #1
    5148:	f8ad 3008 	strh.w	r3, [sp, #8]
/mnt/disk/raspbian-tee/optee_os/lib/libmbedtls/mbedtls/library/bignum.c:958
    514c:	f7ff ffa0 	bl	5090 <mbedtls_mpi_cmp_mpi>
/mnt/disk/raspbian-tee/optee_os/lib/libmbedtls/mbedtls/library/bignum.c:959
    5150:	b005      	add	sp, #20
    5152:	f85d fb04 	ldr.w	pc, [sp], #4

00005156 <mbedtls_mpi_add_abs>:
mbedtls_mpi_add_abs():
/mnt/disk/raspbian-tee/optee_os/lib/libmbedtls/mbedtls/library/bignum.c:965
    5156:	e92d 41f0 	stmdb	sp!, {r4, r5, r6, r7, r8, lr}
/mnt/disk/raspbian-tee/optee_os/lib/libmbedtls/mbedtls/library/bignum.c:970
    515a:	4290      	cmp	r0, r2
/mnt/disk/raspbian-tee/optee_os/lib/libmbedtls/mbedtls/library/bignum.c:965
    515c:	4606      	mov	r6, r0
    515e:	460c      	mov	r4, r1
    5160:	4615      	mov	r5, r2
/mnt/disk/raspbian-tee/optee_os/lib/libmbedtls/mbedtls/library/bignum.c:970
    5162:	d002      	beq.n	516a <mbedtls_mpi_add_abs+0x14>
/mnt/disk/raspbian-tee/optee_os/lib/libmbedtls/mbedtls/library/bignum.c:975
    5164:	4288      	cmp	r0, r1
    5166:	d130      	bne.n	51ca <mbedtls_mpi_add_abs+0x74>
/mnt/disk/raspbian-tee/optee_os/lib/libmbedtls/mbedtls/library/bignum.c:965
    5168:	462c      	mov	r4, r5
/mnt/disk/raspbian-tee/optee_os/lib/libmbedtls/mbedtls/library/bignum.c:981
    516a:	2301      	movs	r3, #1
    516c:	7033      	strb	r3, [r6, #0]
/mnt/disk/raspbian-tee/optee_os/lib/libmbedtls/mbedtls/library/bignum.c:983
    516e:	88a5      	ldrh	r5, [r4, #4]
    5170:	f105 4380 	add.w	r3, r5, #1073741824	; 0x40000000
    5174:	3b01      	subs	r3, #1
    5176:	009b      	lsls	r3, r3, #2
/mnt/disk/raspbian-tee/optee_os/lib/libmbedtls/mbedtls/library/bignum.c:983 (discriminator 1)
    5178:	bb7d      	cbnz	r5, 51da <mbedtls_mpi_add_abs+0x84>
/mnt/disk/raspbian-tee/optee_os/lib/libmbedtls/mbedtls/library/bignum.c:987
    517a:	4629      	mov	r1, r5
    517c:	4630      	mov	r0, r6
    517e:	f7ff fc6b 	bl	4a58 <mbedtls_mpi_grow>
    5182:	4607      	mov	r7, r0
    5184:	bb30      	cbnz	r0, 51d4 <mbedtls_mpi_add_abs+0x7e>
    5186:	68a0      	ldr	r0, [r4, #8]
    5188:	ea4f 0885 	mov.w	r8, r5, lsl #2
/mnt/disk/raspbian-tee/optee_os/lib/libmbedtls/mbedtls/library/bignum.c:989
    518c:	68b1      	ldr	r1, [r6, #8]
    518e:	463c      	mov	r4, r7
    5190:	3804      	subs	r0, #4
    5192:	eb01 0308 	add.w	r3, r1, r8
/mnt/disk/raspbian-tee/optee_os/lib/libmbedtls/mbedtls/library/bignum.c:994 (discriminator 1)
    5196:	4299      	cmp	r1, r3
    5198:	d126      	bne.n	51e8 <mbedtls_mpi_add_abs+0x92>
/mnt/disk/raspbian-tee/optee_os/lib/libmbedtls/mbedtls/library/bignum.c:1001
    519a:	b1dc      	cbz	r4, 51d4 <mbedtls_mpi_add_abs+0x7e>
/mnt/disk/raspbian-tee/optee_os/lib/libmbedtls/mbedtls/library/bignum.c:1003
    519c:	88b2      	ldrh	r2, [r6, #4]
    519e:	4295      	cmp	r5, r2
    51a0:	f105 0501 	add.w	r5, r5, #1
    51a4:	d306      	bcc.n	51b4 <mbedtls_mpi_add_abs+0x5e>
/mnt/disk/raspbian-tee/optee_os/lib/libmbedtls/mbedtls/library/bignum.c:1005
    51a6:	4629      	mov	r1, r5
    51a8:	4630      	mov	r0, r6
    51aa:	f7ff fc55 	bl	4a58 <mbedtls_mpi_grow>
    51ae:	bb70      	cbnz	r0, 520e <mbedtls_mpi_add_abs+0xb8>
/mnt/disk/raspbian-tee/optee_os/lib/libmbedtls/mbedtls/library/bignum.c:1006
    51b0:	68b3      	ldr	r3, [r6, #8]
    51b2:	4443      	add	r3, r8
    51b4:	681a      	ldr	r2, [r3, #0]
    51b6:	2100      	movs	r1, #0
    51b8:	f108 0804 	add.w	r8, r8, #4
    51bc:	18a4      	adds	r4, r4, r2
/mnt/disk/raspbian-tee/optee_os/lib/libmbedtls/mbedtls/library/bignum.c:1009
    51be:	f843 4b04 	str.w	r4, [r3], #4
    51c2:	bf28      	it	cs
    51c4:	2101      	movcs	r1, #1
    51c6:	460c      	mov	r4, r1
    51c8:	e7e7      	b.n	519a <mbedtls_mpi_add_abs+0x44>
/mnt/disk/raspbian-tee/optee_os/lib/libmbedtls/mbedtls/library/bignum.c:976
    51ca:	f7ff fcff 	bl	4bcc <mbedtls_mpi_copy>
    51ce:	4607      	mov	r7, r0
    51d0:	2800      	cmp	r0, #0
    51d2:	d0c9      	beq.n	5168 <mbedtls_mpi_add_abs+0x12>
/mnt/disk/raspbian-tee/optee_os/lib/libmbedtls/mbedtls/library/bignum.c:1015
    51d4:	4638      	mov	r0, r7
    51d6:	e8bd 81f0 	ldmia.w	sp!, {r4, r5, r6, r7, r8, pc}
/mnt/disk/raspbian-tee/optee_os/lib/libmbedtls/mbedtls/library/bignum.c:984
    51da:	68a2      	ldr	r2, [r4, #8]
    51dc:	58d2      	ldr	r2, [r2, r3]
    51de:	3b04      	subs	r3, #4
    51e0:	2a00      	cmp	r2, #0
    51e2:	d1ca      	bne.n	517a <mbedtls_mpi_add_abs+0x24>
/mnt/disk/raspbian-tee/optee_os/lib/libmbedtls/mbedtls/library/bignum.c:983 (discriminator 2)
    51e4:	3d01      	subs	r5, #1
    51e6:	e7c7      	b.n	5178 <mbedtls_mpi_add_abs+0x22>
    51e8:	680a      	ldr	r2, [r1, #0]
    51ea:	3004      	adds	r0, #4
    51ec:	f04f 0c00 	mov.w	ip, #0
    51f0:	eb14 0e02 	adds.w	lr, r4, r2
    51f4:	d301      	bcc.n	51fa <mbedtls_mpi_add_abs+0xa4>
    51f6:	f04f 0c01 	mov.w	ip, #1
    51fa:	6802      	ldr	r2, [r0, #0]
    51fc:	2400      	movs	r4, #0
    51fe:	eb12 020e 	adds.w	r2, r2, lr
/mnt/disk/raspbian-tee/optee_os/lib/libmbedtls/mbedtls/library/bignum.c:998 (discriminator 3)
    5202:	f841 2b04 	str.w	r2, [r1], #4
    5206:	bf28      	it	cs
    5208:	2401      	movcs	r4, #1
    520a:	4464      	add	r4, ip
    520c:	e7c3      	b.n	5196 <mbedtls_mpi_add_abs+0x40>
/mnt/disk/raspbian-tee/optee_os/lib/libmbedtls/mbedtls/library/bignum.c:1005
    520e:	4607      	mov	r7, r0
/mnt/disk/raspbian-tee/optee_os/lib/libmbedtls/mbedtls/library/bignum.c:1014
    5210:	e7e0      	b.n	51d4 <mbedtls_mpi_add_abs+0x7e>

00005212 <mbedtls_mpi_sub_abs>:
mbedtls_mpi_sub_abs():
/mnt/disk/raspbian-tee/optee_os/lib/libmbedtls/mbedtls/library/bignum.c:1042
    5212:	e92d 41ff 	stmdb	sp!, {r0, r1, r2, r3, r4, r5, r6, r7, r8, lr}
    5216:	4688      	mov	r8, r1
    5218:	4606      	mov	r6, r0
/mnt/disk/raspbian-tee/optee_os/lib/libmbedtls/mbedtls/library/bignum.c:1047
    521a:	4611      	mov	r1, r2
    521c:	4640      	mov	r0, r8
/mnt/disk/raspbian-tee/optee_os/lib/libmbedtls/mbedtls/library/bignum.c:1042
    521e:	4614      	mov	r4, r2
/mnt/disk/raspbian-tee/optee_os/lib/libmbedtls/mbedtls/library/bignum.c:1047
    5220:	f7ff feff 	bl	5022 <mbedtls_mpi_cmp_abs>
    5224:	2800      	cmp	r0, #0
    5226:	db31      	blt.n	528c <mbedtls_mpi_sub_abs+0x7a>
/mnt/disk/raspbian-tee/optee_os/lib/libmbedtls/mbedtls/library/bignum.c:1050
    5228:	af01      	add	r7, sp, #4
    522a:	4638      	mov	r0, r7
    522c:	f7ff fbd1 	bl	49d2 <mbedtls_mpi_init_mempool>
/mnt/disk/raspbian-tee/optee_os/lib/libmbedtls/mbedtls/library/bignum.c:1052
    5230:	42b4      	cmp	r4, r6
    5232:	d106      	bne.n	5242 <mbedtls_mpi_sub_abs+0x30>
/mnt/disk/raspbian-tee/optee_os/lib/libmbedtls/mbedtls/library/bignum.c:1054
    5234:	4621      	mov	r1, r4
    5236:	4638      	mov	r0, r7
    5238:	f7ff fcc8 	bl	4bcc <mbedtls_mpi_copy>
    523c:	4605      	mov	r5, r0
    523e:	b9b8      	cbnz	r0, 5270 <mbedtls_mpi_sub_abs+0x5e>
/mnt/disk/raspbian-tee/optee_os/lib/libmbedtls/mbedtls/library/bignum.c:1055
    5240:	463c      	mov	r4, r7
/mnt/disk/raspbian-tee/optee_os/lib/libmbedtls/mbedtls/library/bignum.c:1058
    5242:	45b0      	cmp	r8, r6
    5244:	d10d      	bne.n	5262 <mbedtls_mpi_sub_abs+0x50>
/mnt/disk/raspbian-tee/optee_os/lib/libmbedtls/mbedtls/library/bignum.c:1064
    5246:	2301      	movs	r3, #1
    5248:	7033      	strb	r3, [r6, #0]
/mnt/disk/raspbian-tee/optee_os/lib/libmbedtls/mbedtls/library/bignum.c:1068
    524a:	88a0      	ldrh	r0, [r4, #4]
    524c:	f100 4380 	add.w	r3, r0, #1073741824	; 0x40000000
    5250:	3b01      	subs	r3, #1
    5252:	009b      	lsls	r3, r3, #2
/mnt/disk/raspbian-tee/optee_os/lib/libmbedtls/mbedtls/library/bignum.c:1068 (discriminator 1)
    5254:	b998      	cbnz	r0, 527e <mbedtls_mpi_sub_abs+0x6c>
/mnt/disk/raspbian-tee/optee_os/lib/libmbedtls/mbedtls/library/bignum.c:1072
    5256:	68b2      	ldr	r2, [r6, #8]
/mnt/disk/raspbian-tee/optee_os/lib/libmbedtls/mbedtls/library/bignum.c:1066
    5258:	2500      	movs	r5, #0
/mnt/disk/raspbian-tee/optee_os/lib/libmbedtls/mbedtls/library/bignum.c:1072
    525a:	68a1      	ldr	r1, [r4, #8]
    525c:	f7ff f914 	bl	4488 <mpi_sub_hlp>
    5260:	e006      	b.n	5270 <mbedtls_mpi_sub_abs+0x5e>
/mnt/disk/raspbian-tee/optee_os/lib/libmbedtls/mbedtls/library/bignum.c:1059
    5262:	4641      	mov	r1, r8
    5264:	4630      	mov	r0, r6
    5266:	f7ff fcb1 	bl	4bcc <mbedtls_mpi_copy>
    526a:	4605      	mov	r5, r0
    526c:	2800      	cmp	r0, #0
    526e:	d0ea      	beq.n	5246 <mbedtls_mpi_sub_abs+0x34>
/mnt/disk/raspbian-tee/optee_os/lib/libmbedtls/mbedtls/library/bignum.c:1076
    5270:	4638      	mov	r0, r7
    5272:	f7ff fbca 	bl	4a0a <mbedtls_mpi_free>
/mnt/disk/raspbian-tee/optee_os/lib/libmbedtls/mbedtls/library/bignum.c:1079
    5276:	4628      	mov	r0, r5
    5278:	b004      	add	sp, #16
    527a:	e8bd 81f0 	ldmia.w	sp!, {r4, r5, r6, r7, r8, pc}
/mnt/disk/raspbian-tee/optee_os/lib/libmbedtls/mbedtls/library/bignum.c:1069
    527e:	68a2      	ldr	r2, [r4, #8]
    5280:	58d2      	ldr	r2, [r2, r3]
    5282:	3b04      	subs	r3, #4
    5284:	2a00      	cmp	r2, #0
    5286:	d1e6      	bne.n	5256 <mbedtls_mpi_sub_abs+0x44>
/mnt/disk/raspbian-tee/optee_os/lib/libmbedtls/mbedtls/library/bignum.c:1068 (discriminator 2)
    5288:	3801      	subs	r0, #1
    528a:	e7e3      	b.n	5254 <mbedtls_mpi_sub_abs+0x42>
/mnt/disk/raspbian-tee/optee_os/lib/libmbedtls/mbedtls/library/bignum.c:1048
    528c:	f06f 0509 	mvn.w	r5, #9
    5290:	e7f1      	b.n	5276 <mbedtls_mpi_sub_abs+0x64>

00005292 <mbedtls_mpi_add_mpi>:
mbedtls_mpi_add_mpi():
/mnt/disk/raspbian-tee/optee_os/lib/libmbedtls/mbedtls/library/bignum.c:1085
    5292:	b5f8      	push	{r3, r4, r5, r6, r7, lr}
    5294:	4605      	mov	r5, r0
    5296:	460f      	mov	r7, r1
/mnt/disk/raspbian-tee/optee_os/lib/libmbedtls/mbedtls/library/bignum.c:1086
    5298:	f991 4000 	ldrsb.w	r4, [r1]
/mnt/disk/raspbian-tee/optee_os/lib/libmbedtls/mbedtls/library/bignum.c:1085
    529c:	4616      	mov	r6, r2
/mnt/disk/raspbian-tee/optee_os/lib/libmbedtls/mbedtls/library/bignum.c:1088
    529e:	f992 3000 	ldrsb.w	r3, [r2]
    52a2:	4363      	muls	r3, r4
    52a4:	d516      	bpl.n	52d4 <mbedtls_mpi_add_mpi+0x42>
/mnt/disk/raspbian-tee/optee_os/lib/libmbedtls/mbedtls/library/bignum.c:1090
    52a6:	4611      	mov	r1, r2
    52a8:	4638      	mov	r0, r7
    52aa:	f7ff feba 	bl	5022 <mbedtls_mpi_cmp_abs>
    52ae:	2800      	cmp	r0, #0
    52b0:	db06      	blt.n	52c0 <mbedtls_mpi_add_mpi+0x2e>
/mnt/disk/raspbian-tee/optee_os/lib/libmbedtls/mbedtls/library/bignum.c:1092
    52b2:	4632      	mov	r2, r6
    52b4:	4639      	mov	r1, r7
    52b6:	4628      	mov	r0, r5
    52b8:	f7ff ffab 	bl	5212 <mbedtls_mpi_sub_abs>
/mnt/disk/raspbian-tee/optee_os/lib/libmbedtls/mbedtls/library/bignum.c:1103
    52bc:	b140      	cbz	r0, 52d0 <mbedtls_mpi_add_mpi+0x3e>
/mnt/disk/raspbian-tee/optee_os/lib/libmbedtls/mbedtls/library/bignum.c:1110
    52be:	bdf8      	pop	{r3, r4, r5, r6, r7, pc}
/mnt/disk/raspbian-tee/optee_os/lib/libmbedtls/mbedtls/library/bignum.c:1097
    52c0:	463a      	mov	r2, r7
    52c2:	4631      	mov	r1, r6
    52c4:	4628      	mov	r0, r5
    52c6:	f7ff ffa4 	bl	5212 <mbedtls_mpi_sub_abs>
    52ca:	2800      	cmp	r0, #0
    52cc:	d1f7      	bne.n	52be <mbedtls_mpi_add_mpi+0x2c>
/mnt/disk/raspbian-tee/optee_os/lib/libmbedtls/mbedtls/library/bignum.c:1098
    52ce:	4264      	negs	r4, r4
/mnt/disk/raspbian-tee/optee_os/lib/libmbedtls/mbedtls/library/bignum.c:1104
    52d0:	702c      	strb	r4, [r5, #0]
/mnt/disk/raspbian-tee/optee_os/lib/libmbedtls/mbedtls/library/bignum.c:1109
    52d2:	e7f4      	b.n	52be <mbedtls_mpi_add_mpi+0x2c>
/mnt/disk/raspbian-tee/optee_os/lib/libmbedtls/mbedtls/library/bignum.c:1103
    52d4:	f7ff ff3f 	bl	5156 <mbedtls_mpi_add_abs>
    52d8:	e7f0      	b.n	52bc <mbedtls_mpi_add_mpi+0x2a>

000052da <mbedtls_mpi_sub_mpi>:
mbedtls_mpi_sub_mpi():
/mnt/disk/raspbian-tee/optee_os/lib/libmbedtls/mbedtls/library/bignum.c:1116
    52da:	b5f8      	push	{r3, r4, r5, r6, r7, lr}
    52dc:	4605      	mov	r5, r0
    52de:	460f      	mov	r7, r1
/mnt/disk/raspbian-tee/optee_os/lib/libmbedtls/mbedtls/library/bignum.c:1117
    52e0:	f991 4000 	ldrsb.w	r4, [r1]
/mnt/disk/raspbian-tee/optee_os/lib/libmbedtls/mbedtls/library/bignum.c:1116
    52e4:	4616      	mov	r6, r2
/mnt/disk/raspbian-tee/optee_os/lib/libmbedtls/mbedtls/library/bignum.c:1119
    52e6:	f992 3000 	ldrsb.w	r3, [r2]
    52ea:	fb13 f304 	smulbb	r3, r3, r4
    52ee:	2b00      	cmp	r3, #0
    52f0:	dd16      	ble.n	5320 <mbedtls_mpi_sub_mpi+0x46>
/mnt/disk/raspbian-tee/optee_os/lib/libmbedtls/mbedtls/library/bignum.c:1121
    52f2:	4611      	mov	r1, r2
    52f4:	4638      	mov	r0, r7
    52f6:	f7ff fe94 	bl	5022 <mbedtls_mpi_cmp_abs>
    52fa:	2800      	cmp	r0, #0
    52fc:	db06      	blt.n	530c <mbedtls_mpi_sub_mpi+0x32>
/mnt/disk/raspbian-tee/optee_os/lib/libmbedtls/mbedtls/library/bignum.c:1123
    52fe:	4632      	mov	r2, r6
    5300:	4639      	mov	r1, r7
    5302:	4628      	mov	r0, r5
    5304:	f7ff ff85 	bl	5212 <mbedtls_mpi_sub_abs>
/mnt/disk/raspbian-tee/optee_os/lib/libmbedtls/mbedtls/library/bignum.c:1134
    5308:	b140      	cbz	r0, 531c <mbedtls_mpi_sub_mpi+0x42>
/mnt/disk/raspbian-tee/optee_os/lib/libmbedtls/mbedtls/library/bignum.c:1141
    530a:	bdf8      	pop	{r3, r4, r5, r6, r7, pc}
/mnt/disk/raspbian-tee/optee_os/lib/libmbedtls/mbedtls/library/bignum.c:1128
    530c:	463a      	mov	r2, r7
    530e:	4631      	mov	r1, r6
    5310:	4628      	mov	r0, r5
    5312:	f7ff ff7e 	bl	5212 <mbedtls_mpi_sub_abs>
    5316:	2800      	cmp	r0, #0
    5318:	d1f7      	bne.n	530a <mbedtls_mpi_sub_mpi+0x30>
/mnt/disk/raspbian-tee/optee_os/lib/libmbedtls/mbedtls/library/bignum.c:1129
    531a:	4264      	negs	r4, r4
/mnt/disk/raspbian-tee/optee_os/lib/libmbedtls/mbedtls/library/bignum.c:1135
    531c:	702c      	strb	r4, [r5, #0]
/mnt/disk/raspbian-tee/optee_os/lib/libmbedtls/mbedtls/library/bignum.c:1140
    531e:	e7f4      	b.n	530a <mbedtls_mpi_sub_mpi+0x30>
/mnt/disk/raspbian-tee/optee_os/lib/libmbedtls/mbedtls/library/bignum.c:1134
    5320:	f7ff ff19 	bl	5156 <mbedtls_mpi_add_abs>
    5324:	e7f0      	b.n	5308 <mbedtls_mpi_sub_mpi+0x2e>

00005326 <mbedtls_mpi_add_int>:
mbedtls_mpi_add_int():
/mnt/disk/raspbian-tee/optee_os/lib/libmbedtls/mbedtls/library/bignum.c:1147
    5326:	b51f      	push	{r0, r1, r2, r3, r4, lr}
/mnt/disk/raspbian-tee/optee_os/lib/libmbedtls/mbedtls/library/bignum.c:1151
    5328:	ea82 73e2 	eor.w	r3, r2, r2, asr #31
/mnt/disk/raspbian-tee/optee_os/lib/libmbedtls/mbedtls/library/bignum.c:1152
    532c:	2a00      	cmp	r2, #0
/mnt/disk/raspbian-tee/optee_os/lib/libmbedtls/mbedtls/library/bignum.c:1151
    532e:	eba3 73e2 	sub.w	r3, r3, r2, asr #31
/mnt/disk/raspbian-tee/optee_os/lib/libmbedtls/mbedtls/library/bignum.c:1156
    5332:	aa01      	add	r2, sp, #4
/mnt/disk/raspbian-tee/optee_os/lib/libmbedtls/mbedtls/library/bignum.c:1151
    5334:	9300      	str	r3, [sp, #0]
/mnt/disk/raspbian-tee/optee_os/lib/libmbedtls/mbedtls/library/bignum.c:1152
    5336:	f04f 33ff 	mov.w	r3, #4294967295	; 0xffffffff
/mnt/disk/raspbian-tee/optee_os/lib/libmbedtls/mbedtls/library/bignum.c:1154
    533a:	f8cd d00c 	str.w	sp, [sp, #12]
/mnt/disk/raspbian-tee/optee_os/lib/libmbedtls/mbedtls/library/bignum.c:1152
    533e:	bfa8      	it	ge
    5340:	2301      	movge	r3, #1
    5342:	f88d 3004 	strb.w	r3, [sp, #4]
/mnt/disk/raspbian-tee/optee_os/lib/libmbedtls/mbedtls/library/bignum.c:1153
    5346:	2301      	movs	r3, #1
    5348:	f8ad 3008 	strh.w	r3, [sp, #8]
/mnt/disk/raspbian-tee/optee_os/lib/libmbedtls/mbedtls/library/bignum.c:1156
    534c:	f7ff ffa1 	bl	5292 <mbedtls_mpi_add_mpi>
/mnt/disk/raspbian-tee/optee_os/lib/libmbedtls/mbedtls/library/bignum.c:1157
    5350:	b005      	add	sp, #20
    5352:	f85d fb04 	ldr.w	pc, [sp], #4

00005356 <mbedtls_mpi_sub_int>:
mbedtls_mpi_sub_int():
/mnt/disk/raspbian-tee/optee_os/lib/libmbedtls/mbedtls/library/bignum.c:1163
    5356:	b51f      	push	{r0, r1, r2, r3, r4, lr}
/mnt/disk/raspbian-tee/optee_os/lib/libmbedtls/mbedtls/library/bignum.c:1167
    5358:	ea82 73e2 	eor.w	r3, r2, r2, asr #31
/mnt/disk/raspbian-tee/optee_os/lib/libmbedtls/mbedtls/library/bignum.c:1168
    535c:	2a00      	cmp	r2, #0
/mnt/disk/raspbian-tee/optee_os/lib/libmbedtls/mbedtls/library/bignum.c:1167
    535e:	eba3 73e2 	sub.w	r3, r3, r2, asr #31
/mnt/disk/raspbian-tee/optee_os/lib/libmbedtls/mbedtls/library/bignum.c:1172
    5362:	aa01      	add	r2, sp, #4
/mnt/disk/raspbian-tee/optee_os/lib/libmbedtls/mbedtls/library/bignum.c:1167
    5364:	9300      	str	r3, [sp, #0]
/mnt/disk/raspbian-tee/optee_os/lib/libmbedtls/mbedtls/library/bignum.c:1168
    5366:	f04f 33ff 	mov.w	r3, #4294967295	; 0xffffffff
/mnt/disk/raspbian-tee/optee_os/lib/libmbedtls/mbedtls/library/bignum.c:1170
    536a:	f8cd d00c 	str.w	sp, [sp, #12]
/mnt/disk/raspbian-tee/optee_os/lib/libmbedtls/mbedtls/library/bignum.c:1168
    536e:	bfa8      	it	ge
    5370:	2301      	movge	r3, #1
    5372:	f88d 3004 	strb.w	r3, [sp, #4]
/mnt/disk/raspbian-tee/optee_os/lib/libmbedtls/mbedtls/library/bignum.c:1169
    5376:	2301      	movs	r3, #1
    5378:	f8ad 3008 	strh.w	r3, [sp, #8]
/mnt/disk/raspbian-tee/optee_os/lib/libmbedtls/mbedtls/library/bignum.c:1172
    537c:	f7ff ffad 	bl	52da <mbedtls_mpi_sub_mpi>
/mnt/disk/raspbian-tee/optee_os/lib/libmbedtls/mbedtls/library/bignum.c:1173
    5380:	b005      	add	sp, #20
    5382:	f85d fb04 	ldr.w	pc, [sp], #4

00005386 <mbedtls_mpi_mul_mpi>:
mbedtls_mpi_mul_mpi():
/mnt/disk/raspbian-tee/optee_os/lib/libmbedtls/mbedtls/library/bignum.c:1251
    5386:	e92d 4ff0 	stmdb	sp!, {r4, r5, r6, r7, r8, r9, sl, fp, lr}
    538a:	4606      	mov	r6, r0
    538c:	4688      	mov	r8, r1
    538e:	b087      	sub	sp, #28
    5390:	4617      	mov	r7, r2
/mnt/disk/raspbian-tee/optee_os/lib/libmbedtls/mbedtls/library/bignum.c:1256
    5392:	4668      	mov	r0, sp
    5394:	f10d 0b0c 	add.w	fp, sp, #12
    5398:	f7ff fb1b 	bl	49d2 <mbedtls_mpi_init_mempool>
    539c:	4658      	mov	r0, fp
    539e:	f7ff fb18 	bl	49d2 <mbedtls_mpi_init_mempool>
    53a2:	46ea      	mov	sl, sp
/mnt/disk/raspbian-tee/optee_os/lib/libmbedtls/mbedtls/library/bignum.c:1258
    53a4:	428e      	cmp	r6, r1
    53a6:	d106      	bne.n	53b6 <mbedtls_mpi_mul_mpi+0x30>
/mnt/disk/raspbian-tee/optee_os/lib/libmbedtls/mbedtls/library/bignum.c:1258 (discriminator 1)
    53a8:	4631      	mov	r1, r6
    53aa:	4668      	mov	r0, sp
    53ac:	f7ff fc0e 	bl	4bcc <mbedtls_mpi_copy>
    53b0:	4605      	mov	r5, r0
    53b2:	bb88      	cbnz	r0, 5418 <mbedtls_mpi_mul_mpi+0x92>
/mnt/disk/raspbian-tee/optee_os/lib/libmbedtls/mbedtls/library/bignum.c:1258
    53b4:	46e8      	mov	r8, sp
/mnt/disk/raspbian-tee/optee_os/lib/libmbedtls/mbedtls/library/bignum.c:1259
    53b6:	42be      	cmp	r6, r7
    53b8:	d106      	bne.n	53c8 <mbedtls_mpi_mul_mpi+0x42>
/mnt/disk/raspbian-tee/optee_os/lib/libmbedtls/mbedtls/library/bignum.c:1259 (discriminator 1)
    53ba:	4631      	mov	r1, r6
    53bc:	4658      	mov	r0, fp
    53be:	f7ff fc05 	bl	4bcc <mbedtls_mpi_copy>
    53c2:	4605      	mov	r5, r0
    53c4:	bb40      	cbnz	r0, 5418 <mbedtls_mpi_mul_mpi+0x92>
/mnt/disk/raspbian-tee/optee_os/lib/libmbedtls/mbedtls/library/bignum.c:1259
    53c6:	465f      	mov	r7, fp
/mnt/disk/raspbian-tee/optee_os/lib/libmbedtls/mbedtls/library/bignum.c:1261
    53c8:	f8b8 9004 	ldrh.w	r9, [r8, #4]
    53cc:	f109 4380 	add.w	r3, r9, #1073741824	; 0x40000000
    53d0:	3b01      	subs	r3, #1
    53d2:	009b      	lsls	r3, r3, #2
/mnt/disk/raspbian-tee/optee_os/lib/libmbedtls/mbedtls/library/bignum.c:1261 (discriminator 1)
    53d4:	f1b9 0f00 	cmp.w	r9, #0
    53d8:	d128      	bne.n	542c <mbedtls_mpi_mul_mpi+0xa6>
/mnt/disk/raspbian-tee/optee_os/lib/libmbedtls/mbedtls/library/bignum.c:1265
    53da:	88bc      	ldrh	r4, [r7, #4]
    53dc:	f104 4380 	add.w	r3, r4, #1073741824	; 0x40000000
    53e0:	3b01      	subs	r3, #1
    53e2:	009b      	lsls	r3, r3, #2
/mnt/disk/raspbian-tee/optee_os/lib/libmbedtls/mbedtls/library/bignum.c:1265 (discriminator 1)
    53e4:	bb5c      	cbnz	r4, 543e <mbedtls_mpi_mul_mpi+0xb8>
/mnt/disk/raspbian-tee/optee_os/lib/libmbedtls/mbedtls/library/bignum.c:1269
    53e6:	eb09 0104 	add.w	r1, r9, r4
    53ea:	4630      	mov	r0, r6
    53ec:	f7ff fb34 	bl	4a58 <mbedtls_mpi_grow>
    53f0:	4605      	mov	r5, r0
    53f2:	b988      	cbnz	r0, 5418 <mbedtls_mpi_mul_mpi+0x92>
/mnt/disk/raspbian-tee/optee_os/lib/libmbedtls/mbedtls/library/bignum.c:1270
    53f4:	4601      	mov	r1, r0
    53f6:	4630      	mov	r0, r6
    53f8:	f7ff fca3 	bl	4d42 <mbedtls_mpi_lset>
    53fc:	4605      	mov	r5, r0
    53fe:	b958      	cbnz	r0, 5418 <mbedtls_mpi_mul_mpi+0x92>
    5400:	f104 4480 	add.w	r4, r4, #1073741824	; 0x40000000
    5404:	3c01      	subs	r4, #1
    5406:	00a4      	lsls	r4, r4, #2
/mnt/disk/raspbian-tee/optee_os/lib/libmbedtls/mbedtls/library/bignum.c:1272 (discriminator 1)
    5408:	1d23      	adds	r3, r4, #4
    540a:	d11f      	bne.n	544c <mbedtls_mpi_mul_mpi+0xc6>
/mnt/disk/raspbian-tee/optee_os/lib/libmbedtls/mbedtls/library/bignum.c:1275
    540c:	f898 3000 	ldrb.w	r3, [r8]
    5410:	783a      	ldrb	r2, [r7, #0]
    5412:	fb13 f302 	smulbb	r3, r3, r2
    5416:	7033      	strb	r3, [r6, #0]
/mnt/disk/raspbian-tee/optee_os/lib/libmbedtls/mbedtls/library/bignum.c:1279
    5418:	4658      	mov	r0, fp
    541a:	f7ff faf6 	bl	4a0a <mbedtls_mpi_free>
    541e:	4650      	mov	r0, sl
    5420:	f7ff faf3 	bl	4a0a <mbedtls_mpi_free>
/mnt/disk/raspbian-tee/optee_os/lib/libmbedtls/mbedtls/library/bignum.c:1282
    5424:	4628      	mov	r0, r5
    5426:	b007      	add	sp, #28
    5428:	e8bd 8ff0 	ldmia.w	sp!, {r4, r5, r6, r7, r8, r9, sl, fp, pc}
/mnt/disk/raspbian-tee/optee_os/lib/libmbedtls/mbedtls/library/bignum.c:1262
    542c:	f8d8 2008 	ldr.w	r2, [r8, #8]
    5430:	58d2      	ldr	r2, [r2, r3]
    5432:	3b04      	subs	r3, #4
    5434:	2a00      	cmp	r2, #0
    5436:	d1d0      	bne.n	53da <mbedtls_mpi_mul_mpi+0x54>
/mnt/disk/raspbian-tee/optee_os/lib/libmbedtls/mbedtls/library/bignum.c:1261 (discriminator 2)
    5438:	f109 39ff 	add.w	r9, r9, #4294967295	; 0xffffffff
    543c:	e7ca      	b.n	53d4 <mbedtls_mpi_mul_mpi+0x4e>
/mnt/disk/raspbian-tee/optee_os/lib/libmbedtls/mbedtls/library/bignum.c:1266
    543e:	68ba      	ldr	r2, [r7, #8]
    5440:	58d2      	ldr	r2, [r2, r3]
    5442:	3b04      	subs	r3, #4
    5444:	2a00      	cmp	r2, #0
    5446:	d1ce      	bne.n	53e6 <mbedtls_mpi_mul_mpi+0x60>
/mnt/disk/raspbian-tee/optee_os/lib/libmbedtls/mbedtls/library/bignum.c:1265 (discriminator 2)
    5448:	3c01      	subs	r4, #1
    544a:	e7cb      	b.n	53e4 <mbedtls_mpi_mul_mpi+0x5e>
/mnt/disk/raspbian-tee/optee_os/lib/libmbedtls/mbedtls/library/bignum.c:1273 (discriminator 3)
    544c:	68bb      	ldr	r3, [r7, #8]
    544e:	4648      	mov	r0, r9
    5450:	68b2      	ldr	r2, [r6, #8]
    5452:	f8d8 1008 	ldr.w	r1, [r8, #8]
    5456:	591b      	ldr	r3, [r3, r4]
    5458:	4422      	add	r2, r4
    545a:	f7ff f844 	bl	44e6 <mpi_mul_hlp>
    545e:	3c04      	subs	r4, #4
    5460:	e7d2      	b.n	5408 <mbedtls_mpi_mul_mpi+0x82>

00005462 <mbedtls_mpi_mul_int>:
mbedtls_mpi_mul_int():
/mnt/disk/raspbian-tee/optee_os/lib/libmbedtls/mbedtls/library/bignum.c:1288
    5462:	b51f      	push	{r0, r1, r2, r3, r4, lr}
/mnt/disk/raspbian-tee/optee_os/lib/libmbedtls/mbedtls/library/bignum.c:1292
    5464:	2301      	movs	r3, #1
/mnt/disk/raspbian-tee/optee_os/lib/libmbedtls/mbedtls/library/bignum.c:1295
    5466:	9200      	str	r2, [sp, #0]
/mnt/disk/raspbian-tee/optee_os/lib/libmbedtls/mbedtls/library/bignum.c:1297
    5468:	aa01      	add	r2, sp, #4
/mnt/disk/raspbian-tee/optee_os/lib/libmbedtls/mbedtls/library/bignum.c:1292
    546a:	f88d 3004 	strb.w	r3, [sp, #4]
/mnt/disk/raspbian-tee/optee_os/lib/libmbedtls/mbedtls/library/bignum.c:1293
    546e:	f8ad 3008 	strh.w	r3, [sp, #8]
/mnt/disk/raspbian-tee/optee_os/lib/libmbedtls/mbedtls/library/bignum.c:1294
    5472:	f8cd d00c 	str.w	sp, [sp, #12]
/mnt/disk/raspbian-tee/optee_os/lib/libmbedtls/mbedtls/library/bignum.c:1297
    5476:	f7ff ff86 	bl	5386 <mbedtls_mpi_mul_mpi>
/mnt/disk/raspbian-tee/optee_os/lib/libmbedtls/mbedtls/library/bignum.c:1298
    547a:	b005      	add	sp, #20
    547c:	f85d fb04 	ldr.w	pc, [sp], #4

00005480 <mbedtls_mpi_read_string>:
mbedtls_mpi_read_string():
/mnt/disk/raspbian-tee/optee_os/lib/libmbedtls/mbedtls/library/bignum.c:502
    5480:	e92d 4ff0 	stmdb	sp!, {r4, r5, r6, r7, r8, r9, sl, fp, lr}
/mnt/disk/raspbian-tee/optee_os/lib/libmbedtls/mbedtls/library/bignum.c:508
    5484:	1e8b      	subs	r3, r1, #2
/mnt/disk/raspbian-tee/optee_os/lib/libmbedtls/mbedtls/library/bignum.c:502
    5486:	4605      	mov	r5, r0
    5488:	b087      	sub	sp, #28
    548a:	4689      	mov	r9, r1
    548c:	4690      	mov	r8, r2
/mnt/disk/raspbian-tee/optee_os/lib/libmbedtls/mbedtls/library/bignum.c:508
    548e:	2b0e      	cmp	r3, #14
    5490:	d905      	bls.n	549e <mbedtls_mpi_read_string+0x1e>
/mnt/disk/raspbian-tee/optee_os/lib/libmbedtls/mbedtls/library/bignum.c:509
    5492:	f06f 0a03 	mvn.w	sl, #3
/mnt/disk/raspbian-tee/optee_os/lib/libmbedtls/mbedtls/library/bignum.c:568
    5496:	4650      	mov	r0, sl
    5498:	b007      	add	sp, #28
    549a:	e8bd 8ff0 	ldmia.w	sp!, {r4, r5, r6, r7, r8, r9, sl, fp, pc}
/mnt/disk/raspbian-tee/optee_os/lib/libmbedtls/mbedtls/library/bignum.c:511
    549e:	ae03      	add	r6, sp, #12
    54a0:	4630      	mov	r0, r6
    54a2:	f7ff fa96 	bl	49d2 <mbedtls_mpi_init_mempool>
/mnt/disk/raspbian-tee/optee_os/lib/libmbedtls/mbedtls/library/bignum.c:513
    54a6:	4640      	mov	r0, r8
    54a8:	f002 fa71 	bl	798e <strlen>
/mnt/disk/raspbian-tee/optee_os/lib/libmbedtls/mbedtls/library/bignum.c:515
    54ac:	f1b9 0f10 	cmp.w	r9, #16
/mnt/disk/raspbian-tee/optee_os/lib/libmbedtls/mbedtls/library/bignum.c:513
    54b0:	4604      	mov	r4, r0
/mnt/disk/raspbian-tee/optee_os/lib/libmbedtls/mbedtls/library/bignum.c:515
    54b2:	d141      	bne.n	5538 <mbedtls_mpi_read_string+0xb8>
/mnt/disk/raspbian-tee/optee_os/lib/libmbedtls/mbedtls/library/bignum.c:517
    54b4:	f1b0 4f80 	cmp.w	r0, #1073741824	; 0x40000000
    54b8:	d2eb      	bcs.n	5492 <mbedtls_mpi_read_string+0x12>
/mnt/disk/raspbian-tee/optee_os/lib/libmbedtls/mbedtls/library/bignum.c:520
    54ba:	0083      	lsls	r3, r0, #2
    54bc:	2101      	movs	r1, #1
    54be:	f013 0f1c 	tst.w	r3, #28
/mnt/disk/raspbian-tee/optee_os/lib/libmbedtls/mbedtls/library/bignum.c:522
    54c2:	4628      	mov	r0, r5
/mnt/disk/raspbian-tee/optee_os/lib/libmbedtls/mbedtls/library/bignum.c:520
    54c4:	bf08      	it	eq
    54c6:	2100      	moveq	r1, #0
/mnt/disk/raspbian-tee/optee_os/lib/libmbedtls/mbedtls/library/bignum.c:522
    54c8:	eb01 1153 	add.w	r1, r1, r3, lsr #5
    54cc:	f7ff fac4 	bl	4a58 <mbedtls_mpi_grow>
    54d0:	4682      	mov	sl, r0
    54d2:	b9a0      	cbnz	r0, 54fe <mbedtls_mpi_read_string+0x7e>
/mnt/disk/raspbian-tee/optee_os/lib/libmbedtls/mbedtls/library/bignum.c:523
    54d4:	4601      	mov	r1, r0
    54d6:	4628      	mov	r0, r5
    54d8:	f7ff fc33 	bl	4d42 <mbedtls_mpi_lset>
    54dc:	4682      	mov	sl, r0
    54de:	b970      	cbnz	r0, 54fe <mbedtls_mpi_read_string+0x7e>
    54e0:	4607      	mov	r7, r0
/mnt/disk/raspbian-tee/optee_os/lib/libmbedtls/mbedtls/library/bignum.c:533 (discriminator 1)
    54e2:	f10d 0908 	add.w	r9, sp, #8
/mnt/disk/raspbian-tee/optee_os/lib/libmbedtls/mbedtls/library/bignum.c:525 (discriminator 1)
    54e6:	b914      	cbnz	r4, 54ee <mbedtls_mpi_read_string+0x6e>
/mnt/disk/raspbian-tee/optee_os/lib/libmbedtls/mbedtls/library/bignum.c:533
    54e8:	f04f 0a00 	mov.w	sl, #0
    54ec:	e007      	b.n	54fe <mbedtls_mpi_read_string+0x7e>
/mnt/disk/raspbian-tee/optee_os/lib/libmbedtls/mbedtls/library/bignum.c:527
    54ee:	2c01      	cmp	r4, #1
    54f0:	d109      	bne.n	5506 <mbedtls_mpi_read_string+0x86>
/mnt/disk/raspbian-tee/optee_os/lib/libmbedtls/mbedtls/library/bignum.c:527 (discriminator 1)
    54f2:	f898 2000 	ldrb.w	r2, [r8]
    54f6:	2a2d      	cmp	r2, #45	; 0x2d
    54f8:	d105      	bne.n	5506 <mbedtls_mpi_read_string+0x86>
/mnt/disk/raspbian-tee/optee_os/lib/libmbedtls/mbedtls/library/bignum.c:529
    54fa:	22ff      	movs	r2, #255	; 0xff
    54fc:	702a      	strb	r2, [r5, #0]
/mnt/disk/raspbian-tee/optee_os/lib/libmbedtls/mbedtls/library/bignum.c:565
    54fe:	4630      	mov	r0, r6
    5500:	f7ff fa83 	bl	4a0a <mbedtls_mpi_free>
/mnt/disk/raspbian-tee/optee_os/lib/libmbedtls/mbedtls/library/bignum.c:567
    5504:	e7c7      	b.n	5496 <mbedtls_mpi_read_string+0x16>
/mnt/disk/raspbian-tee/optee_os/lib/libmbedtls/mbedtls/library/bignum.c:533
    5506:	3c01      	subs	r4, #1
    5508:	2110      	movs	r1, #16
    550a:	4648      	mov	r0, r9
    550c:	f818 2004 	ldrb.w	r2, [r8, r4]
    5510:	f7fe ff9e 	bl	4450 <mpi_get_digit>
    5514:	2800      	cmp	r0, #0
    5516:	d147      	bne.n	55a8 <mbedtls_mpi_read_string+0x128>
/mnt/disk/raspbian-tee/optee_os/lib/libmbedtls/mbedtls/library/bignum.c:534 (discriminator 2)
    5518:	ea4f 0cd7 	mov.w	ip, r7, lsr #3
    551c:	9a02      	ldr	r2, [sp, #8]
    551e:	68a8      	ldr	r0, [r5, #8]
    5520:	00b9      	lsls	r1, r7, #2
    5522:	f001 011c 	and.w	r1, r1, #28
/mnt/disk/raspbian-tee/optee_os/lib/libmbedtls/mbedtls/library/bignum.c:525 (discriminator 2)
    5526:	3701      	adds	r7, #1
/mnt/disk/raspbian-tee/optee_os/lib/libmbedtls/mbedtls/library/bignum.c:534 (discriminator 2)
    5528:	fa02 f101 	lsl.w	r1, r2, r1
    552c:	f850 202c 	ldr.w	r2, [r0, ip, lsl #2]
    5530:	430a      	orrs	r2, r1
    5532:	f840 202c 	str.w	r2, [r0, ip, lsl #2]
    5536:	e7d6      	b.n	54e6 <mbedtls_mpi_read_string+0x66>
/mnt/disk/raspbian-tee/optee_os/lib/libmbedtls/mbedtls/library/bignum.c:539
    5538:	2100      	movs	r1, #0
    553a:	4628      	mov	r0, r5
    553c:	f7ff fc01 	bl	4d42 <mbedtls_mpi_lset>
    5540:	4682      	mov	sl, r0
    5542:	2800      	cmp	r0, #0
    5544:	d1db      	bne.n	54fe <mbedtls_mpi_read_string+0x7e>
    5546:	4607      	mov	r7, r0
/mnt/disk/raspbian-tee/optee_os/lib/libmbedtls/mbedtls/library/bignum.c:545 (discriminator 1)
    5548:	f04f 0bff 	mov.w	fp, #255	; 0xff
/mnt/disk/raspbian-tee/optee_os/lib/libmbedtls/mbedtls/library/bignum.c:549 (discriminator 1)
    554c:	ab02      	add	r3, sp, #8
    554e:	9301      	str	r3, [sp, #4]
/mnt/disk/raspbian-tee/optee_os/lib/libmbedtls/mbedtls/library/bignum.c:541 (discriminator 1)
    5550:	42a7      	cmp	r7, r4
    5552:	d0c9      	beq.n	54e8 <mbedtls_mpi_read_string+0x68>
/mnt/disk/raspbian-tee/optee_os/lib/libmbedtls/mbedtls/library/bignum.c:543
    5554:	b93f      	cbnz	r7, 5566 <mbedtls_mpi_read_string+0xe6>
/mnt/disk/raspbian-tee/optee_os/lib/libmbedtls/mbedtls/library/bignum.c:543 (discriminator 1)
    5556:	f898 3000 	ldrb.w	r3, [r8]
    555a:	2b2d      	cmp	r3, #45	; 0x2d
    555c:	d103      	bne.n	5566 <mbedtls_mpi_read_string+0xe6>
/mnt/disk/raspbian-tee/optee_os/lib/libmbedtls/mbedtls/library/bignum.c:545
    555e:	f885 b000 	strb.w	fp, [r5]
/mnt/disk/raspbian-tee/optee_os/lib/libmbedtls/mbedtls/library/bignum.c:541 (discriminator 2)
    5562:	3701      	adds	r7, #1
    5564:	e7f4      	b.n	5550 <mbedtls_mpi_read_string+0xd0>
/mnt/disk/raspbian-tee/optee_os/lib/libmbedtls/mbedtls/library/bignum.c:549
    5566:	f818 2007 	ldrb.w	r2, [r8, r7]
    556a:	4649      	mov	r1, r9
    556c:	9801      	ldr	r0, [sp, #4]
    556e:	f7fe ff6f 	bl	4450 <mpi_get_digit>
    5572:	4682      	mov	sl, r0
    5574:	2800      	cmp	r0, #0
    5576:	d1c2      	bne.n	54fe <mbedtls_mpi_read_string+0x7e>
/mnt/disk/raspbian-tee/optee_os/lib/libmbedtls/mbedtls/library/bignum.c:550
    5578:	464a      	mov	r2, r9
    557a:	4629      	mov	r1, r5
    557c:	4630      	mov	r0, r6
    557e:	f7ff ff70 	bl	5462 <mbedtls_mpi_mul_int>
    5582:	4682      	mov	sl, r0
    5584:	2800      	cmp	r0, #0
    5586:	d1ba      	bne.n	54fe <mbedtls_mpi_read_string+0x7e>
/mnt/disk/raspbian-tee/optee_os/lib/libmbedtls/mbedtls/library/bignum.c:552
    5588:	f995 3000 	ldrsb.w	r3, [r5]
/mnt/disk/raspbian-tee/optee_os/lib/libmbedtls/mbedtls/library/bignum.c:554
    558c:	4631      	mov	r1, r6
    558e:	9a02      	ldr	r2, [sp, #8]
    5590:	4628      	mov	r0, r5
/mnt/disk/raspbian-tee/optee_os/lib/libmbedtls/mbedtls/library/bignum.c:552
    5592:	2b01      	cmp	r3, #1
    5594:	d105      	bne.n	55a2 <mbedtls_mpi_read_string+0x122>
/mnt/disk/raspbian-tee/optee_os/lib/libmbedtls/mbedtls/library/bignum.c:554
    5596:	f7ff fec6 	bl	5326 <mbedtls_mpi_add_int>
/mnt/disk/raspbian-tee/optee_os/lib/libmbedtls/mbedtls/library/bignum.c:558
    559a:	4682      	mov	sl, r0
    559c:	2800      	cmp	r0, #0
    559e:	d0e0      	beq.n	5562 <mbedtls_mpi_read_string+0xe2>
    55a0:	e7ad      	b.n	54fe <mbedtls_mpi_read_string+0x7e>
    55a2:	f7ff fed8 	bl	5356 <mbedtls_mpi_sub_int>
    55a6:	e7f8      	b.n	559a <mbedtls_mpi_read_string+0x11a>
/mnt/disk/raspbian-tee/optee_os/lib/libmbedtls/mbedtls/library/bignum.c:533
    55a8:	4682      	mov	sl, r0
    55aa:	e7a8      	b.n	54fe <mbedtls_mpi_read_string+0x7e>

000055ac <mbedtls_mpi_div_mpi>:
mbedtls_mpi_div_mpi():
/mnt/disk/raspbian-tee/optee_os/lib/libmbedtls/mbedtls/library/bignum.c:1400
    55ac:	e92d 4ff0 	stmdb	sp!, {r4, r5, r6, r7, r8, r9, sl, fp, lr}
    55b0:	4691      	mov	r9, r2
    55b2:	b09d      	sub	sp, #116	; 0x74
    55b4:	9003      	str	r0, [sp, #12]
/mnt/disk/raspbian-tee/optee_os/lib/libmbedtls/mbedtls/library/bignum.c:1405
    55b6:	4618      	mov	r0, r3
/mnt/disk/raspbian-tee/optee_os/lib/libmbedtls/mbedtls/library/bignum.c:1400
    55b8:	9101      	str	r1, [sp, #4]
/mnt/disk/raspbian-tee/optee_os/lib/libmbedtls/mbedtls/library/bignum.c:1405
    55ba:	2100      	movs	r1, #0
/mnt/disk/raspbian-tee/optee_os/lib/libmbedtls/mbedtls/library/bignum.c:1400
    55bc:	9306      	str	r3, [sp, #24]
/mnt/disk/raspbian-tee/optee_os/lib/libmbedtls/mbedtls/library/bignum.c:1405
    55be:	f7ff fdb2 	bl	5126 <mbedtls_mpi_cmp_int>
    55c2:	2800      	cmp	r0, #0
    55c4:	f000 81c0 	beq.w	5948 <mbedtls_mpi_div_mpi+0x39c>
/mnt/disk/raspbian-tee/optee_os/lib/libmbedtls/mbedtls/library/bignum.c:1408
    55c8:	ae0d      	add	r6, sp, #52	; 0x34
    55ca:	ad10      	add	r5, sp, #64	; 0x40
    55cc:	4630      	mov	r0, r6
/mnt/disk/raspbian-tee/optee_os/lib/libmbedtls/mbedtls/library/bignum.c:1409
    55ce:	af13      	add	r7, sp, #76	; 0x4c
/mnt/disk/raspbian-tee/optee_os/lib/libmbedtls/mbedtls/library/bignum.c:1408
    55d0:	f7ff f9ff 	bl	49d2 <mbedtls_mpi_init_mempool>
    55d4:	4628      	mov	r0, r5
    55d6:	f7ff f9fc 	bl	49d2 <mbedtls_mpi_init_mempool>
/mnt/disk/raspbian-tee/optee_os/lib/libmbedtls/mbedtls/library/bignum.c:1409
    55da:	f10d 0a58 	add.w	sl, sp, #88	; 0x58
    55de:	4638      	mov	r0, r7
/mnt/disk/raspbian-tee/optee_os/lib/libmbedtls/mbedtls/library/bignum.c:1410
    55e0:	f10d 0864 	add.w	r8, sp, #100	; 0x64
/mnt/disk/raspbian-tee/optee_os/lib/libmbedtls/mbedtls/library/bignum.c:1409
    55e4:	f7ff f9f5 	bl	49d2 <mbedtls_mpi_init_mempool>
    55e8:	4650      	mov	r0, sl
    55ea:	f7ff f9f2 	bl	49d2 <mbedtls_mpi_init_mempool>
/mnt/disk/raspbian-tee/optee_os/lib/libmbedtls/mbedtls/library/bignum.c:1410
    55ee:	4640      	mov	r0, r8
    55f0:	f7ff f9ef 	bl	49d2 <mbedtls_mpi_init_mempool>
/mnt/disk/raspbian-tee/optee_os/lib/libmbedtls/mbedtls/library/bignum.c:1412
    55f4:	9906      	ldr	r1, [sp, #24]
    55f6:	4648      	mov	r0, r9
    55f8:	f7ff fd13 	bl	5022 <mbedtls_mpi_cmp_abs>
    55fc:	2800      	cmp	r0, #0
    55fe:	da27      	bge.n	5650 <mbedtls_mpi_div_mpi+0xa4>
/mnt/disk/raspbian-tee/optee_os/lib/libmbedtls/mbedtls/library/bignum.c:1414
    5600:	9b03      	ldr	r3, [sp, #12]
    5602:	b933      	cbnz	r3, 5612 <mbedtls_mpi_div_mpi+0x66>
/mnt/disk/raspbian-tee/optee_os/lib/libmbedtls/mbedtls/library/bignum.c:1415
    5604:	9b01      	ldr	r3, [sp, #4]
    5606:	b9db      	cbnz	r3, 5640 <mbedtls_mpi_div_mpi+0x94>
/mnt/disk/raspbian-tee/optee_os/lib/libmbedtls/mbedtls/library/bignum.c:1416
    5608:	2400      	movs	r4, #0
/mnt/disk/raspbian-tee/optee_os/lib/libmbedtls/mbedtls/library/bignum.c:1510
    560a:	4620      	mov	r0, r4
    560c:	b01d      	add	sp, #116	; 0x74
    560e:	e8bd 8ff0 	ldmia.w	sp!, {r4, r5, r6, r7, r8, r9, sl, fp, pc}
/mnt/disk/raspbian-tee/optee_os/lib/libmbedtls/mbedtls/library/bignum.c:1414 (discriminator 1)
    5612:	2100      	movs	r1, #0
    5614:	9803      	ldr	r0, [sp, #12]
    5616:	f7ff fb94 	bl	4d42 <mbedtls_mpi_lset>
    561a:	4604      	mov	r4, r0
    561c:	2800      	cmp	r0, #0
    561e:	d0f1      	beq.n	5604 <mbedtls_mpi_div_mpi+0x58>
/mnt/disk/raspbian-tee/optee_os/lib/libmbedtls/mbedtls/library/bignum.c:1506
    5620:	a80d      	add	r0, sp, #52	; 0x34
    5622:	f7ff f9f2 	bl	4a0a <mbedtls_mpi_free>
    5626:	a810      	add	r0, sp, #64	; 0x40
    5628:	f7ff f9ef 	bl	4a0a <mbedtls_mpi_free>
    562c:	a813      	add	r0, sp, #76	; 0x4c
    562e:	f7ff f9ec 	bl	4a0a <mbedtls_mpi_free>
/mnt/disk/raspbian-tee/optee_os/lib/libmbedtls/mbedtls/library/bignum.c:1507
    5632:	a816      	add	r0, sp, #88	; 0x58
    5634:	f7ff f9e9 	bl	4a0a <mbedtls_mpi_free>
    5638:	a819      	add	r0, sp, #100	; 0x64
    563a:	f7ff f9e6 	bl	4a0a <mbedtls_mpi_free>
/mnt/disk/raspbian-tee/optee_os/lib/libmbedtls/mbedtls/library/bignum.c:1509
    563e:	e7e4      	b.n	560a <mbedtls_mpi_div_mpi+0x5e>
/mnt/disk/raspbian-tee/optee_os/lib/libmbedtls/mbedtls/library/bignum.c:1415 (discriminator 1)
    5640:	4649      	mov	r1, r9
    5642:	9801      	ldr	r0, [sp, #4]
    5644:	f7ff fac2 	bl	4bcc <mbedtls_mpi_copy>
    5648:	4604      	mov	r4, r0
    564a:	2800      	cmp	r0, #0
    564c:	d1e8      	bne.n	5620 <mbedtls_mpi_div_mpi+0x74>
    564e:	e7db      	b.n	5608 <mbedtls_mpi_div_mpi+0x5c>
/mnt/disk/raspbian-tee/optee_os/lib/libmbedtls/mbedtls/library/bignum.c:1419
    5650:	4649      	mov	r1, r9
    5652:	4630      	mov	r0, r6
    5654:	f7ff faba 	bl	4bcc <mbedtls_mpi_copy>
    5658:	4604      	mov	r4, r0
    565a:	2800      	cmp	r0, #0
    565c:	d1e0      	bne.n	5620 <mbedtls_mpi_div_mpi+0x74>
/mnt/disk/raspbian-tee/optee_os/lib/libmbedtls/mbedtls/library/bignum.c:1420
    565e:	9906      	ldr	r1, [sp, #24]
    5660:	4628      	mov	r0, r5
    5662:	f7ff fab3 	bl	4bcc <mbedtls_mpi_copy>
    5666:	4604      	mov	r4, r0
    5668:	2800      	cmp	r0, #0
    566a:	d1d9      	bne.n	5620 <mbedtls_mpi_div_mpi+0x74>
/mnt/disk/raspbian-tee/optee_os/lib/libmbedtls/mbedtls/library/bignum.c:1423
    566c:	f8b9 1004 	ldrh.w	r1, [r9, #4]
    5670:	4638      	mov	r0, r7
/mnt/disk/raspbian-tee/optee_os/lib/libmbedtls/mbedtls/library/bignum.c:1421
    5672:	2301      	movs	r3, #1
    5674:	f88d 3040 	strb.w	r3, [sp, #64]	; 0x40
/mnt/disk/raspbian-tee/optee_os/lib/libmbedtls/mbedtls/library/bignum.c:1423
    5678:	3102      	adds	r1, #2
/mnt/disk/raspbian-tee/optee_os/lib/libmbedtls/mbedtls/library/bignum.c:1421
    567a:	f88d 3034 	strb.w	r3, [sp, #52]	; 0x34
/mnt/disk/raspbian-tee/optee_os/lib/libmbedtls/mbedtls/library/bignum.c:1423
    567e:	f7ff f9eb 	bl	4a58 <mbedtls_mpi_grow>
    5682:	4604      	mov	r4, r0
    5684:	2800      	cmp	r0, #0
    5686:	d1cb      	bne.n	5620 <mbedtls_mpi_div_mpi+0x74>
/mnt/disk/raspbian-tee/optee_os/lib/libmbedtls/mbedtls/library/bignum.c:1424
    5688:	4601      	mov	r1, r0
    568a:	4638      	mov	r0, r7
    568c:	f7ff fb59 	bl	4d42 <mbedtls_mpi_lset>
    5690:	4604      	mov	r4, r0
    5692:	2800      	cmp	r0, #0
    5694:	d1c4      	bne.n	5620 <mbedtls_mpi_div_mpi+0x74>
/mnt/disk/raspbian-tee/optee_os/lib/libmbedtls/mbedtls/library/bignum.c:1425
    5696:	2102      	movs	r1, #2
    5698:	4650      	mov	r0, sl
    569a:	f7ff f9dd 	bl	4a58 <mbedtls_mpi_grow>
    569e:	4604      	mov	r4, r0
    56a0:	2800      	cmp	r0, #0
    56a2:	d1bd      	bne.n	5620 <mbedtls_mpi_div_mpi+0x74>
/mnt/disk/raspbian-tee/optee_os/lib/libmbedtls/mbedtls/library/bignum.c:1426
    56a4:	2103      	movs	r1, #3
    56a6:	4640      	mov	r0, r8
    56a8:	f7ff f9d6 	bl	4a58 <mbedtls_mpi_grow>
    56ac:	4604      	mov	r4, r0
    56ae:	2800      	cmp	r0, #0
    56b0:	d1b6      	bne.n	5620 <mbedtls_mpi_div_mpi+0x74>
/mnt/disk/raspbian-tee/optee_os/lib/libmbedtls/mbedtls/library/bignum.c:1428
    56b2:	4628      	mov	r0, r5
    56b4:	f7ff fbb0 	bl	4e18 <mbedtls_mpi_bitlen>
    56b8:	f000 001f 	and.w	r0, r0, #31
/mnt/disk/raspbian-tee/optee_os/lib/libmbedtls/mbedtls/library/bignum.c:1429
    56bc:	281f      	cmp	r0, #31
    56be:	d07f      	beq.n	57c0 <mbedtls_mpi_div_mpi+0x214>
/mnt/disk/raspbian-tee/optee_os/lib/libmbedtls/mbedtls/library/bignum.c:1431
    56c0:	f1c0 031f 	rsb	r3, r0, #31
/mnt/disk/raspbian-tee/optee_os/lib/libmbedtls/mbedtls/library/bignum.c:1432
    56c4:	4630      	mov	r0, r6
    56c6:	4619      	mov	r1, r3
/mnt/disk/raspbian-tee/optee_os/lib/libmbedtls/mbedtls/library/bignum.c:1431
    56c8:	9304      	str	r3, [sp, #16]
/mnt/disk/raspbian-tee/optee_os/lib/libmbedtls/mbedtls/library/bignum.c:1432
    56ca:	f7ff fc22 	bl	4f12 <mbedtls_mpi_shift_l>
    56ce:	4604      	mov	r4, r0
    56d0:	2800      	cmp	r0, #0
    56d2:	d1a5      	bne.n	5620 <mbedtls_mpi_div_mpi+0x74>
/mnt/disk/raspbian-tee/optee_os/lib/libmbedtls/mbedtls/library/bignum.c:1433
    56d4:	9904      	ldr	r1, [sp, #16]
    56d6:	4628      	mov	r0, r5
    56d8:	f7ff fc1b 	bl	4f12 <mbedtls_mpi_shift_l>
    56dc:	4604      	mov	r4, r0
    56de:	2800      	cmp	r0, #0
    56e0:	d19e      	bne.n	5620 <mbedtls_mpi_div_mpi+0x74>
/mnt/disk/raspbian-tee/optee_os/lib/libmbedtls/mbedtls/library/bignum.c:1437
    56e2:	f8bd 6038 	ldrh.w	r6, [sp, #56]	; 0x38
/mnt/disk/raspbian-tee/optee_os/lib/libmbedtls/mbedtls/library/bignum.c:1439
    56e6:	4628      	mov	r0, r5
/mnt/disk/raspbian-tee/optee_os/lib/libmbedtls/mbedtls/library/bignum.c:1438
    56e8:	f8bd 7044 	ldrh.w	r7, [sp, #68]	; 0x44
/mnt/disk/raspbian-tee/optee_os/lib/libmbedtls/mbedtls/library/bignum.c:1437
    56ec:	f106 38ff 	add.w	r8, r6, #4294967295	; 0xffffffff
/mnt/disk/raspbian-tee/optee_os/lib/libmbedtls/mbedtls/library/bignum.c:1438
    56f0:	1e7b      	subs	r3, r7, #1
    56f2:	9302      	str	r3, [sp, #8]
/mnt/disk/raspbian-tee/optee_os/lib/libmbedtls/mbedtls/library/bignum.c:1439
    56f4:	eba8 0b03 	sub.w	fp, r8, r3
    56f8:	ea4f 134b 	mov.w	r3, fp, lsl #5
    56fc:	9305      	str	r3, [sp, #20]
    56fe:	4619      	mov	r1, r3
    5700:	f7ff fc07 	bl	4f12 <mbedtls_mpi_shift_l>
    5704:	4604      	mov	r4, r0
    5706:	2800      	cmp	r0, #0
    5708:	d18a      	bne.n	5620 <mbedtls_mpi_div_mpi+0x74>
/mnt/disk/raspbian-tee/optee_os/lib/libmbedtls/mbedtls/library/bignum.c:1443
    570a:	ea4f 0b8b 	mov.w	fp, fp, lsl #2
/mnt/disk/raspbian-tee/optee_os/lib/libmbedtls/mbedtls/library/bignum.c:1441
    570e:	f10d 0a34 	add.w	sl, sp, #52	; 0x34
    5712:	4629      	mov	r1, r5
    5714:	4650      	mov	r0, sl
    5716:	f7ff fcbb 	bl	5090 <mbedtls_mpi_cmp_mpi>
    571a:	2800      	cmp	r0, #0
    571c:	da52      	bge.n	57c4 <mbedtls_mpi_div_mpi+0x218>
/mnt/disk/raspbian-tee/optee_os/lib/libmbedtls/mbedtls/library/bignum.c:1446
    571e:	9905      	ldr	r1, [sp, #20]
    5720:	4628      	mov	r0, r5
    5722:	f7ff fc42 	bl	4faa <mbedtls_mpi_shift_r>
    5726:	4604      	mov	r4, r0
    5728:	2800      	cmp	r0, #0
    572a:	f47f af79 	bne.w	5620 <mbedtls_mpi_div_mpi+0x74>
/mnt/disk/raspbian-tee/optee_os/lib/libmbedtls/mbedtls/library/bignum.c:1450
    572e:	9b02      	ldr	r3, [sp, #8]
    5730:	f106 4580 	add.w	r5, r6, #1073741824	; 0x40000000
    5734:	3d01      	subs	r5, #1
    5736:	1bed      	subs	r5, r5, r7
    5738:	009b      	lsls	r3, r3, #2
    573a:	9307      	str	r3, [sp, #28]
/mnt/disk/raspbian-tee/optee_os/lib/libmbedtls/mbedtls/library/bignum.c:1464
    573c:	3b04      	subs	r3, #4
    573e:	930b      	str	r3, [sp, #44]	; 0x2c
    5740:	f106 6300 	add.w	r3, r6, #134217728	; 0x8000000
    5744:	f106 4680 	add.w	r6, r6, #1073741824	; 0x40000000
    5748:	3b01      	subs	r3, #1
    574a:	3e02      	subs	r6, #2
    574c:	1bdf      	subs	r7, r3, r7
    574e:	00ad      	lsls	r5, r5, #2
    5750:	00b6      	lsls	r6, r6, #2
    5752:	017b      	lsls	r3, r7, #5
    5754:	9305      	str	r3, [sp, #20]
/mnt/disk/raspbian-tee/optee_os/lib/libmbedtls/mbedtls/library/bignum.c:1468
    5756:	ab19      	add	r3, sp, #100	; 0x64
    5758:	930a      	str	r3, [sp, #40]	; 0x28
/mnt/disk/raspbian-tee/optee_os/lib/libmbedtls/mbedtls/library/bignum.c:1448 (discriminator 1)
    575a:	9b02      	ldr	r3, [sp, #8]
    575c:	4598      	cmp	r8, r3
    575e:	d840      	bhi.n	57e2 <mbedtls_mpi_div_mpi+0x236>
/mnt/disk/raspbian-tee/optee_os/lib/libmbedtls/mbedtls/library/bignum.c:1488
    5760:	9b03      	ldr	r3, [sp, #12]
    5762:	b163      	cbz	r3, 577e <mbedtls_mpi_div_mpi+0x1d2>
/mnt/disk/raspbian-tee/optee_os/lib/libmbedtls/mbedtls/library/bignum.c:1490
    5764:	a913      	add	r1, sp, #76	; 0x4c
    5766:	4618      	mov	r0, r3
    5768:	f7ff fa30 	bl	4bcc <mbedtls_mpi_copy>
    576c:	bb30      	cbnz	r0, 57bc <mbedtls_mpi_div_mpi+0x210>
/mnt/disk/raspbian-tee/optee_os/lib/libmbedtls/mbedtls/library/bignum.c:1491
    576e:	9a06      	ldr	r2, [sp, #24]
    5770:	f899 3000 	ldrb.w	r3, [r9]
    5774:	7812      	ldrb	r2, [r2, #0]
    5776:	fb13 f302 	smulbb	r3, r3, r2
    577a:	9a03      	ldr	r2, [sp, #12]
    577c:	7013      	strb	r3, [r2, #0]
/mnt/disk/raspbian-tee/optee_os/lib/libmbedtls/mbedtls/library/bignum.c:1494
    577e:	9b01      	ldr	r3, [sp, #4]
    5780:	2b00      	cmp	r3, #0
    5782:	f43f af4d 	beq.w	5620 <mbedtls_mpi_div_mpi+0x74>
/mnt/disk/raspbian-tee/optee_os/lib/libmbedtls/mbedtls/library/bignum.c:1496
    5786:	ad0d      	add	r5, sp, #52	; 0x34
    5788:	9904      	ldr	r1, [sp, #16]
    578a:	4628      	mov	r0, r5
    578c:	f7ff fc0d 	bl	4faa <mbedtls_mpi_shift_r>
    5790:	b9a0      	cbnz	r0, 57bc <mbedtls_mpi_div_mpi+0x210>
/mnt/disk/raspbian-tee/optee_os/lib/libmbedtls/mbedtls/library/bignum.c:1497
    5792:	f899 3000 	ldrb.w	r3, [r9]
/mnt/disk/raspbian-tee/optee_os/lib/libmbedtls/mbedtls/library/bignum.c:1498
    5796:	4629      	mov	r1, r5
    5798:	9801      	ldr	r0, [sp, #4]
/mnt/disk/raspbian-tee/optee_os/lib/libmbedtls/mbedtls/library/bignum.c:1497
    579a:	f88d 3034 	strb.w	r3, [sp, #52]	; 0x34
/mnt/disk/raspbian-tee/optee_os/lib/libmbedtls/mbedtls/library/bignum.c:1498
    579e:	f7ff fa15 	bl	4bcc <mbedtls_mpi_copy>
    57a2:	4601      	mov	r1, r0
    57a4:	2800      	cmp	r0, #0
    57a6:	f040 80cd 	bne.w	5944 <mbedtls_mpi_div_mpi+0x398>
/mnt/disk/raspbian-tee/optee_os/lib/libmbedtls/mbedtls/library/bignum.c:1500
    57aa:	9801      	ldr	r0, [sp, #4]
    57ac:	f7ff fcbb 	bl	5126 <mbedtls_mpi_cmp_int>
    57b0:	2800      	cmp	r0, #0
    57b2:	f47f af35 	bne.w	5620 <mbedtls_mpi_div_mpi+0x74>
/mnt/disk/raspbian-tee/optee_os/lib/libmbedtls/mbedtls/library/bignum.c:1501
    57b6:	9a01      	ldr	r2, [sp, #4]
    57b8:	2301      	movs	r3, #1
    57ba:	7013      	strb	r3, [r2, #0]
    57bc:	4604      	mov	r4, r0
    57be:	e72f      	b.n	5620 <mbedtls_mpi_div_mpi+0x74>
/mnt/disk/raspbian-tee/optee_os/lib/libmbedtls/mbedtls/library/bignum.c:1435
    57c0:	9404      	str	r4, [sp, #16]
    57c2:	e78e      	b.n	56e2 <mbedtls_mpi_div_mpi+0x136>
/mnt/disk/raspbian-tee/optee_os/lib/libmbedtls/mbedtls/library/bignum.c:1443
    57c4:	9915      	ldr	r1, [sp, #84]	; 0x54
/mnt/disk/raspbian-tee/optee_os/lib/libmbedtls/mbedtls/library/bignum.c:1444
    57c6:	4650      	mov	r0, sl
/mnt/disk/raspbian-tee/optee_os/lib/libmbedtls/mbedtls/library/bignum.c:1443
    57c8:	f851 200b 	ldr.w	r2, [r1, fp]
    57cc:	3201      	adds	r2, #1
    57ce:	f841 200b 	str.w	r2, [r1, fp]
/mnt/disk/raspbian-tee/optee_os/lib/libmbedtls/mbedtls/library/bignum.c:1444
    57d2:	462a      	mov	r2, r5
    57d4:	4651      	mov	r1, sl
    57d6:	f7ff fd80 	bl	52da <mbedtls_mpi_sub_mpi>
    57da:	4604      	mov	r4, r0
    57dc:	2800      	cmp	r0, #0
    57de:	d098      	beq.n	5712 <mbedtls_mpi_div_mpi+0x166>
    57e0:	e71e      	b.n	5620 <mbedtls_mpi_div_mpi+0x74>
/mnt/disk/raspbian-tee/optee_os/lib/libmbedtls/mbedtls/library/bignum.c:1450
    57e2:	990f      	ldr	r1, [sp, #60]	; 0x3c
    57e4:	f106 0a04 	add.w	sl, r6, #4
    57e8:	9a12      	ldr	r2, [sp, #72]	; 0x48
    57ea:	9807      	ldr	r0, [sp, #28]
    57ec:	f851 300a 	ldr.w	r3, [r1, sl]
    57f0:	9f15      	ldr	r7, [sp, #84]	; 0x54
    57f2:	5812      	ldr	r2, [r2, r0]
    57f4:	4293      	cmp	r3, r2
    57f6:	f0c0 8086 	bcc.w	5906 <mbedtls_mpi_div_mpi+0x35a>
/mnt/disk/raspbian-tee/optee_os/lib/libmbedtls/mbedtls/library/bignum.c:1451
    57fa:	f04f 33ff 	mov.w	r3, #4294967295	; 0xffffffff
    57fe:	517b      	str	r3, [r7, r5]
/mnt/disk/raspbian-tee/optee_os/lib/libmbedtls/mbedtls/library/bignum.c:1458
    5800:	9a15      	ldr	r2, [sp, #84]	; 0x54
/mnt/disk/raspbian-tee/optee_os/lib/libmbedtls/mbedtls/library/bignum.c:1469
    5802:	f1a6 0b04 	sub.w	fp, r6, #4
/mnt/disk/raspbian-tee/optee_os/lib/libmbedtls/mbedtls/library/bignum.c:1463
    5806:	af16      	add	r7, sp, #88	; 0x58
/mnt/disk/raspbian-tee/optee_os/lib/libmbedtls/mbedtls/library/bignum.c:1458
    5808:	5953      	ldr	r3, [r2, r5]
    580a:	3301      	adds	r3, #1
    580c:	5153      	str	r3, [r2, r5]
/mnt/disk/raspbian-tee/optee_os/lib/libmbedtls/mbedtls/library/bignum.c:1461
    580e:	9a15      	ldr	r2, [sp, #84]	; 0x54
/mnt/disk/raspbian-tee/optee_os/lib/libmbedtls/mbedtls/library/bignum.c:1463
    5810:	2100      	movs	r1, #0
    5812:	4638      	mov	r0, r7
/mnt/disk/raspbian-tee/optee_os/lib/libmbedtls/mbedtls/library/bignum.c:1461
    5814:	5953      	ldr	r3, [r2, r5]
    5816:	3b01      	subs	r3, #1
    5818:	5153      	str	r3, [r2, r5]
/mnt/disk/raspbian-tee/optee_os/lib/libmbedtls/mbedtls/library/bignum.c:1463
    581a:	f7ff fa92 	bl	4d42 <mbedtls_mpi_lset>
    581e:	2800      	cmp	r0, #0
    5820:	d1cc      	bne.n	57bc <mbedtls_mpi_div_mpi+0x210>
/mnt/disk/raspbian-tee/optee_os/lib/libmbedtls/mbedtls/library/bignum.c:1464
    5822:	9902      	ldr	r1, [sp, #8]
    5824:	9b18      	ldr	r3, [sp, #96]	; 0x60
    5826:	9a12      	ldr	r2, [sp, #72]	; 0x48
    5828:	2900      	cmp	r1, #0
    582a:	f000 8087 	beq.w	593c <mbedtls_mpi_div_mpi+0x390>
/mnt/disk/raspbian-tee/optee_os/lib/libmbedtls/mbedtls/library/bignum.c:1464 (discriminator 1)
    582e:	990b      	ldr	r1, [sp, #44]	; 0x2c
    5830:	5851      	ldr	r1, [r2, r1]
/mnt/disk/raspbian-tee/optee_os/lib/libmbedtls/mbedtls/library/bignum.c:1464 (discriminator 4)
    5832:	6019      	str	r1, [r3, #0]
/mnt/disk/raspbian-tee/optee_os/lib/libmbedtls/mbedtls/library/bignum.c:1466 (discriminator 4)
    5834:	4638      	mov	r0, r7
/mnt/disk/raspbian-tee/optee_os/lib/libmbedtls/mbedtls/library/bignum.c:1465 (discriminator 4)
    5836:	9907      	ldr	r1, [sp, #28]
    5838:	5852      	ldr	r2, [r2, r1]
/mnt/disk/raspbian-tee/optee_os/lib/libmbedtls/mbedtls/library/bignum.c:1466 (discriminator 4)
    583a:	4639      	mov	r1, r7
/mnt/disk/raspbian-tee/optee_os/lib/libmbedtls/mbedtls/library/bignum.c:1465 (discriminator 4)
    583c:	605a      	str	r2, [r3, #4]
/mnt/disk/raspbian-tee/optee_os/lib/libmbedtls/mbedtls/library/bignum.c:1466 (discriminator 4)
    583e:	9b15      	ldr	r3, [sp, #84]	; 0x54
    5840:	595a      	ldr	r2, [r3, r5]
    5842:	f7ff fe0e 	bl	5462 <mbedtls_mpi_mul_int>
    5846:	4601      	mov	r1, r0
    5848:	2800      	cmp	r0, #0
    584a:	d17b      	bne.n	5944 <mbedtls_mpi_div_mpi+0x398>
/mnt/disk/raspbian-tee/optee_os/lib/libmbedtls/mbedtls/library/bignum.c:1468
    584c:	980a      	ldr	r0, [sp, #40]	; 0x28
    584e:	f7ff fa78 	bl	4d42 <mbedtls_mpi_lset>
    5852:	2800      	cmp	r0, #0
    5854:	d1b2      	bne.n	57bc <mbedtls_mpi_div_mpi+0x210>
/mnt/disk/raspbian-tee/optee_os/lib/libmbedtls/mbedtls/library/bignum.c:1469
    5856:	9b1b      	ldr	r3, [sp, #108]	; 0x6c
    5858:	f1b8 0f01 	cmp.w	r8, #1
    585c:	d902      	bls.n	5864 <mbedtls_mpi_div_mpi+0x2b8>
/mnt/disk/raspbian-tee/optee_os/lib/libmbedtls/mbedtls/library/bignum.c:1469 (discriminator 1)
    585e:	9a0f      	ldr	r2, [sp, #60]	; 0x3c
    5860:	f852 000b 	ldr.w	r0, [r2, fp]
/mnt/disk/raspbian-tee/optee_os/lib/libmbedtls/mbedtls/library/bignum.c:1469 (discriminator 4)
    5864:	6018      	str	r0, [r3, #0]
    5866:	9a0f      	ldr	r2, [sp, #60]	; 0x3c
/mnt/disk/raspbian-tee/optee_os/lib/libmbedtls/mbedtls/library/bignum.c:1470 (discriminator 4)
    5868:	f1b8 0f00 	cmp.w	r8, #0
    586c:	d068      	beq.n	5940 <mbedtls_mpi_div_mpi+0x394>
/mnt/disk/raspbian-tee/optee_os/lib/libmbedtls/mbedtls/library/bignum.c:1470 (discriminator 1)
    586e:	5991      	ldr	r1, [r2, r6]
/mnt/disk/raspbian-tee/optee_os/lib/libmbedtls/mbedtls/library/bignum.c:1470 (discriminator 4)
    5870:	6059      	str	r1, [r3, #4]
/mnt/disk/raspbian-tee/optee_os/lib/libmbedtls/mbedtls/library/bignum.c:1473 (discriminator 4)
    5872:	4638      	mov	r0, r7
    5874:	990a      	ldr	r1, [sp, #40]	; 0x28
/mnt/disk/raspbian-tee/optee_os/lib/libmbedtls/mbedtls/library/bignum.c:1471 (discriminator 4)
    5876:	f852 200a 	ldr.w	r2, [r2, sl]
    587a:	609a      	str	r2, [r3, #8]
/mnt/disk/raspbian-tee/optee_os/lib/libmbedtls/mbedtls/library/bignum.c:1473 (discriminator 4)
    587c:	f7ff fc08 	bl	5090 <mbedtls_mpi_cmp_mpi>
    5880:	2800      	cmp	r0, #0
    5882:	dcc4      	bgt.n	580e <mbedtls_mpi_div_mpi+0x262>
/mnt/disk/raspbian-tee/optee_os/lib/libmbedtls/mbedtls/library/bignum.c:1475
    5884:	9b15      	ldr	r3, [sp, #84]	; 0x54
    5886:	f10d 0b40 	add.w	fp, sp, #64	; 0x40
    588a:	4659      	mov	r1, fp
    588c:	4638      	mov	r0, r7
    588e:	595a      	ldr	r2, [r3, r5]
    5890:	f7ff fde7 	bl	5462 <mbedtls_mpi_mul_int>
    5894:	2800      	cmp	r0, #0
    5896:	d191      	bne.n	57bc <mbedtls_mpi_div_mpi+0x210>
/mnt/disk/raspbian-tee/optee_os/lib/libmbedtls/mbedtls/library/bignum.c:1476
    5898:	9905      	ldr	r1, [sp, #20]
    589a:	4638      	mov	r0, r7
    589c:	f7ff fb39 	bl	4f12 <mbedtls_mpi_shift_l>
    58a0:	2800      	cmp	r0, #0
    58a2:	d18b      	bne.n	57bc <mbedtls_mpi_div_mpi+0x210>
/mnt/disk/raspbian-tee/optee_os/lib/libmbedtls/mbedtls/library/bignum.c:1477
    58a4:	f10d 0a34 	add.w	sl, sp, #52	; 0x34
    58a8:	463a      	mov	r2, r7
    58aa:	4651      	mov	r1, sl
    58ac:	4650      	mov	r0, sl
    58ae:	f7ff fd14 	bl	52da <mbedtls_mpi_sub_mpi>
    58b2:	4601      	mov	r1, r0
    58b4:	2800      	cmp	r0, #0
    58b6:	d145      	bne.n	5944 <mbedtls_mpi_div_mpi+0x398>
/mnt/disk/raspbian-tee/optee_os/lib/libmbedtls/mbedtls/library/bignum.c:1479
    58b8:	4650      	mov	r0, sl
    58ba:	f7ff fc34 	bl	5126 <mbedtls_mpi_cmp_int>
    58be:	2800      	cmp	r0, #0
    58c0:	da19      	bge.n	58f6 <mbedtls_mpi_div_mpi+0x34a>
/mnt/disk/raspbian-tee/optee_os/lib/libmbedtls/mbedtls/library/bignum.c:1481
    58c2:	4659      	mov	r1, fp
    58c4:	4638      	mov	r0, r7
    58c6:	f7ff f981 	bl	4bcc <mbedtls_mpi_copy>
    58ca:	2800      	cmp	r0, #0
    58cc:	f47f af76 	bne.w	57bc <mbedtls_mpi_div_mpi+0x210>
/mnt/disk/raspbian-tee/optee_os/lib/libmbedtls/mbedtls/library/bignum.c:1482
    58d0:	9905      	ldr	r1, [sp, #20]
    58d2:	4638      	mov	r0, r7
    58d4:	f7ff fb1d 	bl	4f12 <mbedtls_mpi_shift_l>
    58d8:	2800      	cmp	r0, #0
    58da:	f47f af6f 	bne.w	57bc <mbedtls_mpi_div_mpi+0x210>
/mnt/disk/raspbian-tee/optee_os/lib/libmbedtls/mbedtls/library/bignum.c:1483
    58de:	463a      	mov	r2, r7
    58e0:	4651      	mov	r1, sl
    58e2:	4650      	mov	r0, sl
    58e4:	f7ff fcd5 	bl	5292 <mbedtls_mpi_add_mpi>
    58e8:	2800      	cmp	r0, #0
    58ea:	f47f af67 	bne.w	57bc <mbedtls_mpi_div_mpi+0x210>
/mnt/disk/raspbian-tee/optee_os/lib/libmbedtls/mbedtls/library/bignum.c:1484
    58ee:	9a15      	ldr	r2, [sp, #84]	; 0x54
    58f0:	5953      	ldr	r3, [r2, r5]
    58f2:	3b01      	subs	r3, #1
    58f4:	5153      	str	r3, [r2, r5]
    58f6:	9b05      	ldr	r3, [sp, #20]
/mnt/disk/raspbian-tee/optee_os/lib/libmbedtls/mbedtls/library/bignum.c:1448 (discriminator 2)
    58f8:	f108 38ff 	add.w	r8, r8, #4294967295	; 0xffffffff
    58fc:	3d04      	subs	r5, #4
    58fe:	3e04      	subs	r6, #4
    5900:	3b20      	subs	r3, #32
    5902:	9305      	str	r3, [sp, #20]
    5904:	e729      	b.n	575a <mbedtls_mpi_div_mpi+0x1ae>
/mnt/disk/raspbian-tee/optee_os/lib/libmbedtls/mbedtls/library/bignum.c:1454
    5906:	442f      	add	r7, r5
    5908:	5988      	ldr	r0, [r1, r6]
mbedtls_int_div_int():
/mnt/disk/raspbian-tee/optee_os/lib/libmbedtls/mbedtls/library/bignum.c:1320
    590a:	b1a2      	cbz	r2, 5936 <mbedtls_mpi_div_mpi+0x38a>
/mnt/disk/raspbian-tee/optee_os/lib/libmbedtls/mbedtls/library/bignum.c:1328
    590c:	9309      	str	r3, [sp, #36]	; 0x24
    590e:	2300      	movs	r3, #0
    5910:	9308      	str	r3, [sp, #32]
/mnt/disk/raspbian-tee/optee_os/lib/libmbedtls/mbedtls/library/bignum.c:1330
    5912:	e9dd bc08 	ldrd	fp, ip, [sp, #32]
    5916:	ea4b 0b00 	orr.w	fp, fp, r0
    591a:	4658      	mov	r0, fp
    591c:	4661      	mov	r1, ip
    591e:	f7fb e9a0 	blx	c60 <__aeabi_uldivmod>
    5922:	2300      	movs	r3, #0
    5924:	f04f 32ff 	mov.w	r2, #4294967295	; 0xffffffff
    5928:	428b      	cmp	r3, r1
    592a:	bf08      	it	eq
    592c:	4282      	cmpeq	r2, r0
    592e:	d200      	bcs.n	5932 <mbedtls_mpi_div_mpi+0x386>
    5930:	4610      	mov	r0, r2
mbedtls_mpi_div_mpi():
/mnt/disk/raspbian-tee/optee_os/lib/libmbedtls/mbedtls/library/bignum.c:1454
    5932:	6038      	str	r0, [r7, #0]
    5934:	e764      	b.n	5800 <mbedtls_mpi_div_mpi+0x254>
mbedtls_int_div_int():
/mnt/disk/raspbian-tee/optee_os/lib/libmbedtls/mbedtls/library/bignum.c:1320
    5936:	f04f 30ff 	mov.w	r0, #4294967295	; 0xffffffff
    593a:	e7fa      	b.n	5932 <mbedtls_mpi_div_mpi+0x386>
mbedtls_mpi_div_mpi():
/mnt/disk/raspbian-tee/optee_os/lib/libmbedtls/mbedtls/library/bignum.c:1464
    593c:	9902      	ldr	r1, [sp, #8]
    593e:	e778      	b.n	5832 <mbedtls_mpi_div_mpi+0x286>
/mnt/disk/raspbian-tee/optee_os/lib/libmbedtls/mbedtls/library/bignum.c:1470
    5940:	4641      	mov	r1, r8
    5942:	e795      	b.n	5870 <mbedtls_mpi_div_mpi+0x2c4>
    5944:	460c      	mov	r4, r1
    5946:	e66b      	b.n	5620 <mbedtls_mpi_div_mpi+0x74>
/mnt/disk/raspbian-tee/optee_os/lib/libmbedtls/mbedtls/library/bignum.c:1406
    5948:	f06f 040b 	mvn.w	r4, #11
    594c:	e65d      	b.n	560a <mbedtls_mpi_div_mpi+0x5e>

0000594e <mbedtls_mpi_div_int>:
mbedtls_mpi_div_int():
/mnt/disk/raspbian-tee/optee_os/lib/libmbedtls/mbedtls/library/bignum.c:1516
    594e:	b51f      	push	{r0, r1, r2, r3, r4, lr}
/mnt/disk/raspbian-tee/optee_os/lib/libmbedtls/mbedtls/library/bignum.c:1521
    5950:	2b00      	cmp	r3, #0
/mnt/disk/raspbian-tee/optee_os/lib/libmbedtls/mbedtls/library/bignum.c:1520
    5952:	ea83 74e3 	eor.w	r4, r3, r3, asr #31
    5956:	eba4 74e3 	sub.w	r4, r4, r3, asr #31
/mnt/disk/raspbian-tee/optee_os/lib/libmbedtls/mbedtls/library/bignum.c:1521
    595a:	f04f 33ff 	mov.w	r3, #4294967295	; 0xffffffff
    595e:	bfa8      	it	ge
    5960:	2301      	movge	r3, #1
    5962:	f88d 3004 	strb.w	r3, [sp, #4]
/mnt/disk/raspbian-tee/optee_os/lib/libmbedtls/mbedtls/library/bignum.c:1522
    5966:	2301      	movs	r3, #1
    5968:	f8ad 3008 	strh.w	r3, [sp, #8]
/mnt/disk/raspbian-tee/optee_os/lib/libmbedtls/mbedtls/library/bignum.c:1525
    596c:	ab01      	add	r3, sp, #4
/mnt/disk/raspbian-tee/optee_os/lib/libmbedtls/mbedtls/library/bignum.c:1520
    596e:	9400      	str	r4, [sp, #0]
/mnt/disk/raspbian-tee/optee_os/lib/libmbedtls/mbedtls/library/bignum.c:1523
    5970:	f8cd d00c 	str.w	sp, [sp, #12]
/mnt/disk/raspbian-tee/optee_os/lib/libmbedtls/mbedtls/library/bignum.c:1525
    5974:	f7ff fe1a 	bl	55ac <mbedtls_mpi_div_mpi>
/mnt/disk/raspbian-tee/optee_os/lib/libmbedtls/mbedtls/library/bignum.c:1526
    5978:	b004      	add	sp, #16
    597a:	bd10      	pop	{r4, pc}

0000597c <mbedtls_mpi_mod_mpi>:
mbedtls_mpi_mod_mpi():
/mnt/disk/raspbian-tee/optee_os/lib/libmbedtls/mbedtls/library/bignum.c:1532
    597c:	b570      	push	{r4, r5, r6, lr}
    597e:	4604      	mov	r4, r0
    5980:	460d      	mov	r5, r1
/mnt/disk/raspbian-tee/optee_os/lib/libmbedtls/mbedtls/library/bignum.c:1535
    5982:	4610      	mov	r0, r2
    5984:	2100      	movs	r1, #0
/mnt/disk/raspbian-tee/optee_os/lib/libmbedtls/mbedtls/library/bignum.c:1532
    5986:	4616      	mov	r6, r2
/mnt/disk/raspbian-tee/optee_os/lib/libmbedtls/mbedtls/library/bignum.c:1535
    5988:	f7ff fbcd 	bl	5126 <mbedtls_mpi_cmp_int>
    598c:	2800      	cmp	r0, #0
    598e:	db24      	blt.n	59da <mbedtls_mpi_mod_mpi+0x5e>
/mnt/disk/raspbian-tee/optee_os/lib/libmbedtls/mbedtls/library/bignum.c:1538
    5990:	462a      	mov	r2, r5
    5992:	4633      	mov	r3, r6
    5994:	4621      	mov	r1, r4
    5996:	2000      	movs	r0, #0
    5998:	f7ff fe08 	bl	55ac <mbedtls_mpi_div_mpi>
    599c:	4605      	mov	r5, r0
    599e:	b138      	cbz	r0, 59b0 <mbedtls_mpi_mod_mpi+0x34>
/mnt/disk/raspbian-tee/optee_os/lib/libmbedtls/mbedtls/library/bignum.c:1549
    59a0:	4628      	mov	r0, r5
    59a2:	bd70      	pop	{r4, r5, r6, pc}
/mnt/disk/raspbian-tee/optee_os/lib/libmbedtls/mbedtls/library/bignum.c:1541
    59a4:	4632      	mov	r2, r6
    59a6:	4621      	mov	r1, r4
    59a8:	4620      	mov	r0, r4
    59aa:	f7ff fc72 	bl	5292 <mbedtls_mpi_add_mpi>
    59ae:	b990      	cbnz	r0, 59d6 <mbedtls_mpi_mod_mpi+0x5a>
/mnt/disk/raspbian-tee/optee_os/lib/libmbedtls/mbedtls/library/bignum.c:1540
    59b0:	2100      	movs	r1, #0
    59b2:	4620      	mov	r0, r4
    59b4:	f7ff fbb7 	bl	5126 <mbedtls_mpi_cmp_int>
    59b8:	2800      	cmp	r0, #0
    59ba:	dbf3      	blt.n	59a4 <mbedtls_mpi_mod_mpi+0x28>
/mnt/disk/raspbian-tee/optee_os/lib/libmbedtls/mbedtls/library/bignum.c:1543
    59bc:	4631      	mov	r1, r6
    59be:	4620      	mov	r0, r4
    59c0:	f7ff fb66 	bl	5090 <mbedtls_mpi_cmp_mpi>
    59c4:	2800      	cmp	r0, #0
    59c6:	dbeb      	blt.n	59a0 <mbedtls_mpi_mod_mpi+0x24>
/mnt/disk/raspbian-tee/optee_os/lib/libmbedtls/mbedtls/library/bignum.c:1544
    59c8:	4632      	mov	r2, r6
    59ca:	4621      	mov	r1, r4
    59cc:	4620      	mov	r0, r4
    59ce:	f7ff fc84 	bl	52da <mbedtls_mpi_sub_mpi>
    59d2:	2800      	cmp	r0, #0
    59d4:	d0f2      	beq.n	59bc <mbedtls_mpi_mod_mpi+0x40>
    59d6:	4605      	mov	r5, r0
    59d8:	e7e2      	b.n	59a0 <mbedtls_mpi_mod_mpi+0x24>
/mnt/disk/raspbian-tee/optee_os/lib/libmbedtls/mbedtls/library/bignum.c:1536
    59da:	f06f 0509 	mvn.w	r5, #9
    59de:	e7df      	b.n	59a0 <mbedtls_mpi_mod_mpi+0x24>

000059e0 <mbedtls_mpi_mod_int>:
mbedtls_mpi_mod_int():
/mnt/disk/raspbian-tee/optee_os/lib/libmbedtls/mbedtls/library/bignum.c:1555
    59e0:	b430      	push	{r4, r5}
/mnt/disk/raspbian-tee/optee_os/lib/libmbedtls/mbedtls/library/bignum.c:1559
    59e2:	1e13      	subs	r3, r2, #0
/mnt/disk/raspbian-tee/optee_os/lib/libmbedtls/mbedtls/library/bignum.c:1555
    59e4:	4604      	mov	r4, r0
/mnt/disk/raspbian-tee/optee_os/lib/libmbedtls/mbedtls/library/bignum.c:1559
    59e6:	d012      	beq.n	5a0e <mbedtls_mpi_mod_int+0x2e>
/mnt/disk/raspbian-tee/optee_os/lib/libmbedtls/mbedtls/library/bignum.c:1562
    59e8:	db14      	blt.n	5a14 <mbedtls_mpi_mod_int+0x34>
/mnt/disk/raspbian-tee/optee_os/lib/libmbedtls/mbedtls/library/bignum.c:1568
    59ea:	2b01      	cmp	r3, #1
    59ec:	d103      	bne.n	59f6 <mbedtls_mpi_mod_int+0x16>
/mnt/disk/raspbian-tee/optee_os/lib/libmbedtls/mbedtls/library/bignum.c:1570
    59ee:	2000      	movs	r0, #0
    59f0:	6020      	str	r0, [r4, #0]
/mnt/disk/raspbian-tee/optee_os/lib/libmbedtls/mbedtls/library/bignum.c:1606
    59f2:	bc30      	pop	{r4, r5}
    59f4:	4770      	bx	lr
/mnt/disk/raspbian-tee/optee_os/lib/libmbedtls/mbedtls/library/bignum.c:1574
    59f6:	2b02      	cmp	r3, #2
    59f8:	d106      	bne.n	5a08 <mbedtls_mpi_mod_int+0x28>
/mnt/disk/raspbian-tee/optee_os/lib/libmbedtls/mbedtls/library/bignum.c:1576
    59fa:	688b      	ldr	r3, [r1, #8]
    59fc:	681b      	ldr	r3, [r3, #0]
    59fe:	f003 0301 	and.w	r3, r3, #1
    5a02:	6003      	str	r3, [r0, #0]
/mnt/disk/raspbian-tee/optee_os/lib/libmbedtls/mbedtls/library/bignum.c:1577
    5a04:	2000      	movs	r0, #0
    5a06:	e7f4      	b.n	59f2 <mbedtls_mpi_mod_int+0x12>
/mnt/disk/raspbian-tee/optee_os/lib/libmbedtls/mbedtls/library/bignum.c:1606
    5a08:	bc30      	pop	{r4, r5}
    5a0a:	f7fe bfb5 	b.w	4978 <mbedtls_mpi_mod_int.part.1>
/mnt/disk/raspbian-tee/optee_os/lib/libmbedtls/mbedtls/library/bignum.c:1560
    5a0e:	f06f 000b 	mvn.w	r0, #11
    5a12:	e7ee      	b.n	59f2 <mbedtls_mpi_mod_int+0x12>
/mnt/disk/raspbian-tee/optee_os/lib/libmbedtls/mbedtls/library/bignum.c:1563
    5a14:	f06f 0009 	mvn.w	r0, #9
    5a18:	e7eb      	b.n	59f2 <mbedtls_mpi_mod_int+0x12>

00005a1a <mpi_write_hlp>:
mpi_write_hlp():
/mnt/disk/raspbian-tee/optee_os/lib/libmbedtls/mbedtls/library/bignum.c:578
    5a1a:	1e8b      	subs	r3, r1, #2
/mnt/disk/raspbian-tee/optee_os/lib/libmbedtls/mbedtls/library/bignum.c:574
    5a1c:	b5f7      	push	{r0, r1, r2, r4, r5, r6, r7, lr}
/mnt/disk/raspbian-tee/optee_os/lib/libmbedtls/mbedtls/library/bignum.c:578
    5a1e:	2b0e      	cmp	r3, #14
/mnt/disk/raspbian-tee/optee_os/lib/libmbedtls/mbedtls/library/bignum.c:574
    5a20:	4605      	mov	r5, r0
    5a22:	460f      	mov	r7, r1
    5a24:	4616      	mov	r6, r2
/mnt/disk/raspbian-tee/optee_os/lib/libmbedtls/mbedtls/library/bignum.c:578
    5a26:	d82b      	bhi.n	5a80 <mpi_write_hlp+0x66>
/mnt/disk/raspbian-tee/optee_os/lib/libmbedtls/mbedtls/library/bignum.c:581
    5a28:	460a      	mov	r2, r1
    5a2a:	4601      	mov	r1, r0
    5a2c:	a801      	add	r0, sp, #4
    5a2e:	f7ff ffd7 	bl	59e0 <mbedtls_mpi_mod_int>
    5a32:	4604      	mov	r4, r0
    5a34:	b9a0      	cbnz	r0, 5a60 <mpi_write_hlp+0x46>
/mnt/disk/raspbian-tee/optee_os/lib/libmbedtls/mbedtls/library/bignum.c:582
    5a36:	4601      	mov	r1, r0
    5a38:	463b      	mov	r3, r7
    5a3a:	462a      	mov	r2, r5
    5a3c:	4628      	mov	r0, r5
    5a3e:	f7ff ff86 	bl	594e <mbedtls_mpi_div_int>
    5a42:	4604      	mov	r4, r0
    5a44:	b960      	cbnz	r0, 5a60 <mpi_write_hlp+0x46>
/mnt/disk/raspbian-tee/optee_os/lib/libmbedtls/mbedtls/library/bignum.c:584
    5a46:	4601      	mov	r1, r0
    5a48:	4628      	mov	r0, r5
    5a4a:	f7ff fb6c 	bl	5126 <mbedtls_mpi_cmp_int>
    5a4e:	b950      	cbnz	r0, 5a66 <mpi_write_hlp+0x4c>
/mnt/disk/raspbian-tee/optee_os/lib/libmbedtls/mbedtls/library/bignum.c:587
    5a50:	9b01      	ldr	r3, [sp, #4]
    5a52:	6832      	ldr	r2, [r6, #0]
    5a54:	2b09      	cmp	r3, #9
    5a56:	d80f      	bhi.n	5a78 <mpi_write_hlp+0x5e>
/mnt/disk/raspbian-tee/optee_os/lib/libmbedtls/mbedtls/library/bignum.c:588
    5a58:	3330      	adds	r3, #48	; 0x30
    5a5a:	1c51      	adds	r1, r2, #1
    5a5c:	6031      	str	r1, [r6, #0]
/mnt/disk/raspbian-tee/optee_os/lib/libmbedtls/mbedtls/library/bignum.c:590
    5a5e:	7013      	strb	r3, [r2, #0]
/mnt/disk/raspbian-tee/optee_os/lib/libmbedtls/mbedtls/library/bignum.c:595
    5a60:	4620      	mov	r0, r4
    5a62:	b003      	add	sp, #12
    5a64:	bdf0      	pop	{r4, r5, r6, r7, pc}
/mnt/disk/raspbian-tee/optee_os/lib/libmbedtls/mbedtls/library/bignum.c:585
    5a66:	4632      	mov	r2, r6
    5a68:	4639      	mov	r1, r7
    5a6a:	4628      	mov	r0, r5
    5a6c:	f7ff ffd5 	bl	5a1a <mpi_write_hlp>
    5a70:	2800      	cmp	r0, #0
    5a72:	d0ed      	beq.n	5a50 <mpi_write_hlp+0x36>
    5a74:	4604      	mov	r4, r0
    5a76:	e7f3      	b.n	5a60 <mpi_write_hlp+0x46>
/mnt/disk/raspbian-tee/optee_os/lib/libmbedtls/mbedtls/library/bignum.c:590
    5a78:	1c51      	adds	r1, r2, #1
    5a7a:	3337      	adds	r3, #55	; 0x37
    5a7c:	6031      	str	r1, [r6, #0]
    5a7e:	e7ee      	b.n	5a5e <mpi_write_hlp+0x44>
/mnt/disk/raspbian-tee/optee_os/lib/libmbedtls/mbedtls/library/bignum.c:579
    5a80:	f06f 0403 	mvn.w	r4, #3
    5a84:	e7ec      	b.n	5a60 <mpi_write_hlp+0x46>

00005a86 <mbedtls_mpi_write_string>:
mbedtls_mpi_write_string():
/mnt/disk/raspbian-tee/optee_os/lib/libmbedtls/mbedtls/library/bignum.c:602
    5a86:	e92d 47ff 	stmdb	sp!, {r0, r1, r2, r3, r4, r5, r6, r7, r8, r9, sl, lr}
    5a8a:	461f      	mov	r7, r3
/mnt/disk/raspbian-tee/optee_os/lib/libmbedtls/mbedtls/library/bignum.c:608
    5a8c:	1e8b      	subs	r3, r1, #2
/mnt/disk/raspbian-tee/optee_os/lib/libmbedtls/mbedtls/library/bignum.c:602
    5a8e:	4604      	mov	r4, r0
    5a90:	4688      	mov	r8, r1
    5a92:	4615      	mov	r5, r2
    5a94:	9e0c      	ldr	r6, [sp, #48]	; 0x30
/mnt/disk/raspbian-tee/optee_os/lib/libmbedtls/mbedtls/library/bignum.c:608
    5a96:	2b0e      	cmp	r3, #14
    5a98:	f200 808c 	bhi.w	5bb4 <mbedtls_mpi_write_string+0x12e>
/mnt/disk/raspbian-tee/optee_os/lib/libmbedtls/mbedtls/library/bignum.c:611
    5a9c:	f7ff f9bc 	bl	4e18 <mbedtls_mpi_bitlen>
/mnt/disk/raspbian-tee/optee_os/lib/libmbedtls/mbedtls/library/bignum.c:612
    5aa0:	f1b8 0f03 	cmp.w	r8, #3
    5aa4:	dd05      	ble.n	5ab2 <mbedtls_mpi_write_string+0x2c>
/mnt/disk/raspbian-tee/optee_os/lib/libmbedtls/mbedtls/library/bignum.c:613 (discriminator 1)
    5aa6:	f1b8 0f10 	cmp.w	r8, #16
/mnt/disk/raspbian-tee/optee_os/lib/libmbedtls/mbedtls/library/bignum.c:612 (discriminator 1)
    5aaa:	bf18      	it	ne
    5aac:	0840      	lsrne	r0, r0, #1
/mnt/disk/raspbian-tee/optee_os/lib/libmbedtls/mbedtls/library/bignum.c:613 (discriminator 1)
    5aae:	bf08      	it	eq
    5ab0:	0880      	lsreq	r0, r0, #2
/mnt/disk/raspbian-tee/optee_os/lib/libmbedtls/mbedtls/library/bignum.c:619
    5ab2:	1c42      	adds	r2, r0, #1
    5ab4:	3003      	adds	r0, #3
    5ab6:	f002 0201 	and.w	r2, r2, #1
    5aba:	4410      	add	r0, r2
/mnt/disk/raspbian-tee/optee_os/lib/libmbedtls/mbedtls/library/bignum.c:621
    5abc:	42b8      	cmp	r0, r7
    5abe:	d906      	bls.n	5ace <mbedtls_mpi_write_string+0x48>
/mnt/disk/raspbian-tee/optee_os/lib/libmbedtls/mbedtls/library/bignum.c:624
    5ac0:	f06f 0407 	mvn.w	r4, #7
/mnt/disk/raspbian-tee/optee_os/lib/libmbedtls/mbedtls/library/bignum.c:623
    5ac4:	6030      	str	r0, [r6, #0]
/mnt/disk/raspbian-tee/optee_os/lib/libmbedtls/mbedtls/library/bignum.c:671
    5ac6:	4620      	mov	r0, r4
    5ac8:	b004      	add	sp, #16
    5aca:	e8bd 87f0 	ldmia.w	sp!, {r4, r5, r6, r7, r8, r9, sl, pc}
/mnt/disk/raspbian-tee/optee_os/lib/libmbedtls/mbedtls/library/bignum.c:628
    5ace:	af01      	add	r7, sp, #4
/mnt/disk/raspbian-tee/optee_os/lib/libmbedtls/mbedtls/library/bignum.c:627
    5ad0:	9500      	str	r5, [sp, #0]
/mnt/disk/raspbian-tee/optee_os/lib/libmbedtls/mbedtls/library/bignum.c:628
    5ad2:	4638      	mov	r0, r7
    5ad4:	f7fe ff7d 	bl	49d2 <mbedtls_mpi_init_mempool>
/mnt/disk/raspbian-tee/optee_os/lib/libmbedtls/mbedtls/library/bignum.c:630
    5ad8:	f994 3000 	ldrsb.w	r3, [r4]
    5adc:	3301      	adds	r3, #1
    5ade:	d104      	bne.n	5aea <mbedtls_mpi_write_string+0x64>
/mnt/disk/raspbian-tee/optee_os/lib/libmbedtls/mbedtls/library/bignum.c:631
    5ae0:	9b00      	ldr	r3, [sp, #0]
    5ae2:	1c5a      	adds	r2, r3, #1
    5ae4:	9200      	str	r2, [sp, #0]
    5ae6:	222d      	movs	r2, #45	; 0x2d
    5ae8:	701a      	strb	r2, [r3, #0]
/mnt/disk/raspbian-tee/optee_os/lib/libmbedtls/mbedtls/library/bignum.c:633
    5aea:	f1b8 0f10 	cmp.w	r8, #16
    5aee:	d14a      	bne.n	5b86 <mbedtls_mpi_write_string+0x100>
/mnt/disk/raspbian-tee/optee_os/lib/libmbedtls/mbedtls/library/bignum.c:638
    5af0:	f8b4 e004 	ldrh.w	lr, [r4, #4]
    5af4:	f04f 0900 	mov.w	r9, #0
/mnt/disk/raspbian-tee/optee_os/lib/libmbedtls/mbedtls/library/bignum.c:647
    5af8:	f8df 80c0 	ldr.w	r8, [pc, #192]	; 5bbc <mbedtls_mpi_write_string+0x136>
    5afc:	f10e 4380 	add.w	r3, lr, #1073741824	; 0x40000000
    5b00:	3b01      	subs	r3, #1
    5b02:	44f8      	add	r8, pc
    5b04:	009b      	lsls	r3, r3, #2
/mnt/disk/raspbian-tee/optee_os/lib/libmbedtls/mbedtls/library/bignum.c:638 (discriminator 1)
    5b06:	f1be 0f00 	cmp.w	lr, #0
    5b0a:	d10b      	bne.n	5b24 <mbedtls_mpi_write_string+0x9e>
/mnt/disk/raspbian-tee/optee_os/lib/libmbedtls/mbedtls/library/bignum.c:663
    5b0c:	9b00      	ldr	r3, [sp, #0]
    5b0e:	2400      	movs	r4, #0
    5b10:	1c5a      	adds	r2, r3, #1
    5b12:	9200      	str	r2, [sp, #0]
    5b14:	701c      	strb	r4, [r3, #0]
/mnt/disk/raspbian-tee/optee_os/lib/libmbedtls/mbedtls/library/bignum.c:664
    5b16:	9b00      	ldr	r3, [sp, #0]
    5b18:	1b5d      	subs	r5, r3, r5
    5b1a:	6035      	str	r5, [r6, #0]
/mnt/disk/raspbian-tee/optee_os/lib/libmbedtls/mbedtls/library/bignum.c:668
    5b1c:	4638      	mov	r0, r7
    5b1e:	f7fe ff74 	bl	4a0a <mbedtls_mpi_free>
/mnt/disk/raspbian-tee/optee_os/lib/libmbedtls/mbedtls/library/bignum.c:670
    5b22:	e7d0      	b.n	5ac6 <mbedtls_mpi_write_string+0x40>
    5b24:	f10e 0004 	add.w	r0, lr, #4
/mnt/disk/raspbian-tee/optee_os/lib/libmbedtls/mbedtls/library/bignum.c:638
    5b28:	2118      	movs	r1, #24
/mnt/disk/raspbian-tee/optee_os/lib/libmbedtls/mbedtls/library/bignum.c:642
    5b2a:	68a2      	ldr	r2, [r4, #8]
    5b2c:	58d2      	ldr	r2, [r2, r3]
    5b2e:	40ca      	lsrs	r2, r1
/mnt/disk/raspbian-tee/optee_os/lib/libmbedtls/mbedtls/library/bignum.c:644
    5b30:	f012 0cff 	ands.w	ip, r2, #255	; 0xff
    5b34:	d104      	bne.n	5b40 <mbedtls_mpi_write_string+0xba>
/mnt/disk/raspbian-tee/optee_os/lib/libmbedtls/mbedtls/library/bignum.c:644 (discriminator 1)
    5b36:	f1b9 0f00 	cmp.w	r9, #0
    5b3a:	d101      	bne.n	5b40 <mbedtls_mpi_write_string+0xba>
/mnt/disk/raspbian-tee/optee_os/lib/libmbedtls/mbedtls/library/bignum.c:644 (discriminator 2)
    5b3c:	2802      	cmp	r0, #2
    5b3e:	d119      	bne.n	5b74 <mbedtls_mpi_write_string+0xee>
/mnt/disk/raspbian-tee/optee_os/lib/libmbedtls/mbedtls/library/bignum.c:647
    5b40:	ea4f 1c2c 	mov.w	ip, ip, asr #4
    5b44:	f8dd 9000 	ldr.w	r9, [sp]
/mnt/disk/raspbian-tee/optee_os/lib/libmbedtls/mbedtls/library/bignum.c:648
    5b48:	f002 020f 	and.w	r2, r2, #15
/mnt/disk/raspbian-tee/optee_os/lib/libmbedtls/mbedtls/library/bignum.c:647
    5b4c:	f109 0a01 	add.w	sl, r9, #1
    5b50:	f8cd a000 	str.w	sl, [sp]
    5b54:	f818 c00c 	ldrb.w	ip, [r8, ip]
    5b58:	f889 c000 	strb.w	ip, [r9]
/mnt/disk/raspbian-tee/optee_os/lib/libmbedtls/mbedtls/library/bignum.c:648
    5b5c:	f8dd c000 	ldr.w	ip, [sp]
    5b60:	f818 2002 	ldrb.w	r2, [r8, r2]
    5b64:	f10c 0901 	add.w	r9, ip, #1
    5b68:	f8cd 9000 	str.w	r9, [sp]
/mnt/disk/raspbian-tee/optee_os/lib/libmbedtls/mbedtls/library/bignum.c:649
    5b6c:	f04f 0901 	mov.w	r9, #1
/mnt/disk/raspbian-tee/optee_os/lib/libmbedtls/mbedtls/library/bignum.c:648
    5b70:	f88c 2000 	strb.w	r2, [ip]
    5b74:	3908      	subs	r1, #8
    5b76:	3801      	subs	r0, #1
/mnt/disk/raspbian-tee/optee_os/lib/libmbedtls/mbedtls/library/bignum.c:640 (discriminator 1)
    5b78:	f111 0f08 	cmn.w	r1, #8
    5b7c:	d1d5      	bne.n	5b2a <mbedtls_mpi_write_string+0xa4>
/mnt/disk/raspbian-tee/optee_os/lib/libmbedtls/mbedtls/library/bignum.c:638 (discriminator 2)
    5b7e:	f10e 3eff 	add.w	lr, lr, #4294967295	; 0xffffffff
    5b82:	3b04      	subs	r3, #4
    5b84:	e7bf      	b.n	5b06 <mbedtls_mpi_write_string+0x80>
/mnt/disk/raspbian-tee/optee_os/lib/libmbedtls/mbedtls/library/bignum.c:655
    5b86:	4621      	mov	r1, r4
    5b88:	4638      	mov	r0, r7
    5b8a:	f7ff f81f 	bl	4bcc <mbedtls_mpi_copy>
    5b8e:	4604      	mov	r4, r0
    5b90:	2800      	cmp	r0, #0
    5b92:	d1c3      	bne.n	5b1c <mbedtls_mpi_write_string+0x96>
/mnt/disk/raspbian-tee/optee_os/lib/libmbedtls/mbedtls/library/bignum.c:657
    5b94:	f99d 3004 	ldrsb.w	r3, [sp, #4]
    5b98:	3301      	adds	r3, #1
    5b9a:	d102      	bne.n	5ba2 <mbedtls_mpi_write_string+0x11c>
/mnt/disk/raspbian-tee/optee_os/lib/libmbedtls/mbedtls/library/bignum.c:658
    5b9c:	2301      	movs	r3, #1
    5b9e:	f88d 3004 	strb.w	r3, [sp, #4]
/mnt/disk/raspbian-tee/optee_os/lib/libmbedtls/mbedtls/library/bignum.c:660
    5ba2:	466a      	mov	r2, sp
    5ba4:	4641      	mov	r1, r8
    5ba6:	4638      	mov	r0, r7
    5ba8:	f7ff ff37 	bl	5a1a <mpi_write_hlp>
    5bac:	4604      	mov	r4, r0
    5bae:	2800      	cmp	r0, #0
    5bb0:	d0ac      	beq.n	5b0c <mbedtls_mpi_write_string+0x86>
    5bb2:	e7b3      	b.n	5b1c <mbedtls_mpi_write_string+0x96>
/mnt/disk/raspbian-tee/optee_os/lib/libmbedtls/mbedtls/library/bignum.c:609
    5bb4:	f06f 0403 	mvn.w	r4, #3
    5bb8:	e785      	b.n	5ac6 <mbedtls_mpi_write_string+0x40>
    5bba:	bf00      	nop
    5bbc:	00002873 	.word	0x00002873

00005bc0 <mpi_check_small_factors>:
mpi_check_small_factors():
/mnt/disk/raspbian-tee/optee_os/lib/libmbedtls/mbedtls/library/bignum.c:2108
    5bc0:	6883      	ldr	r3, [r0, #8]
/mnt/disk/raspbian-tee/optee_os/lib/libmbedtls/mbedtls/library/bignum.c:2103
    5bc2:	b5f7      	push	{r0, r1, r2, r4, r5, r6, r7, lr}
    5bc4:	4606      	mov	r6, r0
/mnt/disk/raspbian-tee/optee_os/lib/libmbedtls/mbedtls/library/bignum.c:2108
    5bc6:	681b      	ldr	r3, [r3, #0]
    5bc8:	07db      	lsls	r3, r3, #31
    5bca:	d518      	bpl.n	5bfe <mpi_check_small_factors+0x3e>
    5bcc:	4c0f      	ldr	r4, [pc, #60]	; (5c0c <mpi_check_small_factors+0x4c>)
/mnt/disk/raspbian-tee/optee_os/lib/libmbedtls/mbedtls/library/bignum.c:2116
    5bce:	af01      	add	r7, sp, #4
    5bd0:	447c      	add	r4, pc
    5bd2:	3c04      	subs	r4, #4
/mnt/disk/raspbian-tee/optee_os/lib/libmbedtls/mbedtls/library/bignum.c:2111 (discriminator 1)
    5bd4:	f854 5f04 	ldr.w	r5, [r4, #4]!
    5bd8:	2d00      	cmp	r5, #0
    5bda:	dc01      	bgt.n	5be0 <mpi_check_small_factors+0x20>
    5bdc:	2000      	movs	r0, #0
    5bde:	e010      	b.n	5c02 <mpi_check_small_factors+0x42>
/mnt/disk/raspbian-tee/optee_os/lib/libmbedtls/mbedtls/library/bignum.c:2113
    5be0:	4629      	mov	r1, r5
    5be2:	4630      	mov	r0, r6
    5be4:	f7ff fa9f 	bl	5126 <mbedtls_mpi_cmp_int>
    5be8:	2800      	cmp	r0, #0
    5bea:	dd0c      	ble.n	5c06 <mpi_check_small_factors+0x46>
/mnt/disk/raspbian-tee/optee_os/lib/libmbedtls/mbedtls/library/bignum.c:2116
    5bec:	462a      	mov	r2, r5
    5bee:	4631      	mov	r1, r6
    5bf0:	4638      	mov	r0, r7
    5bf2:	f7ff fef5 	bl	59e0 <mbedtls_mpi_mod_int>
    5bf6:	b920      	cbnz	r0, 5c02 <mpi_check_small_factors+0x42>
/mnt/disk/raspbian-tee/optee_os/lib/libmbedtls/mbedtls/library/bignum.c:2118
    5bf8:	9b01      	ldr	r3, [sp, #4]
    5bfa:	2b00      	cmp	r3, #0
    5bfc:	d1ea      	bne.n	5bd4 <mpi_check_small_factors+0x14>
/mnt/disk/raspbian-tee/optee_os/lib/libmbedtls/mbedtls/library/bignum.c:2109
    5bfe:	f06f 000d 	mvn.w	r0, #13
/mnt/disk/raspbian-tee/optee_os/lib/libmbedtls/mbedtls/library/bignum.c:2124
    5c02:	b003      	add	sp, #12
    5c04:	bdf0      	pop	{r4, r5, r6, r7, pc}
/mnt/disk/raspbian-tee/optee_os/lib/libmbedtls/mbedtls/library/bignum.c:2114
    5c06:	2001      	movs	r0, #1
    5c08:	e7fb      	b.n	5c02 <mpi_check_small_factors+0x42>
    5c0a:	bf00      	nop
    5c0c:	0000205c 	.word	0x0000205c

00005c10 <mbedtls_mpi_montg_init>:
mbedtls_mpi_montg_init():
/mnt/disk/raspbian-tee/optee_os/lib/libmbedtls/mbedtls/library/bignum.c:1613
    5c10:	688b      	ldr	r3, [r1, #8]
/mnt/disk/raspbian-tee/optee_os/lib/libmbedtls/mbedtls/library/bignum.c:1617
    5c12:	2203      	movs	r2, #3
/mnt/disk/raspbian-tee/optee_os/lib/libmbedtls/mbedtls/library/bignum.c:1612
    5c14:	b510      	push	{r4, lr}
/mnt/disk/raspbian-tee/optee_os/lib/libmbedtls/mbedtls/library/bignum.c:1613
    5c16:	681c      	ldr	r4, [r3, #0]
/mnt/disk/raspbian-tee/optee_os/lib/libmbedtls/mbedtls/library/bignum.c:1617
    5c18:	1ca3      	adds	r3, r4, #2
    5c1a:	005b      	lsls	r3, r3, #1
    5c1c:	f003 0308 	and.w	r3, r3, #8
    5c20:	4423      	add	r3, r4
/mnt/disk/raspbian-tee/optee_os/lib/libmbedtls/mbedtls/library/bignum.c:1620 (discriminator 3)
    5c22:	fb03 f104 	mul.w	r1, r3, r4
/mnt/disk/raspbian-tee/optee_os/lib/libmbedtls/mbedtls/library/bignum.c:1619 (discriminator 3)
    5c26:	3a01      	subs	r2, #1
/mnt/disk/raspbian-tee/optee_os/lib/libmbedtls/mbedtls/library/bignum.c:1620 (discriminator 3)
    5c28:	f1c1 0102 	rsb	r1, r1, #2
    5c2c:	fb01 f303 	mul.w	r3, r1, r3
/mnt/disk/raspbian-tee/optee_os/lib/libmbedtls/mbedtls/library/bignum.c:1619 (discriminator 3)
    5c30:	d1f7      	bne.n	5c22 <mbedtls_mpi_montg_init+0x12>
/mnt/disk/raspbian-tee/optee_os/lib/libmbedtls/mbedtls/library/bignum.c:1622
    5c32:	425b      	negs	r3, r3
    5c34:	6003      	str	r3, [r0, #0]
    5c36:	bd10      	pop	{r4, pc}

00005c38 <mbedtls_mpi_montmul>:
mbedtls_mpi_montmul():
/mnt/disk/raspbian-tee/optee_os/lib/libmbedtls/mbedtls/library/bignum.c:1631
    5c38:	e92d 4ff0 	stmdb	sp!, {r4, r5, r6, r7, r8, r9, sl, fp, lr}
    5c3c:	4616      	mov	r6, r2
    5c3e:	4681      	mov	r9, r0
    5c40:	b085      	sub	sp, #20
    5c42:	468b      	mov	fp, r1
    5c44:	9303      	str	r3, [sp, #12]
/mnt/disk/raspbian-tee/optee_os/lib/libmbedtls/mbedtls/library/bignum.c:1635
    5c46:	9b0e      	ldr	r3, [sp, #56]	; 0x38
    5c48:	889a      	ldrh	r2, [r3, #4]
    5c4a:	88b3      	ldrh	r3, [r6, #4]
    5c4c:	4293      	cmp	r3, r2
    5c4e:	da52      	bge.n	5cf6 <mbedtls_mpi_montmul+0xbe>
/mnt/disk/raspbian-tee/optee_os/lib/libmbedtls/mbedtls/library/bignum.c:1635 (discriminator 1)
    5c50:	9b0e      	ldr	r3, [sp, #56]	; 0x38
    5c52:	6898      	ldr	r0, [r3, #8]
    5c54:	2800      	cmp	r0, #0
    5c56:	d04e      	beq.n	5cf6 <mbedtls_mpi_montmul+0xbe>
/mnt/disk/raspbian-tee/optee_os/lib/libmbedtls/mbedtls/library/bignum.c:1638
    5c58:	0092      	lsls	r2, r2, #2
    5c5a:	2100      	movs	r1, #0
    5c5c:	f001 ff9b 	bl	7b96 <memset>
/mnt/disk/raspbian-tee/optee_os/lib/libmbedtls/mbedtls/library/bignum.c:1640
    5c60:	9b0e      	ldr	r3, [sp, #56]	; 0x38
/mnt/disk/raspbian-tee/optee_os/lib/libmbedtls/mbedtls/library/bignum.c:1641
    5c62:	88b4      	ldrh	r4, [r6, #4]
/mnt/disk/raspbian-tee/optee_os/lib/libmbedtls/mbedtls/library/bignum.c:1644
    5c64:	2700      	movs	r7, #0
/mnt/disk/raspbian-tee/optee_os/lib/libmbedtls/mbedtls/library/bignum.c:1640
    5c66:	689b      	ldr	r3, [r3, #8]
    5c68:	9300      	str	r3, [sp, #0]
/mnt/disk/raspbian-tee/optee_os/lib/libmbedtls/mbedtls/library/bignum.c:1642
    5c6a:	f8bb 3004 	ldrh.w	r3, [fp, #4]
/mnt/disk/raspbian-tee/optee_os/lib/libmbedtls/mbedtls/library/bignum.c:1640
    5c6e:	9d00      	ldr	r5, [sp, #0]
/mnt/disk/raspbian-tee/optee_os/lib/libmbedtls/mbedtls/library/bignum.c:1642
    5c70:	42a3      	cmp	r3, r4
    5c72:	bf28      	it	cs
    5c74:	4623      	movcs	r3, r4
    5c76:	9301      	str	r3, [sp, #4]
/mnt/disk/raspbian-tee/optee_os/lib/libmbedtls/mbedtls/library/bignum.c:1655
    5c78:	1c63      	adds	r3, r4, #1
    5c7a:	ea4f 0883 	mov.w	r8, r3, lsl #2
/mnt/disk/raspbian-tee/optee_os/lib/libmbedtls/mbedtls/library/bignum.c:1644 (discriminator 1)
    5c7e:	42a7      	cmp	r7, r4
    5c80:	f8d9 0008 	ldr.w	r0, [r9, #8]
    5c84:	d315      	bcc.n	5cb2 <mbedtls_mpi_montmul+0x7a>
/mnt/disk/raspbian-tee/optee_os/lib/libmbedtls/mbedtls/library/bignum.c:1658
    5c86:	9b00      	ldr	r3, [sp, #0]
    5c88:	4642      	mov	r2, r8
    5c8a:	eb03 0184 	add.w	r1, r3, r4, lsl #2
    5c8e:	f001 ff5d 	bl	7b4c <memcpy>
/mnt/disk/raspbian-tee/optee_os/lib/libmbedtls/mbedtls/library/bignum.c:1660
    5c92:	4631      	mov	r1, r6
    5c94:	4648      	mov	r0, r9
    5c96:	f7ff f9c4 	bl	5022 <mbedtls_mpi_cmp_abs>
    5c9a:	2800      	cmp	r0, #0
    5c9c:	db26      	blt.n	5cec <mbedtls_mpi_montmul+0xb4>
/mnt/disk/raspbian-tee/optee_os/lib/libmbedtls/mbedtls/library/bignum.c:1661
    5c9e:	f8d9 2008 	ldr.w	r2, [r9, #8]
    5ca2:	68b1      	ldr	r1, [r6, #8]
/mnt/disk/raspbian-tee/optee_os/lib/libmbedtls/mbedtls/library/bignum.c:1664
    5ca4:	4620      	mov	r0, r4
    5ca6:	f7fe fbef 	bl	4488 <mpi_sub_hlp>
/mnt/disk/raspbian-tee/optee_os/lib/libmbedtls/mbedtls/library/bignum.c:1666
    5caa:	2000      	movs	r0, #0
/mnt/disk/raspbian-tee/optee_os/lib/libmbedtls/mbedtls/library/bignum.c:1667
    5cac:	b005      	add	sp, #20
    5cae:	e8bd 8ff0 	ldmia.w	sp!, {r4, r5, r6, r7, r8, r9, sl, fp, pc}
/mnt/disk/raspbian-tee/optee_os/lib/libmbedtls/mbedtls/library/bignum.c:1650 (discriminator 3)
    5cb2:	f8db 1008 	ldr.w	r1, [fp, #8]
/mnt/disk/raspbian-tee/optee_os/lib/libmbedtls/mbedtls/library/bignum.c:1649 (discriminator 3)
    5cb6:	f850 a027 	ldr.w	sl, [r0, r7, lsl #2]
/mnt/disk/raspbian-tee/optee_os/lib/libmbedtls/mbedtls/library/bignum.c:1644 (discriminator 3)
    5cba:	3701      	adds	r7, #1
/mnt/disk/raspbian-tee/optee_os/lib/libmbedtls/mbedtls/library/bignum.c:1650 (discriminator 3)
    5cbc:	682a      	ldr	r2, [r5, #0]
    5cbe:	680b      	ldr	r3, [r1, #0]
/mnt/disk/raspbian-tee/optee_os/lib/libmbedtls/mbedtls/library/bignum.c:1652 (discriminator 3)
    5cc0:	9801      	ldr	r0, [sp, #4]
/mnt/disk/raspbian-tee/optee_os/lib/libmbedtls/mbedtls/library/bignum.c:1650 (discriminator 3)
    5cc2:	fb03 230a 	mla	r3, r3, sl, r2
    5cc6:	9a03      	ldr	r2, [sp, #12]
    5cc8:	4353      	muls	r3, r2
/mnt/disk/raspbian-tee/optee_os/lib/libmbedtls/mbedtls/library/bignum.c:1652 (discriminator 3)
    5cca:	462a      	mov	r2, r5
/mnt/disk/raspbian-tee/optee_os/lib/libmbedtls/mbedtls/library/bignum.c:1650 (discriminator 3)
    5ccc:	9302      	str	r3, [sp, #8]
/mnt/disk/raspbian-tee/optee_os/lib/libmbedtls/mbedtls/library/bignum.c:1652 (discriminator 3)
    5cce:	4653      	mov	r3, sl
    5cd0:	f7fe fc09 	bl	44e6 <mpi_mul_hlp>
/mnt/disk/raspbian-tee/optee_os/lib/libmbedtls/mbedtls/library/bignum.c:1653 (discriminator 3)
    5cd4:	9b02      	ldr	r3, [sp, #8]
    5cd6:	462a      	mov	r2, r5
    5cd8:	68b1      	ldr	r1, [r6, #8]
    5cda:	4620      	mov	r0, r4
    5cdc:	f7fe fc03 	bl	44e6 <mpi_mul_hlp>
/mnt/disk/raspbian-tee/optee_os/lib/libmbedtls/mbedtls/library/bignum.c:1655 (discriminator 3)
    5ce0:	f845 ab04 	str.w	sl, [r5], #4
    5ce4:	2300      	movs	r3, #0
    5ce6:	f845 3008 	str.w	r3, [r5, r8]
    5cea:	e7c8      	b.n	5c7e <mbedtls_mpi_montmul+0x46>
/mnt/disk/raspbian-tee/optee_os/lib/libmbedtls/mbedtls/library/bignum.c:1664
    5cec:	9b0e      	ldr	r3, [sp, #56]	; 0x38
    5cee:	f8d9 1008 	ldr.w	r1, [r9, #8]
    5cf2:	689a      	ldr	r2, [r3, #8]
    5cf4:	e7d6      	b.n	5ca4 <mbedtls_mpi_montmul+0x6c>
/mnt/disk/raspbian-tee/optee_os/lib/libmbedtls/mbedtls/library/bignum.c:1636
    5cf6:	f06f 0003 	mvn.w	r0, #3
    5cfa:	e7d7      	b.n	5cac <mbedtls_mpi_montmul+0x74>

00005cfc <mbedtls_mpi_montred>:
mbedtls_mpi_montred():
/mnt/disk/raspbian-tee/optee_os/lib/libmbedtls/mbedtls/library/bignum.c:1674
    5cfc:	b510      	push	{r4, lr}
/mnt/disk/raspbian-tee/optee_os/lib/libmbedtls/mbedtls/library/bignum.c:1675
    5cfe:	2401      	movs	r4, #1
/mnt/disk/raspbian-tee/optee_os/lib/libmbedtls/mbedtls/library/bignum.c:1674
    5d00:	b086      	sub	sp, #24
/mnt/disk/raspbian-tee/optee_os/lib/libmbedtls/mbedtls/library/bignum.c:1681
    5d02:	9300      	str	r3, [sp, #0]
    5d04:	4613      	mov	r3, r2
    5d06:	460a      	mov	r2, r1
    5d08:	a903      	add	r1, sp, #12
/mnt/disk/raspbian-tee/optee_os/lib/libmbedtls/mbedtls/library/bignum.c:1675
    5d0a:	9402      	str	r4, [sp, #8]
/mnt/disk/raspbian-tee/optee_os/lib/libmbedtls/mbedtls/library/bignum.c:1678
    5d0c:	f88d 400c 	strb.w	r4, [sp, #12]
    5d10:	f8ad 4010 	strh.w	r4, [sp, #16]
/mnt/disk/raspbian-tee/optee_os/lib/libmbedtls/mbedtls/library/bignum.c:1679
    5d14:	ac02      	add	r4, sp, #8
    5d16:	9405      	str	r4, [sp, #20]
/mnt/disk/raspbian-tee/optee_os/lib/libmbedtls/mbedtls/library/bignum.c:1681
    5d18:	f7ff ff8e 	bl	5c38 <mbedtls_mpi_montmul>
/mnt/disk/raspbian-tee/optee_os/lib/libmbedtls/mbedtls/library/bignum.c:1682
    5d1c:	b006      	add	sp, #24
    5d1e:	bd10      	pop	{r4, pc}

00005d20 <mbedtls_mpi_exp_mod>:
mbedtls_mpi_exp_mod():
/mnt/disk/raspbian-tee/optee_os/lib/libmbedtls/mbedtls/library/bignum.c:1688
    5d20:	e92d 4ff0 	stmdb	sp!, {r4, r5, r6, r7, r8, r9, sl, fp, lr}
    5d24:	4683      	mov	fp, r0
    5d26:	460e      	mov	r6, r1
    5d28:	f2ad 6d4c 	subw	sp, sp, #1612	; 0x64c
/mnt/disk/raspbian-tee/optee_os/lib/libmbedtls/mbedtls/library/bignum.c:1697
    5d2c:	2100      	movs	r1, #0
    5d2e:	4618      	mov	r0, r3
/mnt/disk/raspbian-tee/optee_os/lib/libmbedtls/mbedtls/library/bignum.c:1688
    5d30:	461c      	mov	r4, r3
    5d32:	9203      	str	r2, [sp, #12]
/mnt/disk/raspbian-tee/optee_os/lib/libmbedtls/mbedtls/library/bignum.c:1697
    5d34:	f7ff f9f7 	bl	5126 <mbedtls_mpi_cmp_int>
    5d38:	2800      	cmp	r0, #0
    5d3a:	f2c0 8211 	blt.w	6160 <mbedtls_mpi_exp_mod+0x440>
/mnt/disk/raspbian-tee/optee_os/lib/libmbedtls/mbedtls/library/bignum.c:1697 (discriminator 1)
    5d3e:	68a3      	ldr	r3, [r4, #8]
    5d40:	681b      	ldr	r3, [r3, #0]
    5d42:	07d9      	lsls	r1, r3, #31
    5d44:	f140 820c 	bpl.w	6160 <mbedtls_mpi_exp_mod+0x440>
/mnt/disk/raspbian-tee/optee_os/lib/libmbedtls/mbedtls/library/bignum.c:1700
    5d48:	2100      	movs	r1, #0
    5d4a:	9803      	ldr	r0, [sp, #12]
    5d4c:	f7ff f9eb 	bl	5126 <mbedtls_mpi_cmp_int>
    5d50:	2800      	cmp	r0, #0
    5d52:	f2c0 8205 	blt.w	6160 <mbedtls_mpi_exp_mod+0x440>
/mnt/disk/raspbian-tee/optee_os/lib/libmbedtls/mbedtls/library/bignum.c:1706
    5d56:	f10d 0920 	add.w	r9, sp, #32
    5d5a:	4621      	mov	r1, r4
    5d5c:	4648      	mov	r0, r9
/mnt/disk/raspbian-tee/optee_os/lib/libmbedtls/mbedtls/library/bignum.c:1707
    5d5e:	ad09      	add	r5, sp, #36	; 0x24
/mnt/disk/raspbian-tee/optee_os/lib/libmbedtls/mbedtls/library/bignum.c:1706
    5d60:	f7ff ff56 	bl	5c10 <mbedtls_mpi_montg_init>
/mnt/disk/raspbian-tee/optee_os/lib/libmbedtls/mbedtls/library/bignum.c:1707
    5d64:	4628      	mov	r0, r5
    5d66:	f7fe fe34 	bl	49d2 <mbedtls_mpi_init_mempool>
    5d6a:	ab0c      	add	r3, sp, #48	; 0x30
    5d6c:	4618      	mov	r0, r3
/mnt/disk/raspbian-tee/optee_os/lib/libmbedtls/mbedtls/library/bignum.c:1708
    5d6e:	f10d 083c 	add.w	r8, sp, #60	; 0x3c
/mnt/disk/raspbian-tee/optee_os/lib/libmbedtls/mbedtls/library/bignum.c:1707
    5d72:	9304      	str	r3, [sp, #16]
    5d74:	f7fe fe2d 	bl	49d2 <mbedtls_mpi_init_mempool>
/mnt/disk/raspbian-tee/optee_os/lib/libmbedtls/mbedtls/library/bignum.c:1708
    5d78:	4640      	mov	r0, r8
    5d7a:	f7fe fe2a 	bl	49d2 <mbedtls_mpi_init_mempool>
/mnt/disk/raspbian-tee/optee_os/lib/libmbedtls/mbedtls/library/bignum.c:1709
    5d7e:	ab12      	add	r3, sp, #72	; 0x48
    5d80:	f44f 62c0 	mov.w	r2, #1536	; 0x600
    5d84:	2100      	movs	r1, #0
    5d86:	4618      	mov	r0, r3
    5d88:	9306      	str	r3, [sp, #24]
    5d8a:	f001 ff04 	bl	7b96 <memset>
/mnt/disk/raspbian-tee/optee_os/lib/libmbedtls/mbedtls/library/bignum.c:1711
    5d8e:	9803      	ldr	r0, [sp, #12]
    5d90:	f7ff f842 	bl	4e18 <mbedtls_mpi_bitlen>
/mnt/disk/raspbian-tee/optee_os/lib/libmbedtls/mbedtls/library/bignum.c:1713
    5d94:	f5b0 7f28 	cmp.w	r0, #672	; 0x2a0
    5d98:	f080 80db 	bcs.w	5f52 <mbedtls_mpi_exp_mod+0x232>
/mnt/disk/raspbian-tee/optee_os/lib/libmbedtls/mbedtls/library/bignum.c:1713 (discriminator 1)
    5d9c:	28ef      	cmp	r0, #239	; 0xef
    5d9e:	f200 80da 	bhi.w	5f56 <mbedtls_mpi_exp_mod+0x236>
/mnt/disk/raspbian-tee/optee_os/lib/libmbedtls/mbedtls/library/bignum.c:1713 (discriminator 3)
    5da2:	284f      	cmp	r0, #79	; 0x4f
    5da4:	f200 80d9 	bhi.w	5f5a <mbedtls_mpi_exp_mod+0x23a>
/mnt/disk/raspbian-tee/optee_os/lib/libmbedtls/mbedtls/library/bignum.c:1713 (discriminator 5)
    5da8:	2817      	cmp	r0, #23
    5daa:	f04f 0303 	mov.w	r3, #3
    5dae:	bf98      	it	ls
    5db0:	2301      	movls	r3, #1
/mnt/disk/raspbian-tee/optee_os/lib/libmbedtls/mbedtls/library/bignum.c:1719
    5db2:	88a2      	ldrh	r2, [r4, #4]
/mnt/disk/raspbian-tee/optee_os/lib/libmbedtls/mbedtls/library/bignum.c:1720
    5db4:	4658      	mov	r0, fp
/mnt/disk/raspbian-tee/optee_os/lib/libmbedtls/mbedtls/library/bignum.c:1713
    5db6:	9302      	str	r3, [sp, #8]
/mnt/disk/raspbian-tee/optee_os/lib/libmbedtls/mbedtls/library/bignum.c:1719
    5db8:	1c57      	adds	r7, r2, #1
/mnt/disk/raspbian-tee/optee_os/lib/libmbedtls/mbedtls/library/bignum.c:1720
    5dba:	4639      	mov	r1, r7
    5dbc:	f7fe fe4c 	bl	4a58 <mbedtls_mpi_grow>
    5dc0:	4603      	mov	r3, r0
    5dc2:	2800      	cmp	r0, #0
    5dc4:	f040 819f 	bne.w	6106 <mbedtls_mpi_exp_mod+0x3e6>
/mnt/disk/raspbian-tee/optee_os/lib/libmbedtls/mbedtls/library/bignum.c:1721
    5dc8:	f10d 0a54 	add.w	sl, sp, #84	; 0x54
    5dcc:	4639      	mov	r1, r7
    5dce:	4650      	mov	r0, sl
    5dd0:	f7fe fe42 	bl	4a58 <mbedtls_mpi_grow>
    5dd4:	4603      	mov	r3, r0
    5dd6:	2800      	cmp	r0, #0
    5dd8:	f040 8195 	bne.w	6106 <mbedtls_mpi_exp_mod+0x3e6>
/mnt/disk/raspbian-tee/optee_os/lib/libmbedtls/mbedtls/library/bignum.c:1722
    5ddc:	0079      	lsls	r1, r7, #1
    5dde:	9804      	ldr	r0, [sp, #16]
    5de0:	f7fe fe3a 	bl	4a58 <mbedtls_mpi_grow>
    5de4:	4603      	mov	r3, r0
    5de6:	2800      	cmp	r0, #0
    5de8:	f040 818d 	bne.w	6106 <mbedtls_mpi_exp_mod+0x3e6>
/mnt/disk/raspbian-tee/optee_os/lib/libmbedtls/mbedtls/library/bignum.c:1727
    5dec:	f996 3000 	ldrsb.w	r3, [r6]
    5df0:	9305      	str	r3, [sp, #20]
/mnt/disk/raspbian-tee/optee_os/lib/libmbedtls/mbedtls/library/bignum.c:1728
    5df2:	3301      	adds	r3, #1
    5df4:	d10b      	bne.n	5e0e <mbedtls_mpi_exp_mod+0xee>
/mnt/disk/raspbian-tee/optee_os/lib/libmbedtls/mbedtls/library/bignum.c:1730
    5df6:	4631      	mov	r1, r6
    5df8:	4640      	mov	r0, r8
    5dfa:	f7fe fee7 	bl	4bcc <mbedtls_mpi_copy>
    5dfe:	4603      	mov	r3, r0
    5e00:	2800      	cmp	r0, #0
    5e02:	f040 8180 	bne.w	6106 <mbedtls_mpi_exp_mod+0x3e6>
/mnt/disk/raspbian-tee/optee_os/lib/libmbedtls/mbedtls/library/bignum.c:1732
    5e06:	4646      	mov	r6, r8
/mnt/disk/raspbian-tee/optee_os/lib/libmbedtls/mbedtls/library/bignum.c:1731
    5e08:	2301      	movs	r3, #1
    5e0a:	f888 3000 	strb.w	r3, [r8]
/mnt/disk/raspbian-tee/optee_os/lib/libmbedtls/mbedtls/library/bignum.c:1738
    5e0e:	f8dd 3670 	ldr.w	r3, [sp, #1648]	; 0x670
    5e12:	b11b      	cbz	r3, 5e1c <mbedtls_mpi_exp_mod+0xfc>
/mnt/disk/raspbian-tee/optee_os/lib/libmbedtls/mbedtls/library/bignum.c:1738 (discriminator 1)
    5e14:	689b      	ldr	r3, [r3, #8]
    5e16:	2b00      	cmp	r3, #0
    5e18:	f040 80a1 	bne.w	5f5e <mbedtls_mpi_exp_mod+0x23e>
/mnt/disk/raspbian-tee/optee_os/lib/libmbedtls/mbedtls/library/bignum.c:1740
    5e1c:	2101      	movs	r1, #1
    5e1e:	4628      	mov	r0, r5
    5e20:	f7fe ff8f 	bl	4d42 <mbedtls_mpi_lset>
    5e24:	4603      	mov	r3, r0
    5e26:	2800      	cmp	r0, #0
    5e28:	f040 816d 	bne.w	6106 <mbedtls_mpi_exp_mod+0x3e6>
/mnt/disk/raspbian-tee/optee_os/lib/libmbedtls/mbedtls/library/bignum.c:1741
    5e2c:	88a1      	ldrh	r1, [r4, #4]
    5e2e:	4628      	mov	r0, r5
    5e30:	0189      	lsls	r1, r1, #6
    5e32:	f7ff f86e 	bl	4f12 <mbedtls_mpi_shift_l>
    5e36:	4603      	mov	r3, r0
    5e38:	2800      	cmp	r0, #0
    5e3a:	f040 8164 	bne.w	6106 <mbedtls_mpi_exp_mod+0x3e6>
/mnt/disk/raspbian-tee/optee_os/lib/libmbedtls/mbedtls/library/bignum.c:1742
    5e3e:	4622      	mov	r2, r4
    5e40:	4629      	mov	r1, r5
    5e42:	4628      	mov	r0, r5
    5e44:	f7ff fd9a 	bl	597c <mbedtls_mpi_mod_mpi>
    5e48:	4603      	mov	r3, r0
    5e4a:	2800      	cmp	r0, #0
    5e4c:	f040 815b 	bne.w	6106 <mbedtls_mpi_exp_mod+0x3e6>
/mnt/disk/raspbian-tee/optee_os/lib/libmbedtls/mbedtls/library/bignum.c:1744
    5e50:	f8dd 3670 	ldr.w	r3, [sp, #1648]	; 0x670
    5e54:	b123      	cbz	r3, 5e60 <mbedtls_mpi_exp_mod+0x140>
/mnt/disk/raspbian-tee/optee_os/lib/libmbedtls/mbedtls/library/bignum.c:1745
    5e56:	220c      	movs	r2, #12
    5e58:	4629      	mov	r1, r5
    5e5a:	4618      	mov	r0, r3
/mnt/disk/raspbian-tee/optee_os/lib/libmbedtls/mbedtls/library/bignum.c:1748
    5e5c:	f001 fe76 	bl	7b4c <memcpy>
/mnt/disk/raspbian-tee/optee_os/lib/libmbedtls/mbedtls/library/bignum.c:1753
    5e60:	4621      	mov	r1, r4
    5e62:	4630      	mov	r0, r6
    5e64:	f7ff f914 	bl	5090 <mbedtls_mpi_cmp_mpi>
    5e68:	2800      	cmp	r0, #0
    5e6a:	db7d      	blt.n	5f68 <mbedtls_mpi_exp_mod+0x248>
/mnt/disk/raspbian-tee/optee_os/lib/libmbedtls/mbedtls/library/bignum.c:1754
    5e6c:	4622      	mov	r2, r4
    5e6e:	4631      	mov	r1, r6
    5e70:	4650      	mov	r0, sl
    5e72:	f7ff fd83 	bl	597c <mbedtls_mpi_mod_mpi>
    5e76:	4603      	mov	r3, r0
    5e78:	2800      	cmp	r0, #0
    5e7a:	f040 8144 	bne.w	6106 <mbedtls_mpi_exp_mod+0x3e6>
/mnt/disk/raspbian-tee/optee_os/lib/libmbedtls/mbedtls/library/bignum.c:1758
    5e7e:	ab0c      	add	r3, sp, #48	; 0x30
    5e80:	9300      	str	r3, [sp, #0]
    5e82:	f10d 0854 	add.w	r8, sp, #84	; 0x54
    5e86:	9304      	str	r3, [sp, #16]
    5e88:	4622      	mov	r2, r4
    5e8a:	f8d9 3000 	ldr.w	r3, [r9]
    5e8e:	4629      	mov	r1, r5
    5e90:	4640      	mov	r0, r8
    5e92:	f7ff fed1 	bl	5c38 <mbedtls_mpi_montmul>
    5e96:	4603      	mov	r3, r0
    5e98:	2800      	cmp	r0, #0
    5e9a:	f040 8134 	bne.w	6106 <mbedtls_mpi_exp_mod+0x3e6>
/mnt/disk/raspbian-tee/optee_os/lib/libmbedtls/mbedtls/library/bignum.c:1763
    5e9e:	4629      	mov	r1, r5
    5ea0:	4658      	mov	r0, fp
    5ea2:	f7fe fe93 	bl	4bcc <mbedtls_mpi_copy>
    5ea6:	4603      	mov	r3, r0
    5ea8:	2800      	cmp	r0, #0
    5eaa:	f040 812c 	bne.w	6106 <mbedtls_mpi_exp_mod+0x3e6>
/mnt/disk/raspbian-tee/optee_os/lib/libmbedtls/mbedtls/library/bignum.c:1764
    5eae:	9b04      	ldr	r3, [sp, #16]
    5eb0:	4621      	mov	r1, r4
    5eb2:	f8d9 2000 	ldr.w	r2, [r9]
    5eb6:	4658      	mov	r0, fp
    5eb8:	f7ff ff20 	bl	5cfc <mbedtls_mpi_montred>
    5ebc:	4603      	mov	r3, r0
    5ebe:	2800      	cmp	r0, #0
    5ec0:	f040 8121 	bne.w	6106 <mbedtls_mpi_exp_mod+0x3e6>
/mnt/disk/raspbian-tee/optee_os/lib/libmbedtls/mbedtls/library/bignum.c:1766
    5ec4:	9b02      	ldr	r3, [sp, #8]
    5ec6:	2b01      	cmp	r3, #1
    5ec8:	d153      	bne.n	5f72 <mbedtls_mpi_exp_mod+0x252>
/mnt/disk/raspbian-tee/optee_os/lib/libmbedtls/mbedtls/library/bignum.c:1791
    5eca:	9b03      	ldr	r3, [sp, #12]
/mnt/disk/raspbian-tee/optee_os/lib/libmbedtls/mbedtls/library/bignum.c:1795
    5ecc:	2600      	movs	r6, #0
/mnt/disk/raspbian-tee/optee_os/lib/libmbedtls/mbedtls/library/bignum.c:1793
    5ece:	46b2      	mov	sl, r6
/mnt/disk/raspbian-tee/optee_os/lib/libmbedtls/mbedtls/library/bignum.c:1792
    5ed0:	4637      	mov	r7, r6
/mnt/disk/raspbian-tee/optee_os/lib/libmbedtls/mbedtls/library/bignum.c:1794
    5ed2:	4635      	mov	r5, r6
/mnt/disk/raspbian-tee/optee_os/lib/libmbedtls/mbedtls/library/bignum.c:1842
    5ed4:	f10d 0920 	add.w	r9, sp, #32
/mnt/disk/raspbian-tee/optee_os/lib/libmbedtls/mbedtls/library/bignum.c:1791
    5ed8:	f8b3 8004 	ldrh.w	r8, [r3, #4]
/mnt/disk/raspbian-tee/optee_os/lib/libmbedtls/mbedtls/library/bignum.c:1842
    5edc:	ab0c      	add	r3, sp, #48	; 0x30
    5ede:	9306      	str	r3, [sp, #24]
/mnt/disk/raspbian-tee/optee_os/lib/libmbedtls/mbedtls/library/bignum.c:1847
    5ee0:	ab12      	add	r3, sp, #72	; 0x48
    5ee2:	9307      	str	r3, [sp, #28]
/mnt/disk/raspbian-tee/optee_os/lib/libmbedtls/mbedtls/library/bignum.c:1799
    5ee4:	2f00      	cmp	r7, #0
    5ee6:	f040 80ac 	bne.w	6042 <mbedtls_mpi_exp_mod+0x322>
/mnt/disk/raspbian-tee/optee_os/lib/libmbedtls/mbedtls/library/bignum.c:1801
    5eea:	f1b8 0f00 	cmp.w	r8, #0
    5eee:	f040 80a5 	bne.w	603c <mbedtls_mpi_exp_mod+0x31c>
/mnt/disk/raspbian-tee/optee_os/lib/libmbedtls/mbedtls/library/bignum.c:1864
    5ef2:	9b02      	ldr	r3, [sp, #8]
    5ef4:	2701      	movs	r7, #1
    5ef6:	ae08      	add	r6, sp, #32
/mnt/disk/raspbian-tee/optee_os/lib/libmbedtls/mbedtls/library/bignum.c:1865
    5ef8:	f10d 0954 	add.w	r9, sp, #84	; 0x54
/mnt/disk/raspbian-tee/optee_os/lib/libmbedtls/mbedtls/library/bignum.c:1864
    5efc:	fa07 f303 	lsl.w	r3, r7, r3
/mnt/disk/raspbian-tee/optee_os/lib/libmbedtls/mbedtls/library/bignum.c:1860
    5f00:	af0c      	add	r7, sp, #48	; 0x30
/mnt/disk/raspbian-tee/optee_os/lib/libmbedtls/mbedtls/library/bignum.c:1864
    5f02:	9306      	str	r3, [sp, #24]
/mnt/disk/raspbian-tee/optee_os/lib/libmbedtls/mbedtls/library/bignum.c:1858 (discriminator 1)
    5f04:	45d0      	cmp	r8, sl
    5f06:	f040 80e4 	bne.w	60d2 <mbedtls_mpi_exp_mod+0x3b2>
/mnt/disk/raspbian-tee/optee_os/lib/libmbedtls/mbedtls/library/bignum.c:1871
    5f0a:	9b04      	ldr	r3, [sp, #16]
    5f0c:	4621      	mov	r1, r4
    5f0e:	6832      	ldr	r2, [r6, #0]
    5f10:	4658      	mov	r0, fp
    5f12:	f7ff fef3 	bl	5cfc <mbedtls_mpi_montred>
    5f16:	4603      	mov	r3, r0
    5f18:	2800      	cmp	r0, #0
    5f1a:	f040 80f4 	bne.w	6106 <mbedtls_mpi_exp_mod+0x3e6>
/mnt/disk/raspbian-tee/optee_os/lib/libmbedtls/mbedtls/library/bignum.c:1873
    5f1e:	9a05      	ldr	r2, [sp, #20]
    5f20:	3201      	adds	r2, #1
    5f22:	f040 80f0 	bne.w	6106 <mbedtls_mpi_exp_mod+0x3e6>
/mnt/disk/raspbian-tee/optee_os/lib/libmbedtls/mbedtls/library/bignum.c:1873 (discriminator 1)
    5f26:	9a03      	ldr	r2, [sp, #12]
    5f28:	8892      	ldrh	r2, [r2, #4]
    5f2a:	2a00      	cmp	r2, #0
    5f2c:	f000 80eb 	beq.w	6106 <mbedtls_mpi_exp_mod+0x3e6>
/mnt/disk/raspbian-tee/optee_os/lib/libmbedtls/mbedtls/library/bignum.c:1873 (discriminator 2)
    5f30:	9a03      	ldr	r2, [sp, #12]
    5f32:	6892      	ldr	r2, [r2, #8]
    5f34:	6812      	ldr	r2, [r2, #0]
    5f36:	07d2      	lsls	r2, r2, #31
    5f38:	f140 80e5 	bpl.w	6106 <mbedtls_mpi_exp_mod+0x3e6>
/mnt/disk/raspbian-tee/optee_os/lib/libmbedtls/mbedtls/library/bignum.c:1875
    5f3c:	f89d 3014 	ldrb.w	r3, [sp, #20]
/mnt/disk/raspbian-tee/optee_os/lib/libmbedtls/mbedtls/library/bignum.c:1876
    5f40:	465a      	mov	r2, fp
/mnt/disk/raspbian-tee/optee_os/lib/libmbedtls/mbedtls/library/bignum.c:1875
    5f42:	f88b 3000 	strb.w	r3, [fp]
/mnt/disk/raspbian-tee/optee_os/lib/libmbedtls/mbedtls/library/bignum.c:1876
    5f46:	4621      	mov	r1, r4
    5f48:	4658      	mov	r0, fp
    5f4a:	f7ff f9a2 	bl	5292 <mbedtls_mpi_add_mpi>
    5f4e:	4603      	mov	r3, r0
    5f50:	e0d9      	b.n	6106 <mbedtls_mpi_exp_mod+0x3e6>
/mnt/disk/raspbian-tee/optee_os/lib/libmbedtls/mbedtls/library/bignum.c:1713
    5f52:	2306      	movs	r3, #6
    5f54:	e72d      	b.n	5db2 <mbedtls_mpi_exp_mod+0x92>
    5f56:	2305      	movs	r3, #5
    5f58:	e72b      	b.n	5db2 <mbedtls_mpi_exp_mod+0x92>
    5f5a:	2304      	movs	r3, #4
    5f5c:	e729      	b.n	5db2 <mbedtls_mpi_exp_mod+0x92>
/mnt/disk/raspbian-tee/optee_os/lib/libmbedtls/mbedtls/library/bignum.c:1748
    5f5e:	220c      	movs	r2, #12
    5f60:	f8dd 1670 	ldr.w	r1, [sp, #1648]	; 0x670
    5f64:	4628      	mov	r0, r5
    5f66:	e779      	b.n	5e5c <mbedtls_mpi_exp_mod+0x13c>
/mnt/disk/raspbian-tee/optee_os/lib/libmbedtls/mbedtls/library/bignum.c:1756
    5f68:	4631      	mov	r1, r6
    5f6a:	4650      	mov	r0, sl
    5f6c:	f7fe fe2e 	bl	4bcc <mbedtls_mpi_copy>
    5f70:	e781      	b.n	5e76 <mbedtls_mpi_exp_mod+0x156>
/mnt/disk/raspbian-tee/optee_os/lib/libmbedtls/mbedtls/library/bignum.c:1771
    5f72:	9b02      	ldr	r3, [sp, #8]
    5f74:	250c      	movs	r5, #12
/mnt/disk/raspbian-tee/optee_os/lib/libmbedtls/mbedtls/library/bignum.c:1773
    5f76:	88a1      	ldrh	r1, [r4, #4]
/mnt/disk/raspbian-tee/optee_os/lib/libmbedtls/mbedtls/library/bignum.c:1771
    5f78:	2601      	movs	r6, #1
    5f7a:	f103 39ff 	add.w	r9, r3, #4294967295	; 0xffffffff
/mnt/disk/raspbian-tee/optee_os/lib/libmbedtls/mbedtls/library/bignum.c:1773
    5f7e:	9b06      	ldr	r3, [sp, #24]
    5f80:	3101      	adds	r1, #1
    5f82:	fa05 f509 	lsl.w	r5, r5, r9
    5f86:	442b      	add	r3, r5
/mnt/disk/raspbian-tee/optee_os/lib/libmbedtls/mbedtls/library/bignum.c:1771
    5f88:	fa06 f609 	lsl.w	r6, r6, r9
/mnt/disk/raspbian-tee/optee_os/lib/libmbedtls/mbedtls/library/bignum.c:1773
    5f8c:	4618      	mov	r0, r3
    5f8e:	461f      	mov	r7, r3
    5f90:	f7fe fd62 	bl	4a58 <mbedtls_mpi_grow>
    5f94:	4603      	mov	r3, r0
    5f96:	2800      	cmp	r0, #0
    5f98:	f040 80b5 	bne.w	6106 <mbedtls_mpi_exp_mod+0x3e6>
/mnt/disk/raspbian-tee/optee_os/lib/libmbedtls/mbedtls/library/bignum.c:1774
    5f9c:	4641      	mov	r1, r8
    5f9e:	4638      	mov	r0, r7
    5fa0:	f7fe fe14 	bl	4bcc <mbedtls_mpi_copy>
    5fa4:	4603      	mov	r3, r0
    5fa6:	2800      	cmp	r0, #0
    5fa8:	f040 80ad 	bne.w	6106 <mbedtls_mpi_exp_mod+0x3e6>
/mnt/disk/raspbian-tee/optee_os/lib/libmbedtls/mbedtls/library/bignum.c:1777
    5fac:	9b04      	ldr	r3, [sp, #16]
    5fae:	4680      	mov	r8, r0
    5fb0:	f10d 0a20 	add.w	sl, sp, #32
    5fb4:	9306      	str	r3, [sp, #24]
    5fb6:	9b06      	ldr	r3, [sp, #24]
    5fb8:	4622      	mov	r2, r4
    5fba:	9300      	str	r3, [sp, #0]
    5fbc:	4639      	mov	r1, r7
    5fbe:	4638      	mov	r0, r7
    5fc0:	f8da 3000 	ldr.w	r3, [sl]
    5fc4:	f7ff fe38 	bl	5c38 <mbedtls_mpi_montmul>
    5fc8:	4603      	mov	r3, r0
    5fca:	2800      	cmp	r0, #0
    5fcc:	f040 809b 	bne.w	6106 <mbedtls_mpi_exp_mod+0x3e6>
/mnt/disk/raspbian-tee/optee_os/lib/libmbedtls/mbedtls/library/bignum.c:1776 (discriminator 2)
    5fd0:	f108 0801 	add.w	r8, r8, #1
    5fd4:	45c1      	cmp	r9, r8
    5fd6:	d8ee      	bhi.n	5fb6 <mbedtls_mpi_exp_mod+0x296>
/mnt/disk/raspbian-tee/optee_os/lib/libmbedtls/mbedtls/library/bignum.c:1782
    5fd8:	9b02      	ldr	r3, [sp, #8]
    5fda:	2701      	movs	r7, #1
    5fdc:	3601      	adds	r6, #1
/mnt/disk/raspbian-tee/optee_os/lib/libmbedtls/mbedtls/library/bignum.c:1787
    5fde:	f10d 0820 	add.w	r8, sp, #32
    5fe2:	f10d 0954 	add.w	r9, sp, #84	; 0x54
/mnt/disk/raspbian-tee/optee_os/lib/libmbedtls/mbedtls/library/bignum.c:1782
    5fe6:	409f      	lsls	r7, r3
    5fe8:	f50d 63c9 	add.w	r3, sp, #1608	; 0x648
    5fec:	441d      	add	r5, r3
    5fee:	f2a5 55f4 	subw	r5, r5, #1524	; 0x5f4
/mnt/disk/raspbian-tee/optee_os/lib/libmbedtls/mbedtls/library/bignum.c:1782 (discriminator 1)
    5ff2:	42be      	cmp	r6, r7
    5ff4:	f4bf af69 	bcs.w	5eca <mbedtls_mpi_exp_mod+0x1aa>
/mnt/disk/raspbian-tee/optee_os/lib/libmbedtls/mbedtls/library/bignum.c:1784
    5ff8:	88a1      	ldrh	r1, [r4, #4]
    5ffa:	4628      	mov	r0, r5
    5ffc:	3101      	adds	r1, #1
    5ffe:	f7fe fd2b 	bl	4a58 <mbedtls_mpi_grow>
    6002:	4603      	mov	r3, r0
    6004:	2800      	cmp	r0, #0
    6006:	d17e      	bne.n	6106 <mbedtls_mpi_exp_mod+0x3e6>
/mnt/disk/raspbian-tee/optee_os/lib/libmbedtls/mbedtls/library/bignum.c:1785
    6008:	f1a5 010c 	sub.w	r1, r5, #12
    600c:	4628      	mov	r0, r5
    600e:	f7fe fddd 	bl	4bcc <mbedtls_mpi_copy>
    6012:	4603      	mov	r3, r0
    6014:	2800      	cmp	r0, #0
    6016:	d176      	bne.n	6106 <mbedtls_mpi_exp_mod+0x3e6>
/mnt/disk/raspbian-tee/optee_os/lib/libmbedtls/mbedtls/library/bignum.c:1787
    6018:	9b04      	ldr	r3, [sp, #16]
    601a:	4628      	mov	r0, r5
    601c:	9300      	str	r3, [sp, #0]
    601e:	4622      	mov	r2, r4
    6020:	4649      	mov	r1, r9
    6022:	350c      	adds	r5, #12
    6024:	f8d8 3000 	ldr.w	r3, [r8]
    6028:	f7ff fe06 	bl	5c38 <mbedtls_mpi_montmul>
    602c:	4603      	mov	r3, r0
    602e:	2800      	cmp	r0, #0
    6030:	d169      	bne.n	6106 <mbedtls_mpi_exp_mod+0x3e6>
/mnt/disk/raspbian-tee/optee_os/lib/libmbedtls/mbedtls/library/bignum.c:1782 (discriminator 2)
    6032:	3601      	adds	r6, #1
    6034:	e7dd      	b.n	5ff2 <mbedtls_mpi_exp_mod+0x2d2>
/mnt/disk/raspbian-tee/optee_os/lib/libmbedtls/mbedtls/library/bignum.c:1831
    6036:	2202      	movs	r2, #2
/mnt/disk/raspbian-tee/optee_os/lib/libmbedtls/mbedtls/library/bignum.c:1851
    6038:	4616      	mov	r6, r2
    603a:	e753      	b.n	5ee4 <mbedtls_mpi_exp_mod+0x1c4>
/mnt/disk/raspbian-tee/optee_os/lib/libmbedtls/mbedtls/library/bignum.c:1804
    603c:	f108 38ff 	add.w	r8, r8, #4294967295	; 0xffffffff
/mnt/disk/raspbian-tee/optee_os/lib/libmbedtls/mbedtls/library/bignum.c:1806
    6040:	2720      	movs	r7, #32
/mnt/disk/raspbian-tee/optee_os/lib/libmbedtls/mbedtls/library/bignum.c:1811
    6042:	9b03      	ldr	r3, [sp, #12]
/mnt/disk/raspbian-tee/optee_os/lib/libmbedtls/mbedtls/library/bignum.c:1809
    6044:	3f01      	subs	r7, #1
/mnt/disk/raspbian-tee/optee_os/lib/libmbedtls/mbedtls/library/bignum.c:1811
    6046:	689b      	ldr	r3, [r3, #8]
    6048:	f853 3028 	ldr.w	r3, [r3, r8, lsl #2]
    604c:	40fb      	lsrs	r3, r7
    604e:	f003 0301 	and.w	r3, r3, #1
/mnt/disk/raspbian-tee/optee_os/lib/libmbedtls/mbedtls/library/bignum.c:1816
    6052:	ea56 0203 	orrs.w	r2, r6, r3
    6056:	d0ef      	beq.n	6038 <mbedtls_mpi_exp_mod+0x318>
/mnt/disk/raspbian-tee/optee_os/lib/libmbedtls/mbedtls/library/bignum.c:1819
    6058:	b97b      	cbnz	r3, 607a <mbedtls_mpi_exp_mod+0x35a>
/mnt/disk/raspbian-tee/optee_os/lib/libmbedtls/mbedtls/library/bignum.c:1819 (discriminator 1)
    605a:	2e01      	cmp	r6, #1
    605c:	d10d      	bne.n	607a <mbedtls_mpi_exp_mod+0x35a>
/mnt/disk/raspbian-tee/optee_os/lib/libmbedtls/mbedtls/library/bignum.c:1824
    605e:	9b06      	ldr	r3, [sp, #24]
    6060:	4622      	mov	r2, r4
    6062:	9300      	str	r3, [sp, #0]
    6064:	4659      	mov	r1, fp
    6066:	4658      	mov	r0, fp
    6068:	f8d9 3000 	ldr.w	r3, [r9]
    606c:	f7ff fde4 	bl	5c38 <mbedtls_mpi_montmul>
    6070:	4603      	mov	r3, r0
    6072:	2800      	cmp	r0, #0
    6074:	d147      	bne.n	6106 <mbedtls_mpi_exp_mod+0x3e6>
    6076:	4632      	mov	r2, r6
    6078:	e7de      	b.n	6038 <mbedtls_mpi_exp_mod+0x318>
/mnt/disk/raspbian-tee/optee_os/lib/libmbedtls/mbedtls/library/bignum.c:1834
    607a:	9a02      	ldr	r2, [sp, #8]
/mnt/disk/raspbian-tee/optee_os/lib/libmbedtls/mbedtls/library/bignum.c:1833
    607c:	f10a 0a01 	add.w	sl, sl, #1
/mnt/disk/raspbian-tee/optee_os/lib/libmbedtls/mbedtls/library/bignum.c:1834
    6080:	eba2 020a 	sub.w	r2, r2, sl
    6084:	4093      	lsls	r3, r2
    6086:	431d      	orrs	r5, r3
/mnt/disk/raspbian-tee/optee_os/lib/libmbedtls/mbedtls/library/bignum.c:1836
    6088:	9b02      	ldr	r3, [sp, #8]
    608a:	4553      	cmp	r3, sl
    608c:	d1d3      	bne.n	6036 <mbedtls_mpi_exp_mod+0x316>
    608e:	2600      	movs	r6, #0
/mnt/disk/raspbian-tee/optee_os/lib/libmbedtls/mbedtls/library/bignum.c:1842
    6090:	9b06      	ldr	r3, [sp, #24]
    6092:	4622      	mov	r2, r4
    6094:	9300      	str	r3, [sp, #0]
    6096:	4659      	mov	r1, fp
    6098:	4658      	mov	r0, fp
    609a:	f8d9 3000 	ldr.w	r3, [r9]
    609e:	f7ff fdcb 	bl	5c38 <mbedtls_mpi_montmul>
    60a2:	4603      	mov	r3, r0
    60a4:	bb78      	cbnz	r0, 6106 <mbedtls_mpi_exp_mod+0x3e6>
/mnt/disk/raspbian-tee/optee_os/lib/libmbedtls/mbedtls/library/bignum.c:1841 (discriminator 2)
    60a6:	9b02      	ldr	r3, [sp, #8]
    60a8:	3601      	adds	r6, #1
    60aa:	42b3      	cmp	r3, r6
    60ac:	d8f0      	bhi.n	6090 <mbedtls_mpi_exp_mod+0x370>
/mnt/disk/raspbian-tee/optee_os/lib/libmbedtls/mbedtls/library/bignum.c:1847
    60ae:	9807      	ldr	r0, [sp, #28]
    60b0:	210c      	movs	r1, #12
    60b2:	9b06      	ldr	r3, [sp, #24]
    60b4:	4622      	mov	r2, r4
    60b6:	9300      	str	r3, [sp, #0]
    60b8:	fb01 0105 	mla	r1, r1, r5, r0
    60bc:	f8d9 3000 	ldr.w	r3, [r9]
    60c0:	4658      	mov	r0, fp
    60c2:	f7ff fdb9 	bl	5c38 <mbedtls_mpi_montmul>
    60c6:	4603      	mov	r3, r0
    60c8:	b9e8      	cbnz	r0, 6106 <mbedtls_mpi_exp_mod+0x3e6>
/mnt/disk/raspbian-tee/optee_os/lib/libmbedtls/mbedtls/library/bignum.c:1849
    60ca:	2201      	movs	r2, #1
/mnt/disk/raspbian-tee/optee_os/lib/libmbedtls/mbedtls/library/bignum.c:1850
    60cc:	4605      	mov	r5, r0
/mnt/disk/raspbian-tee/optee_os/lib/libmbedtls/mbedtls/library/bignum.c:1851
    60ce:	4682      	mov	sl, r0
    60d0:	e7b2      	b.n	6038 <mbedtls_mpi_exp_mod+0x318>
/mnt/disk/raspbian-tee/optee_os/lib/libmbedtls/mbedtls/library/bignum.c:1860
    60d2:	9700      	str	r7, [sp, #0]
    60d4:	4622      	mov	r2, r4
    60d6:	4659      	mov	r1, fp
    60d8:	4658      	mov	r0, fp
    60da:	6833      	ldr	r3, [r6, #0]
    60dc:	f7ff fdac 	bl	5c38 <mbedtls_mpi_montmul>
    60e0:	4603      	mov	r3, r0
    60e2:	b980      	cbnz	r0, 6106 <mbedtls_mpi_exp_mod+0x3e6>
/mnt/disk/raspbian-tee/optee_os/lib/libmbedtls/mbedtls/library/bignum.c:1864
    60e4:	9b06      	ldr	r3, [sp, #24]
/mnt/disk/raspbian-tee/optee_os/lib/libmbedtls/mbedtls/library/bignum.c:1862
    60e6:	006d      	lsls	r5, r5, #1
/mnt/disk/raspbian-tee/optee_os/lib/libmbedtls/mbedtls/library/bignum.c:1864
    60e8:	421d      	tst	r5, r3
    60ea:	d102      	bne.n	60f2 <mbedtls_mpi_exp_mod+0x3d2>
/mnt/disk/raspbian-tee/optee_os/lib/libmbedtls/mbedtls/library/bignum.c:1858
    60ec:	f108 0801 	add.w	r8, r8, #1
    60f0:	e708      	b.n	5f04 <mbedtls_mpi_exp_mod+0x1e4>
/mnt/disk/raspbian-tee/optee_os/lib/libmbedtls/mbedtls/library/bignum.c:1865
    60f2:	9700      	str	r7, [sp, #0]
    60f4:	4622      	mov	r2, r4
    60f6:	4649      	mov	r1, r9
    60f8:	4658      	mov	r0, fp
    60fa:	6833      	ldr	r3, [r6, #0]
    60fc:	f7ff fd9c 	bl	5c38 <mbedtls_mpi_montmul>
    6100:	4603      	mov	r3, r0
    6102:	2800      	cmp	r0, #0
    6104:	d0f2      	beq.n	60ec <mbedtls_mpi_exp_mod+0x3cc>
/mnt/disk/raspbian-tee/optee_os/lib/libmbedtls/mbedtls/library/bignum.c:1881
    6106:	9a02      	ldr	r2, [sp, #8]
/mnt/disk/raspbian-tee/optee_os/lib/libmbedtls/mbedtls/library/bignum.c:1882
    6108:	ae12      	add	r6, sp, #72	; 0x48
/mnt/disk/raspbian-tee/optee_os/lib/libmbedtls/mbedtls/library/bignum.c:1881
    610a:	9902      	ldr	r1, [sp, #8]
/mnt/disk/raspbian-tee/optee_os/lib/libmbedtls/mbedtls/library/bignum.c:1882
    610c:	270c      	movs	r7, #12
/mnt/disk/raspbian-tee/optee_os/lib/libmbedtls/mbedtls/library/bignum.c:1881
    610e:	1e54      	subs	r4, r2, #1
    6110:	2201      	movs	r2, #1
    6112:	fa02 f404 	lsl.w	r4, r2, r4
    6116:	fa02 f501 	lsl.w	r5, r2, r1
    611a:	9302      	str	r3, [sp, #8]
/mnt/disk/raspbian-tee/optee_os/lib/libmbedtls/mbedtls/library/bignum.c:1881 (discriminator 1)
    611c:	42ac      	cmp	r4, r5
    611e:	d318      	bcc.n	6152 <mbedtls_mpi_exp_mod+0x432>
/mnt/disk/raspbian-tee/optee_os/lib/libmbedtls/mbedtls/library/bignum.c:1884
    6120:	a815      	add	r0, sp, #84	; 0x54
    6122:	f7fe fc72 	bl	4a0a <mbedtls_mpi_free>
    6126:	a80c      	add	r0, sp, #48	; 0x30
    6128:	f7fe fc6f 	bl	4a0a <mbedtls_mpi_free>
    612c:	a80f      	add	r0, sp, #60	; 0x3c
    612e:	f7fe fc6c 	bl	4a0a <mbedtls_mpi_free>
/mnt/disk/raspbian-tee/optee_os/lib/libmbedtls/mbedtls/library/bignum.c:1886
    6132:	f8dd 2670 	ldr.w	r2, [sp, #1648]	; 0x670
    6136:	9b02      	ldr	r3, [sp, #8]
    6138:	b10a      	cbz	r2, 613e <mbedtls_mpi_exp_mod+0x41e>
/mnt/disk/raspbian-tee/optee_os/lib/libmbedtls/mbedtls/library/bignum.c:1886 (discriminator 1)
    613a:	6892      	ldr	r2, [r2, #8]
    613c:	b922      	cbnz	r2, 6148 <mbedtls_mpi_exp_mod+0x428>
/mnt/disk/raspbian-tee/optee_os/lib/libmbedtls/mbedtls/library/bignum.c:1887
    613e:	a809      	add	r0, sp, #36	; 0x24
    6140:	9302      	str	r3, [sp, #8]
    6142:	f7fe fc62 	bl	4a0a <mbedtls_mpi_free>
    6146:	9b02      	ldr	r3, [sp, #8]
/mnt/disk/raspbian-tee/optee_os/lib/libmbedtls/mbedtls/library/bignum.c:1890
    6148:	4618      	mov	r0, r3
    614a:	f20d 6d4c 	addw	sp, sp, #1612	; 0x64c
    614e:	e8bd 8ff0 	ldmia.w	sp!, {r4, r5, r6, r7, r8, r9, sl, fp, pc}
/mnt/disk/raspbian-tee/optee_os/lib/libmbedtls/mbedtls/library/bignum.c:1882 (discriminator 3)
    6152:	fb07 6004 	mla	r0, r7, r4, r6
/mnt/disk/raspbian-tee/optee_os/lib/libmbedtls/mbedtls/library/bignum.c:1881 (discriminator 3)
    6156:	3401      	adds	r4, #1
/mnt/disk/raspbian-tee/optee_os/lib/libmbedtls/mbedtls/library/bignum.c:1882 (discriminator 3)
    6158:	f7fe fc57 	bl	4a0a <mbedtls_mpi_free>
/mnt/disk/raspbian-tee/optee_os/lib/libmbedtls/mbedtls/library/bignum.c:1881 (discriminator 3)
    615c:	9b02      	ldr	r3, [sp, #8]
    615e:	e7dc      	b.n	611a <mbedtls_mpi_exp_mod+0x3fa>
/mnt/disk/raspbian-tee/optee_os/lib/libmbedtls/mbedtls/library/bignum.c:1698
    6160:	f06f 0303 	mvn.w	r3, #3
    6164:	e7f0      	b.n	6148 <mbedtls_mpi_exp_mod+0x428>

00006166 <mbedtls_mpi_gcd>:
mbedtls_mpi_gcd():
/mnt/disk/raspbian-tee/optee_os/lib/libmbedtls/mbedtls/library/bignum.c:1896
    6166:	e92d 43f0 	stmdb	sp!, {r4, r5, r6, r7, r8, r9, lr}
    616a:	4681      	mov	r9, r0
    616c:	4617      	mov	r7, r2
    616e:	b08b      	sub	sp, #44	; 0x2c
/mnt/disk/raspbian-tee/optee_os/lib/libmbedtls/mbedtls/library/bignum.c:1901
    6170:	f10d 0804 	add.w	r8, sp, #4
    6174:	ae04      	add	r6, sp, #16
    6176:	4640      	mov	r0, r8
/mnt/disk/raspbian-tee/optee_os/lib/libmbedtls/mbedtls/library/bignum.c:1902
    6178:	ad07      	add	r5, sp, #28
/mnt/disk/raspbian-tee/optee_os/lib/libmbedtls/mbedtls/library/bignum.c:1901
    617a:	f7fe fc2a 	bl	49d2 <mbedtls_mpi_init_mempool>
    617e:	4630      	mov	r0, r6
    6180:	f7fe fc27 	bl	49d2 <mbedtls_mpi_init_mempool>
/mnt/disk/raspbian-tee/optee_os/lib/libmbedtls/mbedtls/library/bignum.c:1902
    6184:	4628      	mov	r0, r5
    6186:	f7fe fc24 	bl	49d2 <mbedtls_mpi_init_mempool>
/mnt/disk/raspbian-tee/optee_os/lib/libmbedtls/mbedtls/library/bignum.c:1904
    618a:	4630      	mov	r0, r6
    618c:	f7fe fd1e 	bl	4bcc <mbedtls_mpi_copy>
    6190:	4604      	mov	r4, r0
    6192:	2800      	cmp	r0, #0
    6194:	d159      	bne.n	624a <mbedtls_mpi_gcd+0xe4>
/mnt/disk/raspbian-tee/optee_os/lib/libmbedtls/mbedtls/library/bignum.c:1905
    6196:	4639      	mov	r1, r7
    6198:	4628      	mov	r0, r5
    619a:	f7fe fd17 	bl	4bcc <mbedtls_mpi_copy>
    619e:	4604      	mov	r4, r0
    61a0:	2800      	cmp	r0, #0
    61a2:	d152      	bne.n	624a <mbedtls_mpi_gcd+0xe4>
/mnt/disk/raspbian-tee/optee_os/lib/libmbedtls/mbedtls/library/bignum.c:1907
    61a4:	4630      	mov	r0, r6
    61a6:	f7fe fe20 	bl	4dea <mbedtls_mpi_lsb>
    61aa:	4607      	mov	r7, r0
/mnt/disk/raspbian-tee/optee_os/lib/libmbedtls/mbedtls/library/bignum.c:1908
    61ac:	4628      	mov	r0, r5
    61ae:	f7fe fe1c 	bl	4dea <mbedtls_mpi_lsb>
    61b2:	4287      	cmp	r7, r0
    61b4:	bf28      	it	cs
    61b6:	4607      	movcs	r7, r0
/mnt/disk/raspbian-tee/optee_os/lib/libmbedtls/mbedtls/library/bignum.c:1913
    61b8:	4630      	mov	r0, r6
    61ba:	4639      	mov	r1, r7
    61bc:	f7fe fef5 	bl	4faa <mbedtls_mpi_shift_r>
    61c0:	4604      	mov	r4, r0
    61c2:	2800      	cmp	r0, #0
    61c4:	d141      	bne.n	624a <mbedtls_mpi_gcd+0xe4>
/mnt/disk/raspbian-tee/optee_os/lib/libmbedtls/mbedtls/library/bignum.c:1914
    61c6:	4639      	mov	r1, r7
    61c8:	4628      	mov	r0, r5
    61ca:	f7fe feee 	bl	4faa <mbedtls_mpi_shift_r>
    61ce:	4604      	mov	r4, r0
    61d0:	bbd8      	cbnz	r0, 624a <mbedtls_mpi_gcd+0xe4>
/mnt/disk/raspbian-tee/optee_os/lib/libmbedtls/mbedtls/library/bignum.c:1916
    61d2:	2301      	movs	r3, #1
    61d4:	f88d 301c 	strb.w	r3, [sp, #28]
    61d8:	f88d 3010 	strb.w	r3, [sp, #16]
/mnt/disk/raspbian-tee/optee_os/lib/libmbedtls/mbedtls/library/bignum.c:1918
    61dc:	2100      	movs	r1, #0
    61de:	4630      	mov	r0, r6
    61e0:	f7fe ffa1 	bl	5126 <mbedtls_mpi_cmp_int>
    61e4:	b958      	cbnz	r0, 61fe <mbedtls_mpi_gcd+0x98>
/mnt/disk/raspbian-tee/optee_os/lib/libmbedtls/mbedtls/library/bignum.c:1935
    61e6:	4639      	mov	r1, r7
    61e8:	4628      	mov	r0, r5
    61ea:	f7fe fe92 	bl	4f12 <mbedtls_mpi_shift_l>
    61ee:	4604      	mov	r4, r0
    61f0:	bb58      	cbnz	r0, 624a <mbedtls_mpi_gcd+0xe4>
/mnt/disk/raspbian-tee/optee_os/lib/libmbedtls/mbedtls/library/bignum.c:1936
    61f2:	4629      	mov	r1, r5
    61f4:	4648      	mov	r0, r9
    61f6:	f7fe fce9 	bl	4bcc <mbedtls_mpi_copy>
    61fa:	4604      	mov	r4, r0
    61fc:	e025      	b.n	624a <mbedtls_mpi_gcd+0xe4>
/mnt/disk/raspbian-tee/optee_os/lib/libmbedtls/mbedtls/library/bignum.c:1920
    61fe:	4630      	mov	r0, r6
    6200:	f7fe fdf3 	bl	4dea <mbedtls_mpi_lsb>
    6204:	4601      	mov	r1, r0
    6206:	4630      	mov	r0, r6
    6208:	f7fe fecf 	bl	4faa <mbedtls_mpi_shift_r>
    620c:	4604      	mov	r4, r0
    620e:	b9e0      	cbnz	r0, 624a <mbedtls_mpi_gcd+0xe4>
/mnt/disk/raspbian-tee/optee_os/lib/libmbedtls/mbedtls/library/bignum.c:1921
    6210:	4628      	mov	r0, r5
    6212:	f7fe fdea 	bl	4dea <mbedtls_mpi_lsb>
    6216:	4601      	mov	r1, r0
    6218:	4628      	mov	r0, r5
    621a:	f7fe fec6 	bl	4faa <mbedtls_mpi_shift_r>
    621e:	4604      	mov	r4, r0
    6220:	b998      	cbnz	r0, 624a <mbedtls_mpi_gcd+0xe4>
/mnt/disk/raspbian-tee/optee_os/lib/libmbedtls/mbedtls/library/bignum.c:1923
    6222:	4629      	mov	r1, r5
    6224:	4630      	mov	r0, r6
    6226:	f7fe ff33 	bl	5090 <mbedtls_mpi_cmp_mpi>
    622a:	2800      	cmp	r0, #0
    622c:	db1a      	blt.n	6264 <mbedtls_mpi_gcd+0xfe>
/mnt/disk/raspbian-tee/optee_os/lib/libmbedtls/mbedtls/library/bignum.c:1925
    622e:	462a      	mov	r2, r5
    6230:	4631      	mov	r1, r6
    6232:	4630      	mov	r0, r6
    6234:	f7fe ffed 	bl	5212 <mbedtls_mpi_sub_abs>
    6238:	4604      	mov	r4, r0
    623a:	b930      	cbnz	r0, 624a <mbedtls_mpi_gcd+0xe4>
/mnt/disk/raspbian-tee/optee_os/lib/libmbedtls/mbedtls/library/bignum.c:1926
    623c:	2101      	movs	r1, #1
    623e:	4630      	mov	r0, r6
/mnt/disk/raspbian-tee/optee_os/lib/libmbedtls/mbedtls/library/bignum.c:1931
    6240:	f7fe feb3 	bl	4faa <mbedtls_mpi_shift_r>
    6244:	4604      	mov	r4, r0
    6246:	2800      	cmp	r0, #0
    6248:	d0c8      	beq.n	61dc <mbedtls_mpi_gcd+0x76>
/mnt/disk/raspbian-tee/optee_os/lib/libmbedtls/mbedtls/library/bignum.c:1940
    624a:	4640      	mov	r0, r8
    624c:	f7fe fbdd 	bl	4a0a <mbedtls_mpi_free>
    6250:	4630      	mov	r0, r6
    6252:	f7fe fbda 	bl	4a0a <mbedtls_mpi_free>
    6256:	4628      	mov	r0, r5
    6258:	f7fe fbd7 	bl	4a0a <mbedtls_mpi_free>
/mnt/disk/raspbian-tee/optee_os/lib/libmbedtls/mbedtls/library/bignum.c:1943
    625c:	4620      	mov	r0, r4
    625e:	b00b      	add	sp, #44	; 0x2c
    6260:	e8bd 83f0 	ldmia.w	sp!, {r4, r5, r6, r7, r8, r9, pc}
/mnt/disk/raspbian-tee/optee_os/lib/libmbedtls/mbedtls/library/bignum.c:1930
    6264:	4632      	mov	r2, r6
    6266:	4629      	mov	r1, r5
    6268:	4628      	mov	r0, r5
    626a:	f7fe ffd2 	bl	5212 <mbedtls_mpi_sub_abs>
    626e:	4604      	mov	r4, r0
    6270:	2800      	cmp	r0, #0
    6272:	d1ea      	bne.n	624a <mbedtls_mpi_gcd+0xe4>
/mnt/disk/raspbian-tee/optee_os/lib/libmbedtls/mbedtls/library/bignum.c:1931
    6274:	2101      	movs	r1, #1
    6276:	4628      	mov	r0, r5
    6278:	e7e2      	b.n	6240 <mbedtls_mpi_gcd+0xda>

0000627a <mbedtls_mpi_fill_random>:
mbedtls_mpi_fill_random():
/mnt/disk/raspbian-tee/optee_os/lib/libmbedtls/mbedtls/library/bignum.c:1955
    627a:	b5f0      	push	{r4, r5, r6, r7, lr}
/mnt/disk/raspbian-tee/optee_os/lib/libmbedtls/mbedtls/library/bignum.c:1959
    627c:	f5b1 6f80 	cmp.w	r1, #1024	; 0x400
/mnt/disk/raspbian-tee/optee_os/lib/libmbedtls/mbedtls/library/bignum.c:1955
    6280:	4606      	mov	r6, r0
    6282:	f2ad 4d04 	subw	sp, sp, #1028	; 0x404
    6286:	460c      	mov	r4, r1
    6288:	4617      	mov	r7, r2
/mnt/disk/raspbian-tee/optee_os/lib/libmbedtls/mbedtls/library/bignum.c:1959
    628a:	d80c      	bhi.n	62a6 <mbedtls_mpi_fill_random+0x2c>
/mnt/disk/raspbian-tee/optee_os/lib/libmbedtls/mbedtls/library/bignum.c:1962
    628c:	460a      	mov	r2, r1
    628e:	4618      	mov	r0, r3
    6290:	4669      	mov	r1, sp
    6292:	47b8      	blx	r7
    6294:	b920      	cbnz	r0, 62a0 <mbedtls_mpi_fill_random+0x26>
/mnt/disk/raspbian-tee/optee_os/lib/libmbedtls/mbedtls/library/bignum.c:1963
    6296:	4622      	mov	r2, r4
    6298:	4669      	mov	r1, sp
    629a:	4630      	mov	r0, r6
    629c:	f7fe fde3 	bl	4e66 <mbedtls_mpi_read_binary>
/mnt/disk/raspbian-tee/optee_os/lib/libmbedtls/mbedtls/library/bignum.c:1967
    62a0:	f20d 4d04 	addw	sp, sp, #1028	; 0x404
    62a4:	bdf0      	pop	{r4, r5, r6, r7, pc}
/mnt/disk/raspbian-tee/optee_os/lib/libmbedtls/mbedtls/library/bignum.c:1960
    62a6:	f06f 0003 	mvn.w	r0, #3
    62aa:	e7f9      	b.n	62a0 <mbedtls_mpi_fill_random+0x26>

000062ac <mpi_miller_rabin>:
mpi_miller_rabin():
/mnt/disk/raspbian-tee/optee_os/lib/libmbedtls/mbedtls/library/bignum.c:2132
    62ac:	e92d 4ff0 	stmdb	sp!, {r4, r5, r6, r7, r8, r9, sl, fp, lr}
    62b0:	4607      	mov	r7, r0
    62b2:	b097      	sub	sp, #92	; 0x5c
/mnt/disk/raspbian-tee/optee_os/lib/libmbedtls/mbedtls/library/bignum.c:2137
    62b4:	ad07      	add	r5, sp, #28
    62b6:	f10d 0828 	add.w	r8, sp, #40	; 0x28
    62ba:	4628      	mov	r0, r5
/mnt/disk/raspbian-tee/optee_os/lib/libmbedtls/mbedtls/library/bignum.c:2132
    62bc:	9103      	str	r1, [sp, #12]
    62be:	9204      	str	r2, [sp, #16]
/mnt/disk/raspbian-tee/optee_os/lib/libmbedtls/mbedtls/library/bignum.c:2137
    62c0:	f7fe fb87 	bl	49d2 <mbedtls_mpi_init_mempool>
    62c4:	4640      	mov	r0, r8
    62c6:	f7fe fb84 	bl	49d2 <mbedtls_mpi_init_mempool>
/mnt/disk/raspbian-tee/optee_os/lib/libmbedtls/mbedtls/library/bignum.c:2138
    62ca:	a80d      	add	r0, sp, #52	; 0x34
    62cc:	f7fe fb81 	bl	49d2 <mbedtls_mpi_init_mempool>
    62d0:	a810      	add	r0, sp, #64	; 0x40
    62d2:	f7fe fb7e 	bl	49d2 <mbedtls_mpi_init_mempool>
/mnt/disk/raspbian-tee/optee_os/lib/libmbedtls/mbedtls/library/bignum.c:2139
    62d6:	a813      	add	r0, sp, #76	; 0x4c
    62d8:	f7fe fb7b 	bl	49d2 <mbedtls_mpi_init_mempool>
/mnt/disk/raspbian-tee/optee_os/lib/libmbedtls/mbedtls/library/bignum.c:2145
    62dc:	2201      	movs	r2, #1
    62de:	4639      	mov	r1, r7
    62e0:	4628      	mov	r0, r5
    62e2:	f7ff f838 	bl	5356 <mbedtls_mpi_sub_int>
    62e6:	4683      	mov	fp, r0
    62e8:	2800      	cmp	r0, #0
    62ea:	d178      	bne.n	63de <mpi_miller_rabin+0x132>
/mnt/disk/raspbian-tee/optee_os/lib/libmbedtls/mbedtls/library/bignum.c:2146
    62ec:	4628      	mov	r0, r5
    62ee:	f7fe fd7c 	bl	4dea <mbedtls_mpi_lsb>
/mnt/disk/raspbian-tee/optee_os/lib/libmbedtls/mbedtls/library/bignum.c:2147
    62f2:	4629      	mov	r1, r5
/mnt/disk/raspbian-tee/optee_os/lib/libmbedtls/mbedtls/library/bignum.c:2146
    62f4:	9002      	str	r0, [sp, #8]
/mnt/disk/raspbian-tee/optee_os/lib/libmbedtls/mbedtls/library/bignum.c:2147
    62f6:	4640      	mov	r0, r8
    62f8:	f7fe fc68 	bl	4bcc <mbedtls_mpi_copy>
    62fc:	4683      	mov	fp, r0
    62fe:	2800      	cmp	r0, #0
    6300:	d16d      	bne.n	63de <mpi_miller_rabin+0x132>
/mnt/disk/raspbian-tee/optee_os/lib/libmbedtls/mbedtls/library/bignum.c:2148
    6302:	9902      	ldr	r1, [sp, #8]
    6304:	4640      	mov	r0, r8
    6306:	f7fe fe50 	bl	4faa <mbedtls_mpi_shift_r>
    630a:	4683      	mov	fp, r0
    630c:	2800      	cmp	r0, #0
    630e:	d166      	bne.n	63de <mpi_miller_rabin+0x132>
/mnt/disk/raspbian-tee/optee_os/lib/libmbedtls/mbedtls/library/bignum.c:2150
    6310:	4638      	mov	r0, r7
    6312:	f7fe fd81 	bl	4e18 <mbedtls_mpi_bitlen>
/mnt/disk/raspbian-tee/optee_os/lib/libmbedtls/mbedtls/library/bignum.c:2154
    6316:	f240 5313 	movw	r3, #1299	; 0x513
    631a:	4298      	cmp	r0, r3
    631c:	d845      	bhi.n	63aa <mpi_miller_rabin+0xfe>
/mnt/disk/raspbian-tee/optee_os/lib/libmbedtls/mbedtls/library/bignum.c:2154 (discriminator 1)
    631e:	f240 3351 	movw	r3, #849	; 0x351
    6322:	4298      	cmp	r0, r3
    6324:	d843      	bhi.n	63ae <mpi_miller_rabin+0x102>
/mnt/disk/raspbian-tee/optee_os/lib/libmbedtls/mbedtls/library/bignum.c:2154 (discriminator 3)
    6326:	f240 2389 	movw	r3, #649	; 0x289
    632a:	4298      	cmp	r0, r3
    632c:	d841      	bhi.n	63b2 <mpi_miller_rabin+0x106>
/mnt/disk/raspbian-tee/optee_os/lib/libmbedtls/mbedtls/library/bignum.c:2154 (discriminator 5)
    632e:	f5b0 7faf 	cmp.w	r0, #350	; 0x15e
    6332:	d240      	bcs.n	63b6 <mpi_miller_rabin+0x10a>
/mnt/disk/raspbian-tee/optee_os/lib/libmbedtls/mbedtls/library/bignum.c:2154 (discriminator 7)
    6334:	28f9      	cmp	r0, #249	; 0xf9
    6336:	d840      	bhi.n	63ba <mpi_miller_rabin+0x10e>
/mnt/disk/raspbian-tee/optee_os/lib/libmbedtls/mbedtls/library/bignum.c:2154 (discriminator 9)
    6338:	2896      	cmp	r0, #150	; 0x96
    633a:	f04f 061b 	mov.w	r6, #27
    633e:	bf28      	it	cs
    6340:	2612      	movcs	r6, #18
/mnt/disk/raspbian-tee/optee_os/lib/libmbedtls/mbedtls/library/bignum.c:2158 (discriminator 24)
    6342:	f04f 0900 	mov.w	r9, #0
/mnt/disk/raspbian-tee/optee_os/lib/libmbedtls/mbedtls/library/bignum.c:2163 (discriminator 24)
    6346:	ac10      	add	r4, sp, #64	; 0x40
/mnt/disk/raspbian-tee/optee_os/lib/libmbedtls/mbedtls/library/bignum.c:2205 (discriminator 24)
    6348:	ab0d      	add	r3, sp, #52	; 0x34
    634a:	9305      	str	r3, [sp, #20]
/mnt/disk/raspbian-tee/optee_os/lib/libmbedtls/mbedtls/library/bignum.c:2163
    634c:	88b9      	ldrh	r1, [r7, #4]
    634e:	4620      	mov	r0, r4
    6350:	9b04      	ldr	r3, [sp, #16]
    6352:	9a03      	ldr	r2, [sp, #12]
    6354:	0089      	lsls	r1, r1, #2
    6356:	f7ff ff90 	bl	627a <mbedtls_mpi_fill_random>
    635a:	4683      	mov	fp, r0
    635c:	2800      	cmp	r0, #0
    635e:	d13e      	bne.n	63de <mpi_miller_rabin+0x132>
/mnt/disk/raspbian-tee/optee_os/lib/libmbedtls/mbedtls/library/bignum.c:2165
    6360:	4629      	mov	r1, r5
    6362:	4620      	mov	r0, r4
    6364:	f7fe fe94 	bl	5090 <mbedtls_mpi_cmp_mpi>
    6368:	2800      	cmp	r0, #0
    636a:	da28      	bge.n	63be <mpi_miller_rabin+0x112>
/mnt/disk/raspbian-tee/optee_os/lib/libmbedtls/mbedtls/library/bignum.c:2170
    636c:	9a12      	ldr	r2, [sp, #72]	; 0x48
    636e:	f44f 7a97 	mov.w	sl, #302	; 0x12e
    6372:	6813      	ldr	r3, [r2, #0]
    6374:	f043 0303 	orr.w	r3, r3, #3
    6378:	6013      	str	r3, [r2, #0]
/mnt/disk/raspbian-tee/optee_os/lib/libmbedtls/mbedtls/library/bignum.c:2174
    637a:	88b9      	ldrh	r1, [r7, #4]
    637c:	4620      	mov	r0, r4
    637e:	9b04      	ldr	r3, [sp, #16]
    6380:	9a03      	ldr	r2, [sp, #12]
    6382:	0089      	lsls	r1, r1, #2
    6384:	f7ff ff79 	bl	627a <mbedtls_mpi_fill_random>
    6388:	4683      	mov	fp, r0
    638a:	bb40      	cbnz	r0, 63de <mpi_miller_rabin+0x132>
/mnt/disk/raspbian-tee/optee_os/lib/libmbedtls/mbedtls/library/bignum.c:2176
    638c:	4620      	mov	r0, r4
    638e:	f7fe fd43 	bl	4e18 <mbedtls_mpi_bitlen>
    6392:	4683      	mov	fp, r0
/mnt/disk/raspbian-tee/optee_os/lib/libmbedtls/mbedtls/library/bignum.c:2177
    6394:	4628      	mov	r0, r5
    6396:	f7fe fd3f 	bl	4e18 <mbedtls_mpi_bitlen>
/mnt/disk/raspbian-tee/optee_os/lib/libmbedtls/mbedtls/library/bignum.c:2178
    639a:	4583      	cmp	fp, r0
    639c:	d832      	bhi.n	6404 <mpi_miller_rabin+0x158>
/mnt/disk/raspbian-tee/optee_os/lib/libmbedtls/mbedtls/library/bignum.c:2182
    639e:	f1ba 0a01 	subs.w	sl, sl, #1
    63a2:	d138      	bne.n	6416 <mpi_miller_rabin+0x16a>
/mnt/disk/raspbian-tee/optee_os/lib/libmbedtls/mbedtls/library/bignum.c:2183
    63a4:	f06f 0b0d 	mvn.w	fp, #13
    63a8:	e019      	b.n	63de <mpi_miller_rabin+0x132>
/mnt/disk/raspbian-tee/optee_os/lib/libmbedtls/mbedtls/library/bignum.c:2154
    63aa:	2602      	movs	r6, #2
    63ac:	e7c9      	b.n	6342 <mpi_miller_rabin+0x96>
    63ae:	2603      	movs	r6, #3
    63b0:	e7c7      	b.n	6342 <mpi_miller_rabin+0x96>
    63b2:	2604      	movs	r6, #4
    63b4:	e7c5      	b.n	6342 <mpi_miller_rabin+0x96>
    63b6:	2608      	movs	r6, #8
    63b8:	e7c3      	b.n	6342 <mpi_miller_rabin+0x96>
    63ba:	260c      	movs	r6, #12
    63bc:	e7c1      	b.n	6342 <mpi_miller_rabin+0x96>
/mnt/disk/raspbian-tee/optee_os/lib/libmbedtls/mbedtls/library/bignum.c:2167
    63be:	4620      	mov	r0, r4
    63c0:	f7fe fd2a 	bl	4e18 <mbedtls_mpi_bitlen>
    63c4:	4682      	mov	sl, r0
    63c6:	4628      	mov	r0, r5
    63c8:	f7fe fd26 	bl	4e18 <mbedtls_mpi_bitlen>
/mnt/disk/raspbian-tee/optee_os/lib/libmbedtls/mbedtls/library/bignum.c:2168
    63cc:	f10a 0101 	add.w	r1, sl, #1
    63d0:	1a09      	subs	r1, r1, r0
    63d2:	4620      	mov	r0, r4
    63d4:	f7fe fde9 	bl	4faa <mbedtls_mpi_shift_r>
    63d8:	4683      	mov	fp, r0
    63da:	2800      	cmp	r0, #0
    63dc:	d0c6      	beq.n	636c <mpi_miller_rabin+0xc0>
/mnt/disk/raspbian-tee/optee_os/lib/libmbedtls/mbedtls/library/bignum.c:2226
    63de:	4628      	mov	r0, r5
    63e0:	f7fe fb13 	bl	4a0a <mbedtls_mpi_free>
    63e4:	4640      	mov	r0, r8
    63e6:	f7fe fb10 	bl	4a0a <mbedtls_mpi_free>
    63ea:	a80d      	add	r0, sp, #52	; 0x34
    63ec:	f7fe fb0d 	bl	4a0a <mbedtls_mpi_free>
    63f0:	a810      	add	r0, sp, #64	; 0x40
    63f2:	f7fe fb0a 	bl	4a0a <mbedtls_mpi_free>
/mnt/disk/raspbian-tee/optee_os/lib/libmbedtls/mbedtls/library/bignum.c:2227
    63f6:	a813      	add	r0, sp, #76	; 0x4c
    63f8:	f7fe fb07 	bl	4a0a <mbedtls_mpi_free>
/mnt/disk/raspbian-tee/optee_os/lib/libmbedtls/mbedtls/library/bignum.c:2230
    63fc:	4658      	mov	r0, fp
    63fe:	b017      	add	sp, #92	; 0x5c
    6400:	e8bd 8ff0 	ldmia.w	sp!, {r4, r5, r6, r7, r8, r9, sl, fp, pc}
/mnt/disk/raspbian-tee/optee_os/lib/libmbedtls/mbedtls/library/bignum.c:2179
    6404:	ebab 0100 	sub.w	r1, fp, r0
    6408:	4620      	mov	r0, r4
    640a:	f7fe fdce 	bl	4faa <mbedtls_mpi_shift_r>
    640e:	4683      	mov	fp, r0
    6410:	2800      	cmp	r0, #0
    6412:	d0c4      	beq.n	639e <mpi_miller_rabin+0xf2>
    6414:	e7e3      	b.n	63de <mpi_miller_rabin+0x132>
/mnt/disk/raspbian-tee/optee_os/lib/libmbedtls/mbedtls/library/bignum.c:2187
    6416:	4629      	mov	r1, r5
    6418:	4620      	mov	r0, r4
    641a:	f7fe fe39 	bl	5090 <mbedtls_mpi_cmp_mpi>
/mnt/disk/raspbian-tee/optee_os/lib/libmbedtls/mbedtls/library/bignum.c:2188
    641e:	2800      	cmp	r0, #0
    6420:	daab      	bge.n	637a <mpi_miller_rabin+0xce>
/mnt/disk/raspbian-tee/optee_os/lib/libmbedtls/mbedtls/library/bignum.c:2188 (discriminator 1)
    6422:	2101      	movs	r1, #1
    6424:	4620      	mov	r0, r4
    6426:	f7fe fe7e 	bl	5126 <mbedtls_mpi_cmp_int>
/mnt/disk/raspbian-tee/optee_os/lib/libmbedtls/mbedtls/library/bignum.c:2187 (discriminator 1)
    642a:	2800      	cmp	r0, #0
    642c:	dda5      	ble.n	637a <mpi_miller_rabin+0xce>
/mnt/disk/raspbian-tee/optee_os/lib/libmbedtls/mbedtls/library/bignum.c:2193
    642e:	ab13      	add	r3, sp, #76	; 0x4c
    6430:	4642      	mov	r2, r8
    6432:	9300      	str	r3, [sp, #0]
    6434:	4621      	mov	r1, r4
    6436:	463b      	mov	r3, r7
    6438:	4620      	mov	r0, r4
    643a:	f7ff fc71 	bl	5d20 <mbedtls_mpi_exp_mod>
    643e:	4683      	mov	fp, r0
    6440:	2800      	cmp	r0, #0
    6442:	d1cc      	bne.n	63de <mpi_miller_rabin+0x132>
/mnt/disk/raspbian-tee/optee_os/lib/libmbedtls/mbedtls/library/bignum.c:2195
    6444:	4629      	mov	r1, r5
    6446:	4620      	mov	r0, r4
    6448:	f7fe fe22 	bl	5090 <mbedtls_mpi_cmp_mpi>
    644c:	b928      	cbnz	r0, 645a <mpi_miller_rabin+0x1ae>
/mnt/disk/raspbian-tee/optee_os/lib/libmbedtls/mbedtls/library/bignum.c:2158
    644e:	f109 0901 	add.w	r9, r9, #1
    6452:	454e      	cmp	r6, r9
    6454:	f47f af7a 	bne.w	634c <mpi_miller_rabin+0xa0>
    6458:	e7c1      	b.n	63de <mpi_miller_rabin+0x132>
/mnt/disk/raspbian-tee/optee_os/lib/libmbedtls/mbedtls/library/bignum.c:2196 (discriminator 1)
    645a:	2101      	movs	r1, #1
    645c:	4620      	mov	r0, r4
    645e:	f7fe fe62 	bl	5126 <mbedtls_mpi_cmp_int>
/mnt/disk/raspbian-tee/optee_os/lib/libmbedtls/mbedtls/library/bignum.c:2195 (discriminator 1)
    6462:	2800      	cmp	r0, #0
    6464:	d0f3      	beq.n	644e <mpi_miller_rabin+0x1a2>
    6466:	f04f 0a01 	mov.w	sl, #1
/mnt/disk/raspbian-tee/optee_os/lib/libmbedtls/mbedtls/library/bignum.c:2200
    646a:	9b02      	ldr	r3, [sp, #8]
    646c:	459a      	cmp	sl, r3
    646e:	d215      	bcs.n	649c <mpi_miller_rabin+0x1f0>
/mnt/disk/raspbian-tee/optee_os/lib/libmbedtls/mbedtls/library/bignum.c:2200 (discriminator 1)
    6470:	4629      	mov	r1, r5
    6472:	4620      	mov	r0, r4
    6474:	f7fe fe0c 	bl	5090 <mbedtls_mpi_cmp_mpi>
    6478:	b180      	cbz	r0, 649c <mpi_miller_rabin+0x1f0>
/mnt/disk/raspbian-tee/optee_os/lib/libmbedtls/mbedtls/library/bignum.c:2205
    647a:	4622      	mov	r2, r4
    647c:	4621      	mov	r1, r4
    647e:	9805      	ldr	r0, [sp, #20]
    6480:	f7fe ff81 	bl	5386 <mbedtls_mpi_mul_mpi>
    6484:	b9d8      	cbnz	r0, 64be <mpi_miller_rabin+0x212>
/mnt/disk/raspbian-tee/optee_os/lib/libmbedtls/mbedtls/library/bignum.c:2206
    6486:	463a      	mov	r2, r7
    6488:	9905      	ldr	r1, [sp, #20]
    648a:	4620      	mov	r0, r4
    648c:	f7ff fa76 	bl	597c <mbedtls_mpi_mod_mpi>
    6490:	b9a8      	cbnz	r0, 64be <mpi_miller_rabin+0x212>
/mnt/disk/raspbian-tee/optee_os/lib/libmbedtls/mbedtls/library/bignum.c:2208
    6492:	2101      	movs	r1, #1
    6494:	4620      	mov	r0, r4
    6496:	f7fe fe46 	bl	5126 <mbedtls_mpi_cmp_int>
    649a:	b968      	cbnz	r0, 64b8 <mpi_miller_rabin+0x20c>
/mnt/disk/raspbian-tee/optee_os/lib/libmbedtls/mbedtls/library/bignum.c:2217
    649c:	4629      	mov	r1, r5
    649e:	4620      	mov	r0, r4
    64a0:	f7fe fdf6 	bl	5090 <mbedtls_mpi_cmp_mpi>
    64a4:	2800      	cmp	r0, #0
    64a6:	f47f af7d 	bne.w	63a4 <mpi_miller_rabin+0xf8>
/mnt/disk/raspbian-tee/optee_os/lib/libmbedtls/mbedtls/library/bignum.c:2218 (discriminator 1)
    64aa:	2101      	movs	r1, #1
    64ac:	4620      	mov	r0, r4
    64ae:	f7fe fe3a 	bl	5126 <mbedtls_mpi_cmp_int>
/mnt/disk/raspbian-tee/optee_os/lib/libmbedtls/mbedtls/library/bignum.c:2217 (discriminator 1)
    64b2:	2800      	cmp	r0, #0
    64b4:	d1cb      	bne.n	644e <mpi_miller_rabin+0x1a2>
    64b6:	e775      	b.n	63a4 <mpi_miller_rabin+0xf8>
/mnt/disk/raspbian-tee/optee_os/lib/libmbedtls/mbedtls/library/bignum.c:2211
    64b8:	f10a 0a01 	add.w	sl, sl, #1
    64bc:	e7d5      	b.n	646a <mpi_miller_rabin+0x1be>
/mnt/disk/raspbian-tee/optee_os/lib/libmbedtls/mbedtls/library/bignum.c:2206
    64be:	4683      	mov	fp, r0
    64c0:	e78d      	b.n	63de <mpi_miller_rabin+0x132>

000064c2 <mbedtls_mpi_inv_mod>:
mbedtls_mpi_inv_mod():
/mnt/disk/raspbian-tee/optee_os/lib/libmbedtls/mbedtls/library/bignum.c:1973
    64c2:	e92d 4ff0 	stmdb	sp!, {r4, r5, r6, r7, r8, r9, sl, fp, lr}
    64c6:	460e      	mov	r6, r1
/mnt/disk/raspbian-tee/optee_os/lib/libmbedtls/mbedtls/library/bignum.c:1977
    64c8:	2101      	movs	r1, #1
/mnt/disk/raspbian-tee/optee_os/lib/libmbedtls/mbedtls/library/bignum.c:1973
    64ca:	b0a3      	sub	sp, #140	; 0x8c
    64cc:	4615      	mov	r5, r2
    64ce:	9005      	str	r0, [sp, #20]
/mnt/disk/raspbian-tee/optee_os/lib/libmbedtls/mbedtls/library/bignum.c:1977
    64d0:	4610      	mov	r0, r2
    64d2:	f7fe fe28 	bl	5126 <mbedtls_mpi_cmp_int>
    64d6:	2800      	cmp	r0, #0
    64d8:	f340 8158 	ble.w	678c <mbedtls_mpi_inv_mod+0x2ca>
/mnt/disk/raspbian-tee/optee_os/lib/libmbedtls/mbedtls/library/bignum.c:1980
    64dc:	af0a      	add	r7, sp, #40	; 0x28
    64de:	ac0d      	add	r4, sp, #52	; 0x34
    64e0:	4638      	mov	r0, r7
/mnt/disk/raspbian-tee/optee_os/lib/libmbedtls/mbedtls/library/bignum.c:1981
    64e2:	f10d 0b40 	add.w	fp, sp, #64	; 0x40
/mnt/disk/raspbian-tee/optee_os/lib/libmbedtls/mbedtls/library/bignum.c:1980
    64e6:	f7fe fa74 	bl	49d2 <mbedtls_mpi_init_mempool>
    64ea:	4620      	mov	r0, r4
    64ec:	f7fe fa71 	bl	49d2 <mbedtls_mpi_init_mempool>
/mnt/disk/raspbian-tee/optee_os/lib/libmbedtls/mbedtls/library/bignum.c:1981
    64f0:	f10d 0a4c 	add.w	sl, sp, #76	; 0x4c
    64f4:	4658      	mov	r0, fp
/mnt/disk/raspbian-tee/optee_os/lib/libmbedtls/mbedtls/library/bignum.c:1982
    64f6:	f10d 091c 	add.w	r9, sp, #28
/mnt/disk/raspbian-tee/optee_os/lib/libmbedtls/mbedtls/library/bignum.c:1981
    64fa:	f7fe fa6a 	bl	49d2 <mbedtls_mpi_init_mempool>
    64fe:	4650      	mov	r0, sl
    6500:	f7fe fa67 	bl	49d2 <mbedtls_mpi_init_mempool>
/mnt/disk/raspbian-tee/optee_os/lib/libmbedtls/mbedtls/library/bignum.c:1982
    6504:	4648      	mov	r0, r9
    6506:	f7fe fa64 	bl	49d2 <mbedtls_mpi_init_mempool>
    650a:	ab16      	add	r3, sp, #88	; 0x58
    650c:	4618      	mov	r0, r3
    650e:	9301      	str	r3, [sp, #4]
    6510:	f7fe fa5f 	bl	49d2 <mbedtls_mpi_init_mempool>
/mnt/disk/raspbian-tee/optee_os/lib/libmbedtls/mbedtls/library/bignum.c:1983
    6514:	ab19      	add	r3, sp, #100	; 0x64
    6516:	4618      	mov	r0, r3
    6518:	9302      	str	r3, [sp, #8]
    651a:	f7fe fa5a 	bl	49d2 <mbedtls_mpi_init_mempool>
    651e:	ab1c      	add	r3, sp, #112	; 0x70
    6520:	4618      	mov	r0, r3
    6522:	9303      	str	r3, [sp, #12]
    6524:	f7fe fa55 	bl	49d2 <mbedtls_mpi_init_mempool>
/mnt/disk/raspbian-tee/optee_os/lib/libmbedtls/mbedtls/library/bignum.c:1984
    6528:	a81f      	add	r0, sp, #124	; 0x7c
    652a:	f7fe fa52 	bl	49d2 <mbedtls_mpi_init_mempool>
/mnt/disk/raspbian-tee/optee_os/lib/libmbedtls/mbedtls/library/bignum.c:1986
    652e:	4631      	mov	r1, r6
    6530:	462a      	mov	r2, r5
    6532:	4648      	mov	r0, r9
    6534:	f7ff fe17 	bl	6166 <mbedtls_mpi_gcd>
    6538:	4601      	mov	r1, r0
    653a:	2800      	cmp	r0, #0
    653c:	d156      	bne.n	65ec <mbedtls_mpi_inv_mod+0x12a>
/mnt/disk/raspbian-tee/optee_os/lib/libmbedtls/mbedtls/library/bignum.c:1988
    653e:	2101      	movs	r1, #1
    6540:	4648      	mov	r0, r9
    6542:	f7fe fdf0 	bl	5126 <mbedtls_mpi_cmp_int>
    6546:	2800      	cmp	r0, #0
    6548:	f040 811d 	bne.w	6786 <mbedtls_mpi_inv_mod+0x2c4>
/mnt/disk/raspbian-tee/optee_os/lib/libmbedtls/mbedtls/library/bignum.c:1994
    654c:	4631      	mov	r1, r6
    654e:	462a      	mov	r2, r5
    6550:	4638      	mov	r0, r7
    6552:	f7ff fa13 	bl	597c <mbedtls_mpi_mod_mpi>
    6556:	4601      	mov	r1, r0
    6558:	2800      	cmp	r0, #0
    655a:	d147      	bne.n	65ec <mbedtls_mpi_inv_mod+0x12a>
/mnt/disk/raspbian-tee/optee_os/lib/libmbedtls/mbedtls/library/bignum.c:1995
    655c:	4639      	mov	r1, r7
    655e:	4620      	mov	r0, r4
    6560:	f7fe fb34 	bl	4bcc <mbedtls_mpi_copy>
    6564:	4601      	mov	r1, r0
    6566:	2800      	cmp	r0, #0
    6568:	d140      	bne.n	65ec <mbedtls_mpi_inv_mod+0x12a>
/mnt/disk/raspbian-tee/optee_os/lib/libmbedtls/mbedtls/library/bignum.c:1996
    656a:	4629      	mov	r1, r5
    656c:	9801      	ldr	r0, [sp, #4]
    656e:	f7fe fb2d 	bl	4bcc <mbedtls_mpi_copy>
    6572:	4601      	mov	r1, r0
    6574:	2800      	cmp	r0, #0
    6576:	d139      	bne.n	65ec <mbedtls_mpi_inv_mod+0x12a>
/mnt/disk/raspbian-tee/optee_os/lib/libmbedtls/mbedtls/library/bignum.c:1997
    6578:	4629      	mov	r1, r5
    657a:	9802      	ldr	r0, [sp, #8]
    657c:	f7fe fb26 	bl	4bcc <mbedtls_mpi_copy>
    6580:	4601      	mov	r1, r0
    6582:	2800      	cmp	r0, #0
    6584:	d132      	bne.n	65ec <mbedtls_mpi_inv_mod+0x12a>
/mnt/disk/raspbian-tee/optee_os/lib/libmbedtls/mbedtls/library/bignum.c:1999
    6586:	2101      	movs	r1, #1
    6588:	4658      	mov	r0, fp
    658a:	f7fe fbda 	bl	4d42 <mbedtls_mpi_lset>
    658e:	4601      	mov	r1, r0
    6590:	bb60      	cbnz	r0, 65ec <mbedtls_mpi_inv_mod+0x12a>
/mnt/disk/raspbian-tee/optee_os/lib/libmbedtls/mbedtls/library/bignum.c:2000
    6592:	4650      	mov	r0, sl
    6594:	f7fe fbd5 	bl	4d42 <mbedtls_mpi_lset>
    6598:	4601      	mov	r1, r0
    659a:	bb38      	cbnz	r0, 65ec <mbedtls_mpi_inv_mod+0x12a>
/mnt/disk/raspbian-tee/optee_os/lib/libmbedtls/mbedtls/library/bignum.c:2001
    659c:	9803      	ldr	r0, [sp, #12]
    659e:	f7fe fbd0 	bl	4d42 <mbedtls_mpi_lset>
    65a2:	4601      	mov	r1, r0
    65a4:	bb10      	cbnz	r0, 65ec <mbedtls_mpi_inv_mod+0x12a>
/mnt/disk/raspbian-tee/optee_os/lib/libmbedtls/mbedtls/library/bignum.c:2002
    65a6:	ae1f      	add	r6, sp, #124	; 0x7c
    65a8:	2101      	movs	r1, #1
    65aa:	4630      	mov	r0, r6
    65ac:	f7fe fbc9 	bl	4d42 <mbedtls_mpi_lset>
    65b0:	4601      	mov	r1, r0
    65b2:	b9d8      	cbnz	r0, 65ec <mbedtls_mpi_inv_mod+0x12a>
    65b4:	f10d 0864 	add.w	r8, sp, #100	; 0x64
/mnt/disk/raspbian-tee/optee_os/lib/libmbedtls/mbedtls/library/bignum.c:2026
    65b8:	ab16      	add	r3, sp, #88	; 0x58
    65ba:	9304      	str	r3, [sp, #16]
/mnt/disk/raspbian-tee/optee_os/lib/libmbedtls/mbedtls/library/bignum.c:2006
    65bc:	9b0f      	ldr	r3, [sp, #60]	; 0x3c
    65be:	681b      	ldr	r3, [r3, #0]
    65c0:	07d8      	lsls	r0, r3, #31
    65c2:	d46a      	bmi.n	669a <mbedtls_mpi_inv_mod+0x1d8>
/mnt/disk/raspbian-tee/optee_os/lib/libmbedtls/mbedtls/library/bignum.c:2008
    65c4:	2101      	movs	r1, #1
    65c6:	4620      	mov	r0, r4
    65c8:	f7fe fcef 	bl	4faa <mbedtls_mpi_shift_r>
    65cc:	4601      	mov	r1, r0
    65ce:	b968      	cbnz	r0, 65ec <mbedtls_mpi_inv_mod+0x12a>
/mnt/disk/raspbian-tee/optee_os/lib/libmbedtls/mbedtls/library/bignum.c:2010
    65d0:	9b12      	ldr	r3, [sp, #72]	; 0x48
    65d2:	681b      	ldr	r3, [r3, #0]
    65d4:	07da      	lsls	r2, r3, #31
    65d6:	d42a      	bmi.n	662e <mbedtls_mpi_inv_mod+0x16c>
/mnt/disk/raspbian-tee/optee_os/lib/libmbedtls/mbedtls/library/bignum.c:2010 (discriminator 1)
    65d8:	9b15      	ldr	r3, [sp, #84]	; 0x54
    65da:	681b      	ldr	r3, [r3, #0]
    65dc:	07db      	lsls	r3, r3, #31
    65de:	d426      	bmi.n	662e <mbedtls_mpi_inv_mod+0x16c>
/mnt/disk/raspbian-tee/optee_os/lib/libmbedtls/mbedtls/library/bignum.c:2016
    65e0:	2101      	movs	r1, #1
    65e2:	a810      	add	r0, sp, #64	; 0x40
    65e4:	f7fe fce1 	bl	4faa <mbedtls_mpi_shift_r>
    65e8:	4601      	mov	r1, r0
    65ea:	b388      	cbz	r0, 6650 <mbedtls_mpi_inv_mod+0x18e>
/mnt/disk/raspbian-tee/optee_os/lib/libmbedtls/mbedtls/library/bignum.c:2059
    65ec:	4638      	mov	r0, r7
    65ee:	9104      	str	r1, [sp, #16]
    65f0:	f7fe fa0b 	bl	4a0a <mbedtls_mpi_free>
    65f4:	4620      	mov	r0, r4
    65f6:	f7fe fa08 	bl	4a0a <mbedtls_mpi_free>
    65fa:	4658      	mov	r0, fp
    65fc:	f7fe fa05 	bl	4a0a <mbedtls_mpi_free>
    6600:	4650      	mov	r0, sl
    6602:	f7fe fa02 	bl	4a0a <mbedtls_mpi_free>
/mnt/disk/raspbian-tee/optee_os/lib/libmbedtls/mbedtls/library/bignum.c:2060
    6606:	4648      	mov	r0, r9
    6608:	f7fe f9ff 	bl	4a0a <mbedtls_mpi_free>
    660c:	9801      	ldr	r0, [sp, #4]
    660e:	f7fe f9fc 	bl	4a0a <mbedtls_mpi_free>
    6612:	9802      	ldr	r0, [sp, #8]
    6614:	f7fe f9f9 	bl	4a0a <mbedtls_mpi_free>
/mnt/disk/raspbian-tee/optee_os/lib/libmbedtls/mbedtls/library/bignum.c:2061
    6618:	9803      	ldr	r0, [sp, #12]
    661a:	f7fe f9f6 	bl	4a0a <mbedtls_mpi_free>
    661e:	a81f      	add	r0, sp, #124	; 0x7c
    6620:	f7fe f9f3 	bl	4a0a <mbedtls_mpi_free>
/mnt/disk/raspbian-tee/optee_os/lib/libmbedtls/mbedtls/library/bignum.c:2063
    6624:	9904      	ldr	r1, [sp, #16]
/mnt/disk/raspbian-tee/optee_os/lib/libmbedtls/mbedtls/library/bignum.c:2064
    6626:	4608      	mov	r0, r1
    6628:	b023      	add	sp, #140	; 0x8c
    662a:	e8bd 8ff0 	ldmia.w	sp!, {r4, r5, r6, r7, r8, r9, sl, fp, pc}
/mnt/disk/raspbian-tee/optee_os/lib/libmbedtls/mbedtls/library/bignum.c:2012
    662e:	a910      	add	r1, sp, #64	; 0x40
    6630:	9a04      	ldr	r2, [sp, #16]
    6632:	4608      	mov	r0, r1
    6634:	f7fe fe2d 	bl	5292 <mbedtls_mpi_add_mpi>
    6638:	4601      	mov	r1, r0
    663a:	2800      	cmp	r0, #0
    663c:	d1d6      	bne.n	65ec <mbedtls_mpi_inv_mod+0x12a>
/mnt/disk/raspbian-tee/optee_os/lib/libmbedtls/mbedtls/library/bignum.c:2013
    663e:	a913      	add	r1, sp, #76	; 0x4c
    6640:	463a      	mov	r2, r7
    6642:	4608      	mov	r0, r1
    6644:	f7fe fe49 	bl	52da <mbedtls_mpi_sub_mpi>
    6648:	4601      	mov	r1, r0
    664a:	2800      	cmp	r0, #0
    664c:	d0c8      	beq.n	65e0 <mbedtls_mpi_inv_mod+0x11e>
    664e:	e7cd      	b.n	65ec <mbedtls_mpi_inv_mod+0x12a>
/mnt/disk/raspbian-tee/optee_os/lib/libmbedtls/mbedtls/library/bignum.c:2017
    6650:	2101      	movs	r1, #1
    6652:	a813      	add	r0, sp, #76	; 0x4c
    6654:	f7fe fca9 	bl	4faa <mbedtls_mpi_shift_r>
    6658:	4601      	mov	r1, r0
    665a:	2800      	cmp	r0, #0
    665c:	d0ae      	beq.n	65bc <mbedtls_mpi_inv_mod+0xfa>
    665e:	e7c5      	b.n	65ec <mbedtls_mpi_inv_mod+0x12a>
/mnt/disk/raspbian-tee/optee_os/lib/libmbedtls/mbedtls/library/bignum.c:2022
    6660:	2101      	movs	r1, #1
    6662:	4640      	mov	r0, r8
    6664:	f7fe fca1 	bl	4faa <mbedtls_mpi_shift_r>
    6668:	4601      	mov	r1, r0
    666a:	2800      	cmp	r0, #0
    666c:	d1be      	bne.n	65ec <mbedtls_mpi_inv_mod+0x12a>
/mnt/disk/raspbian-tee/optee_os/lib/libmbedtls/mbedtls/library/bignum.c:2024
    666e:	9b1e      	ldr	r3, [sp, #120]	; 0x78
    6670:	681b      	ldr	r3, [r3, #0]
    6672:	07d9      	lsls	r1, r3, #31
    6674:	d44d      	bmi.n	6712 <mbedtls_mpi_inv_mod+0x250>
/mnt/disk/raspbian-tee/optee_os/lib/libmbedtls/mbedtls/library/bignum.c:2024 (discriminator 1)
    6676:	9b21      	ldr	r3, [sp, #132]	; 0x84
    6678:	681b      	ldr	r3, [r3, #0]
    667a:	07da      	lsls	r2, r3, #31
    667c:	d449      	bmi.n	6712 <mbedtls_mpi_inv_mod+0x250>
/mnt/disk/raspbian-tee/optee_os/lib/libmbedtls/mbedtls/library/bignum.c:2030
    667e:	2101      	movs	r1, #1
    6680:	a81c      	add	r0, sp, #112	; 0x70
    6682:	f7fe fc92 	bl	4faa <mbedtls_mpi_shift_r>
    6686:	4601      	mov	r1, r0
    6688:	2800      	cmp	r0, #0
    668a:	d1af      	bne.n	65ec <mbedtls_mpi_inv_mod+0x12a>
/mnt/disk/raspbian-tee/optee_os/lib/libmbedtls/mbedtls/library/bignum.c:2031
    668c:	2101      	movs	r1, #1
    668e:	4630      	mov	r0, r6
    6690:	f7fe fc8b 	bl	4faa <mbedtls_mpi_shift_r>
    6694:	4601      	mov	r1, r0
    6696:	2800      	cmp	r0, #0
    6698:	d1a8      	bne.n	65ec <mbedtls_mpi_inv_mod+0x12a>
/mnt/disk/raspbian-tee/optee_os/lib/libmbedtls/mbedtls/library/bignum.c:2020
    669a:	9b1b      	ldr	r3, [sp, #108]	; 0x6c
    669c:	681b      	ldr	r3, [r3, #0]
    669e:	07db      	lsls	r3, r3, #31
    66a0:	d5de      	bpl.n	6660 <mbedtls_mpi_inv_mod+0x19e>
/mnt/disk/raspbian-tee/optee_os/lib/libmbedtls/mbedtls/library/bignum.c:2034
    66a2:	4641      	mov	r1, r8
    66a4:	4620      	mov	r0, r4
    66a6:	f7fe fcf3 	bl	5090 <mbedtls_mpi_cmp_mpi>
    66aa:	2800      	cmp	r0, #0
    66ac:	db43      	blt.n	6736 <mbedtls_mpi_inv_mod+0x274>
/mnt/disk/raspbian-tee/optee_os/lib/libmbedtls/mbedtls/library/bignum.c:2036
    66ae:	4621      	mov	r1, r4
    66b0:	4642      	mov	r2, r8
    66b2:	4620      	mov	r0, r4
    66b4:	f7fe fe11 	bl	52da <mbedtls_mpi_sub_mpi>
    66b8:	4601      	mov	r1, r0
    66ba:	2800      	cmp	r0, #0
    66bc:	d196      	bne.n	65ec <mbedtls_mpi_inv_mod+0x12a>
/mnt/disk/raspbian-tee/optee_os/lib/libmbedtls/mbedtls/library/bignum.c:2037
    66be:	a910      	add	r1, sp, #64	; 0x40
    66c0:	aa1c      	add	r2, sp, #112	; 0x70
    66c2:	4608      	mov	r0, r1
    66c4:	f7fe fe09 	bl	52da <mbedtls_mpi_sub_mpi>
    66c8:	4601      	mov	r1, r0
    66ca:	2800      	cmp	r0, #0
    66cc:	d18e      	bne.n	65ec <mbedtls_mpi_inv_mod+0x12a>
/mnt/disk/raspbian-tee/optee_os/lib/libmbedtls/mbedtls/library/bignum.c:2038
    66ce:	a913      	add	r1, sp, #76	; 0x4c
    66d0:	4632      	mov	r2, r6
    66d2:	4608      	mov	r0, r1
    66d4:	f7fe fe01 	bl	52da <mbedtls_mpi_sub_mpi>
    66d8:	4601      	mov	r1, r0
    66da:	2800      	cmp	r0, #0
    66dc:	d186      	bne.n	65ec <mbedtls_mpi_inv_mod+0x12a>
/mnt/disk/raspbian-tee/optee_os/lib/libmbedtls/mbedtls/library/bignum.c:2047
    66de:	2100      	movs	r1, #0
    66e0:	4620      	mov	r0, r4
    66e2:	f7fe fd20 	bl	5126 <mbedtls_mpi_cmp_int>
    66e6:	2800      	cmp	r0, #0
    66e8:	f47f af68 	bne.w	65bc <mbedtls_mpi_inv_mod+0xfa>
/mnt/disk/raspbian-tee/optee_os/lib/libmbedtls/mbedtls/library/bignum.c:2049
    66ec:	ae1c      	add	r6, sp, #112	; 0x70
    66ee:	2100      	movs	r1, #0
    66f0:	4630      	mov	r0, r6
    66f2:	f7fe fd18 	bl	5126 <mbedtls_mpi_cmp_int>
    66f6:	2800      	cmp	r0, #0
    66f8:	db33      	blt.n	6762 <mbedtls_mpi_inv_mod+0x2a0>
/mnt/disk/raspbian-tee/optee_os/lib/libmbedtls/mbedtls/library/bignum.c:2052
    66fa:	4629      	mov	r1, r5
    66fc:	4630      	mov	r0, r6
    66fe:	f7fe fcc7 	bl	5090 <mbedtls_mpi_cmp_mpi>
    6702:	2800      	cmp	r0, #0
    6704:	da36      	bge.n	6774 <mbedtls_mpi_inv_mod+0x2b2>
/mnt/disk/raspbian-tee/optee_os/lib/libmbedtls/mbedtls/library/bignum.c:2055
    6706:	4631      	mov	r1, r6
    6708:	9805      	ldr	r0, [sp, #20]
    670a:	f7fe fa5f 	bl	4bcc <mbedtls_mpi_copy>
    670e:	4601      	mov	r1, r0
    6710:	e76c      	b.n	65ec <mbedtls_mpi_inv_mod+0x12a>
/mnt/disk/raspbian-tee/optee_os/lib/libmbedtls/mbedtls/library/bignum.c:2026
    6712:	a91c      	add	r1, sp, #112	; 0x70
    6714:	9a04      	ldr	r2, [sp, #16]
    6716:	4608      	mov	r0, r1
    6718:	f7fe fdbb 	bl	5292 <mbedtls_mpi_add_mpi>
    671c:	4601      	mov	r1, r0
    671e:	2800      	cmp	r0, #0
    6720:	f47f af64 	bne.w	65ec <mbedtls_mpi_inv_mod+0x12a>
/mnt/disk/raspbian-tee/optee_os/lib/libmbedtls/mbedtls/library/bignum.c:2027
    6724:	4631      	mov	r1, r6
    6726:	463a      	mov	r2, r7
    6728:	4630      	mov	r0, r6
    672a:	f7fe fdd6 	bl	52da <mbedtls_mpi_sub_mpi>
    672e:	4601      	mov	r1, r0
    6730:	2800      	cmp	r0, #0
    6732:	d0a4      	beq.n	667e <mbedtls_mpi_inv_mod+0x1bc>
    6734:	e75a      	b.n	65ec <mbedtls_mpi_inv_mod+0x12a>
/mnt/disk/raspbian-tee/optee_os/lib/libmbedtls/mbedtls/library/bignum.c:2042
    6736:	4641      	mov	r1, r8
    6738:	4622      	mov	r2, r4
    673a:	4640      	mov	r0, r8
    673c:	f7fe fdcd 	bl	52da <mbedtls_mpi_sub_mpi>
    6740:	4601      	mov	r1, r0
    6742:	2800      	cmp	r0, #0
    6744:	f47f af52 	bne.w	65ec <mbedtls_mpi_inv_mod+0x12a>
/mnt/disk/raspbian-tee/optee_os/lib/libmbedtls/mbedtls/library/bignum.c:2043
    6748:	a91c      	add	r1, sp, #112	; 0x70
    674a:	aa10      	add	r2, sp, #64	; 0x40
    674c:	4608      	mov	r0, r1
    674e:	f7fe fdc4 	bl	52da <mbedtls_mpi_sub_mpi>
    6752:	4601      	mov	r1, r0
    6754:	2800      	cmp	r0, #0
    6756:	f47f af49 	bne.w	65ec <mbedtls_mpi_inv_mod+0x12a>
/mnt/disk/raspbian-tee/optee_os/lib/libmbedtls/mbedtls/library/bignum.c:2044
    675a:	aa13      	add	r2, sp, #76	; 0x4c
    675c:	4631      	mov	r1, r6
    675e:	4630      	mov	r0, r6
    6760:	e7b8      	b.n	66d4 <mbedtls_mpi_inv_mod+0x212>
/mnt/disk/raspbian-tee/optee_os/lib/libmbedtls/mbedtls/library/bignum.c:2050
    6762:	4631      	mov	r1, r6
    6764:	462a      	mov	r2, r5
    6766:	4630      	mov	r0, r6
    6768:	f7fe fd93 	bl	5292 <mbedtls_mpi_add_mpi>
    676c:	4601      	mov	r1, r0
    676e:	2800      	cmp	r0, #0
    6770:	d0bd      	beq.n	66ee <mbedtls_mpi_inv_mod+0x22c>
    6772:	e73b      	b.n	65ec <mbedtls_mpi_inv_mod+0x12a>
/mnt/disk/raspbian-tee/optee_os/lib/libmbedtls/mbedtls/library/bignum.c:2053
    6774:	4631      	mov	r1, r6
    6776:	462a      	mov	r2, r5
    6778:	4630      	mov	r0, r6
    677a:	f7fe fdae 	bl	52da <mbedtls_mpi_sub_mpi>
    677e:	4601      	mov	r1, r0
    6780:	2800      	cmp	r0, #0
    6782:	d0ba      	beq.n	66fa <mbedtls_mpi_inv_mod+0x238>
    6784:	e732      	b.n	65ec <mbedtls_mpi_inv_mod+0x12a>
/mnt/disk/raspbian-tee/optee_os/lib/libmbedtls/mbedtls/library/bignum.c:1990
    6786:	f06f 010d 	mvn.w	r1, #13
    678a:	e72f      	b.n	65ec <mbedtls_mpi_inv_mod+0x12a>
/mnt/disk/raspbian-tee/optee_os/lib/libmbedtls/mbedtls/library/bignum.c:1978
    678c:	f06f 0103 	mvn.w	r1, #3
    6790:	e749      	b.n	6626 <mbedtls_mpi_inv_mod+0x164>

00006792 <mbedtls_mpi_is_prime>:
mbedtls_mpi_is_prime():
/mnt/disk/raspbian-tee/optee_os/lib/libmbedtls/mbedtls/library/bignum.c:2238
    6792:	b5f0      	push	{r4, r5, r6, r7, lr}
    6794:	460e      	mov	r6, r1
/mnt/disk/raspbian-tee/optee_os/lib/libmbedtls/mbedtls/library/bignum.c:2243
    6796:	8883      	ldrh	r3, [r0, #4]
/mnt/disk/raspbian-tee/optee_os/lib/libmbedtls/mbedtls/library/bignum.c:2238
    6798:	b085      	sub	sp, #20
/mnt/disk/raspbian-tee/optee_os/lib/libmbedtls/mbedtls/library/bignum.c:2246
    679a:	2100      	movs	r1, #0
    679c:	ac01      	add	r4, sp, #4
/mnt/disk/raspbian-tee/optee_os/lib/libmbedtls/mbedtls/library/bignum.c:2242
    679e:	2501      	movs	r5, #1
/mnt/disk/raspbian-tee/optee_os/lib/libmbedtls/mbedtls/library/bignum.c:2238
    67a0:	4617      	mov	r7, r2
/mnt/disk/raspbian-tee/optee_os/lib/libmbedtls/mbedtls/library/bignum.c:2243
    67a2:	f8ad 3008 	strh.w	r3, [sp, #8]
/mnt/disk/raspbian-tee/optee_os/lib/libmbedtls/mbedtls/library/bignum.c:2244
    67a6:	6883      	ldr	r3, [r0, #8]
/mnt/disk/raspbian-tee/optee_os/lib/libmbedtls/mbedtls/library/bignum.c:2246
    67a8:	4620      	mov	r0, r4
/mnt/disk/raspbian-tee/optee_os/lib/libmbedtls/mbedtls/library/bignum.c:2242
    67aa:	f88d 5004 	strb.w	r5, [sp, #4]
/mnt/disk/raspbian-tee/optee_os/lib/libmbedtls/mbedtls/library/bignum.c:2244
    67ae:	9303      	str	r3, [sp, #12]
/mnt/disk/raspbian-tee/optee_os/lib/libmbedtls/mbedtls/library/bignum.c:2246
    67b0:	f7fe fcb9 	bl	5126 <mbedtls_mpi_cmp_int>
    67b4:	b1c0      	cbz	r0, 67e8 <mbedtls_mpi_is_prime+0x56>
/mnt/disk/raspbian-tee/optee_os/lib/libmbedtls/mbedtls/library/bignum.c:2247 (discriminator 1)
    67b6:	4629      	mov	r1, r5
    67b8:	4620      	mov	r0, r4
    67ba:	f7fe fcb4 	bl	5126 <mbedtls_mpi_cmp_int>
/mnt/disk/raspbian-tee/optee_os/lib/libmbedtls/mbedtls/library/bignum.c:2246 (discriminator 1)
    67be:	b198      	cbz	r0, 67e8 <mbedtls_mpi_is_prime+0x56>
/mnt/disk/raspbian-tee/optee_os/lib/libmbedtls/mbedtls/library/bignum.c:2250
    67c0:	2102      	movs	r1, #2
    67c2:	4620      	mov	r0, r4
    67c4:	f7fe fcaf 	bl	5126 <mbedtls_mpi_cmp_int>
    67c8:	b128      	cbz	r0, 67d6 <mbedtls_mpi_is_prime+0x44>
/mnt/disk/raspbian-tee/optee_os/lib/libmbedtls/mbedtls/library/bignum.c:2253
    67ca:	4620      	mov	r0, r4
    67cc:	f7ff f9f8 	bl	5bc0 <mpi_check_small_factors>
    67d0:	b120      	cbz	r0, 67dc <mbedtls_mpi_is_prime+0x4a>
/mnt/disk/raspbian-tee/optee_os/lib/libmbedtls/mbedtls/library/bignum.c:2255
    67d2:	42a8      	cmp	r0, r5
    67d4:	d100      	bne.n	67d8 <mbedtls_mpi_is_prime+0x46>
/mnt/disk/raspbian-tee/optee_os/lib/libmbedtls/mbedtls/library/bignum.c:2256
    67d6:	2000      	movs	r0, #0
/mnt/disk/raspbian-tee/optee_os/lib/libmbedtls/mbedtls/library/bignum.c:2262
    67d8:	b005      	add	sp, #20
    67da:	bdf0      	pop	{r4, r5, r6, r7, pc}
/mnt/disk/raspbian-tee/optee_os/lib/libmbedtls/mbedtls/library/bignum.c:2261
    67dc:	463a      	mov	r2, r7
    67de:	4631      	mov	r1, r6
    67e0:	4620      	mov	r0, r4
    67e2:	f7ff fd63 	bl	62ac <mpi_miller_rabin>
    67e6:	e7f7      	b.n	67d8 <mbedtls_mpi_is_prime+0x46>
/mnt/disk/raspbian-tee/optee_os/lib/libmbedtls/mbedtls/library/bignum.c:2248
    67e8:	f06f 000d 	mvn.w	r0, #13
    67ec:	e7f4      	b.n	67d8 <mbedtls_mpi_is_prime+0x46>

000067ee <mbedtls_mpi_gen_prime>:
mbedtls_mpi_gen_prime():
/mnt/disk/raspbian-tee/optee_os/lib/libmbedtls/mbedtls/library/bignum.c:2270
    67ee:	e92d 43f0 	stmdb	sp!, {r4, r5, r6, r7, r8, r9, lr}
    67f2:	4691      	mov	r9, r2
/mnt/disk/raspbian-tee/optee_os/lib/libmbedtls/mbedtls/library/bignum.c:2276
    67f4:	1eca      	subs	r2, r1, #3
/mnt/disk/raspbian-tee/optee_os/lib/libmbedtls/mbedtls/library/bignum.c:2270
    67f6:	4698      	mov	r8, r3
    67f8:	b085      	sub	sp, #20
/mnt/disk/raspbian-tee/optee_os/lib/libmbedtls/mbedtls/library/bignum.c:2276
    67fa:	f641 73fd 	movw	r3, #8189	; 0x1ffd
/mnt/disk/raspbian-tee/optee_os/lib/libmbedtls/mbedtls/library/bignum.c:2270
    67fe:	4604      	mov	r4, r0
    6800:	460f      	mov	r7, r1
/mnt/disk/raspbian-tee/optee_os/lib/libmbedtls/mbedtls/library/bignum.c:2276
    6802:	429a      	cmp	r2, r3
    6804:	f200 808b 	bhi.w	691e <mbedtls_mpi_gen_prime+0x130>
/mnt/disk/raspbian-tee/optee_os/lib/libmbedtls/mbedtls/library/bignum.c:2279
    6808:	ae01      	add	r6, sp, #4
    680a:	4630      	mov	r0, r6
    680c:	f7fe f8e1 	bl	49d2 <mbedtls_mpi_init_mempool>
/mnt/disk/raspbian-tee/optee_os/lib/libmbedtls/mbedtls/library/bignum.c:2281
    6810:	f011 011f 	ands.w	r1, r1, #31
    6814:	bf18      	it	ne
    6816:	2101      	movne	r1, #1
/mnt/disk/raspbian-tee/optee_os/lib/libmbedtls/mbedtls/library/bignum.c:2283
    6818:	9b0c      	ldr	r3, [sp, #48]	; 0x30
/mnt/disk/raspbian-tee/optee_os/lib/libmbedtls/mbedtls/library/bignum.c:2281
    681a:	eb01 1157 	add.w	r1, r1, r7, lsr #5
/mnt/disk/raspbian-tee/optee_os/lib/libmbedtls/mbedtls/library/bignum.c:2283
    681e:	4642      	mov	r2, r8
    6820:	0089      	lsls	r1, r1, #2
    6822:	4620      	mov	r0, r4
    6824:	f7ff fd29 	bl	627a <mbedtls_mpi_fill_random>
    6828:	4605      	mov	r5, r0
    682a:	2800      	cmp	r0, #0
    682c:	d161      	bne.n	68f2 <mbedtls_mpi_gen_prime+0x104>
/mnt/disk/raspbian-tee/optee_os/lib/libmbedtls/mbedtls/library/bignum.c:2285
    682e:	4620      	mov	r0, r4
    6830:	f7fe faf2 	bl	4e18 <mbedtls_mpi_bitlen>
/mnt/disk/raspbian-tee/optee_os/lib/libmbedtls/mbedtls/library/bignum.c:2286
    6834:	4287      	cmp	r7, r0
    6836:	d349      	bcc.n	68cc <mbedtls_mpi_gen_prime+0xde>
/mnt/disk/raspbian-tee/optee_os/lib/libmbedtls/mbedtls/library/bignum.c:2288
    6838:	2201      	movs	r2, #1
    683a:	1e79      	subs	r1, r7, #1
    683c:	4620      	mov	r0, r4
    683e:	f7fe faac 	bl	4d9a <mbedtls_mpi_set_bit>
/mnt/disk/raspbian-tee/optee_os/lib/libmbedtls/mbedtls/library/bignum.c:2290
    6842:	68a2      	ldr	r2, [r4, #8]
    6844:	6813      	ldr	r3, [r2, #0]
/mnt/disk/raspbian-tee/optee_os/lib/libmbedtls/mbedtls/library/bignum.c:2292
    6846:	f1b9 0f00 	cmp.w	r9, #0
    684a:	d049      	beq.n	68e0 <mbedtls_mpi_gen_prime+0xf2>
/mnt/disk/raspbian-tee/optee_os/lib/libmbedtls/mbedtls/library/bignum.c:2310
    684c:	f043 0303 	orr.w	r3, r3, #3
mbedtls_mpi_mod_int():
    6850:	4621      	mov	r1, r4
mbedtls_mpi_gen_prime():
    6852:	6013      	str	r3, [r2, #0]
mbedtls_mpi_mod_int():
    6854:	4668      	mov	r0, sp
    6856:	2203      	movs	r2, #3
    6858:	f7fe f88e 	bl	4978 <mbedtls_mpi_mod_int.part.1>
mbedtls_mpi_gen_prime():
/mnt/disk/raspbian-tee/optee_os/lib/libmbedtls/mbedtls/library/bignum.c:2312
    685c:	2800      	cmp	r0, #0
    685e:	d13d      	bne.n	68dc <mbedtls_mpi_gen_prime+0xee>
/mnt/disk/raspbian-tee/optee_os/lib/libmbedtls/mbedtls/library/bignum.c:2313
    6860:	9b00      	ldr	r3, [sp, #0]
    6862:	2b00      	cmp	r3, #0
    6864:	d157      	bne.n	6916 <mbedtls_mpi_gen_prime+0x128>
/mnt/disk/raspbian-tee/optee_os/lib/libmbedtls/mbedtls/library/bignum.c:2314
    6866:	2208      	movs	r2, #8
/mnt/disk/raspbian-tee/optee_os/lib/libmbedtls/mbedtls/library/bignum.c:2316
    6868:	4621      	mov	r1, r4
    686a:	4620      	mov	r0, r4
    686c:	f7fe fd5b 	bl	5326 <mbedtls_mpi_add_int>
    6870:	bba0      	cbnz	r0, 68dc <mbedtls_mpi_gen_prime+0xee>
/mnt/disk/raspbian-tee/optee_os/lib/libmbedtls/mbedtls/library/bignum.c:2319
    6872:	4621      	mov	r1, r4
    6874:	4630      	mov	r0, r6
    6876:	f7fe f9a9 	bl	4bcc <mbedtls_mpi_copy>
    687a:	bb78      	cbnz	r0, 68dc <mbedtls_mpi_gen_prime+0xee>
/mnt/disk/raspbian-tee/optee_os/lib/libmbedtls/mbedtls/library/bignum.c:2320
    687c:	2101      	movs	r1, #1
    687e:	4630      	mov	r0, r6
    6880:	f7fe fb93 	bl	4faa <mbedtls_mpi_shift_r>
    6884:	bb50      	cbnz	r0, 68dc <mbedtls_mpi_gen_prime+0xee>
/mnt/disk/raspbian-tee/optee_os/lib/libmbedtls/mbedtls/library/bignum.c:2328
    6886:	4620      	mov	r0, r4
    6888:	f7ff f99a 	bl	5bc0 <mpi_check_small_factors>
    688c:	b978      	cbnz	r0, 68ae <mbedtls_mpi_gen_prime+0xc0>
/mnt/disk/raspbian-tee/optee_os/lib/libmbedtls/mbedtls/library/bignum.c:2328 (discriminator 1)
    688e:	4630      	mov	r0, r6
    6890:	f7ff f996 	bl	5bc0 <mpi_check_small_factors>
    6894:	b958      	cbnz	r0, 68ae <mbedtls_mpi_gen_prime+0xc0>
/mnt/disk/raspbian-tee/optee_os/lib/libmbedtls/mbedtls/library/bignum.c:2329
    6896:	9a0c      	ldr	r2, [sp, #48]	; 0x30
    6898:	4641      	mov	r1, r8
    689a:	4620      	mov	r0, r4
    689c:	f7ff fd06 	bl	62ac <mpi_miller_rabin>
    68a0:	b928      	cbnz	r0, 68ae <mbedtls_mpi_gen_prime+0xc0>
/mnt/disk/raspbian-tee/optee_os/lib/libmbedtls/mbedtls/library/bignum.c:2330
    68a2:	9a0c      	ldr	r2, [sp, #48]	; 0x30
    68a4:	4641      	mov	r1, r8
    68a6:	4630      	mov	r0, r6
    68a8:	f7ff fd00 	bl	62ac <mpi_miller_rabin>
    68ac:	b308      	cbz	r0, 68f2 <mbedtls_mpi_gen_prime+0x104>
/mnt/disk/raspbian-tee/optee_os/lib/libmbedtls/mbedtls/library/bignum.c:2336
    68ae:	f110 0f0e 	cmn.w	r0, #14
    68b2:	d113      	bne.n	68dc <mbedtls_mpi_gen_prime+0xee>
/mnt/disk/raspbian-tee/optee_os/lib/libmbedtls/mbedtls/library/bignum.c:2344
    68b4:	220c      	movs	r2, #12
    68b6:	4621      	mov	r1, r4
    68b8:	4620      	mov	r0, r4
    68ba:	f7fe fd34 	bl	5326 <mbedtls_mpi_add_int>
    68be:	b968      	cbnz	r0, 68dc <mbedtls_mpi_gen_prime+0xee>
/mnt/disk/raspbian-tee/optee_os/lib/libmbedtls/mbedtls/library/bignum.c:2345
    68c0:	2206      	movs	r2, #6
    68c2:	4631      	mov	r1, r6
    68c4:	4630      	mov	r0, r6
    68c6:	f7fe fd2e 	bl	5326 <mbedtls_mpi_add_int>
    68ca:	e7db      	b.n	6884 <mbedtls_mpi_gen_prime+0x96>
/mnt/disk/raspbian-tee/optee_os/lib/libmbedtls/mbedtls/library/bignum.c:2286 (discriminator 1)
    68cc:	f1c7 0101 	rsb	r1, r7, #1
    68d0:	4401      	add	r1, r0
    68d2:	4620      	mov	r0, r4
    68d4:	f7fe fb69 	bl	4faa <mbedtls_mpi_shift_r>
    68d8:	2800      	cmp	r0, #0
    68da:	d0ad      	beq.n	6838 <mbedtls_mpi_gen_prime+0x4a>
/mnt/disk/raspbian-tee/optee_os/lib/libmbedtls/mbedtls/library/bignum.c:2344
    68dc:	4605      	mov	r5, r0
    68de:	e008      	b.n	68f2 <mbedtls_mpi_gen_prime+0x104>
/mnt/disk/raspbian-tee/optee_os/lib/libmbedtls/mbedtls/library/bignum.c:2290
    68e0:	f043 0301 	orr.w	r3, r3, #1
    68e4:	6013      	str	r3, [r2, #0]
/mnt/disk/raspbian-tee/optee_os/lib/libmbedtls/mbedtls/library/bignum.c:2294
    68e6:	9a0c      	ldr	r2, [sp, #48]	; 0x30
    68e8:	4641      	mov	r1, r8
    68ea:	4620      	mov	r0, r4
    68ec:	f7ff ff51 	bl	6792 <mbedtls_mpi_is_prime>
    68f0:	b930      	cbnz	r0, 6900 <mbedtls_mpi_gen_prime+0x112>
/mnt/disk/raspbian-tee/optee_os/lib/libmbedtls/mbedtls/library/bignum.c:2351
    68f2:	4630      	mov	r0, r6
    68f4:	f7fe f889 	bl	4a0a <mbedtls_mpi_free>
/mnt/disk/raspbian-tee/optee_os/lib/libmbedtls/mbedtls/library/bignum.c:2354
    68f8:	4628      	mov	r0, r5
    68fa:	b005      	add	sp, #20
    68fc:	e8bd 83f0 	ldmia.w	sp!, {r4, r5, r6, r7, r8, r9, pc}
/mnt/disk/raspbian-tee/optee_os/lib/libmbedtls/mbedtls/library/bignum.c:2296
    6900:	f110 0f0e 	cmn.w	r0, #14
    6904:	d1ea      	bne.n	68dc <mbedtls_mpi_gen_prime+0xee>
/mnt/disk/raspbian-tee/optee_os/lib/libmbedtls/mbedtls/library/bignum.c:2299
    6906:	2202      	movs	r2, #2
    6908:	4621      	mov	r1, r4
    690a:	4620      	mov	r0, r4
    690c:	f7fe fd0b 	bl	5326 <mbedtls_mpi_add_int>
    6910:	2800      	cmp	r0, #0
    6912:	d0e8      	beq.n	68e6 <mbedtls_mpi_gen_prime+0xf8>
    6914:	e7e2      	b.n	68dc <mbedtls_mpi_gen_prime+0xee>
/mnt/disk/raspbian-tee/optee_os/lib/libmbedtls/mbedtls/library/bignum.c:2315
    6916:	2b01      	cmp	r3, #1
    6918:	d1ab      	bne.n	6872 <mbedtls_mpi_gen_prime+0x84>
/mnt/disk/raspbian-tee/optee_os/lib/libmbedtls/mbedtls/library/bignum.c:2316
    691a:	2204      	movs	r2, #4
    691c:	e7a4      	b.n	6868 <mbedtls_mpi_gen_prime+0x7a>
/mnt/disk/raspbian-tee/optee_os/lib/libmbedtls/mbedtls/library/bignum.c:2277
    691e:	f06f 0503 	mvn.w	r5, #3
    6922:	e7e9      	b.n	68f8 <mbedtls_mpi_gen_prime+0x10a>

00006924 <mbedtls_mpi_self_test>:
mbedtls_mpi_self_test():
/mnt/disk/raspbian-tee/optee_os/lib/libmbedtls/mbedtls/library/bignum.c:2373
    6924:	e92d 4ff0 	stmdb	sp!, {r4, r5, r6, r7, r8, r9, sl, fp, lr}
    6928:	4604      	mov	r4, r0
    692a:	b09b      	sub	sp, #108	; 0x6c
/mnt/disk/raspbian-tee/optee_os/lib/libmbedtls/mbedtls/library/bignum.c:2377
    692c:	af05      	add	r7, sp, #20
    692e:	f10d 0b20 	add.w	fp, sp, #32
    6932:	4638      	mov	r0, r7
/mnt/disk/raspbian-tee/optee_os/lib/libmbedtls/mbedtls/library/bignum.c:2378
    6934:	f10d 082c 	add.w	r8, sp, #44	; 0x2c
/mnt/disk/raspbian-tee/optee_os/lib/libmbedtls/mbedtls/library/bignum.c:2377
    6938:	f7fe f84b 	bl	49d2 <mbedtls_mpi_init_mempool>
    693c:	4658      	mov	r0, fp
    693e:	f7fe f848 	bl	49d2 <mbedtls_mpi_init_mempool>
/mnt/disk/raspbian-tee/optee_os/lib/libmbedtls/mbedtls/library/bignum.c:2378
    6942:	ad0e      	add	r5, sp, #56	; 0x38
    6944:	4640      	mov	r0, r8
/mnt/disk/raspbian-tee/optee_os/lib/libmbedtls/mbedtls/library/bignum.c:2379
    6946:	f10d 0944 	add.w	r9, sp, #68	; 0x44
/mnt/disk/raspbian-tee/optee_os/lib/libmbedtls/mbedtls/library/bignum.c:2378
    694a:	f7fe f842 	bl	49d2 <mbedtls_mpi_init_mempool>
    694e:	4628      	mov	r0, r5
    6950:	f7fe f83f 	bl	49d2 <mbedtls_mpi_init_mempool>
/mnt/disk/raspbian-tee/optee_os/lib/libmbedtls/mbedtls/library/bignum.c:2379
    6954:	ae14      	add	r6, sp, #80	; 0x50
    6956:	4648      	mov	r0, r9
    6958:	f7fe f83b 	bl	49d2 <mbedtls_mpi_init_mempool>
    695c:	4630      	mov	r0, r6
    695e:	f7fe f838 	bl	49d2 <mbedtls_mpi_init_mempool>
/mnt/disk/raspbian-tee/optee_os/lib/libmbedtls/mbedtls/library/bignum.c:2380
    6962:	a817      	add	r0, sp, #92	; 0x5c
    6964:	f7fe f835 	bl	49d2 <mbedtls_mpi_init_mempool>
/mnt/disk/raspbian-tee/optee_os/lib/libmbedtls/mbedtls/library/bignum.c:2382
    6968:	4aa3      	ldr	r2, [pc, #652]	; (6bf8 <mbedtls_mpi_self_test+0x2d4>)
    696a:	2110      	movs	r1, #16
    696c:	4638      	mov	r0, r7
    696e:	447a      	add	r2, pc
    6970:	f7fe fd86 	bl	5480 <mbedtls_mpi_read_string>
    6974:	4603      	mov	r3, r0
    6976:	2800      	cmp	r0, #0
    6978:	f040 811d 	bne.w	6bb6 <mbedtls_mpi_self_test+0x292>
/mnt/disk/raspbian-tee/optee_os/lib/libmbedtls/mbedtls/library/bignum.c:2388
    697c:	4a9f      	ldr	r2, [pc, #636]	; (6bfc <mbedtls_mpi_self_test+0x2d8>)
    697e:	2110      	movs	r1, #16
    6980:	4658      	mov	r0, fp
    6982:	447a      	add	r2, pc
    6984:	f7fe fd7c 	bl	5480 <mbedtls_mpi_read_string>
    6988:	4603      	mov	r3, r0
    698a:	2800      	cmp	r0, #0
    698c:	f040 8113 	bne.w	6bb6 <mbedtls_mpi_self_test+0x292>
/mnt/disk/raspbian-tee/optee_os/lib/libmbedtls/mbedtls/library/bignum.c:2394
    6990:	4a9b      	ldr	r2, [pc, #620]	; (6c00 <mbedtls_mpi_self_test+0x2dc>)
    6992:	2110      	movs	r1, #16
    6994:	4640      	mov	r0, r8
    6996:	447a      	add	r2, pc
    6998:	f7fe fd72 	bl	5480 <mbedtls_mpi_read_string>
    699c:	4603      	mov	r3, r0
    699e:	2800      	cmp	r0, #0
    69a0:	f040 8109 	bne.w	6bb6 <mbedtls_mpi_self_test+0x292>
/mnt/disk/raspbian-tee/optee_os/lib/libmbedtls/mbedtls/library/bignum.c:2399
    69a4:	4642      	mov	r2, r8
    69a6:	4639      	mov	r1, r7
    69a8:	4628      	mov	r0, r5
    69aa:	f7fe fcec 	bl	5386 <mbedtls_mpi_mul_mpi>
    69ae:	4603      	mov	r3, r0
    69b0:	2800      	cmp	r0, #0
    69b2:	f040 8100 	bne.w	6bb6 <mbedtls_mpi_self_test+0x292>
/mnt/disk/raspbian-tee/optee_os/lib/libmbedtls/mbedtls/library/bignum.c:2401
    69b6:	4a93      	ldr	r2, [pc, #588]	; (6c04 <mbedtls_mpi_self_test+0x2e0>)
    69b8:	2110      	movs	r1, #16
    69ba:	4630      	mov	r0, r6
    69bc:	447a      	add	r2, pc
    69be:	f7fe fd5f 	bl	5480 <mbedtls_mpi_read_string>
    69c2:	4603      	mov	r3, r0
    69c4:	2800      	cmp	r0, #0
    69c6:	f040 80f6 	bne.w	6bb6 <mbedtls_mpi_self_test+0x292>
/mnt/disk/raspbian-tee/optee_os/lib/libmbedtls/mbedtls/library/bignum.c:2410
    69ca:	b11c      	cbz	r4, 69d4 <mbedtls_mpi_self_test+0xb0>
/mnt/disk/raspbian-tee/optee_os/lib/libmbedtls/mbedtls/library/bignum.c:2411
    69cc:	488e      	ldr	r0, [pc, #568]	; (6c08 <mbedtls_mpi_self_test+0x2e4>)
    69ce:	4478      	add	r0, pc
    69d0:	f7fa f95f 	bl	c92 <printf>
/mnt/disk/raspbian-tee/optee_os/lib/libmbedtls/mbedtls/library/bignum.c:2413
    69d4:	4631      	mov	r1, r6
    69d6:	4628      	mov	r0, r5
    69d8:	f7fe fb5a 	bl	5090 <mbedtls_mpi_cmp_mpi>
    69dc:	ab17      	add	r3, sp, #92	; 0x5c
    69de:	9303      	str	r3, [sp, #12]
    69e0:	b140      	cbz	r0, 69f4 <mbedtls_mpi_self_test+0xd0>
/mnt/disk/raspbian-tee/optee_os/lib/libmbedtls/mbedtls/library/bignum.c:2415
    69e2:	2c00      	cmp	r4, #0
    69e4:	f000 80f0 	beq.w	6bc8 <mbedtls_mpi_self_test+0x2a4>
/mnt/disk/raspbian-tee/optee_os/lib/libmbedtls/mbedtls/library/bignum.c:2416
    69e8:	4888      	ldr	r0, [pc, #544]	; (6c0c <mbedtls_mpi_self_test+0x2e8>)
    69ea:	4478      	add	r0, pc
    69ec:	f7fa f96e 	bl	ccc <puts>
/mnt/disk/raspbian-tee/optee_os/lib/libmbedtls/mbedtls/library/bignum.c:2373
    69f0:	2301      	movs	r3, #1
    69f2:	e0e2      	b.n	6bba <mbedtls_mpi_self_test+0x296>
/mnt/disk/raspbian-tee/optee_os/lib/libmbedtls/mbedtls/library/bignum.c:2422
    69f4:	b11c      	cbz	r4, 69fe <mbedtls_mpi_self_test+0xda>
/mnt/disk/raspbian-tee/optee_os/lib/libmbedtls/mbedtls/library/bignum.c:2423
    69f6:	4886      	ldr	r0, [pc, #536]	; (6c10 <mbedtls_mpi_self_test+0x2ec>)
    69f8:	4478      	add	r0, pc
    69fa:	f7fa f967 	bl	ccc <puts>
/mnt/disk/raspbian-tee/optee_os/lib/libmbedtls/mbedtls/library/bignum.c:2425
    69fe:	4643      	mov	r3, r8
    6a00:	463a      	mov	r2, r7
    6a02:	4649      	mov	r1, r9
    6a04:	4628      	mov	r0, r5
    6a06:	f7fe fdd1 	bl	55ac <mbedtls_mpi_div_mpi>
    6a0a:	4603      	mov	r3, r0
    6a0c:	2800      	cmp	r0, #0
    6a0e:	f040 80d2 	bne.w	6bb6 <mbedtls_mpi_self_test+0x292>
/mnt/disk/raspbian-tee/optee_os/lib/libmbedtls/mbedtls/library/bignum.c:2427
    6a12:	4a80      	ldr	r2, [pc, #512]	; (6c14 <mbedtls_mpi_self_test+0x2f0>)
    6a14:	2110      	movs	r1, #16
    6a16:	4630      	mov	r0, r6
    6a18:	447a      	add	r2, pc
    6a1a:	f7fe fd31 	bl	5480 <mbedtls_mpi_read_string>
    6a1e:	4603      	mov	r3, r0
    6a20:	2800      	cmp	r0, #0
    6a22:	f040 80c8 	bne.w	6bb6 <mbedtls_mpi_self_test+0x292>
/mnt/disk/raspbian-tee/optee_os/lib/libmbedtls/mbedtls/library/bignum.c:2430
    6a26:	4a7c      	ldr	r2, [pc, #496]	; (6c18 <mbedtls_mpi_self_test+0x2f4>)
    6a28:	2110      	movs	r1, #16
    6a2a:	9803      	ldr	r0, [sp, #12]
    6a2c:	447a      	add	r2, pc
    6a2e:	f7fe fd27 	bl	5480 <mbedtls_mpi_read_string>
    6a32:	4603      	mov	r3, r0
    6a34:	2800      	cmp	r0, #0
    6a36:	f040 80be 	bne.w	6bb6 <mbedtls_mpi_self_test+0x292>
/mnt/disk/raspbian-tee/optee_os/lib/libmbedtls/mbedtls/library/bignum.c:2435
    6a3a:	b11c      	cbz	r4, 6a44 <mbedtls_mpi_self_test+0x120>
/mnt/disk/raspbian-tee/optee_os/lib/libmbedtls/mbedtls/library/bignum.c:2436
    6a3c:	4877      	ldr	r0, [pc, #476]	; (6c1c <mbedtls_mpi_self_test+0x2f8>)
    6a3e:	4478      	add	r0, pc
    6a40:	f7fa f927 	bl	c92 <printf>
/mnt/disk/raspbian-tee/optee_os/lib/libmbedtls/mbedtls/library/bignum.c:2438
    6a44:	4631      	mov	r1, r6
    6a46:	4628      	mov	r0, r5
    6a48:	f7fe fb22 	bl	5090 <mbedtls_mpi_cmp_mpi>
    6a4c:	2800      	cmp	r0, #0
    6a4e:	d1c8      	bne.n	69e2 <mbedtls_mpi_self_test+0xbe>
/mnt/disk/raspbian-tee/optee_os/lib/libmbedtls/mbedtls/library/bignum.c:2439 (discriminator 1)
    6a50:	9903      	ldr	r1, [sp, #12]
    6a52:	4648      	mov	r0, r9
    6a54:	f7fe fb1c 	bl	5090 <mbedtls_mpi_cmp_mpi>
/mnt/disk/raspbian-tee/optee_os/lib/libmbedtls/mbedtls/library/bignum.c:2438 (discriminator 1)
    6a58:	2800      	cmp	r0, #0
    6a5a:	d1c2      	bne.n	69e2 <mbedtls_mpi_self_test+0xbe>
/mnt/disk/raspbian-tee/optee_os/lib/libmbedtls/mbedtls/library/bignum.c:2448
    6a5c:	b11c      	cbz	r4, 6a66 <mbedtls_mpi_self_test+0x142>
/mnt/disk/raspbian-tee/optee_os/lib/libmbedtls/mbedtls/library/bignum.c:2449
    6a5e:	4870      	ldr	r0, [pc, #448]	; (6c20 <mbedtls_mpi_self_test+0x2fc>)
    6a60:	4478      	add	r0, pc
    6a62:	f7fa f933 	bl	ccc <puts>
/mnt/disk/raspbian-tee/optee_os/lib/libmbedtls/mbedtls/library/bignum.c:2451
    6a66:	2300      	movs	r3, #0
    6a68:	465a      	mov	r2, fp
    6a6a:	9300      	str	r3, [sp, #0]
    6a6c:	4639      	mov	r1, r7
    6a6e:	4643      	mov	r3, r8
    6a70:	4628      	mov	r0, r5
    6a72:	f7ff f955 	bl	5d20 <mbedtls_mpi_exp_mod>
    6a76:	4603      	mov	r3, r0
    6a78:	2800      	cmp	r0, #0
    6a7a:	f040 809c 	bne.w	6bb6 <mbedtls_mpi_self_test+0x292>
/mnt/disk/raspbian-tee/optee_os/lib/libmbedtls/mbedtls/library/bignum.c:2453
    6a7e:	4a69      	ldr	r2, [pc, #420]	; (6c24 <mbedtls_mpi_self_test+0x300>)
    6a80:	2110      	movs	r1, #16
    6a82:	4630      	mov	r0, r6
    6a84:	447a      	add	r2, pc
    6a86:	f7fe fcfb 	bl	5480 <mbedtls_mpi_read_string>
    6a8a:	4603      	mov	r3, r0
    6a8c:	2800      	cmp	r0, #0
    6a8e:	f040 8092 	bne.w	6bb6 <mbedtls_mpi_self_test+0x292>
/mnt/disk/raspbian-tee/optee_os/lib/libmbedtls/mbedtls/library/bignum.c:2458
    6a92:	b11c      	cbz	r4, 6a9c <mbedtls_mpi_self_test+0x178>
/mnt/disk/raspbian-tee/optee_os/lib/libmbedtls/mbedtls/library/bignum.c:2459
    6a94:	4864      	ldr	r0, [pc, #400]	; (6c28 <mbedtls_mpi_self_test+0x304>)
    6a96:	4478      	add	r0, pc
    6a98:	f7fa f8fb 	bl	c92 <printf>
/mnt/disk/raspbian-tee/optee_os/lib/libmbedtls/mbedtls/library/bignum.c:2461
    6a9c:	4631      	mov	r1, r6
    6a9e:	4628      	mov	r0, r5
    6aa0:	f7fe faf6 	bl	5090 <mbedtls_mpi_cmp_mpi>
    6aa4:	2800      	cmp	r0, #0
    6aa6:	d19c      	bne.n	69e2 <mbedtls_mpi_self_test+0xbe>
/mnt/disk/raspbian-tee/optee_os/lib/libmbedtls/mbedtls/library/bignum.c:2470
    6aa8:	b11c      	cbz	r4, 6ab2 <mbedtls_mpi_self_test+0x18e>
/mnt/disk/raspbian-tee/optee_os/lib/libmbedtls/mbedtls/library/bignum.c:2471
    6aaa:	4860      	ldr	r0, [pc, #384]	; (6c2c <mbedtls_mpi_self_test+0x308>)
    6aac:	4478      	add	r0, pc
    6aae:	f7fa f90d 	bl	ccc <puts>
/mnt/disk/raspbian-tee/optee_os/lib/libmbedtls/mbedtls/library/bignum.c:2473
    6ab2:	4642      	mov	r2, r8
    6ab4:	4639      	mov	r1, r7
    6ab6:	4628      	mov	r0, r5
    6ab8:	f7ff fd03 	bl	64c2 <mbedtls_mpi_inv_mod>
    6abc:	4603      	mov	r3, r0
    6abe:	2800      	cmp	r0, #0
    6ac0:	d179      	bne.n	6bb6 <mbedtls_mpi_self_test+0x292>
/mnt/disk/raspbian-tee/optee_os/lib/libmbedtls/mbedtls/library/bignum.c:2475
    6ac2:	4a5b      	ldr	r2, [pc, #364]	; (6c30 <mbedtls_mpi_self_test+0x30c>)
    6ac4:	2110      	movs	r1, #16
    6ac6:	4630      	mov	r0, r6
    6ac8:	447a      	add	r2, pc
    6aca:	f7fe fcd9 	bl	5480 <mbedtls_mpi_read_string>
    6ace:	4603      	mov	r3, r0
    6ad0:	2800      	cmp	r0, #0
    6ad2:	d170      	bne.n	6bb6 <mbedtls_mpi_self_test+0x292>
/mnt/disk/raspbian-tee/optee_os/lib/libmbedtls/mbedtls/library/bignum.c:2480
    6ad4:	b11c      	cbz	r4, 6ade <mbedtls_mpi_self_test+0x1ba>
/mnt/disk/raspbian-tee/optee_os/lib/libmbedtls/mbedtls/library/bignum.c:2481
    6ad6:	4857      	ldr	r0, [pc, #348]	; (6c34 <mbedtls_mpi_self_test+0x310>)
    6ad8:	4478      	add	r0, pc
    6ada:	f7fa f8da 	bl	c92 <printf>
/mnt/disk/raspbian-tee/optee_os/lib/libmbedtls/mbedtls/library/bignum.c:2483
    6ade:	4631      	mov	r1, r6
    6ae0:	4628      	mov	r0, r5
    6ae2:	f7fe fad5 	bl	5090 <mbedtls_mpi_cmp_mpi>
    6ae6:	9002      	str	r0, [sp, #8]
    6ae8:	2800      	cmp	r0, #0
    6aea:	f47f af7a 	bne.w	69e2 <mbedtls_mpi_self_test+0xbe>
/mnt/disk/raspbian-tee/optee_os/lib/libmbedtls/mbedtls/library/bignum.c:2492
    6aee:	b13c      	cbz	r4, 6b00 <mbedtls_mpi_self_test+0x1dc>
/mnt/disk/raspbian-tee/optee_os/lib/libmbedtls/mbedtls/library/bignum.c:2493
    6af0:	4851      	ldr	r0, [pc, #324]	; (6c38 <mbedtls_mpi_self_test+0x314>)
    6af2:	4478      	add	r0, pc
    6af4:	f7fa f8ea 	bl	ccc <puts>
/mnt/disk/raspbian-tee/optee_os/lib/libmbedtls/mbedtls/library/bignum.c:2496
    6af8:	4850      	ldr	r0, [pc, #320]	; (6c3c <mbedtls_mpi_self_test+0x318>)
    6afa:	4478      	add	r0, pc
    6afc:	f7fa f8c9 	bl	c92 <printf>
    6b00:	f8df a13c 	ldr.w	sl, [pc, #316]	; 6c40 <mbedtls_mpi_self_test+0x31c>
    6b04:	44fa      	add	sl, pc
    6b06:	f50a 7a28 	add.w	sl, sl, #672	; 0x2a0
/mnt/disk/raspbian-tee/optee_os/lib/libmbedtls/mbedtls/library/bignum.c:2500
    6b0a:	f8da 1000 	ldr.w	r1, [sl]
    6b0e:	4628      	mov	r0, r5
    6b10:	f7fe f917 	bl	4d42 <mbedtls_mpi_lset>
    6b14:	4603      	mov	r3, r0
    6b16:	2800      	cmp	r0, #0
    6b18:	d14d      	bne.n	6bb6 <mbedtls_mpi_self_test+0x292>
/mnt/disk/raspbian-tee/optee_os/lib/libmbedtls/mbedtls/library/bignum.c:2501
    6b1a:	f8da 1004 	ldr.w	r1, [sl, #4]
    6b1e:	4648      	mov	r0, r9
    6b20:	f7fe f90f 	bl	4d42 <mbedtls_mpi_lset>
    6b24:	4603      	mov	r3, r0
    6b26:	2800      	cmp	r0, #0
    6b28:	d145      	bne.n	6bb6 <mbedtls_mpi_self_test+0x292>
/mnt/disk/raspbian-tee/optee_os/lib/libmbedtls/mbedtls/library/bignum.c:2503
    6b2a:	464a      	mov	r2, r9
    6b2c:	4629      	mov	r1, r5
    6b2e:	4638      	mov	r0, r7
    6b30:	f7ff fb19 	bl	6166 <mbedtls_mpi_gcd>
    6b34:	4603      	mov	r3, r0
    6b36:	2800      	cmp	r0, #0
    6b38:	d13d      	bne.n	6bb6 <mbedtls_mpi_self_test+0x292>
/mnt/disk/raspbian-tee/optee_os/lib/libmbedtls/mbedtls/library/bignum.c:2505
    6b3a:	f8da 1008 	ldr.w	r1, [sl, #8]
    6b3e:	4638      	mov	r0, r7
    6b40:	f7fe faf1 	bl	5126 <mbedtls_mpi_cmp_int>
    6b44:	b138      	cbz	r0, 6b56 <mbedtls_mpi_self_test+0x232>
/mnt/disk/raspbian-tee/optee_os/lib/libmbedtls/mbedtls/library/bignum.c:2507
    6b46:	2c00      	cmp	r4, #0
    6b48:	d03e      	beq.n	6bc8 <mbedtls_mpi_self_test+0x2a4>
/mnt/disk/raspbian-tee/optee_os/lib/libmbedtls/mbedtls/library/bignum.c:2508
    6b4a:	483e      	ldr	r0, [pc, #248]	; (6c44 <mbedtls_mpi_self_test+0x320>)
    6b4c:	9902      	ldr	r1, [sp, #8]
    6b4e:	4478      	add	r0, pc
    6b50:	f7fa f89f 	bl	c92 <printf>
    6b54:	e74c      	b.n	69f0 <mbedtls_mpi_self_test+0xcc>
/mnt/disk/raspbian-tee/optee_os/lib/libmbedtls/mbedtls/library/bignum.c:2498 (discriminator 2)
    6b56:	9a02      	ldr	r2, [sp, #8]
    6b58:	f10a 0a0c 	add.w	sl, sl, #12
    6b5c:	3201      	adds	r2, #1
    6b5e:	9202      	str	r2, [sp, #8]
    6b60:	2a03      	cmp	r2, #3
    6b62:	d1d2      	bne.n	6b0a <mbedtls_mpi_self_test+0x1e6>
/mnt/disk/raspbian-tee/optee_os/lib/libmbedtls/mbedtls/library/bignum.c:2515
    6b64:	b32c      	cbz	r4, 6bb2 <mbedtls_mpi_self_test+0x28e>
    6b66:	9002      	str	r0, [sp, #8]
/mnt/disk/raspbian-tee/optee_os/lib/libmbedtls/mbedtls/library/bignum.c:2516
    6b68:	4837      	ldr	r0, [pc, #220]	; (6c48 <mbedtls_mpi_self_test+0x324>)
    6b6a:	4478      	add	r0, pc
    6b6c:	f7fa f8ae 	bl	ccc <puts>
    6b70:	9b02      	ldr	r3, [sp, #8]
/mnt/disk/raspbian-tee/optee_os/lib/libmbedtls/mbedtls/library/bignum.c:2523
    6b72:	4638      	mov	r0, r7
    6b74:	9302      	str	r3, [sp, #8]
    6b76:	f7fd ff48 	bl	4a0a <mbedtls_mpi_free>
    6b7a:	4658      	mov	r0, fp
    6b7c:	f7fd ff45 	bl	4a0a <mbedtls_mpi_free>
    6b80:	4640      	mov	r0, r8
    6b82:	f7fd ff42 	bl	4a0a <mbedtls_mpi_free>
    6b86:	4628      	mov	r0, r5
    6b88:	f7fd ff3f 	bl	4a0a <mbedtls_mpi_free>
/mnt/disk/raspbian-tee/optee_os/lib/libmbedtls/mbedtls/library/bignum.c:2524
    6b8c:	4648      	mov	r0, r9
    6b8e:	f7fd ff3c 	bl	4a0a <mbedtls_mpi_free>
    6b92:	4630      	mov	r0, r6
    6b94:	f7fd ff39 	bl	4a0a <mbedtls_mpi_free>
    6b98:	a817      	add	r0, sp, #92	; 0x5c
    6b9a:	f7fd ff36 	bl	4a0a <mbedtls_mpi_free>
/mnt/disk/raspbian-tee/optee_os/lib/libmbedtls/mbedtls/library/bignum.c:2526
    6b9e:	9b02      	ldr	r3, [sp, #8]
    6ba0:	b11c      	cbz	r4, 6baa <mbedtls_mpi_self_test+0x286>
/mnt/disk/raspbian-tee/optee_os/lib/libmbedtls/mbedtls/library/bignum.c:2527
    6ba2:	200a      	movs	r0, #10
    6ba4:	f7fa f8a4 	bl	cf0 <putchar>
/mnt/disk/raspbian-tee/optee_os/lib/libmbedtls/mbedtls/library/bignum.c:2529
    6ba8:	9b02      	ldr	r3, [sp, #8]
/mnt/disk/raspbian-tee/optee_os/lib/libmbedtls/mbedtls/library/bignum.c:2530
    6baa:	4618      	mov	r0, r3
    6bac:	b01b      	add	sp, #108	; 0x6c
    6bae:	e8bd 8ff0 	ldmia.w	sp!, {r4, r5, r6, r7, r8, r9, sl, fp, pc}
    6bb2:	4623      	mov	r3, r4
    6bb4:	e7dd      	b.n	6b72 <mbedtls_mpi_self_test+0x24e>
/mnt/disk/raspbian-tee/optee_os/lib/libmbedtls/mbedtls/library/bignum.c:2520
    6bb6:	2c00      	cmp	r4, #0
    6bb8:	d0db      	beq.n	6b72 <mbedtls_mpi_self_test+0x24e>
/mnt/disk/raspbian-tee/optee_os/lib/libmbedtls/mbedtls/library/bignum.c:2521
    6bba:	4824      	ldr	r0, [pc, #144]	; (6c4c <mbedtls_mpi_self_test+0x328>)
    6bbc:	4619      	mov	r1, r3
    6bbe:	9302      	str	r3, [sp, #8]
    6bc0:	4478      	add	r0, pc
    6bc2:	f7fa f866 	bl	c92 <printf>
    6bc6:	e7d3      	b.n	6b70 <mbedtls_mpi_self_test+0x24c>
/mnt/disk/raspbian-tee/optee_os/lib/libmbedtls/mbedtls/library/bignum.c:2523
    6bc8:	4638      	mov	r0, r7
    6bca:	f7fd ff1e 	bl	4a0a <mbedtls_mpi_free>
    6bce:	4658      	mov	r0, fp
    6bd0:	f7fd ff1b 	bl	4a0a <mbedtls_mpi_free>
    6bd4:	4640      	mov	r0, r8
    6bd6:	f7fd ff18 	bl	4a0a <mbedtls_mpi_free>
    6bda:	4628      	mov	r0, r5
    6bdc:	f7fd ff15 	bl	4a0a <mbedtls_mpi_free>
/mnt/disk/raspbian-tee/optee_os/lib/libmbedtls/mbedtls/library/bignum.c:2524
    6be0:	4648      	mov	r0, r9
    6be2:	f7fd ff12 	bl	4a0a <mbedtls_mpi_free>
    6be6:	4630      	mov	r0, r6
    6be8:	f7fd ff0f 	bl	4a0a <mbedtls_mpi_free>
    6bec:	9803      	ldr	r0, [sp, #12]
    6bee:	f7fd ff0c 	bl	4a0a <mbedtls_mpi_free>
    6bf2:	2301      	movs	r3, #1
    6bf4:	e7d9      	b.n	6baa <mbedtls_mpi_self_test+0x286>
    6bf6:	bf00      	nop
    6bf8:	00001a18 	.word	0x00001a18
    6bfc:	00001a85 	.word	0x00001a85
    6c00:	00001af2 	.word	0x00001af2
    6c04:	00001b2d 	.word	0x00001b2d
    6c08:	00001bfa 	.word	0x00001bfa
    6c0c:	00001bf8 	.word	0x00001bf8
    6c10:	00001bf1 	.word	0x00001bf1
    6c14:	00001bd8 	.word	0x00001bd8
    6c18:	00001be8 	.word	0x00001be8
    6c1c:	00001c35 	.word	0x00001c35
    6c20:	00001b89 	.word	0x00001b89
    6c24:	00001c09 	.word	0x00001c09
    6c28:	00001c56 	.word	0x00001c56
    6c2c:	00001b3d 	.word	0x00001b3d
    6c30:	00001c3e 	.word	0x00001c3e
    6c34:	00001c8f 	.word	0x00001c8f
    6c38:	00001af7 	.word	0x00001af7
    6c3c:	00001c87 	.word	0x00001c87
    6c40:	00001128 	.word	0x00001128
    6c44:	00001c50 	.word	0x00001c50
    6c48:	00001a7f 	.word	0x00001a7f
    6c4c:	00001bec 	.word	0x00001bec

00006c50 <raw_malloc_return_hook.isra.3>:
raw_malloc_return_hook():
/mnt/disk/raspbian-tee/optee_os/lib/libutils/isoc/bget_malloc.c:167
    6c50:	4b09      	ldr	r3, [pc, #36]	; (6c78 <raw_malloc_return_hook.isra.3+0x28>)
/mnt/disk/raspbian-tee/optee_os/lib/libutils/isoc/bget_malloc.c:164
    6c52:	b510      	push	{r4, lr}
/mnt/disk/raspbian-tee/optee_os/lib/libutils/isoc/bget_malloc.c:167
    6c54:	447b      	add	r3, pc
    6c56:	6a5c      	ldr	r4, [r3, #36]	; 0x24
    6c58:	42a2      	cmp	r2, r4
    6c5a:	d900      	bls.n	6c5e <raw_malloc_return_hook.isra.3+0xe>
/mnt/disk/raspbian-tee/optee_os/lib/libutils/isoc/bget_malloc.c:168
    6c5c:	625a      	str	r2, [r3, #36]	; 0x24
/mnt/disk/raspbian-tee/optee_os/lib/libutils/isoc/bget_malloc.c:170
    6c5e:	b948      	cbnz	r0, 6c74 <raw_malloc_return_hook.isra.3+0x24>
/mnt/disk/raspbian-tee/optee_os/lib/libutils/isoc/bget_malloc.c:171
    6c60:	4b06      	ldr	r3, [pc, #24]	; (6c7c <raw_malloc_return_hook.isra.3+0x2c>)
    6c62:	447b      	add	r3, pc
    6c64:	6ad8      	ldr	r0, [r3, #44]	; 0x2c
    6c66:	3001      	adds	r0, #1
    6c68:	62d8      	str	r0, [r3, #44]	; 0x2c
/mnt/disk/raspbian-tee/optee_os/lib/libutils/isoc/bget_malloc.c:172
    6c6a:	6b18      	ldr	r0, [r3, #48]	; 0x30
    6c6c:	4288      	cmp	r0, r1
    6c6e:	d201      	bcs.n	6c74 <raw_malloc_return_hook.isra.3+0x24>
/mnt/disk/raspbian-tee/optee_os/lib/libutils/isoc/bget_malloc.c:173
    6c70:	6319      	str	r1, [r3, #48]	; 0x30
/mnt/disk/raspbian-tee/optee_os/lib/libutils/isoc/bget_malloc.c:174
    6c72:	635a      	str	r2, [r3, #52]	; 0x34
    6c74:	bd10      	pop	{r4, pc}
    6c76:	bf00      	nop
    6c78:	00005458 	.word	0x00005458
    6c7c:	0000544a 	.word	0x0000544a

00006c80 <create_free_block.constprop.11>:
create_free_block():
/mnt/disk/raspbian-tee/optee_os/lib/libutils/isoc/bget_malloc.c:380
    6c80:	b508      	push	{r3, lr}
/mnt/disk/raspbian-tee/optee_os/lib/libutils/isoc/bget_malloc.c:383
    6c82:	1843      	adds	r3, r0, r1
    6c84:	4293      	cmp	r3, r2
    6c86:	d00b      	beq.n	6ca0 <create_free_block.constprop.11+0x20>
    6c88:	4b23      	ldr	r3, [pc, #140]	; (6d18 <create_free_block.constprop.11+0x98>)
    6c8a:	f240 127f 	movw	r2, #383	; 0x17f
    6c8e:	4923      	ldr	r1, [pc, #140]	; (6d1c <create_free_block.constprop.11+0x9c>)
    6c90:	4823      	ldr	r0, [pc, #140]	; (6d20 <create_free_block.constprop.11+0xa0>)
    6c92:	447b      	add	r3, pc
    6c94:	4479      	add	r1, pc
    6c96:	4478      	add	r0, pc
/mnt/disk/raspbian-tee/optee_os/lib/libutils/isoc/bget_malloc.c:384
    6c98:	f000 fe4a 	bl	7930 <_assert_log>
    6c9c:	f000 fe5c 	bl	7958 <_assert_break>
    6ca0:	685b      	ldr	r3, [r3, #4]
    6ca2:	2b00      	cmp	r3, #0
    6ca4:	db08      	blt.n	6cb8 <create_free_block.constprop.11+0x38>
    6ca6:	4b1f      	ldr	r3, [pc, #124]	; (6d24 <create_free_block.constprop.11+0xa4>)
    6ca8:	f44f 72c0 	mov.w	r2, #384	; 0x180
    6cac:	491e      	ldr	r1, [pc, #120]	; (6d28 <create_free_block.constprop.11+0xa8>)
    6cae:	481f      	ldr	r0, [pc, #124]	; (6d2c <create_free_block.constprop.11+0xac>)
    6cb0:	447b      	add	r3, pc
    6cb2:	4479      	add	r1, pc
    6cb4:	4478      	add	r0, pc
    6cb6:	e7ef      	b.n	6c98 <create_free_block.constprop.11+0x18>
/mnt/disk/raspbian-tee/optee_os/lib/libutils/isoc/bget_malloc.c:386
    6cb8:	5843      	ldr	r3, [r0, r1]
    6cba:	b143      	cbz	r3, 6cce <create_free_block.constprop.11+0x4e>
    6cbc:	4b1c      	ldr	r3, [pc, #112]	; (6d30 <create_free_block.constprop.11+0xb0>)
    6cbe:	f44f 72c1 	mov.w	r2, #386	; 0x182
    6cc2:	491c      	ldr	r1, [pc, #112]	; (6d34 <create_free_block.constprop.11+0xb4>)
    6cc4:	481c      	ldr	r0, [pc, #112]	; (6d38 <create_free_block.constprop.11+0xb8>)
    6cc6:	447b      	add	r3, pc
    6cc8:	4479      	add	r1, pc
    6cca:	4478      	add	r0, pc
    6ccc:	e7e4      	b.n	6c98 <create_free_block.constprop.11+0x18>
/mnt/disk/raspbian-tee/optee_os/lib/libutils/isoc/bget_malloc.c:390
    6cce:	6003      	str	r3, [r0, #0]
/mnt/disk/raspbian-tee/optee_os/lib/libutils/isoc/bget_malloc.c:396
    6cd0:	4b1a      	ldr	r3, [pc, #104]	; (6d3c <create_free_block.constprop.11+0xbc>)
/mnt/disk/raspbian-tee/optee_os/lib/libutils/isoc/bget_malloc.c:389
    6cd2:	6041      	str	r1, [r0, #4]
/mnt/disk/raspbian-tee/optee_os/lib/libutils/isoc/bget_malloc.c:396
    6cd4:	447b      	add	r3, pc
/mnt/disk/raspbian-tee/optee_os/lib/libutils/isoc/bget_malloc.c:393
    6cd6:	5041      	str	r1, [r0, r1]
/mnt/disk/raspbian-tee/optee_os/lib/libutils/isoc/bget_malloc.c:396
    6cd8:	68d9      	ldr	r1, [r3, #12]
    6cda:	688a      	ldr	r2, [r1, #8]
    6cdc:	429a      	cmp	r2, r3
    6cde:	d008      	beq.n	6cf2 <create_free_block.constprop.11+0x72>
    6ce0:	4b17      	ldr	r3, [pc, #92]	; (6d40 <create_free_block.constprop.11+0xc0>)
    6ce2:	f44f 72c6 	mov.w	r2, #396	; 0x18c
    6ce6:	4917      	ldr	r1, [pc, #92]	; (6d44 <create_free_block.constprop.11+0xc4>)
    6ce8:	4817      	ldr	r0, [pc, #92]	; (6d48 <create_free_block.constprop.11+0xc8>)
    6cea:	447b      	add	r3, pc
    6cec:	4479      	add	r1, pc
    6cee:	4478      	add	r0, pc
    6cf0:	e7d2      	b.n	6c98 <create_free_block.constprop.11+0x18>
/mnt/disk/raspbian-tee/optee_os/lib/libutils/isoc/bget_malloc.c:397
    6cf2:	6893      	ldr	r3, [r2, #8]
    6cf4:	68db      	ldr	r3, [r3, #12]
    6cf6:	4293      	cmp	r3, r2
    6cf8:	d008      	beq.n	6d0c <create_free_block.constprop.11+0x8c>
    6cfa:	4b14      	ldr	r3, [pc, #80]	; (6d4c <create_free_block.constprop.11+0xcc>)
    6cfc:	f240 128d 	movw	r2, #397	; 0x18d
    6d00:	4913      	ldr	r1, [pc, #76]	; (6d50 <create_free_block.constprop.11+0xd0>)
    6d02:	4814      	ldr	r0, [pc, #80]	; (6d54 <create_free_block.constprop.11+0xd4>)
    6d04:	447b      	add	r3, pc
    6d06:	4479      	add	r1, pc
    6d08:	4478      	add	r0, pc
    6d0a:	e7c5      	b.n	6c98 <create_free_block.constprop.11+0x18>
/mnt/disk/raspbian-tee/optee_os/lib/libutils/isoc/bget_malloc.c:398
    6d0c:	6083      	str	r3, [r0, #8]
/mnt/disk/raspbian-tee/optee_os/lib/libutils/isoc/bget_malloc.c:399
    6d0e:	60c1      	str	r1, [r0, #12]
/mnt/disk/raspbian-tee/optee_os/lib/libutils/isoc/bget_malloc.c:400
    6d10:	60d8      	str	r0, [r3, #12]
/mnt/disk/raspbian-tee/optee_os/lib/libutils/isoc/bget_malloc.c:401
    6d12:	68c3      	ldr	r3, [r0, #12]
    6d14:	6098      	str	r0, [r3, #8]
    6d16:	bd08      	pop	{r3, pc}
    6d18:	00001b40 	.word	0x00001b40
    6d1c:	00001bc8 	.word	0x00001bc8
    6d20:	00001be6 	.word	0x00001be6
    6d24:	00001b22 	.word	0x00001b22
    6d28:	00001baa 	.word	0x00001baa
    6d2c:	00001be4 	.word	0x00001be4
    6d30:	00001b0c 	.word	0x00001b0c
    6d34:	00001b94 	.word	0x00001b94
    6d38:	00001bdc 	.word	0x00001bdc
    6d3c:	0000338c 	.word	0x0000338c
    6d40:	00001ae8 	.word	0x00001ae8
    6d44:	00001b70 	.word	0x00001b70
    6d48:	00001bca 	.word	0x00001bca
    6d4c:	00001ace 	.word	0x00001ace
    6d50:	00001b56 	.word	0x00001b56
    6d54:	00001beb 	.word	0x00001beb

00006d58 <bget>:
bget():
/mnt/disk/raspbian-tee/optee_os/lib/libutils/isoc/bget.c:582
    6d58:	b570      	push	{r4, r5, r6, lr}
/mnt/disk/raspbian-tee/optee_os/lib/libutils/isoc/bget.c:593
    6d5a:	1e03      	subs	r3, r0, #0
    6d5c:	dc0c      	bgt.n	6d78 <bget+0x20>
/mnt/disk/raspbian-tee/optee_os/lib/libutils/isoc/bget.c:593 (discriminator 1)
    6d5e:	4b3c      	ldr	r3, [pc, #240]	; (6e50 <bget+0xf8>)
    6d60:	f240 2251 	movw	r2, #593	; 0x251
    6d64:	493b      	ldr	r1, [pc, #236]	; (6e54 <bget+0xfc>)
    6d66:	483c      	ldr	r0, [pc, #240]	; (6e58 <bget+0x100>)
    6d68:	447b      	add	r3, pc
    6d6a:	3312      	adds	r3, #18
    6d6c:	4479      	add	r1, pc
    6d6e:	4478      	add	r0, pc
/mnt/disk/raspbian-tee/optee_os/lib/libutils/isoc/bget.c:653 (discriminator 1)
    6d70:	f000 fdde 	bl	7930 <_assert_log>
    6d74:	f000 fdf0 	bl	7958 <_assert_break>
/mnt/disk/raspbian-tee/optee_os/lib/libutils/isoc/bget.c:600
    6d78:	2b08      	cmp	r3, #8
/mnt/disk/raspbian-tee/optee_os/lib/libutils/isoc/bget.c:614
    6d7a:	6888      	ldr	r0, [r1, #8]
/mnt/disk/raspbian-tee/optee_os/lib/libutils/isoc/bget.c:600
    6d7c:	bfb8      	it	lt
    6d7e:	2308      	movlt	r3, #8
    6d80:	3307      	adds	r3, #7
    6d82:	f023 0307 	bic.w	r3, r3, #7
/mnt/disk/raspbian-tee/optee_os/lib/libutils/isoc/bget.c:604
    6d86:	3308      	adds	r3, #8
/mnt/disk/raspbian-tee/optee_os/lib/libutils/isoc/bget.c:636
    6d88:	4288      	cmp	r0, r1
    6d8a:	d101      	bne.n	6d90 <bget+0x38>
/mnt/disk/raspbian-tee/optee_os/lib/libutils/isoc/bget.c:764
    6d8c:	2000      	movs	r0, #0
/mnt/disk/raspbian-tee/optee_os/lib/libutils/isoc/bget.c:765
    6d8e:	bd70      	pop	{r4, r5, r6, pc}
/mnt/disk/raspbian-tee/optee_os/lib/libutils/isoc/bget.c:637
    6d90:	6842      	ldr	r2, [r0, #4]
    6d92:	4293      	cmp	r3, r2
    6d94:	dc59      	bgt.n	6e4a <bget+0xf2>
/mnt/disk/raspbian-tee/optee_os/lib/libutils/isoc/bget.c:648
    6d96:	1ad4      	subs	r4, r2, r3
    6d98:	2c10      	cmp	r4, #16
    6d9a:	dd1c      	ble.n	6dd6 <bget+0x7e>
/mnt/disk/raspbian-tee/optee_os/lib/libutils/isoc/bget.c:651
    6d9c:	1905      	adds	r5, r0, r4
/mnt/disk/raspbian-tee/optee_os/lib/libutils/isoc/bget.c:653
    6d9e:	58ee      	ldr	r6, [r5, r3]
    6da0:	42b2      	cmp	r2, r6
    6da2:	d009      	beq.n	6db8 <bget+0x60>
/mnt/disk/raspbian-tee/optee_os/lib/libutils/isoc/bget.c:653 (discriminator 1)
    6da4:	4b2d      	ldr	r3, [pc, #180]	; (6e5c <bget+0x104>)
    6da6:	f240 228d 	movw	r2, #653	; 0x28d
    6daa:	492d      	ldr	r1, [pc, #180]	; (6e60 <bget+0x108>)
    6dac:	482d      	ldr	r0, [pc, #180]	; (6e64 <bget+0x10c>)
    6dae:	447b      	add	r3, pc
    6db0:	3312      	adds	r3, #18
    6db2:	4479      	add	r1, pc
    6db4:	4478      	add	r0, pc
    6db6:	e7db      	b.n	6d70 <bget+0x18>
/mnt/disk/raspbian-tee/optee_os/lib/libutils/isoc/bget.c:655
    6db8:	6044      	str	r4, [r0, #4]
/mnt/disk/raspbian-tee/optee_os/lib/libutils/isoc/bget.c:659
    6dba:	425a      	negs	r2, r3
/mnt/disk/raspbian-tee/optee_os/lib/libutils/isoc/bget.c:657
    6dbc:	5104      	str	r4, [r0, r4]
/mnt/disk/raspbian-tee/optee_os/lib/libutils/isoc/bget.c:667
    6dbe:	f105 0008 	add.w	r0, r5, #8
/mnt/disk/raspbian-tee/optee_os/lib/libutils/isoc/bget.c:659
    6dc2:	606a      	str	r2, [r5, #4]
/mnt/disk/raspbian-tee/optee_os/lib/libutils/isoc/bget.c:661
    6dc4:	2200      	movs	r2, #0
    6dc6:	50ea      	str	r2, [r5, r3]
/mnt/disk/raspbian-tee/optee_os/lib/libutils/isoc/bget.c:664
    6dc8:	690a      	ldr	r2, [r1, #16]
    6dca:	4413      	add	r3, r2
    6dcc:	610b      	str	r3, [r1, #16]
/mnt/disk/raspbian-tee/optee_os/lib/libutils/isoc/bget.c:665
    6dce:	694b      	ldr	r3, [r1, #20]
    6dd0:	3301      	adds	r3, #1
    6dd2:	614b      	str	r3, [r1, #20]
/mnt/disk/raspbian-tee/optee_os/lib/libutils/isoc/bget.c:669
    6dd4:	bd70      	pop	{r4, r5, r6, pc}
/mnt/disk/raspbian-tee/optee_os/lib/libutils/isoc/bget.c:674
    6dd6:	5883      	ldr	r3, [r0, r2]
/mnt/disk/raspbian-tee/optee_os/lib/libutils/isoc/bget.c:673
    6dd8:	1885      	adds	r5, r0, r2
/mnt/disk/raspbian-tee/optee_os/lib/libutils/isoc/bget.c:674
    6dda:	429a      	cmp	r2, r3
    6ddc:	d009      	beq.n	6df2 <bget+0x9a>
/mnt/disk/raspbian-tee/optee_os/lib/libutils/isoc/bget.c:674 (discriminator 1)
    6dde:	4b22      	ldr	r3, [pc, #136]	; (6e68 <bget+0x110>)
    6de0:	f240 22a2 	movw	r2, #674	; 0x2a2
    6de4:	4921      	ldr	r1, [pc, #132]	; (6e6c <bget+0x114>)
    6de6:	4822      	ldr	r0, [pc, #136]	; (6e70 <bget+0x118>)
    6de8:	447b      	add	r3, pc
    6dea:	3312      	adds	r3, #18
    6dec:	4479      	add	r1, pc
    6dee:	4478      	add	r0, pc
    6df0:	e7be      	b.n	6d70 <bget+0x18>
/mnt/disk/raspbian-tee/optee_os/lib/libutils/isoc/bget.c:679
    6df2:	68c3      	ldr	r3, [r0, #12]
    6df4:	689c      	ldr	r4, [r3, #8]
    6df6:	42a0      	cmp	r0, r4
    6df8:	d009      	beq.n	6e0e <bget+0xb6>
/mnt/disk/raspbian-tee/optee_os/lib/libutils/isoc/bget.c:679 (discriminator 1)
    6dfa:	4b1e      	ldr	r3, [pc, #120]	; (6e74 <bget+0x11c>)
    6dfc:	f240 22a7 	movw	r2, #679	; 0x2a7
    6e00:	491d      	ldr	r1, [pc, #116]	; (6e78 <bget+0x120>)
    6e02:	481e      	ldr	r0, [pc, #120]	; (6e7c <bget+0x124>)
    6e04:	447b      	add	r3, pc
    6e06:	3312      	adds	r3, #18
    6e08:	4479      	add	r1, pc
    6e0a:	4478      	add	r0, pc
    6e0c:	e7b0      	b.n	6d70 <bget+0x18>
/mnt/disk/raspbian-tee/optee_os/lib/libutils/isoc/bget.c:680
    6e0e:	6884      	ldr	r4, [r0, #8]
    6e10:	68e6      	ldr	r6, [r4, #12]
    6e12:	42b0      	cmp	r0, r6
    6e14:	d009      	beq.n	6e2a <bget+0xd2>
/mnt/disk/raspbian-tee/optee_os/lib/libutils/isoc/bget.c:680 (discriminator 1)
    6e16:	4b1a      	ldr	r3, [pc, #104]	; (6e80 <bget+0x128>)
    6e18:	f44f 722a 	mov.w	r2, #680	; 0x2a8
    6e1c:	4919      	ldr	r1, [pc, #100]	; (6e84 <bget+0x12c>)
    6e1e:	481a      	ldr	r0, [pc, #104]	; (6e88 <bget+0x130>)
    6e20:	447b      	add	r3, pc
    6e22:	3312      	adds	r3, #18
    6e24:	4479      	add	r1, pc
    6e26:	4478      	add	r0, pc
    6e28:	e7a2      	b.n	6d70 <bget+0x18>
/mnt/disk/raspbian-tee/optee_os/lib/libutils/isoc/bget.c:681
    6e2a:	609c      	str	r4, [r3, #8]
/mnt/disk/raspbian-tee/optee_os/lib/libutils/isoc/bget.c:696
    6e2c:	3008      	adds	r0, #8
/mnt/disk/raspbian-tee/optee_os/lib/libutils/isoc/bget.c:682
    6e2e:	6804      	ldr	r4, [r0, #0]
    6e30:	60e3      	str	r3, [r4, #12]
/mnt/disk/raspbian-tee/optee_os/lib/libutils/isoc/bget.c:685
    6e32:	690b      	ldr	r3, [r1, #16]
    6e34:	4413      	add	r3, r2
    6e36:	610b      	str	r3, [r1, #16]
/mnt/disk/raspbian-tee/optee_os/lib/libutils/isoc/bget.c:686
    6e38:	694b      	ldr	r3, [r1, #20]
/mnt/disk/raspbian-tee/optee_os/lib/libutils/isoc/bget.c:689
    6e3a:	4252      	negs	r2, r2
/mnt/disk/raspbian-tee/optee_os/lib/libutils/isoc/bget.c:686
    6e3c:	3301      	adds	r3, #1
    6e3e:	614b      	str	r3, [r1, #20]
/mnt/disk/raspbian-tee/optee_os/lib/libutils/isoc/bget.c:689
    6e40:	f840 2c04 	str.w	r2, [r0, #-4]
/mnt/disk/raspbian-tee/optee_os/lib/libutils/isoc/bget.c:693
    6e44:	2300      	movs	r3, #0
    6e46:	602b      	str	r3, [r5, #0]
/mnt/disk/raspbian-tee/optee_os/lib/libutils/isoc/bget.c:698
    6e48:	bd70      	pop	{r4, r5, r6, pc}
/mnt/disk/raspbian-tee/optee_os/lib/libutils/isoc/bget.c:701
    6e4a:	6880      	ldr	r0, [r0, #8]
    6e4c:	e79c      	b.n	6d88 <bget+0x30>
    6e4e:	bf00      	nop
    6e50:	00001a6a 	.word	0x00001a6a
    6e54:	00001bc2 	.word	0x00001bc2
    6e58:	00001db7 	.word	0x00001db7
    6e5c:	00001a24 	.word	0x00001a24
    6e60:	00001b7c 	.word	0x00001b7c
    6e64:	00001b93 	.word	0x00001b93
    6e68:	000019ea 	.word	0x000019ea
    6e6c:	00001b42 	.word	0x00001b42
    6e70:	00001b75 	.word	0x00001b75
    6e74:	000019ce 	.word	0x000019ce
    6e78:	00001b26 	.word	0x00001b26
    6e7c:	00001b75 	.word	0x00001b75
    6e80:	000019b2 	.word	0x000019b2
    6e84:	00001b0a 	.word	0x00001b0a
    6e88:	00001b74 	.word	0x00001b74

00006e8c <raw_malloc.constprop.15>:
raw_malloc():
/mnt/disk/raspbian-tee/optee_os/lib/libutils/isoc/bget_malloc.c:288
    6e8c:	b538      	push	{r3, r4, r5, lr}
/mnt/disk/raspbian-tee/optee_os/lib/libutils/isoc/bget_malloc.c:304
    6e8e:	1e05      	subs	r5, r0, #0
    6e90:	db12      	blt.n	6eb8 <raw_malloc.constprop.15+0x2c>
/mnt/disk/raspbian-tee/optee_os/lib/libutils/isoc/bget_malloc.c:313
    6e92:	490a      	ldr	r1, [pc, #40]	; (6ebc <raw_malloc.constprop.15+0x30>)
    6e94:	4628      	mov	r0, r5
    6e96:	bf18      	it	ne
    6e98:	4628      	movne	r0, r5
    6e9a:	bf08      	it	eq
    6e9c:	2001      	moveq	r0, #1
    6e9e:	4479      	add	r1, pc
    6ea0:	f7ff ff5a 	bl	6d58 <bget>
    6ea4:	4604      	mov	r4, r0
/mnt/disk/raspbian-tee/optee_os/lib/libutils/isoc/bget_malloc.c:315
    6ea6:	4b06      	ldr	r3, [pc, #24]	; (6ec0 <raw_malloc.constprop.15+0x34>)
    6ea8:	4620      	mov	r0, r4
    6eaa:	4629      	mov	r1, r5
    6eac:	447b      	add	r3, pc
    6eae:	691a      	ldr	r2, [r3, #16]
    6eb0:	f7ff fece 	bl	6c50 <raw_malloc_return_hook.isra.3>
/mnt/disk/raspbian-tee/optee_os/lib/libutils/isoc/bget_malloc.c:318
    6eb4:	4620      	mov	r0, r4
    6eb6:	bd38      	pop	{r3, r4, r5, pc}
/mnt/disk/raspbian-tee/optee_os/lib/libutils/isoc/bget_malloc.c:291
    6eb8:	2400      	movs	r4, #0
    6eba:	e7f4      	b.n	6ea6 <raw_malloc.constprop.15+0x1a>
    6ebc:	000031c2 	.word	0x000031c2
    6ec0:	000031b4 	.word	0x000031b4

00006ec4 <bgetz>:
bgetz():
/mnt/disk/raspbian-tee/optee_os/lib/libutils/isoc/bget.c:774
    6ec4:	b538      	push	{r3, r4, r5, lr}
    6ec6:	4605      	mov	r5, r0
/mnt/disk/raspbian-tee/optee_os/lib/libutils/isoc/bget.c:775
    6ec8:	f7ff ff46 	bl	6d58 <bget>
/mnt/disk/raspbian-tee/optee_os/lib/libutils/isoc/bget.c:777
    6ecc:	4604      	mov	r4, r0
    6ece:	b1f0      	cbz	r0, 6f0e <bgetz+0x4a>
/mnt/disk/raspbian-tee/optee_os/lib/libutils/isoc/bget.c:782
    6ed0:	f850 2c04 	ldr.w	r2, [r0, #-4]
/mnt/disk/raspbian-tee/optee_os/lib/libutils/isoc/bget.c:783
    6ed4:	b98a      	cbnz	r2, 6efa <bgetz+0x36>
/mnt/disk/raspbian-tee/optee_os/lib/libutils/isoc/bget.c:787
    6ed6:	f850 2c0c 	ldr.w	r2, [r0, #-12]
    6eda:	3a0c      	subs	r2, #12
/mnt/disk/raspbian-tee/optee_os/lib/libutils/isoc/bget.c:791
    6edc:	42aa      	cmp	r2, r5
    6ede:	da12      	bge.n	6f06 <bgetz+0x42>
    6ee0:	4b0c      	ldr	r3, [pc, #48]	; (6f14 <bgetz+0x50>)
    6ee2:	f240 3217 	movw	r2, #791	; 0x317
    6ee6:	490c      	ldr	r1, [pc, #48]	; (6f18 <bgetz+0x54>)
    6ee8:	480c      	ldr	r0, [pc, #48]	; (6f1c <bgetz+0x58>)
    6eea:	447b      	add	r3, pc
    6eec:	3317      	adds	r3, #23
    6eee:	4479      	add	r1, pc
    6ef0:	4478      	add	r0, pc
    6ef2:	f000 fd1d 	bl	7930 <_assert_log>
    6ef6:	f000 fd2f 	bl	7958 <_assert_break>
/mnt/disk/raspbian-tee/optee_os/lib/libutils/isoc/bget.c:789
    6efa:	f1c2 22ff 	rsb	r2, r2, #4278255360	; 0xff00ff00
    6efe:	f502 027f 	add.w	r2, r2, #16711680	; 0xff0000
    6f02:	32f8      	adds	r2, #248	; 0xf8
    6f04:	e7ea      	b.n	6edc <bgetz+0x18>
memset_unchecked():
/mnt/disk/raspbian-tee/optee_os/lib/libutils/isoc/bget_malloc.c:141
    6f06:	2100      	movs	r1, #0
    6f08:	4620      	mov	r0, r4
    6f0a:	f000 fe44 	bl	7b96 <memset>
bgetz():
/mnt/disk/raspbian-tee/optee_os/lib/libutils/isoc/bget.c:795
    6f0e:	4620      	mov	r0, r4
    6f10:	bd38      	pop	{r3, r4, r5, pc}
    6f12:	bf00      	nop
    6f14:	000018e8 	.word	0x000018e8
    6f18:	00001a40 	.word	0x00001a40
    6f1c:	00001ac5 	.word	0x00001ac5

00006f20 <brel>:
brel():
/mnt/disk/raspbian-tee/optee_os/lib/libutils/isoc/bget.c:852
    6f20:	698a      	ldr	r2, [r1, #24]
/mnt/disk/raspbian-tee/optee_os/lib/libutils/isoc/bget.c:850
    6f22:	f1a0 0308 	sub.w	r3, r0, #8
/mnt/disk/raspbian-tee/optee_os/lib/libutils/isoc/bget.c:846
    6f26:	b570      	push	{r4, r5, r6, lr}
/mnt/disk/raspbian-tee/optee_os/lib/libutils/isoc/bget.c:852
    6f28:	3201      	adds	r2, #1
    6f2a:	618a      	str	r2, [r1, #24]
/mnt/disk/raspbian-tee/optee_os/lib/libutils/isoc/bget.c:854
    6f2c:	b960      	cbnz	r0, 6f48 <brel+0x28>
/mnt/disk/raspbian-tee/optee_os/lib/libutils/isoc/bget.c:854 (discriminator 1)
    6f2e:	4b59      	ldr	r3, [pc, #356]	; (7094 <brel+0x174>)
    6f30:	f240 3256 	movw	r2, #854	; 0x356
    6f34:	4958      	ldr	r1, [pc, #352]	; (7098 <brel+0x178>)
    6f36:	4859      	ldr	r0, [pc, #356]	; (709c <brel+0x17c>)
    6f38:	447b      	add	r3, pc
    6f3a:	331d      	adds	r3, #29
    6f3c:	4479      	add	r1, pc
    6f3e:	4478      	add	r0, pc
/mnt/disk/raspbian-tee/optee_os/lib/libutils/isoc/bget.c:885 (discriminator 1)
    6f40:	f000 fcf6 	bl	7930 <_assert_log>
    6f44:	f000 fd08 	bl	7958 <_assert_break>
/mnt/disk/raspbian-tee/optee_os/lib/libutils/isoc/bget.c:882
    6f48:	f850 2c04 	ldr.w	r2, [r0, #-4]
/mnt/disk/raspbian-tee/optee_os/lib/libutils/isoc/bget.c:885
    6f4c:	2a00      	cmp	r2, #0
    6f4e:	db09      	blt.n	6f64 <brel+0x44>
/mnt/disk/raspbian-tee/optee_os/lib/libutils/isoc/bget.c:885 (discriminator 1)
    6f50:	4b53      	ldr	r3, [pc, #332]	; (70a0 <brel+0x180>)
    6f52:	f240 3275 	movw	r2, #885	; 0x375
    6f56:	4953      	ldr	r1, [pc, #332]	; (70a4 <brel+0x184>)
    6f58:	4853      	ldr	r0, [pc, #332]	; (70a8 <brel+0x188>)
    6f5a:	447b      	add	r3, pc
    6f5c:	331d      	adds	r3, #29
    6f5e:	4479      	add	r1, pc
    6f60:	4478      	add	r0, pc
    6f62:	e7ed      	b.n	6f40 <brel+0x20>
/mnt/disk/raspbian-tee/optee_os/lib/libutils/isoc/bget.c:891
    6f64:	1a9c      	subs	r4, r3, r2
    6f66:	6824      	ldr	r4, [r4, #0]
    6f68:	b14c      	cbz	r4, 6f7e <brel+0x5e>
/mnt/disk/raspbian-tee/optee_os/lib/libutils/isoc/bget.c:891 (discriminator 1)
    6f6a:	4b50      	ldr	r3, [pc, #320]	; (70ac <brel+0x18c>)
    6f6c:	f240 327b 	movw	r2, #891	; 0x37b
    6f70:	494f      	ldr	r1, [pc, #316]	; (70b0 <brel+0x190>)
    6f72:	4850      	ldr	r0, [pc, #320]	; (70b4 <brel+0x194>)
    6f74:	447b      	add	r3, pc
    6f76:	331d      	adds	r3, #29
    6f78:	4479      	add	r1, pc
    6f7a:	4478      	add	r0, pc
    6f7c:	e7e0      	b.n	6f40 <brel+0x20>
/mnt/disk/raspbian-tee/optee_os/lib/libutils/isoc/bget.c:894
    6f7e:	690c      	ldr	r4, [r1, #16]
    6f80:	4414      	add	r4, r2
    6f82:	610c      	str	r4, [r1, #16]
/mnt/disk/raspbian-tee/optee_os/lib/libutils/isoc/bget.c:895
    6f84:	2c00      	cmp	r4, #0
    6f86:	da09      	bge.n	6f9c <brel+0x7c>
/mnt/disk/raspbian-tee/optee_os/lib/libutils/isoc/bget.c:895 (discriminator 1)
    6f88:	4b4b      	ldr	r3, [pc, #300]	; (70b8 <brel+0x198>)
    6f8a:	f240 327f 	movw	r2, #895	; 0x37f
    6f8e:	494b      	ldr	r1, [pc, #300]	; (70bc <brel+0x19c>)
    6f90:	484b      	ldr	r0, [pc, #300]	; (70c0 <brel+0x1a0>)
    6f92:	447b      	add	r3, pc
    6f94:	331d      	adds	r3, #29
    6f96:	4479      	add	r1, pc
    6f98:	4478      	add	r0, pc
    6f9a:	e7d1      	b.n	6f40 <brel+0x20>
/mnt/disk/raspbian-tee/optee_os/lib/libutils/isoc/bget.c:900
    6f9c:	f850 4c08 	ldr.w	r4, [r0, #-8]
    6fa0:	b30c      	cbz	r4, 6fe6 <brel+0xc6>
/mnt/disk/raspbian-tee/optee_os/lib/libutils/isoc/bget.c:911
    6fa2:	1b1b      	subs	r3, r3, r4
    6fa4:	6859      	ldr	r1, [r3, #4]
    6fa6:	428c      	cmp	r4, r1
    6fa8:	d009      	beq.n	6fbe <brel+0x9e>
/mnt/disk/raspbian-tee/optee_os/lib/libutils/isoc/bget.c:911 (discriminator 1)
    6faa:	4b46      	ldr	r3, [pc, #280]	; (70c4 <brel+0x1a4>)
    6fac:	f240 328f 	movw	r2, #911	; 0x38f
    6fb0:	4945      	ldr	r1, [pc, #276]	; (70c8 <brel+0x1a8>)
    6fb2:	4846      	ldr	r0, [pc, #280]	; (70cc <brel+0x1ac>)
    6fb4:	447b      	add	r3, pc
    6fb6:	331d      	adds	r3, #29
    6fb8:	4479      	add	r1, pc
    6fba:	4478      	add	r0, pc
    6fbc:	e7c0      	b.n	6f40 <brel+0x20>
/mnt/disk/raspbian-tee/optee_os/lib/libutils/isoc/bget.c:913
    6fbe:	1aa2      	subs	r2, r4, r2
    6fc0:	605a      	str	r2, [r3, #4]
/mnt/disk/raspbian-tee/optee_os/lib/libutils/isoc/bget.c:933
    6fc2:	6859      	ldr	r1, [r3, #4]
    6fc4:	185a      	adds	r2, r3, r1
/mnt/disk/raspbian-tee/optee_os/lib/libutils/isoc/bget.c:934
    6fc6:	6850      	ldr	r0, [r2, #4]
    6fc8:	2800      	cmp	r0, #0
    6fca:	dd53      	ble.n	7074 <brel+0x154>
/mnt/disk/raspbian-tee/optee_os/lib/libutils/isoc/bget.c:939
    6fcc:	5814      	ldr	r4, [r2, r0]
    6fce:	42a0      	cmp	r0, r4
    6fd0:	d02e      	beq.n	7030 <brel+0x110>
/mnt/disk/raspbian-tee/optee_os/lib/libutils/isoc/bget.c:939 (discriminator 1)
    6fd2:	4b3f      	ldr	r3, [pc, #252]	; (70d0 <brel+0x1b0>)
    6fd4:	f240 32ab 	movw	r2, #939	; 0x3ab
    6fd8:	493e      	ldr	r1, [pc, #248]	; (70d4 <brel+0x1b4>)
    6fda:	483f      	ldr	r0, [pc, #252]	; (70d8 <brel+0x1b8>)
    6fdc:	447b      	add	r3, pc
    6fde:	331d      	adds	r3, #29
    6fe0:	4479      	add	r1, pc
    6fe2:	4478      	add	r0, pc
    6fe4:	e7ac      	b.n	6f40 <brel+0x20>
/mnt/disk/raspbian-tee/optee_os/lib/libutils/isoc/bget.c:919
    6fe6:	68cd      	ldr	r5, [r1, #12]
    6fe8:	68ac      	ldr	r4, [r5, #8]
    6fea:	428c      	cmp	r4, r1
    6fec:	d009      	beq.n	7002 <brel+0xe2>
/mnt/disk/raspbian-tee/optee_os/lib/libutils/isoc/bget.c:919 (discriminator 1)
    6fee:	4b3b      	ldr	r3, [pc, #236]	; (70dc <brel+0x1bc>)
    6ff0:	f240 3297 	movw	r2, #919	; 0x397
    6ff4:	493a      	ldr	r1, [pc, #232]	; (70e0 <brel+0x1c0>)
    6ff6:	483b      	ldr	r0, [pc, #236]	; (70e4 <brel+0x1c4>)
    6ff8:	447b      	add	r3, pc
    6ffa:	331d      	adds	r3, #29
    6ffc:	4479      	add	r1, pc
    6ffe:	4478      	add	r0, pc
    7000:	e79e      	b.n	6f40 <brel+0x20>
/mnt/disk/raspbian-tee/optee_os/lib/libutils/isoc/bget.c:920
    7002:	68a1      	ldr	r1, [r4, #8]
    7004:	68c9      	ldr	r1, [r1, #12]
    7006:	428c      	cmp	r4, r1
    7008:	d009      	beq.n	701e <brel+0xfe>
/mnt/disk/raspbian-tee/optee_os/lib/libutils/isoc/bget.c:920 (discriminator 1)
    700a:	4b37      	ldr	r3, [pc, #220]	; (70e8 <brel+0x1c8>)
    700c:	f44f 7266 	mov.w	r2, #920	; 0x398
    7010:	4936      	ldr	r1, [pc, #216]	; (70ec <brel+0x1cc>)
    7012:	4837      	ldr	r0, [pc, #220]	; (70f0 <brel+0x1d0>)
    7014:	447b      	add	r3, pc
    7016:	331d      	adds	r3, #29
    7018:	4479      	add	r1, pc
    701a:	4478      	add	r0, pc
    701c:	e790      	b.n	6f40 <brel+0x20>
/mnt/disk/raspbian-tee/optee_os/lib/libutils/isoc/bget.c:922
    701e:	e880 0030 	stmia.w	r0, {r4, r5}
/mnt/disk/raspbian-tee/optee_os/lib/libutils/isoc/bget.c:886
    7022:	4252      	negs	r2, r2
/mnt/disk/raspbian-tee/optee_os/lib/libutils/isoc/bget.c:923
    7024:	60e3      	str	r3, [r4, #12]
/mnt/disk/raspbian-tee/optee_os/lib/libutils/isoc/bget.c:924
    7026:	6841      	ldr	r1, [r0, #4]
    7028:	608b      	str	r3, [r1, #8]
/mnt/disk/raspbian-tee/optee_os/lib/libutils/isoc/bget.c:925
    702a:	f840 2c04 	str.w	r2, [r0, #-4]
    702e:	e7c8      	b.n	6fc2 <brel+0xa2>
/mnt/disk/raspbian-tee/optee_os/lib/libutils/isoc/bget.c:940
    7030:	68d4      	ldr	r4, [r2, #12]
    7032:	68a5      	ldr	r5, [r4, #8]
    7034:	42aa      	cmp	r2, r5
    7036:	d009      	beq.n	704c <brel+0x12c>
/mnt/disk/raspbian-tee/optee_os/lib/libutils/isoc/bget.c:940 (discriminator 1)
    7038:	4b2e      	ldr	r3, [pc, #184]	; (70f4 <brel+0x1d4>)
    703a:	f44f 726b 	mov.w	r2, #940	; 0x3ac
    703e:	492e      	ldr	r1, [pc, #184]	; (70f8 <brel+0x1d8>)
    7040:	482e      	ldr	r0, [pc, #184]	; (70fc <brel+0x1dc>)
    7042:	447b      	add	r3, pc
    7044:	331d      	adds	r3, #29
    7046:	4479      	add	r1, pc
    7048:	4478      	add	r0, pc
    704a:	e779      	b.n	6f40 <brel+0x20>
/mnt/disk/raspbian-tee/optee_os/lib/libutils/isoc/bget.c:941
    704c:	6895      	ldr	r5, [r2, #8]
    704e:	68ee      	ldr	r6, [r5, #12]
    7050:	42b2      	cmp	r2, r6
    7052:	d009      	beq.n	7068 <brel+0x148>
/mnt/disk/raspbian-tee/optee_os/lib/libutils/isoc/bget.c:941 (discriminator 1)
    7054:	4b2a      	ldr	r3, [pc, #168]	; (7100 <brel+0x1e0>)
    7056:	f240 32ad 	movw	r2, #941	; 0x3ad
    705a:	492a      	ldr	r1, [pc, #168]	; (7104 <brel+0x1e4>)
    705c:	482a      	ldr	r0, [pc, #168]	; (7108 <brel+0x1e8>)
    705e:	447b      	add	r3, pc
    7060:	331d      	adds	r3, #29
    7062:	4479      	add	r1, pc
    7064:	4478      	add	r0, pc
    7066:	e76b      	b.n	6f40 <brel+0x20>
/mnt/disk/raspbian-tee/optee_os/lib/libutils/isoc/bget.c:942
    7068:	60a5      	str	r5, [r4, #8]
/mnt/disk/raspbian-tee/optee_os/lib/libutils/isoc/bget.c:943
    706a:	6892      	ldr	r2, [r2, #8]
    706c:	60d4      	str	r4, [r2, #12]
/mnt/disk/raspbian-tee/optee_os/lib/libutils/isoc/bget.c:944
    706e:	180a      	adds	r2, r1, r0
    7070:	605a      	str	r2, [r3, #4]
/mnt/disk/raspbian-tee/optee_os/lib/libutils/isoc/bget.c:953
    7072:	441a      	add	r2, r3
/mnt/disk/raspbian-tee/optee_os/lib/libutils/isoc/bget.c:959
    7074:	6851      	ldr	r1, [r2, #4]
    7076:	2900      	cmp	r1, #0
    7078:	db09      	blt.n	708e <brel+0x16e>
/mnt/disk/raspbian-tee/optee_os/lib/libutils/isoc/bget.c:959 (discriminator 1)
    707a:	4b24      	ldr	r3, [pc, #144]	; (710c <brel+0x1ec>)
    707c:	f240 32bf 	movw	r2, #959	; 0x3bf
    7080:	4923      	ldr	r1, [pc, #140]	; (7110 <brel+0x1f0>)
    7082:	4824      	ldr	r0, [pc, #144]	; (7114 <brel+0x1f4>)
    7084:	447b      	add	r3, pc
    7086:	331d      	adds	r3, #29
    7088:	4479      	add	r1, pc
    708a:	4478      	add	r0, pc
    708c:	e758      	b.n	6f40 <brel+0x20>
/mnt/disk/raspbian-tee/optee_os/lib/libutils/isoc/bget.c:964
    708e:	685b      	ldr	r3, [r3, #4]
    7090:	6013      	str	r3, [r2, #0]
    7092:	bd70      	pop	{r4, r5, r6, pc}
    7094:	0000189a 	.word	0x0000189a
    7098:	000019f2 	.word	0x000019f2
    709c:	00001a85 	.word	0x00001a85
    70a0:	00001878 	.word	0x00001878
    70a4:	000019d0 	.word	0x000019d0
    70a8:	00001a6f 	.word	0x00001a6f
    70ac:	0000185e 	.word	0x0000185e
    70b0:	000019b6 	.word	0x000019b6
    70b4:	00001a65 	.word	0x00001a65
    70b8:	00001840 	.word	0x00001840
    70bc:	00001998 	.word	0x00001998
    70c0:	00001a73 	.word	0x00001a73
    70c4:	0000181e 	.word	0x0000181e
    70c8:	00001976 	.word	0x00001976
    70cc:	00001a68 	.word	0x00001a68
    70d0:	000017f6 	.word	0x000017f6
    70d4:	0000194e 	.word	0x0000194e
    70d8:	00001a79 	.word	0x00001a79
    70dc:	000017da 	.word	0x000017da
    70e0:	00001932 	.word	0x00001932
    70e4:	000018ba 	.word	0x000018ba
    70e8:	000017be 	.word	0x000017be
    70ec:	00001916 	.word	0x00001916
    70f0:	000018d9 	.word	0x000018d9
    70f4:	00001790 	.word	0x00001790
    70f8:	000018e8 	.word	0x000018e8
    70fc:	00001a4c 	.word	0x00001a4c
    7100:	00001774 	.word	0x00001774
    7104:	000018cc 	.word	0x000018cc
    7108:	00001a4d 	.word	0x00001a4d
    710c:	0000174e 	.word	0x0000174e
    7110:	000018a6 	.word	0x000018a6
    7114:	00001a44 	.word	0x00001a44

00007118 <bgetr>:
bgetr():
/mnt/disk/raspbian-tee/optee_os/lib/libutils/isoc/bget.c:806
    7118:	e92d 41f0 	stmdb	sp!, {r4, r5, r6, r7, r8, lr}
    711c:	460e      	mov	r6, r1
    711e:	4605      	mov	r5, r0
/mnt/disk/raspbian-tee/optee_os/lib/libutils/isoc/bget.c:811
    7120:	4611      	mov	r1, r2
    7122:	4630      	mov	r0, r6
/mnt/disk/raspbian-tee/optee_os/lib/libutils/isoc/bget.c:806
    7124:	4690      	mov	r8, r2
/mnt/disk/raspbian-tee/optee_os/lib/libutils/isoc/bget.c:811
    7126:	f7ff fe17 	bl	6d58 <bget>
    712a:	4607      	mov	r7, r0
    712c:	b340      	cbz	r0, 7180 <bgetr+0x68>
/mnt/disk/raspbian-tee/optee_os/lib/libutils/isoc/bget.c:814
    712e:	b33d      	cbz	r5, 7180 <bgetr+0x68>
    7130:	f855 4c04 	ldr.w	r4, [r5, #-4]
    7134:	f1c4 24ff 	rsb	r4, r4, #4278255360	; 0xff00ff00
    7138:	f504 047f 	add.w	r4, r4, #16711680	; 0xff0000
    713c:	34f8      	adds	r4, #248	; 0xf8
/mnt/disk/raspbian-tee/optee_os/lib/libutils/isoc/bget.c:829
    713e:	2c00      	cmp	r4, #0
    7140:	dc0c      	bgt.n	715c <bgetr+0x44>
    7142:	4b11      	ldr	r3, [pc, #68]	; (7188 <bgetr+0x70>)
    7144:	f240 323d 	movw	r2, #829	; 0x33d
    7148:	4910      	ldr	r1, [pc, #64]	; (718c <bgetr+0x74>)
    714a:	4811      	ldr	r0, [pc, #68]	; (7190 <bgetr+0x78>)
    714c:	447b      	add	r3, pc
    714e:	3322      	adds	r3, #34	; 0x22
    7150:	4479      	add	r1, pc
    7152:	4478      	add	r0, pc
    7154:	f000 fbec 	bl	7930 <_assert_log>
    7158:	f000 fbfe 	bl	7958 <_assert_break>
/mnt/disk/raspbian-tee/optee_os/lib/libutils/isoc/bget.c:830
    715c:	42a6      	cmp	r6, r4
    715e:	4632      	mov	r2, r6
    7160:	4629      	mov	r1, r5
    7162:	bfa8      	it	ge
    7164:	4622      	movge	r2, r4
    7166:	f000 fcf1 	bl	7b4c <memcpy>
/mnt/disk/raspbian-tee/optee_os/lib/libutils/isoc/bget.c:834
    716a:	42a6      	cmp	r6, r4
    716c:	dd04      	ble.n	7178 <bgetr+0x60>
/mnt/disk/raspbian-tee/optee_os/lib/libutils/isoc/bget.c:835
    716e:	1b32      	subs	r2, r6, r4
    7170:	2100      	movs	r1, #0
    7172:	1938      	adds	r0, r7, r4
    7174:	f000 fd0f 	bl	7b96 <memset>
/mnt/disk/raspbian-tee/optee_os/lib/libutils/isoc/bget.c:837
    7178:	4641      	mov	r1, r8
    717a:	4628      	mov	r0, r5
    717c:	f7ff fed0 	bl	6f20 <brel>
/mnt/disk/raspbian-tee/optee_os/lib/libutils/isoc/bget.c:839
    7180:	4638      	mov	r0, r7
    7182:	e8bd 81f0 	ldmia.w	sp!, {r4, r5, r6, r7, r8, pc}
    7186:	bf00      	nop
    7188:	00001686 	.word	0x00001686
    718c:	000017de 	.word	0x000017de
    7190:	0000198d 	.word	0x0000198d

00007194 <bpool>:
bpool():
/mnt/disk/raspbian-tee/optee_os/lib/libutils/isoc/bget.c:1023
    7194:	f021 0107 	bic.w	r1, r1, #7
/mnt/disk/raspbian-tee/optee_os/lib/libutils/isoc/bget.c:1018
    7198:	b510      	push	{r4, lr}
/mnt/disk/raspbian-tee/optee_os/lib/libutils/isoc/bget.c:1042
    719a:	3908      	subs	r1, #8
    719c:	d50c      	bpl.n	71b8 <bpool+0x24>
    719e:	4b1b      	ldr	r3, [pc, #108]	; (720c <bpool+0x78>)
    71a0:	f240 4212 	movw	r2, #1042	; 0x412
    71a4:	491a      	ldr	r1, [pc, #104]	; (7210 <bpool+0x7c>)
    71a6:	481b      	ldr	r0, [pc, #108]	; (7214 <bpool+0x80>)
    71a8:	447b      	add	r3, pc
    71aa:	3328      	adds	r3, #40	; 0x28
    71ac:	4479      	add	r1, pc
    71ae:	4478      	add	r0, pc
/mnt/disk/raspbian-tee/optee_os/lib/libutils/isoc/bget.c:1052 (discriminator 1)
    71b0:	f000 fbbe 	bl	7930 <_assert_log>
    71b4:	f000 fbd0 	bl	7958 <_assert_break>
/mnt/disk/raspbian-tee/optee_os/lib/libutils/isoc/bget.c:1052
    71b8:	68d4      	ldr	r4, [r2, #12]
/mnt/disk/raspbian-tee/optee_os/lib/libutils/isoc/bget.c:1048
    71ba:	2300      	movs	r3, #0
    71bc:	6003      	str	r3, [r0, #0]
/mnt/disk/raspbian-tee/optee_os/lib/libutils/isoc/bget.c:1052
    71be:	68a3      	ldr	r3, [r4, #8]
    71c0:	4293      	cmp	r3, r2
    71c2:	d009      	beq.n	71d8 <bpool+0x44>
/mnt/disk/raspbian-tee/optee_os/lib/libutils/isoc/bget.c:1052 (discriminator 1)
    71c4:	4b14      	ldr	r3, [pc, #80]	; (7218 <bpool+0x84>)
    71c6:	f240 421c 	movw	r2, #1052	; 0x41c
    71ca:	4914      	ldr	r1, [pc, #80]	; (721c <bpool+0x88>)
    71cc:	4814      	ldr	r0, [pc, #80]	; (7220 <bpool+0x8c>)
    71ce:	447b      	add	r3, pc
    71d0:	3328      	adds	r3, #40	; 0x28
    71d2:	4479      	add	r1, pc
    71d4:	4478      	add	r0, pc
    71d6:	e7eb      	b.n	71b0 <bpool+0x1c>
/mnt/disk/raspbian-tee/optee_os/lib/libutils/isoc/bget.c:1053
    71d8:	689a      	ldr	r2, [r3, #8]
    71da:	68d2      	ldr	r2, [r2, #12]
    71dc:	4293      	cmp	r3, r2
    71de:	d009      	beq.n	71f4 <bpool+0x60>
/mnt/disk/raspbian-tee/optee_os/lib/libutils/isoc/bget.c:1053 (discriminator 1)
    71e0:	4b10      	ldr	r3, [pc, #64]	; (7224 <bpool+0x90>)
    71e2:	f240 421d 	movw	r2, #1053	; 0x41d
    71e6:	4910      	ldr	r1, [pc, #64]	; (7228 <bpool+0x94>)
    71e8:	4810      	ldr	r0, [pc, #64]	; (722c <bpool+0x98>)
    71ea:	447b      	add	r3, pc
    71ec:	3328      	adds	r3, #40	; 0x28
    71ee:	4479      	add	r1, pc
    71f0:	4478      	add	r0, pc
    71f2:	e7dd      	b.n	71b0 <bpool+0x1c>
/mnt/disk/raspbian-tee/optee_os/lib/libutils/isoc/bget.c:1054
    71f4:	6083      	str	r3, [r0, #8]
/mnt/disk/raspbian-tee/optee_os/lib/libutils/isoc/bget.c:1077
    71f6:	f04f 4200 	mov.w	r2, #2147483648	; 0x80000000
/mnt/disk/raspbian-tee/optee_os/lib/libutils/isoc/bget.c:1055
    71fa:	60c4      	str	r4, [r0, #12]
/mnt/disk/raspbian-tee/optee_os/lib/libutils/isoc/bget.c:1056
    71fc:	60d8      	str	r0, [r3, #12]
/mnt/disk/raspbian-tee/optee_os/lib/libutils/isoc/bget.c:1057
    71fe:	68c3      	ldr	r3, [r0, #12]
    7200:	6098      	str	r0, [r3, #8]
/mnt/disk/raspbian-tee/optee_os/lib/libutils/isoc/bget.c:1073
    7202:	1843      	adds	r3, r0, r1
/mnt/disk/raspbian-tee/optee_os/lib/libutils/isoc/bget.c:1068
    7204:	6041      	str	r1, [r0, #4]
/mnt/disk/raspbian-tee/optee_os/lib/libutils/isoc/bget.c:1074
    7206:	5041      	str	r1, [r0, r1]
/mnt/disk/raspbian-tee/optee_os/lib/libutils/isoc/bget.c:1077
    7208:	605a      	str	r2, [r3, #4]
    720a:	bd10      	pop	{r4, pc}
    720c:	0000162a 	.word	0x0000162a
    7210:	00001782 	.word	0x00001782
    7214:	0000193b 	.word	0x0000193b
    7218:	00001604 	.word	0x00001604
    721c:	0000175c 	.word	0x0000175c
    7220:	000016e4 	.word	0x000016e4
    7224:	000015e8 	.word	0x000015e8
    7228:	00001740 	.word	0x00001740
    722c:	00001703 	.word	0x00001703

00007230 <bstats>:
bstats():
/mnt/disk/raspbian-tee/optee_os/lib/libutils/isoc/bget.c:1088
    7230:	b570      	push	{r4, r5, r6, lr}
    7232:	9c05      	ldr	r4, [sp, #20]
/mnt/disk/raspbian-tee/optee_os/lib/libutils/isoc/bget.c:1091
    7234:	6966      	ldr	r6, [r4, #20]
/mnt/disk/raspbian-tee/optee_os/lib/libutils/isoc/bget.c:1089
    7236:	68a5      	ldr	r5, [r4, #8]
/mnt/disk/raspbian-tee/optee_os/lib/libutils/isoc/bget.c:1091
    7238:	601e      	str	r6, [r3, #0]
/mnt/disk/raspbian-tee/optee_os/lib/libutils/isoc/bget.c:1092
    723a:	9b04      	ldr	r3, [sp, #16]
    723c:	69a6      	ldr	r6, [r4, #24]
    723e:	601e      	str	r6, [r3, #0]
/mnt/disk/raspbian-tee/optee_os/lib/libutils/isoc/bget.c:1093
    7240:	6923      	ldr	r3, [r4, #16]
    7242:	6003      	str	r3, [r0, #0]
/mnt/disk/raspbian-tee/optee_os/lib/libutils/isoc/bget.c:1094
    7244:	2300      	movs	r3, #0
    7246:	600b      	str	r3, [r1, #0]
/mnt/disk/raspbian-tee/optee_os/lib/libutils/isoc/bget.c:1095
    7248:	f04f 33ff 	mov.w	r3, #4294967295	; 0xffffffff
    724c:	6013      	str	r3, [r2, #0]
/mnt/disk/raspbian-tee/optee_os/lib/libutils/isoc/bget.c:1096
    724e:	42a5      	cmp	r5, r4
    7250:	d100      	bne.n	7254 <bstats+0x24>
/mnt/disk/raspbian-tee/optee_os/lib/libutils/isoc/bget.c:1104
    7252:	bd70      	pop	{r4, r5, r6, pc}
/mnt/disk/raspbian-tee/optee_os/lib/libutils/isoc/bget.c:1097
    7254:	6868      	ldr	r0, [r5, #4]
    7256:	2800      	cmp	r0, #0
    7258:	dc0c      	bgt.n	7274 <bstats+0x44>
/mnt/disk/raspbian-tee/optee_os/lib/libutils/isoc/bget.c:1097 (discriminator 1)
    725a:	4b0b      	ldr	r3, [pc, #44]	; (7288 <bstats+0x58>)
    725c:	f240 4249 	movw	r2, #1097	; 0x449
    7260:	490a      	ldr	r1, [pc, #40]	; (728c <bstats+0x5c>)
    7262:	480b      	ldr	r0, [pc, #44]	; (7290 <bstats+0x60>)
    7264:	447b      	add	r3, pc
    7266:	332e      	adds	r3, #46	; 0x2e
    7268:	4479      	add	r1, pc
    726a:	4478      	add	r0, pc
    726c:	f000 fb60 	bl	7930 <_assert_log>
    7270:	f000 fb72 	bl	7958 <_assert_break>
/mnt/disk/raspbian-tee/optee_os/lib/libutils/isoc/bget.c:1098
    7274:	680b      	ldr	r3, [r1, #0]
    7276:	4403      	add	r3, r0
    7278:	600b      	str	r3, [r1, #0]
/mnt/disk/raspbian-tee/optee_os/lib/libutils/isoc/bget.c:1099
    727a:	686b      	ldr	r3, [r5, #4]
    727c:	6810      	ldr	r0, [r2, #0]
    727e:	4283      	cmp	r3, r0
    7280:	dd00      	ble.n	7284 <bstats+0x54>
/mnt/disk/raspbian-tee/optee_os/lib/libutils/isoc/bget.c:1100
    7282:	6013      	str	r3, [r2, #0]
/mnt/disk/raspbian-tee/optee_os/lib/libutils/isoc/bget.c:1102
    7284:	68ad      	ldr	r5, [r5, #8]
    7286:	e7e2      	b.n	724e <bstats+0x1e>
    7288:	0000156e 	.word	0x0000156e
    728c:	000016c6 	.word	0x000016c6
    7290:	000018b4 	.word	0x000018b4

00007294 <malloc_reset_stats>:
malloc_reset_stats():
/mnt/disk/raspbian-tee/optee_os/lib/libutils/isoc/bget_malloc.c:183
    7294:	4b03      	ldr	r3, [pc, #12]	; (72a4 <malloc_reset_stats+0x10>)
    7296:	2200      	movs	r2, #0
    7298:	447b      	add	r3, pc
    729a:	625a      	str	r2, [r3, #36]	; 0x24
/mnt/disk/raspbian-tee/optee_os/lib/libutils/isoc/bget_malloc.c:184
    729c:	62da      	str	r2, [r3, #44]	; 0x2c
/mnt/disk/raspbian-tee/optee_os/lib/libutils/isoc/bget_malloc.c:185
    729e:	631a      	str	r2, [r3, #48]	; 0x30
/mnt/disk/raspbian-tee/optee_os/lib/libutils/isoc/bget_malloc.c:186
    72a0:	635a      	str	r2, [r3, #52]	; 0x34
    72a2:	4770      	bx	lr
    72a4:	00004e14 	.word	0x00004e14

000072a8 <malloc_get_stats>:
malloc_get_stats():
/mnt/disk/raspbian-tee/optee_os/lib/libutils/isoc/bget_malloc.c:194
    72a8:	4905      	ldr	r1, [pc, #20]	; (72c0 <malloc_get_stats+0x18>)
    72aa:	2238      	movs	r2, #56	; 0x38
/mnt/disk/raspbian-tee/optee_os/lib/libutils/isoc/bget_malloc.c:191
    72ac:	b508      	push	{r3, lr}
/mnt/disk/raspbian-tee/optee_os/lib/libutils/isoc/bget_malloc.c:194
    72ae:	4479      	add	r1, pc
    72b0:	f000 fc4c 	bl	7b4c <memcpy>
/mnt/disk/raspbian-tee/optee_os/lib/libutils/isoc/bget_malloc.c:195
    72b4:	4a03      	ldr	r2, [pc, #12]	; (72c4 <malloc_get_stats+0x1c>)
    72b6:	447a      	add	r2, pc
    72b8:	6912      	ldr	r2, [r2, #16]
    72ba:	6202      	str	r2, [r0, #32]
    72bc:	bd08      	pop	{r3, pc}
    72be:	bf00      	nop
    72c0:	00004dfe 	.word	0x00004dfe
    72c4:	00002daa 	.word	0x00002daa

000072c8 <malloc>:
malloc():
/mnt/disk/raspbian-tee/optee_os/lib/libutils/isoc/bget_malloc.c:821
    72c8:	e5e0      	b.n	6e8c <raw_malloc.constprop.15>

000072ca <free>:
raw_free():
/mnt/disk/raspbian-tee/optee_os/lib/libutils/isoc/bget_malloc.c:324
    72ca:	b118      	cbz	r0, 72d4 <free+0xa>
/mnt/disk/raspbian-tee/optee_os/lib/libutils/isoc/bget_malloc.c:325
    72cc:	4902      	ldr	r1, [pc, #8]	; (72d8 <free+0xe>)
    72ce:	4479      	add	r1, pc
    72d0:	f7ff be26 	b.w	6f20 <brel>
    72d4:	4770      	bx	lr
    72d6:	bf00      	nop
    72d8:	00002d92 	.word	0x00002d92

000072dc <calloc>:
raw_calloc():
/mnt/disk/raspbian-tee/optee_os/lib/libutils/isoc/bget_malloc.c:337
    72dc:	fba0 2301 	umull	r2, r3, r0, r1
calloc():
/mnt/disk/raspbian-tee/optee_os/lib/libutils/isoc/bget_malloc.c:835
    72e0:	b570      	push	{r4, r5, r6, lr}
    72e2:	4605      	mov	r5, r0
    72e4:	460e      	mov	r6, r1
raw_calloc():
/mnt/disk/raspbian-tee/optee_os/lib/libutils/isoc/bget_malloc.c:337
    72e6:	4610      	mov	r0, r2
    72e8:	2a00      	cmp	r2, #0
    72ea:	bfa8      	it	ge
    72ec:	2b00      	cmpge	r3, #0
    72ee:	d113      	bne.n	7318 <calloc+0x3c>
/mnt/disk/raspbian-tee/optee_os/lib/libutils/isoc/bget_malloc.c:348
    72f0:	490a      	ldr	r1, [pc, #40]	; (731c <calloc+0x40>)
/mnt/disk/raspbian-tee/optee_os/lib/libutils/isoc/bget_malloc.c:345
    72f2:	2a00      	cmp	r2, #0
/mnt/disk/raspbian-tee/optee_os/lib/libutils/isoc/bget_malloc.c:348
    72f4:	bf18      	it	ne
    72f6:	4610      	movne	r0, r2
    72f8:	bf08      	it	eq
    72fa:	2001      	moveq	r0, #1
    72fc:	4479      	add	r1, pc
    72fe:	f7ff fde1 	bl	6ec4 <bgetz>
    7302:	4604      	mov	r4, r0
/mnt/disk/raspbian-tee/optee_os/lib/libutils/isoc/bget_malloc.c:350
    7304:	4b06      	ldr	r3, [pc, #24]	; (7320 <calloc+0x44>)
    7306:	4620      	mov	r0, r4
    7308:	fb06 f105 	mul.w	r1, r6, r5
    730c:	447b      	add	r3, pc
    730e:	691a      	ldr	r2, [r3, #16]
    7310:	f7ff fc9e 	bl	6c50 <raw_malloc_return_hook.isra.3>
calloc():
/mnt/disk/raspbian-tee/optee_os/lib/libutils/isoc/bget_malloc.c:842
    7314:	4620      	mov	r0, r4
    7316:	bd70      	pop	{r4, r5, r6, pc}
raw_calloc():
/mnt/disk/raspbian-tee/optee_os/lib/libutils/isoc/bget_malloc.c:331
    7318:	2400      	movs	r4, #0
    731a:	e7f3      	b.n	7304 <calloc+0x28>
    731c:	00002d64 	.word	0x00002d64
    7320:	00002d54 	.word	0x00002d54

00007324 <realloc>:
realloc():
/mnt/disk/raspbian-tee/optee_os/lib/libutils/isoc/bget_malloc.c:850
    7324:	b538      	push	{r3, r4, r5, lr}
raw_realloc():
/mnt/disk/raspbian-tee/optee_os/lib/libutils/isoc/bget_malloc.c:362
    7326:	1e0d      	subs	r5, r1, #0
    7328:	db12      	blt.n	7350 <realloc+0x2c>
/mnt/disk/raspbian-tee/optee_os/lib/libutils/isoc/bget_malloc.c:373
    732a:	4a0a      	ldr	r2, [pc, #40]	; (7354 <realloc+0x30>)
    732c:	4629      	mov	r1, r5
    732e:	bf18      	it	ne
    7330:	4629      	movne	r1, r5
    7332:	bf08      	it	eq
    7334:	2101      	moveq	r1, #1
    7336:	447a      	add	r2, pc
    7338:	f7ff feee 	bl	7118 <bgetr>
    733c:	4604      	mov	r4, r0
/mnt/disk/raspbian-tee/optee_os/lib/libutils/isoc/bget_malloc.c:375
    733e:	4b06      	ldr	r3, [pc, #24]	; (7358 <realloc+0x34>)
    7340:	4620      	mov	r0, r4
    7342:	4629      	mov	r1, r5
    7344:	447b      	add	r3, pc
    7346:	691a      	ldr	r2, [r3, #16]
    7348:	f7ff fc82 	bl	6c50 <raw_malloc_return_hook.isra.3>
realloc():
/mnt/disk/raspbian-tee/optee_os/lib/libutils/isoc/bget_malloc.c:857
    734c:	4620      	mov	r0, r4
    734e:	bd38      	pop	{r3, r4, r5, pc}
raw_realloc():
/mnt/disk/raspbian-tee/optee_os/lib/libutils/isoc/bget_malloc.c:358
    7350:	2400      	movs	r4, #0
    7352:	e7f4      	b.n	733e <realloc+0x1a>
    7354:	00002d2a 	.word	0x00002d2a
    7358:	00002d1c 	.word	0x00002d1c

0000735c <memalign>:
memalign():
/mnt/disk/raspbian-tee/optee_os/lib/libutils/isoc/bget_malloc.c:860
    735c:	b5f8      	push	{r3, r4, r5, r6, r7, lr}
    735e:	460f      	mov	r7, r1
raw_memalign():
/mnt/disk/raspbian-tee/optee_os/lib/libutils/isoc/bget_malloc.c:535
    7360:	4605      	mov	r5, r0
    7362:	b178      	cbz	r0, 7384 <memalign+0x28>
    7364:	4244      	negs	r4, r0
    7366:	ea30 0304 	bics.w	r3, r0, r4
    736a:	d10b      	bne.n	7384 <memalign+0x28>
/mnt/disk/raspbian-tee/optee_os/lib/libutils/isoc/bget_malloc.c:542
    736c:	2808      	cmp	r0, #8
    736e:	d803      	bhi.n	7378 <memalign+0x1c>
/mnt/disk/raspbian-tee/optee_os/lib/libutils/isoc/bget_malloc.c:543
    7370:	4608      	mov	r0, r1
memalign():
/mnt/disk/raspbian-tee/optee_os/lib/libutils/isoc/bget_malloc.c:867
    7372:	e8bd 40f8 	ldmia.w	sp!, {r3, r4, r5, r6, r7, lr}
raw_memalign():
/mnt/disk/raspbian-tee/optee_os/lib/libutils/isoc/bget_malloc.c:543
    7376:	e589      	b.n	6e8c <raw_malloc.constprop.15>
    7378:	f101 0610 	add.w	r6, r1, #16
    737c:	1986      	adds	r6, r0, r6
    737e:	d201      	bcs.n	7384 <memalign+0x28>
/mnt/disk/raspbian-tee/optee_os/lib/libutils/isoc/bget_malloc.c:549
    7380:	42b1      	cmp	r1, r6
    7382:	d901      	bls.n	7388 <memalign+0x2c>
/mnt/disk/raspbian-tee/optee_os/lib/libutils/isoc/bget_malloc.c:536
    7384:	2400      	movs	r4, #0
memalign():
/mnt/disk/raspbian-tee/optee_os/lib/libutils/isoc/bget_malloc.c:866
    7386:	e0f5      	b.n	7574 <memalign+0x218>
raw_memalign():
/mnt/disk/raspbian-tee/optee_os/lib/libutils/isoc/bget_malloc.c:552
    7388:	497b      	ldr	r1, [pc, #492]	; (7578 <memalign+0x21c>)
    738a:	4630      	mov	r0, r6
    738c:	4479      	add	r1, pc
    738e:	f7ff fce3 	bl	6d58 <bget>
/mnt/disk/raspbian-tee/optee_os/lib/libutils/isoc/bget_malloc.c:553
    7392:	4603      	mov	r3, r0
    7394:	2800      	cmp	r0, #0
    7396:	f000 80e5 	beq.w	7564 <memalign+0x208>
/mnt/disk/raspbian-tee/optee_os/lib/libutils/isoc/bget_malloc.c:556
    739a:	1e6a      	subs	r2, r5, #1
    739c:	4210      	tst	r0, r2
    739e:	d063      	beq.n	7468 <memalign+0x10c>
/mnt/disk/raspbian-tee/optee_os/lib/libutils/isoc/bget_malloc.c:569
    73a0:	182a      	adds	r2, r5, r0
/mnt/disk/raspbian-tee/optee_os/lib/libutils/isoc/bget_malloc.c:574
    73a2:	4406      	add	r6, r0
/mnt/disk/raspbian-tee/optee_os/lib/libutils/isoc/bget_malloc.c:570
    73a4:	4014      	ands	r4, r2
/mnt/disk/raspbian-tee/optee_os/lib/libutils/isoc/bget_malloc.c:572
    73a6:	1a22      	subs	r2, r4, r0
    73a8:	2a0f      	cmp	r2, #15
/mnt/disk/raspbian-tee/optee_os/lib/libutils/isoc/bget_malloc.c:573
    73aa:	bf98      	it	ls
    73ac:	1964      	addls	r4, r4, r5
/mnt/disk/raspbian-tee/optee_os/lib/libutils/isoc/bget_malloc.c:574
    73ae:	193a      	adds	r2, r7, r4
    73b0:	42b2      	cmp	r2, r6
    73b2:	d90c      	bls.n	73ce <memalign+0x72>
    73b4:	4b71      	ldr	r3, [pc, #452]	; (757c <memalign+0x220>)
    73b6:	f240 223e 	movw	r2, #574	; 0x23e
    73ba:	4971      	ldr	r1, [pc, #452]	; (7580 <memalign+0x224>)
    73bc:	4871      	ldr	r0, [pc, #452]	; (7584 <memalign+0x228>)
    73be:	447b      	add	r3, pc
    73c0:	3335      	adds	r3, #53	; 0x35
    73c2:	4479      	add	r1, pc
    73c4:	4478      	add	r0, pc
brel_before():
/mnt/disk/raspbian-tee/optee_os/lib/libutils/isoc/bget_malloc.c:411
    73c6:	f000 fab3 	bl	7930 <_assert_log>
    73ca:	f000 fac5 	bl	7958 <_assert_break>
    73ce:	42a0      	cmp	r0, r4
    73d0:	d309      	bcc.n	73e6 <memalign+0x8a>
    73d2:	4b6d      	ldr	r3, [pc, #436]	; (7588 <memalign+0x22c>)
    73d4:	f240 129b 	movw	r2, #411	; 0x19b
    73d8:	496c      	ldr	r1, [pc, #432]	; (758c <memalign+0x230>)
    73da:	486d      	ldr	r0, [pc, #436]	; (7590 <memalign+0x234>)
    73dc:	447b      	add	r3, pc
    73de:	3342      	adds	r3, #66	; 0x42
    73e0:	4479      	add	r1, pc
    73e2:	4478      	add	r0, pc
    73e4:	e7ef      	b.n	73c6 <memalign+0x6a>
/mnt/disk/raspbian-tee/optee_os/lib/libutils/isoc/bget_malloc.c:413
    73e6:	1a25      	subs	r5, r4, r0
/mnt/disk/raspbian-tee/optee_os/lib/libutils/isoc/bget_malloc.c:414
    73e8:	2d0f      	cmp	r5, #15
    73ea:	d809      	bhi.n	7400 <memalign+0xa4>
    73ec:	4b69      	ldr	r3, [pc, #420]	; (7594 <memalign+0x238>)
    73ee:	f44f 72cf 	mov.w	r2, #414	; 0x19e
    73f2:	4969      	ldr	r1, [pc, #420]	; (7598 <memalign+0x23c>)
    73f4:	4869      	ldr	r0, [pc, #420]	; (759c <memalign+0x240>)
    73f6:	447b      	add	r3, pc
    73f8:	3342      	adds	r3, #66	; 0x42
    73fa:	4479      	add	r1, pc
    73fc:	4478      	add	r0, pc
    73fe:	e7e2      	b.n	73c6 <memalign+0x6a>
/mnt/disk/raspbian-tee/optee_os/lib/libutils/isoc/bget_malloc.c:418
    7400:	f853 2c04 	ldr.w	r2, [r3, #-4]
/mnt/disk/raspbian-tee/optee_os/lib/libutils/isoc/bget_malloc.c:417
    7404:	3808      	subs	r0, #8
/mnt/disk/raspbian-tee/optee_os/lib/libutils/isoc/bget_malloc.c:423
    7406:	f853 3c08 	ldr.w	r3, [r3, #-8]
    740a:	442a      	add	r2, r5
    740c:	b323      	cbz	r3, 7458 <memalign+0xfc>
/mnt/disk/raspbian-tee/optee_os/lib/libutils/isoc/bget_malloc.c:428
    740e:	1ac0      	subs	r0, r0, r3
/mnt/disk/raspbian-tee/optee_os/lib/libutils/isoc/bget_malloc.c:429
    7410:	6841      	ldr	r1, [r0, #4]
    7412:	428b      	cmp	r3, r1
    7414:	d009      	beq.n	742a <memalign+0xce>
    7416:	4b62      	ldr	r3, [pc, #392]	; (75a0 <memalign+0x244>)
    7418:	f240 12ad 	movw	r2, #429	; 0x1ad
    741c:	4961      	ldr	r1, [pc, #388]	; (75a4 <memalign+0x248>)
    741e:	4862      	ldr	r0, [pc, #392]	; (75a8 <memalign+0x24c>)
    7420:	447b      	add	r3, pc
    7422:	3342      	adds	r3, #66	; 0x42
    7424:	4479      	add	r1, pc
    7426:	4478      	add	r0, pc
    7428:	e7cd      	b.n	73c6 <memalign+0x6a>
/mnt/disk/raspbian-tee/optee_os/lib/libutils/isoc/bget_malloc.c:430
    742a:	442b      	add	r3, r5
    742c:	6043      	str	r3, [r0, #4]
/mnt/disk/raspbian-tee/optee_os/lib/libutils/isoc/bget_malloc.c:433
    742e:	f844 3c08 	str.w	r3, [r4, #-8]
/mnt/disk/raspbian-tee/optee_os/lib/libutils/isoc/bget_malloc.c:435
    7432:	f844 2c04 	str.w	r2, [r4, #-4]
/mnt/disk/raspbian-tee/optee_os/lib/libutils/isoc/bget_malloc.c:449
    7436:	4a5d      	ldr	r2, [pc, #372]	; (75ac <memalign+0x250>)
    7438:	447a      	add	r2, pc
    743a:	6913      	ldr	r3, [r2, #16]
    743c:	1b5d      	subs	r5, r3, r5
    743e:	6115      	str	r5, [r2, #16]
/mnt/disk/raspbian-tee/optee_os/lib/libutils/isoc/bget_malloc.c:450
    7440:	2d00      	cmp	r5, #0
    7442:	da12      	bge.n	746a <memalign+0x10e>
    7444:	4b5a      	ldr	r3, [pc, #360]	; (75b0 <memalign+0x254>)
    7446:	f44f 72e1 	mov.w	r2, #450	; 0x1c2
    744a:	495a      	ldr	r1, [pc, #360]	; (75b4 <memalign+0x258>)
    744c:	485a      	ldr	r0, [pc, #360]	; (75b8 <memalign+0x25c>)
    744e:	447b      	add	r3, pc
    7450:	3342      	adds	r3, #66	; 0x42
    7452:	4479      	add	r1, pc
    7454:	4478      	add	r0, pc
    7456:	e7b6      	b.n	73c6 <memalign+0x6a>
/mnt/disk/raspbian-tee/optee_os/lib/libutils/isoc/bget_malloc.c:443
    7458:	f844 2c04 	str.w	r2, [r4, #-4]
/mnt/disk/raspbian-tee/optee_os/lib/libutils/isoc/bget_malloc.c:445
    745c:	4629      	mov	r1, r5
    745e:	f1a4 0208 	sub.w	r2, r4, #8
    7462:	f7ff fc0d 	bl	6c80 <create_free_block.constprop.11>
    7466:	e7e6      	b.n	7436 <memalign+0xda>
raw_memalign():
/mnt/disk/raspbian-tee/optee_os/lib/libutils/isoc/bget_malloc.c:556
    7468:	4604      	mov	r4, r0
brel_after():
/mnt/disk/raspbian-tee/optee_os/lib/libutils/isoc/bget_malloc.c:466
    746a:	2f08      	cmp	r7, #8
    746c:	4638      	mov	r0, r7
    746e:	bf38      	it	cc
    7470:	2008      	movcc	r0, #8
/mnt/disk/raspbian-tee/optee_os/lib/libutils/isoc/bget_malloc.c:470
    7472:	f854 1c04 	ldr.w	r1, [r4, #-4]
/mnt/disk/raspbian-tee/optee_os/lib/libutils/isoc/bget_malloc.c:466
    7476:	3007      	adds	r0, #7
    7478:	f020 0007 	bic.w	r0, r0, #7
/mnt/disk/raspbian-tee/optee_os/lib/libutils/isoc/bget_malloc.c:470
    747c:	424d      	negs	r5, r1
/mnt/disk/raspbian-tee/optee_os/lib/libutils/isoc/bget_malloc.c:469
    747e:	f100 0308 	add.w	r3, r0, #8
/mnt/disk/raspbian-tee/optee_os/lib/libutils/isoc/bget_malloc.c:470
    7482:	42ab      	cmp	r3, r5
    7484:	dd09      	ble.n	749a <memalign+0x13e>
    7486:	4b4d      	ldr	r3, [pc, #308]	; (75bc <memalign+0x260>)
    7488:	f44f 72eb 	mov.w	r2, #470	; 0x1d6
    748c:	494c      	ldr	r1, [pc, #304]	; (75c0 <memalign+0x264>)
    748e:	484d      	ldr	r0, [pc, #308]	; (75c4 <memalign+0x268>)
    7490:	447b      	add	r3, pc
    7492:	334e      	adds	r3, #78	; 0x4e
    7494:	4479      	add	r1, pc
    7496:	4478      	add	r0, pc
    7498:	e795      	b.n	73c6 <memalign+0x6a>
/mnt/disk/raspbian-tee/optee_os/lib/libutils/isoc/bget_malloc.c:476
    749a:	1aed      	subs	r5, r5, r3
/mnt/disk/raspbian-tee/optee_os/lib/libutils/isoc/bget_malloc.c:477
    749c:	2d0f      	cmp	r5, #15
    749e:	dd62      	ble.n	7566 <memalign+0x20a>
/mnt/disk/raspbian-tee/optee_os/lib/libutils/isoc/bget_malloc.c:480
    74a0:	f1c1 21ff 	rsb	r1, r1, #4278255360	; 0xff00ff00
/mnt/disk/raspbian-tee/optee_os/lib/libutils/isoc/bget_malloc.c:484
    74a4:	425b      	negs	r3, r3
/mnt/disk/raspbian-tee/optee_os/lib/libutils/isoc/bget_malloc.c:480
    74a6:	f501 017f 	add.w	r1, r1, #16711680	; 0xff0000
/mnt/disk/raspbian-tee/optee_os/lib/libutils/isoc/bget_malloc.c:484
    74aa:	f844 3c04 	str.w	r3, [r4, #-4]
/mnt/disk/raspbian-tee/optee_os/lib/libutils/isoc/bget_malloc.c:480
    74ae:	31f8      	adds	r1, #248	; 0xf8
    74b0:	4420      	add	r0, r4
    74b2:	1862      	adds	r2, r4, r1
/mnt/disk/raspbian-tee/optee_os/lib/libutils/isoc/bget_malloc.c:485
    74b4:	6853      	ldr	r3, [r2, #4]
    74b6:	2b00      	cmp	r3, #0
    74b8:	dd50      	ble.n	755c <memalign+0x200>
/mnt/disk/raspbian-tee/optee_os/lib/libutils/isoc/bget_malloc.c:491
    74ba:	5861      	ldr	r1, [r4, r1]
    74bc:	b149      	cbz	r1, 74d2 <memalign+0x176>
    74be:	4b42      	ldr	r3, [pc, #264]	; (75c8 <memalign+0x26c>)
    74c0:	f240 12eb 	movw	r2, #491	; 0x1eb
    74c4:	4941      	ldr	r1, [pc, #260]	; (75cc <memalign+0x270>)
    74c6:	4842      	ldr	r0, [pc, #264]	; (75d0 <memalign+0x274>)
    74c8:	447b      	add	r3, pc
    74ca:	334e      	adds	r3, #78	; 0x4e
    74cc:	4479      	add	r1, pc
    74ce:	4478      	add	r0, pc
    74d0:	e779      	b.n	73c6 <memalign+0x6a>
/mnt/disk/raspbian-tee/optee_os/lib/libutils/isoc/bget_malloc.c:492
    74d2:	58d6      	ldr	r6, [r2, r3]
    74d4:	42b3      	cmp	r3, r6
    74d6:	d009      	beq.n	74ec <memalign+0x190>
    74d8:	4b3e      	ldr	r3, [pc, #248]	; (75d4 <memalign+0x278>)
    74da:	f44f 72f6 	mov.w	r2, #492	; 0x1ec
    74de:	493e      	ldr	r1, [pc, #248]	; (75d8 <memalign+0x27c>)
    74e0:	483e      	ldr	r0, [pc, #248]	; (75dc <memalign+0x280>)
    74e2:	447b      	add	r3, pc
    74e4:	334e      	adds	r3, #78	; 0x4e
    74e6:	4479      	add	r1, pc
    74e8:	4478      	add	r0, pc
    74ea:	e76c      	b.n	73c6 <memalign+0x6a>
/mnt/disk/raspbian-tee/optee_os/lib/libutils/isoc/bget_malloc.c:495
    74ec:	6001      	str	r1, [r0, #0]
/mnt/disk/raspbian-tee/optee_os/lib/libutils/isoc/bget_malloc.c:496
    74ee:	18e9      	adds	r1, r5, r3
    74f0:	6041      	str	r1, [r0, #4]
/mnt/disk/raspbian-tee/optee_os/lib/libutils/isoc/bget_malloc.c:499
    74f2:	58d1      	ldr	r1, [r2, r3]
    74f4:	4429      	add	r1, r5
    74f6:	50d1      	str	r1, [r2, r3]
/mnt/disk/raspbian-tee/optee_os/lib/libutils/isoc/bget_malloc.c:505
    74f8:	68d3      	ldr	r3, [r2, #12]
    74fa:	6899      	ldr	r1, [r3, #8]
    74fc:	428a      	cmp	r2, r1
    74fe:	d009      	beq.n	7514 <memalign+0x1b8>
    7500:	4b37      	ldr	r3, [pc, #220]	; (75e0 <memalign+0x284>)
    7502:	f240 12f9 	movw	r2, #505	; 0x1f9
    7506:	4937      	ldr	r1, [pc, #220]	; (75e4 <memalign+0x288>)
    7508:	4837      	ldr	r0, [pc, #220]	; (75e8 <memalign+0x28c>)
    750a:	447b      	add	r3, pc
    750c:	334e      	adds	r3, #78	; 0x4e
    750e:	4479      	add	r1, pc
    7510:	4478      	add	r0, pc
    7512:	e758      	b.n	73c6 <memalign+0x6a>
/mnt/disk/raspbian-tee/optee_os/lib/libutils/isoc/bget_malloc.c:506
    7514:	6891      	ldr	r1, [r2, #8]
    7516:	68ce      	ldr	r6, [r1, #12]
    7518:	42b2      	cmp	r2, r6
    751a:	d009      	beq.n	7530 <memalign+0x1d4>
    751c:	4b33      	ldr	r3, [pc, #204]	; (75ec <memalign+0x290>)
    751e:	f44f 72fd 	mov.w	r2, #506	; 0x1fa
    7522:	4933      	ldr	r1, [pc, #204]	; (75f0 <memalign+0x294>)
    7524:	4833      	ldr	r0, [pc, #204]	; (75f4 <memalign+0x298>)
    7526:	447b      	add	r3, pc
    7528:	334e      	adds	r3, #78	; 0x4e
    752a:	4479      	add	r1, pc
    752c:	4478      	add	r0, pc
    752e:	e74a      	b.n	73c6 <memalign+0x6a>
/mnt/disk/raspbian-tee/optee_os/lib/libutils/isoc/bget_malloc.c:509
    7530:	60c3      	str	r3, [r0, #12]
/mnt/disk/raspbian-tee/optee_os/lib/libutils/isoc/bget_malloc.c:510
    7532:	6081      	str	r1, [r0, #8]
/mnt/disk/raspbian-tee/optee_os/lib/libutils/isoc/bget_malloc.c:513
    7534:	6098      	str	r0, [r3, #8]
/mnt/disk/raspbian-tee/optee_os/lib/libutils/isoc/bget_malloc.c:514
    7536:	6883      	ldr	r3, [r0, #8]
    7538:	60d8      	str	r0, [r3, #12]
/mnt/disk/raspbian-tee/optee_os/lib/libutils/isoc/bget_malloc.c:521
    753a:	4a2f      	ldr	r2, [pc, #188]	; (75f8 <memalign+0x29c>)
    753c:	447a      	add	r2, pc
    753e:	6913      	ldr	r3, [r2, #16]
    7540:	1b5d      	subs	r5, r3, r5
    7542:	6115      	str	r5, [r2, #16]
/mnt/disk/raspbian-tee/optee_os/lib/libutils/isoc/bget_malloc.c:522
    7544:	2d00      	cmp	r5, #0
    7546:	da0e      	bge.n	7566 <memalign+0x20a>
    7548:	4b2c      	ldr	r3, [pc, #176]	; (75fc <memalign+0x2a0>)
    754a:	f240 220a 	movw	r2, #522	; 0x20a
    754e:	492c      	ldr	r1, [pc, #176]	; (7600 <memalign+0x2a4>)
    7550:	482c      	ldr	r0, [pc, #176]	; (7604 <memalign+0x2a8>)
    7552:	447b      	add	r3, pc
    7554:	334e      	adds	r3, #78	; 0x4e
    7556:	4479      	add	r1, pc
    7558:	4478      	add	r0, pc
    755a:	e734      	b.n	73c6 <memalign+0x6a>
/mnt/disk/raspbian-tee/optee_os/lib/libutils/isoc/bget_malloc.c:517
    755c:	4629      	mov	r1, r5
    755e:	f7ff fb8f 	bl	6c80 <create_free_block.constprop.11>
    7562:	e7ea      	b.n	753a <memalign+0x1de>
raw_memalign():
/mnt/disk/raspbian-tee/optee_os/lib/libutils/isoc/bget_malloc.c:553
    7564:	4604      	mov	r4, r0
/mnt/disk/raspbian-tee/optee_os/lib/libutils/isoc/bget_malloc.c:589
    7566:	4b28      	ldr	r3, [pc, #160]	; (7608 <memalign+0x2ac>)
    7568:	4639      	mov	r1, r7
    756a:	4620      	mov	r0, r4
    756c:	447b      	add	r3, pc
    756e:	691a      	ldr	r2, [r3, #16]
    7570:	f7ff fb6e 	bl	6c50 <raw_malloc_return_hook.isra.3>
memalign():
/mnt/disk/raspbian-tee/optee_os/lib/libutils/isoc/bget_malloc.c:867
    7574:	4620      	mov	r0, r4
    7576:	bdf8      	pop	{r3, r4, r5, r6, r7, pc}
    7578:	00002cd4 	.word	0x00002cd4
    757c:	00001414 	.word	0x00001414
    7580:	0000149a 	.word	0x0000149a
    7584:	0000176a 	.word	0x0000176a
    7588:	000013f6 	.word	0x000013f6
    758c:	0000147c 	.word	0x0000147c
    7590:	00001778 	.word	0x00001778
    7594:	000013dc 	.word	0x000013dc
    7598:	00001462 	.word	0x00001462
    759c:	00001771 	.word	0x00001771
    75a0:	000013b2 	.word	0x000013b2
    75a4:	00001438 	.word	0x00001438
    75a8:	0000176e 	.word	0x0000176e
    75ac:	00002c28 	.word	0x00002c28
    75b0:	00001384 	.word	0x00001384
    75b4:	0000140a 	.word	0x0000140a
    75b8:	000015b7 	.word	0x000015b7
    75bc:	00001342 	.word	0x00001342
    75c0:	000013c8 	.word	0x000013c8
    75c4:	0000171f 	.word	0x0000171f
    75c8:	0000130a 	.word	0x0000130a
    75cc:	00001390 	.word	0x00001390
    75d0:	000016fd 	.word	0x000016fd
    75d4:	000012f0 	.word	0x000012f0
    75d8:	00001376 	.word	0x00001376
    75dc:	000016f9 	.word	0x000016f9
    75e0:	000012c8 	.word	0x000012c8
    75e4:	0000134e 	.word	0x0000134e
    75e8:	000016f0 	.word	0x000016f0
    75ec:	000012ac 	.word	0x000012ac
    75f0:	00001332 	.word	0x00001332
    75f4:	000016f3 	.word	0x000016f3
    75f8:	00002b24 	.word	0x00002b24
    75fc:	00001280 	.word	0x00001280
    7600:	00001306 	.word	0x00001306
    7604:	000014b3 	.word	0x000014b3
    7608:	00002af4 	.word	0x00002af4

0000760c <malloc_add_pool>:
malloc_add_pool():
/mnt/disk/raspbian-tee/optee_os/lib/libutils/isoc/bget_malloc.c:878
    760c:	e92d 41f3 	stmdb	sp!, {r0, r1, r4, r5, r6, r7, r8, lr}
/mnt/disk/raspbian-tee/optee_os/lib/libutils/isoc/bget_malloc.c:883
    7610:	1844      	adds	r4, r0, r1
/mnt/disk/raspbian-tee/optee_os/lib/libutils/isoc/bget_malloc.c:889
    7612:	3007      	adds	r0, #7
    7614:	f020 0607 	bic.w	r6, r0, #7
/mnt/disk/raspbian-tee/optee_os/lib/libutils/isoc/bget_malloc.c:890
    7618:	f024 0407 	bic.w	r4, r4, #7
/mnt/disk/raspbian-tee/optee_os/lib/libutils/isoc/bget_malloc.c:891
    761c:	42a6      	cmp	r6, r4
    761e:	d30c      	bcc.n	763a <malloc_add_pool+0x2e>
/mnt/disk/raspbian-tee/optee_os/lib/libutils/isoc/bget_malloc.c:891 (discriminator 1)
    7620:	4b2c      	ldr	r3, [pc, #176]	; (76d4 <malloc_add_pool+0xc8>)
    7622:	f240 327b 	movw	r2, #891	; 0x37b
    7626:	492c      	ldr	r1, [pc, #176]	; (76d8 <malloc_add_pool+0xcc>)
    7628:	482c      	ldr	r0, [pc, #176]	; (76dc <malloc_add_pool+0xd0>)
    762a:	447b      	add	r3, pc
    762c:	3359      	adds	r3, #89	; 0x59
    762e:	4479      	add	r1, pc
    7630:	4478      	add	r0, pc
/mnt/disk/raspbian-tee/optee_os/lib/libutils/isoc/bget_malloc.c:904 (discriminator 1)
    7632:	f000 f97d 	bl	7930 <_assert_log>
    7636:	f000 f98f 	bl	7958 <_assert_break>
/mnt/disk/raspbian-tee/optee_os/lib/libutils/isoc/bget_malloc.c:893
    763a:	1ba4      	subs	r4, r4, r6
    763c:	2c17      	cmp	r4, #23
    763e:	d80e      	bhi.n	765e <malloc_add_pool+0x52>
/mnt/disk/raspbian-tee/optee_os/lib/libutils/isoc/bget_malloc.c:894
    7640:	4827      	ldr	r0, [pc, #156]	; (76e0 <malloc_add_pool+0xd4>)
    7642:	2203      	movs	r2, #3
    7644:	4b27      	ldr	r3, [pc, #156]	; (76e4 <malloc_add_pool+0xd8>)
    7646:	f240 317e 	movw	r1, #894	; 0x37e
    764a:	4478      	add	r0, pc
    764c:	447b      	add	r3, pc
    764e:	3059      	adds	r0, #89	; 0x59
    7650:	9300      	str	r3, [sp, #0]
    7652:	2301      	movs	r3, #1
    7654:	f7f8 fe2c 	bl	2b0 <trace_printf>
/mnt/disk/raspbian-tee/optee_os/lib/libutils/isoc/bget_malloc.c:913
    7658:	b002      	add	sp, #8
    765a:	e8bd 81f0 	ldmia.w	sp!, {r4, r5, r6, r7, r8, pc}
/mnt/disk/raspbian-tee/optee_os/lib/libutils/isoc/bget_malloc.c:901
    765e:	4d22      	ldr	r5, [pc, #136]	; (76e8 <malloc_add_pool+0xdc>)
    7660:	4621      	mov	r1, r4
    7662:	4630      	mov	r0, r6
    7664:	447d      	add	r5, pc
    7666:	462a      	mov	r2, r5
    7668:	f7ff fd94 	bl	7194 <bpool>
/mnt/disk/raspbian-tee/optee_os/lib/libutils/isoc/bget_malloc.c:902
    766c:	4b1f      	ldr	r3, [pc, #124]	; (76ec <malloc_add_pool+0xe0>)
    766e:	447b      	add	r3, pc
    7670:	6b9f      	ldr	r7, [r3, #56]	; 0x38
    7672:	3701      	adds	r7, #1
raw_realloc():
/mnt/disk/raspbian-tee/optee_os/lib/libutils/isoc/bget_malloc.c:362
    7674:	ea5f 08c7 	movs.w	r8, r7, lsl #3
    7678:	d41b      	bmi.n	76b2 <malloc_add_pool+0xa6>
/mnt/disk/raspbian-tee/optee_os/lib/libutils/isoc/bget_malloc.c:371
    767a:	f1b8 0f00 	cmp.w	r8, #0
/mnt/disk/raspbian-tee/optee_os/lib/libutils/isoc/bget_malloc.c:373
    767e:	462a      	mov	r2, r5
    7680:	4641      	mov	r1, r8
    7682:	6bd8      	ldr	r0, [r3, #60]	; 0x3c
    7684:	bf08      	it	eq
    7686:	2101      	moveq	r1, #1
    7688:	f7ff fd46 	bl	7118 <bgetr>
    768c:	4605      	mov	r5, r0
/mnt/disk/raspbian-tee/optee_os/lib/libutils/isoc/bget_malloc.c:375
    768e:	4b18      	ldr	r3, [pc, #96]	; (76f0 <malloc_add_pool+0xe4>)
    7690:	4641      	mov	r1, r8
    7692:	4628      	mov	r0, r5
    7694:	447b      	add	r3, pc
    7696:	691a      	ldr	r2, [r3, #16]
    7698:	f7ff fada 	bl	6c50 <raw_malloc_return_hook.isra.3>
malloc_add_pool():
/mnt/disk/raspbian-tee/optee_os/lib/libutils/isoc/bget_malloc.c:904
    769c:	b95d      	cbnz	r5, 76b6 <malloc_add_pool+0xaa>
/mnt/disk/raspbian-tee/optee_os/lib/libutils/isoc/bget_malloc.c:904 (discriminator 1)
    769e:	4b15      	ldr	r3, [pc, #84]	; (76f4 <malloc_add_pool+0xe8>)
    76a0:	f44f 7262 	mov.w	r2, #904	; 0x388
    76a4:	4914      	ldr	r1, [pc, #80]	; (76f8 <malloc_add_pool+0xec>)
    76a6:	4815      	ldr	r0, [pc, #84]	; (76fc <malloc_add_pool+0xf0>)
    76a8:	447b      	add	r3, pc
    76aa:	3359      	adds	r3, #89	; 0x59
    76ac:	4479      	add	r1, pc
    76ae:	4478      	add	r0, pc
    76b0:	e7bf      	b.n	7632 <malloc_add_pool+0x26>
raw_realloc():
/mnt/disk/raspbian-tee/optee_os/lib/libutils/isoc/bget_malloc.c:358
    76b2:	2500      	movs	r5, #0
    76b4:	e7eb      	b.n	768e <malloc_add_pool+0x82>
malloc_add_pool():
/mnt/disk/raspbian-tee/optee_os/lib/libutils/isoc/bget_malloc.c:905
    76b6:	4b12      	ldr	r3, [pc, #72]	; (7700 <malloc_add_pool+0xf4>)
    76b8:	447b      	add	r3, pc
/mnt/disk/raspbian-tee/optee_os/lib/libutils/isoc/bget_malloc.c:906
    76ba:	6b9a      	ldr	r2, [r3, #56]	; 0x38
/mnt/disk/raspbian-tee/optee_os/lib/libutils/isoc/bget_malloc.c:905
    76bc:	63dd      	str	r5, [r3, #60]	; 0x3c
/mnt/disk/raspbian-tee/optee_os/lib/libutils/isoc/bget_malloc.c:911
    76be:	639f      	str	r7, [r3, #56]	; 0x38
/mnt/disk/raspbian-tee/optee_os/lib/libutils/isoc/bget_malloc.c:906
    76c0:	eb05 01c2 	add.w	r1, r5, r2, lsl #3
    76c4:	f845 6032 	str.w	r6, [r5, r2, lsl #3]
/mnt/disk/raspbian-tee/optee_os/lib/libutils/isoc/bget_malloc.c:907
    76c8:	604c      	str	r4, [r1, #4]
/mnt/disk/raspbian-tee/optee_os/lib/libutils/isoc/bget_malloc.c:909
    76ca:	6a99      	ldr	r1, [r3, #40]	; 0x28
    76cc:	440c      	add	r4, r1
    76ce:	629c      	str	r4, [r3, #40]	; 0x28
    76d0:	e7c2      	b.n	7658 <malloc_add_pool+0x4c>
    76d2:	bf00      	nop
    76d4:	000011a8 	.word	0x000011a8
    76d8:	0000122e 	.word	0x0000122e
    76dc:	0000160e 	.word	0x0000160e
    76e0:	00001188 	.word	0x00001188
    76e4:	000015fe 	.word	0x000015fe
    76e8:	000029fc 	.word	0x000029fc
    76ec:	00004a3e 	.word	0x00004a3e
    76f0:	000029cc 	.word	0x000029cc
    76f4:	0000112a 	.word	0x0000112a
    76f8:	000011b0 	.word	0x000011b0
    76fc:	000015b4 	.word	0x000015b4
    7700:	000049f4 	.word	0x000049f4

00007704 <malloc_buffer_is_within_alloced>:
malloc_buffer_is_within_alloced():
/mnt/disk/raspbian-tee/optee_os/lib/libutils/isoc/bget_malloc.c:916
    7704:	b5f8      	push	{r3, r4, r5, r6, r7, lr}
/mnt/disk/raspbian-tee/optee_os/lib/libutils/isoc/bget_malloc.c:927
    7706:	1841      	adds	r1, r0, r1
    7708:	d253      	bcs.n	77b2 <malloc_buffer_is_within_alloced+0xae>
bpool_foreach_iterator_init():
/mnt/disk/raspbian-tee/optee_os/lib/libutils/isoc/bget_malloc.c:230
    770a:	4b2b      	ldr	r3, [pc, #172]	; (77b8 <malloc_buffer_is_within_alloced+0xb4>)
/mnt/disk/raspbian-tee/optee_os/lib/libutils/isoc/bget_malloc.c:229
    770c:	2500      	movs	r5, #0
    770e:	f06f 0707 	mvn.w	r7, #7
/mnt/disk/raspbian-tee/optee_os/lib/libutils/isoc/bget_malloc.c:230
    7712:	447b      	add	r3, pc
    7714:	6bde      	ldr	r6, [r3, #60]	; 0x3c
bpool_foreach():
/mnt/disk/raspbian-tee/optee_os/lib/libutils/isoc/bget_malloc.c:275
    7716:	f8d3 c038 	ldr.w	ip, [r3, #56]	; 0x38
bpool_foreach_iterator_init():
/mnt/disk/raspbian-tee/optee_os/lib/libutils/isoc/bget_malloc.c:230
    771a:	6833      	ldr	r3, [r6, #0]
bpool_foreach_pool():
/mnt/disk/raspbian-tee/optee_os/lib/libutils/isoc/bget_malloc.c:237
    771c:	685a      	ldr	r2, [r3, #4]
/mnt/disk/raspbian-tee/optee_os/lib/libutils/isoc/bget_malloc.c:239
    771e:	f1b2 4f00 	cmp.w	r2, #2147483648	; 0x80000000
    7722:	d043      	beq.n	77ac <malloc_buffer_is_within_alloced+0xa8>
/mnt/disk/raspbian-tee/optee_os/lib/libutils/isoc/bget_malloc.c:242
    7724:	2a00      	cmp	r2, #0
    7726:	da1e      	bge.n	7766 <malloc_buffer_is_within_alloced+0x62>
/mnt/disk/raspbian-tee/optee_os/lib/libutils/isoc/bget_malloc.c:244
    7728:	4254      	negs	r4, r2
/mnt/disk/raspbian-tee/optee_os/lib/libutils/isoc/bget_malloc.c:246
    772a:	f04f 0e00 	mov.w	lr, #0
/mnt/disk/raspbian-tee/optee_os/lib/libutils/isoc/bget_malloc.c:259
    772e:	441c      	add	r4, r3
bpool_foreach():
/mnt/disk/raspbian-tee/optee_os/lib/libutils/isoc/bget_malloc.c:270
    7730:	f1be 0f00 	cmp.w	lr, #0
    7734:	d115      	bne.n	7762 <malloc_buffer_is_within_alloced+0x5e>
    7736:	1aba      	subs	r2, r7, r2
bget_buf_size():
/mnt/disk/raspbian-tee/optee_os/lib/libutils/isoc/bget_malloc.c:612
    7738:	2a00      	cmp	r2, #0
    773a:	dc0c      	bgt.n	7756 <malloc_buffer_is_within_alloced+0x52>
    773c:	4b1f      	ldr	r3, [pc, #124]	; (77bc <malloc_buffer_is_within_alloced+0xb8>)
    773e:	f44f 7219 	mov.w	r2, #612	; 0x264
    7742:	491f      	ldr	r1, [pc, #124]	; (77c0 <malloc_buffer_is_within_alloced+0xbc>)
    7744:	481f      	ldr	r0, [pc, #124]	; (77c4 <malloc_buffer_is_within_alloced+0xc0>)
    7746:	447b      	add	r3, pc
    7748:	3369      	adds	r3, #105	; 0x69
    774a:	4479      	add	r1, pc
    774c:	4478      	add	r0, pc
bpool_foreach_pool():
/mnt/disk/raspbian-tee/optee_os/lib/libutils/isoc/bget_malloc.c:252
    774e:	f000 f8ef 	bl	7930 <_assert_log>
    7752:	f000 f901 	bl	7958 <_assert_break>
/mnt/disk/raspbian-tee/optee_os/lib/libutils/isoc/bget_malloc.c:256
    7756:	3308      	adds	r3, #8
malloc_buffer_is_within_alloced():
/mnt/disk/raspbian-tee/optee_os/lib/libutils/isoc/bget_malloc.c:938
    7758:	4298      	cmp	r0, r3
    775a:	d302      	bcc.n	7762 <malloc_buffer_is_within_alloced+0x5e>
/mnt/disk/raspbian-tee/optee_os/lib/libutils/isoc/bget_malloc.c:936 (discriminator 1)
    775c:	441a      	add	r2, r3
/mnt/disk/raspbian-tee/optee_os/lib/libutils/isoc/bget_malloc.c:938 (discriminator 1)
    775e:	4291      	cmp	r1, r2
    7760:	d922      	bls.n	77a8 <malloc_buffer_is_within_alloced+0xa4>
bpool_foreach():
/mnt/disk/raspbian-tee/optee_os/lib/libutils/isoc/bget_malloc.c:279
    7762:	4623      	mov	r3, r4
    7764:	e7da      	b.n	771c <malloc_buffer_is_within_alloced+0x18>
bpool_foreach_pool():
/mnt/disk/raspbian-tee/optee_os/lib/libutils/isoc/bget_malloc.c:252
    7766:	68dc      	ldr	r4, [r3, #12]
    7768:	68a4      	ldr	r4, [r4, #8]
    776a:	429c      	cmp	r4, r3
    776c:	d008      	beq.n	7780 <malloc_buffer_is_within_alloced+0x7c>
    776e:	4b16      	ldr	r3, [pc, #88]	; (77c8 <malloc_buffer_is_within_alloced+0xc4>)
    7770:	22fc      	movs	r2, #252	; 0xfc
    7772:	4916      	ldr	r1, [pc, #88]	; (77cc <malloc_buffer_is_within_alloced+0xc8>)
    7774:	4816      	ldr	r0, [pc, #88]	; (77d0 <malloc_buffer_is_within_alloced+0xcc>)
    7776:	447b      	add	r3, pc
    7778:	3377      	adds	r3, #119	; 0x77
    777a:	4479      	add	r1, pc
    777c:	4478      	add	r0, pc
    777e:	e7e6      	b.n	774e <malloc_buffer_is_within_alloced+0x4a>
/mnt/disk/raspbian-tee/optee_os/lib/libutils/isoc/bget_malloc.c:253
    7780:	689c      	ldr	r4, [r3, #8]
    7782:	68e4      	ldr	r4, [r4, #12]
    7784:	429c      	cmp	r4, r3
    7786:	d008      	beq.n	779a <malloc_buffer_is_within_alloced+0x96>
    7788:	4b12      	ldr	r3, [pc, #72]	; (77d4 <malloc_buffer_is_within_alloced+0xd0>)
    778a:	22fd      	movs	r2, #253	; 0xfd
    778c:	4912      	ldr	r1, [pc, #72]	; (77d8 <malloc_buffer_is_within_alloced+0xd4>)
    778e:	4813      	ldr	r0, [pc, #76]	; (77dc <malloc_buffer_is_within_alloced+0xd8>)
    7790:	447b      	add	r3, pc
    7792:	3377      	adds	r3, #119	; 0x77
    7794:	4479      	add	r1, pc
    7796:	4478      	add	r0, pc
    7798:	e7d9      	b.n	774e <malloc_buffer_is_within_alloced+0x4a>
    779a:	4614      	mov	r4, r2
/mnt/disk/raspbian-tee/optee_os/lib/libutils/isoc/bget_malloc.c:249
    779c:	f04f 0e01 	mov.w	lr, #1
    77a0:	e7c5      	b.n	772e <malloc_buffer_is_within_alloced+0x2a>
bpool_foreach():
/mnt/disk/raspbian-tee/optee_os/lib/libutils/isoc/bget_malloc.c:279
    77a2:	f856 4035 	ldr.w	r4, [r6, r5, lsl #3]
    77a6:	e7dc      	b.n	7762 <malloc_buffer_is_within_alloced+0x5e>
malloc_buffer_is_within_alloced():
/mnt/disk/raspbian-tee/optee_os/lib/libutils/isoc/bget_malloc.c:939
    77a8:	2001      	movs	r0, #1
/mnt/disk/raspbian-tee/optee_os/lib/libutils/isoc/bget_malloc.c:947
    77aa:	bdf8      	pop	{r3, r4, r5, r6, r7, pc}
bpool_foreach():
/mnt/disk/raspbian-tee/optee_os/lib/libutils/isoc/bget_malloc.c:275
    77ac:	3501      	adds	r5, #1
    77ae:	4565      	cmp	r5, ip
    77b0:	d3f7      	bcc.n	77a2 <malloc_buffer_is_within_alloced+0x9e>
malloc_buffer_is_within_alloced():
/mnt/disk/raspbian-tee/optee_os/lib/libutils/isoc/bget_malloc.c:921
    77b2:	2000      	movs	r0, #0
    77b4:	bdf8      	pop	{r3, r4, r5, r6, r7, pc}
    77b6:	bf00      	nop
    77b8:	0000499a 	.word	0x0000499a
    77bc:	0000108c 	.word	0x0000108c
    77c0:	00001112 	.word	0x00001112
    77c4:	00001393 	.word	0x00001393
    77c8:	0000105c 	.word	0x0000105c
    77cc:	000010e2 	.word	0x000010e2
    77d0:	00001203 	.word	0x00001203
    77d4:	00001042 	.word	0x00001042
    77d8:	000010c8 	.word	0x000010c8
    77dc:	00001204 	.word	0x00001204

000077e0 <malloc_buffer_overlaps_heap>:
malloc_buffer_overlaps_heap():
/mnt/disk/raspbian-tee/optee_os/lib/libutils/isoc/bget_malloc.c:960
    77e0:	4b11      	ldr	r3, [pc, #68]	; (7828 <malloc_buffer_overlaps_heap+0x48>)
    77e2:	eb10 0c01 	adds.w	ip, r0, r1
/mnt/disk/raspbian-tee/optee_os/lib/libutils/isoc/bget_malloc.c:951
    77e6:	b5f0      	push	{r4, r5, r6, r7, lr}
    77e8:	f04f 0101 	mov.w	r1, #1
/mnt/disk/raspbian-tee/optee_os/lib/libutils/isoc/bget_malloc.c:960
    77ec:	447b      	add	r3, pc
    77ee:	bf38      	it	cc
    77f0:	2100      	movcc	r1, #0
    77f2:	6b9f      	ldr	r7, [r3, #56]	; 0x38
/mnt/disk/raspbian-tee/optee_os/lib/libutils/isoc/bget_malloc.c:961
    77f4:	6bdd      	ldr	r5, [r3, #60]	; 0x3c
/mnt/disk/raspbian-tee/optee_os/lib/libutils/isoc/bget_malloc.c:960
    77f6:	2300      	movs	r3, #0
/mnt/disk/raspbian-tee/optee_os/lib/libutils/isoc/bget_malloc.c:960 (discriminator 1)
    77f8:	42bb      	cmp	r3, r7
    77fa:	d101      	bne.n	7800 <malloc_buffer_overlaps_heap+0x20>
/mnt/disk/raspbian-tee/optee_os/lib/libutils/isoc/bget_malloc.c:955
    77fc:	2000      	movs	r0, #0
    77fe:	bdf0      	pop	{r4, r5, r6, r7, pc}
/mnt/disk/raspbian-tee/optee_os/lib/libutils/isoc/bget_malloc.c:962
    7800:	eb05 02c3 	add.w	r2, r5, r3, lsl #3
/mnt/disk/raspbian-tee/optee_os/lib/libutils/isoc/bget_malloc.c:961
    7804:	f855 4033 	ldr.w	r4, [r5, r3, lsl #3]
    7808:	2600      	movs	r6, #0
    780a:	6852      	ldr	r2, [r2, #4]
    780c:	18a2      	adds	r2, r4, r2
    780e:	bf28      	it	cs
    7810:	2601      	movcs	r6, #1
/mnt/disk/raspbian-tee/optee_os/lib/libutils/isoc/bget_malloc.c:964
    7812:	b931      	cbnz	r1, 7822 <malloc_buffer_overlaps_heap+0x42>
/mnt/disk/raspbian-tee/optee_os/lib/libutils/isoc/bget_malloc.c:964 (discriminator 1)
    7814:	b92e      	cbnz	r6, 7822 <malloc_buffer_overlaps_heap+0x42>
/mnt/disk/raspbian-tee/optee_os/lib/libutils/isoc/bget_malloc.c:969
    7816:	45a4      	cmp	ip, r4
    7818:	d803      	bhi.n	7822 <malloc_buffer_overlaps_heap+0x42>
/mnt/disk/raspbian-tee/optee_os/lib/libutils/isoc/bget_malloc.c:969 (discriminator 1)
    781a:	4290      	cmp	r0, r2
    781c:	d301      	bcc.n	7822 <malloc_buffer_overlaps_heap+0x42>
/mnt/disk/raspbian-tee/optee_os/lib/libutils/isoc/bget_malloc.c:960 (discriminator 2)
    781e:	3301      	adds	r3, #1
    7820:	e7ea      	b.n	77f8 <malloc_buffer_overlaps_heap+0x18>
/mnt/disk/raspbian-tee/optee_os/lib/libutils/isoc/bget_malloc.c:965
    7822:	2001      	movs	r0, #1
/mnt/disk/raspbian-tee/optee_os/lib/libutils/isoc/bget_malloc.c:978
    7824:	bdf0      	pop	{r4, r5, r6, r7, pc}
    7826:	bf00      	nop
    7828:	000048c0 	.word	0x000048c0

0000782c <mempool_alloc_pool>:
mempool_alloc_pool():
/mnt/disk/raspbian-tee/optee_os/lib/libutils/ext/mempool.c:130
    782c:	b538      	push	{r3, r4, r5, lr}
    782e:	4604      	mov	r4, r0
    7830:	460d      	mov	r5, r1
/mnt/disk/raspbian-tee/optee_os/lib/libutils/ext/mempool.c:131
    7832:	2001      	movs	r0, #1
    7834:	210c      	movs	r1, #12
    7836:	f7ff fd51 	bl	72dc <calloc>
/mnt/disk/raspbian-tee/optee_os/lib/libutils/ext/mempool.c:134
    783a:	07a3      	lsls	r3, r4, #30
    783c:	d00a      	beq.n	7854 <mempool_alloc_pool+0x28>
/mnt/disk/raspbian-tee/optee_os/lib/libutils/ext/mempool.c:134 (discriminator 1)
    783e:	4b09      	ldr	r3, [pc, #36]	; (7864 <mempool_alloc_pool+0x38>)
    7840:	2286      	movs	r2, #134	; 0x86
    7842:	4909      	ldr	r1, [pc, #36]	; (7868 <mempool_alloc_pool+0x3c>)
    7844:	4809      	ldr	r0, [pc, #36]	; (786c <mempool_alloc_pool+0x40>)
    7846:	447b      	add	r3, pc
    7848:	4479      	add	r1, pc
    784a:	4478      	add	r0, pc
    784c:	f000 f870 	bl	7930 <_assert_log>
    7850:	f000 f882 	bl	7958 <_assert_break>
/mnt/disk/raspbian-tee/optee_os/lib/libutils/ext/mempool.c:136
    7854:	b120      	cbz	r0, 7860 <mempool_alloc_pool+0x34>
/mnt/disk/raspbian-tee/optee_os/lib/libutils/ext/mempool.c:139
    7856:	f04f 33ff 	mov.w	r3, #4294967295	; 0xffffffff
/mnt/disk/raspbian-tee/optee_os/lib/libutils/ext/mempool.c:137
    785a:	6005      	str	r5, [r0, #0]
/mnt/disk/raspbian-tee/optee_os/lib/libutils/ext/mempool.c:138
    785c:	6084      	str	r4, [r0, #8]
/mnt/disk/raspbian-tee/optee_os/lib/libutils/ext/mempool.c:139
    785e:	6043      	str	r3, [r0, #4]
/mnt/disk/raspbian-tee/optee_os/lib/libutils/ext/mempool.c:149
    7860:	bd38      	pop	{r3, r4, r5, pc}
    7862:	bf00      	nop
    7864:	0000141e 	.word	0x0000141e
    7868:	0000143d 	.word	0x0000143d
    786c:	00001456 	.word	0x00001456

00007870 <mempool_alloc>:
mempool_alloc():
/mnt/disk/raspbian-tee/optee_os/lib/libutils/ext/mempool.c:152
    7870:	b573      	push	{r0, r1, r4, r5, r6, lr}
/mnt/disk/raspbian-tee/optee_os/lib/libutils/ext/mempool.c:159
    7872:	6844      	ldr	r4, [r0, #4]
    7874:	6802      	ldr	r2, [r0, #0]
    7876:	2c00      	cmp	r4, #0
    7878:	db16      	blt.n	78a8 <mempool_alloc+0x38>
/mnt/disk/raspbian-tee/optee_os/lib/libutils/ext/mempool.c:162
    787a:	6886      	ldr	r6, [r0, #8]
/mnt/disk/raspbian-tee/optee_os/lib/libutils/ext/mempool.c:166
    787c:	1ce3      	adds	r3, r4, #3
/mnt/disk/raspbian-tee/optee_os/lib/libutils/ext/mempool.c:162
    787e:	19a5      	adds	r5, r4, r6
/mnt/disk/raspbian-tee/optee_os/lib/libutils/ext/mempool.c:166
    7880:	59a6      	ldr	r6, [r4, r6]
    7882:	4433      	add	r3, r6
    7884:	f023 0303 	bic.w	r3, r3, #3
/mnt/disk/raspbian-tee/optee_os/lib/libutils/ext/mempool.c:167
    7888:	4293      	cmp	r3, r2
    788a:	d90f      	bls.n	78ac <mempool_alloc+0x3c>
/mnt/disk/raspbian-tee/optee_os/lib/libutils/ext/mempool.c:194
    788c:	4b11      	ldr	r3, [pc, #68]	; (78d4 <mempool_alloc+0x64>)
    788e:	4812      	ldr	r0, [pc, #72]	; (78d8 <mempool_alloc+0x68>)
    7890:	447b      	add	r3, pc
    7892:	9300      	str	r3, [sp, #0]
    7894:	4478      	add	r0, pc
    7896:	2301      	movs	r3, #1
    7898:	9101      	str	r1, [sp, #4]
    789a:	3013      	adds	r0, #19
    789c:	461a      	mov	r2, r3
    789e:	21c2      	movs	r1, #194	; 0xc2
    78a0:	f7f8 fd06 	bl	2b0 <trace_printf>
/mnt/disk/raspbian-tee/optee_os/lib/libutils/ext/mempool.c:196
    78a4:	2000      	movs	r0, #0
    78a6:	e013      	b.n	78d0 <mempool_alloc+0x60>
/mnt/disk/raspbian-tee/optee_os/lib/libutils/ext/mempool.c:155
    78a8:	2500      	movs	r5, #0
/mnt/disk/raspbian-tee/optee_os/lib/libutils/ext/mempool.c:160
    78aa:	462b      	mov	r3, r5
/mnt/disk/raspbian-tee/optee_os/lib/libutils/ext/mempool.c:172
    78ac:	310f      	adds	r1, #15
    78ae:	f021 0103 	bic.w	r1, r1, #3
/mnt/disk/raspbian-tee/optee_os/lib/libutils/ext/mempool.c:173
    78b2:	185e      	adds	r6, r3, r1
    78b4:	4296      	cmp	r6, r2
    78b6:	d8e9      	bhi.n	788c <mempool_alloc+0x1c>
/mnt/disk/raspbian-tee/optee_os/lib/libutils/ext/mempool.c:176
    78b8:	6886      	ldr	r6, [r0, #8]
    78ba:	199a      	adds	r2, r3, r6
/mnt/disk/raspbian-tee/optee_os/lib/libutils/ext/mempool.c:177
    78bc:	5199      	str	r1, [r3, r6]
/mnt/disk/raspbian-tee/optee_os/lib/libutils/ext/mempool.c:178
    78be:	6054      	str	r4, [r2, #4]
/mnt/disk/raspbian-tee/optee_os/lib/libutils/ext/mempool.c:179
    78c0:	b105      	cbz	r5, 78c4 <mempool_alloc+0x54>
/mnt/disk/raspbian-tee/optee_os/lib/libutils/ext/mempool.c:180
    78c2:	60ab      	str	r3, [r5, #8]
/mnt/disk/raspbian-tee/optee_os/lib/libutils/ext/mempool.c:181
    78c4:	f04f 31ff 	mov.w	r1, #4294967295	; 0xffffffff
    78c8:	6091      	str	r1, [r2, #8]
/mnt/disk/raspbian-tee/optee_os/lib/libutils/ext/mempool.c:182
    78ca:	6043      	str	r3, [r0, #4]
/mnt/disk/raspbian-tee/optee_os/lib/libutils/ext/mempool.c:191
    78cc:	f102 000c 	add.w	r0, r2, #12
/mnt/disk/raspbian-tee/optee_os/lib/libutils/ext/mempool.c:197
    78d0:	b002      	add	sp, #8
    78d2:	bd70      	pop	{r4, r5, r6, pc}
    78d4:	00001434 	.word	0x00001434
    78d8:	000013d0 	.word	0x000013d0

000078dc <mempool_calloc>:
mempool_calloc():
/mnt/disk/raspbian-tee/optee_os/lib/libutils/ext/mempool.c:200
    78dc:	b570      	push	{r4, r5, r6, lr}
/mnt/disk/raspbian-tee/optee_os/lib/libutils/ext/mempool.c:204
    78de:	fba1 4502 	umull	r4, r5, r1, r2
    78e2:	b935      	cbnz	r5, 78f2 <mempool_calloc+0x16>
/mnt/disk/raspbian-tee/optee_os/lib/libutils/ext/mempool.c:207
    78e4:	4621      	mov	r1, r4
    78e6:	f7ff ffc3 	bl	7870 <mempool_alloc>
/mnt/disk/raspbian-tee/optee_os/lib/libutils/ext/mempool.c:208
    78ea:	4606      	mov	r6, r0
    78ec:	b918      	cbnz	r0, 78f6 <mempool_calloc+0x1a>
/mnt/disk/raspbian-tee/optee_os/lib/libutils/ext/mempool.c:212
    78ee:	4630      	mov	r0, r6
    78f0:	bd70      	pop	{r4, r5, r6, pc}
/mnt/disk/raspbian-tee/optee_os/lib/libutils/ext/mempool.c:205
    78f2:	2600      	movs	r6, #0
    78f4:	e7fb      	b.n	78ee <mempool_calloc+0x12>
/mnt/disk/raspbian-tee/optee_os/lib/libutils/ext/mempool.c:209
    78f6:	4622      	mov	r2, r4
    78f8:	4629      	mov	r1, r5
    78fa:	f000 f94c 	bl	7b96 <memset>
    78fe:	e7f6      	b.n	78ee <mempool_calloc+0x12>

00007900 <mempool_free>:
mempool_free():
/mnt/disk/raspbian-tee/optee_os/lib/libutils/ext/mempool.c:215
    7900:	b510      	push	{r4, lr}
/mnt/disk/raspbian-tee/optee_os/lib/libutils/ext/mempool.c:221
    7902:	b181      	cbz	r1, 7926 <mempool_free+0x26>
/mnt/disk/raspbian-tee/optee_os/lib/libutils/ext/mempool.c:224
    7904:	390c      	subs	r1, #12
/mnt/disk/raspbian-tee/optee_os/lib/libutils/ext/mempool.c:226
    7906:	684b      	ldr	r3, [r1, #4]
    7908:	2b00      	cmp	r3, #0
    790a:	db0d      	blt.n	7928 <mempool_free+0x28>
/mnt/disk/raspbian-tee/optee_os/lib/libutils/ext/mempool.c:229
    790c:	6882      	ldr	r2, [r0, #8]
    790e:	688c      	ldr	r4, [r1, #8]
    7910:	441a      	add	r2, r3
    7912:	6094      	str	r4, [r2, #8]
    7914:	461a      	mov	r2, r3
/mnt/disk/raspbian-tee/optee_os/lib/libutils/ext/mempool.c:233
    7916:	6889      	ldr	r1, [r1, #8]
    7918:	2900      	cmp	r1, #0
    791a:	db03      	blt.n	7924 <mempool_free+0x24>
/mnt/disk/raspbian-tee/optee_os/lib/libutils/ext/mempool.c:236
    791c:	6882      	ldr	r2, [r0, #8]
    791e:	440a      	add	r2, r1
    7920:	6053      	str	r3, [r2, #4]
/mnt/disk/raspbian-tee/optee_os/lib/libutils/ext/mempool.c:237
    7922:	6842      	ldr	r2, [r0, #4]
/mnt/disk/raspbian-tee/optee_os/lib/libutils/ext/mempool.c:240
    7924:	6042      	str	r2, [r0, #4]
    7926:	bd10      	pop	{r4, pc}
/mnt/disk/raspbian-tee/optee_os/lib/libutils/ext/mempool.c:219
    7928:	f04f 32ff 	mov.w	r2, #4294967295	; 0xffffffff
    792c:	e7f3      	b.n	7916 <mempool_free+0x16>
    792e:	bf00      	nop

00007930 <_assert_log>:
_assert_log():
/mnt/disk/raspbian-tee/optee_os/lib/libutee/assert.c:17
    7930:	b57f      	push	{r0, r1, r2, r3, r4, r5, r6, lr}
/mnt/disk/raspbian-tee/optee_os/lib/libutee/assert.c:18
    7932:	9304      	str	r3, [sp, #16]
    7934:	4b07      	ldr	r3, [pc, #28]	; (7954 <_assert_log+0x24>)
    7936:	9102      	str	r1, [sp, #8]
    7938:	2100      	movs	r1, #0
    793a:	447b      	add	r3, pc
    793c:	9300      	str	r3, [sp, #0]
    793e:	2301      	movs	r3, #1
    7940:	9203      	str	r2, [sp, #12]
    7942:	9001      	str	r0, [sp, #4]
    7944:	461a      	mov	r2, r3
    7946:	4608      	mov	r0, r1
    7948:	f7f8 fcb2 	bl	2b0 <trace_printf>
/mnt/disk/raspbian-tee/optee_os/lib/libutee/assert.c:20
    794c:	b007      	add	sp, #28
    794e:	f85d fb04 	ldr.w	pc, [sp], #4
    7952:	bf00      	nop
    7954:	000013c2 	.word	0x000013c2

00007958 <_assert_break>:
_assert_break():
/mnt/disk/raspbian-tee/optee_os/lib/libutee/assert.c:23
    7958:	b508      	push	{r3, lr}
/mnt/disk/raspbian-tee/optee_os/lib/libutee/assert.c:24
    795a:	4802      	ldr	r0, [pc, #8]	; (7964 <_assert_break+0xc>)
    795c:	f7fb eb00 	blx	2f60 <utee_panic>
    7960:	e7fe      	b.n	7960 <_assert_break+0x8>
    7962:	bf00      	nop
    7964:	ffff0000 	.word	0xffff0000

00007968 <tahead_get_trace_level>:
tahead_get_trace_level():
/workspace/optee_os/out/arm/export-ta_arm32/src/user_ta_header.c:107
    7968:	2004      	movs	r0, #4
    796a:	4770      	bx	lr

0000796c <__aeabi_unwind_cpp_pr0>:
__aeabi_unwind_cpp_pr0():
    796c:	4770      	bx	lr

0000796e <__aeabi_unwind_cpp_pr1>:
__aeabi_unwind_cpp_pr1():
    796e:	4770      	bx	lr

00007970 <__aeabi_unwind_cpp_pr2>:
__aeabi_unwind_cpp_pr2():
/mnt/disk/raspbian-tee/optee_os/lib/libutils/ext/arch/arm/aeabi_unwind.c:18
    7970:	4770      	bx	lr

00007972 <memchr>:
memchr():
/mnt/disk/raspbian-tee/optee_os/lib/libutils/isoc/newlib/memchr.c:109
    7972:	b2c9      	uxtb	r1, r1
    7974:	4402      	add	r2, r0
/mnt/disk/raspbian-tee/optee_os/lib/libutils/isoc/newlib/memchr.c:107
    7976:	b510      	push	{r4, lr}
    7978:	4603      	mov	r3, r0
/mnt/disk/raspbian-tee/optee_os/lib/libutils/isoc/newlib/memchr.c:153
    797a:	4290      	cmp	r0, r2
    797c:	d101      	bne.n	7982 <memchr+0x10>
/mnt/disk/raspbian-tee/optee_os/lib/libutils/isoc/newlib/memchr.c:159
    797e:	2000      	movs	r0, #0
    7980:	bd10      	pop	{r4, pc}
/mnt/disk/raspbian-tee/optee_os/lib/libutils/isoc/newlib/memchr.c:154
    7982:	781c      	ldrb	r4, [r3, #0]
    7984:	3001      	adds	r0, #1
    7986:	428c      	cmp	r4, r1
    7988:	d1f6      	bne.n	7978 <memchr+0x6>
    798a:	4618      	mov	r0, r3
/mnt/disk/raspbian-tee/optee_os/lib/libutils/isoc/newlib/memchr.c:160
    798c:	bd10      	pop	{r4, pc}

0000798e <strlen>:
strlen():
/mnt/disk/raspbian-tee/optee_os/lib/libutils/isoc/newlib/strlen.c:92
    798e:	4603      	mov	r3, r0
/mnt/disk/raspbian-tee/optee_os/lib/libutils/isoc/newlib/strlen.c:117
    7990:	781a      	ldrb	r2, [r3, #0]
    7992:	1c59      	adds	r1, r3, #1
    7994:	b90a      	cbnz	r2, 799a <strlen+0xc>
/mnt/disk/raspbian-tee/optee_os/lib/libutils/isoc/newlib/strlen.c:120
    7996:	1a18      	subs	r0, r3, r0
    7998:	4770      	bx	lr
    799a:	460b      	mov	r3, r1
    799c:	e7f8      	b.n	7990 <strlen+0x2>

0000799e <__ul_divmod>:
__ul_divmod():
/mnt/disk/raspbian-tee/optee_os/lib/libutils/isoc/arch/arm/arm32_aeabi_ldivmod.c:68
    799e:	e9d0 2302 	ldrd	r2, r3, [r0, #8]
/mnt/disk/raspbian-tee/optee_os/lib/libutils/isoc/arch/arm/arm32_aeabi_ldivmod.c:66
    79a2:	e92d 43f0 	stmdb	sp!, {r4, r5, r6, r7, r8, r9, lr}
division_lqr():
/mnt/disk/raspbian-tee/optee_os/lib/libutils/isoc/arch/arm/arm32_aeabi_ldivmod.c:22
    79a6:	ea52 0103 	orrs.w	r1, r2, r3
__ul_divmod():
/mnt/disk/raspbian-tee/optee_os/lib/libutils/isoc/arch/arm/arm32_aeabi_ldivmod.c:67
    79aa:	e9d0 8900 	ldrd	r8, r9, [r0]
division_lqr():
/mnt/disk/raspbian-tee/optee_os/lib/libutils/isoc/arch/arm/arm32_aeabi_ldivmod.c:22
    79ae:	d02b      	beq.n	7a08 <__ul_divmod+0x6a>
    79b0:	2601      	movs	r6, #1
    79b2:	2700      	movs	r7, #0
    79b4:	4614      	mov	r4, r2
    79b6:	461d      	mov	r5, r3
/mnt/disk/raspbian-tee/optee_os/lib/libutils/isoc/arch/arm/arm32_aeabi_ldivmod.c:27
    79b8:	2c00      	cmp	r4, #0
    79ba:	f175 0300 	sbcs.w	r3, r5, #0
    79be:	da0a      	bge.n	79d6 <__ul_divmod+0x38>
    79c0:	2200      	movs	r2, #0
    79c2:	2300      	movs	r3, #0
/mnt/disk/raspbian-tee/optee_os/lib/libutils/isoc/arch/arm/arm32_aeabi_ldivmod.c:32
    79c4:	ea56 0107 	orrs.w	r1, r6, r7
    79c8:	d10a      	bne.n	79e0 <__ul_divmod+0x42>
__ul_divmod():
/mnt/disk/raspbian-tee/optee_os/lib/libutils/isoc/arch/arm/arm32_aeabi_ldivmod.c:73
    79ca:	e9c0 2300 	strd	r2, r3, [r0]
/mnt/disk/raspbian-tee/optee_os/lib/libutils/isoc/arch/arm/arm32_aeabi_ldivmod.c:74
    79ce:	e9c0 8902 	strd	r8, r9, [r0, #8]
    79d2:	e8bd 83f0 	ldmia.w	sp!, {r4, r5, r6, r7, r8, r9, pc}
division_lqr():
/mnt/disk/raspbian-tee/optee_os/lib/libutils/isoc/arch/arm/arm32_aeabi_ldivmod.c:28
    79d6:	19b6      	adds	r6, r6, r6
    79d8:	417f      	adcs	r7, r7
/mnt/disk/raspbian-tee/optee_os/lib/libutils/isoc/arch/arm/arm32_aeabi_ldivmod.c:29
    79da:	1924      	adds	r4, r4, r4
    79dc:	416d      	adcs	r5, r5
    79de:	e7eb      	b.n	79b8 <__ul_divmod+0x1a>
/mnt/disk/raspbian-tee/optee_os/lib/libutils/isoc/arch/arm/arm32_aeabi_ldivmod.c:33
    79e0:	1892      	adds	r2, r2, r2
    79e2:	415b      	adcs	r3, r3
/mnt/disk/raspbian-tee/optee_os/lib/libutils/isoc/arch/arm/arm32_aeabi_ldivmod.c:34
    79e4:	45a9      	cmp	r9, r5
    79e6:	bf08      	it	eq
    79e8:	45a0      	cmpeq	r8, r4
    79ea:	d306      	bcc.n	79fa <__ul_divmod+0x5c>
/mnt/disk/raspbian-tee/optee_os/lib/libutils/isoc/arch/arm/arm32_aeabi_ldivmod.c:35
    79ec:	ebb8 0804 	subs.w	r8, r8, r4
    79f0:	eb69 0905 	sbc.w	r9, r9, r5
/mnt/disk/raspbian-tee/optee_os/lib/libutils/isoc/arch/arm/arm32_aeabi_ldivmod.c:36
    79f4:	3201      	adds	r2, #1
    79f6:	f143 0300 	adc.w	r3, r3, #0
/mnt/disk/raspbian-tee/optee_os/lib/libutils/isoc/arch/arm/arm32_aeabi_ldivmod.c:38
    79fa:	086d      	lsrs	r5, r5, #1
    79fc:	ea4f 0434 	mov.w	r4, r4, rrx
/mnt/disk/raspbian-tee/optee_os/lib/libutils/isoc/arch/arm/arm32_aeabi_ldivmod.c:39
    7a00:	087f      	lsrs	r7, r7, #1
    7a02:	ea4f 0636 	mov.w	r6, r6, rrx
    7a06:	e7dd      	b.n	79c4 <__ul_divmod+0x26>
/mnt/disk/raspbian-tee/optee_os/lib/libutils/isoc/arch/arm/arm32_aeabi_ldivmod.c:23
    7a08:	f04f 38ff 	mov.w	r8, #4294967295	; 0xffffffff
    7a0c:	f04f 39ff 	mov.w	r9, #4294967295	; 0xffffffff
    7a10:	e7db      	b.n	79ca <__ul_divmod+0x2c>

00007a12 <__l_divmod>:
__l_divmod():
/mnt/disk/raspbian-tee/optee_os/lib/libutils/isoc/arch/arm/arm32_aeabi_ldivmod.c:85
    7a12:	e92d 43f0 	stmdb	sp!, {r4, r5, r6, r7, r8, r9, lr}
/mnt/disk/raspbian-tee/optee_os/lib/libutils/isoc/arch/arm/arm32_aeabi_ldivmod.c:86
    7a16:	e9d0 4500 	ldrd	r4, r5, [r0]
/mnt/disk/raspbian-tee/optee_os/lib/libutils/isoc/arch/arm/arm32_aeabi_ldivmod.c:87
    7a1a:	e9d0 2302 	ldrd	r2, r3, [r0, #8]
/mnt/disk/raspbian-tee/optee_os/lib/libutils/isoc/arch/arm/arm32_aeabi_ldivmod.c:90
    7a1e:	2c00      	cmp	r4, #0
    7a20:	f175 0100 	sbcs.w	r1, r5, #0
    7a24:	da35      	bge.n	7a92 <__l_divmod+0x80>
/mnt/disk/raspbian-tee/optee_os/lib/libutils/isoc/arch/arm/arm32_aeabi_ldivmod.c:90 (discriminator 1)
    7a26:	2a01      	cmp	r2, #1
    7a28:	f173 0100 	sbcs.w	r1, r3, #0
    7a2c:	f04f 0101 	mov.w	r1, #1
    7a30:	bfb8      	it	lt
    7a32:	2100      	movlt	r1, #0
/mnt/disk/raspbian-tee/optee_os/lib/libutils/isoc/arch/arm/arm32_aeabi_ldivmod.c:94 (discriminator 1)
    7a34:	4264      	negs	r4, r4
/mnt/disk/raspbian-tee/optee_os/lib/libutils/isoc/arch/arm/arm32_aeabi_ldivmod.c:90 (discriminator 1)
    7a36:	468c      	mov	ip, r1
/mnt/disk/raspbian-tee/optee_os/lib/libutils/isoc/arch/arm/arm32_aeabi_ldivmod.c:94 (discriminator 1)
    7a38:	eb65 0545 	sbc.w	r5, r5, r5, lsl #1
division_lqr():
/mnt/disk/raspbian-tee/optee_os/lib/libutils/isoc/arch/arm/arm32_aeabi_ldivmod.c:22 (discriminator 1)
    7a3c:	ea52 0103 	orrs.w	r1, r2, r3
__l_divmod():
/mnt/disk/raspbian-tee/optee_os/lib/libutils/isoc/arch/arm/arm32_aeabi_ldivmod.c:95 (discriminator 1)
    7a40:	f04f 0101 	mov.w	r1, #1
division_lqr():
/mnt/disk/raspbian-tee/optee_os/lib/libutils/isoc/arch/arm/arm32_aeabi_ldivmod.c:22 (discriminator 1)
    7a44:	d04b      	beq.n	7ade <__l_divmod+0xcc>
__l_divmod():
/mnt/disk/raspbian-tee/optee_os/lib/libutils/isoc/arch/arm/arm32_aeabi_ldivmod.c:100
    7a46:	2a00      	cmp	r2, #0
    7a48:	f173 0600 	sbcs.w	r6, r3, #0
    7a4c:	da02      	bge.n	7a54 <__l_divmod+0x42>
    7a4e:	4252      	negs	r2, r2
    7a50:	eb63 0343 	sbc.w	r3, r3, r3, lsl #1
    7a54:	4616      	mov	r6, r2
    7a56:	461f      	mov	r7, r3
    7a58:	f04f 0801 	mov.w	r8, #1
    7a5c:	f04f 0900 	mov.w	r9, #0
division_lqr():
/mnt/disk/raspbian-tee/optee_os/lib/libutils/isoc/arch/arm/arm32_aeabi_ldivmod.c:27
    7a60:	2e00      	cmp	r6, #0
    7a62:	f177 0300 	sbcs.w	r3, r7, #0
    7a66:	da1f      	bge.n	7aa8 <__l_divmod+0x96>
__l_divmod():
/mnt/disk/raspbian-tee/optee_os/lib/libutils/isoc/arch/arm/arm32_aeabi_ldivmod.c:100
    7a68:	2200      	movs	r2, #0
    7a6a:	2300      	movs	r3, #0
division_lqr():
/mnt/disk/raspbian-tee/optee_os/lib/libutils/isoc/arch/arm/arm32_aeabi_ldivmod.c:32
    7a6c:	ea58 0e09 	orrs.w	lr, r8, r9
    7a70:	d121      	bne.n	7ab6 <__l_divmod+0xa4>
ul_div_qr():
/mnt/disk/raspbian-tee/optee_os/lib/libutils/isoc/arch/arm/arm32_aeabi_ldivmod.c:52
    7a72:	f1bc 0f00 	cmp.w	ip, #0
    7a76:	d002      	beq.n	7a7e <__l_divmod+0x6c>
/mnt/disk/raspbian-tee/optee_os/lib/libutils/isoc/arch/arm/arm32_aeabi_ldivmod.c:53
    7a78:	4252      	negs	r2, r2
    7a7a:	eb63 0343 	sbc.w	r3, r3, r3, lsl #1
/mnt/disk/raspbian-tee/optee_os/lib/libutils/isoc/arch/arm/arm32_aeabi_ldivmod.c:54
    7a7e:	b111      	cbz	r1, 7a86 <__l_divmod+0x74>
/mnt/disk/raspbian-tee/optee_os/lib/libutils/isoc/arch/arm/arm32_aeabi_ldivmod.c:55
    7a80:	4264      	negs	r4, r4
    7a82:	eb65 0545 	sbc.w	r5, r5, r5, lsl #1
__l_divmod():
/mnt/disk/raspbian-tee/optee_os/lib/libutils/isoc/arch/arm/arm32_aeabi_ldivmod.c:102
    7a86:	e9c0 2300 	strd	r2, r3, [r0]
/mnt/disk/raspbian-tee/optee_os/lib/libutils/isoc/arch/arm/arm32_aeabi_ldivmod.c:103
    7a8a:	e9c0 4502 	strd	r4, r5, [r0, #8]
/mnt/disk/raspbian-tee/optee_os/lib/libutils/isoc/arch/arm/arm32_aeabi_ldivmod.c:104
    7a8e:	e8bd 83f0 	ldmia.w	sp!, {r4, r5, r6, r7, r8, r9, pc}
/mnt/disk/raspbian-tee/optee_os/lib/libutils/isoc/arch/arm/arm32_aeabi_ldivmod.c:90 (discriminator 3)
    7a92:	ea54 0105 	orrs.w	r1, r4, r5
    7a96:	d02c      	beq.n	7af2 <__l_divmod+0xe0>
/mnt/disk/raspbian-tee/optee_os/lib/libutils/isoc/arch/arm/arm32_aeabi_ldivmod.c:91
    7a98:	2a00      	cmp	r2, #0
    7a9a:	f173 0100 	sbcs.w	r1, r3, #0
    7a9e:	da28      	bge.n	7af2 <__l_divmod+0xe0>
/mnt/disk/raspbian-tee/optee_os/lib/libutils/isoc/arch/arm/arm32_aeabi_ldivmod.c:88
    7aa0:	2100      	movs	r1, #0
/mnt/disk/raspbian-tee/optee_os/lib/libutils/isoc/arch/arm/arm32_aeabi_ldivmod.c:92
    7aa2:	f04f 0c01 	mov.w	ip, #1
    7aa6:	e7ce      	b.n	7a46 <__l_divmod+0x34>
division_lqr():
/mnt/disk/raspbian-tee/optee_os/lib/libutils/isoc/arch/arm/arm32_aeabi_ldivmod.c:28
    7aa8:	eb18 0808 	adds.w	r8, r8, r8
    7aac:	eb49 0909 	adc.w	r9, r9, r9
/mnt/disk/raspbian-tee/optee_os/lib/libutils/isoc/arch/arm/arm32_aeabi_ldivmod.c:29
    7ab0:	19b6      	adds	r6, r6, r6
    7ab2:	417f      	adcs	r7, r7
    7ab4:	e7d4      	b.n	7a60 <__l_divmod+0x4e>
/mnt/disk/raspbian-tee/optee_os/lib/libutils/isoc/arch/arm/arm32_aeabi_ldivmod.c:33
    7ab6:	1892      	adds	r2, r2, r2
    7ab8:	415b      	adcs	r3, r3
/mnt/disk/raspbian-tee/optee_os/lib/libutils/isoc/arch/arm/arm32_aeabi_ldivmod.c:34
    7aba:	42bd      	cmp	r5, r7
    7abc:	bf08      	it	eq
    7abe:	42b4      	cmpeq	r4, r6
    7ac0:	d305      	bcc.n	7ace <__l_divmod+0xbc>
/mnt/disk/raspbian-tee/optee_os/lib/libutils/isoc/arch/arm/arm32_aeabi_ldivmod.c:35
    7ac2:	1ba4      	subs	r4, r4, r6
    7ac4:	eb65 0507 	sbc.w	r5, r5, r7
/mnt/disk/raspbian-tee/optee_os/lib/libutils/isoc/arch/arm/arm32_aeabi_ldivmod.c:36
    7ac8:	3201      	adds	r2, #1
    7aca:	f143 0300 	adc.w	r3, r3, #0
/mnt/disk/raspbian-tee/optee_os/lib/libutils/isoc/arch/arm/arm32_aeabi_ldivmod.c:38
    7ace:	087f      	lsrs	r7, r7, #1
    7ad0:	ea4f 0636 	mov.w	r6, r6, rrx
/mnt/disk/raspbian-tee/optee_os/lib/libutils/isoc/arch/arm/arm32_aeabi_ldivmod.c:39
    7ad4:	ea5f 0959 	movs.w	r9, r9, lsr #1
    7ad8:	ea4f 0838 	mov.w	r8, r8, rrx
    7adc:	e7c6      	b.n	7a6c <__l_divmod+0x5a>
/mnt/disk/raspbian-tee/optee_os/lib/libutils/isoc/arch/arm/arm32_aeabi_ldivmod.c:23
    7ade:	f04f 34ff 	mov.w	r4, #4294967295	; 0xffffffff
    7ae2:	f04f 35ff 	mov.w	r5, #4294967295	; 0xffffffff
    7ae6:	e7c4      	b.n	7a72 <__l_divmod+0x60>
    7ae8:	f04f 34ff 	mov.w	r4, #4294967295	; 0xffffffff
    7aec:	f04f 35ff 	mov.w	r5, #4294967295	; 0xffffffff
    7af0:	e7c9      	b.n	7a86 <__l_divmod+0x74>
/mnt/disk/raspbian-tee/optee_os/lib/libutils/isoc/arch/arm/arm32_aeabi_ldivmod.c:22
    7af2:	ea52 0103 	orrs.w	r1, r2, r3
    7af6:	d0f7      	beq.n	7ae8 <__l_divmod+0xd6>
    7af8:	2100      	movs	r1, #0
    7afa:	468c      	mov	ip, r1
    7afc:	e7a3      	b.n	7a46 <__l_divmod+0x34>

00007afe <TEE_Panic>:
TEE_Panic():
/mnt/disk/raspbian-tee/optee_os/lib/libutee/tee_api_panic.c:12
    7afe:	f000 b883 	b.w	7c08 <__utee_panic_from_thumb>

00007b02 <snprintf>:
snprintf():
/mnt/disk/raspbian-tee/optee_os/lib/libutils/isoc/snprintf.c:10
    7b02:	b40c      	push	{r2, r3}
    7b04:	b51f      	push	{r0, r1, r2, r3, r4, lr}
/mnt/disk/raspbian-tee/optee_os/lib/libutils/isoc/snprintf.c:15
    7b06:	2400      	movs	r4, #0
/mnt/disk/raspbian-tee/optee_os/lib/libutils/isoc/snprintf.c:10
    7b08:	ab06      	add	r3, sp, #24
    7b0a:	f853 2b04 	ldr.w	r2, [r3], #4
/mnt/disk/raspbian-tee/optee_os/lib/libutils/isoc/snprintf.c:15
    7b0e:	9400      	str	r4, [sp, #0]
/mnt/disk/raspbian-tee/optee_os/lib/libutils/isoc/snprintf.c:14
    7b10:	9303      	str	r3, [sp, #12]
/mnt/disk/raspbian-tee/optee_os/lib/libutils/isoc/snprintf.c:15
    7b12:	f7f8 fceb 	bl	4ec <__vsnprintf>
/mnt/disk/raspbian-tee/optee_os/lib/libutils/isoc/snprintf.c:19
    7b16:	b004      	add	sp, #16
    7b18:	e8bd 4010 	ldmia.w	sp!, {r4, lr}
    7b1c:	b002      	add	sp, #8
    7b1e:	4770      	bx	lr

00007b20 <vsnprintf>:
vsnprintf():
/mnt/disk/raspbian-tee/optee_os/lib/libutils/isoc/snprintf.c:22
    7b20:	b513      	push	{r0, r1, r4, lr}
/mnt/disk/raspbian-tee/optee_os/lib/libutils/isoc/snprintf.c:23
    7b22:	2400      	movs	r4, #0
    7b24:	9400      	str	r4, [sp, #0]
    7b26:	f7f8 fce1 	bl	4ec <__vsnprintf>
/mnt/disk/raspbian-tee/optee_os/lib/libutils/isoc/snprintf.c:24
    7b2a:	b002      	add	sp, #8
    7b2c:	bd10      	pop	{r4, pc}

00007b2e <memcmp>:
memcmp():
/mnt/disk/raspbian-tee/optee_os/lib/libutils/isoc/newlib/memcmp.c:85
    7b2e:	3901      	subs	r1, #1
    7b30:	4402      	add	r2, r0
    7b32:	b510      	push	{r4, lr}
/mnt/disk/raspbian-tee/optee_os/lib/libutils/isoc/newlib/memcmp.c:90
    7b34:	4290      	cmp	r0, r2
    7b36:	d101      	bne.n	7b3c <memcmp+0xe>
/mnt/disk/raspbian-tee/optee_os/lib/libutils/isoc/newlib/memcmp.c:96
    7b38:	2000      	movs	r0, #0
/mnt/disk/raspbian-tee/optee_os/lib/libutils/isoc/newlib/memcmp.c:136
    7b3a:	bd10      	pop	{r4, pc}
/mnt/disk/raspbian-tee/optee_os/lib/libutils/isoc/newlib/memcmp.c:91
    7b3c:	f810 3b01 	ldrb.w	r3, [r0], #1
    7b40:	f811 4f01 	ldrb.w	r4, [r1, #1]!
    7b44:	42a3      	cmp	r3, r4
    7b46:	d0f5      	beq.n	7b34 <memcmp+0x6>
/mnt/disk/raspbian-tee/optee_os/lib/libutils/isoc/newlib/memcmp.c:92
    7b48:	1b18      	subs	r0, r3, r4
    7b4a:	bd10      	pop	{r4, pc}

00007b4c <memcpy>:
memcpy():
/mnt/disk/raspbian-tee/optee_os/lib/libutils/isoc/newlib/memcpy.c:87
    7b4c:	1e43      	subs	r3, r0, #1
    7b4e:	440a      	add	r2, r1
    7b50:	b510      	push	{r4, lr}
/mnt/disk/raspbian-tee/optee_os/lib/libutils/isoc/newlib/memcpy.c:94
    7b52:	4291      	cmp	r1, r2
    7b54:	d100      	bne.n	7b58 <memcpy+0xc>
/mnt/disk/raspbian-tee/optee_os/lib/libutils/isoc/newlib/memcpy.c:135
    7b56:	bd10      	pop	{r4, pc}
/mnt/disk/raspbian-tee/optee_os/lib/libutils/isoc/newlib/memcpy.c:95
    7b58:	f811 4b01 	ldrb.w	r4, [r1], #1
    7b5c:	f803 4f01 	strb.w	r4, [r3, #1]!
    7b60:	e7f7      	b.n	7b52 <memcpy+0x6>

00007b62 <memmove>:
memmove():
/mnt/disk/raspbian-tee/optee_os/lib/libutils/isoc/newlib/memmove.c:91
    7b62:	b510      	push	{r4, lr}
/mnt/disk/raspbian-tee/optee_os/lib/libutils/isoc/newlib/memmove.c:96
    7b64:	4288      	cmp	r0, r1
    7b66:	eb01 0302 	add.w	r3, r1, r2
    7b6a:	d803      	bhi.n	7b74 <memmove+0x12>
    7b6c:	1e42      	subs	r2, r0, #1
/mnt/disk/raspbian-tee/optee_os/lib/libutils/isoc/newlib/memmove.c:103
    7b6e:	4299      	cmp	r1, r3
    7b70:	d10c      	bne.n	7b8c <memmove+0x2a>
/mnt/disk/raspbian-tee/optee_os/lib/libutils/isoc/newlib/memmove.c:157
    7b72:	bd10      	pop	{r4, pc}
/mnt/disk/raspbian-tee/optee_os/lib/libutils/isoc/newlib/memmove.c:96 (discriminator 1)
    7b74:	4298      	cmp	r0, r3
    7b76:	d2f9      	bcs.n	7b6c <memmove+0xa>
/mnt/disk/raspbian-tee/optee_os/lib/libutils/isoc/newlib/memmove.c:99
    7b78:	1881      	adds	r1, r0, r2
    7b7a:	1ad2      	subs	r2, r2, r3
/mnt/disk/raspbian-tee/optee_os/lib/libutils/isoc/newlib/memmove.c:100
    7b7c:	42d3      	cmn	r3, r2
    7b7e:	d100      	bne.n	7b82 <memmove+0x20>
    7b80:	bd10      	pop	{r4, pc}
/mnt/disk/raspbian-tee/optee_os/lib/libutils/isoc/newlib/memmove.c:101
    7b82:	f813 4d01 	ldrb.w	r4, [r3, #-1]!
    7b86:	f801 4d01 	strb.w	r4, [r1, #-1]!
    7b8a:	e7f7      	b.n	7b7c <memmove+0x1a>
/mnt/disk/raspbian-tee/optee_os/lib/libutils/isoc/newlib/memmove.c:104
    7b8c:	f811 4b01 	ldrb.w	r4, [r1], #1
    7b90:	f802 4f01 	strb.w	r4, [r2, #1]!
    7b94:	e7eb      	b.n	7b6e <memmove+0xc>

00007b96 <memset>:
memset():
/mnt/disk/raspbian-tee/optee_os/lib/libutils/isoc/newlib/memset.c:76
    7b96:	4402      	add	r2, r0
/mnt/disk/raspbian-tee/optee_os/lib/libutils/isoc/newlib/memset.c:77
    7b98:	4603      	mov	r3, r0
/mnt/disk/raspbian-tee/optee_os/lib/libutils/isoc/newlib/memset.c:125
    7b9a:	4293      	cmp	r3, r2
    7b9c:	d100      	bne.n	7ba0 <memset+0xa>
/mnt/disk/raspbian-tee/optee_os/lib/libutils/isoc/newlib/memset.c:129
    7b9e:	4770      	bx	lr
/mnt/disk/raspbian-tee/optee_os/lib/libutils/isoc/newlib/memset.c:126
    7ba0:	f803 1b01 	strb.w	r1, [r3], #1
    7ba4:	e7f9      	b.n	7b9a <memset+0x4>

00007ba6 <buf_compare_ct>:
buf_compare_ct():
/mnt/disk/raspbian-tee/optee_os/lib/libutils/ext/buf_compare_ct.c:8
    7ba6:	3801      	subs	r0, #1
    7ba8:	440a      	add	r2, r1
/mnt/disk/raspbian-tee/optee_os/lib/libutils/ext/buf_compare_ct.c:9
    7baa:	2300      	movs	r3, #0
/mnt/disk/raspbian-tee/optee_os/lib/libutils/ext/buf_compare_ct.c:8
    7bac:	b530      	push	{r4, r5, lr}
/mnt/disk/raspbian-tee/optee_os/lib/libutils/ext/buf_compare_ct.c:13
    7bae:	4291      	cmp	r1, r2
    7bb0:	d108      	bne.n	7bc4 <buf_compare_ct+0x1e>
/mnt/disk/raspbian-tee/optee_os/lib/libutils/ext/buf_compare_ct.c:19
    7bb2:	ea43 1323 	orr.w	r3, r3, r3, asr #4
/mnt/disk/raspbian-tee/optee_os/lib/libutils/ext/buf_compare_ct.c:20
    7bb6:	ea43 03a3 	orr.w	r3, r3, r3, asr #2
/mnt/disk/raspbian-tee/optee_os/lib/libutils/ext/buf_compare_ct.c:21
    7bba:	ea43 0363 	orr.w	r3, r3, r3, asr #1
/mnt/disk/raspbian-tee/optee_os/lib/libutils/ext/buf_compare_ct.c:25
    7bbe:	f003 0001 	and.w	r0, r3, #1
    7bc2:	bd30      	pop	{r4, r5, pc}
/mnt/disk/raspbian-tee/optee_os/lib/libutils/ext/buf_compare_ct.c:14
    7bc4:	f810 4f01 	ldrb.w	r4, [r0, #1]!
    7bc8:	f811 5b01 	ldrb.w	r5, [r1], #1
    7bcc:	406c      	eors	r4, r5
    7bce:	4323      	orrs	r3, r4
    7bd0:	e7ed      	b.n	7bae <buf_compare_ct+0x8>
    7bd2:	0000      	movs	r0, r0
    7bd4:	0000      	movs	r0, r0
	...

00007bd8 <__utee_check_access_rights_from_thumb>:
__utee_check_access_rights_from_thumb():
    7bd8:	4778      	bx	pc
    7bda:	46c0      	nop			; (mov r8, r8)
    7bdc:	e59fc000 	ldr	ip, [pc]	; 7be4 <__utee_check_access_rights_from_thumb+0xc>
    7be0:	e08cf00f 	add	pc, ip, pc
    7be4:	ffffb44c 	.word	0xffffb44c

00007be8 <__utee_cache_operation_from_thumb>:
__utee_cache_operation_from_thumb():
    7be8:	4778      	bx	pc
    7bea:	46c0      	nop			; (mov r8, r8)
    7bec:	e59fc000 	ldr	ip, [pc]	; 7bf4 <__utee_cache_operation_from_thumb+0xc>
    7bf0:	e08cf00f 	add	pc, ip, pc
    7bf4:	ffffb804 	.word	0xffffb804

00007bf8 <__utee_log_from_thumb>:
__utee_log_from_thumb():
    7bf8:	4778      	bx	pc
    7bfa:	46c0      	nop			; (mov r8, r8)
    7bfc:	e59fc000 	ldr	ip, [pc]	; 7c04 <__utee_log_from_thumb+0xc>
    7c00:	e08cf00f 	add	pc, ip, pc
    7c04:	ffffb380 	.word	0xffffb380

00007c08 <__utee_panic_from_thumb>:
__utee_panic_from_thumb():
    7c08:	4778      	bx	pc
    7c0a:	46c0      	nop			; (mov r8, r8)
    7c0c:	e59fc000 	ldr	ip, [pc]	; 7c14 <__utee_panic_from_thumb+0xc>
    7c10:	e08cf00f 	add	pc, ip, pc
    7c14:	ffffb348 	.word	0xffffb348
