
a734eed9-d6a1-4244-aa50-7c99719e7b7b.elf:     file format elf32-littlearm
a734eed9-d6a1-4244-aa50-7c99719e7b7b.elf
architecture: armv8-a, flags 0x00000150:
HAS_SYMS, DYNAMIC, D_PAGED
start address 0x00000020

Program Header:
0x70000001 off    0x00018ea4 vaddr 0x00008ea4 paddr 0x00008ea4 align 2**2
         filesz 0x00000640 memsz 0x00000640 flags r--
    LOAD off    0x00010000 vaddr 0x00000000 paddr 0x00000000 align 2**16
         filesz 0x00007c50 memsz 0x00007c50 flags r-x
    LOAD off    0x00017c50 vaddr 0x00007c50 paddr 0x00007c50 align 2**16
         filesz 0x00001aa8 memsz 0x00001aa8 flags r--
    LOAD off    0x0001a000 vaddr 0x0000a000 paddr 0x0000a000 align 2**16
         filesz 0x00000084 memsz 0x0000a0f8 flags rw-
 DYNAMIC off    0x00019624 vaddr 0x00009624 paddr 0x00009624 align 2**2
         filesz 0x00000088 memsz 0x00000088 flags rw-

Dynamic Section:
  HASH                 0x000096e0
  GNU_HASH             0x00008e5c
  STRTAB               0x000096dc
  SYMTAB               0x000096ac
  STRSZ                0x00000001
  SYMENT               0x00000010
  DEBUG                0x00000000
  REL                  0x00009524
  RELSZ                0x00000100
  RELENT               0x00000008
  FLAGS_1              0x08000000
  RELCOUNT             0x00000013
private flags = 0x5000400: [Version5 EABI] [hard-float ABI]

Sections:
Idx Name          Size      VMA       LMA       File off  Algn
  0 .ta_head      00000020  00000000  00000000  00010000  2**3
                  CONTENTS, ALLOC, LOAD, DATA
  1 .text         00007c30  00000020  00000020  00010020  2**3
                  CONTENTS, ALLOC, LOAD, READONLY, CODE
  2 .rodata       0000110f  00007c50  00007c50  00017c50  2**2
                  CONTENTS, ALLOC, LOAD, READONLY, DATA
  3 .ARM.extab    000000fc  00008d60  00008d60  00018d60  2**2
                  CONTENTS, ALLOC, LOAD, READONLY, DATA
  4 .gnu.hash     00000018  00008e5c  00008e5c  00018e5c  2**2
                  CONTENTS, ALLOC, LOAD, READONLY, DATA
  5 .ARM.extab.text.__aeabi_ldivmod 0000000c  00008e74  00008e74  00018e74  2**2
                  CONTENTS, ALLOC, LOAD, READONLY, DATA
  6 .ARM.extab.text.__aeabi_uldivmod 0000000c  00008e80  00008e80  00018e80  2**2
                  CONTENTS, ALLOC, LOAD, READONLY, DATA
  7 .ARM.extab.text.utee_panic 0000000c  00008e8c  00008e8c  00018e8c  2**2
                  CONTENTS, ALLOC, LOAD, READONLY, DATA
  8 .ARM.extab.text.unlikely 0000000c  00008e98  00008e98  00018e98  2**2
                  CONTENTS, ALLOC, LOAD, READONLY, DATA
  9 .ARM.exidx    00000640  00008ea4  00008ea4  00018ea4  2**2
                  CONTENTS, ALLOC, LOAD, READONLY, DATA
 10 .got          00000040  000094e4  000094e4  000194e4  2**2
                  CONTENTS, ALLOC, LOAD, DATA
 11 .dynsym       00000030  000096ac  000096ac  000196ac  2**2
                  CONTENTS, ALLOC, LOAD, READONLY, DATA
 12 .rel.got      00000068  000095bc  000095bc  000195bc  2**2
                  CONTENTS, ALLOC, LOAD, READONLY, DATA
 13 .dynamic      00000088  00009624  00009624  00019624  2**2
                  CONTENTS, ALLOC, LOAD, DATA
 14 .dynstr       00000001  000096dc  000096dc  000196dc  2**0
                  CONTENTS, ALLOC, LOAD, READONLY, DATA
 15 .hash         00000018  000096e0  000096e0  000196e0  2**2
                  CONTENTS, ALLOC, LOAD, READONLY, DATA
 16 .data         00000084  0000a000  0000a000  0001a000  2**2
                  CONTENTS, ALLOC, LOAD, DATA
 17 .bss          0000a074  0000a084  0000a084  0001a084  2**2
                  ALLOC
 18 .debug_info   0001195c  00000000  00000000  0001a084  2**0
                  CONTENTS, READONLY, DEBUGGING, OCTETS
 19 .debug_abbrev 00002e55  00000000  00000000  0002b9e0  2**0
                  CONTENTS, READONLY, DEBUGGING, OCTETS
 20 .debug_loclists 000003fa  00000000  00000000  0002e835  2**0
                  CONTENTS, READONLY, DEBUGGING, OCTETS
 21 .debug_aranges 00000570  00000000  00000000  0002ec30  2**3
                  CONTENTS, READONLY, DEBUGGING, OCTETS
 22 .debug_rnglists 00000026  00000000  00000000  0002f1a0  2**0
                  CONTENTS, READONLY, DEBUGGING, OCTETS
 23 .debug_macro  0001268c  00000000  00000000  0002f1c6  2**0
                  CONTENTS, READONLY, DEBUGGING, OCTETS
 24 .debug_line   000057d8  00000000  00000000  00041852  2**0
                  CONTENTS, READONLY, DEBUGGING, OCTETS
 25 .debug_str    000122c4  00000000  00000000  0004702a  2**0
                  CONTENTS, READONLY, DEBUGGING, OCTETS
 26 .comment      0000004f  00000000  00000000  000592ee  2**0
                  CONTENTS, READONLY
 27 .ARM.attributes 00000031  00000000  00000000  0005933d  2**0
                  CONTENTS, READONLY
 28 .debug_frame  00001f8c  00000000  00000000  00059370  2**2
                  CONTENTS, READONLY, DEBUGGING, OCTETS
 29 .rel.dyn      00000098  00009524  00009524  00019524  2**2
                  CONTENTS, ALLOC, LOAD, READONLY, DATA
 30 .debug_loc    00010a49  00000000  00000000  0005b2fc  2**0
                  CONTENTS, READONLY, DEBUGGING, OCTETS
 31 .debug_ranges 000007c0  00000000  00000000  0006bd48  2**3
                  CONTENTS, READONLY, DEBUGGING, OCTETS
SYMBOL TABLE:
00000000 l    d  .ta_head	00000000 .ta_head
00000020 l    d  .text	00000000 .text
00007c50 l    d  .rodata	00000000 .rodata
00008d60 l    d  .ARM.extab	00000000 .ARM.extab
00008e5c l    d  .gnu.hash	00000000 .gnu.hash
00008e74 l    d  .ARM.extab.text.__aeabi_ldivmod	00000000 .ARM.extab.text.__aeabi_ldivmod
00008e80 l    d  .ARM.extab.text.__aeabi_uldivmod	00000000 .ARM.extab.text.__aeabi_uldivmod
00008e8c l    d  .ARM.extab.text.utee_panic	00000000 .ARM.extab.text.utee_panic
00008e98 l    d  .ARM.extab.text.unlikely	00000000 .ARM.extab.text.unlikely
00008ea4 l    d  .ARM.exidx	00000000 .ARM.exidx
000094e4 l    d  .got	00000000 .got
000095bc l    d  .rel.got	00000000 .rel.got
00009624 l    d  .dynamic	00000000 .dynamic
000096ac l    d  .dynsym	00000000 .dynsym
000096dc l    d  .dynstr	00000000 .dynstr
000096e0 l    d  .hash	00000000 .hash
0000a000 l    d  .data	00000000 .data
0000a084 l    d  .bss	00000000 .bss
00000000 l    d  .debug_info	00000000 .debug_info
00000000 l    d  .debug_abbrev	00000000 .debug_abbrev
00000000 l    d  .debug_loclists	00000000 .debug_loclists
00000000 l    d  .debug_aranges	00000000 .debug_aranges
00000000 l    d  .debug_rnglists	00000000 .debug_rnglists
00000000 l    d  .debug_macro	00000000 .debug_macro
00000000 l    d  .debug_line	00000000 .debug_line
00000000 l    d  .debug_str	00000000 .debug_str
00000000 l    d  .comment	00000000 .comment
00000000 l    d  .ARM.attributes	00000000 .ARM.attributes
00000000 l    d  .debug_frame	00000000 .debug_frame
00009524 l    d  .rel.dyn	00000000 .rel.dyn
00000000 l    d  .debug_loc	00000000 .debug_loc
00000000 l    d  .debug_ranges	00000000 .debug_ranges
00000000 l    df *ABS*	00000000 user_ta_header.c
00007c54 l     O .rodata	00000004 __compound_literal.4
00007c58 l     O .rodata	00000004 __compound_literal.3
00007c5c l     O .rodata	00000001 __compound_literal.2
00007c5d l     O .rodata	00000001 __compound_literal.1
00007c5e l     O .rodata	00000001 __compound_literal.0
00000000 l    df *ABS*	00000000 acipher_ta.c
00008019 l     O .rodata	0000000c __func__.1
00008025 l     O .rodata	00000008 __func__.0
0000802d l     O .rodata	0000001b __func__.2
00000000 l    df *ABS*	00000000 trace.c
00000268 l     F .text	0000004e append
000080f8 l     O .rodata	00000005 lvl_strs.5561
000080fd l     O .rodata	0000000a __func__.5615
00000000 l    df *ABS*	00000000 snprintk.c
00008141 l     O .rodata	00000011 HEXDIGITS
00008152 l     O .rodata	00000011 hexdigits
00000000 l    df *ABS*	00000000 arm32_aeabi_ldivmod_a32.o
00000000 l    df *ABS*	00000000 trace_ext.c
00000000 l    df *ABS*	00000000 tee_api.c
0000819b l     O .rodata	0000000b __func__.6728
0000a084 l     O .bss	00000004 tee_api_instance_data
00000000 l    df *ABS*	00000000 tee_api_objects.c
00000000 l    df *ABS*	00000000 tee_api_operations.c
000017bc l     F .text	00000160 tee_buffer_update
00000000 l    df *ABS*	00000000 user_ta_entry.c
00002d84 l     F .text	0000001c ta_header_get_session
00002da0 l     F .text	00000068 ta_header_remove_session
0000a088 l     O .bss	00000001 init_done
0000a060 l     O .data	00000008 ta_sessions
00000000 l    df *ABS*	00000000 utee_syscalls_a32.o
00000000 l    df *ABS*	00000000 gprof_a32.o
00000000 l    df *ABS*	00000000 tee_api_arith_mpi.c
00004468 l     F .text	00000020 api_panic
00003454 l     F .text	00000020 mpi_panic
00003474 l     F .text	00000044 get_const_mpi
000034b8 l     F .text	00000010 mpi_is_odd
000034c8 l     F .text	00000016 rng_read
000034de l     F .text	0000001c put_mpi
000034fa l     F .text	0000045a mpi_egcd
00003954 l     F .text	00000024 get_mpi
00003978 l     F .text	00000088 bigint_binary
0000a0b0 l     O .bss	00002000 data.6728
00003c06 l     F .text	000000ea bigint_binary_mod
000081b7 l     O .rodata	0000000e __func__.6757
000081c5 l     O .rodata	00000009 __func__.6996
000081ce l     O .rodata	0000000e __func__.6856
000081dc l     O .rodata	00000012 __func__.6729
000081ee l     O .rodata	0000000f __func__.6767
000081fd l     O .rodata	0000001f __func__.6785
0000821c l     O .rodata	00000019 __func__.6792
00008235 l     O .rodata	00000012 __func__.6867
00008247 l     O .rodata	00000015 __func__.6822
0000825c l     O .rodata	0000000e __func__.6894
0000826a l     O .rodata	0000000e __func__.6922
00008278 l     O .rodata	0000000e __func__.6928
00008286 l     O .rodata	00000011 __func__.6957
00008297 l     O .rodata	00000018 __func__.6973
000082af l     O .rodata	0000001d __func__.7053
000082cc l     O .rodata	00000019 __func__.7103
000082e5 l     O .rodata	00000015 __func__.7117
00000000 l    df *ABS*	00000000 bignum.c
00004488 l     F .text	00000038 mpi_get_digit
000044c0 l     F .text	0000005e mpi_sub_hlp
0000451e l     F .text	00000492 mpi_mul_hlp
000049b0 l     F .text	00000048 mbedtls_mpi_mod_int.part.1
00005a52 l     F .text	0000006c mpi_write_hlp
00005bf8 l     F .text	00000050 mpi_check_small_factors
000062e4 l     F .text	00000216 mpi_miller_rabin
00007c68 l     O .rodata	000002a0 small_prime
00007f08 l     O .rodata	00000024 gcd_pairs
00000000 l    df *ABS*	00000000 bget_malloc.c
00006c88 l     F .text	00000030 raw_malloc_return_hook.isra.3
00006cb8 l     F .text	000000d8 create_free_block.constprop.11
00006ec4 l     F .text	00000038 raw_malloc.constprop.15
0000880e l     O .rodata	00000012 __func__.5854
00008820 l     O .rodata	00000005 __func__.5710
00008825 l     O .rodata	00000006 __func__.5725
0000882b l     O .rodata	00000005 __func__.5742
00008830 l     O .rodata	00000006 __func__.5734
00008836 l     O .rodata	00000006 __func__.5751
0000883c l     O .rodata	00000007 __func__.5761
00008843 l     O .rodata	0000000d __func__.5890
00008850 l     O .rodata	0000000c __func__.5864
0000885c l     O .rodata	0000000b __func__.5875
00008867 l     O .rodata	00000010 __func__.5942
00008877 l     O .rodata	0000000e __func__.5896
00008885 l     O .rodata	00000013 __func__.5802
0000c0b4 l     O .bss	00000038 mstats
0000c0ec l     O .bss	00000004 malloc_pool_len
0000c0f0 l     O .bss	00000004 malloc_pool
0000a068 l     O .data	0000001c malloc_poolset
00000000 l    df *ABS*	00000000 mempool.c
00008ca0 l     O .rodata	00000013 __func__.5618
00008cb3 l     O .rodata	0000000e __func__.5627
00000000 l    df *ABS*	00000000 assert.c
00000000 l    df *ABS*	00000000 stack_check.c
00000000 l    df *ABS*	00000000 aeabi_unwind.c
00000000 l    df *ABS*	00000000 memchr.c
00000000 l    df *ABS*	00000000 strlen.c
00000000 l    df *ABS*	00000000 arm32_aeabi_ldivmod.c
00000000 l    df *ABS*	00000000 tee_api_panic.c
00000000 l    df *ABS*	00000000 snprintf.c
00000000 l    df *ABS*	00000000 memcmp.c
00000000 l    df *ABS*	00000000 memcpy.c
00000000 l    df *ABS*	00000000 memmove.c
00000000 l    df *ABS*	00000000 memset.c
00000000 l    df *ABS*	00000000 buf_compare_ct.c
00000000 l    df *ABS*	00000000 
00009624 l     O *ABS*	00000000 _DYNAMIC
000094e4 l     O *ABS*	00000000 _GLOBAL_OFFSET_TABLE_
00007c10 l     F .text	00000010 __utee_check_access_rights_from_thumb
00007c20 l     F .text	00000010 __utee_log_from_thumb
00007c30 l     F .text	00000010 __utee_cache_operation_from_thumb
00007c40 l     F .text	00000010 __utee_panic_from_thumb
00000d28 g     F .text	00000022 putchar
00001298 g     F .text	00000070 TEE_PopulateTransientObject
0000437a g     F .text	00000004 TEE_BigIntConvertToFMM
000040bc g     F .text	00000008 TEE_BigIntSquareMod
00003cf0 g     F .text	000000f4 TEE_BigIntShiftRight
0000332c g     F .text	00000018 utee_storage_obj_create
00004a90 g     F .text	000000a8 mbedtls_mpi_grow
00007a4c g     F .text	000000ec __l_divmod
00002fac g     F .text	00000014 utee_return
000021c4 g     F .text	00000030 TEE_DigestUpdate
00001014 g     F .text	00000004 TEE_Realloc
0000202c g     F .text	000000f4 TEE_SetOperationKey2
00000cca g     F .text	0000003a printf
00002fc0 g     F .text	00000014 utee_log
00001308 g     F .text	00000022 TEE_InitRefAttribute
00000e32 g     F .text	00000066 TEE_InvokeTACommand
00004a0a g     F .text	00000026 mbedtls_mpi_init_mempool
00004f04 g     F .text	00000046 mbedtls_mpi_write_binary
000027a4 g     F .text	00000118 TEE_AEEncryptFinal
00000c58 g     F .text	0000000e vsnprintk
0000538e g     F .text	00000030 mbedtls_mpi_sub_int
00007b9c g     F .text	00000034 memmove
00007b3c g     F .text	0000001e snprintf
00003be0 g     F .text	00000026 TEE_BigIntCmpS32
0000a058 g     O .data	00000004 __stack_chk_guard
0000132a g     F .text	00000022 TEE_InitValueAttribute
00004b38 g     F .text	000000cc mbedtls_mpi_shrink
000079a6 g     F .text	00000002 __aeabi_unwind_cpp_pr0
00003e30 g     F .text	0000001c TEE_BigIntAdd
00003000 g     F .text	00000014 utee_get_property_name_to_index
00007c60 g     O .rodata	00000004 ta_heap_size
00001268 g     F .text	00000030 TEE_ResetTransientObject
000030e4 g     F .text	00000018 utee_cryp_state_alloc
000032b4 g     F .text	00000018 utee_authenc_enc_final
000054b8 g     F .text	0000012c mbedtls_mpi_read_string
00002264 g     F .text	00000056 TEE_CipherInit
00003e68 g     F .text	00000058 TEE_BigIntNeg
00000020 g       .text	00000000 __text_start
00001608 g     F .text	0000002c TEE_StartPersistentObjectEnumerator
00004fe2 g     F .text	00000078 mbedtls_mpi_shift_r
00007818 g     F .text	0000004c malloc_buffer_overlaps_heap
00004084 g     F .text	0000001c TEE_BigIntSubMod
00006826 g     F .text	00000136 mbedtls_mpi_gen_prime
00004db2 g     F .text	00000020 mbedtls_mpi_get_bit
00004e9e g     F .text	00000066 mbedtls_mpi_read_binary
00002620 g     F .text	00000070 TEE_AEInit
000002e8 g     F .text	0000013c trace_printf
00005c70 g     F .text	000000c4 mbedtls_mpi_montmul
00007b86 g     F .text	00000016 memcpy
00003110 g     F .text	00000014 utee_cryp_state_free
0000437e g     F .text	0000004a TEE_BigIntConvertFromFMM
00007b38 g     F .text	00000004 TEE_Panic
00000c98 g     F .text	00000018 __aeabi_uldivmod
00002120 g     F .text	000000a4 TEE_CopyOperation
00000d04 g     F .text	00000024 puts
000043c8 g     F .text	000000a0 TEE_BigIntComputeFMM
000072e0 g     F .text	00000020 malloc_get_stats
00003190 g     F .text	00000018 utee_cipher_final
00000fb4 g     F .text	00000016 TEE_GetREETime
000015a8 g     F .text	00000038 TEE_AllocatePersistentObjectEnumerator
0000a004 g     O .data	00000054 ta_props
000029c4 g     F .text	000000bc TEE_AsymmetricEncrypt
00007300 g     F .text	00000002 malloc
000031f8 g     F .text	00000014 utee_cryp_obj_close
00007b5a g     F .text	0000000e vsnprintf
000013e4 g     F .text	00000048 TEE_GenerateKey
0000a000 g     O .data	00000004 trace_level
00003bac g     F .text	00000034 TEE_BigIntCmp
00007c50 g     O .rodata	00000004 ta_num_props
00007150 g     F .text	0000007c bgetr
0000329c g     F .text	00000018 utee_authenc_update_payload
00007938 g     F .text	0000002e mempool_free
000022ba g     F .text	000000e6 TEE_CipherUpdate
00003ac4 g     F .text	00000058 TEE_BigIntConvertToOctetString
00001eaa g     F .text	000000b6 TEE_GetOperationInfoMultiple
00003434 g     F .text	00000014 utee_cache_operation
00004e50 g     F .text	00000042 mbedtls_mpi_bitlen
00003270 g     F .text	00000018 utee_authenc_init
00003de4 g     F .text	0000002a TEE_BigIntGetBit
00007c64 g     O .rodata	00000003 trace_ext_prefix
00006efc g     F .text	0000005c bgetz
00000f04 g     F .text	0000000c TEE_GetInstanceData
00000f32 g     F .text	0000001e TEE_Wait
000033e4 g     F .text	00000014 utee_storage_obj_write
000053be g     F .text	000000dc mbedtls_mpi_mul_mpi
000079aa g     F .text	00000002 __aeabi_unwind_cpp_pr2
00001022 g     F .text	00000006 TEE_CacheFlush
00000024 g     F .text	00000002 TA_DestroyEntryPoint
000049f8 g     F .text	00000012 mbedtls_mpi_init
00004e22 g     F .text	0000002e mbedtls_mpi_lsb
00007968 g     F .text	00000028 _assert_log
00004376 g     F .text	00000004 TEE_BigIntFMMContextSizeInU32
000025bc g     F .text	00000064 TEE_MACCompareFinal
00001562 g     F .text	00000046 TEE_RenamePersistentObject
000021f4 g     F .text	00000070 TEE_DigestDoFinal
00003a00 g     F .text	00000044 _TEE_MathAPI_Init
000052ca g     F .text	00000048 mbedtls_mpi_add_mpi
000033bc g     F .text	00000014 utee_storage_next_enum
000079a4 g     F .text	00000002 __stack_chk_fail
0000c0f4 g     O .bss	00008000 ta_heap
000040c4 g     F .text	000000a4 TEE_BigIntInvMod
00000048 g     F .text	00000014 TA_CloseSessionEntryPoint
00002a80 g     F .text	000000c0 TEE_AsymmetricDecrypt
0000142c g     F .text	00000064 TEE_OpenPersistentObject
00005312 g     F .text	0000004c mbedtls_mpi_sub_mpi
00002fd4 g     F .text	00000014 __utee_panic
000030fc g     F .text	00000014 utee_cryp_state_copy
0000005c g     F .text	0000020c TA_InvokeCommandEntryPoint
000078a8 g     F .text	0000006c mempool_alloc
000031e4 g     F .text	00000014 utee_cryp_obj_alloc
000030d0 g     F .text	00000014 utee_set_ta_time
000031d0 g     F .text	00000014 utee_cryp_obj_get_attr
00007914 g     F .text	00000024 mempool_calloc
000013b4 g     F .text	00000030 TEE_CopyObjectAttributes
00007314 g     F .text	00000048 calloc
00000fca g     F .text	0000004a TEE_Malloc
00003094 g     F .text	00000014 utee_mask_cancellation
0000320c g     F .text	00000014 utee_cryp_obj_reset
00000eec g     F .text	0000000a TEE_CheckMemoryAccessRights
000140f8 g       .bss	00000000 __gprof_buf_end
000079d8 g     F .text	00000074 __ul_divmod
00004d7a g     F .text	00000038 mbedtls_mpi_lset
00001688 g     F .text	00000040 TEE_ReadObjectData
00001100 g     F .text	00000070 TEE_GetObjectBufferAttribute
00000026 g     F .text	00000022 TA_OpenSessionEntryPoint
000033a8 g     F .text	00000014 utee_storage_start_enum
0000191c g     F .text	00000026 TEE_FreeOperation
00003358 g     F .text	00000014 utee_storage_obj_rename
0000a08c g     O .bss	00000004 ta_param_types
00005986 g     F .text	0000002e mbedtls_mpi_div_int
00001030 g     F .text	0000003a __utee_from_attr
00004338 g     F .text	00000030 TEE_BigIntIsProbablePrime
0000549a g     F .text	0000001e mbedtls_mpi_mul_int
00001528 g     F .text	00000024 TEE_CloseAndDeletePersistentObject1
00005d58 g     F .text	00000446 mbedtls_mpi_exp_mod
00004c88 g     F .text	0000006c mbedtls_mpi_safe_cond_assign
00002fe8 g     F .text	00000018 utee_get_property
000028bc g     F .text	00000108 TEE_AEDecryptFinal
00003a44 g     F .text	00000040 TEE_BigIntInit
00000f10 g     F .text	00000004 TEE_MemMove
00003a84 g     F .text	00000040 TEE_BigIntConvertFromOctetString
0000a05c g     O .data	00000004 _ref__utee_mcount
0000505a g     F .text	0000006e mbedtls_mpi_cmp_abs
000024b0 g     F .text	00000056 TEE_MACInit
00002b40 g     F .text	000000b4 TEE_AsymmetricSignDigest
000079ac g     F .text	0000001c memchr
00000eb4 g     F .text	0000001c TEE_UnmaskCancellation
0000106a g     F .text	0000002a TEE_GetObjectInfo
0000695c g     F .text	0000032c mbedtls_mpi_self_test
00003344 g     F .text	00000014 utee_storage_obj_del
000026d6 g     F .text	000000ce TEE_AEUpdate
0000340c g     F .text	00000014 utee_storage_obj_seek
00001238 g     F .text	00000030 TEE_FreeTransientObject
0000515e g     F .text	00000030 mbedtls_mpi_cmp_int
00003138 g     F .text	00000014 utee_hash_update
00002d6c g     F .text	00000018 rand
00003448  w    F .text	0000000c __utee_mcount
00001e88 g     F .text	00000022 TEE_GetOperationInfo
00004018 g     F .text	00000050 TEE_BigIntMod
00005a18 g     F .text	0000003a mbedtls_mpi_mod_int
0000302c g     F .text	00000014 utee_close_ta_session
00003f6a g     F .text	000000ae TEE_BigIntDiv
00004c04 g     F .text	00000056 mbedtls_mpi_copy
000072cc g     F .text	00000014 malloc_reset_stats
00003178 g     F .text	00000018 utee_cipher_update
000010b4 g     F .text	00000020 TEE_RestrictObjectUsage1
0000735c g     F .text	00000038 realloc
00004c5a g     F .text	0000002e mbedtls_mpi_swap
00007864 g     F .text	00000044 mempool_alloc_pool
000032fc g     F .text	00000018 utee_asymm_verify
00003ec0 g     F .text	000000a4 TEE_BigIntMul
00001f60 g     F .text	00000040 TEE_ResetOperation
00004f4a g     F .text	00000098 mbedtls_mpi_shift_l
000050c8 g     F .text	00000096 mbedtls_mpi_cmp_mpi
00000f18 g     F .text	00000004 TEE_MemFill
00007b68 g     F .text	0000001e memcmp
00007644 g     F .text	000000f8 malloc_add_pool
00002506 g     F .text	0000004e TEE_MACUpdate
000002d4 g     F .text	00000014 trace_get_level
0000518e g     F .text	000000bc mbedtls_mpi_add_abs
0000325c g     F .text	00000014 utee_cryp_random_number_generate
000010d4 g     F .text	0000002c TEE_RestrictObjectUsage
0000436e g     F .text	00000008 TEE_BigIntFMMSizeInU32
00004368 g     F .text	00000004 TEE_BigIntInitFMM
000032e4 g     F .text	00000018 utee_asymm_operate
000011f4 g     F .text	00000014 TEE_CloseObject
00002e08 g     F .text	00000190 __utee_entry
00007c50 g       .text	00000000 __text_end
00004168 g     F .text	0000007c TEE_BigIntRelativePrime
000059b4 g     F .text	00000064 mbedtls_mpi_mod_mpi
000071cc g     F .text	0000009c bpool
00000e98 g     F .text	0000001c TEE_GetCancellationFlag
0000619e g     F .text	00000114 mbedtls_mpi_gcd
00000f8c g     F .text	00000028 TEE_SetTAPersistentTime
00007bd0 g     F .text	00000010 memset
00000f50 g     F .text	0000003c TEE_GetTAPersistentTime
00000424 g     F .text	00000100 dhex_dump
00001490 g     F .text	00000098 TEE_CreatePersistentObject
00000ed0 g     F .text	0000001c TEE_MaskCancellation
00002690 g     F .text	00000046 TEE_AEUpdateAAD
000033d0 g     F .text	00000014 utee_storage_obj_read
00001708 g     F .text	00000038 TEE_TruncateObjectData
00003220 g     F .text	00000014 utee_cryp_obj_populate
00001094 g     F .text	00000020 TEE_GetObjectInfo1
000002b6 g     F .text	0000001e trace_set_level
000031a8 g     F .text	00000014 utee_cryp_obj_get_info
00001170 g     F .text	00000084 TEE_GetObjectValueAttribute
00001fa0 g     F .text	0000008c TEE_SetOperationKey
0000336c g     F .text	00000014 utee_storage_alloc_enum
00003394 g     F .text	00000014 utee_storage_reset_enum
000033f8 g     F .text	00000014 utee_storage_obj_trunc
00003b54 g     F .text	00000058 TEE_BigIntConvertToS32
00003e4c g     F .text	0000001c TEE_BigIntSub
00003058 g     F .text	00000014 utee_get_cancellation_flag
00003124 g     F .text	00000014 utee_hash_init
000079a0 g     F .text	00000004 tahead_get_trace_level
00000d4c g     F .text	00000050 __utee_from_param
00001740 g     F .text	0000007c TEE_SeekObjectData
00000d9c g     F .text	0000003e __utee_to_param
00005d34 g     F .text	00000024 mbedtls_mpi_montred
00007394 g     F .text	000002b0 memalign
000023a0 g     F .text	00000110 TEE_CipherDoFinal
00003b1c g     F .text	00000038 TEE_BigIntConvertFromS32
0000535e g     F .text	00000030 mbedtls_mpi_add_int
000031bc g     F .text	00000014 utee_cryp_obj_restrict_usage
0000773c g     F .text	000000dc malloc_buffer_is_within_alloced
00003234 g     F .text	00000014 utee_cryp_obj_copy
0000436c g     F .text	00000002 TEE_BigIntInitFMMContext
00003248 g     F .text	00000014 utee_cryp_derive_key
000032cc g     F .text	00000018 utee_authenc_dec_final
000016c8 g     F .text	00000040 TEE_WriteObjectData
000015f4 g     F .text	00000014 TEE_ResetPersistentObjectEnumerator
00003f64 g     F .text	00000006 TEE_BigIntSquare
00000020 g     F .text	00000004 TA_CreateEntryPoint
00005c48 g     F .text	00000028 mbedtls_mpi_montg_init
00000c66 g     F .text	0000001a snprintk
00003e0e g     F .text	00000022 TEE_BigIntGetBitCount
000040a0 g     F .text	0000001c TEE_BigIntMulMod
000064fa g     F .text	000002d0 mbedtls_mpi_inv_mod
00002ca0 g     F .text	000000ba TEE_DeriveKey
0000a090 g     O .bss	00000020 ta_params
000055e4 g     F .text	000003a2 mbedtls_mpi_div_mpi
00004e92 g     F .text	0000000c mbedtls_mpi_size
00006d90 g     F .text	00000134 bget
00001208 g     F .text	00000030 TEE_AllocateTransientObject
00004dd2 g     F .text	00000050 mbedtls_mpi_set_bit
00004a30 g     F .text	00000012 mbedtls_mpi_init_static
00001018 g     F .text	00000004 TEE_Free
000067ca g     F .text	0000005c mbedtls_mpi_is_prime
00001028 g     F .text	00000006 TEE_CacheInvalidate
00003164 g     F .text	00000014 utee_cipher_init
00007990 g     F .text	00000010 _assert_break
00004068 g     F .text	0000001c TEE_BigIntAddMod
00003380 g     F .text	00000014 utee_storage_free_enum
00003288 g     F .text	00000014 utee_authenc_update_aad
00001942 g     F .text	00000546 TEE_AllocateOperation
00002d5a g     F .text	00000012 TEE_GenerateRandom
00000f14 g     F .text	00000004 TEE_MemCompare
00000524 g     F .text	00000734 __vsnprintf
000015e0 g     F .text	00000014 TEE_FreePersistentObjectEnumerator
00002f98 g     F .text	00000014 utee_panic
00000dda g     F .text	00000044 TEE_OpenTASession
00000cb0 g     F .text	00000014 trace_ext_puts
00000cc4 g     F .text	00000006 trace_ext_get_thread_id
0000154c g     F .text	00000016 TEE_CloseAndDeletePersistentObject
00004a42 g     F .text	0000004e mbedtls_mpi_free
0000101c g     F .text	00000006 TEE_CacheClean
00003014 g     F .text	00000018 utee_open_ta_session
00007be0 g     F .text	0000002c buf_compare_ct
00004cf4 g     F .text	00000086 mbedtls_mpi_safe_cond_swap
0000134c g     F .text	00000068 TEE_CopyObjectAttributes1
0000314c g     F .text	00000018 utee_hash_final
000079c8 g     F .text	00000010 strlen
000041e4 g     F .text	00000154 TEE_BigIntComputeExtendedGcd
000079a8 g     F .text	00000002 __aeabi_unwind_cpp_pr1
00003314 g     F .text	00000018 utee_storage_obj_open
00003040 g     F .text	00000018 utee_invoke_ta_command
000030a8 g     F .text	00000014 utee_wait
00000f1c g     F .text	00000016 TEE_GetSystemTime
00000000 g     O .ta_head	00000020 ta_head
00006f58 g     F .text	000001f8 brel
0000524a g     F .text	00000080 mbedtls_mpi_sub_abs
000030bc g     F .text	00000014 utee_get_time
000062b2 g     F .text	00000032 mbedtls_mpi_fill_random
00000ef6 g     F .text	0000000e TEE_SetInstanceData
00003080 g     F .text	00000014 utee_unmask_cancellation
00000c80 g     F .text	00000018 __aeabi_ldivmod
0000306c g     F .text	00000014 utee_check_access_rights
00005abe g     F .text	0000013a mbedtls_mpi_write_string
00001634 g     F .text	00000054 TEE_GetNextPersistentObject
00003420 g     F .text	00000014 utee_cryp_obj_generate_key
00000e1e g     F .text	00000014 TEE_CloseTASession
00002bf4 g     F .text	000000ac TEE_AsymmetricVerifyDigest
000140f8 g       .bss	00000000 __gprof_buf_start
00007302 g     F .text	00000012 free
00007268 g     F .text	00000064 bstats
00002554 g     F .text	00000068 TEE_MACComputeFinal
0000c0b0 g     O .bss	00000004 mbedtls_mpi_mempool



Disassembly of section .text:

00000020 <TA_CreateEntryPoint>:
TA_CreateEntryPoint():
/workspace/benchmark/acipher/ta/acipher_ta.c:114
      20:	2000      	movs	r0, #0
      22:	4770      	bx	lr

00000024 <TA_DestroyEntryPoint>:
TA_DestroyEntryPoint():
/workspace/benchmark/acipher/ta/acipher_ta.c:119
      24:	4770      	bx	lr

00000026 <TA_OpenSessionEntryPoint>:
TA_OpenSessionEntryPoint():
/workspace/benchmark/acipher/ta/acipher_ta.c:124
      26:	b510      	push	{r4, lr}
/workspace/benchmark/acipher/ta/acipher_ta.c:130
      28:	2100      	movs	r1, #0
      2a:	2004      	movs	r0, #4
/workspace/benchmark/acipher/ta/acipher_ta.c:124
      2c:	4614      	mov	r4, r2
/workspace/benchmark/acipher/ta/acipher_ta.c:130
      2e:	f000 ffcc 	bl	fca <TEE_Malloc>
/workspace/benchmark/acipher/ta/acipher_ta.c:131
      32:	4603      	mov	r3, r0
      34:	b118      	cbz	r0, 3e <TA_OpenSessionEntryPoint+0x18>
/workspace/benchmark/acipher/ta/acipher_ta.c:134
      36:	2000      	movs	r0, #0
      38:	6018      	str	r0, [r3, #0]
/workspace/benchmark/acipher/ta/acipher_ta.c:136
      3a:	6023      	str	r3, [r4, #0]
/workspace/benchmark/acipher/ta/acipher_ta.c:139
      3c:	bd10      	pop	{r4, pc}
/workspace/benchmark/acipher/ta/acipher_ta.c:132
      3e:	4801      	ldr	r0, [pc, #4]	; (44 <TA_OpenSessionEntryPoint+0x1e>)
      40:	e7fc      	b.n	3c <TA_OpenSessionEntryPoint+0x16>
      42:	bf00      	nop
      44:	ffff000c 	.word	0xffff000c

00000048 <TA_CloseSessionEntryPoint>:
TA_CloseSessionEntryPoint():
/workspace/benchmark/acipher/ta/acipher_ta.c:142
      48:	b510      	push	{r4, lr}
      4a:	4604      	mov	r4, r0
/workspace/benchmark/acipher/ta/acipher_ta.c:145
      4c:	6800      	ldr	r0, [r0, #0]
      4e:	f001 f8f3 	bl	1238 <TEE_FreeTransientObject>
/workspace/benchmark/acipher/ta/acipher_ta.c:146
      52:	4620      	mov	r0, r4
/workspace/benchmark/acipher/ta/acipher_ta.c:147
      54:	e8bd 4010 	ldmia.w	sp!, {r4, lr}
/workspace/benchmark/acipher/ta/acipher_ta.c:146
      58:	f000 bfde 	b.w	1018 <TEE_Free>

0000005c <TA_InvokeCommandEntryPoint>:
TA_InvokeCommandEntryPoint():
/workspace/benchmark/acipher/ta/acipher_ta.c:152
      5c:	e92d 4ff0 	stmdb	sp!, {r4, r5, r6, r7, r8, r9, sl, fp, lr}
      60:	4690      	mov	r8, r2
      62:	4a6f      	ldr	r2, [pc, #444]	; (220 <TA_InvokeCommandEntryPoint+0x1c4>)
      64:	461e      	mov	r6, r3
      66:	4b6f      	ldr	r3, [pc, #444]	; (224 <TA_InvokeCommandEntryPoint+0x1c8>)
      68:	447a      	add	r2, pc
      6a:	b08f      	sub	sp, #60	; 0x3c
      6c:	4607      	mov	r7, r0
/workspace/benchmark/acipher/ta/acipher_ta.c:153
      6e:	460d      	mov	r5, r1
/workspace/benchmark/acipher/ta/acipher_ta.c:152
      70:	58d3      	ldr	r3, [r2, r3]
      72:	681b      	ldr	r3, [r3, #0]
      74:	930d      	str	r3, [sp, #52]	; 0x34
      76:	f04f 0300 	mov.w	r3, #0
/workspace/benchmark/acipher/ta/acipher_ta.c:153
      7a:	b179      	cbz	r1, 9c <TA_InvokeCommandEntryPoint+0x40>
      7c:	2901      	cmp	r1, #1
      7e:	d051      	beq.n	124 <TA_InvokeCommandEntryPoint+0xc8>
/workspace/benchmark/acipher/ta/acipher_ta.c:159
      80:	4b69      	ldr	r3, [pc, #420]	; (228 <TA_InvokeCommandEntryPoint+0x1cc>)
      82:	486a      	ldr	r0, [pc, #424]	; (22c <TA_InvokeCommandEntryPoint+0x1d0>)
      84:	447b      	add	r3, pc
      86:	9300      	str	r3, [sp, #0]
      88:	4478      	add	r0, pc
      8a:	2301      	movs	r3, #1
      8c:	9101      	str	r1, [sp, #4]
      8e:	461a      	mov	r2, r3
      90:	219f      	movs	r1, #159	; 0x9f
      92:	3014      	adds	r0, #20
/workspace/benchmark/acipher/ta/acipher_ta.c:160
      94:	4c5e      	ldr	r4, [pc, #376]	; (210 <TA_InvokeCommandEntryPoint+0x1b4>)
/workspace/benchmark/acipher/ta/acipher_ta.c:159
      96:	f000 f927 	bl	2e8 <trace_printf>
/workspace/benchmark/acipher/ta/acipher_ta.c:160
      9a:	e031      	b.n	100 <TA_InvokeCommandEntryPoint+0xa4>
cmd_gen_key():
/workspace/benchmark/acipher/ta/acipher_ta.c:28
      9c:	f1b8 0f01 	cmp.w	r8, #1
      a0:	f040 80ae 	bne.w	200 <TA_InvokeCommandEntryPoint+0x1a4>
/workspace/benchmark/acipher/ta/acipher_ta.c:31
      a4:	6835      	ldr	r5, [r6, #0]
/workspace/benchmark/acipher/ta/acipher_ta.c:33
      a6:	aa06      	add	r2, sp, #24
      a8:	4e5a      	ldr	r6, [pc, #360]	; (214 <TA_InvokeCommandEntryPoint+0x1b8>)
      aa:	4629      	mov	r1, r5
      ac:	4630      	mov	r0, r6
      ae:	f001 f8ab 	bl	1208 <TEE_AllocateTransientObject>
/workspace/benchmark/acipher/ta/acipher_ta.c:34
      b2:	4604      	mov	r4, r0
      b4:	b168      	cbz	r0, d2 <TA_InvokeCommandEntryPoint+0x76>
/workspace/benchmark/acipher/ta/acipher_ta.c:35
      b6:	4b5e      	ldr	r3, [pc, #376]	; (230 <TA_InvokeCommandEntryPoint+0x1d4>)
      b8:	4642      	mov	r2, r8
      ba:	9003      	str	r0, [sp, #12]
      bc:	2123      	movs	r1, #35	; 0x23
      be:	485d      	ldr	r0, [pc, #372]	; (234 <TA_InvokeCommandEntryPoint+0x1d8>)
      c0:	447b      	add	r3, pc
      c2:	9300      	str	r3, [sp, #0]
      c4:	4643      	mov	r3, r8
      c6:	4478      	add	r0, pc
      c8:	9502      	str	r5, [sp, #8]
      ca:	9601      	str	r6, [sp, #4]
cmd_enc():
/workspace/benchmark/acipher/ta/acipher_ta.c:87
      cc:	f000 f90c 	bl	2e8 <trace_printf>
/workspace/benchmark/acipher/ta/acipher_ta.c:88
      d0:	e016      	b.n	100 <TA_InvokeCommandEntryPoint+0xa4>
cmd_gen_key():
/workspace/benchmark/acipher/ta/acipher_ta.c:39
      d2:	4603      	mov	r3, r0
      d4:	4602      	mov	r2, r0
      d6:	4629      	mov	r1, r5
      d8:	9806      	ldr	r0, [sp, #24]
      da:	f001 f983 	bl	13e4 <TEE_GenerateKey>
/workspace/benchmark/acipher/ta/acipher_ta.c:40
      de:	4604      	mov	r4, r0
      e0:	b1d0      	cbz	r0, 118 <TA_InvokeCommandEntryPoint+0xbc>
/workspace/benchmark/acipher/ta/acipher_ta.c:41
      e2:	9002      	str	r0, [sp, #8]
      e4:	4642      	mov	r2, r8
      e6:	4b54      	ldr	r3, [pc, #336]	; (238 <TA_InvokeCommandEntryPoint+0x1dc>)
      e8:	2129      	movs	r1, #41	; 0x29
      ea:	4854      	ldr	r0, [pc, #336]	; (23c <TA_InvokeCommandEntryPoint+0x1e0>)
      ec:	447b      	add	r3, pc
      ee:	9501      	str	r5, [sp, #4]
      f0:	4478      	add	r0, pc
      f2:	9300      	str	r3, [sp, #0]
      f4:	4643      	mov	r3, r8
      f6:	f000 f8f7 	bl	2e8 <trace_printf>
/workspace/benchmark/acipher/ta/acipher_ta.c:43
      fa:	9806      	ldr	r0, [sp, #24]
      fc:	f001 f89c 	bl	1238 <TEE_FreeTransientObject>
TA_InvokeCommandEntryPoint():
/workspace/benchmark/acipher/ta/acipher_ta.c:152
     100:	4a4f      	ldr	r2, [pc, #316]	; (240 <TA_InvokeCommandEntryPoint+0x1e4>)
/workspace/benchmark/acipher/ta/acipher_ta.c:162
     102:	4b48      	ldr	r3, [pc, #288]	; (224 <TA_InvokeCommandEntryPoint+0x1c8>)
/workspace/benchmark/acipher/ta/acipher_ta.c:152
     104:	447a      	add	r2, pc
/workspace/benchmark/acipher/ta/acipher_ta.c:162
     106:	58d3      	ldr	r3, [r2, r3]
     108:	681a      	ldr	r2, [r3, #0]
     10a:	9b0d      	ldr	r3, [sp, #52]	; 0x34
     10c:	405a      	eors	r2, r3
     10e:	f04f 0300 	mov.w	r3, #0
     112:	d079      	beq.n	208 <TA_InvokeCommandEntryPoint+0x1ac>
     114:	f007 fc46 	bl	79a4 <__stack_chk_fail>
cmd_gen_key():
/workspace/benchmark/acipher/ta/acipher_ta.c:47
     118:	6838      	ldr	r0, [r7, #0]
     11a:	f001 f88d 	bl	1238 <TEE_FreeTransientObject>
/workspace/benchmark/acipher/ta/acipher_ta.c:48
     11e:	9b06      	ldr	r3, [sp, #24]
     120:	603b      	str	r3, [r7, #0]
/workspace/benchmark/acipher/ta/acipher_ta.c:49
     122:	e7ed      	b.n	100 <TA_InvokeCommandEntryPoint+0xa4>
cmd_enc():
/workspace/benchmark/acipher/ta/acipher_ta.c:68
     124:	f1b8 0f65 	cmp.w	r8, #101	; 0x65
     128:	d16a      	bne.n	200 <TA_InvokeCommandEntryPoint+0x1a4>
/workspace/benchmark/acipher/ta/acipher_ta.c:70
     12a:	6800      	ldr	r0, [r0, #0]
     12c:	2800      	cmp	r0, #0
     12e:	d069      	beq.n	204 <TA_InvokeCommandEntryPoint+0x1a8>
/workspace/benchmark/acipher/ta/acipher_ta.c:73
     130:	a906      	add	r1, sp, #24
     132:	f000 ffaf 	bl	1094 <TEE_GetObjectInfo1>
/workspace/benchmark/acipher/ta/acipher_ta.c:74
     136:	4604      	mov	r4, r0
     138:	b160      	cbz	r0, 154 <TA_InvokeCommandEntryPoint+0xf8>
/workspace/benchmark/acipher/ta/acipher_ta.c:75
     13a:	9001      	str	r0, [sp, #4]
     13c:	462a      	mov	r2, r5
     13e:	4841      	ldr	r0, [pc, #260]	; (244 <TA_InvokeCommandEntryPoint+0x1e8>)
     140:	214b      	movs	r1, #75	; 0x4b
     142:	4b41      	ldr	r3, [pc, #260]	; (248 <TA_InvokeCommandEntryPoint+0x1ec>)
     144:	4478      	add	r0, pc
     146:	447b      	add	r3, pc
     148:	300c      	adds	r0, #12
     14a:	9300      	str	r3, [sp, #0]
     14c:	462b      	mov	r3, r5
     14e:	f000 f8cb 	bl	2e8 <trace_printf>
/workspace/benchmark/acipher/ta/acipher_ta.c:76
     152:	e7d5      	b.n	100 <TA_InvokeCommandEntryPoint+0xa4>
/workspace/benchmark/acipher/ta/acipher_ta.c:84
     154:	f8df 90f4 	ldr.w	r9, [pc, #244]	; 24c <TA_InvokeCommandEntryPoint+0x1f0>
     158:	4602      	mov	r2, r0
/workspace/benchmark/acipher/ta/acipher_ta.c:82
     15a:	68f3      	ldr	r3, [r6, #12]
/workspace/benchmark/acipher/ta/acipher_ta.c:84
     15c:	a805      	add	r0, sp, #20
/workspace/benchmark/acipher/ta/acipher_ta.c:82
     15e:	9304      	str	r3, [sp, #16]
/workspace/benchmark/acipher/ta/acipher_ta.c:84
     160:	4649      	mov	r1, r9
     162:	9b07      	ldr	r3, [sp, #28]
/workspace/benchmark/acipher/ta/acipher_ta.c:79
     164:	f8d6 a000 	ldr.w	sl, [r6]
/workspace/benchmark/acipher/ta/acipher_ta.c:80
     168:	f8d6 8004 	ldr.w	r8, [r6, #4]
/workspace/benchmark/acipher/ta/acipher_ta.c:81
     16c:	f8d6 b008 	ldr.w	fp, [r6, #8]
/workspace/benchmark/acipher/ta/acipher_ta.c:84
     170:	f001 fbe7 	bl	1942 <TEE_AllocateOperation>
/workspace/benchmark/acipher/ta/acipher_ta.c:86
     174:	4604      	mov	r4, r0
     176:	b170      	cbz	r0, 196 <TA_InvokeCommandEntryPoint+0x13a>
/workspace/benchmark/acipher/ta/acipher_ta.c:87
     178:	9b07      	ldr	r3, [sp, #28]
     17a:	462a      	mov	r2, r5
     17c:	9003      	str	r0, [sp, #12]
     17e:	2157      	movs	r1, #87	; 0x57
     180:	4833      	ldr	r0, [pc, #204]	; (250 <TA_InvokeCommandEntryPoint+0x1f4>)
     182:	9302      	str	r3, [sp, #8]
     184:	4b33      	ldr	r3, [pc, #204]	; (254 <TA_InvokeCommandEntryPoint+0x1f8>)
     186:	4478      	add	r0, pc
     188:	300c      	adds	r0, #12
     18a:	f8cd 9004 	str.w	r9, [sp, #4]
     18e:	447b      	add	r3, pc
     190:	9300      	str	r3, [sp, #0]
     192:	462b      	mov	r3, r5
     194:	e79a      	b.n	cc <TA_InvokeCommandEntryPoint+0x70>
/workspace/benchmark/acipher/ta/acipher_ta.c:91
     196:	6839      	ldr	r1, [r7, #0]
     198:	9805      	ldr	r0, [sp, #20]
     19a:	f001 ff01 	bl	1fa0 <TEE_SetOperationKey>
/workspace/benchmark/acipher/ta/acipher_ta.c:92
     19e:	4604      	mov	r4, r0
     1a0:	b178      	cbz	r0, 1c2 <TA_InvokeCommandEntryPoint+0x166>
/workspace/benchmark/acipher/ta/acipher_ta.c:93
     1a2:	9001      	str	r0, [sp, #4]
     1a4:	462a      	mov	r2, r5
     1a6:	482c      	ldr	r0, [pc, #176]	; (258 <TA_InvokeCommandEntryPoint+0x1fc>)
     1a8:	215d      	movs	r1, #93	; 0x5d
     1aa:	4b2c      	ldr	r3, [pc, #176]	; (25c <TA_InvokeCommandEntryPoint+0x200>)
     1ac:	4478      	add	r0, pc
     1ae:	447b      	add	r3, pc
     1b0:	300c      	adds	r0, #12
     1b2:	9300      	str	r3, [sp, #0]
     1b4:	462b      	mov	r3, r5
     1b6:	f000 f897 	bl	2e8 <trace_printf>
/workspace/benchmark/acipher/ta/acipher_ta.c:105
     1ba:	9805      	ldr	r0, [sp, #20]
     1bc:	f001 fbae 	bl	191c <TEE_FreeOperation>
/workspace/benchmark/acipher/ta/acipher_ta.c:106
     1c0:	e79e      	b.n	100 <TA_InvokeCommandEntryPoint+0xa4>
/workspace/benchmark/acipher/ta/acipher_ta.c:97
     1c2:	ab04      	add	r3, sp, #16
     1c4:	4602      	mov	r2, r0
     1c6:	4601      	mov	r1, r0
     1c8:	9302      	str	r3, [sp, #8]
     1ca:	9805      	ldr	r0, [sp, #20]
     1cc:	4653      	mov	r3, sl
     1ce:	e9cd 8b00 	strd	r8, fp, [sp]
     1d2:	f002 fbf7 	bl	29c4 <TEE_AsymmetricEncrypt>
/workspace/benchmark/acipher/ta/acipher_ta.c:99
     1d6:	4604      	mov	r4, r0
     1d8:	b178      	cbz	r0, 1fa <TA_InvokeCommandEntryPoint+0x19e>
/workspace/benchmark/acipher/ta/acipher_ta.c:100
     1da:	9003      	str	r0, [sp, #12]
     1dc:	462a      	mov	r2, r5
     1de:	4820      	ldr	r0, [pc, #128]	; (260 <TA_InvokeCommandEntryPoint+0x204>)
     1e0:	2164      	movs	r1, #100	; 0x64
     1e2:	68f3      	ldr	r3, [r6, #12]
     1e4:	9302      	str	r3, [sp, #8]
     1e6:	4478      	add	r0, pc
     1e8:	4b1e      	ldr	r3, [pc, #120]	; (264 <TA_InvokeCommandEntryPoint+0x208>)
     1ea:	300c      	adds	r0, #12
     1ec:	f8cd 8004 	str.w	r8, [sp, #4]
     1f0:	447b      	add	r3, pc
     1f2:	9300      	str	r3, [sp, #0]
     1f4:	462b      	mov	r3, r5
     1f6:	f000 f877 	bl	2e8 <trace_printf>
/workspace/benchmark/acipher/ta/acipher_ta.c:102
     1fa:	9b04      	ldr	r3, [sp, #16]
     1fc:	60f3      	str	r3, [r6, #12]
     1fe:	e7dc      	b.n	1ba <TA_InvokeCommandEntryPoint+0x15e>
/workspace/benchmark/acipher/ta/acipher_ta.c:69
     200:	4c05      	ldr	r4, [pc, #20]	; (218 <TA_InvokeCommandEntryPoint+0x1bc>)
     202:	e77d      	b.n	100 <TA_InvokeCommandEntryPoint+0xa4>
/workspace/benchmark/acipher/ta/acipher_ta.c:71
     204:	4c05      	ldr	r4, [pc, #20]	; (21c <TA_InvokeCommandEntryPoint+0x1c0>)
TA_InvokeCommandEntryPoint():
/workspace/benchmark/acipher/ta/acipher_ta.c:157
     206:	e77b      	b.n	100 <TA_InvokeCommandEntryPoint+0xa4>
/workspace/benchmark/acipher/ta/acipher_ta.c:162
     208:	4620      	mov	r0, r4
     20a:	b00f      	add	sp, #60	; 0x3c
     20c:	e8bd 8ff0 	ldmia.w	sp!, {r4, r5, r6, r7, r8, r9, sl, fp, pc}
     210:	ffff000a 	.word	0xffff000a
     214:	a1000030 	.word	0xa1000030
     218:	ffff0006 	.word	0xffff0006
     21c:	ffff0007 	.word	0xffff0007
     220:	00009478 	.word	0x00009478
     224:	0000000c 	.word	0x0000000c
     228:	00007f71 	.word	0x00007f71
     22c:	00007f8d 	.word	0x00007f8d
     230:	00007e68 	.word	0x00007e68
     234:	00007f4f 	.word	0x00007f4f
     238:	00007e66 	.word	0x00007e66
     23c:	00007f25 	.word	0x00007f25
     240:	000093dc 	.word	0x000093dc
     244:	00007ed1 	.word	0x00007ed1
     248:	00007e25 	.word	0x00007e25
     24c:	60000130 	.word	0x60000130
     250:	00007e8f 	.word	0x00007e8f
     254:	00007df5 	.word	0x00007df5
     258:	00007e69 	.word	0x00007e69
     25c:	00007e0b 	.word	0x00007e0b
     260:	00007e2f 	.word	0x00007e2f
     264:	00007de2 	.word	0x00007de2

00000268 <append>:
append():
/mnt/disk/raspbian-tee/optee_os/lib/libutils/ext/trace.c:198
     268:	b40e      	push	{r1, r2, r3}
/mnt/disk/raspbian-tee/optee_os/lib/libutils/ext/trace.c:203
     26a:	f8d0 3100 	ldr.w	r3, [r0, #256]	; 0x100
/mnt/disk/raspbian-tee/optee_os/lib/libutils/ext/trace.c:198
     26e:	b533      	push	{r0, r1, r4, r5, lr}
     270:	4604      	mov	r4, r0
/mnt/disk/raspbian-tee/optee_os/lib/libutils/ext/trace.c:203
     272:	b90b      	cbnz	r3, 278 <append+0x10>
/mnt/disk/raspbian-tee/optee_os/lib/libutils/ext/trace.c:204
     274:	f8c4 0100 	str.w	r0, [r4, #256]	; 0x100
/mnt/disk/raspbian-tee/optee_os/lib/libutils/ext/trace.c:205
     278:	f8d4 0100 	ldr.w	r0, [r4, #256]	; 0x100
/mnt/disk/raspbian-tee/optee_os/lib/libutils/ext/trace.c:206
     27c:	ab06      	add	r3, sp, #24
/mnt/disk/raspbian-tee/optee_os/lib/libutils/ext/trace.c:207
     27e:	9a05      	ldr	r2, [sp, #20]
/mnt/disk/raspbian-tee/optee_os/lib/libutils/ext/trace.c:205
     280:	1b05      	subs	r5, r0, r4
/mnt/disk/raspbian-tee/optee_os/lib/libutils/ext/trace.c:206
     282:	9301      	str	r3, [sp, #4]
/mnt/disk/raspbian-tee/optee_os/lib/libutils/ext/trace.c:205
     284:	f5c5 7580 	rsb	r5, r5, #256	; 0x100
/mnt/disk/raspbian-tee/optee_os/lib/libutils/ext/trace.c:207
     288:	4629      	mov	r1, r5
     28a:	f000 fce5 	bl	c58 <vsnprintk>
/mnt/disk/raspbian-tee/optee_os/lib/libutils/ext/trace.c:209
     28e:	2800      	cmp	r0, #0
     290:	db0f      	blt.n	2b2 <append+0x4a>
/mnt/disk/raspbian-tee/optee_os/lib/libutils/ext/trace.c:213
     292:	4285      	cmp	r5, r0
     294:	dd0d      	ble.n	2b2 <append+0x4a>
/mnt/disk/raspbian-tee/optee_os/lib/libutils/ext/trace.c:217
     296:	4285      	cmp	r5, r0
     298:	bfa8      	it	ge
     29a:	4605      	movge	r5, r0
     29c:	f8d4 0100 	ldr.w	r0, [r4, #256]	; 0x100
     2a0:	4405      	add	r5, r0
/mnt/disk/raspbian-tee/optee_os/lib/libutils/ext/trace.c:218
     2a2:	2001      	movs	r0, #1
/mnt/disk/raspbian-tee/optee_os/lib/libutils/ext/trace.c:217
     2a4:	f8c4 5100 	str.w	r5, [r4, #256]	; 0x100
/mnt/disk/raspbian-tee/optee_os/lib/libutils/ext/trace.c:219
     2a8:	b002      	add	sp, #8
     2aa:	e8bd 4030 	ldmia.w	sp!, {r4, r5, lr}
     2ae:	b003      	add	sp, #12
     2b0:	4770      	bx	lr
/mnt/disk/raspbian-tee/optee_os/lib/libutils/ext/trace.c:211
     2b2:	2000      	movs	r0, #0
     2b4:	e7f8      	b.n	2a8 <append+0x40>

000002b6 <trace_set_level>:
trace_set_level():
/mnt/disk/raspbian-tee/optee_os/lib/libutils/ext/trace.c:25
     2b6:	4b05      	ldr	r3, [pc, #20]	; (2cc <trace_set_level+0x16>)
/mnt/disk/raspbian-tee/optee_os/lib/libutils/ext/trace.c:26
     2b8:	2804      	cmp	r0, #4
     2ba:	4a05      	ldr	r2, [pc, #20]	; (2d0 <trace_set_level+0x1a>)
/mnt/disk/raspbian-tee/optee_os/lib/libutils/ext/trace.c:25
     2bc:	447b      	add	r3, pc
     2be:	589b      	ldr	r3, [r3, r2]
/mnt/disk/raspbian-tee/optee_os/lib/libutils/ext/trace.c:26
     2c0:	d801      	bhi.n	2c6 <trace_set_level+0x10>
/mnt/disk/raspbian-tee/optee_os/lib/libutils/ext/trace.c:27
     2c2:	6018      	str	r0, [r3, #0]
     2c4:	4770      	bx	lr
/mnt/disk/raspbian-tee/optee_os/lib/libutils/ext/trace.c:29
     2c6:	2204      	movs	r2, #4
     2c8:	601a      	str	r2, [r3, #0]
     2ca:	4770      	bx	lr
     2cc:	00009224 	.word	0x00009224
     2d0:	00000014 	.word	0x00000014

000002d4 <trace_get_level>:
trace_get_level():
/mnt/disk/raspbian-tee/optee_os/lib/libutils/ext/trace.c:33
     2d4:	4b02      	ldr	r3, [pc, #8]	; (2e0 <trace_get_level+0xc>)
/mnt/disk/raspbian-tee/optee_os/lib/libutils/ext/trace.c:34
     2d6:	4a03      	ldr	r2, [pc, #12]	; (2e4 <trace_get_level+0x10>)
/mnt/disk/raspbian-tee/optee_os/lib/libutils/ext/trace.c:33
     2d8:	447b      	add	r3, pc
/mnt/disk/raspbian-tee/optee_os/lib/libutils/ext/trace.c:34
     2da:	589b      	ldr	r3, [r3, r2]
/mnt/disk/raspbian-tee/optee_os/lib/libutils/ext/trace.c:35
     2dc:	6818      	ldr	r0, [r3, #0]
     2de:	4770      	bx	lr
     2e0:	00009208 	.word	0x00009208
     2e4:	00000014 	.word	0x00000014

000002e8 <trace_printf>:
trace_printf():
/mnt/disk/raspbian-tee/optee_os/lib/libutils/ext/trace.c:97
     2e8:	e92d 47f0 	stmdb	sp!, {r4, r5, r6, r7, r8, r9, sl, lr}
     2ec:	4607      	mov	r7, r0
     2ee:	f8df 910c 	ldr.w	r9, [pc, #268]	; 3fc <trace_printf+0x114>
     2f2:	b0c6      	sub	sp, #280	; 0x118
     2f4:	4688      	mov	r8, r1
     2f6:	44f9      	add	r9, pc
     2f8:	4614      	mov	r4, r2
/mnt/disk/raspbian-tee/optee_os/lib/libutils/ext/trace.c:103
     2fa:	469a      	mov	sl, r3
     2fc:	2b00      	cmp	r3, #0
     2fe:	d06a      	beq.n	3d6 <trace_printf+0xee>
/mnt/disk/raspbian-tee/optee_os/lib/libutils/ext/trace.c:103 (discriminator 1)
     300:	4b3f      	ldr	r3, [pc, #252]	; (400 <trace_printf+0x118>)
     302:	f859 3003 	ldr.w	r3, [r9, r3]
     306:	681b      	ldr	r3, [r3, #0]
     308:	4293      	cmp	r3, r2
     30a:	db61      	blt.n	3d0 <trace_printf+0xe8>
trace_level_to_string():
/mnt/disk/raspbian-tee/optee_os/lib/libutils/ext/trace.c:52
     30c:	4613      	mov	r3, r2
     30e:	2a04      	cmp	r2, #4
/mnt/disk/raspbian-tee/optee_os/lib/libutils/ext/trace.c:55
     310:	4a3c      	ldr	r2, [pc, #240]	; (404 <trace_printf+0x11c>)
/mnt/disk/raspbian-tee/optee_os/lib/libutils/ext/trace.c:52
     312:	bf88      	it	hi
     314:	2300      	movhi	r3, #0
/mnt/disk/raspbian-tee/optee_os/lib/libutils/ext/trace.c:55
     316:	447a      	add	r2, pc
     318:	5cd3      	ldrb	r3, [r2, r3]
trace_printf():
/mnt/disk/raspbian-tee/optee_os/lib/libutils/ext/trace.c:107
     31a:	4a3b      	ldr	r2, [pc, #236]	; (408 <trace_printf+0x120>)
     31c:	ad06      	add	r5, sp, #24
     31e:	f44f 7180 	mov.w	r1, #256	; 0x100
     322:	4628      	mov	r0, r5
     324:	447a      	add	r2, pc
     326:	f000 fc9e 	bl	c66 <snprintk>
/mnt/disk/raspbian-tee/optee_os/lib/libutils/ext/trace.c:109
     32a:	1e06      	subs	r6, r0, #0
     32c:	db50      	blt.n	3d0 <trace_printf+0xe8>
/mnt/disk/raspbian-tee/optee_os/lib/libutils/ext/trace.c:114
     32e:	4b37      	ldr	r3, [pc, #220]	; (40c <trace_printf+0x124>)
     330:	f5c6 7180 	rsb	r1, r6, #256	; 0x100
     334:	4a36      	ldr	r2, [pc, #216]	; (410 <trace_printf+0x128>)
     336:	19a8      	adds	r0, r5, r6
     338:	447a      	add	r2, pc
     33a:	f859 3003 	ldr.w	r3, [r9, r3]
     33e:	9303      	str	r3, [sp, #12]
     340:	f000 fc91 	bl	c66 <snprintk>
/mnt/disk/raspbian-tee/optee_os/lib/libutils/ext/trace.c:116
     344:	2800      	cmp	r0, #0
     346:	db43      	blt.n	3d0 <trace_printf+0xe8>
/mnt/disk/raspbian-tee/optee_os/lib/libutils/ext/trace.c:118
     348:	4406      	add	r6, r0
/mnt/disk/raspbian-tee/optee_os/lib/libutils/ext/trace.c:120
     34a:	f1ba 0f00 	cmp.w	sl, #0
     34e:	d04b      	beq.n	3e8 <trace_printf+0x100>
/mnt/disk/raspbian-tee/optee_os/lib/libutils/ext/trace.c:120 (discriminator 1)
     350:	231a      	movs	r3, #26
     352:	fa23 f404 	lsr.w	r4, r3, r4
     356:	07e3      	lsls	r3, r4, #31
     358:	d546      	bpl.n	3e8 <trace_printf+0x100>
print_thread_id():
/mnt/disk/raspbian-tee/optee_os/lib/libutils/ext/trace.c:65
     35a:	f000 fcb3 	bl	cc4 <trace_ext_get_thread_id>
trace_printf():
/mnt/disk/raspbian-tee/optee_os/lib/libutils/ext/trace.c:122
     35e:	19ac      	adds	r4, r5, r6
     360:	f5c6 7980 	rsb	r9, r6, #256	; 0x100
print_thread_id():
/mnt/disk/raspbian-tee/optee_os/lib/libutils/ext/trace.c:67
     364:	2800      	cmp	r0, #0
     366:	db38      	blt.n	3da <trace_printf+0xf2>
/mnt/disk/raspbian-tee/optee_os/lib/libutils/ext/trace.c:68
     368:	4a2a      	ldr	r2, [pc, #168]	; (414 <trace_printf+0x12c>)
     36a:	2301      	movs	r3, #1
     36c:	9000      	str	r0, [sp, #0]
     36e:	447a      	add	r2, pc
/mnt/disk/raspbian-tee/optee_os/lib/libutils/ext/trace.c:70
     370:	4649      	mov	r1, r9
     372:	4620      	mov	r0, r4
     374:	f000 fc77 	bl	c66 <snprintk>
trace_printf():
/mnt/disk/raspbian-tee/optee_os/lib/libutils/ext/trace.c:129
     378:	2800      	cmp	r0, #0
     37a:	db29      	blt.n	3d0 <trace_printf+0xe8>
/mnt/disk/raspbian-tee/optee_os/lib/libutils/ext/trace.c:131
     37c:	1984      	adds	r4, r0, r6
/mnt/disk/raspbian-tee/optee_os/lib/libutils/ext/trace.c:133
     37e:	b167      	cbz	r7, 39a <trace_printf+0xb2>
/mnt/disk/raspbian-tee/optee_os/lib/libutils/ext/trace.c:134
     380:	4a25      	ldr	r2, [pc, #148]	; (418 <trace_printf+0x130>)
     382:	463b      	mov	r3, r7
     384:	f8cd 8000 	str.w	r8, [sp]
     388:	f5c4 7180 	rsb	r1, r4, #256	; 0x100
     38c:	447a      	add	r2, pc
     38e:	1928      	adds	r0, r5, r4
     390:	f000 fc69 	bl	c66 <snprintk>
/mnt/disk/raspbian-tee/optee_os/lib/libutils/ext/trace.c:136
     394:	2800      	cmp	r0, #0
     396:	db1b      	blt.n	3d0 <trace_printf+0xe8>
/mnt/disk/raspbian-tee/optee_os/lib/libutils/ext/trace.c:138
     398:	4404      	add	r4, r0
/mnt/disk/raspbian-tee/optee_os/lib/libutils/ext/trace.c:148
     39a:	ab4f      	add	r3, sp, #316	; 0x13c
/mnt/disk/raspbian-tee/optee_os/lib/libutils/ext/trace.c:149
     39c:	f5c4 7180 	rsb	r1, r4, #256	; 0x100
     3a0:	1928      	adds	r0, r5, r4
     3a2:	9a4e      	ldr	r2, [sp, #312]	; 0x138
/mnt/disk/raspbian-tee/optee_os/lib/libutils/ext/trace.c:148
     3a4:	9305      	str	r3, [sp, #20]
/mnt/disk/raspbian-tee/optee_os/lib/libutils/ext/trace.c:149
     3a6:	f000 fc57 	bl	c58 <vsnprintk>
/mnt/disk/raspbian-tee/optee_os/lib/libutils/ext/trace.c:151
     3aa:	2800      	cmp	r0, #0
/mnt/disk/raspbian-tee/optee_os/lib/libutils/ext/trace.c:157
     3ac:	f04f 030a 	mov.w	r3, #10
/mnt/disk/raspbian-tee/optee_os/lib/libutils/ext/trace.c:152
     3b0:	bfc8      	it	gt
     3b2:	1824      	addgt	r4, r4, r0
     3b4:	2cfe      	cmp	r4, #254	; 0xfe
     3b6:	bf28      	it	cs
     3b8:	24fe      	movcs	r4, #254	; 0xfe
/mnt/disk/raspbian-tee/optee_os/lib/libutils/ext/trace.c:157
     3ba:	552b      	strb	r3, [r5, r4]
/mnt/disk/raspbian-tee/optee_os/lib/libutils/ext/trace.c:158
     3bc:	b114      	cbz	r4, 3c4 <trace_printf+0xdc>
/mnt/disk/raspbian-tee/optee_os/lib/libutils/ext/trace.c:158 (discriminator 1)
     3be:	5d2b      	ldrb	r3, [r5, r4]
     3c0:	2b0a      	cmp	r3, #10
     3c2:	d019      	beq.n	3f8 <trace_printf+0x110>
/mnt/disk/raspbian-tee/optee_os/lib/libutils/ext/trace.c:161
     3c4:	442c      	add	r4, r5
/mnt/disk/raspbian-tee/optee_os/lib/libutils/ext/trace.c:163
     3c6:	4628      	mov	r0, r5
/mnt/disk/raspbian-tee/optee_os/lib/libutils/ext/trace.c:161
     3c8:	2300      	movs	r3, #0
     3ca:	70a3      	strb	r3, [r4, #2]
/mnt/disk/raspbian-tee/optee_os/lib/libutils/ext/trace.c:163
     3cc:	f000 fc70 	bl	cb0 <trace_ext_puts>
/mnt/disk/raspbian-tee/optee_os/lib/libutils/ext/trace.c:164
     3d0:	b046      	add	sp, #280	; 0x118
     3d2:	e8bd 87f0 	ldmia.w	sp!, {r4, r5, r6, r7, r8, r9, sl, pc}
trace_level_to_string():
/mnt/disk/raspbian-tee/optee_os/lib/libutils/ext/trace.c:50
     3d6:	234d      	movs	r3, #77	; 0x4d
     3d8:	e79f      	b.n	31a <trace_printf+0x32>
print_thread_id():
/mnt/disk/raspbian-tee/optee_os/lib/libutils/ext/trace.c:70
     3da:	4b10      	ldr	r3, [pc, #64]	; (41c <trace_printf+0x134>)
     3dc:	4a10      	ldr	r2, [pc, #64]	; (420 <trace_printf+0x138>)
     3de:	447b      	add	r3, pc
     3e0:	9300      	str	r3, [sp, #0]
     3e2:	447a      	add	r2, pc
     3e4:	2301      	movs	r3, #1
     3e6:	e7c3      	b.n	370 <trace_printf+0x88>
trace_printf():
/mnt/disk/raspbian-tee/optee_os/lib/libutils/ext/trace.c:142
     3e8:	2efe      	cmp	r6, #254	; 0xfe
     3ea:	d8f1      	bhi.n	3d0 <trace_printf+0xe8>
/mnt/disk/raspbian-tee/optee_os/lib/libutils/ext/trace.c:144
     3ec:	1c74      	adds	r4, r6, #1
     3ee:	2320      	movs	r3, #32
     3f0:	55ab      	strb	r3, [r5, r6]
/mnt/disk/raspbian-tee/optee_os/lib/libutils/ext/trace.c:145
     3f2:	2300      	movs	r3, #0
     3f4:	552b      	strb	r3, [r5, r4]
     3f6:	e7d0      	b.n	39a <trace_printf+0xb2>
/mnt/disk/raspbian-tee/optee_os/lib/libutils/ext/trace.c:159
     3f8:	3c01      	subs	r4, #1
     3fa:	e7df      	b.n	3bc <trace_printf+0xd4>
     3fc:	000091ea 	.word	0x000091ea
     400:	00000014 	.word	0x00000014
     404:	00007dde 	.word	0x00007dde
     408:	00007ddf 	.word	0x00007ddf
     40c:	0000001c 	.word	0x0000001c
     410:	00007dcf 	.word	0x00007dcf
     414:	00007d9d 	.word	0x00007d9d
     418:	00007d8a 	.word	0x00007d8a
     41c:	0000842b 	.word	0x0000842b
     420:	00007d2f 	.word	0x00007d2f

00000424 <dhex_dump>:
dhex_dump():
/mnt/disk/raspbian-tee/optee_os/lib/libutils/ext/trace.c:225
     424:	e92d 4ff0 	stmdb	sp!, {r4, r5, r6, r7, r8, r9, sl, fp, lr}
     428:	4690      	mov	r8, r2
     42a:	4a35      	ldr	r2, [pc, #212]	; (500 <dhex_dump+0xdc>)
     42c:	468a      	mov	sl, r1
/mnt/disk/raspbian-tee/optee_os/lib/libutils/ext/trace.c:231
     42e:	4935      	ldr	r1, [pc, #212]	; (504 <dhex_dump+0xe0>)
/mnt/disk/raspbian-tee/optee_os/lib/libutils/ext/trace.c:225
     430:	447a      	add	r2, pc
     432:	b0c7      	sub	sp, #284	; 0x11c
     434:	4681      	mov	r9, r0
/mnt/disk/raspbian-tee/optee_os/lib/libutils/ext/trace.c:231
     436:	5852      	ldr	r2, [r2, r1]
     438:	6812      	ldr	r2, [r2, #0]
     43a:	4542      	cmp	r2, r8
     43c:	db1d      	blt.n	47a <dhex_dump+0x56>
     43e:	461e      	mov	r6, r3
/mnt/disk/raspbian-tee/optee_os/lib/libutils/ext/trace.c:240
     440:	4b31      	ldr	r3, [pc, #196]	; (508 <dhex_dump+0xe4>)
/mnt/disk/raspbian-tee/optee_os/lib/libutils/ext/trace.c:232
     442:	ad05      	add	r5, sp, #20
/mnt/disk/raspbian-tee/optee_os/lib/libutils/ext/trace.c:235
     444:	f8df b0c4 	ldr.w	fp, [pc, #196]	; 50c <dhex_dump+0xe8>
/mnt/disk/raspbian-tee/optee_os/lib/libutils/ext/trace.c:240
     448:	447b      	add	r3, pc
     44a:	9302      	str	r3, [sp, #8]
/mnt/disk/raspbian-tee/optee_os/lib/libutils/ext/trace.c:248
     44c:	4b30      	ldr	r3, [pc, #192]	; (510 <dhex_dump+0xec>)
/mnt/disk/raspbian-tee/optee_os/lib/libutils/ext/trace.c:235
     44e:	44fb      	add	fp, pc
/mnt/disk/raspbian-tee/optee_os/lib/libutils/ext/trace.c:232
     450:	2400      	movs	r4, #0
     452:	f8c5 4100 	str.w	r4, [r5, #256]	; 0x100
/mnt/disk/raspbian-tee/optee_os/lib/libutils/ext/trace.c:248
     456:	447b      	add	r3, pc
     458:	9303      	str	r3, [sp, #12]
/mnt/disk/raspbian-tee/optee_os/lib/libutils/ext/trace.c:233 (discriminator 1)
     45a:	9b50      	ldr	r3, [sp, #320]	; 0x140
     45c:	429c      	cmp	r4, r3
     45e:	db0f      	blt.n	480 <dhex_dump+0x5c>
/mnt/disk/raspbian-tee/optee_os/lib/libutils/ext/trace.c:253
     460:	f8d5 3100 	ldr.w	r3, [r5, #256]	; 0x100
     464:	b14b      	cbz	r3, 47a <dhex_dump+0x56>
/mnt/disk/raspbian-tee/optee_os/lib/libutils/ext/trace.c:255
     466:	4b2b      	ldr	r3, [pc, #172]	; (514 <dhex_dump+0xf0>)
     468:	4642      	mov	r2, r8
     46a:	9501      	str	r5, [sp, #4]
     46c:	4651      	mov	r1, sl
     46e:	447b      	add	r3, pc
     470:	4648      	mov	r0, r9
     472:	9300      	str	r3, [sp, #0]
     474:	2301      	movs	r3, #1
     476:	f7ff ff37 	bl	2e8 <trace_printf>
/mnt/disk/raspbian-tee/optee_os/lib/libutils/ext/trace.c:263
     47a:	b047      	add	sp, #284	; 0x11c
     47c:	e8bd 8ff0 	ldmia.w	sp!, {r4, r5, r6, r7, r8, r9, sl, fp, pc}
/mnt/disk/raspbian-tee/optee_os/lib/libutils/ext/trace.c:234
     480:	f014 070f 	ands.w	r7, r4, #15
     484:	d013      	beq.n	4ae <dhex_dump+0x8a>
/mnt/disk/raspbian-tee/optee_os/lib/libutils/ext/trace.c:240
     486:	f816 2b01 	ldrb.w	r2, [r6], #1
     48a:	4628      	mov	r0, r5
     48c:	9902      	ldr	r1, [sp, #8]
     48e:	f7ff feeb 	bl	268 <append>
/mnt/disk/raspbian-tee/optee_os/lib/libutils/ext/trace.c:241
     492:	b9a8      	cbnz	r0, 4c0 <dhex_dump+0x9c>
/mnt/disk/raspbian-tee/optee_os/lib/libutils/ext/trace.c:262
     494:	4820      	ldr	r0, [pc, #128]	; (518 <dhex_dump+0xf4>)
     496:	2203      	movs	r2, #3
     498:	4b20      	ldr	r3, [pc, #128]	; (51c <dhex_dump+0xf8>)
     49a:	f44f 7183 	mov.w	r1, #262	; 0x106
     49e:	4478      	add	r0, pc
     4a0:	447b      	add	r3, pc
     4a2:	3005      	adds	r0, #5
     4a4:	9300      	str	r3, [sp, #0]
     4a6:	2301      	movs	r3, #1
     4a8:	f7ff ff1e 	bl	2e8 <trace_printf>
     4ac:	e7e5      	b.n	47a <dhex_dump+0x56>
/mnt/disk/raspbian-tee/optee_os/lib/libutils/ext/trace.c:235
     4ae:	4633      	mov	r3, r6
     4b0:	2208      	movs	r2, #8
     4b2:	4659      	mov	r1, fp
     4b4:	4628      	mov	r0, r5
     4b6:	f7ff fed7 	bl	268 <append>
/mnt/disk/raspbian-tee/optee_os/lib/libutils/ext/trace.c:237
     4ba:	2800      	cmp	r0, #0
     4bc:	d1e3      	bne.n	486 <dhex_dump+0x62>
     4be:	e7e9      	b.n	494 <dhex_dump+0x70>
/mnt/disk/raspbian-tee/optee_os/lib/libutils/ext/trace.c:243
     4c0:	4263      	negs	r3, r4
     4c2:	f003 030f 	and.w	r3, r3, #15
     4c6:	bf58      	it	pl
     4c8:	425f      	negpl	r7, r3
     4ca:	2f07      	cmp	r7, #7
     4cc:	d108      	bne.n	4e0 <dhex_dump+0xbc>
/mnt/disk/raspbian-tee/optee_os/lib/libutils/ext/trace.c:244
     4ce:	4914      	ldr	r1, [pc, #80]	; (520 <dhex_dump+0xfc>)
     4d0:	4628      	mov	r0, r5
     4d2:	4479      	add	r1, pc
     4d4:	f7ff fec8 	bl	268 <append>
/mnt/disk/raspbian-tee/optee_os/lib/libutils/ext/trace.c:245
     4d8:	2800      	cmp	r0, #0
     4da:	d0db      	beq.n	494 <dhex_dump+0x70>
/mnt/disk/raspbian-tee/optee_os/lib/libutils/ext/trace.c:233 (discriminator 2)
     4dc:	3401      	adds	r4, #1
     4de:	e7bc      	b.n	45a <dhex_dump+0x36>
/mnt/disk/raspbian-tee/optee_os/lib/libutils/ext/trace.c:247
     4e0:	2f0f      	cmp	r7, #15
     4e2:	d1fb      	bne.n	4dc <dhex_dump+0xb8>
/mnt/disk/raspbian-tee/optee_os/lib/libutils/ext/trace.c:248
     4e4:	9b03      	ldr	r3, [sp, #12]
     4e6:	4642      	mov	r2, r8
     4e8:	9300      	str	r3, [sp, #0]
     4ea:	4651      	mov	r1, sl
     4ec:	2301      	movs	r3, #1
     4ee:	9501      	str	r5, [sp, #4]
     4f0:	4648      	mov	r0, r9
     4f2:	f7ff fef9 	bl	2e8 <trace_printf>
/mnt/disk/raspbian-tee/optee_os/lib/libutils/ext/trace.c:250
     4f6:	2300      	movs	r3, #0
     4f8:	f8c5 3100 	str.w	r3, [r5, #256]	; 0x100
     4fc:	e7ee      	b.n	4dc <dhex_dump+0xb8>
     4fe:	bf00      	nop
     500:	000090b0 	.word	0x000090b0
     504:	00000014 	.word	0x00000014
     508:	00007cd5 	.word	0x00007cd5
     50c:	00007cd5 	.word	0x00007cd5
     510:	00007cd5 	.word	0x00007cd5
     514:	00007cbd 	.word	0x00007cbd
     518:	00007c56 	.word	0x00007c56
     51c:	00007c8e 	.word	0x00007c8e
     520:	00007c57 	.word	0x00007c57

00000524 <__vsnprintf>:
__vsnprintf():
/mnt/disk/raspbian-tee/optee_os/lib/libutils/ext/snprintk.c:137
     524:	e92d 4ff0 	stmdb	sp!, {r4, r5, r6, r7, r8, r9, sl, fp, lr}
/mnt/disk/raspbian-tee/optee_os/lib/libutils/ext/snprintk.c:141
     528:	4680      	mov	r8, r0
     52a:	461f      	mov	r7, r3
/mnt/disk/raspbian-tee/optee_os/lib/libutils/ext/snprintk.c:137
     52c:	b09f      	sub	sp, #124	; 0x7c
kprintf():
/mnt/disk/raspbian-tee/optee_os/lib/libutils/ext/snprintk.c:269
     52e:	2300      	movs	r3, #0
__vsnprintf():
/mnt/disk/raspbian-tee/optee_os/lib/libutils/ext/snprintk.c:137
     530:	920b      	str	r2, [sp, #44]	; 0x2c
     532:	f89d 20a0 	ldrb.w	r2, [sp, #160]	; 0xa0
     536:	9213      	str	r2, [sp, #76]	; 0x4c
/mnt/disk/raspbian-tee/optee_os/lib/libutils/ext/snprintk.c:141
     538:	4602      	mov	r2, r0
     53a:	440a      	add	r2, r1
/mnt/disk/raspbian-tee/optee_os/lib/libutils/ext/snprintk.c:137
     53c:	9010      	str	r0, [sp, #64]	; 0x40
     53e:	9112      	str	r1, [sp, #72]	; 0x48
/mnt/disk/raspbian-tee/optee_os/lib/libutils/ext/snprintk.c:141
     540:	920e      	str	r2, [sp, #56]	; 0x38
kprintf():
/mnt/disk/raspbian-tee/optee_os/lib/libutils/ext/snprintk.c:269
     542:	930f      	str	r3, [sp, #60]	; 0x3c
/mnt/disk/raspbian-tee/optee_os/lib/libutils/ext/snprintk.c:267
     544:	930c      	str	r3, [sp, #48]	; 0x30
/mnt/disk/raspbian-tee/optee_os/lib/libutils/ext/snprintk.c:275
     546:	9b0b      	ldr	r3, [sp, #44]	; 0x2c
     548:	781b      	ldrb	r3, [r3, #0]
     54a:	2b25      	cmp	r3, #37	; 0x25
     54c:	d024      	beq.n	598 <__vsnprintf+0x74>
     54e:	b993      	cbnz	r3, 576 <__vsnprintf+0x52>
__vsnprintf():
/mnt/disk/raspbian-tee/optee_os/lib/libutils/ext/snprintk.c:143
     550:	9b10      	ldr	r3, [sp, #64]	; 0x40
     552:	b163      	cbz	r3, 56e <__vsnprintf+0x4a>
/mnt/disk/raspbian-tee/optee_os/lib/libutils/ext/snprintk.c:143 (discriminator 1)
     554:	9b12      	ldr	r3, [sp, #72]	; 0x48
     556:	b153      	cbz	r3, 56e <__vsnprintf+0x4a>
/mnt/disk/raspbian-tee/optee_os/lib/libutils/ext/snprintk.c:145
     558:	9a0c      	ldr	r2, [sp, #48]	; 0x30
     55a:	4293      	cmp	r3, r2
     55c:	f04f 0300 	mov.w	r3, #0
/mnt/disk/raspbian-tee/optee_os/lib/libutils/ext/snprintk.c:146
     560:	9a10      	ldr	r2, [sp, #64]	; 0x40
/mnt/disk/raspbian-tee/optee_os/lib/libutils/ext/snprintk.c:145
     562:	f200 835f 	bhi.w	c24 <__vsnprintf+0x700>
/mnt/disk/raspbian-tee/optee_os/lib/libutils/ext/snprintk.c:146
     566:	9912      	ldr	r1, [sp, #72]	; 0x48
     568:	440a      	add	r2, r1
     56a:	f802 3c01 	strb.w	r3, [r2, #-1]
/mnt/disk/raspbian-tee/optee_os/lib/libutils/ext/snprintk.c:151
     56e:	980c      	ldr	r0, [sp, #48]	; 0x30
     570:	b01f      	add	sp, #124	; 0x7c
     572:	e8bd 8ff0 	ldmia.w	sp!, {r4, r5, r6, r7, r8, r9, sl, fp, pc}
kprintf():
/mnt/disk/raspbian-tee/optee_os/lib/libutils/ext/snprintk.c:276
     576:	9a0c      	ldr	r2, [sp, #48]	; 0x30
     578:	3201      	adds	r2, #1
     57a:	920c      	str	r2, [sp, #48]	; 0x30
/mnt/disk/raspbian-tee/optee_os/lib/libutils/ext/snprintk.c:277
     57c:	f1b8 0f00 	cmp.w	r8, #0
     580:	d006      	beq.n	590 <__vsnprintf+0x6c>
     582:	9a0e      	ldr	r2, [sp, #56]	; 0x38
     584:	4542      	cmp	r2, r8
     586:	d903      	bls.n	590 <__vsnprintf+0x6c>
     588:	f888 3000 	strb.w	r3, [r8]
     58c:	f108 0801 	add.w	r8, r8, #1
/mnt/disk/raspbian-tee/optee_os/lib/libutils/ext/snprintk.c:275
     590:	9b0b      	ldr	r3, [sp, #44]	; 0x2c
     592:	3301      	adds	r3, #1
     594:	930b      	str	r3, [sp, #44]	; 0x2c
     596:	e7d6      	b.n	546 <__vsnprintf+0x22>
/mnt/disk/raspbian-tee/optee_os/lib/libutils/ext/snprintk.c:282
     598:	9b0b      	ldr	r3, [sp, #44]	; 0x2c
/mnt/disk/raspbian-tee/optee_os/lib/libutils/ext/snprintk.c:288
     59a:	f04f 0a00 	mov.w	sl, #0
/mnt/disk/raspbian-tee/optee_os/lib/libutils/ext/snprintk.c:282
     59e:	463a      	mov	r2, r7
/mnt/disk/raspbian-tee/optee_os/lib/libutils/ext/snprintk.c:287
     5a0:	f04f 3bff 	mov.w	fp, #4294967295	; 0xffffffff
/mnt/disk/raspbian-tee/optee_os/lib/libutils/ext/snprintk.c:282
     5a4:	3301      	adds	r3, #1
/mnt/disk/raspbian-tee/optee_os/lib/libutils/ext/snprintk.c:284
     5a6:	4656      	mov	r6, sl
/mnt/disk/raspbian-tee/optee_os/lib/libutils/ext/snprintk.c:286
     5a8:	f8cd a034 	str.w	sl, [sp, #52]	; 0x34
/mnt/disk/raspbian-tee/optee_os/lib/libutils/ext/snprintk.c:290
     5ac:	f893 9000 	ldrb.w	r9, [r3]
     5b0:	1c59      	adds	r1, r3, #1
     5b2:	910b      	str	r1, [sp, #44]	; 0x2c
/mnt/disk/raspbian-tee/optee_os/lib/libutils/ext/snprintk.c:291
     5b4:	f1b9 0f63 	cmp.w	r9, #99	; 0x63
     5b8:	f000 8163 	beq.w	882 <__vsnprintf+0x35e>
     5bc:	f300 8095 	bgt.w	6ea <__vsnprintf+0x1c6>
     5c0:	f1b9 0f30 	cmp.w	r9, #48	; 0x30
     5c4:	f000 8147 	beq.w	856 <__vsnprintf+0x332>
     5c8:	dc26      	bgt.n	618 <__vsnprintf+0xf4>
     5ca:	f1b9 0f2a 	cmp.w	r9, #42	; 0x2a
     5ce:	f000 8119 	beq.w	804 <__vsnprintf+0x2e0>
     5d2:	dc13      	bgt.n	5fc <__vsnprintf+0xd8>
     5d4:	f1b9 0f20 	cmp.w	r9, #32
     5d8:	f000 810a 	beq.w	7f0 <__vsnprintf+0x2cc>
     5dc:	f1b9 0f23 	cmp.w	r9, #35	; 0x23
     5e0:	f000 810d 	beq.w	7fe <__vsnprintf+0x2da>
/mnt/disk/raspbian-tee/optee_os/lib/libutils/ext/snprintk.c:541
     5e4:	f1b9 0f00 	cmp.w	r9, #0
     5e8:	d0b2      	beq.n	550 <__vsnprintf+0x2c>
/mnt/disk/raspbian-tee/optee_os/lib/libutils/ext/snprintk.c:545
     5ea:	ab1e      	add	r3, sp, #120	; 0x78
     5ec:	4617      	mov	r7, r2
/mnt/disk/raspbian-tee/optee_os/lib/libutils/ext/snprintk.c:546
     5ee:	f04f 0b01 	mov.w	fp, #1
/mnt/disk/raspbian-tee/optee_os/lib/libutils/ext/snprintk.c:545
     5f2:	f803 9d28 	strb.w	r9, [r3, #-40]!
     5f6:	e0c0      	b.n	77a <__vsnprintf+0x256>
/mnt/disk/raspbian-tee/optee_os/lib/libutils/ext/snprintk.c:311
     5f8:	461a      	mov	r2, r3
     5fa:	e00b      	b.n	614 <__vsnprintf+0xf0>
/mnt/disk/raspbian-tee/optee_os/lib/libutils/ext/snprintk.c:291
     5fc:	f1b9 0f2d 	cmp.w	r9, #45	; 0x2d
     600:	f000 8109 	beq.w	816 <__vsnprintf+0x2f2>
     604:	f1b9 0f2e 	cmp.w	r9, #46	; 0x2e
     608:	f000 8108 	beq.w	81c <__vsnprintf+0x2f8>
     60c:	f1b9 0f2b 	cmp.w	r9, #43	; 0x2b
     610:	d1e8      	bne.n	5e4 <__vsnprintf+0xc0>
/mnt/disk/raspbian-tee/optee_os/lib/libutils/ext/snprintk.c:319
     612:	46ca      	mov	sl, r9
/mnt/disk/raspbian-tee/optee_os/lib/libutils/ext/snprintk.c:322
     614:	9b0b      	ldr	r3, [sp, #44]	; 0x2c
     616:	e7c9      	b.n	5ac <__vsnprintf+0x88>
/mnt/disk/raspbian-tee/optee_os/lib/libutils/ext/snprintk.c:291
     618:	f1b9 0f44 	cmp.w	r9, #68	; 0x44
     61c:	f000 818a 	beq.w	934 <__vsnprintf+0x410>
     620:	dc14      	bgt.n	64c <__vsnprintf+0x128>
     622:	f1b9 0f39 	cmp.w	r9, #57	; 0x39
     626:	dcdd      	bgt.n	5e4 <__vsnprintf+0xc0>
     628:	2300      	movs	r3, #0
     62a:	930d      	str	r3, [sp, #52]	; 0x34
/mnt/disk/raspbian-tee/optee_os/lib/libutils/ext/snprintk.c:346
     62c:	9b0d      	ldr	r3, [sp, #52]	; 0x34
     62e:	f1a9 0930 	sub.w	r9, r9, #48	; 0x30
     632:	210a      	movs	r1, #10
     634:	fb01 9303 	mla	r3, r1, r3, r9
     638:	930d      	str	r3, [sp, #52]	; 0x34
/mnt/disk/raspbian-tee/optee_os/lib/libutils/ext/snprintk.c:347
     63a:	9b0b      	ldr	r3, [sp, #44]	; 0x2c
     63c:	f813 9b01 	ldrb.w	r9, [r3], #1
     640:	930b      	str	r3, [sp, #44]	; 0x2c
/mnt/disk/raspbian-tee/optee_os/lib/libutils/ext/snprintk.c:348
     642:	f1a9 0330 	sub.w	r3, r9, #48	; 0x30
     646:	2b09      	cmp	r3, #9
     648:	d9f0      	bls.n	62c <__vsnprintf+0x108>
     64a:	e7b3      	b.n	5b4 <__vsnprintf+0x90>
/mnt/disk/raspbian-tee/optee_os/lib/libutils/ext/snprintk.c:291
     64c:	f1b9 0f55 	cmp.w	r9, #85	; 0x55
     650:	f000 823d 	beq.w	ace <__vsnprintf+0x5aa>
     654:	f1b9 0f58 	cmp.w	r9, #88	; 0x58
     658:	f000 80ab 	beq.w	7b2 <__vsnprintf+0x28e>
     65c:	f1b9 0f4f 	cmp.w	r9, #79	; 0x4f
     660:	d1c0      	bne.n	5e4 <__vsnprintf+0xc0>
/mnt/disk/raspbian-tee/optee_os/lib/libutils/ext/snprintk.c:408
     662:	f046 0610 	orr.w	r6, r6, #16
/mnt/disk/raspbian-tee/optee_os/lib/libutils/ext/snprintk.c:411
     666:	0635      	lsls	r5, r6, #24
     668:	f140 81c0 	bpl.w	9ec <__vsnprintf+0x4c8>
     66c:	3207      	adds	r2, #7
     66e:	f022 0207 	bic.w	r2, r2, #7
     672:	f102 0708 	add.w	r7, r2, #8
     676:	e9d2 4500 	ldrd	r4, r5, [r2]
/mnt/disk/raspbian-tee/optee_os/lib/libutils/ext/snprintk.c:488
     67a:	f04f 0a00 	mov.w	sl, #0
     67e:	f1bb 3fff 	cmp.w	fp, #4294967295	; 0xffffffff
     682:	d011      	beq.n	6a8 <__vsnprintf+0x184>
     684:	4653      	mov	r3, sl
/mnt/disk/raspbian-tee/optee_os/lib/libutils/ext/snprintk.c:489
     686:	f426 6680 	bic.w	r6, r6, #1024	; 0x400
/mnt/disk/raspbian-tee/optee_os/lib/libutils/ext/snprintk.c:497
     68a:	ea54 0205 	orrs.w	r2, r4, r5
     68e:	d105      	bne.n	69c <__vsnprintf+0x178>
     690:	f1bb 0f00 	cmp.w	fp, #0
     694:	f000 8269 	beq.w	b6a <__vsnprintf+0x646>
     698:	2400      	movs	r4, #0
     69a:	2500      	movs	r5, #0
/mnt/disk/raspbian-tee/optee_os/lib/libutils/ext/snprintk.c:503
     69c:	2b01      	cmp	r3, #1
     69e:	f000 8161 	beq.w	964 <__vsnprintf+0x440>
     6a2:	2b02      	cmp	r3, #2
     6a4:	f000 81f8 	beq.w	a98 <__vsnprintf+0x574>
/mnt/disk/raspbian-tee/optee_os/lib/libutils/ext/snprintk.c:488
     6a8:	f10d 0275 	add.w	r2, sp, #117	; 0x75
/mnt/disk/raspbian-tee/optee_os/lib/libutils/ext/snprintk.c:507
     6ac:	08e0      	lsrs	r0, r4, #3
     6ae:	ea4f 0cd5 	mov.w	ip, r5, lsr #3
     6b2:	ea40 7045 	orr.w	r0, r0, r5, lsl #29
/mnt/disk/raspbian-tee/optee_os/lib/libutils/ext/snprintk.c:506
     6b6:	f004 0107 	and.w	r1, r4, #7
/mnt/disk/raspbian-tee/optee_os/lib/libutils/ext/snprintk.c:507
     6ba:	4665      	mov	r5, ip
     6bc:	4604      	mov	r4, r0
/mnt/disk/raspbian-tee/optee_os/lib/libutils/ext/snprintk.c:506
     6be:	3130      	adds	r1, #48	; 0x30
     6c0:	1e53      	subs	r3, r2, #1
     6c2:	f802 1c01 	strb.w	r1, [r2, #-1]
/mnt/disk/raspbian-tee/optee_os/lib/libutils/ext/snprintk.c:508
     6c6:	ea54 0005 	orrs.w	r0, r4, r5
     6ca:	f040 8239 	bne.w	b40 <__vsnprintf+0x61c>
/mnt/disk/raspbian-tee/optee_os/lib/libutils/ext/snprintk.c:510
     6ce:	07f5      	lsls	r5, r6, #31
     6d0:	d505      	bpl.n	6de <__vsnprintf+0x1ba>
     6d2:	2930      	cmp	r1, #48	; 0x30
     6d4:	d003      	beq.n	6de <__vsnprintf+0x1ba>
/mnt/disk/raspbian-tee/optee_os/lib/libutils/ext/snprintk.c:511
     6d6:	2130      	movs	r1, #48	; 0x30
     6d8:	f803 1c01 	strb.w	r1, [r3, #-1]
     6dc:	1e93      	subs	r3, r2, #2
/mnt/disk/raspbian-tee/optee_os/lib/libutils/ext/snprintk.c:537
     6de:	f10d 0275 	add.w	r2, sp, #117	; 0x75
     6e2:	4658      	mov	r0, fp
     6e4:	eba2 0b03 	sub.w	fp, r2, r3
     6e8:	e0d5      	b.n	896 <__vsnprintf+0x372>
/mnt/disk/raspbian-tee/optee_os/lib/libutils/ext/snprintk.c:291
     6ea:	f1b9 0f6f 	cmp.w	r9, #111	; 0x6f
     6ee:	d0ba      	beq.n	666 <__vsnprintf+0x142>
     6f0:	dc1e      	bgt.n	730 <__vsnprintf+0x20c>
     6f2:	f1b9 0f69 	cmp.w	r9, #105	; 0x69
     6f6:	f000 811f 	beq.w	938 <__vsnprintf+0x414>
     6fa:	dc0a      	bgt.n	712 <__vsnprintf+0x1ee>
     6fc:	f1b9 0f64 	cmp.w	r9, #100	; 0x64
     700:	f000 811a 	beq.w	938 <__vsnprintf+0x414>
     704:	f1b9 0f68 	cmp.w	r9, #104	; 0x68
     708:	f47f af6c 	bne.w	5e4 <__vsnprintf+0xc0>
/mnt/disk/raspbian-tee/optee_os/lib/libutils/ext/snprintk.c:352
     70c:	f046 0640 	orr.w	r6, r6, #64	; 0x40
     710:	e780      	b.n	614 <__vsnprintf+0xf0>
/mnt/disk/raspbian-tee/optee_os/lib/libutils/ext/snprintk.c:291
     712:	f1b9 0f6c 	cmp.w	r9, #108	; 0x6c
     716:	f000 80a1 	beq.w	85c <__vsnprintf+0x338>
     71a:	f1b9 0f6e 	cmp.w	r9, #110	; 0x6e
     71e:	f000 8146 	beq.w	9ae <__vsnprintf+0x48a>
     722:	f1b9 0f6a 	cmp.w	r9, #106	; 0x6a
     726:	f47f af5d 	bne.w	5e4 <__vsnprintf+0xc0>
/mnt/disk/raspbian-tee/optee_os/lib/libutils/ext/snprintk.c:355
     72a:	f046 0680 	orr.w	r6, r6, #128	; 0x80
     72e:	e771      	b.n	614 <__vsnprintf+0xf0>
/mnt/disk/raspbian-tee/optee_os/lib/libutils/ext/snprintk.c:291
     730:	f1b9 0f74 	cmp.w	r9, #116	; 0x74
     734:	f000 809f 	beq.w	876 <__vsnprintf+0x352>
     738:	dc22      	bgt.n	780 <__vsnprintf+0x25c>
     73a:	f1b9 0f71 	cmp.w	r9, #113	; 0x71
     73e:	f000 8094 	beq.w	86a <__vsnprintf+0x346>
     742:	f2c0 8167 	blt.w	a14 <__vsnprintf+0x4f0>
     746:	f1b9 0f73 	cmp.w	r9, #115	; 0x73
     74a:	f47f af4b 	bne.w	5e4 <__vsnprintf+0xc0>
/mnt/disk/raspbian-tee/optee_os/lib/libutils/ext/snprintk.c:442
     74e:	6813      	ldr	r3, [r2, #0]
     750:	1d17      	adds	r7, r2, #4
     752:	b913      	cbnz	r3, 75a <__vsnprintf+0x236>
/mnt/disk/raspbian-tee/optee_os/lib/libutils/ext/snprintk.c:444
     754:	f8df 34ec 	ldr.w	r3, [pc, #1260]	; c44 <__vsnprintf+0x720>
     758:	447b      	add	r3, pc
/mnt/disk/raspbian-tee/optee_os/lib/libutils/ext/snprintk.c:445
     75a:	f1bb 3fff 	cmp.w	fp, #4294967295	; 0xffffffff
     75e:	f000 81ad 	beq.w	abc <__vsnprintf+0x598>
/mnt/disk/raspbian-tee/optee_os/lib/libutils/ext/snprintk.c:451
     762:	4618      	mov	r0, r3
     764:	465a      	mov	r2, fp
     766:	2100      	movs	r1, #0
     768:	9311      	str	r3, [sp, #68]	; 0x44
     76a:	f007 f91f 	bl	79ac <memchr>
/mnt/disk/raspbian-tee/optee_os/lib/libutils/ext/snprintk.c:453
     76e:	9b11      	ldr	r3, [sp, #68]	; 0x44
     770:	b120      	cbz	r0, 77c <__vsnprintf+0x258>
/mnt/disk/raspbian-tee/optee_os/lib/libutils/ext/snprintk.c:454
     772:	1ac0      	subs	r0, r0, r3
     774:	4583      	cmp	fp, r0
     776:	bfa8      	it	ge
     778:	4683      	movge	fp, r0
/mnt/disk/raspbian-tee/optee_os/lib/libutils/ext/snprintk.c:285
     77a:	2000      	movs	r0, #0
/mnt/disk/raspbian-tee/optee_os/lib/libutils/ext/snprintk.c:461
     77c:	4682      	mov	sl, r0
     77e:	e08a      	b.n	896 <__vsnprintf+0x372>
/mnt/disk/raspbian-tee/optee_os/lib/libutils/ext/snprintk.c:291
     780:	f1b9 0f78 	cmp.w	r9, #120	; 0x78
     784:	f000 81c2 	beq.w	b0c <__vsnprintf+0x5e8>
     788:	f1b9 0f7a 	cmp.w	r9, #122	; 0x7a
     78c:	d076      	beq.n	87c <__vsnprintf+0x358>
     78e:	f1b9 0f75 	cmp.w	r9, #117	; 0x75
     792:	f47f af27 	bne.w	5e4 <__vsnprintf+0xc0>
/mnt/disk/raspbian-tee/optee_os/lib/libutils/ext/snprintk.c:467
     796:	f016 0380 	ands.w	r3, r6, #128	; 0x80
     79a:	f000 819b 	beq.w	ad4 <__vsnprintf+0x5b0>
     79e:	3207      	adds	r2, #7
     7a0:	f022 0207 	bic.w	r2, r2, #7
     7a4:	f102 0708 	add.w	r7, r2, #8
     7a8:	e9d2 4500 	ldrd	r4, r5, [r2]
/mnt/disk/raspbian-tee/optee_os/lib/libutils/ext/snprintk.c:482
     7ac:	f04f 0a00 	mov.w	sl, #0
     7b0:	e0d4      	b.n	95c <__vsnprintf+0x438>
/mnt/disk/raspbian-tee/optee_os/lib/libutils/ext/snprintk.c:471
     7b2:	f8df 3494 	ldr.w	r3, [pc, #1172]	; c48 <__vsnprintf+0x724>
     7b6:	447b      	add	r3, pc
/mnt/disk/raspbian-tee/optee_os/lib/libutils/ext/snprintk.c:474
     7b8:	930f      	str	r3, [sp, #60]	; 0x3c
/mnt/disk/raspbian-tee/optee_os/lib/libutils/ext/snprintk.c:475
     7ba:	0637      	lsls	r7, r6, #24
     7bc:	f140 81aa 	bpl.w	b14 <__vsnprintf+0x5f0>
     7c0:	3207      	adds	r2, #7
     7c2:	f022 0207 	bic.w	r2, r2, #7
     7c6:	f102 0708 	add.w	r7, r2, #8
     7ca:	e9d2 4500 	ldrd	r4, r5, [r2]
/mnt/disk/raspbian-tee/optee_os/lib/libutils/ext/snprintk.c:478
     7ce:	07f3      	lsls	r3, r6, #31
     7d0:	f140 815c 	bpl.w	a8c <__vsnprintf+0x568>
     7d4:	ea54 0305 	orrs.w	r3, r4, r5
     7d8:	f000 822d 	beq.w	c36 <__vsnprintf+0x712>
/mnt/disk/raspbian-tee/optee_os/lib/libutils/ext/snprintk.c:479
     7dc:	f046 0602 	orr.w	r6, r6, #2
/mnt/disk/raspbian-tee/optee_os/lib/libutils/ext/snprintk.c:488
     7e0:	f1bb 3fff 	cmp.w	fp, #4294967295	; 0xffffffff
     7e4:	f000 822a 	beq.w	c3c <__vsnprintf+0x718>
     7e8:	f04f 0a00 	mov.w	sl, #0
     7ec:	2302      	movs	r3, #2
     7ee:	e74a      	b.n	686 <__vsnprintf+0x162>
/mnt/disk/raspbian-tee/optee_os/lib/libutils/ext/snprintk.c:299
     7f0:	f1ba 0f00 	cmp.w	sl, #0
     7f4:	f04f 0320 	mov.w	r3, #32
     7f8:	bf08      	it	eq
     7fa:	469a      	moveq	sl, r3
     7fc:	e70a      	b.n	614 <__vsnprintf+0xf0>
/mnt/disk/raspbian-tee/optee_os/lib/libutils/ext/snprintk.c:302
     7fe:	f046 0601 	orr.w	r6, r6, #1
     802:	e707      	b.n	614 <__vsnprintf+0xf0>
/mnt/disk/raspbian-tee/optee_os/lib/libutils/ext/snprintk.c:311
     804:	1d13      	adds	r3, r2, #4
     806:	6812      	ldr	r2, [r2, #0]
     808:	920d      	str	r2, [sp, #52]	; 0x34
     80a:	2a00      	cmp	r2, #0
     80c:	f6bf aef4 	bge.w	5f8 <__vsnprintf+0xd4>
/mnt/disk/raspbian-tee/optee_os/lib/libutils/ext/snprintk.c:313
     810:	4252      	negs	r2, r2
     812:	920d      	str	r2, [sp, #52]	; 0x34
/mnt/disk/raspbian-tee/optee_os/lib/libutils/ext/snprintk.c:311
     814:	461a      	mov	r2, r3
/mnt/disk/raspbian-tee/optee_os/lib/libutils/ext/snprintk.c:316
     816:	f046 0604 	orr.w	r6, r6, #4
     81a:	e6fb      	b.n	614 <__vsnprintf+0xf0>
/mnt/disk/raspbian-tee/optee_os/lib/libutils/ext/snprintk.c:322
     81c:	990b      	ldr	r1, [sp, #44]	; 0x2c
     81e:	9b0b      	ldr	r3, [sp, #44]	; 0x2c
     820:	f891 9000 	ldrb.w	r9, [r1]
     824:	3301      	adds	r3, #1
     826:	f1b9 0f2a 	cmp.w	r9, #42	; 0x2a
     82a:	d00e      	beq.n	84a <__vsnprintf+0x326>
     82c:	f04f 0b00 	mov.w	fp, #0
/mnt/disk/raspbian-tee/optee_os/lib/libutils/ext/snprintk.c:330
     830:	930b      	str	r3, [sp, #44]	; 0x2c
/mnt/disk/raspbian-tee/optee_os/lib/libutils/ext/snprintk.c:328
     832:	f1a9 0330 	sub.w	r3, r9, #48	; 0x30
     836:	2b09      	cmp	r3, #9
     838:	f63f aebc 	bhi.w	5b4 <__vsnprintf+0x90>
/mnt/disk/raspbian-tee/optee_os/lib/libutils/ext/snprintk.c:329
     83c:	210a      	movs	r1, #10
     83e:	fb01 3b0b 	mla	fp, r1, fp, r3
/mnt/disk/raspbian-tee/optee_os/lib/libutils/ext/snprintk.c:330
     842:	9b0b      	ldr	r3, [sp, #44]	; 0x2c
     844:	f813 9b01 	ldrb.w	r9, [r3], #1
     848:	e7f2      	b.n	830 <__vsnprintf+0x30c>
/mnt/disk/raspbian-tee/optee_os/lib/libutils/ext/snprintk.c:324
     84a:	6811      	ldr	r1, [r2, #0]
/mnt/disk/raspbian-tee/optee_os/lib/libutils/ext/snprintk.c:323
     84c:	3204      	adds	r2, #4
/mnt/disk/raspbian-tee/optee_os/lib/libutils/ext/snprintk.c:322
     84e:	930b      	str	r3, [sp, #44]	; 0x2c
/mnt/disk/raspbian-tee/optee_os/lib/libutils/ext/snprintk.c:324
     850:	ea41 7be1 	orr.w	fp, r1, r1, asr #31
     854:	e6de      	b.n	614 <__vsnprintf+0xf0>
/mnt/disk/raspbian-tee/optee_os/lib/libutils/ext/snprintk.c:340
     856:	f446 6680 	orr.w	r6, r6, #1024	; 0x400
     85a:	e6db      	b.n	614 <__vsnprintf+0xf0>
/mnt/disk/raspbian-tee/optee_os/lib/libutils/ext/snprintk.c:358
     85c:	9b0b      	ldr	r3, [sp, #44]	; 0x2c
     85e:	781b      	ldrb	r3, [r3, #0]
     860:	2b6c      	cmp	r3, #108	; 0x6c
     862:	d105      	bne.n	870 <__vsnprintf+0x34c>
/mnt/disk/raspbian-tee/optee_os/lib/libutils/ext/snprintk.c:359
     864:	9b0b      	ldr	r3, [sp, #44]	; 0x2c
     866:	3301      	adds	r3, #1
     868:	930b      	str	r3, [sp, #44]	; 0x2c
/mnt/disk/raspbian-tee/optee_os/lib/libutils/ext/snprintk.c:366
     86a:	f046 0620 	orr.w	r6, r6, #32
     86e:	e6d1      	b.n	614 <__vsnprintf+0xf0>
/mnt/disk/raspbian-tee/optee_os/lib/libutils/ext/snprintk.c:362
     870:	f046 0610 	orr.w	r6, r6, #16
     874:	e6ce      	b.n	614 <__vsnprintf+0xf0>
/mnt/disk/raspbian-tee/optee_os/lib/libutils/ext/snprintk.c:369
     876:	f446 7680 	orr.w	r6, r6, #256	; 0x100
     87a:	e6cb      	b.n	614 <__vsnprintf+0xf0>
/mnt/disk/raspbian-tee/optee_os/lib/libutils/ext/snprintk.c:372
     87c:	f446 7600 	orr.w	r6, r6, #512	; 0x200
     880:	e6c8      	b.n	614 <__vsnprintf+0xf0>
/mnt/disk/raspbian-tee/optee_os/lib/libutils/ext/snprintk.c:375
     882:	ab1e      	add	r3, sp, #120	; 0x78
/mnt/disk/raspbian-tee/optee_os/lib/libutils/ext/snprintk.c:285
     884:	f04f 0a00 	mov.w	sl, #0
/mnt/disk/raspbian-tee/optee_os/lib/libutils/ext/snprintk.c:375
     888:	1d17      	adds	r7, r2, #4
/mnt/disk/raspbian-tee/optee_os/lib/libutils/ext/snprintk.c:376
     88a:	f04f 0b01 	mov.w	fp, #1
/mnt/disk/raspbian-tee/optee_os/lib/libutils/ext/snprintk.c:375
     88e:	6812      	ldr	r2, [r2, #0]
/mnt/disk/raspbian-tee/optee_os/lib/libutils/ext/snprintk.c:377
     890:	4650      	mov	r0, sl
/mnt/disk/raspbian-tee/optee_os/lib/libutils/ext/snprintk.c:375
     892:	f803 2d28 	strb.w	r2, [r3, #-40]!
/mnt/disk/raspbian-tee/optee_os/lib/libutils/ext/snprintk.c:565
     896:	4558      	cmp	r0, fp
     898:	4602      	mov	r2, r0
     89a:	bfb8      	it	lt
     89c:	465a      	movlt	r2, fp
/mnt/disk/raspbian-tee/optee_os/lib/libutils/ext/snprintk.c:566
     89e:	f1ba 0f00 	cmp.w	sl, #0
     8a2:	f000 8165 	beq.w	b70 <__vsnprintf+0x64c>
/mnt/disk/raspbian-tee/optee_os/lib/libutils/ext/snprintk.c:567
     8a6:	3201      	adds	r2, #1
/mnt/disk/raspbian-tee/optee_os/lib/libutils/ext/snprintk.c:572
     8a8:	990d      	ldr	r1, [sp, #52]	; 0x34
     8aa:	9c0c      	ldr	r4, [sp, #48]	; 0x30
     8ac:	4291      	cmp	r1, r2
     8ae:	bfb8      	it	lt
     8b0:	4611      	movlt	r1, r2
     8b2:	440c      	add	r4, r1
/mnt/disk/raspbian-tee/optee_os/lib/libutils/ext/snprintk.c:575
     8b4:	f240 4104 	movw	r1, #1028	; 0x404
/mnt/disk/raspbian-tee/optee_os/lib/libutils/ext/snprintk.c:572
     8b8:	940c      	str	r4, [sp, #48]	; 0x30
/mnt/disk/raspbian-tee/optee_os/lib/libutils/ext/snprintk.c:575
     8ba:	ea16 0401 	ands.w	r4, r6, r1
     8be:	d106      	bne.n	8ce <__vsnprintf+0x3aa>
/mnt/disk/raspbian-tee/optee_os/lib/libutils/ext/snprintk.c:576
     8c0:	990d      	ldr	r1, [sp, #52]	; 0x34
/mnt/disk/raspbian-tee/optee_os/lib/libutils/ext/snprintk.c:578
     8c2:	f04f 0c20 	mov.w	ip, #32
/mnt/disk/raspbian-tee/optee_os/lib/libutils/ext/snprintk.c:576
     8c6:	1a89      	subs	r1, r1, r2
/mnt/disk/raspbian-tee/optee_os/lib/libutils/ext/snprintk.c:577
     8c8:	2900      	cmp	r1, #0
     8ca:	f300 8155 	bgt.w	b78 <__vsnprintf+0x654>
/mnt/disk/raspbian-tee/optee_os/lib/libutils/ext/snprintk.c:582
     8ce:	f1ba 0f00 	cmp.w	sl, #0
     8d2:	f000 8166 	beq.w	ba2 <__vsnprintf+0x67e>
/mnt/disk/raspbian-tee/optee_os/lib/libutils/ext/snprintk.c:583
     8d6:	f1b8 0f00 	cmp.w	r8, #0
     8da:	f040 8159 	bne.w	b90 <__vsnprintf+0x66c>
/mnt/disk/raspbian-tee/optee_os/lib/libutils/ext/snprintk.c:586
     8de:	f04f 0800 	mov.w	r8, #0
/mnt/disk/raspbian-tee/optee_os/lib/libutils/ext/snprintk.c:590
     8e2:	f5b4 6f80 	cmp.w	r4, #1024	; 0x400
     8e6:	d105      	bne.n	8f4 <__vsnprintf+0x3d0>
/mnt/disk/raspbian-tee/optee_os/lib/libutils/ext/snprintk.c:591
     8e8:	990d      	ldr	r1, [sp, #52]	; 0x34
/mnt/disk/raspbian-tee/optee_os/lib/libutils/ext/snprintk.c:593
     8ea:	2430      	movs	r4, #48	; 0x30
/mnt/disk/raspbian-tee/optee_os/lib/libutils/ext/snprintk.c:591
     8ec:	1a89      	subs	r1, r1, r2
/mnt/disk/raspbian-tee/optee_os/lib/libutils/ext/snprintk.c:592
     8ee:	2900      	cmp	r1, #0
     8f0:	f300 8173 	bgt.w	bda <__vsnprintf+0x6b6>
/mnt/disk/raspbian-tee/optee_os/lib/libutils/ext/snprintk.c:597
     8f4:	eba0 000b 	sub.w	r0, r0, fp
/mnt/disk/raspbian-tee/optee_os/lib/libutils/ext/snprintk.c:599
     8f8:	2130      	movs	r1, #48	; 0x30
/mnt/disk/raspbian-tee/optee_os/lib/libutils/ext/snprintk.c:598
     8fa:	2800      	cmp	r0, #0
     8fc:	f300 8179 	bgt.w	bf2 <__vsnprintf+0x6ce>
     900:	eb03 010b 	add.w	r1, r3, fp
/mnt/disk/raspbian-tee/optee_os/lib/libutils/ext/snprintk.c:602
     904:	428b      	cmp	r3, r1
     906:	f040 8180 	bne.w	c0a <__vsnprintf+0x6e6>
/mnt/disk/raspbian-tee/optee_os/lib/libutils/ext/snprintk.c:605
     90a:	0773      	lsls	r3, r6, #29
     90c:	f57f ae1b 	bpl.w	546 <__vsnprintf+0x22>
/mnt/disk/raspbian-tee/optee_os/lib/libutils/ext/snprintk.c:606
     910:	9b0d      	ldr	r3, [sp, #52]	; 0x34
     912:	1a9b      	subs	r3, r3, r2
/mnt/disk/raspbian-tee/optee_os/lib/libutils/ext/snprintk.c:608
     914:	2220      	movs	r2, #32
/mnt/disk/raspbian-tee/optee_os/lib/libutils/ext/snprintk.c:607
     916:	2b00      	cmp	r3, #0
     918:	f77f ae15 	ble.w	546 <__vsnprintf+0x22>
/mnt/disk/raspbian-tee/optee_os/lib/libutils/ext/snprintk.c:608
     91c:	f1b8 0f00 	cmp.w	r8, #0
     920:	d006      	beq.n	930 <__vsnprintf+0x40c>
     922:	990e      	ldr	r1, [sp, #56]	; 0x38
     924:	4541      	cmp	r1, r8
     926:	d903      	bls.n	930 <__vsnprintf+0x40c>
     928:	f888 2000 	strb.w	r2, [r8]
     92c:	f108 0801 	add.w	r8, r8, #1
     930:	3b01      	subs	r3, #1
     932:	e7f0      	b.n	916 <__vsnprintf+0x3f2>
/mnt/disk/raspbian-tee/optee_os/lib/libutils/ext/snprintk.c:380
     934:	f046 0610 	orr.w	r6, r6, #16
/mnt/disk/raspbian-tee/optee_os/lib/libutils/ext/snprintk.c:384
     938:	0631      	lsls	r1, r6, #24
     93a:	d523      	bpl.n	984 <__vsnprintf+0x460>
     93c:	3207      	adds	r2, #7
     93e:	f022 0207 	bic.w	r2, r2, #7
     942:	f102 0708 	add.w	r7, r2, #8
     946:	e9d2 4500 	ldrd	r4, r5, [r2]
/mnt/disk/raspbian-tee/optee_os/lib/libutils/ext/snprintk.c:385
     94a:	2c00      	cmp	r4, #0
     94c:	f175 0300 	sbcs.w	r3, r5, #0
     950:	da04      	bge.n	95c <__vsnprintf+0x438>
/mnt/disk/raspbian-tee/optee_os/lib/libutils/ext/snprintk.c:386
     952:	4264      	negs	r4, r4
/mnt/disk/raspbian-tee/optee_os/lib/libutils/ext/snprintk.c:387
     954:	f04f 0a2d 	mov.w	sl, #45	; 0x2d
/mnt/disk/raspbian-tee/optee_os/lib/libutils/ext/snprintk.c:386
     958:	eb65 0545 	sbc.w	r5, r5, r5, lsl #1
/mnt/disk/raspbian-tee/optee_os/lib/libutils/ext/snprintk.c:488
     95c:	f1bb 3fff 	cmp.w	fp, #4294967295	; 0xffffffff
     960:	f040 80ec 	bne.w	b3c <__vsnprintf+0x618>
/mnt/disk/raspbian-tee/optee_os/lib/libutils/ext/snprintk.c:508
     964:	f10d 0375 	add.w	r3, sp, #117	; 0x75
     968:	9311      	str	r3, [sp, #68]	; 0x44
     96a:	9b11      	ldr	r3, [sp, #68]	; 0x44
/mnt/disk/raspbian-tee/optee_os/lib/libutils/ext/snprintk.c:516
     96c:	2d00      	cmp	r5, #0
     96e:	bf08      	it	eq
     970:	2c0a      	cmpeq	r4, #10
     972:	f103 33ff 	add.w	r3, r3, #4294967295	; 0xffffffff
     976:	f080 80e5 	bcs.w	b44 <__vsnprintf+0x620>
/mnt/disk/raspbian-tee/optee_os/lib/libutils/ext/snprintk.c:520
     97a:	9a11      	ldr	r2, [sp, #68]	; 0x44
     97c:	3430      	adds	r4, #48	; 0x30
     97e:	f802 4c01 	strb.w	r4, [r2, #-1]
     982:	e6ac      	b.n	6de <__vsnprintf+0x1ba>
/mnt/disk/raspbian-tee/optee_os/lib/libutils/ext/snprintk.c:384
     984:	05f3      	lsls	r3, r6, #23
     986:	d503      	bpl.n	990 <__vsnprintf+0x46c>
     988:	1d17      	adds	r7, r2, #4
     98a:	6814      	ldr	r4, [r2, #0]
     98c:	17e5      	asrs	r5, r4, #31
     98e:	e7dc      	b.n	94a <__vsnprintf+0x426>
     990:	05b7      	lsls	r7, r6, #22
     992:	d4f9      	bmi.n	988 <__vsnprintf+0x464>
     994:	06b5      	lsls	r5, r6, #26
     996:	d4d1      	bmi.n	93c <__vsnprintf+0x418>
     998:	f016 0f10 	tst.w	r6, #16
     99c:	f102 0704 	add.w	r7, r2, #4
     9a0:	d1f3      	bne.n	98a <__vsnprintf+0x466>
     9a2:	f016 0f40 	tst.w	r6, #64	; 0x40
     9a6:	6814      	ldr	r4, [r2, #0]
     9a8:	d0f0      	beq.n	98c <__vsnprintf+0x468>
     9aa:	b224      	sxth	r4, r4
     9ac:	e7ee      	b.n	98c <__vsnprintf+0x468>
/mnt/disk/raspbian-tee/optee_os/lib/libutils/ext/snprintk.c:392
     9ae:	f016 0f80 	tst.w	r6, #128	; 0x80
     9b2:	f102 0704 	add.w	r7, r2, #4
     9b6:	d006      	beq.n	9c6 <__vsnprintf+0x4a2>
/mnt/disk/raspbian-tee/optee_os/lib/libutils/ext/snprintk.c:399
     9b8:	6813      	ldr	r3, [r2, #0]
     9ba:	9a0c      	ldr	r2, [sp, #48]	; 0x30
     9bc:	4610      	mov	r0, r2
     9be:	17d1      	asrs	r1, r2, #31
     9c0:	e9c3 0100 	strd	r0, r1, [r3]
     9c4:	e5bf      	b.n	546 <__vsnprintf+0x22>
/mnt/disk/raspbian-tee/optee_os/lib/libutils/ext/snprintk.c:394
     9c6:	05f4      	lsls	r4, r6, #23
     9c8:	d503      	bpl.n	9d2 <__vsnprintf+0x4ae>
/mnt/disk/raspbian-tee/optee_os/lib/libutils/ext/snprintk.c:405
     9ca:	6813      	ldr	r3, [r2, #0]
     9cc:	9a0c      	ldr	r2, [sp, #48]	; 0x30
     9ce:	601a      	str	r2, [r3, #0]
     9d0:	e5b9      	b.n	546 <__vsnprintf+0x22>
/mnt/disk/raspbian-tee/optee_os/lib/libutils/ext/snprintk.c:396
     9d2:	05b0      	lsls	r0, r6, #22
     9d4:	d4f9      	bmi.n	9ca <__vsnprintf+0x4a6>
/mnt/disk/raspbian-tee/optee_os/lib/libutils/ext/snprintk.c:398
     9d6:	06b1      	lsls	r1, r6, #26
     9d8:	d4ee      	bmi.n	9b8 <__vsnprintf+0x494>
/mnt/disk/raspbian-tee/optee_os/lib/libutils/ext/snprintk.c:400
     9da:	06f3      	lsls	r3, r6, #27
     9dc:	d4f5      	bmi.n	9ca <__vsnprintf+0x4a6>
/mnt/disk/raspbian-tee/optee_os/lib/libutils/ext/snprintk.c:402
     9de:	0676      	lsls	r6, r6, #25
     9e0:	d5f3      	bpl.n	9ca <__vsnprintf+0x4a6>
/mnt/disk/raspbian-tee/optee_os/lib/libutils/ext/snprintk.c:403
     9e2:	6813      	ldr	r3, [r2, #0]
     9e4:	f8bd 2030 	ldrh.w	r2, [sp, #48]	; 0x30
     9e8:	801a      	strh	r2, [r3, #0]
     9ea:	e5ac      	b.n	546 <__vsnprintf+0x22>
/mnt/disk/raspbian-tee/optee_os/lib/libutils/ext/snprintk.c:411
     9ec:	05f4      	lsls	r4, r6, #23
     9ee:	d502      	bpl.n	9f6 <__vsnprintf+0x4d2>
     9f0:	1d17      	adds	r7, r2, #4
     9f2:	6814      	ldr	r4, [r2, #0]
     9f4:	e00c      	b.n	a10 <__vsnprintf+0x4ec>
     9f6:	05b0      	lsls	r0, r6, #22
     9f8:	d4fa      	bmi.n	9f0 <__vsnprintf+0x4cc>
     9fa:	06b1      	lsls	r1, r6, #26
     9fc:	f53f ae36 	bmi.w	66c <__vsnprintf+0x148>
     a00:	f016 0f10 	tst.w	r6, #16
     a04:	f102 0704 	add.w	r7, r2, #4
     a08:	d1f3      	bne.n	9f2 <__vsnprintf+0x4ce>
     a0a:	0673      	lsls	r3, r6, #25
     a0c:	d5f1      	bpl.n	9f2 <__vsnprintf+0x4ce>
     a0e:	8814      	ldrh	r4, [r2, #0]
     a10:	2500      	movs	r5, #0
     a12:	e632      	b.n	67a <__vsnprintf+0x156>
/mnt/disk/raspbian-tee/optee_os/lib/libutils/ext/snprintk.c:415
     a14:	9b13      	ldr	r3, [sp, #76]	; 0x4c
     a16:	2b00      	cmp	r3, #0
     a18:	d02d      	beq.n	a76 <__vsnprintf+0x552>
     a1a:	9b0b      	ldr	r3, [sp, #44]	; 0x2c
     a1c:	781b      	ldrb	r3, [r3, #0]
     a1e:	2b55      	cmp	r3, #85	; 0x55
     a20:	d129      	bne.n	a76 <__vsnprintf+0x552>
     a22:	9b0b      	ldr	r3, [sp, #44]	; 0x2c
     a24:	785b      	ldrb	r3, [r3, #1]
     a26:	2b6c      	cmp	r3, #108	; 0x6c
     a28:	d125      	bne.n	a76 <__vsnprintf+0x552>
/mnt/disk/raspbian-tee/optee_os/lib/libutils/ext/snprintk.c:420
     a2a:	9b0b      	ldr	r3, [sp, #44]	; 0x2c
/mnt/disk/raspbian-tee/optee_os/lib/libutils/ext/snprintk.c:421
     a2c:	1d17      	adds	r7, r2, #4
uuid2str():
/mnt/disk/raspbian-tee/optee_os/lib/libutils/ext/snprintk.c:223
     a2e:	ac14      	add	r4, sp, #80	; 0x50
     a30:	2125      	movs	r1, #37	; 0x25
kprintf():
/mnt/disk/raspbian-tee/optee_os/lib/libutils/ext/snprintk.c:420
     a32:	3302      	adds	r3, #2
     a34:	930b      	str	r3, [sp, #44]	; 0x2c
/mnt/disk/raspbian-tee/optee_os/lib/libutils/ext/snprintk.c:421
     a36:	6813      	ldr	r3, [r2, #0]
uuid2str():
/mnt/disk/raspbian-tee/optee_os/lib/libutils/ext/snprintk.c:223
     a38:	4620      	mov	r0, r4
     a3a:	7bda      	ldrb	r2, [r3, #15]
     a3c:	9209      	str	r2, [sp, #36]	; 0x24
     a3e:	7b9a      	ldrb	r2, [r3, #14]
     a40:	9208      	str	r2, [sp, #32]
     a42:	7b5a      	ldrb	r2, [r3, #13]
     a44:	9207      	str	r2, [sp, #28]
     a46:	7b1a      	ldrb	r2, [r3, #12]
     a48:	9206      	str	r2, [sp, #24]
     a4a:	7ada      	ldrb	r2, [r3, #11]
     a4c:	9205      	str	r2, [sp, #20]
     a4e:	7a9a      	ldrb	r2, [r3, #10]
     a50:	9204      	str	r2, [sp, #16]
     a52:	7a5a      	ldrb	r2, [r3, #9]
     a54:	9203      	str	r2, [sp, #12]
     a56:	7a1a      	ldrb	r2, [r3, #8]
     a58:	9202      	str	r2, [sp, #8]
     a5a:	88da      	ldrh	r2, [r3, #6]
     a5c:	9201      	str	r2, [sp, #4]
     a5e:	889a      	ldrh	r2, [r3, #4]
     a60:	9200      	str	r2, [sp, #0]
     a62:	4a7a      	ldr	r2, [pc, #488]	; (c4c <__vsnprintf+0x728>)
     a64:	681b      	ldr	r3, [r3, #0]
     a66:	447a      	add	r2, pc
     a68:	f000 f8fd 	bl	c66 <snprintk>
     a6c:	4683      	mov	fp, r0
kprintf():
/mnt/disk/raspbian-tee/optee_os/lib/libutils/ext/snprintk.c:285
     a6e:	2000      	movs	r0, #0
/mnt/disk/raspbian-tee/optee_os/lib/libutils/ext/snprintk.c:423
     a70:	4623      	mov	r3, r4
/mnt/disk/raspbian-tee/optee_os/lib/libutils/ext/snprintk.c:424
     a72:	4682      	mov	sl, r0
     a74:	e70f      	b.n	896 <__vsnprintf+0x372>
/mnt/disk/raspbian-tee/optee_os/lib/libutils/ext/snprintk.c:437
     a76:	4b76      	ldr	r3, [pc, #472]	; (c50 <__vsnprintf+0x72c>)
/mnt/disk/raspbian-tee/optee_os/lib/libutils/ext/snprintk.c:435
     a78:	1d17      	adds	r7, r2, #4
     a7a:	6814      	ldr	r4, [r2, #0]
     a7c:	2500      	movs	r5, #0
/mnt/disk/raspbian-tee/optee_os/lib/libutils/ext/snprintk.c:437
     a7e:	447b      	add	r3, pc
/mnt/disk/raspbian-tee/optee_os/lib/libutils/ext/snprintk.c:438
     a80:	f046 0602 	orr.w	r6, r6, #2
/mnt/disk/raspbian-tee/optee_os/lib/libutils/ext/snprintk.c:439
     a84:	f04f 0978 	mov.w	r9, #120	; 0x78
/mnt/disk/raspbian-tee/optee_os/lib/libutils/ext/snprintk.c:437
     a88:	3311      	adds	r3, #17
     a8a:	930f      	str	r3, [sp, #60]	; 0x3c
/mnt/disk/raspbian-tee/optee_os/lib/libutils/ext/snprintk.c:488
     a8c:	f1bb 3fff 	cmp.w	fp, #4294967295	; 0xffffffff
     a90:	f47f aeaa 	bne.w	7e8 <__vsnprintf+0x2c4>
     a94:	f04f 0a00 	mov.w	sl, #0
     a98:	f10d 0375 	add.w	r3, sp, #117	; 0x75
/mnt/disk/raspbian-tee/optee_os/lib/libutils/ext/snprintk.c:525
     a9c:	f004 020f 	and.w	r2, r4, #15
     aa0:	990f      	ldr	r1, [sp, #60]	; 0x3c
     aa2:	5c8a      	ldrb	r2, [r1, r2]
/mnt/disk/raspbian-tee/optee_os/lib/libutils/ext/snprintk.c:526
     aa4:	0929      	lsrs	r1, r5, #4
/mnt/disk/raspbian-tee/optee_os/lib/libutils/ext/snprintk.c:525
     aa6:	f803 2d01 	strb.w	r2, [r3, #-1]!
/mnt/disk/raspbian-tee/optee_os/lib/libutils/ext/snprintk.c:526
     aaa:	0922      	lsrs	r2, r4, #4
     aac:	ea42 7205 	orr.w	r2, r2, r5, lsl #28
     ab0:	460d      	mov	r5, r1
     ab2:	4614      	mov	r4, r2
/mnt/disk/raspbian-tee/optee_os/lib/libutils/ext/snprintk.c:527
     ab4:	ea54 0205 	orrs.w	r2, r4, r5
     ab8:	d1f0      	bne.n	a9c <__vsnprintf+0x578>
     aba:	e610      	b.n	6de <__vsnprintf+0x1ba>
/mnt/disk/raspbian-tee/optee_os/lib/libutils/ext/snprintk.c:460
     abc:	4618      	mov	r0, r3
     abe:	9311      	str	r3, [sp, #68]	; 0x44
     ac0:	f006 ff82 	bl	79c8 <strlen>
     ac4:	4683      	mov	fp, r0
/mnt/disk/raspbian-tee/optee_os/lib/libutils/ext/snprintk.c:285
     ac6:	2000      	movs	r0, #0
     ac8:	9b11      	ldr	r3, [sp, #68]	; 0x44
/mnt/disk/raspbian-tee/optee_os/lib/libutils/ext/snprintk.c:461
     aca:	4682      	mov	sl, r0
     acc:	e6e3      	b.n	896 <__vsnprintf+0x372>
/mnt/disk/raspbian-tee/optee_os/lib/libutils/ext/snprintk.c:464
     ace:	f046 0610 	orr.w	r6, r6, #16
     ad2:	e660      	b.n	796 <__vsnprintf+0x272>
/mnt/disk/raspbian-tee/optee_os/lib/libutils/ext/snprintk.c:467
     ad4:	f416 7a80 	ands.w	sl, r6, #256	; 0x100
     ad8:	d003      	beq.n	ae2 <__vsnprintf+0x5be>
     ada:	6814      	ldr	r4, [r2, #0]
     adc:	1d17      	adds	r7, r2, #4
     ade:	2500      	movs	r5, #0
     ae0:	e664      	b.n	7ac <__vsnprintf+0x288>
     ae2:	f416 7300 	ands.w	r3, r6, #512	; 0x200
     ae6:	d003      	beq.n	af0 <__vsnprintf+0x5cc>
     ae8:	1d17      	adds	r7, r2, #4
     aea:	6814      	ldr	r4, [r2, #0]
     aec:	2500      	movs	r5, #0
     aee:	e735      	b.n	95c <__vsnprintf+0x438>
     af0:	f016 0a20 	ands.w	sl, r6, #32
     af4:	f47f ae53 	bne.w	79e <__vsnprintf+0x27a>
     af8:	f016 0310 	ands.w	r3, r6, #16
     afc:	f102 0704 	add.w	r7, r2, #4
     b00:	d1f3      	bne.n	aea <__vsnprintf+0x5c6>
     b02:	f016 0a40 	ands.w	sl, r6, #64	; 0x40
     b06:	d0f0      	beq.n	aea <__vsnprintf+0x5c6>
     b08:	8814      	ldrh	r4, [r2, #0]
     b0a:	e7e8      	b.n	ade <__vsnprintf+0x5ba>
/mnt/disk/raspbian-tee/optee_os/lib/libutils/ext/snprintk.c:474
     b0c:	4b51      	ldr	r3, [pc, #324]	; (c54 <__vsnprintf+0x730>)
     b0e:	447b      	add	r3, pc
     b10:	3311      	adds	r3, #17
     b12:	e651      	b.n	7b8 <__vsnprintf+0x294>
/mnt/disk/raspbian-tee/optee_os/lib/libutils/ext/snprintk.c:475
     b14:	05f5      	lsls	r5, r6, #23
     b16:	d502      	bpl.n	b1e <__vsnprintf+0x5fa>
     b18:	1d17      	adds	r7, r2, #4
     b1a:	6814      	ldr	r4, [r2, #0]
     b1c:	e00c      	b.n	b38 <__vsnprintf+0x614>
     b1e:	05b4      	lsls	r4, r6, #22
     b20:	d4fa      	bmi.n	b18 <__vsnprintf+0x5f4>
     b22:	06b0      	lsls	r0, r6, #26
     b24:	f53f ae4c 	bmi.w	7c0 <__vsnprintf+0x29c>
     b28:	f016 0f10 	tst.w	r6, #16
     b2c:	f102 0704 	add.w	r7, r2, #4
     b30:	d1f3      	bne.n	b1a <__vsnprintf+0x5f6>
     b32:	0671      	lsls	r1, r6, #25
     b34:	d5f1      	bpl.n	b1a <__vsnprintf+0x5f6>
     b36:	8814      	ldrh	r4, [r2, #0]
     b38:	2500      	movs	r5, #0
     b3a:	e648      	b.n	7ce <__vsnprintf+0x2aa>
/mnt/disk/raspbian-tee/optee_os/lib/libutils/ext/snprintk.c:488
     b3c:	2301      	movs	r3, #1
     b3e:	e5a2      	b.n	686 <__vsnprintf+0x162>
/mnt/disk/raspbian-tee/optee_os/lib/libutils/ext/snprintk.c:508
     b40:	461a      	mov	r2, r3
     b42:	e5b3      	b.n	6ac <__vsnprintf+0x188>
/mnt/disk/raspbian-tee/optee_os/lib/libutils/ext/snprintk.c:517
     b44:	9311      	str	r3, [sp, #68]	; 0x44
     b46:	4620      	mov	r0, r4
     b48:	4629      	mov	r1, r5
     b4a:	220a      	movs	r2, #10
     b4c:	2300      	movs	r3, #0
     b4e:	f000 e8a4 	blx	c98 <__aeabi_uldivmod>
     b52:	9b11      	ldr	r3, [sp, #68]	; 0x44
     b54:	3230      	adds	r2, #48	; 0x30
/mnt/disk/raspbian-tee/optee_os/lib/libutils/ext/snprintk.c:518
     b56:	4620      	mov	r0, r4
     b58:	4629      	mov	r1, r5
/mnt/disk/raspbian-tee/optee_os/lib/libutils/ext/snprintk.c:517
     b5a:	701a      	strb	r2, [r3, #0]
/mnt/disk/raspbian-tee/optee_os/lib/libutils/ext/snprintk.c:518
     b5c:	220a      	movs	r2, #10
     b5e:	2300      	movs	r3, #0
     b60:	f000 e89a 	blx	c98 <__aeabi_uldivmod>
     b64:	4604      	mov	r4, r0
     b66:	460d      	mov	r5, r1
     b68:	e6ff      	b.n	96a <__vsnprintf+0x446>
/mnt/disk/raspbian-tee/optee_os/lib/libutils/ext/snprintk.c:496
     b6a:	f10d 0375 	add.w	r3, sp, #117	; 0x75
     b6e:	e5b6      	b.n	6de <__vsnprintf+0x1ba>
/mnt/disk/raspbian-tee/optee_os/lib/libutils/ext/snprintk.c:568
     b70:	07b4      	lsls	r4, r6, #30
/mnt/disk/raspbian-tee/optee_os/lib/libutils/ext/snprintk.c:569
     b72:	bf48      	it	mi
     b74:	3202      	addmi	r2, #2
     b76:	e697      	b.n	8a8 <__vsnprintf+0x384>
/mnt/disk/raspbian-tee/optee_os/lib/libutils/ext/snprintk.c:578
     b78:	f1b8 0f00 	cmp.w	r8, #0
     b7c:	d006      	beq.n	b8c <__vsnprintf+0x668>
     b7e:	9d0e      	ldr	r5, [sp, #56]	; 0x38
     b80:	4545      	cmp	r5, r8
     b82:	d903      	bls.n	b8c <__vsnprintf+0x668>
     b84:	f888 c000 	strb.w	ip, [r8]
     b88:	f108 0801 	add.w	r8, r8, #1
     b8c:	3901      	subs	r1, #1
     b8e:	e69b      	b.n	8c8 <__vsnprintf+0x3a4>
/mnt/disk/raspbian-tee/optee_os/lib/libutils/ext/snprintk.c:583
     b90:	990e      	ldr	r1, [sp, #56]	; 0x38
     b92:	4541      	cmp	r1, r8
     b94:	f67f aea5 	bls.w	8e2 <__vsnprintf+0x3be>
     b98:	f888 a000 	strb.w	sl, [r8]
     b9c:	f108 0801 	add.w	r8, r8, #1
     ba0:	e69f      	b.n	8e2 <__vsnprintf+0x3be>
/mnt/disk/raspbian-tee/optee_os/lib/libutils/ext/snprintk.c:584
     ba2:	07b1      	lsls	r1, r6, #30
     ba4:	f57f ae9d 	bpl.w	8e2 <__vsnprintf+0x3be>
/mnt/disk/raspbian-tee/optee_os/lib/libutils/ext/snprintk.c:585
     ba8:	f1b8 0f00 	cmp.w	r8, #0
     bac:	f43f ae97 	beq.w	8de <__vsnprintf+0x3ba>
     bb0:	990e      	ldr	r1, [sp, #56]	; 0x38
     bb2:	4541      	cmp	r1, r8
     bb4:	f67f ae95 	bls.w	8e2 <__vsnprintf+0x3be>
     bb8:	2130      	movs	r1, #48	; 0x30
     bba:	f888 1000 	strb.w	r1, [r8]
/mnt/disk/raspbian-tee/optee_os/lib/libutils/ext/snprintk.c:586
     bbe:	f118 0101 	adds.w	r1, r8, #1
     bc2:	f43f ae8c 	beq.w	8de <__vsnprintf+0x3ba>
     bc6:	9d0e      	ldr	r5, [sp, #56]	; 0x38
     bc8:	428d      	cmp	r5, r1
     bca:	d904      	bls.n	bd6 <__vsnprintf+0x6b2>
     bcc:	f888 9001 	strb.w	r9, [r8, #1]
     bd0:	f108 0802 	add.w	r8, r8, #2
     bd4:	e685      	b.n	8e2 <__vsnprintf+0x3be>
     bd6:	4688      	mov	r8, r1
     bd8:	e683      	b.n	8e2 <__vsnprintf+0x3be>
/mnt/disk/raspbian-tee/optee_os/lib/libutils/ext/snprintk.c:593
     bda:	f1b8 0f00 	cmp.w	r8, #0
     bde:	d006      	beq.n	bee <__vsnprintf+0x6ca>
     be0:	9d0e      	ldr	r5, [sp, #56]	; 0x38
     be2:	4545      	cmp	r5, r8
     be4:	d903      	bls.n	bee <__vsnprintf+0x6ca>
     be6:	f888 4000 	strb.w	r4, [r8]
     bea:	f108 0801 	add.w	r8, r8, #1
     bee:	3901      	subs	r1, #1
     bf0:	e67d      	b.n	8ee <__vsnprintf+0x3ca>
/mnt/disk/raspbian-tee/optee_os/lib/libutils/ext/snprintk.c:599
     bf2:	f1b8 0f00 	cmp.w	r8, #0
     bf6:	d006      	beq.n	c06 <__vsnprintf+0x6e2>
     bf8:	9c0e      	ldr	r4, [sp, #56]	; 0x38
     bfa:	4544      	cmp	r4, r8
     bfc:	d903      	bls.n	c06 <__vsnprintf+0x6e2>
     bfe:	f888 1000 	strb.w	r1, [r8]
     c02:	f108 0801 	add.w	r8, r8, #1
     c06:	3801      	subs	r0, #1
     c08:	e677      	b.n	8fa <__vsnprintf+0x3d6>
/mnt/disk/raspbian-tee/optee_os/lib/libutils/ext/snprintk.c:603
     c0a:	f1b8 0f00 	cmp.w	r8, #0
     c0e:	d007      	beq.n	c20 <__vsnprintf+0x6fc>
     c10:	980e      	ldr	r0, [sp, #56]	; 0x38
     c12:	4540      	cmp	r0, r8
     c14:	d904      	bls.n	c20 <__vsnprintf+0x6fc>
     c16:	7818      	ldrb	r0, [r3, #0]
     c18:	f108 0801 	add.w	r8, r8, #1
     c1c:	f808 0c01 	strb.w	r0, [r8, #-1]
/mnt/disk/raspbian-tee/optee_os/lib/libutils/ext/snprintk.c:602
     c20:	3301      	adds	r3, #1
     c22:	e66f      	b.n	904 <__vsnprintf+0x3e0>
__vsnprintf():
/mnt/disk/raspbian-tee/optee_os/lib/libutils/ext/snprintk.c:148
     c24:	990c      	ldr	r1, [sp, #48]	; 0x30
     c26:	5453      	strb	r3, [r2, r1]
/mnt/disk/raspbian-tee/optee_os/lib/libutils/ext/snprintk.c:150
     c28:	e4a1      	b.n	56e <__vsnprintf+0x4a>
kprintf():
/mnt/disk/raspbian-tee/optee_os/lib/libutils/ext/snprintk.c:489
     c2a:	f426 6680 	bic.w	r6, r6, #1024	; 0x400
/mnt/disk/raspbian-tee/optee_os/lib/libutils/ext/snprintk.c:482
     c2e:	f04f 0a00 	mov.w	sl, #0
/mnt/disk/raspbian-tee/optee_os/lib/libutils/ext/snprintk.c:476
     c32:	2302      	movs	r3, #2
     c34:	e52c      	b.n	690 <__vsnprintf+0x16c>
/mnt/disk/raspbian-tee/optee_os/lib/libutils/ext/snprintk.c:488
     c36:	f1bb 3fff 	cmp.w	fp, #4294967295	; 0xffffffff
     c3a:	d1f6      	bne.n	c2a <__vsnprintf+0x706>
     c3c:	f04f 3bff 	mov.w	fp, #4294967295	; 0xffffffff
     c40:	e728      	b.n	a94 <__vsnprintf+0x570>
     c42:	bf00      	nop
     c44:	00007a07 	.word	0x00007a07
     c48:	00007987 	.word	0x00007987
     c4c:	00007700 	.word	0x00007700
     c50:	000076bf 	.word	0x000076bf
     c54:	0000762f 	.word	0x0000762f

00000c58 <vsnprintk>:
vsnprintk():
/mnt/disk/raspbian-tee/optee_os/lib/libutils/ext/snprintk.c:129
     c58:	b513      	push	{r0, r1, r4, lr}
/mnt/disk/raspbian-tee/optee_os/lib/libutils/ext/snprintk.c:130
     c5a:	2401      	movs	r4, #1
     c5c:	9400      	str	r4, [sp, #0]
     c5e:	f7ff fc61 	bl	524 <__vsnprintf>
/mnt/disk/raspbian-tee/optee_os/lib/libutils/ext/snprintk.c:131
     c62:	b002      	add	sp, #8
     c64:	bd10      	pop	{r4, pc}

00000c66 <snprintk>:
snprintk():
/mnt/disk/raspbian-tee/optee_os/lib/libutils/ext/snprintk.c:112
     c66:	b40c      	push	{r2, r3}
     c68:	b507      	push	{r0, r1, r2, lr}
     c6a:	ab04      	add	r3, sp, #16
     c6c:	f853 2b04 	ldr.w	r2, [r3], #4
/mnt/disk/raspbian-tee/optee_os/lib/libutils/ext/snprintk.c:116
     c70:	9301      	str	r3, [sp, #4]
/mnt/disk/raspbian-tee/optee_os/lib/libutils/ext/snprintk.c:117
     c72:	f7ff fff1 	bl	c58 <vsnprintk>
/mnt/disk/raspbian-tee/optee_os/lib/libutils/ext/snprintk.c:121
     c76:	b003      	add	sp, #12
     c78:	f85d eb04 	ldr.w	lr, [sp], #4
     c7c:	b002      	add	sp, #8
     c7e:	4770      	bx	lr

00000c80 <__aeabi_ldivmod>:
__aeabi_ldivmod():
/mnt/disk/raspbian-tee/optee_os/lib/libutils/isoc/arch/arm/arm32_aeabi_ldivmod_a32.S:24
     c80:	e92d5000 	push	{ip, lr}
/mnt/disk/raspbian-tee/optee_os/lib/libutils/isoc/arch/arm/arm32_aeabi_ldivmod_a32.S:26
     c84:	e92d000f 	push	{r0, r1, r2, r3}
/mnt/disk/raspbian-tee/optee_os/lib/libutils/isoc/arch/arm/arm32_aeabi_ldivmod_a32.S:28
     c88:	e1a0000d 	mov	r0, sp
/mnt/disk/raspbian-tee/optee_os/lib/libutils/isoc/arch/arm/arm32_aeabi_ldivmod_a32.S:29
     c8c:	fa001b6e 	blx	7a4c <__l_divmod>
/mnt/disk/raspbian-tee/optee_os/lib/libutils/isoc/arch/arm/arm32_aeabi_ldivmod_a32.S:30
     c90:	e8bd000f 	pop	{r0, r1, r2, r3}
/mnt/disk/raspbian-tee/optee_os/lib/libutils/isoc/arch/arm/arm32_aeabi_ldivmod_a32.S:31
     c94:	e8bd9000 	pop	{ip, pc}

00000c98 <__aeabi_uldivmod>:
__aeabi_uldivmod():
/mnt/disk/raspbian-tee/optee_os/lib/libutils/isoc/arch/arm/arm32_aeabi_ldivmod_a32.S:42
     c98:	e92d5000 	push	{ip, lr}
/mnt/disk/raspbian-tee/optee_os/lib/libutils/isoc/arch/arm/arm32_aeabi_ldivmod_a32.S:44
     c9c:	e92d000f 	push	{r0, r1, r2, r3}
/mnt/disk/raspbian-tee/optee_os/lib/libutils/isoc/arch/arm/arm32_aeabi_ldivmod_a32.S:46
     ca0:	e1a0000d 	mov	r0, sp
/mnt/disk/raspbian-tee/optee_os/lib/libutils/isoc/arch/arm/arm32_aeabi_ldivmod_a32.S:47
     ca4:	fa001b4b 	blx	79d8 <__ul_divmod>
/mnt/disk/raspbian-tee/optee_os/lib/libutils/isoc/arch/arm/arm32_aeabi_ldivmod_a32.S:48
     ca8:	e8bd000f 	pop	{r0, r1, r2, r3}
/mnt/disk/raspbian-tee/optee_os/lib/libutils/isoc/arch/arm/arm32_aeabi_ldivmod_a32.S:49
     cac:	e8bd9000 	pop	{ip, pc}

00000cb0 <trace_ext_puts>:
trace_ext_puts():
/mnt/disk/raspbian-tee/optee_os/lib/libutee/trace_ext.c:17
     cb0:	b510      	push	{r4, lr}
     cb2:	4604      	mov	r4, r0
/mnt/disk/raspbian-tee/optee_os/lib/libutee/trace_ext.c:18
     cb4:	f006 fe88 	bl	79c8 <strlen>
     cb8:	4601      	mov	r1, r0
     cba:	4620      	mov	r0, r4
/mnt/disk/raspbian-tee/optee_os/lib/libutee/trace_ext.c:19
     cbc:	e8bd 4010 	ldmia.w	sp!, {r4, lr}
/mnt/disk/raspbian-tee/optee_os/lib/libutee/trace_ext.c:18
     cc0:	f006 bfae 	b.w	7c20 <__utee_log_from_thumb>

00000cc4 <trace_ext_get_thread_id>:
trace_ext_get_thread_id():
/mnt/disk/raspbian-tee/optee_os/lib/libutee/trace_ext.c:24
     cc4:	f04f 30ff 	mov.w	r0, #4294967295	; 0xffffffff
     cc8:	4770      	bx	lr

00000cca <printf>:
printf():
/mnt/disk/raspbian-tee/optee_os/lib/libutee/trace_ext.c:32
     cca:	b40f      	push	{r0, r1, r2, r3}
     ccc:	b530      	push	{r4, r5, lr}
     cce:	b0c3      	sub	sp, #268	; 0x10c
/mnt/disk/raspbian-tee/optee_os/lib/libutee/trace_ext.c:37
     cd0:	f7ff fb00 	bl	2d4 <trace_get_level>
     cd4:	2800      	cmp	r0, #0
     cd6:	dd13      	ble.n	d00 <printf+0x36>
/mnt/disk/raspbian-tee/optee_os/lib/libutee/trace_ext.c:41
     cd8:	ad02      	add	r5, sp, #8
/mnt/disk/raspbian-tee/optee_os/lib/libutee/trace_ext.c:40
     cda:	ab47      	add	r3, sp, #284	; 0x11c
/mnt/disk/raspbian-tee/optee_os/lib/libutee/trace_ext.c:41
     cdc:	9a46      	ldr	r2, [sp, #280]	; 0x118
     cde:	f44f 7180 	mov.w	r1, #256	; 0x100
     ce2:	4628      	mov	r0, r5
/mnt/disk/raspbian-tee/optee_os/lib/libutee/trace_ext.c:40
     ce4:	9301      	str	r3, [sp, #4]
/mnt/disk/raspbian-tee/optee_os/lib/libutee/trace_ext.c:41
     ce6:	f006 ff38 	bl	7b5a <vsnprintf>
/mnt/disk/raspbian-tee/optee_os/lib/libutee/trace_ext.c:44
     cea:	1e04      	subs	r4, r0, #0
     cec:	db02      	blt.n	cf4 <printf+0x2a>
/mnt/disk/raspbian-tee/optee_os/lib/libutee/trace_ext.c:47
     cee:	4628      	mov	r0, r5
     cf0:	f7ff ffde 	bl	cb0 <trace_ext_puts>
/mnt/disk/raspbian-tee/optee_os/lib/libutee/trace_ext.c:50
     cf4:	4620      	mov	r0, r4
     cf6:	b043      	add	sp, #268	; 0x10c
     cf8:	e8bd 4030 	ldmia.w	sp!, {r4, r5, lr}
     cfc:	b004      	add	sp, #16
     cfe:	4770      	bx	lr
/mnt/disk/raspbian-tee/optee_os/lib/libutee/trace_ext.c:38
     d00:	2400      	movs	r4, #0
     d02:	e7f7      	b.n	cf4 <printf+0x2a>

00000d04 <puts>:
puts():
/mnt/disk/raspbian-tee/optee_os/lib/libutee/trace_ext.c:53
     d04:	b510      	push	{r4, lr}
     d06:	4604      	mov	r4, r0
/mnt/disk/raspbian-tee/optee_os/lib/libutee/trace_ext.c:54
     d08:	f7ff fae4 	bl	2d4 <trace_get_level>
     d0c:	2800      	cmp	r0, #0
     d0e:	dd06      	ble.n	d1e <puts+0x1a>
/mnt/disk/raspbian-tee/optee_os/lib/libutee/trace_ext.c:55
     d10:	4620      	mov	r0, r4
     d12:	f7ff ffcd 	bl	cb0 <trace_ext_puts>
/mnt/disk/raspbian-tee/optee_os/lib/libutee/trace_ext.c:56
     d16:	4803      	ldr	r0, [pc, #12]	; (d24 <puts+0x20>)
     d18:	4478      	add	r0, pc
     d1a:	f7ff ffc9 	bl	cb0 <trace_ext_puts>
/mnt/disk/raspbian-tee/optee_os/lib/libutee/trace_ext.c:59
     d1e:	2001      	movs	r0, #1
     d20:	bd10      	pop	{r4, pc}
     d22:	bf00      	nop
     d24:	00007af0 	.word	0x00007af0

00000d28 <putchar>:
putchar():
/mnt/disk/raspbian-tee/optee_os/lib/libutee/trace_ext.c:62
     d28:	b513      	push	{r0, r1, r4, lr}
/mnt/disk/raspbian-tee/optee_os/lib/libutee/trace_ext.c:63
     d2a:	2300      	movs	r3, #0
/mnt/disk/raspbian-tee/optee_os/lib/libutee/trace_ext.c:62
     d2c:	4604      	mov	r4, r0
/mnt/disk/raspbian-tee/optee_os/lib/libutee/trace_ext.c:63
     d2e:	f88d 0004 	strb.w	r0, [sp, #4]
     d32:	f88d 3005 	strb.w	r3, [sp, #5]
/mnt/disk/raspbian-tee/optee_os/lib/libutee/trace_ext.c:65
     d36:	f7ff facd 	bl	2d4 <trace_get_level>
     d3a:	2800      	cmp	r0, #0
     d3c:	dd02      	ble.n	d44 <putchar+0x1c>
/mnt/disk/raspbian-tee/optee_os/lib/libutee/trace_ext.c:66
     d3e:	a801      	add	r0, sp, #4
     d40:	f7ff ffb6 	bl	cb0 <trace_ext_puts>
/mnt/disk/raspbian-tee/optee_os/lib/libutee/trace_ext.c:73
     d44:	b2e0      	uxtb	r0, r4
     d46:	b002      	add	sp, #8
     d48:	bd10      	pop	{r4, pc}
     d4a:	bf00      	nop

00000d4c <__utee_from_param>:
__utee_from_param():
/mnt/disk/raspbian-tee/optee_os/lib/libutee/tee_api.c:23
     d4c:	2300      	movs	r3, #0
/mnt/disk/raspbian-tee/optee_os/lib/libutee/tee_api.c:20
     d4e:	b5f0      	push	{r4, r5, r6, r7, lr}
     d50:	4694      	mov	ip, r2
     d52:	4615      	mov	r5, r2
/mnt/disk/raspbian-tee/optee_os/lib/libutee/tee_api.c:39
     d54:	2600      	movs	r6, #0
     d56:	2700      	movs	r7, #0
/mnt/disk/raspbian-tee/optee_os/lib/libutee/tee_api.c:35
     d58:	461a      	mov	r2, r3
/mnt/disk/raspbian-tee/optee_os/lib/libutee/tee_api.c:23
     d5a:	e880 000a 	stmia.w	r0, {r1, r3}
/mnt/disk/raspbian-tee/optee_os/lib/libutee/tee_api.c:25
     d5e:	fa21 f403 	lsr.w	r4, r1, r3
     d62:	f004 040f 	and.w	r4, r4, #15
     d66:	3c01      	subs	r4, #1
     d68:	2c06      	cmp	r4, #6
     d6a:	d812      	bhi.n	d92 <__utee_from_param+0x46>
     d6c:	e8df f004 	tbb	[pc, r4]
     d70:	11040404 	.word	0x11040404
     d74:	0404      	.short	0x0404
     d76:	04          	.byte	0x04
     d77:	00          	.byte	0x00
/mnt/disk/raspbian-tee/optee_os/lib/libutee/tee_api.c:35
     d78:	f85c 4013 	ldr.w	r4, [ip, r3, lsl #1]
     d7c:	6084      	str	r4, [r0, #8]
     d7e:	60c2      	str	r2, [r0, #12]
/mnt/disk/raspbian-tee/optee_os/lib/libutee/tee_api.c:36
     d80:	686c      	ldr	r4, [r5, #4]
     d82:	6104      	str	r4, [r0, #16]
     d84:	6142      	str	r2, [r0, #20]
     d86:	3304      	adds	r3, #4
     d88:	3508      	adds	r5, #8
     d8a:	3010      	adds	r0, #16
/mnt/disk/raspbian-tee/optee_os/lib/libutee/tee_api.c:24 (discriminator 2)
     d8c:	2b10      	cmp	r3, #16
     d8e:	d1e6      	bne.n	d5e <__utee_from_param+0x12>
/mnt/disk/raspbian-tee/optee_os/lib/libutee/tee_api.c:44
     d90:	bdf0      	pop	{r4, r5, r6, r7, pc}
/mnt/disk/raspbian-tee/optee_os/lib/libutee/tee_api.c:39
     d92:	e9c0 6702 	strd	r6, r7, [r0, #8]
/mnt/disk/raspbian-tee/optee_os/lib/libutee/tee_api.c:40
     d96:	e9c0 6704 	strd	r6, r7, [r0, #16]
/mnt/disk/raspbian-tee/optee_os/lib/libutee/tee_api.c:41
     d9a:	e7f4      	b.n	d86 <__utee_from_param+0x3a>

00000d9c <__utee_to_param>:
__utee_to_param():
/mnt/disk/raspbian-tee/optee_os/lib/libutee/tee_api.c:48
     d9c:	b5f0      	push	{r4, r5, r6, r7, lr}
/mnt/disk/raspbian-tee/optee_os/lib/libutee/tee_api.c:50
     d9e:	2300      	movs	r3, #0
     da0:	6816      	ldr	r6, [r2, #0]
     da2:	4605      	mov	r5, r0
/mnt/disk/raspbian-tee/optee_os/lib/libutee/tee_api.c:56
     da4:	fa26 f403 	lsr.w	r4, r6, r3
/mnt/disk/raspbian-tee/optee_os/lib/libutee/tee_api.c:53
     da8:	f8d2 c008 	ldr.w	ip, [r2, #8]
/mnt/disk/raspbian-tee/optee_os/lib/libutee/tee_api.c:56
     dac:	f004 040f 	and.w	r4, r4, #15
/mnt/disk/raspbian-tee/optee_os/lib/libutee/tee_api.c:54
     db0:	6917      	ldr	r7, [r2, #16]
/mnt/disk/raspbian-tee/optee_os/lib/libutee/tee_api.c:56
     db2:	3c01      	subs	r4, #1
     db4:	2c06      	cmp	r4, #6
     db6:	d808      	bhi.n	dca <__utee_to_param+0x2e>
     db8:	e8df f004 	tbb	[pc, r4]
     dbc:	07040404 	.word	0x07040404
     dc0:	0404      	.short	0x0404
     dc2:	04          	.byte	0x04
     dc3:	00          	.byte	0x00
/mnt/disk/raspbian-tee/optee_os/lib/libutee/tee_api.c:66
     dc4:	f840 c013 	str.w	ip, [r0, r3, lsl #1]
/mnt/disk/raspbian-tee/optee_os/lib/libutee/tee_api.c:67
     dc8:	606f      	str	r7, [r5, #4]
     dca:	3304      	adds	r3, #4
     dcc:	3210      	adds	r2, #16
     dce:	3508      	adds	r5, #8
/mnt/disk/raspbian-tee/optee_os/lib/libutee/tee_api.c:52 (discriminator 2)
     dd0:	2b10      	cmp	r3, #16
     dd2:	d1e7      	bne.n	da4 <__utee_to_param+0x8>
/mnt/disk/raspbian-tee/optee_os/lib/libutee/tee_api.c:74
     dd4:	b101      	cbz	r1, dd8 <__utee_to_param+0x3c>
/mnt/disk/raspbian-tee/optee_os/lib/libutee/tee_api.c:75
     dd6:	600e      	str	r6, [r1, #0]
     dd8:	bdf0      	pop	{r4, r5, r6, r7, pc}

00000dda <TEE_OpenTASession>:
TEE_OpenTASession():
/mnt/disk/raspbian-tee/optee_os/lib/libutee/tee_api.c:84
     dda:	b5f0      	push	{r4, r5, r6, r7, lr}
     ddc:	4605      	mov	r5, r0
     dde:	460f      	mov	r7, r1
     de0:	b097      	sub	sp, #92	; 0x5c
     de2:	4611      	mov	r1, r2
/mnt/disk/raspbian-tee/optee_os/lib/libutee/tee_api.c:89
     de4:	ac04      	add	r4, sp, #16
     de6:	461a      	mov	r2, r3
     de8:	4620      	mov	r0, r4
/mnt/disk/raspbian-tee/optee_os/lib/libutee/tee_api.c:84
     dea:	461e      	mov	r6, r3
/mnt/disk/raspbian-tee/optee_os/lib/libutee/tee_api.c:89
     dec:	f7ff ffae 	bl	d4c <__utee_from_param>
/mnt/disk/raspbian-tee/optee_os/lib/libutee/tee_api.c:90
     df0:	9b1d      	ldr	r3, [sp, #116]	; 0x74
     df2:	9300      	str	r3, [sp, #0]
     df4:	4622      	mov	r2, r4
     df6:	4639      	mov	r1, r7
     df8:	4628      	mov	r0, r5
     dfa:	ab03      	add	r3, sp, #12
     dfc:	f002 e90a 	blx	3014 <utee_open_ta_session>
/mnt/disk/raspbian-tee/optee_os/lib/libutee/tee_api.c:92
     e00:	4622      	mov	r2, r4
/mnt/disk/raspbian-tee/optee_os/lib/libutee/tee_api.c:90
     e02:	4605      	mov	r5, r0
/mnt/disk/raspbian-tee/optee_os/lib/libutee/tee_api.c:92
     e04:	2100      	movs	r1, #0
     e06:	4630      	mov	r0, r6
     e08:	f7ff ffc8 	bl	d9c <__utee_to_param>
/mnt/disk/raspbian-tee/optee_os/lib/libutee/tee_api.c:98
     e0c:	b10d      	cbz	r5, e12 <TEE_OpenTASession+0x38>
/mnt/disk/raspbian-tee/optee_os/lib/libutee/tee_api.c:99
     e0e:	2300      	movs	r3, #0
     e10:	9303      	str	r3, [sp, #12]
/mnt/disk/raspbian-tee/optee_os/lib/libutee/tee_api.c:101
     e12:	9b1c      	ldr	r3, [sp, #112]	; 0x70
/mnt/disk/raspbian-tee/optee_os/lib/libutee/tee_api.c:103
     e14:	4628      	mov	r0, r5
/mnt/disk/raspbian-tee/optee_os/lib/libutee/tee_api.c:101
     e16:	9a03      	ldr	r2, [sp, #12]
     e18:	601a      	str	r2, [r3, #0]
/mnt/disk/raspbian-tee/optee_os/lib/libutee/tee_api.c:103
     e1a:	b017      	add	sp, #92	; 0x5c
     e1c:	bdf0      	pop	{r4, r5, r6, r7, pc}

00000e1e <TEE_CloseTASession>:
TEE_CloseTASession():
/mnt/disk/raspbian-tee/optee_os/lib/libutee/tee_api.c:106
     e1e:	b508      	push	{r3, lr}
/mnt/disk/raspbian-tee/optee_os/lib/libutee/tee_api.c:107
     e20:	b130      	cbz	r0, e30 <TEE_CloseTASession+0x12>
/mnt/disk/raspbian-tee/optee_os/lib/libutee/tee_api.c:108
     e22:	f002 e904 	blx	302c <utee_close_ta_session>
/mnt/disk/raspbian-tee/optee_os/lib/libutee/tee_api.c:110
     e26:	b118      	cbz	r0, e30 <TEE_CloseTASession+0x12>
/mnt/disk/raspbian-tee/optee_os/lib/libutee/tee_api.c:113
     e28:	e8bd 4008 	ldmia.w	sp!, {r3, lr}
/mnt/disk/raspbian-tee/optee_os/lib/libutee/tee_api.c:111
     e2c:	f006 be84 	b.w	7b38 <TEE_Panic>
     e30:	bd08      	pop	{r3, pc}

00000e32 <TEE_InvokeTACommand>:
TEE_InvokeTACommand():
/mnt/disk/raspbian-tee/optee_os/lib/libutee/tee_api.c:120
     e32:	e92d 41f0 	stmdb	sp!, {r4, r5, r6, r7, r8, lr}
     e36:	4604      	mov	r4, r0
     e38:	460f      	mov	r7, r1
     e3a:	b096      	sub	sp, #88	; 0x58
/mnt/disk/raspbian-tee/optee_os/lib/libutee/tee_api.c:125
     e3c:	4619      	mov	r1, r3
     e3e:	ad04      	add	r5, sp, #16
/mnt/disk/raspbian-tee/optee_os/lib/libutee/tee_api.c:120
     e40:	4690      	mov	r8, r2
/mnt/disk/raspbian-tee/optee_os/lib/libutee/tee_api.c:125
     e42:	4628      	mov	r0, r5
/mnt/disk/raspbian-tee/optee_os/lib/libutee/tee_api.c:120
     e44:	9e1d      	ldr	r6, [sp, #116]	; 0x74
/mnt/disk/raspbian-tee/optee_os/lib/libutee/tee_api.c:125
     e46:	9a1c      	ldr	r2, [sp, #112]	; 0x70
     e48:	f7ff ff80 	bl	d4c <__utee_from_param>
/mnt/disk/raspbian-tee/optee_os/lib/libutee/tee_api.c:126
     e4c:	ab03      	add	r3, sp, #12
     e4e:	4642      	mov	r2, r8
     e50:	9300      	str	r3, [sp, #0]
     e52:	4639      	mov	r1, r7
     e54:	462b      	mov	r3, r5
     e56:	4620      	mov	r0, r4
     e58:	f002 e8f2 	blx	3040 <utee_invoke_ta_command>
/mnt/disk/raspbian-tee/optee_os/lib/libutee/tee_api.c:129
     e5c:	462a      	mov	r2, r5
/mnt/disk/raspbian-tee/optee_os/lib/libutee/tee_api.c:126
     e5e:	4604      	mov	r4, r0
/mnt/disk/raspbian-tee/optee_os/lib/libutee/tee_api.c:129
     e60:	2100      	movs	r1, #0
     e62:	981c      	ldr	r0, [sp, #112]	; 0x70
     e64:	f7ff ff9a 	bl	d9c <__utee_to_param>
     e68:	9b03      	ldr	r3, [sp, #12]
/mnt/disk/raspbian-tee/optee_os/lib/libutee/tee_api.c:131
     e6a:	b106      	cbz	r6, e6e <TEE_InvokeTACommand+0x3c>
/mnt/disk/raspbian-tee/optee_os/lib/libutee/tee_api.c:132
     e6c:	6033      	str	r3, [r6, #0]
/mnt/disk/raspbian-tee/optee_os/lib/libutee/tee_api.c:134
     e6e:	2b04      	cmp	r3, #4
     e70:	d009      	beq.n	e86 <TEE_InvokeTACommand+0x54>
/mnt/disk/raspbian-tee/optee_os/lib/libutee/tee_api.c:137
     e72:	b144      	cbz	r4, e86 <TEE_InvokeTACommand+0x54>
/mnt/disk/raspbian-tee/optee_os/lib/libutee/tee_api.c:137 (discriminator 1)
     e74:	4b06      	ldr	r3, [pc, #24]	; (e90 <TEE_InvokeTACommand+0x5e>)
     e76:	429c      	cmp	r4, r3
     e78:	d005      	beq.n	e86 <TEE_InvokeTACommand+0x54>
/mnt/disk/raspbian-tee/optee_os/lib/libutee/tee_api.c:138
     e7a:	4b06      	ldr	r3, [pc, #24]	; (e94 <TEE_InvokeTACommand+0x62>)
     e7c:	429c      	cmp	r4, r3
     e7e:	d002      	beq.n	e86 <TEE_InvokeTACommand+0x54>
/mnt/disk/raspbian-tee/optee_os/lib/libutee/tee_api.c:140
     e80:	4620      	mov	r0, r4
     e82:	f006 fe59 	bl	7b38 <TEE_Panic>
/mnt/disk/raspbian-tee/optee_os/lib/libutee/tee_api.c:143
     e86:	4620      	mov	r0, r4
     e88:	b016      	add	sp, #88	; 0x58
     e8a:	e8bd 81f0 	ldmia.w	sp!, {r4, r5, r6, r7, r8, pc}
     e8e:	bf00      	nop
     e90:	ffff000c 	.word	0xffff000c
     e94:	ffff3024 	.word	0xffff3024

00000e98 <TEE_GetCancellationFlag>:
TEE_GetCancellationFlag():
/mnt/disk/raspbian-tee/optee_os/lib/libutee/tee_api.c:148
     e98:	b507      	push	{r0, r1, r2, lr}
/mnt/disk/raspbian-tee/optee_os/lib/libutee/tee_api.c:150
     e9a:	a801      	add	r0, sp, #4
     e9c:	f002 e8dc 	blx	3058 <utee_get_cancellation_flag>
/mnt/disk/raspbian-tee/optee_os/lib/libutee/tee_api.c:152
     ea0:	b108      	cbz	r0, ea6 <TEE_GetCancellationFlag+0xe>
/mnt/disk/raspbian-tee/optee_os/lib/libutee/tee_api.c:153
     ea2:	2300      	movs	r3, #0
     ea4:	9301      	str	r3, [sp, #4]
/mnt/disk/raspbian-tee/optee_os/lib/libutee/tee_api.c:155
     ea6:	9801      	ldr	r0, [sp, #4]
     ea8:	3000      	adds	r0, #0
     eaa:	bf18      	it	ne
     eac:	2001      	movne	r0, #1
     eae:	b003      	add	sp, #12
     eb0:	f85d fb04 	ldr.w	pc, [sp], #4

00000eb4 <TEE_UnmaskCancellation>:
TEE_UnmaskCancellation():
/mnt/disk/raspbian-tee/optee_os/lib/libutee/tee_api.c:158
     eb4:	b507      	push	{r0, r1, r2, lr}
/mnt/disk/raspbian-tee/optee_os/lib/libutee/tee_api.c:160
     eb6:	a801      	add	r0, sp, #4
     eb8:	f002 e8e2 	blx	3080 <utee_unmask_cancellation>
/mnt/disk/raspbian-tee/optee_os/lib/libutee/tee_api.c:162
     ebc:	b108      	cbz	r0, ec2 <TEE_UnmaskCancellation+0xe>
/mnt/disk/raspbian-tee/optee_os/lib/libutee/tee_api.c:163
     ebe:	f006 fe3b 	bl	7b38 <TEE_Panic>
/mnt/disk/raspbian-tee/optee_os/lib/libutee/tee_api.c:165
     ec2:	9801      	ldr	r0, [sp, #4]
     ec4:	3000      	adds	r0, #0
     ec6:	bf18      	it	ne
     ec8:	2001      	movne	r0, #1
     eca:	b003      	add	sp, #12
     ecc:	f85d fb04 	ldr.w	pc, [sp], #4

00000ed0 <TEE_MaskCancellation>:
TEE_MaskCancellation():
/mnt/disk/raspbian-tee/optee_os/lib/libutee/tee_api.c:168
     ed0:	b507      	push	{r0, r1, r2, lr}
/mnt/disk/raspbian-tee/optee_os/lib/libutee/tee_api.c:170
     ed2:	a801      	add	r0, sp, #4
     ed4:	f002 e8de 	blx	3094 <utee_mask_cancellation>
/mnt/disk/raspbian-tee/optee_os/lib/libutee/tee_api.c:172
     ed8:	b108      	cbz	r0, ede <TEE_MaskCancellation+0xe>
/mnt/disk/raspbian-tee/optee_os/lib/libutee/tee_api.c:173
     eda:	f006 fe2d 	bl	7b38 <TEE_Panic>
/mnt/disk/raspbian-tee/optee_os/lib/libutee/tee_api.c:175
     ede:	9801      	ldr	r0, [sp, #4]
     ee0:	3000      	adds	r0, #0
     ee2:	bf18      	it	ne
     ee4:	2001      	movne	r0, #1
     ee6:	b003      	add	sp, #12
     ee8:	f85d fb04 	ldr.w	pc, [sp], #4

00000eec <TEE_CheckMemoryAccessRights>:
TEE_CheckMemoryAccessRights():
/mnt/disk/raspbian-tee/optee_os/lib/libutee/tee_api.c:184
     eec:	b10a      	cbz	r2, ef2 <TEE_CheckMemoryAccessRights+0x6>
/mnt/disk/raspbian-tee/optee_os/lib/libutee/tee_api.c:188
     eee:	f006 be8f 	b.w	7c10 <__utee_check_access_rights_from_thumb>
/mnt/disk/raspbian-tee/optee_os/lib/libutee/tee_api.c:200
     ef2:	4610      	mov	r0, r2
     ef4:	4770      	bx	lr

00000ef6 <TEE_SetInstanceData>:
TEE_SetInstanceData():
/mnt/disk/raspbian-tee/optee_os/lib/libutee/tee_api.c:204
     ef6:	4b02      	ldr	r3, [pc, #8]	; (f00 <TEE_SetInstanceData+0xa>)
     ef8:	447b      	add	r3, pc
     efa:	6018      	str	r0, [r3, #0]
     efc:	4770      	bx	lr
     efe:	bf00      	nop
     f00:	00009188 	.word	0x00009188

00000f04 <TEE_GetInstanceData>:
TEE_GetInstanceData():
/mnt/disk/raspbian-tee/optee_os/lib/libutee/tee_api.c:210
     f04:	4b01      	ldr	r3, [pc, #4]	; (f0c <TEE_GetInstanceData+0x8>)
     f06:	447b      	add	r3, pc
     f08:	6818      	ldr	r0, [r3, #0]
     f0a:	4770      	bx	lr
     f0c:	0000917a 	.word	0x0000917a

00000f10 <TEE_MemMove>:
TEE_MemMove():
/mnt/disk/raspbian-tee/optee_os/lib/libutee/tee_api.c:214
     f10:	f006 be44 	b.w	7b9c <memmove>

00000f14 <TEE_MemCompare>:
TEE_MemCompare():
/mnt/disk/raspbian-tee/optee_os/lib/libutee/tee_api.c:219
     f14:	f006 be28 	b.w	7b68 <memcmp>

00000f18 <TEE_MemFill>:
TEE_MemFill():
/mnt/disk/raspbian-tee/optee_os/lib/libutee/tee_api.c:224
     f18:	f006 be5a 	b.w	7bd0 <memset>

00000f1c <TEE_GetSystemTime>:
TEE_GetSystemTime():
/mnt/disk/raspbian-tee/optee_os/lib/libutee/tee_api.c:230
     f1c:	b508      	push	{r3, lr}
/mnt/disk/raspbian-tee/optee_os/lib/libutee/tee_api.c:231
     f1e:	4601      	mov	r1, r0
     f20:	2000      	movs	r0, #0
     f22:	f002 e8cc 	blx	30bc <utee_get_time>
/mnt/disk/raspbian-tee/optee_os/lib/libutee/tee_api.c:233
     f26:	b118      	cbz	r0, f30 <TEE_GetSystemTime+0x14>
/mnt/disk/raspbian-tee/optee_os/lib/libutee/tee_api.c:235
     f28:	e8bd 4008 	ldmia.w	sp!, {r3, lr}
/mnt/disk/raspbian-tee/optee_os/lib/libutee/tee_api.c:234
     f2c:	f006 be04 	b.w	7b38 <TEE_Panic>
     f30:	bd08      	pop	{r3, pc}

00000f32 <TEE_Wait>:
TEE_Wait():
/mnt/disk/raspbian-tee/optee_os/lib/libutee/tee_api.c:238
     f32:	b510      	push	{r4, lr}
/mnt/disk/raspbian-tee/optee_os/lib/libutee/tee_api.c:239
     f34:	f002 e8b8 	blx	30a8 <utee_wait>
/mnt/disk/raspbian-tee/optee_os/lib/libutee/tee_api.c:241
     f38:	4604      	mov	r4, r0
     f3a:	b120      	cbz	r0, f46 <TEE_Wait+0x14>
/mnt/disk/raspbian-tee/optee_os/lib/libutee/tee_api.c:241 (discriminator 1)
     f3c:	4b03      	ldr	r3, [pc, #12]	; (f4c <TEE_Wait+0x1a>)
     f3e:	4298      	cmp	r0, r3
     f40:	d001      	beq.n	f46 <TEE_Wait+0x14>
/mnt/disk/raspbian-tee/optee_os/lib/libutee/tee_api.c:242
     f42:	f006 fdf9 	bl	7b38 <TEE_Panic>
/mnt/disk/raspbian-tee/optee_os/lib/libutee/tee_api.c:245
     f46:	4620      	mov	r0, r4
     f48:	bd10      	pop	{r4, pc}
     f4a:	bf00      	nop
     f4c:	ffff0002 	.word	0xffff0002

00000f50 <TEE_GetTAPersistentTime>:
TEE_GetTAPersistentTime():
/mnt/disk/raspbian-tee/optee_os/lib/libutee/tee_api.c:248
     f50:	b538      	push	{r3, r4, r5, lr}
/mnt/disk/raspbian-tee/optee_os/lib/libutee/tee_api.c:251
     f52:	4601      	mov	r1, r0
/mnt/disk/raspbian-tee/optee_os/lib/libutee/tee_api.c:248
     f54:	4605      	mov	r5, r0
/mnt/disk/raspbian-tee/optee_os/lib/libutee/tee_api.c:251
     f56:	2001      	movs	r0, #1
     f58:	f002 e8b0 	blx	30bc <utee_get_time>
/mnt/disk/raspbian-tee/optee_os/lib/libutee/tee_api.c:253
     f5c:	4604      	mov	r4, r0
     f5e:	b170      	cbz	r0, f7e <TEE_GetTAPersistentTime+0x2e>
/mnt/disk/raspbian-tee/optee_os/lib/libutee/tee_api.c:253 (discriminator 1)
     f60:	4b08      	ldr	r3, [pc, #32]	; (f84 <TEE_GetTAPersistentTime+0x34>)
     f62:	4298      	cmp	r0, r3
     f64:	d00b      	beq.n	f7e <TEE_GetTAPersistentTime+0x2e>
/mnt/disk/raspbian-tee/optee_os/lib/libutee/tee_api.c:254
     f66:	2300      	movs	r3, #0
     f68:	602b      	str	r3, [r5, #0]
/mnt/disk/raspbian-tee/optee_os/lib/libutee/tee_api.c:255
     f6a:	606b      	str	r3, [r5, #4]
/mnt/disk/raspbian-tee/optee_os/lib/libutee/tee_api.c:258
     f6c:	f500 4330 	add.w	r3, r0, #45056	; 0xb000
     f70:	2b01      	cmp	r3, #1
     f72:	d904      	bls.n	f7e <TEE_GetTAPersistentTime+0x2e>
/mnt/disk/raspbian-tee/optee_os/lib/libutee/tee_api.c:261
     f74:	4b04      	ldr	r3, [pc, #16]	; (f88 <TEE_GetTAPersistentTime+0x38>)
     f76:	4298      	cmp	r0, r3
     f78:	d001      	beq.n	f7e <TEE_GetTAPersistentTime+0x2e>
/mnt/disk/raspbian-tee/optee_os/lib/libutee/tee_api.c:263
     f7a:	f006 fddd 	bl	7b38 <TEE_Panic>
/mnt/disk/raspbian-tee/optee_os/lib/libutee/tee_api.c:266
     f7e:	4620      	mov	r0, r4
     f80:	bd38      	pop	{r3, r4, r5, pc}
     f82:	bf00      	nop
     f84:	ffff300f 	.word	0xffff300f
     f88:	ffff000c 	.word	0xffff000c

00000f8c <TEE_SetTAPersistentTime>:
TEE_SetTAPersistentTime():
/mnt/disk/raspbian-tee/optee_os/lib/libutee/tee_api.c:269
     f8c:	b510      	push	{r4, lr}
/mnt/disk/raspbian-tee/optee_os/lib/libutee/tee_api.c:272
     f8e:	f002 e8a0 	blx	30d0 <utee_set_ta_time>
/mnt/disk/raspbian-tee/optee_os/lib/libutee/tee_api.c:274
     f92:	4604      	mov	r4, r0
     f94:	b138      	cbz	r0, fa6 <TEE_SetTAPersistentTime+0x1a>
/mnt/disk/raspbian-tee/optee_os/lib/libutee/tee_api.c:274 (discriminator 1)
     f96:	4b05      	ldr	r3, [pc, #20]	; (fac <TEE_SetTAPersistentTime+0x20>)
     f98:	4298      	cmp	r0, r3
     f9a:	d004      	beq.n	fa6 <TEE_SetTAPersistentTime+0x1a>
/mnt/disk/raspbian-tee/optee_os/lib/libutee/tee_api.c:275
     f9c:	4b04      	ldr	r3, [pc, #16]	; (fb0 <TEE_SetTAPersistentTime+0x24>)
     f9e:	4298      	cmp	r0, r3
     fa0:	d001      	beq.n	fa6 <TEE_SetTAPersistentTime+0x1a>
/mnt/disk/raspbian-tee/optee_os/lib/libutee/tee_api.c:277
     fa2:	f006 fdc9 	bl	7b38 <TEE_Panic>
/mnt/disk/raspbian-tee/optee_os/lib/libutee/tee_api.c:280
     fa6:	4620      	mov	r0, r4
     fa8:	bd10      	pop	{r4, pc}
     faa:	bf00      	nop
     fac:	ffff000c 	.word	0xffff000c
     fb0:	ffff3041 	.word	0xffff3041

00000fb4 <TEE_GetREETime>:
TEE_GetREETime():
/mnt/disk/raspbian-tee/optee_os/lib/libutee/tee_api.c:283
     fb4:	b508      	push	{r3, lr}
/mnt/disk/raspbian-tee/optee_os/lib/libutee/tee_api.c:284
     fb6:	4601      	mov	r1, r0
     fb8:	2002      	movs	r0, #2
     fba:	f002 e880 	blx	30bc <utee_get_time>
/mnt/disk/raspbian-tee/optee_os/lib/libutee/tee_api.c:286
     fbe:	b118      	cbz	r0, fc8 <TEE_GetREETime+0x14>
/mnt/disk/raspbian-tee/optee_os/lib/libutee/tee_api.c:288
     fc0:	e8bd 4008 	ldmia.w	sp!, {r3, lr}
/mnt/disk/raspbian-tee/optee_os/lib/libutee/tee_api.c:287
     fc4:	f006 bdb8 	b.w	7b38 <TEE_Panic>
     fc8:	bd08      	pop	{r3, pc}

00000fca <TEE_Malloc>:
TEE_Malloc():
/mnt/disk/raspbian-tee/optee_os/lib/libutee/tee_api.c:291
     fca:	b507      	push	{r0, r1, r2, lr}
/mnt/disk/raspbian-tee/optee_os/lib/libutee/tee_api.c:292
     fcc:	b931      	cbnz	r1, fdc <TEE_Malloc+0x12>
/mnt/disk/raspbian-tee/optee_os/lib/libutee/tee_api.c:293
     fce:	4601      	mov	r1, r0
     fd0:	2001      	movs	r0, #1
/mnt/disk/raspbian-tee/optee_os/lib/libutee/tee_api.c:300
     fd2:	b003      	add	sp, #12
     fd4:	f85d eb04 	ldr.w	lr, [sp], #4
/mnt/disk/raspbian-tee/optee_os/lib/libutee/tee_api.c:293
     fd8:	f006 b99c 	b.w	7314 <calloc>
/mnt/disk/raspbian-tee/optee_os/lib/libutee/tee_api.c:294
     fdc:	f1b1 4f00 	cmp.w	r1, #2147483648	; 0x80000000
     fe0:	d104      	bne.n	fec <TEE_Malloc+0x22>
/mnt/disk/raspbian-tee/optee_os/lib/libutee/tee_api.c:300
     fe2:	b003      	add	sp, #12
     fe4:	f85d eb04 	ldr.w	lr, [sp], #4
/mnt/disk/raspbian-tee/optee_os/lib/libutee/tee_api.c:295
     fe8:	f006 b98a 	b.w	7300 <malloc>
/mnt/disk/raspbian-tee/optee_os/lib/libutee/tee_api.c:297
     fec:	4b07      	ldr	r3, [pc, #28]	; (100c <TEE_Malloc+0x42>)
     fee:	4808      	ldr	r0, [pc, #32]	; (1010 <TEE_Malloc+0x46>)
     ff0:	447b      	add	r3, pc
     ff2:	9300      	str	r3, [sp, #0]
     ff4:	2301      	movs	r3, #1
     ff6:	9101      	str	r1, [sp, #4]
     ff8:	461a      	mov	r2, r3
     ffa:	f240 1129 	movw	r1, #297	; 0x129
     ffe:	4478      	add	r0, pc
    1000:	f7ff f972 	bl	2e8 <trace_printf>
/mnt/disk/raspbian-tee/optee_os/lib/libutee/tee_api.c:300
    1004:	2000      	movs	r0, #0
    1006:	b003      	add	sp, #12
    1008:	f85d fb04 	ldr.w	pc, [sp], #4
    100c:	000071b2 	.word	0x000071b2
    1010:	00007199 	.word	0x00007199

00001014 <TEE_Realloc>:
TEE_Realloc():
/mnt/disk/raspbian-tee/optee_os/lib/libutee/tee_api.c:304
    1014:	f006 b9a2 	b.w	735c <realloc>

00001018 <TEE_Free>:
TEE_Free():
/mnt/disk/raspbian-tee/optee_os/lib/libutee/tee_api.c:309
    1018:	f006 b973 	b.w	7302 <free>

0000101c <TEE_CacheClean>:
TEE_CacheClean():
/mnt/disk/raspbian-tee/optee_os/lib/libutee/tee_api.c:315
    101c:	2200      	movs	r2, #0
    101e:	f006 be07 	b.w	7c30 <__utee_cache_operation_from_thumb>

00001022 <TEE_CacheFlush>:
TEE_CacheFlush():
/mnt/disk/raspbian-tee/optee_os/lib/libutee/tee_api.c:319
    1022:	2201      	movs	r2, #1
    1024:	f006 be04 	b.w	7c30 <__utee_cache_operation_from_thumb>

00001028 <TEE_CacheInvalidate>:
TEE_CacheInvalidate():
/mnt/disk/raspbian-tee/optee_os/lib/libutee/tee_api.c:324
    1028:	2202      	movs	r2, #2
    102a:	f006 be01 	b.w	7c30 <__utee_cache_operation_from_thumb>
    102e:	bf00      	nop

00001030 <__utee_from_attr>:
__utee_from_attr():
/mnt/disk/raspbian-tee/optee_os/lib/libutee/tee_api_objects.c:19
    1030:	2318      	movs	r3, #24
    1032:	b530      	push	{r4, r5, lr}
/mnt/disk/raspbian-tee/optee_os/lib/libutee/tee_api_objects.c:25
    1034:	2400      	movs	r4, #0
    1036:	fb03 0202 	mla	r2, r3, r2, r0
/mnt/disk/raspbian-tee/optee_os/lib/libutee/tee_api_objects.c:22 (discriminator 1)
    103a:	4290      	cmp	r0, r2
    103c:	d100      	bne.n	1040 <__utee_from_attr+0x10>
/mnt/disk/raspbian-tee/optee_os/lib/libutee/tee_api_objects.c:32
    103e:	bd30      	pop	{r4, r5, pc}
/mnt/disk/raspbian-tee/optee_os/lib/libutee/tee_api_objects.c:23
    1040:	680b      	ldr	r3, [r1, #0]
    1042:	6103      	str	r3, [r0, #16]
/mnt/disk/raspbian-tee/optee_os/lib/libutee/tee_api_objects.c:24
    1044:	f013 5300 	ands.w	r3, r3, #536870912	; 0x20000000
    1048:	d008      	beq.n	105c <__utee_from_attr+0x2c>
/mnt/disk/raspbian-tee/optee_os/lib/libutee/tee_api_objects.c:25
    104a:	684b      	ldr	r3, [r1, #4]
    104c:	e880 0018 	stmia.w	r0, {r3, r4}
/mnt/disk/raspbian-tee/optee_os/lib/libutee/tee_api_objects.c:26
    1050:	688b      	ldr	r3, [r1, #8]
    1052:	6083      	str	r3, [r0, #8]
    1054:	60c4      	str	r4, [r0, #12]
    1056:	310c      	adds	r1, #12
    1058:	3018      	adds	r0, #24
    105a:	e7ee      	b.n	103a <__utee_from_attr+0xa>
/mnt/disk/raspbian-tee/optee_os/lib/libutee/tee_api_objects.c:28
    105c:	684d      	ldr	r5, [r1, #4]
    105e:	6005      	str	r5, [r0, #0]
    1060:	6043      	str	r3, [r0, #4]
/mnt/disk/raspbian-tee/optee_os/lib/libutee/tee_api_objects.c:29
    1062:	688d      	ldr	r5, [r1, #8]
    1064:	6085      	str	r5, [r0, #8]
    1066:	60c3      	str	r3, [r0, #12]
    1068:	e7f5      	b.n	1056 <__utee_from_attr+0x26>

0000106a <TEE_GetObjectInfo>:
TEE_GetObjectInfo():
/mnt/disk/raspbian-tee/optee_os/lib/libutee/tee_api_objects.c:42
    106a:	b510      	push	{r4, lr}
    106c:	460c      	mov	r4, r1
/mnt/disk/raspbian-tee/optee_os/lib/libutee/tee_api_objects.c:45
    106e:	f002 e89c 	blx	31a8 <utee_cryp_obj_get_info>
/mnt/disk/raspbian-tee/optee_os/lib/libutee/tee_api_objects.c:47
    1072:	b108      	cbz	r0, 1078 <TEE_GetObjectInfo+0xe>
/mnt/disk/raspbian-tee/optee_os/lib/libutee/tee_api_objects.c:48
    1074:	f006 fd60 	bl	7b38 <TEE_Panic>
/mnt/disk/raspbian-tee/optee_os/lib/libutee/tee_api_objects.c:50
    1078:	6822      	ldr	r2, [r4, #0]
    107a:	4b05      	ldr	r3, [pc, #20]	; (1090 <TEE_GetObjectInfo+0x26>)
    107c:	429a      	cmp	r2, r3
    107e:	d106      	bne.n	108e <TEE_GetObjectInfo+0x24>
/mnt/disk/raspbian-tee/optee_os/lib/libutee/tee_api_objects.c:51
    1080:	2300      	movs	r3, #0
    1082:	6063      	str	r3, [r4, #4]
/mnt/disk/raspbian-tee/optee_os/lib/libutee/tee_api_objects.c:52
    1084:	60a3      	str	r3, [r4, #8]
/mnt/disk/raspbian-tee/optee_os/lib/libutee/tee_api_objects.c:53
    1086:	60e3      	str	r3, [r4, #12]
/mnt/disk/raspbian-tee/optee_os/lib/libutee/tee_api_objects.c:54
    1088:	6123      	str	r3, [r4, #16]
/mnt/disk/raspbian-tee/optee_os/lib/libutee/tee_api_objects.c:55
    108a:	6163      	str	r3, [r4, #20]
/mnt/disk/raspbian-tee/optee_os/lib/libutee/tee_api_objects.c:56
    108c:	61a3      	str	r3, [r4, #24]
    108e:	bd10      	pop	{r4, pc}
    1090:	a00000be 	.word	0xa00000be

00001094 <TEE_GetObjectInfo1>:
TEE_GetObjectInfo1():
/mnt/disk/raspbian-tee/optee_os/lib/libutee/tee_api_objects.c:61
    1094:	b510      	push	{r4, lr}
/mnt/disk/raspbian-tee/optee_os/lib/libutee/tee_api_objects.c:64
    1096:	f002 e888 	blx	31a8 <utee_cryp_obj_get_info>
/mnt/disk/raspbian-tee/optee_os/lib/libutee/tee_api_objects.c:66
    109a:	4604      	mov	r4, r0
    109c:	b130      	cbz	r0, 10ac <TEE_GetObjectInfo1+0x18>
/mnt/disk/raspbian-tee/optee_os/lib/libutee/tee_api_objects.c:66 (discriminator 1)
    109e:	4b04      	ldr	r3, [pc, #16]	; (10b0 <TEE_GetObjectInfo1+0x1c>)
    10a0:	f020 0202 	bic.w	r2, r0, #2
    10a4:	429a      	cmp	r2, r3
    10a6:	d001      	beq.n	10ac <TEE_GetObjectInfo1+0x18>
/mnt/disk/raspbian-tee/optee_os/lib/libutee/tee_api_objects.c:69
    10a8:	f006 fd46 	bl	7b38 <TEE_Panic>
/mnt/disk/raspbian-tee/optee_os/lib/libutee/tee_api_objects.c:72
    10ac:	4620      	mov	r0, r4
    10ae:	bd10      	pop	{r4, pc}
    10b0:	f0100001 	.word	0xf0100001

000010b4 <TEE_RestrictObjectUsage1>:
TEE_RestrictObjectUsage1():
/mnt/disk/raspbian-tee/optee_os/lib/libutee/tee_api_objects.c:96
    10b4:	b510      	push	{r4, lr}
/mnt/disk/raspbian-tee/optee_os/lib/libutee/tee_api_objects.c:99
    10b6:	f002 e882 	blx	31bc <utee_cryp_obj_restrict_usage>
/mnt/disk/raspbian-tee/optee_os/lib/libutee/tee_api_objects.c:101
    10ba:	4604      	mov	r4, r0
    10bc:	b130      	cbz	r0, 10cc <TEE_RestrictObjectUsage1+0x18>
/mnt/disk/raspbian-tee/optee_os/lib/libutee/tee_api_objects.c:101 (discriminator 1)
    10be:	4b04      	ldr	r3, [pc, #16]	; (10d0 <TEE_RestrictObjectUsage1+0x1c>)
    10c0:	f020 0202 	bic.w	r2, r0, #2
    10c4:	429a      	cmp	r2, r3
    10c6:	d001      	beq.n	10cc <TEE_RestrictObjectUsage1+0x18>
/mnt/disk/raspbian-tee/optee_os/lib/libutee/tee_api_objects.c:104
    10c8:	f006 fd36 	bl	7b38 <TEE_Panic>
/mnt/disk/raspbian-tee/optee_os/lib/libutee/tee_api_objects.c:107
    10cc:	4620      	mov	r0, r4
    10ce:	bd10      	pop	{r4, pc}
    10d0:	f0100001 	.word	0xf0100001

000010d4 <TEE_RestrictObjectUsage>:
TEE_RestrictObjectUsage():
/mnt/disk/raspbian-tee/optee_os/lib/libutee/tee_api_objects.c:81
    10d4:	b530      	push	{r4, r5, lr}
    10d6:	460d      	mov	r5, r1
    10d8:	4604      	mov	r4, r0
    10da:	b089      	sub	sp, #36	; 0x24
/mnt/disk/raspbian-tee/optee_os/lib/libutee/tee_api_objects.c:85
    10dc:	a901      	add	r1, sp, #4
    10de:	f002 e864 	blx	31a8 <utee_cryp_obj_get_info>
/mnt/disk/raspbian-tee/optee_os/lib/libutee/tee_api_objects.c:86
    10e2:	4b06      	ldr	r3, [pc, #24]	; (10fc <TEE_RestrictObjectUsage+0x28>)
    10e4:	9a01      	ldr	r2, [sp, #4]
    10e6:	429a      	cmp	r2, r3
    10e8:	d006      	beq.n	10f8 <TEE_RestrictObjectUsage+0x24>
/mnt/disk/raspbian-tee/optee_os/lib/libutee/tee_api_objects.c:89
    10ea:	4629      	mov	r1, r5
    10ec:	4620      	mov	r0, r4
    10ee:	f7ff ffe1 	bl	10b4 <TEE_RestrictObjectUsage1>
/mnt/disk/raspbian-tee/optee_os/lib/libutee/tee_api_objects.c:91
    10f2:	b108      	cbz	r0, 10f8 <TEE_RestrictObjectUsage+0x24>
/mnt/disk/raspbian-tee/optee_os/lib/libutee/tee_api_objects.c:92
    10f4:	f006 fd20 	bl	7b38 <TEE_Panic>
/mnt/disk/raspbian-tee/optee_os/lib/libutee/tee_api_objects.c:93
    10f8:	b009      	add	sp, #36	; 0x24
    10fa:	bd30      	pop	{r4, r5, pc}
    10fc:	a00000be 	.word	0xa00000be

00001100 <TEE_GetObjectBufferAttribute>:
TEE_GetObjectBufferAttribute():
/mnt/disk/raspbian-tee/optee_os/lib/libutee/tee_api_objects.c:112
    1100:	e92d 41f0 	stmdb	sp!, {r4, r5, r6, r7, r8, lr}
    1104:	460e      	mov	r6, r1
    1106:	4607      	mov	r7, r0
    1108:	b08a      	sub	sp, #40	; 0x28
    110a:	4690      	mov	r8, r2
/mnt/disk/raspbian-tee/optee_os/lib/libutee/tee_api_objects.c:117
    110c:	a903      	add	r1, sp, #12
/mnt/disk/raspbian-tee/optee_os/lib/libutee/tee_api_objects.c:112
    110e:	461d      	mov	r5, r3
/mnt/disk/raspbian-tee/optee_os/lib/libutee/tee_api_objects.c:117
    1110:	f002 e84a 	blx	31a8 <utee_cryp_obj_get_info>
/mnt/disk/raspbian-tee/optee_os/lib/libutee/tee_api_objects.c:118
    1114:	4604      	mov	r4, r0
    1116:	b970      	cbnz	r0, 1136 <TEE_GetObjectBufferAttribute+0x36>
/mnt/disk/raspbian-tee/optee_os/lib/libutee/tee_api_objects.c:122
    1118:	00b3      	lsls	r3, r6, #2
    111a:	d422      	bmi.n	1162 <TEE_GetObjectBufferAttribute+0x62>
/mnt/disk/raspbian-tee/optee_os/lib/libutee/tee_api_objects.c:127
    111c:	682b      	ldr	r3, [r5, #0]
/mnt/disk/raspbian-tee/optee_os/lib/libutee/tee_api_objects.c:128
    111e:	4642      	mov	r2, r8
/mnt/disk/raspbian-tee/optee_os/lib/libutee/tee_api_objects.c:127
    1120:	e88d 0018 	stmia.w	sp, {r3, r4}
/mnt/disk/raspbian-tee/optee_os/lib/libutee/tee_api_objects.c:128
    1124:	4631      	mov	r1, r6
    1126:	466b      	mov	r3, sp
    1128:	4638      	mov	r0, r7
    112a:	f002 e852 	blx	31d0 <utee_cryp_obj_get_attr>
/mnt/disk/raspbian-tee/optee_os/lib/libutee/tee_api_objects.c:130
    112e:	9b00      	ldr	r3, [sp, #0]
    1130:	602b      	str	r3, [r5, #0]
/mnt/disk/raspbian-tee/optee_os/lib/libutee/tee_api_objects.c:133
    1132:	4604      	mov	r4, r0
    1134:	b188      	cbz	r0, 115a <TEE_GetObjectBufferAttribute+0x5a>
/mnt/disk/raspbian-tee/optee_os/lib/libutee/tee_api_objects.c:133 (discriminator 1)
    1136:	4b0c      	ldr	r3, [pc, #48]	; (1168 <TEE_GetObjectBufferAttribute+0x68>)
    1138:	429c      	cmp	r4, r3
    113a:	d00e      	beq.n	115a <TEE_GetObjectBufferAttribute+0x5a>
/mnt/disk/raspbian-tee/optee_os/lib/libutee/tee_api_objects.c:134
    113c:	3308      	adds	r3, #8
    113e:	429c      	cmp	r4, r3
    1140:	d00b      	beq.n	115a <TEE_GetObjectBufferAttribute+0x5a>
/mnt/disk/raspbian-tee/optee_os/lib/libutee/tee_api_objects.c:135
    1142:	f1a3 637e 	sub.w	r3, r3, #266338304	; 0xfe00000
    1146:	f1a3 130f 	sub.w	r3, r3, #983055	; 0xf000f
    114a:	429c      	cmp	r4, r3
    114c:	d005      	beq.n	115a <TEE_GetObjectBufferAttribute+0x5a>
/mnt/disk/raspbian-tee/optee_os/lib/libutee/tee_api_objects.c:136
    114e:	3302      	adds	r3, #2
    1150:	429c      	cmp	r4, r3
    1152:	d002      	beq.n	115a <TEE_GetObjectBufferAttribute+0x5a>
/mnt/disk/raspbian-tee/optee_os/lib/libutee/tee_api_objects.c:138
    1154:	4620      	mov	r0, r4
    1156:	f006 fcef 	bl	7b38 <TEE_Panic>
/mnt/disk/raspbian-tee/optee_os/lib/libutee/tee_api_objects.c:141
    115a:	4620      	mov	r0, r4
    115c:	b00a      	add	sp, #40	; 0x28
    115e:	e8bd 81f0 	ldmia.w	sp!, {r4, r5, r6, r7, r8, pc}
/mnt/disk/raspbian-tee/optee_os/lib/libutee/tee_api_objects.c:123
    1162:	4c02      	ldr	r4, [pc, #8]	; (116c <TEE_GetObjectBufferAttribute+0x6c>)
    1164:	e7f6      	b.n	1154 <TEE_GetObjectBufferAttribute+0x54>
    1166:	bf00      	nop
    1168:	ffff0008 	.word	0xffff0008
    116c:	ffff0006 	.word	0xffff0006

00001170 <TEE_GetObjectValueAttribute>:
TEE_GetObjectValueAttribute():
/mnt/disk/raspbian-tee/optee_os/lib/libutee/tee_api_objects.c:146
    1170:	e92d 41f0 	stmdb	sp!, {r4, r5, r6, r7, r8, lr}
    1174:	460f      	mov	r7, r1
    1176:	4680      	mov	r8, r0
    1178:	b08c      	sub	sp, #48	; 0x30
    117a:	4616      	mov	r6, r2
/mnt/disk/raspbian-tee/optee_os/lib/libutee/tee_api_objects.c:152
    117c:	a905      	add	r1, sp, #20
/mnt/disk/raspbian-tee/optee_os/lib/libutee/tee_api_objects.c:150
    117e:	2208      	movs	r2, #8
/mnt/disk/raspbian-tee/optee_os/lib/libutee/tee_api_objects.c:146
    1180:	461d      	mov	r5, r3
/mnt/disk/raspbian-tee/optee_os/lib/libutee/tee_api_objects.c:150
    1182:	2300      	movs	r3, #0
    1184:	e9cd 2300 	strd	r2, r3, [sp]
/mnt/disk/raspbian-tee/optee_os/lib/libutee/tee_api_objects.c:152
    1188:	f002 e80e 	blx	31a8 <utee_cryp_obj_get_info>
/mnt/disk/raspbian-tee/optee_os/lib/libutee/tee_api_objects.c:153
    118c:	4604      	mov	r4, r0
    118e:	b948      	cbnz	r0, 11a4 <TEE_GetObjectValueAttribute+0x34>
/mnt/disk/raspbian-tee/optee_os/lib/libutee/tee_api_objects.c:157
    1190:	00bb      	lsls	r3, r7, #2
    1192:	d527      	bpl.n	11e4 <TEE_GetObjectValueAttribute+0x74>
/mnt/disk/raspbian-tee/optee_os/lib/libutee/tee_api_objects.c:162
    1194:	466b      	mov	r3, sp
    1196:	aa03      	add	r2, sp, #12
    1198:	4639      	mov	r1, r7
    119a:	4640      	mov	r0, r8
    119c:	f002 e818 	blx	31d0 <utee_cryp_obj_get_attr>
/mnt/disk/raspbian-tee/optee_os/lib/libutee/tee_api_objects.c:166
    11a0:	4604      	mov	r4, r0
    11a2:	b158      	cbz	r0, 11bc <TEE_GetObjectValueAttribute+0x4c>
/mnt/disk/raspbian-tee/optee_os/lib/libutee/tee_api_objects.c:166 (discriminator 1)
    11a4:	4b10      	ldr	r3, [pc, #64]	; (11e8 <TEE_GetObjectValueAttribute+0x78>)
    11a6:	429c      	cmp	r4, r3
    11a8:	d008      	beq.n	11bc <TEE_GetObjectValueAttribute+0x4c>
/mnt/disk/raspbian-tee/optee_os/lib/libutee/tee_api_objects.c:167
    11aa:	4b10      	ldr	r3, [pc, #64]	; (11ec <TEE_GetObjectValueAttribute+0x7c>)
    11ac:	429c      	cmp	r4, r3
    11ae:	d005      	beq.n	11bc <TEE_GetObjectValueAttribute+0x4c>
/mnt/disk/raspbian-tee/optee_os/lib/libutee/tee_api_objects.c:168
    11b0:	3302      	adds	r3, #2
    11b2:	429c      	cmp	r4, r3
    11b4:	d002      	beq.n	11bc <TEE_GetObjectValueAttribute+0x4c>
/mnt/disk/raspbian-tee/optee_os/lib/libutee/tee_api_objects.c:170
    11b6:	4620      	mov	r0, r4
    11b8:	f006 fcbe 	bl	7b38 <TEE_Panic>
/mnt/disk/raspbian-tee/optee_os/lib/libutee/tee_api_objects.c:172
    11bc:	e9dd 2300 	ldrd	r2, r3, [sp]
    11c0:	2b00      	cmp	r3, #0
    11c2:	bf08      	it	eq
    11c4:	2a08      	cmpeq	r2, #8
    11c6:	d002      	beq.n	11ce <TEE_GetObjectValueAttribute+0x5e>
/mnt/disk/raspbian-tee/optee_os/lib/libutee/tee_api_objects.c:173
    11c8:	2000      	movs	r0, #0
    11ca:	f006 fcb5 	bl	7b38 <TEE_Panic>
/mnt/disk/raspbian-tee/optee_os/lib/libutee/tee_api_objects.c:175
    11ce:	b92c      	cbnz	r4, 11dc <TEE_GetObjectValueAttribute+0x6c>
/mnt/disk/raspbian-tee/optee_os/lib/libutee/tee_api_objects.c:176
    11d0:	b10e      	cbz	r6, 11d6 <TEE_GetObjectValueAttribute+0x66>
/mnt/disk/raspbian-tee/optee_os/lib/libutee/tee_api_objects.c:177
    11d2:	9b03      	ldr	r3, [sp, #12]
    11d4:	6033      	str	r3, [r6, #0]
/mnt/disk/raspbian-tee/optee_os/lib/libutee/tee_api_objects.c:178
    11d6:	b10d      	cbz	r5, 11dc <TEE_GetObjectValueAttribute+0x6c>
/mnt/disk/raspbian-tee/optee_os/lib/libutee/tee_api_objects.c:179
    11d8:	9b04      	ldr	r3, [sp, #16]
    11da:	602b      	str	r3, [r5, #0]
/mnt/disk/raspbian-tee/optee_os/lib/libutee/tee_api_objects.c:183
    11dc:	4620      	mov	r0, r4
    11de:	b00c      	add	sp, #48	; 0x30
    11e0:	e8bd 81f0 	ldmia.w	sp!, {r4, r5, r6, r7, r8, pc}
/mnt/disk/raspbian-tee/optee_os/lib/libutee/tee_api_objects.c:158
    11e4:	4c02      	ldr	r4, [pc, #8]	; (11f0 <TEE_GetObjectValueAttribute+0x80>)
    11e6:	e7e6      	b.n	11b6 <TEE_GetObjectValueAttribute+0x46>
    11e8:	ffff0008 	.word	0xffff0008
    11ec:	f0100001 	.word	0xf0100001
    11f0:	ffff0006 	.word	0xffff0006

000011f4 <TEE_CloseObject>:
TEE_CloseObject():
/mnt/disk/raspbian-tee/optee_os/lib/libutee/tee_api_objects.c:186
    11f4:	b508      	push	{r3, lr}
/mnt/disk/raspbian-tee/optee_os/lib/libutee/tee_api_objects.c:189
    11f6:	b130      	cbz	r0, 1206 <TEE_CloseObject+0x12>
/mnt/disk/raspbian-tee/optee_os/lib/libutee/tee_api_objects.c:192
    11f8:	f001 effe 	blx	31f8 <utee_cryp_obj_close>
/mnt/disk/raspbian-tee/optee_os/lib/libutee/tee_api_objects.c:193
    11fc:	b118      	cbz	r0, 1206 <TEE_CloseObject+0x12>
/mnt/disk/raspbian-tee/optee_os/lib/libutee/tee_api_objects.c:195
    11fe:	e8bd 4008 	ldmia.w	sp!, {r3, lr}
/mnt/disk/raspbian-tee/optee_os/lib/libutee/tee_api_objects.c:194
    1202:	f006 bc99 	b.w	7b38 <TEE_Panic>
    1206:	bd08      	pop	{r3, pc}

00001208 <TEE_AllocateTransientObject>:
TEE_AllocateTransientObject():
/mnt/disk/raspbian-tee/optee_os/lib/libutee/tee_api_objects.c:202
    1208:	b537      	push	{r0, r1, r2, r4, r5, lr}
    120a:	4615      	mov	r5, r2
/mnt/disk/raspbian-tee/optee_os/lib/libutee/tee_api_objects.c:206
    120c:	aa01      	add	r2, sp, #4
    120e:	f001 efea 	blx	31e4 <utee_cryp_obj_alloc>
/mnt/disk/raspbian-tee/optee_os/lib/libutee/tee_api_objects.c:208
    1212:	4604      	mov	r4, r0
    1214:	b150      	cbz	r0, 122c <TEE_AllocateTransientObject+0x24>
/mnt/disk/raspbian-tee/optee_os/lib/libutee/tee_api_objects.c:208 (discriminator 1)
    1216:	4b07      	ldr	r3, [pc, #28]	; (1234 <TEE_AllocateTransientObject+0x2c>)
    1218:	4298      	cmp	r0, r3
    121a:	d004      	beq.n	1226 <TEE_AllocateTransientObject+0x1e>
/mnt/disk/raspbian-tee/optee_os/lib/libutee/tee_api_objects.c:209
    121c:	3b02      	subs	r3, #2
    121e:	4298      	cmp	r0, r3
    1220:	d001      	beq.n	1226 <TEE_AllocateTransientObject+0x1e>
/mnt/disk/raspbian-tee/optee_os/lib/libutee/tee_api_objects.c:211
    1222:	f006 fc89 	bl	7b38 <TEE_Panic>
/mnt/disk/raspbian-tee/optee_os/lib/libutee/tee_api_objects.c:217
    1226:	4620      	mov	r0, r4
    1228:	b003      	add	sp, #12
    122a:	bd30      	pop	{r4, r5, pc}
/mnt/disk/raspbian-tee/optee_os/lib/libutee/tee_api_objects.c:214
    122c:	9b01      	ldr	r3, [sp, #4]
    122e:	602b      	str	r3, [r5, #0]
    1230:	e7f9      	b.n	1226 <TEE_AllocateTransientObject+0x1e>
    1232:	bf00      	nop
    1234:	ffff000c 	.word	0xffff000c

00001238 <TEE_FreeTransientObject>:
TEE_FreeTransientObject():
/mnt/disk/raspbian-tee/optee_os/lib/libutee/tee_api_objects.c:220
    1238:	b510      	push	{r4, lr}
/mnt/disk/raspbian-tee/optee_os/lib/libutee/tee_api_objects.c:224
    123a:	4604      	mov	r4, r0
/mnt/disk/raspbian-tee/optee_os/lib/libutee/tee_api_objects.c:220
    123c:	b088      	sub	sp, #32
/mnt/disk/raspbian-tee/optee_os/lib/libutee/tee_api_objects.c:224
    123e:	b188      	cbz	r0, 1264 <TEE_FreeTransientObject+0x2c>
/mnt/disk/raspbian-tee/optee_os/lib/libutee/tee_api_objects.c:227
    1240:	a901      	add	r1, sp, #4
    1242:	f001 efb2 	blx	31a8 <utee_cryp_obj_get_info>
/mnt/disk/raspbian-tee/optee_os/lib/libutee/tee_api_objects.c:228
    1246:	b108      	cbz	r0, 124c <TEE_FreeTransientObject+0x14>
/mnt/disk/raspbian-tee/optee_os/lib/libutee/tee_api_objects.c:229
    1248:	f006 fc76 	bl	7b38 <TEE_Panic>
/mnt/disk/raspbian-tee/optee_os/lib/libutee/tee_api_objects.c:231
    124c:	9b07      	ldr	r3, [sp, #28]
    124e:	03db      	lsls	r3, r3, #15
    1250:	d502      	bpl.n	1258 <TEE_FreeTransientObject+0x20>
/mnt/disk/raspbian-tee/optee_os/lib/libutee/tee_api_objects.c:232
    1252:	2000      	movs	r0, #0
    1254:	f006 fc70 	bl	7b38 <TEE_Panic>
/mnt/disk/raspbian-tee/optee_os/lib/libutee/tee_api_objects.c:234
    1258:	4620      	mov	r0, r4
    125a:	f001 efce 	blx	31f8 <utee_cryp_obj_close>
/mnt/disk/raspbian-tee/optee_os/lib/libutee/tee_api_objects.c:235
    125e:	b108      	cbz	r0, 1264 <TEE_FreeTransientObject+0x2c>
/mnt/disk/raspbian-tee/optee_os/lib/libutee/tee_api_objects.c:236
    1260:	f006 fc6a 	bl	7b38 <TEE_Panic>
/mnt/disk/raspbian-tee/optee_os/lib/libutee/tee_api_objects.c:237
    1264:	b008      	add	sp, #32
    1266:	bd10      	pop	{r4, pc}

00001268 <TEE_ResetTransientObject>:
TEE_ResetTransientObject():
/mnt/disk/raspbian-tee/optee_os/lib/libutee/tee_api_objects.c:240
    1268:	b510      	push	{r4, lr}
/mnt/disk/raspbian-tee/optee_os/lib/libutee/tee_api_objects.c:244
    126a:	4604      	mov	r4, r0
/mnt/disk/raspbian-tee/optee_os/lib/libutee/tee_api_objects.c:240
    126c:	b088      	sub	sp, #32
/mnt/disk/raspbian-tee/optee_os/lib/libutee/tee_api_objects.c:244
    126e:	b188      	cbz	r0, 1294 <TEE_ResetTransientObject+0x2c>
/mnt/disk/raspbian-tee/optee_os/lib/libutee/tee_api_objects.c:247
    1270:	a901      	add	r1, sp, #4
    1272:	f001 ef9a 	blx	31a8 <utee_cryp_obj_get_info>
/mnt/disk/raspbian-tee/optee_os/lib/libutee/tee_api_objects.c:248
    1276:	b108      	cbz	r0, 127c <TEE_ResetTransientObject+0x14>
/mnt/disk/raspbian-tee/optee_os/lib/libutee/tee_api_objects.c:249
    1278:	f006 fc5e 	bl	7b38 <TEE_Panic>
/mnt/disk/raspbian-tee/optee_os/lib/libutee/tee_api_objects.c:251
    127c:	9b07      	ldr	r3, [sp, #28]
    127e:	03db      	lsls	r3, r3, #15
    1280:	d502      	bpl.n	1288 <TEE_ResetTransientObject+0x20>
/mnt/disk/raspbian-tee/optee_os/lib/libutee/tee_api_objects.c:252
    1282:	2000      	movs	r0, #0
    1284:	f006 fc58 	bl	7b38 <TEE_Panic>
/mnt/disk/raspbian-tee/optee_os/lib/libutee/tee_api_objects.c:254
    1288:	4620      	mov	r0, r4
    128a:	f001 efc0 	blx	320c <utee_cryp_obj_reset>
/mnt/disk/raspbian-tee/optee_os/lib/libutee/tee_api_objects.c:255
    128e:	b108      	cbz	r0, 1294 <TEE_ResetTransientObject+0x2c>
/mnt/disk/raspbian-tee/optee_os/lib/libutee/tee_api_objects.c:256
    1290:	f006 fc52 	bl	7b38 <TEE_Panic>
/mnt/disk/raspbian-tee/optee_os/lib/libutee/tee_api_objects.c:257
    1294:	b008      	add	sp, #32
    1296:	bd10      	pop	{r4, pc}

00001298 <TEE_PopulateTransientObject>:
TEE_PopulateTransientObject():
/mnt/disk/raspbian-tee/optee_os/lib/libutee/tee_api_objects.c:265
    1298:	2318      	movs	r3, #24
/mnt/disk/raspbian-tee/optee_os/lib/libutee/tee_api_objects.c:262
    129a:	e92d 41f0 	stmdb	sp!, {r4, r5, r6, r7, r8, lr}
    129e:	4688      	mov	r8, r1
    12a0:	b088      	sub	sp, #32
/mnt/disk/raspbian-tee/optee_os/lib/libutee/tee_api_objects.c:265
    12a2:	4353      	muls	r3, r2
/mnt/disk/raspbian-tee/optee_os/lib/libutee/tee_api_objects.c:262
    12a4:	af00      	add	r7, sp, #0
/mnt/disk/raspbian-tee/optee_os/lib/libutee/tee_api_objects.c:267
    12a6:	1d39      	adds	r1, r7, #4
/mnt/disk/raspbian-tee/optee_os/lib/libutee/tee_api_objects.c:262
    12a8:	4606      	mov	r6, r0
/mnt/disk/raspbian-tee/optee_os/lib/libutee/tee_api_objects.c:265
    12aa:	3308      	adds	r3, #8
/mnt/disk/raspbian-tee/optee_os/lib/libutee/tee_api_objects.c:262
    12ac:	4614      	mov	r4, r2
/mnt/disk/raspbian-tee/optee_os/lib/libutee/tee_api_objects.c:265
    12ae:	ebad 0d03 	sub.w	sp, sp, r3
    12b2:	466d      	mov	r5, sp
/mnt/disk/raspbian-tee/optee_os/lib/libutee/tee_api_objects.c:267
    12b4:	f001 ef78 	blx	31a8 <utee_cryp_obj_get_info>
/mnt/disk/raspbian-tee/optee_os/lib/libutee/tee_api_objects.c:268
    12b8:	b108      	cbz	r0, 12be <TEE_PopulateTransientObject+0x26>
/mnt/disk/raspbian-tee/optee_os/lib/libutee/tee_api_objects.c:269
    12ba:	f006 fc3d 	bl	7b38 <TEE_Panic>
/mnt/disk/raspbian-tee/optee_os/lib/libutee/tee_api_objects.c:272
    12be:	69fb      	ldr	r3, [r7, #28]
    12c0:	03da      	lsls	r2, r3, #15
    12c2:	d502      	bpl.n	12ca <TEE_PopulateTransientObject+0x32>
/mnt/disk/raspbian-tee/optee_os/lib/libutee/tee_api_objects.c:273
    12c4:	2000      	movs	r0, #0
    12c6:	f006 fc37 	bl	7b38 <TEE_Panic>
/mnt/disk/raspbian-tee/optee_os/lib/libutee/tee_api_objects.c:276
    12ca:	69fb      	ldr	r3, [r7, #28]
    12cc:	039b      	lsls	r3, r3, #14
    12ce:	d502      	bpl.n	12d6 <TEE_PopulateTransientObject+0x3e>
/mnt/disk/raspbian-tee/optee_os/lib/libutee/tee_api_objects.c:277
    12d0:	2000      	movs	r0, #0
    12d2:	f006 fc31 	bl	7b38 <TEE_Panic>
/mnt/disk/raspbian-tee/optee_os/lib/libutee/tee_api_objects.c:279
    12d6:	4622      	mov	r2, r4
    12d8:	4641      	mov	r1, r8
    12da:	4628      	mov	r0, r5
    12dc:	f7ff fea8 	bl	1030 <__utee_from_attr>
/mnt/disk/raspbian-tee/optee_os/lib/libutee/tee_api_objects.c:280
    12e0:	4622      	mov	r2, r4
    12e2:	4629      	mov	r1, r5
    12e4:	4630      	mov	r0, r6
    12e6:	f001 ef9c 	blx	3220 <utee_cryp_obj_populate>
/mnt/disk/raspbian-tee/optee_os/lib/libutee/tee_api_objects.c:281
    12ea:	4604      	mov	r4, r0
    12ec:	b120      	cbz	r0, 12f8 <TEE_PopulateTransientObject+0x60>
/mnt/disk/raspbian-tee/optee_os/lib/libutee/tee_api_objects.c:281 (discriminator 1)
    12ee:	4b05      	ldr	r3, [pc, #20]	; (1304 <TEE_PopulateTransientObject+0x6c>)
    12f0:	4298      	cmp	r0, r3
    12f2:	d001      	beq.n	12f8 <TEE_PopulateTransientObject+0x60>
/mnt/disk/raspbian-tee/optee_os/lib/libutee/tee_api_objects.c:282
    12f4:	f006 fc20 	bl	7b38 <TEE_Panic>
/mnt/disk/raspbian-tee/optee_os/lib/libutee/tee_api_objects.c:284
    12f8:	4620      	mov	r0, r4
    12fa:	3720      	adds	r7, #32
    12fc:	46bd      	mov	sp, r7
    12fe:	e8bd 81f0 	ldmia.w	sp!, {r4, r5, r6, r7, r8, pc}
    1302:	bf00      	nop
    1304:	ffff0006 	.word	0xffff0006

00001308 <TEE_InitRefAttribute>:
TEE_InitRefAttribute():
/mnt/disk/raspbian-tee/optee_os/lib/libutee/tee_api_objects.c:288
    1308:	b5f8      	push	{r3, r4, r5, r6, r7, lr}
    130a:	460d      	mov	r5, r1
    130c:	4617      	mov	r7, r2
    130e:	461e      	mov	r6, r3
/mnt/disk/raspbian-tee/optee_os/lib/libutee/tee_api_objects.c:289
    1310:	4604      	mov	r4, r0
    1312:	b908      	cbnz	r0, 1318 <TEE_InitRefAttribute+0x10>
/mnt/disk/raspbian-tee/optee_os/lib/libutee/tee_api_objects.c:290
    1314:	f006 fc10 	bl	7b38 <TEE_Panic>
/mnt/disk/raspbian-tee/optee_os/lib/libutee/tee_api_objects.c:291
    1318:	00ab      	lsls	r3, r5, #2
    131a:	d502      	bpl.n	1322 <TEE_InitRefAttribute+0x1a>
/mnt/disk/raspbian-tee/optee_os/lib/libutee/tee_api_objects.c:292
    131c:	2000      	movs	r0, #0
    131e:	f006 fc0b 	bl	7b38 <TEE_Panic>
/mnt/disk/raspbian-tee/optee_os/lib/libutee/tee_api_objects.c:294
    1322:	e884 00a0 	stmia.w	r4, {r5, r7}
/mnt/disk/raspbian-tee/optee_os/lib/libutee/tee_api_objects.c:295
    1326:	60a6      	str	r6, [r4, #8]
    1328:	bdf8      	pop	{r3, r4, r5, r6, r7, pc}

0000132a <TEE_InitValueAttribute>:
TEE_InitValueAttribute():
/mnt/disk/raspbian-tee/optee_os/lib/libutee/tee_api_objects.c:300
    132a:	b5f8      	push	{r3, r4, r5, r6, r7, lr}
    132c:	460d      	mov	r5, r1
    132e:	4617      	mov	r7, r2
    1330:	461e      	mov	r6, r3
/mnt/disk/raspbian-tee/optee_os/lib/libutee/tee_api_objects.c:301
    1332:	4604      	mov	r4, r0
    1334:	b908      	cbnz	r0, 133a <TEE_InitValueAttribute+0x10>
/mnt/disk/raspbian-tee/optee_os/lib/libutee/tee_api_objects.c:302
    1336:	f006 fbff 	bl	7b38 <TEE_Panic>
/mnt/disk/raspbian-tee/optee_os/lib/libutee/tee_api_objects.c:303
    133a:	f015 5000 	ands.w	r0, r5, #536870912	; 0x20000000
    133e:	d101      	bne.n	1344 <TEE_InitValueAttribute+0x1a>
/mnt/disk/raspbian-tee/optee_os/lib/libutee/tee_api_objects.c:304
    1340:	f006 fbfa 	bl	7b38 <TEE_Panic>
/mnt/disk/raspbian-tee/optee_os/lib/libutee/tee_api_objects.c:306
    1344:	e884 00a0 	stmia.w	r4, {r5, r7}
/mnt/disk/raspbian-tee/optee_os/lib/libutee/tee_api_objects.c:307
    1348:	60a6      	str	r6, [r4, #8]
    134a:	bdf8      	pop	{r3, r4, r5, r6, r7, pc}

0000134c <TEE_CopyObjectAttributes1>:
TEE_CopyObjectAttributes1():
/mnt/disk/raspbian-tee/optee_os/lib/libutee/tee_api_objects.c:333
    134c:	b570      	push	{r4, r5, r6, lr}
    134e:	460d      	mov	r5, r1
    1350:	4606      	mov	r6, r0
    1352:	b08e      	sub	sp, #56	; 0x38
/mnt/disk/raspbian-tee/optee_os/lib/libutee/tee_api_objects.c:338
    1354:	4669      	mov	r1, sp
    1356:	f001 ef28 	blx	31a8 <utee_cryp_obj_get_info>
/mnt/disk/raspbian-tee/optee_os/lib/libutee/tee_api_objects.c:339
    135a:	4604      	mov	r4, r0
    135c:	b9e0      	cbnz	r0, 1398 <TEE_CopyObjectAttributes1+0x4c>
/mnt/disk/raspbian-tee/optee_os/lib/libutee/tee_api_objects.c:342
    135e:	a907      	add	r1, sp, #28
    1360:	4628      	mov	r0, r5
    1362:	f001 ef22 	blx	31a8 <utee_cryp_obj_get_info>
/mnt/disk/raspbian-tee/optee_os/lib/libutee/tee_api_objects.c:343
    1366:	4604      	mov	r4, r0
    1368:	b9b0      	cbnz	r0, 1398 <TEE_CopyObjectAttributes1+0x4c>
/mnt/disk/raspbian-tee/optee_os/lib/libutee/tee_api_objects.c:346
    136a:	9b0d      	ldr	r3, [sp, #52]	; 0x34
    136c:	0399      	lsls	r1, r3, #14
    136e:	d401      	bmi.n	1374 <TEE_CopyObjectAttributes1+0x28>
/mnt/disk/raspbian-tee/optee_os/lib/libutee/tee_api_objects.c:347
    1370:	f006 fbe2 	bl	7b38 <TEE_Panic>
/mnt/disk/raspbian-tee/optee_os/lib/libutee/tee_api_objects.c:349
    1374:	9b06      	ldr	r3, [sp, #24]
    1376:	03da      	lsls	r2, r3, #15
    1378:	d502      	bpl.n	1380 <TEE_CopyObjectAttributes1+0x34>
/mnt/disk/raspbian-tee/optee_os/lib/libutee/tee_api_objects.c:350
    137a:	2000      	movs	r0, #0
    137c:	f006 fbdc 	bl	7b38 <TEE_Panic>
/mnt/disk/raspbian-tee/optee_os/lib/libutee/tee_api_objects.c:352
    1380:	9b06      	ldr	r3, [sp, #24]
    1382:	039b      	lsls	r3, r3, #14
    1384:	d502      	bpl.n	138c <TEE_CopyObjectAttributes1+0x40>
/mnt/disk/raspbian-tee/optee_os/lib/libutee/tee_api_objects.c:353
    1386:	2000      	movs	r0, #0
    1388:	f006 fbd6 	bl	7b38 <TEE_Panic>
/mnt/disk/raspbian-tee/optee_os/lib/libutee/tee_api_objects.c:355
    138c:	4629      	mov	r1, r5
    138e:	4630      	mov	r0, r6
    1390:	f001 ef50 	blx	3234 <utee_cryp_obj_copy>
/mnt/disk/raspbian-tee/optee_os/lib/libutee/tee_api_objects.c:359
    1394:	4604      	mov	r4, r0
    1396:	b140      	cbz	r0, 13aa <TEE_CopyObjectAttributes1+0x5e>
/mnt/disk/raspbian-tee/optee_os/lib/libutee/tee_api_objects.c:359 (discriminator 1)
    1398:	4b05      	ldr	r3, [pc, #20]	; (13b0 <TEE_CopyObjectAttributes1+0x64>)
    139a:	429c      	cmp	r4, r3
    139c:	d005      	beq.n	13aa <TEE_CopyObjectAttributes1+0x5e>
/mnt/disk/raspbian-tee/optee_os/lib/libutee/tee_api_objects.c:360
    139e:	3302      	adds	r3, #2
    13a0:	429c      	cmp	r4, r3
    13a2:	d002      	beq.n	13aa <TEE_CopyObjectAttributes1+0x5e>
/mnt/disk/raspbian-tee/optee_os/lib/libutee/tee_api_objects.c:362
    13a4:	4620      	mov	r0, r4
    13a6:	f006 fbc7 	bl	7b38 <TEE_Panic>
/mnt/disk/raspbian-tee/optee_os/lib/libutee/tee_api_objects.c:365
    13aa:	4620      	mov	r0, r4
    13ac:	b00e      	add	sp, #56	; 0x38
    13ae:	bd70      	pop	{r4, r5, r6, pc}
    13b0:	f0100001 	.word	0xf0100001

000013b4 <TEE_CopyObjectAttributes>:
TEE_CopyObjectAttributes():
/mnt/disk/raspbian-tee/optee_os/lib/libutee/tee_api_objects.c:318
    13b4:	b530      	push	{r4, r5, lr}
    13b6:	460c      	mov	r4, r1
    13b8:	4605      	mov	r5, r0
    13ba:	b089      	sub	sp, #36	; 0x24
/mnt/disk/raspbian-tee/optee_os/lib/libutee/tee_api_objects.c:322
    13bc:	4620      	mov	r0, r4
    13be:	a901      	add	r1, sp, #4
    13c0:	f001 eef2 	blx	31a8 <utee_cryp_obj_get_info>
/mnt/disk/raspbian-tee/optee_os/lib/libutee/tee_api_objects.c:323
    13c4:	4b06      	ldr	r3, [pc, #24]	; (13e0 <TEE_CopyObjectAttributes+0x2c>)
    13c6:	9a01      	ldr	r2, [sp, #4]
    13c8:	429a      	cmp	r2, r3
    13ca:	d006      	beq.n	13da <TEE_CopyObjectAttributes+0x26>
/mnt/disk/raspbian-tee/optee_os/lib/libutee/tee_api_objects.c:326
    13cc:	4621      	mov	r1, r4
    13ce:	4628      	mov	r0, r5
    13d0:	f7ff ffbc 	bl	134c <TEE_CopyObjectAttributes1>
/mnt/disk/raspbian-tee/optee_os/lib/libutee/tee_api_objects.c:327
    13d4:	b108      	cbz	r0, 13da <TEE_CopyObjectAttributes+0x26>
/mnt/disk/raspbian-tee/optee_os/lib/libutee/tee_api_objects.c:328
    13d6:	f006 fbaf 	bl	7b38 <TEE_Panic>
/mnt/disk/raspbian-tee/optee_os/lib/libutee/tee_api_objects.c:329
    13da:	b009      	add	sp, #36	; 0x24
    13dc:	bd30      	pop	{r4, r5, pc}
    13de:	bf00      	nop
    13e0:	a00000be 	.word	0xa00000be

000013e4 <TEE_GenerateKey>:
TEE_GenerateKey():
/mnt/disk/raspbian-tee/optee_os/lib/libutee/tee_api_objects.c:369
    13e4:	e92d 41f0 	stmdb	sp!, {r4, r5, r6, r7, r8, lr}
    13e8:	4688      	mov	r8, r1
    13ea:	4611      	mov	r1, r2
/mnt/disk/raspbian-tee/optee_os/lib/libutee/tee_api_objects.c:371
    13ec:	2218      	movs	r2, #24
/mnt/disk/raspbian-tee/optee_os/lib/libutee/tee_api_objects.c:369
    13ee:	af00      	add	r7, sp, #0
    13f0:	461c      	mov	r4, r3
    13f2:	4606      	mov	r6, r0
/mnt/disk/raspbian-tee/optee_os/lib/libutee/tee_api_objects.c:371
    13f4:	435a      	muls	r2, r3
    13f6:	3208      	adds	r2, #8
    13f8:	ebad 0d02 	sub.w	sp, sp, r2
/mnt/disk/raspbian-tee/optee_os/lib/libutee/tee_api_objects.c:373
    13fc:	461a      	mov	r2, r3
    13fe:	4668      	mov	r0, sp
    1400:	f7ff fe16 	bl	1030 <__utee_from_attr>
/mnt/disk/raspbian-tee/optee_os/lib/libutee/tee_api_objects.c:374
    1404:	4623      	mov	r3, r4
    1406:	466a      	mov	r2, sp
    1408:	4641      	mov	r1, r8
    140a:	4630      	mov	r0, r6
    140c:	f002 e808 	blx	3420 <utee_cryp_obj_generate_key>
/mnt/disk/raspbian-tee/optee_os/lib/libutee/tee_api_objects.c:377
    1410:	4604      	mov	r4, r0
    1412:	b120      	cbz	r0, 141e <TEE_GenerateKey+0x3a>
/mnt/disk/raspbian-tee/optee_os/lib/libutee/tee_api_objects.c:377 (discriminator 1)
    1414:	4b04      	ldr	r3, [pc, #16]	; (1428 <TEE_GenerateKey+0x44>)
    1416:	4298      	cmp	r0, r3
    1418:	d001      	beq.n	141e <TEE_GenerateKey+0x3a>
/mnt/disk/raspbian-tee/optee_os/lib/libutee/tee_api_objects.c:378
    141a:	f006 fb8d 	bl	7b38 <TEE_Panic>
/mnt/disk/raspbian-tee/optee_os/lib/libutee/tee_api_objects.c:381
    141e:	4620      	mov	r0, r4
    1420:	46bd      	mov	sp, r7
    1422:	e8bd 81f0 	ldmia.w	sp!, {r4, r5, r6, r7, r8, pc}
    1426:	bf00      	nop
    1428:	ffff0006 	.word	0xffff0006

0000142c <TEE_OpenPersistentObject>:
TEE_OpenPersistentObject():
/mnt/disk/raspbian-tee/optee_os/lib/libutee/tee_api_objects.c:388
    142c:	b530      	push	{r4, r5, lr}
    142e:	b085      	sub	sp, #20
    1430:	9d08      	ldr	r5, [sp, #32]
/mnt/disk/raspbian-tee/optee_os/lib/libutee/tee_api_objects.c:392
    1432:	b919      	cbnz	r1, 143c <TEE_OpenPersistentObject+0x10>
    1434:	4c12      	ldr	r4, [pc, #72]	; (1480 <TEE_OpenPersistentObject+0x54>)
/mnt/disk/raspbian-tee/optee_os/lib/libutee/tee_api_objects.c:422
    1436:	4620      	mov	r0, r4
    1438:	b005      	add	sp, #20
    143a:	bd30      	pop	{r4, r5, pc}
/mnt/disk/raspbian-tee/optee_os/lib/libutee/tee_api_objects.c:397
    143c:	2a40      	cmp	r2, #64	; 0x40
    143e:	d809      	bhi.n	1454 <TEE_OpenPersistentObject+0x28>
/mnt/disk/raspbian-tee/optee_os/lib/libutee/tee_api_objects.c:402
    1440:	b145      	cbz	r5, 1454 <TEE_OpenPersistentObject+0x28>
/mnt/disk/raspbian-tee/optee_os/lib/libutee/tee_api_objects.c:407
    1442:	ac03      	add	r4, sp, #12
    1444:	9400      	str	r4, [sp, #0]
    1446:	f001 ef66 	blx	3314 <utee_storage_obj_open>
/mnt/disk/raspbian-tee/optee_os/lib/libutee/tee_api_objects.c:409
    144a:	4604      	mov	r4, r0
    144c:	b920      	cbnz	r0, 1458 <TEE_OpenPersistentObject+0x2c>
/mnt/disk/raspbian-tee/optee_os/lib/libutee/tee_api_objects.c:410
    144e:	9b03      	ldr	r3, [sp, #12]
    1450:	602b      	str	r3, [r5, #0]
    1452:	e7f0      	b.n	1436 <TEE_OpenPersistentObject+0xa>
    1454:	4c0b      	ldr	r4, [pc, #44]	; (1484 <TEE_OpenPersistentObject+0x58>)
    1456:	e00e      	b.n	1476 <TEE_OpenPersistentObject+0x4a>
/mnt/disk/raspbian-tee/optee_os/lib/libutee/tee_api_objects.c:413
    1458:	4b09      	ldr	r3, [pc, #36]	; (1480 <TEE_OpenPersistentObject+0x54>)
    145a:	4298      	cmp	r0, r3
    145c:	d0ea      	beq.n	1434 <TEE_OpenPersistentObject+0x8>
/mnt/disk/raspbian-tee/optee_os/lib/libutee/tee_api_objects.c:414
    145e:	4b0a      	ldr	r3, [pc, #40]	; (1488 <TEE_OpenPersistentObject+0x5c>)
    1460:	429c      	cmp	r4, r3
    1462:	d0e8      	beq.n	1436 <TEE_OpenPersistentObject+0xa>
/mnt/disk/raspbian-tee/optee_os/lib/libutee/tee_api_objects.c:415
    1464:	3309      	adds	r3, #9
    1466:	429c      	cmp	r4, r3
    1468:	d0e5      	beq.n	1436 <TEE_OpenPersistentObject+0xa>
/mnt/disk/raspbian-tee/optee_os/lib/libutee/tee_api_objects.c:416
    146a:	4b08      	ldr	r3, [pc, #32]	; (148c <TEE_OpenPersistentObject+0x60>)
    146c:	429c      	cmp	r4, r3
    146e:	d0e2      	beq.n	1436 <TEE_OpenPersistentObject+0xa>
/mnt/disk/raspbian-tee/optee_os/lib/libutee/tee_api_objects.c:417
    1470:	3302      	adds	r3, #2
    1472:	429c      	cmp	r4, r3
    1474:	d0df      	beq.n	1436 <TEE_OpenPersistentObject+0xa>
/mnt/disk/raspbian-tee/optee_os/lib/libutee/tee_api_objects.c:419
    1476:	4620      	mov	r0, r4
    1478:	f006 fb5e 	bl	7b38 <TEE_Panic>
/mnt/disk/raspbian-tee/optee_os/lib/libutee/tee_api_objects.c:421
    147c:	e7db      	b.n	1436 <TEE_OpenPersistentObject+0xa>
    147e:	bf00      	nop
    1480:	ffff0008 	.word	0xffff0008
    1484:	ffff0006 	.word	0xffff0006
    1488:	ffff0003 	.word	0xffff0003
    148c:	f0100001 	.word	0xf0100001

00001490 <TEE_CreatePersistentObject>:
TEE_CreatePersistentObject():
/mnt/disk/raspbian-tee/optee_os/lib/libutee/tee_api_objects.c:430
    1490:	b530      	push	{r4, r5, lr}
    1492:	b087      	sub	sp, #28
    1494:	9c0d      	ldr	r4, [sp, #52]	; 0x34
/mnt/disk/raspbian-tee/optee_os/lib/libutee/tee_api_objects.c:434
    1496:	2900      	cmp	r1, #0
    1498:	d033      	beq.n	1502 <TEE_CreatePersistentObject+0x72>
/mnt/disk/raspbian-tee/optee_os/lib/libutee/tee_api_objects.c:439
    149a:	2a40      	cmp	r2, #64	; 0x40
    149c:	d835      	bhi.n	150a <TEE_CreatePersistentObject+0x7a>
/mnt/disk/raspbian-tee/optee_os/lib/libutee/tee_api_objects.c:444
    149e:	ad05      	add	r5, sp, #20
    14a0:	9503      	str	r5, [sp, #12]
    14a2:	9d0c      	ldr	r5, [sp, #48]	; 0x30
    14a4:	9502      	str	r5, [sp, #8]
    14a6:	9d0b      	ldr	r5, [sp, #44]	; 0x2c
    14a8:	9501      	str	r5, [sp, #4]
    14aa:	9d0a      	ldr	r5, [sp, #40]	; 0x28
    14ac:	9500      	str	r5, [sp, #0]
    14ae:	f001 ef3e 	blx	332c <utee_storage_obj_create>
/mnt/disk/raspbian-tee/optee_os/lib/libutee/tee_api_objects.c:447
    14b2:	b970      	cbnz	r0, 14d2 <TEE_CreatePersistentObject+0x42>
/mnt/disk/raspbian-tee/optee_os/lib/libutee/tee_api_objects.c:448
    14b4:	b11c      	cbz	r4, 14be <TEE_CreatePersistentObject+0x2e>
/mnt/disk/raspbian-tee/optee_os/lib/libutee/tee_api_objects.c:449
    14b6:	9b05      	ldr	r3, [sp, #20]
    14b8:	6023      	str	r3, [r4, #0]
/mnt/disk/raspbian-tee/optee_os/lib/libutee/tee_api_objects.c:468
    14ba:	b007      	add	sp, #28
    14bc:	bd30      	pop	{r4, r5, pc}
/mnt/disk/raspbian-tee/optee_os/lib/libutee/tee_api_objects.c:451
    14be:	9805      	ldr	r0, [sp, #20]
    14c0:	f001 ee9a 	blx	31f8 <utee_cryp_obj_close>
/mnt/disk/raspbian-tee/optee_os/lib/libutee/tee_api_objects.c:452
    14c4:	2800      	cmp	r0, #0
    14c6:	d0f8      	beq.n	14ba <TEE_CreatePersistentObject+0x2a>
/mnt/disk/raspbian-tee/optee_os/lib/libutee/tee_api_objects.c:458
    14c8:	4b12      	ldr	r3, [pc, #72]	; (1514 <TEE_CreatePersistentObject+0x84>)
    14ca:	4298      	cmp	r0, r3
    14cc:	d106      	bne.n	14dc <TEE_CreatePersistentObject+0x4c>
/mnt/disk/raspbian-tee/optee_os/lib/libutee/tee_api_objects.c:467
    14ce:	4811      	ldr	r0, [pc, #68]	; (1514 <TEE_CreatePersistentObject+0x84>)
    14d0:	e7f3      	b.n	14ba <TEE_CreatePersistentObject+0x2a>
/mnt/disk/raspbian-tee/optee_os/lib/libutee/tee_api_objects.c:456
    14d2:	2c00      	cmp	r4, #0
    14d4:	d0f8      	beq.n	14c8 <TEE_CreatePersistentObject+0x38>
/mnt/disk/raspbian-tee/optee_os/lib/libutee/tee_api_objects.c:457
    14d6:	2300      	movs	r3, #0
    14d8:	6023      	str	r3, [r4, #0]
    14da:	e7f5      	b.n	14c8 <TEE_CreatePersistentObject+0x38>
/mnt/disk/raspbian-tee/optee_os/lib/libutee/tee_api_objects.c:458 (discriminator 1)
    14dc:	4b0e      	ldr	r3, [pc, #56]	; (1518 <TEE_CreatePersistentObject+0x88>)
    14de:	4298      	cmp	r0, r3
    14e0:	d0eb      	beq.n	14ba <TEE_CreatePersistentObject+0x2a>
/mnt/disk/raspbian-tee/optee_os/lib/libutee/tee_api_objects.c:459
    14e2:	3309      	adds	r3, #9
    14e4:	4298      	cmp	r0, r3
    14e6:	d0e8      	beq.n	14ba <TEE_CreatePersistentObject+0x2a>
/mnt/disk/raspbian-tee/optee_os/lib/libutee/tee_api_objects.c:460
    14e8:	4b0c      	ldr	r3, [pc, #48]	; (151c <TEE_CreatePersistentObject+0x8c>)
    14ea:	4298      	cmp	r0, r3
    14ec:	d0e5      	beq.n	14ba <TEE_CreatePersistentObject+0x2a>
/mnt/disk/raspbian-tee/optee_os/lib/libutee/tee_api_objects.c:461
    14ee:	4b0c      	ldr	r3, [pc, #48]	; (1520 <TEE_CreatePersistentObject+0x90>)
    14f0:	4298      	cmp	r0, r3
    14f2:	d0e2      	beq.n	14ba <TEE_CreatePersistentObject+0x2a>
/mnt/disk/raspbian-tee/optee_os/lib/libutee/tee_api_objects.c:462
    14f4:	3302      	adds	r3, #2
    14f6:	4298      	cmp	r0, r3
    14f8:	d0df      	beq.n	14ba <TEE_CreatePersistentObject+0x2a>
/mnt/disk/raspbian-tee/optee_os/lib/libutee/tee_api_objects.c:465
    14fa:	f006 fb1d 	bl	7b38 <TEE_Panic>
/mnt/disk/raspbian-tee/optee_os/lib/libutee/tee_api_objects.c:467
    14fe:	2000      	movs	r0, #0
    1500:	e7db      	b.n	14ba <TEE_CreatePersistentObject+0x2a>
/mnt/disk/raspbian-tee/optee_os/lib/libutee/tee_api_objects.c:456
    1502:	2c00      	cmp	r4, #0
    1504:	d0e3      	beq.n	14ce <TEE_CreatePersistentObject+0x3e>
/mnt/disk/raspbian-tee/optee_os/lib/libutee/tee_api_objects.c:435
    1506:	4803      	ldr	r0, [pc, #12]	; (1514 <TEE_CreatePersistentObject+0x84>)
    1508:	e7e5      	b.n	14d6 <TEE_CreatePersistentObject+0x46>
/mnt/disk/raspbian-tee/optee_os/lib/libutee/tee_api_objects.c:440
    150a:	4806      	ldr	r0, [pc, #24]	; (1524 <TEE_CreatePersistentObject+0x94>)
/mnt/disk/raspbian-tee/optee_os/lib/libutee/tee_api_objects.c:456
    150c:	2c00      	cmp	r4, #0
    150e:	d1e2      	bne.n	14d6 <TEE_CreatePersistentObject+0x46>
    1510:	e7f3      	b.n	14fa <TEE_CreatePersistentObject+0x6a>
    1512:	bf00      	nop
    1514:	ffff0008 	.word	0xffff0008
    1518:	ffff0003 	.word	0xffff0003
    151c:	ffff3041 	.word	0xffff3041
    1520:	f0100001 	.word	0xf0100001
    1524:	ffff0006 	.word	0xffff0006

00001528 <TEE_CloseAndDeletePersistentObject1>:
TEE_CloseAndDeletePersistentObject1():
/mnt/disk/raspbian-tee/optee_os/lib/libutee/tee_api_objects.c:490
    1528:	b510      	push	{r4, lr}
/mnt/disk/raspbian-tee/optee_os/lib/libutee/tee_api_objects.c:493
    152a:	b150      	cbz	r0, 1542 <TEE_CloseAndDeletePersistentObject1+0x1a>
/mnt/disk/raspbian-tee/optee_os/lib/libutee/tee_api_objects.c:496
    152c:	f001 ef0a 	blx	3344 <utee_storage_obj_del>
/mnt/disk/raspbian-tee/optee_os/lib/libutee/tee_api_objects.c:498
    1530:	4604      	mov	r4, r0
    1532:	b120      	cbz	r0, 153e <TEE_CloseAndDeletePersistentObject1+0x16>
    1534:	4b04      	ldr	r3, [pc, #16]	; (1548 <TEE_CloseAndDeletePersistentObject1+0x20>)
    1536:	4298      	cmp	r0, r3
    1538:	d001      	beq.n	153e <TEE_CloseAndDeletePersistentObject1+0x16>
/mnt/disk/raspbian-tee/optee_os/lib/libutee/tee_api_objects.c:499
    153a:	f006 fafd 	bl	7b38 <TEE_Panic>
/mnt/disk/raspbian-tee/optee_os/lib/libutee/tee_api_objects.c:502
    153e:	4620      	mov	r0, r4
    1540:	bd10      	pop	{r4, pc}
/mnt/disk/raspbian-tee/optee_os/lib/libutee/tee_api_objects.c:494
    1542:	4c01      	ldr	r4, [pc, #4]	; (1548 <TEE_CloseAndDeletePersistentObject1+0x20>)
    1544:	e7fb      	b.n	153e <TEE_CloseAndDeletePersistentObject1+0x16>
    1546:	bf00      	nop
    1548:	f0100003 	.word	0xf0100003

0000154c <TEE_CloseAndDeletePersistentObject>:
TEE_CloseAndDeletePersistentObject():
/mnt/disk/raspbian-tee/optee_os/lib/libutee/tee_api_objects.c:477
    154c:	b508      	push	{r3, lr}
/mnt/disk/raspbian-tee/optee_os/lib/libutee/tee_api_objects.c:480
    154e:	b138      	cbz	r0, 1560 <TEE_CloseAndDeletePersistentObject+0x14>
/mnt/disk/raspbian-tee/optee_os/lib/libutee/tee_api_objects.c:483
    1550:	f7ff ffea 	bl	1528 <TEE_CloseAndDeletePersistentObject1>
/mnt/disk/raspbian-tee/optee_os/lib/libutee/tee_api_objects.c:485
    1554:	b120      	cbz	r0, 1560 <TEE_CloseAndDeletePersistentObject+0x14>
/mnt/disk/raspbian-tee/optee_os/lib/libutee/tee_api_objects.c:486
    1556:	2000      	movs	r0, #0
/mnt/disk/raspbian-tee/optee_os/lib/libutee/tee_api_objects.c:487
    1558:	e8bd 4008 	ldmia.w	sp!, {r3, lr}
/mnt/disk/raspbian-tee/optee_os/lib/libutee/tee_api_objects.c:486
    155c:	f006 baec 	b.w	7b38 <TEE_Panic>
    1560:	bd08      	pop	{r3, pc}

00001562 <TEE_RenamePersistentObject>:
TEE_RenamePersistentObject():
/mnt/disk/raspbian-tee/optee_os/lib/libutee/tee_api_objects.c:508
    1562:	b510      	push	{r4, lr}
/mnt/disk/raspbian-tee/optee_os/lib/libutee/tee_api_objects.c:511
    1564:	b1a0      	cbz	r0, 1590 <TEE_RenamePersistentObject+0x2e>
/mnt/disk/raspbian-tee/optee_os/lib/libutee/tee_api_objects.c:516
    1566:	b1a9      	cbz	r1, 1594 <TEE_RenamePersistentObject+0x32>
/mnt/disk/raspbian-tee/optee_os/lib/libutee/tee_api_objects.c:521
    1568:	2a40      	cmp	r2, #64	; 0x40
    156a:	d813      	bhi.n	1594 <TEE_RenamePersistentObject+0x32>
/mnt/disk/raspbian-tee/optee_os/lib/libutee/tee_api_objects.c:526
    156c:	f001 eef4 	blx	3358 <utee_storage_obj_rename>
/mnt/disk/raspbian-tee/optee_os/lib/libutee/tee_api_objects.c:530
    1570:	4604      	mov	r4, r0
    1572:	b158      	cbz	r0, 158c <TEE_RenamePersistentObject+0x2a>
/mnt/disk/raspbian-tee/optee_os/lib/libutee/tee_api_objects.c:530 (discriminator 1)
    1574:	4b08      	ldr	r3, [pc, #32]	; (1598 <TEE_RenamePersistentObject+0x36>)
    1576:	4298      	cmp	r0, r3
    1578:	d008      	beq.n	158c <TEE_RenamePersistentObject+0x2a>
/mnt/disk/raspbian-tee/optee_os/lib/libutee/tee_api_objects.c:531
    157a:	4b08      	ldr	r3, [pc, #32]	; (159c <TEE_RenamePersistentObject+0x3a>)
    157c:	4298      	cmp	r0, r3
    157e:	d005      	beq.n	158c <TEE_RenamePersistentObject+0x2a>
/mnt/disk/raspbian-tee/optee_os/lib/libutee/tee_api_objects.c:532
    1580:	3302      	adds	r3, #2
    1582:	4298      	cmp	r0, r3
    1584:	d002      	beq.n	158c <TEE_RenamePersistentObject+0x2a>
/mnt/disk/raspbian-tee/optee_os/lib/libutee/tee_api_objects.c:534
    1586:	4620      	mov	r0, r4
    1588:	f006 fad6 	bl	7b38 <TEE_Panic>
/mnt/disk/raspbian-tee/optee_os/lib/libutee/tee_api_objects.c:537
    158c:	4620      	mov	r0, r4
    158e:	bd10      	pop	{r4, pc}
/mnt/disk/raspbian-tee/optee_os/lib/libutee/tee_api_objects.c:512
    1590:	4c03      	ldr	r4, [pc, #12]	; (15a0 <TEE_RenamePersistentObject+0x3e>)
    1592:	e7f8      	b.n	1586 <TEE_RenamePersistentObject+0x24>
/mnt/disk/raspbian-tee/optee_os/lib/libutee/tee_api_objects.c:517
    1594:	4c03      	ldr	r4, [pc, #12]	; (15a4 <TEE_RenamePersistentObject+0x42>)
    1596:	e7f6      	b.n	1586 <TEE_RenamePersistentObject+0x24>
    1598:	ffff0003 	.word	0xffff0003
    159c:	f0100001 	.word	0xf0100001
    15a0:	ffff0008 	.word	0xffff0008
    15a4:	ffff0006 	.word	0xffff0006

000015a8 <TEE_AllocatePersistentObjectEnumerator>:
TEE_AllocatePersistentObjectEnumerator():
/mnt/disk/raspbian-tee/optee_os/lib/libutee/tee_api_objects.c:541
    15a8:	b537      	push	{r0, r1, r2, r4, r5, lr}
/mnt/disk/raspbian-tee/optee_os/lib/libutee/tee_api_objects.c:545
    15aa:	4605      	mov	r5, r0
    15ac:	b190      	cbz	r0, 15d4 <TEE_AllocatePersistentObjectEnumerator+0x2c>
/mnt/disk/raspbian-tee/optee_os/lib/libutee/tee_api_objects.c:548
    15ae:	a801      	add	r0, sp, #4
    15b0:	f001 eedc 	blx	336c <utee_storage_alloc_enum>
/mnt/disk/raspbian-tee/optee_os/lib/libutee/tee_api_objects.c:550
    15b4:	4604      	mov	r4, r0
    15b6:	b108      	cbz	r0, 15bc <TEE_AllocatePersistentObjectEnumerator+0x14>
/mnt/disk/raspbian-tee/optee_os/lib/libutee/tee_api_objects.c:551
    15b8:	2300      	movs	r3, #0
    15ba:	9301      	str	r3, [sp, #4]
/mnt/disk/raspbian-tee/optee_os/lib/libutee/tee_api_objects.c:553
    15bc:	9b01      	ldr	r3, [sp, #4]
    15be:	602b      	str	r3, [r5, #0]
/mnt/disk/raspbian-tee/optee_os/lib/libutee/tee_api_objects.c:555
    15c0:	b12c      	cbz	r4, 15ce <TEE_AllocatePersistentObjectEnumerator+0x26>
/mnt/disk/raspbian-tee/optee_os/lib/libutee/tee_api_objects.c:555 (discriminator 1)
    15c2:	4b05      	ldr	r3, [pc, #20]	; (15d8 <TEE_AllocatePersistentObjectEnumerator+0x30>)
    15c4:	429c      	cmp	r4, r3
    15c6:	d002      	beq.n	15ce <TEE_AllocatePersistentObjectEnumerator+0x26>
/mnt/disk/raspbian-tee/optee_os/lib/libutee/tee_api_objects.c:557
    15c8:	4620      	mov	r0, r4
    15ca:	f006 fab5 	bl	7b38 <TEE_Panic>
/mnt/disk/raspbian-tee/optee_os/lib/libutee/tee_api_objects.c:560
    15ce:	4620      	mov	r0, r4
    15d0:	b003      	add	sp, #12
    15d2:	bd30      	pop	{r4, r5, pc}
/mnt/disk/raspbian-tee/optee_os/lib/libutee/tee_api_objects.c:546
    15d4:	4c01      	ldr	r4, [pc, #4]	; (15dc <TEE_AllocatePersistentObjectEnumerator+0x34>)
    15d6:	e7fa      	b.n	15ce <TEE_AllocatePersistentObjectEnumerator+0x26>
    15d8:	ffff0003 	.word	0xffff0003
    15dc:	ffff0006 	.word	0xffff0006

000015e0 <TEE_FreePersistentObjectEnumerator>:
TEE_FreePersistentObjectEnumerator():
/mnt/disk/raspbian-tee/optee_os/lib/libutee/tee_api_objects.c:563
    15e0:	b508      	push	{r3, lr}
/mnt/disk/raspbian-tee/optee_os/lib/libutee/tee_api_objects.c:566
    15e2:	b130      	cbz	r0, 15f2 <TEE_FreePersistentObjectEnumerator+0x12>
/mnt/disk/raspbian-tee/optee_os/lib/libutee/tee_api_objects.c:569
    15e4:	f001 eecc 	blx	3380 <utee_storage_free_enum>
/mnt/disk/raspbian-tee/optee_os/lib/libutee/tee_api_objects.c:571
    15e8:	b118      	cbz	r0, 15f2 <TEE_FreePersistentObjectEnumerator+0x12>
/mnt/disk/raspbian-tee/optee_os/lib/libutee/tee_api_objects.c:573
    15ea:	e8bd 4008 	ldmia.w	sp!, {r3, lr}
/mnt/disk/raspbian-tee/optee_os/lib/libutee/tee_api_objects.c:572
    15ee:	f006 baa3 	b.w	7b38 <TEE_Panic>
    15f2:	bd08      	pop	{r3, pc}

000015f4 <TEE_ResetPersistentObjectEnumerator>:
TEE_ResetPersistentObjectEnumerator():
/mnt/disk/raspbian-tee/optee_os/lib/libutee/tee_api_objects.c:576
    15f4:	b508      	push	{r3, lr}
/mnt/disk/raspbian-tee/optee_os/lib/libutee/tee_api_objects.c:579
    15f6:	b130      	cbz	r0, 1606 <TEE_ResetPersistentObjectEnumerator+0x12>
/mnt/disk/raspbian-tee/optee_os/lib/libutee/tee_api_objects.c:582
    15f8:	f001 eecc 	blx	3394 <utee_storage_reset_enum>
/mnt/disk/raspbian-tee/optee_os/lib/libutee/tee_api_objects.c:584
    15fc:	b118      	cbz	r0, 1606 <TEE_ResetPersistentObjectEnumerator+0x12>
/mnt/disk/raspbian-tee/optee_os/lib/libutee/tee_api_objects.c:586
    15fe:	e8bd 4008 	ldmia.w	sp!, {r3, lr}
/mnt/disk/raspbian-tee/optee_os/lib/libutee/tee_api_objects.c:585
    1602:	f006 ba99 	b.w	7b38 <TEE_Panic>
    1606:	bd08      	pop	{r3, pc}

00001608 <TEE_StartPersistentObjectEnumerator>:
TEE_StartPersistentObjectEnumerator():
/mnt/disk/raspbian-tee/optee_os/lib/libutee/tee_api_objects.c:591
    1608:	b510      	push	{r4, lr}
/mnt/disk/raspbian-tee/optee_os/lib/libutee/tee_api_objects.c:594
    160a:	f001 eece 	blx	33a8 <utee_storage_start_enum>
/mnt/disk/raspbian-tee/optee_os/lib/libutee/tee_api_objects.c:597
    160e:	4604      	mov	r4, r0
    1610:	b148      	cbz	r0, 1626 <TEE_StartPersistentObjectEnumerator+0x1e>
/mnt/disk/raspbian-tee/optee_os/lib/libutee/tee_api_objects.c:597 (discriminator 1)
    1612:	4b06      	ldr	r3, [pc, #24]	; (162c <TEE_StartPersistentObjectEnumerator+0x24>)
    1614:	4298      	cmp	r0, r3
    1616:	d006      	beq.n	1626 <TEE_StartPersistentObjectEnumerator+0x1e>
/mnt/disk/raspbian-tee/optee_os/lib/libutee/tee_api_objects.c:598
    1618:	4b05      	ldr	r3, [pc, #20]	; (1630 <TEE_StartPersistentObjectEnumerator+0x28>)
    161a:	f020 0202 	bic.w	r2, r0, #2
    161e:	429a      	cmp	r2, r3
    1620:	d001      	beq.n	1626 <TEE_StartPersistentObjectEnumerator+0x1e>
/mnt/disk/raspbian-tee/optee_os/lib/libutee/tee_api_objects.c:601
    1622:	f006 fa89 	bl	7b38 <TEE_Panic>
/mnt/disk/raspbian-tee/optee_os/lib/libutee/tee_api_objects.c:604
    1626:	4620      	mov	r0, r4
    1628:	bd10      	pop	{r4, pc}
    162a:	bf00      	nop
    162c:	ffff0008 	.word	0xffff0008
    1630:	f0100001 	.word	0xf0100001

00001634 <TEE_GetNextPersistentObject>:
TEE_GetNextPersistentObject():
/mnt/disk/raspbian-tee/optee_os/lib/libutee/tee_api_objects.c:609
    1634:	b510      	push	{r4, lr}
    1636:	461c      	mov	r4, r3
    1638:	b08a      	sub	sp, #40	; 0x28
/mnt/disk/raspbian-tee/optee_os/lib/libutee/tee_api_objects.c:615
    163a:	b1e2      	cbz	r2, 1676 <TEE_GetNextPersistentObject+0x42>
/mnt/disk/raspbian-tee/optee_os/lib/libutee/tee_api_objects.c:620
    163c:	b1db      	cbz	r3, 1676 <TEE_GetNextPersistentObject+0x42>
/mnt/disk/raspbian-tee/optee_os/lib/libutee/tee_api_objects.c:625
    163e:	b901      	cbnz	r1, 1642 <TEE_GetNextPersistentObject+0xe>
/mnt/disk/raspbian-tee/optee_os/lib/libutee/tee_api_objects.c:628
    1640:	a903      	add	r1, sp, #12
/mnt/disk/raspbian-tee/optee_os/lib/libutee/tee_api_objects.c:629
    1642:	6823      	ldr	r3, [r4, #0]
    1644:	9300      	str	r3, [sp, #0]
    1646:	2300      	movs	r3, #0
    1648:	9301      	str	r3, [sp, #4]
/mnt/disk/raspbian-tee/optee_os/lib/libutee/tee_api_objects.c:630
    164a:	466b      	mov	r3, sp
    164c:	f001 eeb6 	blx	33bc <utee_storage_next_enum>
/mnt/disk/raspbian-tee/optee_os/lib/libutee/tee_api_objects.c:632
    1650:	9b00      	ldr	r3, [sp, #0]
    1652:	6023      	str	r3, [r4, #0]
/mnt/disk/raspbian-tee/optee_os/lib/libutee/tee_api_objects.c:635
    1654:	4604      	mov	r4, r0
    1656:	b158      	cbz	r0, 1670 <TEE_GetNextPersistentObject+0x3c>
/mnt/disk/raspbian-tee/optee_os/lib/libutee/tee_api_objects.c:635 (discriminator 1)
    1658:	4b08      	ldr	r3, [pc, #32]	; (167c <TEE_GetNextPersistentObject+0x48>)
    165a:	4298      	cmp	r0, r3
    165c:	d008      	beq.n	1670 <TEE_GetNextPersistentObject+0x3c>
/mnt/disk/raspbian-tee/optee_os/lib/libutee/tee_api_objects.c:636
    165e:	4b08      	ldr	r3, [pc, #32]	; (1680 <TEE_GetNextPersistentObject+0x4c>)
    1660:	4298      	cmp	r0, r3
    1662:	d005      	beq.n	1670 <TEE_GetNextPersistentObject+0x3c>
/mnt/disk/raspbian-tee/optee_os/lib/libutee/tee_api_objects.c:637
    1664:	3302      	adds	r3, #2
    1666:	4298      	cmp	r0, r3
    1668:	d002      	beq.n	1670 <TEE_GetNextPersistentObject+0x3c>
/mnt/disk/raspbian-tee/optee_os/lib/libutee/tee_api_objects.c:639
    166a:	4620      	mov	r0, r4
    166c:	f006 fa64 	bl	7b38 <TEE_Panic>
/mnt/disk/raspbian-tee/optee_os/lib/libutee/tee_api_objects.c:642
    1670:	4620      	mov	r0, r4
    1672:	b00a      	add	sp, #40	; 0x28
    1674:	bd10      	pop	{r4, pc}
    1676:	4c03      	ldr	r4, [pc, #12]	; (1684 <TEE_GetNextPersistentObject+0x50>)
    1678:	e7f7      	b.n	166a <TEE_GetNextPersistentObject+0x36>
    167a:	bf00      	nop
    167c:	ffff0008 	.word	0xffff0008
    1680:	f0100001 	.word	0xf0100001
    1684:	ffff0006 	.word	0xffff0006

00001688 <TEE_ReadObjectData>:
TEE_ReadObjectData():
/mnt/disk/raspbian-tee/optee_os/lib/libutee/tee_api_objects.c:648
    1688:	b513      	push	{r0, r1, r4, lr}
    168a:	461c      	mov	r4, r3
/mnt/disk/raspbian-tee/optee_os/lib/libutee/tee_api_objects.c:652
    168c:	b1b0      	cbz	r0, 16bc <TEE_ReadObjectData+0x34>
/mnt/disk/raspbian-tee/optee_os/lib/libutee/tee_api_objects.c:657
    168e:	681b      	ldr	r3, [r3, #0]
    1690:	9300      	str	r3, [sp, #0]
    1692:	2300      	movs	r3, #0
    1694:	9301      	str	r3, [sp, #4]
/mnt/disk/raspbian-tee/optee_os/lib/libutee/tee_api_objects.c:658
    1696:	466b      	mov	r3, sp
    1698:	f001 ee9a 	blx	33d0 <utee_storage_obj_read>
/mnt/disk/raspbian-tee/optee_os/lib/libutee/tee_api_objects.c:660
    169c:	9b00      	ldr	r3, [sp, #0]
    169e:	6023      	str	r3, [r4, #0]
/mnt/disk/raspbian-tee/optee_os/lib/libutee/tee_api_objects.c:663
    16a0:	4604      	mov	r4, r0
    16a2:	b140      	cbz	r0, 16b6 <TEE_ReadObjectData+0x2e>
/mnt/disk/raspbian-tee/optee_os/lib/libutee/tee_api_objects.c:663 (discriminator 1)
    16a4:	4b06      	ldr	r3, [pc, #24]	; (16c0 <TEE_ReadObjectData+0x38>)
    16a6:	4298      	cmp	r0, r3
    16a8:	d005      	beq.n	16b6 <TEE_ReadObjectData+0x2e>
/mnt/disk/raspbian-tee/optee_os/lib/libutee/tee_api_objects.c:664
    16aa:	3302      	adds	r3, #2
    16ac:	4298      	cmp	r0, r3
    16ae:	d002      	beq.n	16b6 <TEE_ReadObjectData+0x2e>
/mnt/disk/raspbian-tee/optee_os/lib/libutee/tee_api_objects.c:666
    16b0:	4620      	mov	r0, r4
    16b2:	f006 fa41 	bl	7b38 <TEE_Panic>
/mnt/disk/raspbian-tee/optee_os/lib/libutee/tee_api_objects.c:669
    16b6:	4620      	mov	r0, r4
    16b8:	b002      	add	sp, #8
    16ba:	bd10      	pop	{r4, pc}
/mnt/disk/raspbian-tee/optee_os/lib/libutee/tee_api_objects.c:653
    16bc:	4c01      	ldr	r4, [pc, #4]	; (16c4 <TEE_ReadObjectData+0x3c>)
    16be:	e7f7      	b.n	16b0 <TEE_ReadObjectData+0x28>
    16c0:	f0100001 	.word	0xf0100001
    16c4:	ffff0006 	.word	0xffff0006

000016c8 <TEE_WriteObjectData>:
TEE_WriteObjectData():
/mnt/disk/raspbian-tee/optee_os/lib/libutee/tee_api_objects.c:673
    16c8:	b510      	push	{r4, lr}
/mnt/disk/raspbian-tee/optee_os/lib/libutee/tee_api_objects.c:676
    16ca:	b1a0      	cbz	r0, 16f6 <TEE_WriteObjectData+0x2e>
/mnt/disk/raspbian-tee/optee_os/lib/libutee/tee_api_objects.c:686
    16cc:	f001 ee8a 	blx	33e4 <utee_storage_obj_write>
/mnt/disk/raspbian-tee/optee_os/lib/libutee/tee_api_objects.c:689
    16d0:	4604      	mov	r4, r0
    16d2:	b170      	cbz	r0, 16f2 <TEE_WriteObjectData+0x2a>
/mnt/disk/raspbian-tee/optee_os/lib/libutee/tee_api_objects.c:689 (discriminator 1)
    16d4:	4b09      	ldr	r3, [pc, #36]	; (16fc <TEE_WriteObjectData+0x34>)
    16d6:	4298      	cmp	r0, r3
    16d8:	d00b      	beq.n	16f2 <TEE_WriteObjectData+0x2a>
/mnt/disk/raspbian-tee/optee_os/lib/libutee/tee_api_objects.c:690
    16da:	3b32      	subs	r3, #50	; 0x32
    16dc:	4298      	cmp	r0, r3
    16de:	d008      	beq.n	16f2 <TEE_WriteObjectData+0x2a>
/mnt/disk/raspbian-tee/optee_os/lib/libutee/tee_api_objects.c:691
    16e0:	4b07      	ldr	r3, [pc, #28]	; (1700 <TEE_WriteObjectData+0x38>)
    16e2:	4298      	cmp	r0, r3
    16e4:	d005      	beq.n	16f2 <TEE_WriteObjectData+0x2a>
/mnt/disk/raspbian-tee/optee_os/lib/libutee/tee_api_objects.c:692
    16e6:	3302      	adds	r3, #2
    16e8:	4298      	cmp	r0, r3
    16ea:	d002      	beq.n	16f2 <TEE_WriteObjectData+0x2a>
/mnt/disk/raspbian-tee/optee_os/lib/libutee/tee_api_objects.c:694
    16ec:	4620      	mov	r0, r4
    16ee:	f006 fa23 	bl	7b38 <TEE_Panic>
/mnt/disk/raspbian-tee/optee_os/lib/libutee/tee_api_objects.c:697
    16f2:	4620      	mov	r0, r4
    16f4:	bd10      	pop	{r4, pc}
/mnt/disk/raspbian-tee/optee_os/lib/libutee/tee_api_objects.c:677
    16f6:	4c03      	ldr	r4, [pc, #12]	; (1704 <TEE_WriteObjectData+0x3c>)
    16f8:	e7f8      	b.n	16ec <TEE_WriteObjectData+0x24>
    16fa:	bf00      	nop
    16fc:	ffff3041 	.word	0xffff3041
    1700:	f0100001 	.word	0xf0100001
    1704:	ffff0006 	.word	0xffff0006

00001708 <TEE_TruncateObjectData>:
TEE_TruncateObjectData():
/mnt/disk/raspbian-tee/optee_os/lib/libutee/tee_api_objects.c:700
    1708:	b510      	push	{r4, lr}
/mnt/disk/raspbian-tee/optee_os/lib/libutee/tee_api_objects.c:703
    170a:	b188      	cbz	r0, 1730 <TEE_TruncateObjectData+0x28>
/mnt/disk/raspbian-tee/optee_os/lib/libutee/tee_api_objects.c:708
    170c:	f001 ee74 	blx	33f8 <utee_storage_obj_trunc>
/mnt/disk/raspbian-tee/optee_os/lib/libutee/tee_api_objects.c:711
    1710:	4604      	mov	r4, r0
    1712:	b158      	cbz	r0, 172c <TEE_TruncateObjectData+0x24>
/mnt/disk/raspbian-tee/optee_os/lib/libutee/tee_api_objects.c:711 (discriminator 1)
    1714:	4b07      	ldr	r3, [pc, #28]	; (1734 <TEE_TruncateObjectData+0x2c>)
    1716:	4298      	cmp	r0, r3
    1718:	d008      	beq.n	172c <TEE_TruncateObjectData+0x24>
/mnt/disk/raspbian-tee/optee_os/lib/libutee/tee_api_objects.c:712
    171a:	4b07      	ldr	r3, [pc, #28]	; (1738 <TEE_TruncateObjectData+0x30>)
    171c:	4298      	cmp	r0, r3
    171e:	d005      	beq.n	172c <TEE_TruncateObjectData+0x24>
/mnt/disk/raspbian-tee/optee_os/lib/libutee/tee_api_objects.c:713
    1720:	3302      	adds	r3, #2
    1722:	4298      	cmp	r0, r3
    1724:	d002      	beq.n	172c <TEE_TruncateObjectData+0x24>
/mnt/disk/raspbian-tee/optee_os/lib/libutee/tee_api_objects.c:715
    1726:	4620      	mov	r0, r4
    1728:	f006 fa06 	bl	7b38 <TEE_Panic>
/mnt/disk/raspbian-tee/optee_os/lib/libutee/tee_api_objects.c:718
    172c:	4620      	mov	r0, r4
    172e:	bd10      	pop	{r4, pc}
/mnt/disk/raspbian-tee/optee_os/lib/libutee/tee_api_objects.c:704
    1730:	4c02      	ldr	r4, [pc, #8]	; (173c <TEE_TruncateObjectData+0x34>)
    1732:	e7f8      	b.n	1726 <TEE_TruncateObjectData+0x1e>
    1734:	ffff3041 	.word	0xffff3041
    1738:	f0100001 	.word	0xf0100001
    173c:	ffff0006 	.word	0xffff0006

00001740 <TEE_SeekObjectData>:
TEE_SeekObjectData():
/mnt/disk/raspbian-tee/optee_os/lib/libutee/tee_api_objects.c:722
    1740:	b5f0      	push	{r4, r5, r6, r7, lr}
    1742:	460d      	mov	r5, r1
    1744:	4616      	mov	r6, r2
    1746:	b089      	sub	sp, #36	; 0x24
/mnt/disk/raspbian-tee/optee_os/lib/libutee/tee_api_objects.c:726
    1748:	4607      	mov	r7, r0
    174a:	b368      	cbz	r0, 17a8 <TEE_SeekObjectData+0x68>
/mnt/disk/raspbian-tee/optee_os/lib/libutee/tee_api_objects.c:731
    174c:	a901      	add	r1, sp, #4
    174e:	f001 ed2c 	blx	31a8 <utee_cryp_obj_get_info>
/mnt/disk/raspbian-tee/optee_os/lib/libutee/tee_api_objects.c:732
    1752:	4604      	mov	r4, r0
    1754:	b9d8      	cbnz	r0, 178e <TEE_SeekObjectData+0x4e>
/mnt/disk/raspbian-tee/optee_os/lib/libutee/tee_api_objects.c:735
    1756:	2e01      	cmp	r6, #1
    1758:	d004      	beq.n	1764 <TEE_SeekObjectData+0x24>
    175a:	d310      	bcc.n	177e <TEE_SeekObjectData+0x3e>
    175c:	2e02      	cmp	r6, #2
    175e:	d00a      	beq.n	1776 <TEE_SeekObjectData+0x36>
/mnt/disk/raspbian-tee/optee_os/lib/libutee/tee_api_objects.c:761
    1760:	4c12      	ldr	r4, [pc, #72]	; (17ac <TEE_SeekObjectData+0x6c>)
    1762:	e017      	b.n	1794 <TEE_SeekObjectData+0x54>
/mnt/disk/raspbian-tee/optee_os/lib/libutee/tee_api_objects.c:743
    1764:	2d00      	cmp	r5, #0
    1766:	dd0a      	ble.n	177e <TEE_SeekObjectData+0x3e>
/mnt/disk/raspbian-tee/optee_os/lib/libutee/tee_api_objects.c:743 (discriminator 1)
    1768:	9b06      	ldr	r3, [sp, #24]
    176a:	42dd      	cmn	r5, r3
    176c:	d307      	bcc.n	177e <TEE_SeekObjectData+0x3e>
/mnt/disk/raspbian-tee/optee_os/lib/libutee/tee_api_objects.c:727
    176e:	4c10      	ldr	r4, [pc, #64]	; (17b0 <TEE_SeekObjectData+0x70>)
/mnt/disk/raspbian-tee/optee_os/lib/libutee/tee_api_objects.c:775
    1770:	4620      	mov	r0, r4
    1772:	b009      	add	sp, #36	; 0x24
    1774:	bdf0      	pop	{r4, r5, r6, r7, pc}
/mnt/disk/raspbian-tee/optee_os/lib/libutee/tee_api_objects.c:753
    1776:	2d00      	cmp	r5, #0
    1778:	dd01      	ble.n	177e <TEE_SeekObjectData+0x3e>
/mnt/disk/raspbian-tee/optee_os/lib/libutee/tee_api_objects.c:753 (discriminator 1)
    177a:	9b05      	ldr	r3, [sp, #20]
    177c:	e7f5      	b.n	176a <TEE_SeekObjectData+0x2a>
/mnt/disk/raspbian-tee/optee_os/lib/libutee/tee_api_objects.c:765
    177e:	4632      	mov	r2, r6
    1780:	4629      	mov	r1, r5
    1782:	4638      	mov	r0, r7
    1784:	f001 ee42 	blx	340c <utee_storage_obj_seek>
/mnt/disk/raspbian-tee/optee_os/lib/libutee/tee_api_objects.c:768
    1788:	4604      	mov	r4, r0
    178a:	2800      	cmp	r0, #0
    178c:	d0f0      	beq.n	1770 <TEE_SeekObjectData+0x30>
/mnt/disk/raspbian-tee/optee_os/lib/libutee/tee_api_objects.c:768 (discriminator 1)
    178e:	4b08      	ldr	r3, [pc, #32]	; (17b0 <TEE_SeekObjectData+0x70>)
    1790:	429c      	cmp	r4, r3
    1792:	d0ec      	beq.n	176e <TEE_SeekObjectData+0x2e>
/mnt/disk/raspbian-tee/optee_os/lib/libutee/tee_api_objects.c:769
    1794:	4b07      	ldr	r3, [pc, #28]	; (17b4 <TEE_SeekObjectData+0x74>)
    1796:	429c      	cmp	r4, r3
    1798:	d0ea      	beq.n	1770 <TEE_SeekObjectData+0x30>
/mnt/disk/raspbian-tee/optee_os/lib/libutee/tee_api_objects.c:770
    179a:	3302      	adds	r3, #2
    179c:	429c      	cmp	r4, r3
    179e:	d0e7      	beq.n	1770 <TEE_SeekObjectData+0x30>
/mnt/disk/raspbian-tee/optee_os/lib/libutee/tee_api_objects.c:772
    17a0:	4620      	mov	r0, r4
    17a2:	f006 f9c9 	bl	7b38 <TEE_Panic>
/mnt/disk/raspbian-tee/optee_os/lib/libutee/tee_api_objects.c:774
    17a6:	e7e3      	b.n	1770 <TEE_SeekObjectData+0x30>
/mnt/disk/raspbian-tee/optee_os/lib/libutee/tee_api_objects.c:727
    17a8:	4c03      	ldr	r4, [pc, #12]	; (17b8 <TEE_SeekObjectData+0x78>)
    17aa:	e7f9      	b.n	17a0 <TEE_SeekObjectData+0x60>
    17ac:	ffff0008 	.word	0xffff0008
    17b0:	ffff300f 	.word	0xffff300f
    17b4:	f0100001 	.word	0xf0100001
    17b8:	ffff0006 	.word	0xffff0006

000017bc <tee_buffer_update>:
tee_buffer_update():
/mnt/disk/raspbian-tee/optee_os/lib/libutee/tee_api_operations.c:852
    17bc:	e92d 4ff0 	stmdb	sp!, {r4, r5, r6, r7, r8, r9, sl, fp, lr}
    17c0:	461f      	mov	r7, r3
    17c2:	4604      	mov	r4, r0
    17c4:	b087      	sub	sp, #28
    17c6:	468b      	mov	fp, r1
/mnt/disk/raspbian-tee/optee_os/lib/libutee/tee_api_operations.c:864
    17c8:	4692      	mov	sl, r2
/mnt/disk/raspbian-tee/optee_os/lib/libutee/tee_api_operations.c:857
    17ca:	9b11      	ldr	r3, [sp, #68]	; 0x44
/mnt/disk/raspbian-tee/optee_os/lib/libutee/tee_api_operations.c:852
    17cc:	f8dd 8040 	ldr.w	r8, [sp, #64]	; 0x40
/mnt/disk/raspbian-tee/optee_os/lib/libutee/tee_api_operations.c:857
    17d0:	e9d3 0100 	ldrd	r0, r1, [r3]
    17d4:	e9cd 0102 	strd	r0, r1, [sp, #8]
/mnt/disk/raspbian-tee/optee_os/lib/libutee/tee_api_operations.c:864
    17d8:	b962      	cbnz	r2, 17f4 <tee_buffer_update+0x38>
/mnt/disk/raspbian-tee/optee_os/lib/libutee/tee_api_operations.c:865
    17da:	b93f      	cbnz	r7, 17ec <tee_buffer_update+0x30>
/mnt/disk/raspbian-tee/optee_os/lib/libutee/tee_api_operations.c:858
    17dc:	2500      	movs	r5, #0
/mnt/disk/raspbian-tee/optee_os/lib/libutee/tee_api_operations.c:940
    17de:	9b11      	ldr	r3, [sp, #68]	; 0x44
    17e0:	2000      	movs	r0, #0
    17e2:	601d      	str	r5, [r3, #0]
    17e4:	6058      	str	r0, [r3, #4]
/mnt/disk/raspbian-tee/optee_os/lib/libutee/tee_api_operations.c:942
    17e6:	b007      	add	sp, #28
    17e8:	e8bd 8ff0 	ldmia.w	sp!, {r4, r5, r6, r7, r8, r9, sl, fp, pc}
/mnt/disk/raspbian-tee/optee_os/lib/libutee/tee_api_operations.c:866
    17ec:	4610      	mov	r0, r2
    17ee:	f006 f9a3 	bl	7b38 <TEE_Panic>
    17f2:	e7f3      	b.n	17dc <tee_buffer_update+0x20>
/mnt/disk/raspbian-tee/optee_os/lib/libutee/tee_api_operations.c:870
    17f4:	f894 3030 	ldrb.w	r3, [r4, #48]	; 0x30
    17f8:	6b65      	ldr	r5, [r4, #52]	; 0x34
    17fa:	2b00      	cmp	r3, #0
    17fc:	d05b      	beq.n	18b6 <tee_buffer_update+0xfa>
/mnt/disk/raspbian-tee/optee_os/lib/libutee/tee_api_operations.c:871
    17fe:	006e      	lsls	r6, r5, #1
/mnt/disk/raspbian-tee/optee_os/lib/libutee/tee_api_operations.c:872
    1800:	f04f 0901 	mov.w	r9, #1
/mnt/disk/raspbian-tee/optee_os/lib/libutee/tee_api_operations.c:878
    1804:	6ba0      	ldr	r0, [r4, #56]	; 0x38
    1806:	b1c8      	cbz	r0, 183c <tee_buffer_update+0x80>
/mnt/disk/raspbian-tee/optee_os/lib/libutee/tee_api_operations.c:880
    1808:	42a8      	cmp	r0, r5
/mnt/disk/raspbian-tee/optee_os/lib/libutee/tee_api_operations.c:884
    180a:	6ae3      	ldr	r3, [r4, #44]	; 0x2c
/mnt/disk/raspbian-tee/optee_os/lib/libutee/tee_api_operations.c:883
    180c:	bf28      	it	cs
    180e:	1a35      	subcs	r5, r6, r0
/mnt/disk/raspbian-tee/optee_os/lib/libutee/tee_api_operations.c:881
    1810:	bf38      	it	cc
    1812:	1a2d      	subcc	r5, r5, r0
/mnt/disk/raspbian-tee/optee_os/lib/libutee/tee_api_operations.c:883
    1814:	42bd      	cmp	r5, r7
/mnt/disk/raspbian-tee/optee_os/lib/libutee/tee_api_operations.c:884
    1816:	4651      	mov	r1, sl
/mnt/disk/raspbian-tee/optee_os/lib/libutee/tee_api_operations.c:883
    1818:	bf28      	it	cs
    181a:	463d      	movcs	r5, r7
/mnt/disk/raspbian-tee/optee_os/lib/libutee/tee_api_operations.c:884
    181c:	4418      	add	r0, r3
    181e:	462a      	mov	r2, r5
    1820:	f006 f9b1 	bl	7b86 <memcpy>
/mnt/disk/raspbian-tee/optee_os/lib/libutee/tee_api_operations.c:885
    1824:	6ba3      	ldr	r3, [r4, #56]	; 0x38
/mnt/disk/raspbian-tee/optee_os/lib/libutee/tee_api_operations.c:888
    1826:	6b61      	ldr	r1, [r4, #52]	; 0x34
/mnt/disk/raspbian-tee/optee_os/lib/libutee/tee_api_operations.c:885
    1828:	442b      	add	r3, r5
    182a:	63a3      	str	r3, [r4, #56]	; 0x38
/mnt/disk/raspbian-tee/optee_os/lib/libutee/tee_api_operations.c:888
    182c:	fbb3 f2f1 	udiv	r2, r3, r1
    1830:	fb01 3312 	mls	r3, r1, r2, r3
    1834:	2b00      	cmp	r3, #0
    1836:	d1d1      	bne.n	17dc <tee_buffer_update+0x20>
/mnt/disk/raspbian-tee/optee_os/lib/libutee/tee_api_operations.c:886
    1838:	44aa      	add	sl, r5
/mnt/disk/raspbian-tee/optee_os/lib/libutee/tee_api_operations.c:887
    183a:	1b7f      	subs	r7, r7, r5
/mnt/disk/raspbian-tee/optee_os/lib/libutee/tee_api_operations.c:893
    183c:	6ba5      	ldr	r5, [r4, #56]	; 0x38
/mnt/disk/raspbian-tee/optee_os/lib/libutee/tee_api_operations.c:857
    183e:	9902      	ldr	r1, [sp, #8]
/mnt/disk/raspbian-tee/optee_os/lib/libutee/tee_api_operations.c:893
    1840:	2d00      	cmp	r5, #0
    1842:	d03c      	beq.n	18be <tee_buffer_update+0x102>
/mnt/disk/raspbian-tee/optee_os/lib/libutee/tee_api_operations.c:894 (discriminator 1)
    1844:	1978      	adds	r0, r7, r5
    1846:	eb06 0309 	add.w	r3, r6, r9
/mnt/disk/raspbian-tee/optee_os/lib/libutee/tee_api_operations.c:893 (discriminator 1)
    184a:	4298      	cmp	r0, r3
    184c:	d336      	bcc.n	18bc <tee_buffer_update+0x100>
/mnt/disk/raspbian-tee/optee_os/lib/libutee/tee_api_operations.c:895
    184e:	6b62      	ldr	r2, [r4, #52]	; 0x34
    1850:	1e53      	subs	r3, r2, #1
    1852:	4252      	negs	r2, r2
    1854:	1b9b      	subs	r3, r3, r6
    1856:	4403      	add	r3, r0
    1858:	4013      	ands	r3, r2
/mnt/disk/raspbian-tee/optee_os/lib/libutee/tee_api_operations.c:897
    185a:	429d      	cmp	r5, r3
    185c:	bf28      	it	cs
    185e:	461d      	movcs	r5, r3
/mnt/disk/raspbian-tee/optee_os/lib/libutee/tee_api_operations.c:898
    1860:	ab06      	add	r3, sp, #24
    1862:	e9dd 0102 	ldrd	r0, r1, [sp, #8]
    1866:	2100      	movs	r1, #0
    1868:	e963 0102 	strd	r0, r1, [r3, #-8]!
/mnt/disk/raspbian-tee/optee_os/lib/libutee/tee_api_operations.c:899
    186c:	462a      	mov	r2, r5
    186e:	6ae1      	ldr	r1, [r4, #44]	; 0x2c
    1870:	9300      	str	r3, [sp, #0]
    1872:	4643      	mov	r3, r8
    1874:	6be0      	ldr	r0, [r4, #60]	; 0x3c
    1876:	47d8      	blx	fp
/mnt/disk/raspbian-tee/optee_os/lib/libutee/tee_api_operations.c:900
    1878:	b108      	cbz	r0, 187e <tee_buffer_update+0xc2>
/mnt/disk/raspbian-tee/optee_os/lib/libutee/tee_api_operations.c:901
    187a:	f006 f95d 	bl	7b38 <TEE_Panic>
/mnt/disk/raspbian-tee/optee_os/lib/libutee/tee_api_operations.c:902
    187e:	9b04      	ldr	r3, [sp, #16]
/mnt/disk/raspbian-tee/optee_os/lib/libutee/tee_api_operations.c:903
    1880:	9a02      	ldr	r2, [sp, #8]
/mnt/disk/raspbian-tee/optee_os/lib/libutee/tee_api_operations.c:902
    1882:	4498      	add	r8, r3
/mnt/disk/raspbian-tee/optee_os/lib/libutee/tee_api_operations.c:903
    1884:	1ad1      	subs	r1, r2, r3
/mnt/disk/raspbian-tee/optee_os/lib/libutee/tee_api_operations.c:905
    1886:	6ba2      	ldr	r2, [r4, #56]	; 0x38
    1888:	1b52      	subs	r2, r2, r5
    188a:	63a2      	str	r2, [r4, #56]	; 0x38
/mnt/disk/raspbian-tee/optee_os/lib/libutee/tee_api_operations.c:906
    188c:	2a00      	cmp	r2, #0
    188e:	d03f      	beq.n	1910 <tee_buffer_update+0x154>
/mnt/disk/raspbian-tee/optee_os/lib/libutee/tee_api_operations.c:910
    1890:	6ae0      	ldr	r0, [r4, #44]	; 0x2c
    1892:	1b72      	subs	r2, r6, r5
    1894:	9302      	str	r3, [sp, #8]
    1896:	1941      	adds	r1, r0, r5
    1898:	f006 f975 	bl	7b86 <memcpy>
/mnt/disk/raspbian-tee/optee_os/lib/libutee/tee_api_operations.c:911
    189c:	6ae5      	ldr	r5, [r4, #44]	; 0x2c
    189e:	6ba0      	ldr	r0, [r4, #56]	; 0x38
    18a0:	463a      	mov	r2, r7
    18a2:	4651      	mov	r1, sl
    18a4:	4428      	add	r0, r5
    18a6:	f006 f96e 	bl	7b86 <memcpy>
/mnt/disk/raspbian-tee/optee_os/lib/libutee/tee_api_operations.c:912
    18aa:	6ba2      	ldr	r2, [r4, #56]	; 0x38
/mnt/disk/raspbian-tee/optee_os/lib/libutee/tee_api_operations.c:904
    18ac:	9b02      	ldr	r3, [sp, #8]
/mnt/disk/raspbian-tee/optee_os/lib/libutee/tee_api_operations.c:912
    18ae:	4417      	add	r7, r2
    18b0:	63a7      	str	r7, [r4, #56]	; 0x38
/mnt/disk/raspbian-tee/optee_os/lib/libutee/tee_api_operations.c:904
    18b2:	461d      	mov	r5, r3
/mnt/disk/raspbian-tee/optee_os/lib/libutee/tee_api_operations.c:913
    18b4:	e793      	b.n	17de <tee_buffer_update+0x22>
/mnt/disk/raspbian-tee/optee_os/lib/libutee/tee_api_operations.c:874
    18b6:	462e      	mov	r6, r5
/mnt/disk/raspbian-tee/optee_os/lib/libutee/tee_api_operations.c:875
    18b8:	4699      	mov	r9, r3
    18ba:	e7a3      	b.n	1804 <tee_buffer_update+0x48>
/mnt/disk/raspbian-tee/optee_os/lib/libutee/tee_api_operations.c:858
    18bc:	2500      	movs	r5, #0
/mnt/disk/raspbian-tee/optee_os/lib/libutee/tee_api_operations.c:917
    18be:	44b1      	add	r9, r6
    18c0:	454f      	cmp	r7, r9
    18c2:	d31a      	bcc.n	18fa <tee_buffer_update+0x13e>
/mnt/disk/raspbian-tee/optee_os/lib/libutee/tee_api_operations.c:919
    18c4:	6822      	ldr	r2, [r4, #0]
    18c6:	4b14      	ldr	r3, [pc, #80]	; (1918 <tee_buffer_update+0x15c>)
    18c8:	429a      	cmp	r2, r3
    18ca:	6b62      	ldr	r2, [r4, #52]	; 0x34
    18cc:	d122      	bne.n	1914 <tee_buffer_update+0x158>
/mnt/disk/raspbian-tee/optee_os/lib/libutee/tee_api_operations.c:920
    18ce:	1e53      	subs	r3, r2, #1
    18d0:	1b9e      	subs	r6, r3, r6
/mnt/disk/raspbian-tee/optee_os/lib/libutee/tee_api_operations.c:922
    18d2:	4252      	negs	r2, r2
    18d4:	443e      	add	r6, r7
    18d6:	4016      	ands	r6, r2
/mnt/disk/raspbian-tee/optee_os/lib/libutee/tee_api_operations.c:924
    18d8:	2300      	movs	r3, #0
    18da:	9104      	str	r1, [sp, #16]
/mnt/disk/raspbian-tee/optee_os/lib/libutee/tee_api_operations.c:925
    18dc:	4632      	mov	r2, r6
/mnt/disk/raspbian-tee/optee_os/lib/libutee/tee_api_operations.c:924
    18de:	9305      	str	r3, [sp, #20]
/mnt/disk/raspbian-tee/optee_os/lib/libutee/tee_api_operations.c:925
    18e0:	4651      	mov	r1, sl
    18e2:	ab04      	add	r3, sp, #16
    18e4:	6be0      	ldr	r0, [r4, #60]	; 0x3c
    18e6:	9300      	str	r3, [sp, #0]
    18e8:	4643      	mov	r3, r8
    18ea:	47d8      	blx	fp
/mnt/disk/raspbian-tee/optee_os/lib/libutee/tee_api_operations.c:926
    18ec:	b108      	cbz	r0, 18f2 <tee_buffer_update+0x136>
/mnt/disk/raspbian-tee/optee_os/lib/libutee/tee_api_operations.c:927
    18ee:	f006 f923 	bl	7b38 <TEE_Panic>
/mnt/disk/raspbian-tee/optee_os/lib/libutee/tee_api_operations.c:932
    18f2:	9b04      	ldr	r3, [sp, #16]
/mnt/disk/raspbian-tee/optee_os/lib/libutee/tee_api_operations.c:928
    18f4:	44b2      	add	sl, r6
/mnt/disk/raspbian-tee/optee_os/lib/libutee/tee_api_operations.c:929
    18f6:	1bbf      	subs	r7, r7, r6
/mnt/disk/raspbian-tee/optee_os/lib/libutee/tee_api_operations.c:932
    18f8:	441d      	add	r5, r3
/mnt/disk/raspbian-tee/optee_os/lib/libutee/tee_api_operations.c:936
    18fa:	6ba3      	ldr	r3, [r4, #56]	; 0x38
    18fc:	463a      	mov	r2, r7
    18fe:	6ae0      	ldr	r0, [r4, #44]	; 0x2c
    1900:	4651      	mov	r1, sl
    1902:	4418      	add	r0, r3
    1904:	f006 f93f 	bl	7b86 <memcpy>
/mnt/disk/raspbian-tee/optee_os/lib/libutee/tee_api_operations.c:937
    1908:	6ba3      	ldr	r3, [r4, #56]	; 0x38
    190a:	441f      	add	r7, r3
    190c:	63a7      	str	r7, [r4, #56]	; 0x38
    190e:	e766      	b.n	17de <tee_buffer_update+0x22>
/mnt/disk/raspbian-tee/optee_os/lib/libutee/tee_api_operations.c:904
    1910:	461d      	mov	r5, r3
    1912:	e7d4      	b.n	18be <tee_buffer_update+0x102>
/mnt/disk/raspbian-tee/optee_os/lib/libutee/tee_api_operations.c:922
    1914:	1b96      	subs	r6, r2, r6
    1916:	e7dc      	b.n	18d2 <tee_buffer_update+0x116>
    1918:	10000310 	.word	0x10000310

0000191c <TEE_FreeOperation>:
TEE_FreeOperation():
/mnt/disk/raspbian-tee/optee_os/lib/libutee/tee_api_operations.c:351
    191c:	b510      	push	{r4, lr}
/mnt/disk/raspbian-tee/optee_os/lib/libutee/tee_api_operations.c:354
    191e:	4604      	mov	r4, r0
    1920:	b908      	cbnz	r0, 1926 <TEE_FreeOperation+0xa>
/mnt/disk/raspbian-tee/optee_os/lib/libutee/tee_api_operations.c:355
    1922:	f006 f909 	bl	7b38 <TEE_Panic>
/mnt/disk/raspbian-tee/optee_os/lib/libutee/tee_api_operations.c:362
    1926:	6be0      	ldr	r0, [r4, #60]	; 0x3c
    1928:	f001 ebf2 	blx	3110 <utee_cryp_state_free>
/mnt/disk/raspbian-tee/optee_os/lib/libutee/tee_api_operations.c:363
    192c:	b108      	cbz	r0, 1932 <TEE_FreeOperation+0x16>
/mnt/disk/raspbian-tee/optee_os/lib/libutee/tee_api_operations.c:364
    192e:	f006 f903 	bl	7b38 <TEE_Panic>
/mnt/disk/raspbian-tee/optee_os/lib/libutee/tee_api_operations.c:366
    1932:	6ae0      	ldr	r0, [r4, #44]	; 0x2c
    1934:	f7ff fb70 	bl	1018 <TEE_Free>
/mnt/disk/raspbian-tee/optee_os/lib/libutee/tee_api_operations.c:367
    1938:	4620      	mov	r0, r4
/mnt/disk/raspbian-tee/optee_os/lib/libutee/tee_api_operations.c:368
    193a:	e8bd 4010 	ldmia.w	sp!, {r4, lr}
/mnt/disk/raspbian-tee/optee_os/lib/libutee/tee_api_operations.c:367
    193e:	f7ff bb6b 	b.w	1018 <TEE_Free>

00001942 <TEE_AllocateOperation>:
TEE_AllocateOperation():
/mnt/disk/raspbian-tee/optee_os/lib/libutee/tee_api_operations.c:37
    1942:	e92d 4ff0 	stmdb	sp!, {r4, r5, r6, r7, r8, r9, sl, fp, lr}
    1946:	460c      	mov	r4, r1
    1948:	4617      	mov	r7, r2
    194a:	b087      	sub	sp, #28
    194c:	4699      	mov	r9, r3
/mnt/disk/raspbian-tee/optee_os/lib/libutee/tee_api_operations.c:46
    194e:	9003      	str	r0, [sp, #12]
    1950:	b908      	cbnz	r0, 1956 <TEE_AllocateOperation+0x14>
/mnt/disk/raspbian-tee/optee_os/lib/libutee/tee_api_operations.c:47
    1952:	f006 f8f1 	bl	7b38 <TEE_Panic>
/mnt/disk/raspbian-tee/optee_os/lib/libutee/tee_api_operations.c:49
    1956:	4bba      	ldr	r3, [pc, #744]	; (1c40 <TEE_AllocateOperation+0x2fe>)
    1958:	429c      	cmp	r4, r3
    195a:	f000 81b6 	beq.w	1cca <TEE_AllocateOperation+0x388>
/mnt/disk/raspbian-tee/optee_os/lib/libutee/tee_api_operations.c:53
    195e:	4bb9      	ldr	r3, [pc, #740]	; (1c44 <TEE_AllocateOperation+0x302>)
    1960:	429c      	cmp	r4, r3
    1962:	d06e      	beq.n	1a42 <TEE_AllocateOperation+0x100>
    1964:	d83f      	bhi.n	19e6 <TEE_AllocateOperation+0xa4>
    1966:	4ab8      	ldr	r2, [pc, #736]	; (1c48 <TEE_AllocateOperation+0x306>)
    1968:	4294      	cmp	r4, r2
    196a:	d055      	beq.n	1a18 <TEE_AllocateOperation+0xd6>
    196c:	d82d      	bhi.n	19ca <TEE_AllocateOperation+0x88>
    196e:	f5a2 5287 	sub.w	r2, r2, #4320	; 0x10e0
    1972:	3a10      	subs	r2, #16
    1974:	4294      	cmp	r4, r2
    1976:	d040      	beq.n	19fa <TEE_AllocateOperation+0xb8>
    1978:	f502 5280 	add.w	r2, r2, #4096	; 0x1000
    197c:	4294      	cmp	r4, r2
    197e:	d065      	beq.n	1a4c <TEE_AllocateOperation+0x10a>
/mnt/disk/raspbian-tee/optee_os/lib/libutee/tee_api_operations.c:108
    1980:	4ab2      	ldr	r2, [pc, #712]	; (1c4c <TEE_AllocateOperation+0x30a>)
    1982:	4294      	cmp	r4, r2
    1984:	d050      	beq.n	1a28 <TEE_AllocateOperation+0xe6>
    1986:	f200 80d8 	bhi.w	1b3a <TEE_AllocateOperation+0x1f8>
    198a:	4bb1      	ldr	r3, [pc, #708]	; (1c50 <TEE_AllocateOperation+0x30e>)
    198c:	429c      	cmp	r4, r3
    198e:	d07d      	beq.n	1a8c <TEE_AllocateOperation+0x14a>
    1990:	f200 808e 	bhi.w	1ab0 <TEE_AllocateOperation+0x16e>
    1994:	4baf      	ldr	r3, [pc, #700]	; (1c54 <TEE_AllocateOperation+0x312>)
    1996:	429c      	cmp	r4, r3
    1998:	f000 81a9 	beq.w	1cee <TEE_AllocateOperation+0x3ac>
    199c:	d86b      	bhi.n	1a76 <TEE_AllocateOperation+0x134>
    199e:	f46f 71ff 	mvn.w	r1, #510	; 0x1fe
    19a2:	440b      	add	r3, r1
    19a4:	429c      	cmp	r4, r3
    19a6:	d85b      	bhi.n	1a60 <TEE_AllocateOperation+0x11e>
    19a8:	3b01      	subs	r3, #1
    19aa:	429c      	cmp	r4, r3
    19ac:	d209      	bcs.n	19c2 <TEE_AllocateOperation+0x80>
    19ae:	f5a3 7380 	sub.w	r3, r3, #256	; 0x100
    19b2:	429c      	cmp	r4, r3
    19b4:	d324      	bcc.n	1a00 <TEE_AllocateOperation+0xbe>
    19b6:	3301      	adds	r3, #1
    19b8:	429c      	cmp	r4, r3
    19ba:	d902      	bls.n	19c2 <TEE_AllocateOperation+0x80>
    19bc:	3302      	adds	r3, #2
    19be:	429c      	cmp	r4, r3
    19c0:	d11e      	bne.n	1a00 <TEE_AllocateOperation+0xbe>
    19c2:	f04f 0800 	mov.w	r8, #0
/mnt/disk/raspbian-tee/optee_os/lib/libutee/tee_api_operations.c:44
    19c6:	4646      	mov	r6, r8
    19c8:	e182      	b.n	1cd0 <TEE_AllocateOperation+0x38e>
/mnt/disk/raspbian-tee/optee_os/lib/libutee/tee_api_operations.c:53
    19ca:	4aa3      	ldr	r2, [pc, #652]	; (1c58 <TEE_AllocateOperation+0x316>)
    19cc:	4294      	cmp	r4, r2
    19ce:	d034      	beq.n	1a3a <TEE_AllocateOperation+0xf8>
    19d0:	f502 6271 	add.w	r2, r2, #3856	; 0xf10
    19d4:	4294      	cmp	r4, r2
    19d6:	d03c      	beq.n	1a52 <TEE_AllocateOperation+0x110>
    19d8:	f5a2 5280 	sub.w	r2, r2, #4096	; 0x1000
    19dc:	4294      	cmp	r4, r2
    19de:	d1cf      	bne.n	1980 <TEE_AllocateOperation+0x3e>
/mnt/disk/raspbian-tee/optee_os/lib/libutee/tee_api_operations.c:87
    19e0:	f5b9 7f80 	cmp.w	r9, #256	; 0x100
    19e4:	e00b      	b.n	19fe <TEE_AllocateOperation+0xbc>
/mnt/disk/raspbian-tee/optee_os/lib/libutee/tee_api_operations.c:53
    19e6:	4a9d      	ldr	r2, [pc, #628]	; (1c5c <TEE_AllocateOperation+0x31a>)
    19e8:	4294      	cmp	r4, r2
    19ea:	d02f      	beq.n	1a4c <TEE_AllocateOperation+0x10a>
    19ec:	d80a      	bhi.n	1a04 <TEE_AllocateOperation+0xc2>
    19ee:	4a9c      	ldr	r2, [pc, #624]	; (1c60 <TEE_AllocateOperation+0x31e>)
    19f0:	4294      	cmp	r4, r2
    19f2:	d031      	beq.n	1a58 <TEE_AllocateOperation+0x116>
    19f4:	4a9b      	ldr	r2, [pc, #620]	; (1c64 <TEE_AllocateOperation+0x322>)
    19f6:	4294      	cmp	r4, r2
    19f8:	d1c2      	bne.n	1980 <TEE_AllocateOperation+0x3e>
/mnt/disk/raspbian-tee/optee_os/lib/libutee/tee_api_operations.c:75
    19fa:	f1b9 0fc0 	cmp.w	r9, #192	; 0xc0
/mnt/disk/raspbian-tee/optee_os/lib/libutee/tee_api_operations.c:99
    19fe:	d0bf      	beq.n	1980 <TEE_AllocateOperation+0x3e>
/mnt/disk/raspbian-tee/optee_os/lib/libutee/tee_api_operations.c:56
    1a00:	4e99      	ldr	r6, [pc, #612]	; (1c68 <TEE_AllocateOperation+0x326>)
    1a02:	e1ca      	b.n	1d9a <TEE_AllocateOperation+0x458>
/mnt/disk/raspbian-tee/optee_os/lib/libutee/tee_api_operations.c:53
    1a04:	4a99      	ldr	r2, [pc, #612]	; (1c6c <TEE_AllocateOperation+0x32a>)
    1a06:	4294      	cmp	r4, r2
    1a08:	d023      	beq.n	1a52 <TEE_AllocateOperation+0x110>
    1a0a:	f502 5280 	add.w	r2, r2, #4096	; 0x1000
    1a0e:	4294      	cmp	r4, r2
    1a10:	d022      	beq.n	1a58 <TEE_AllocateOperation+0x116>
    1a12:	f5a2 5200 	sub.w	r2, r2, #8192	; 0x2000
    1a16:	e7e1      	b.n	19dc <TEE_AllocateOperation+0x9a>
/mnt/disk/raspbian-tee/optee_os/lib/libutee/tee_api_operations.c:55
    1a18:	f5a9 7300 	sub.w	r3, r9, #512	; 0x200
    1a1c:	f5b3 7f00 	cmp.w	r3, #512	; 0x200
    1a20:	d8ee      	bhi.n	1a00 <TEE_AllocateOperation+0xbe>
/mnt/disk/raspbian-tee/optee_os/lib/libutee/tee_api_operations.c:59
    1a22:	f019 0f3f 	tst.w	r9, #63	; 0x3f
    1a26:	d1eb      	bne.n	1a00 <TEE_AllocateOperation+0xbe>
/mnt/disk/raspbian-tee/optee_os/lib/libutee/tee_api_operations.c:157
    1a28:	2f02      	cmp	r7, #2
    1a2a:	f000 81bd 	beq.w	1da8 <TEE_AllocateOperation+0x466>
/mnt/disk/raspbian-tee/optee_os/lib/libutee/tee_api_operations.c:160
    1a2e:	2f03      	cmp	r7, #3
    1a30:	d1e6      	bne.n	1a00 <TEE_AllocateOperation+0xbe>
/mnt/disk/raspbian-tee/optee_os/lib/libutee/tee_api_operations.c:44
    1a32:	2600      	movs	r6, #0
/mnt/disk/raspbian-tee/optee_os/lib/libutee/tee_api_operations.c:161
    1a34:	2220      	movs	r2, #32
/mnt/disk/raspbian-tee/optee_os/lib/libutee/tee_api_operations.c:43
    1a36:	46b2      	mov	sl, r6
    1a38:	e02d      	b.n	1a96 <TEE_AllocateOperation+0x154>
/mnt/disk/raspbian-tee/optee_os/lib/libutee/tee_api_operations.c:64
    1a3a:	f5b9 6f00 	cmp.w	r9, #2048	; 0x800
/mnt/disk/raspbian-tee/optee_os/lib/libutee/tee_api_operations.c:108
    1a3e:	d1df      	bne.n	1a00 <TEE_AllocateOperation+0xbe>
    1a40:	e7f2      	b.n	1a28 <TEE_AllocateOperation+0xe6>
/mnt/disk/raspbian-tee/optee_os/lib/libutee/tee_api_operations.c:69
    1a42:	f429 6380 	bic.w	r3, r9, #1024	; 0x400
    1a46:	f5b3 6f00 	cmp.w	r3, #2048	; 0x800
    1a4a:	e7f8      	b.n	1a3e <TEE_AllocateOperation+0xfc>
/mnt/disk/raspbian-tee/optee_os/lib/libutee/tee_api_operations.c:81
    1a4c:	f1b9 0fe0 	cmp.w	r9, #224	; 0xe0
    1a50:	e7d5      	b.n	19fe <TEE_AllocateOperation+0xbc>
/mnt/disk/raspbian-tee/optee_os/lib/libutee/tee_api_operations.c:93
    1a52:	f5b9 7fc0 	cmp.w	r9, #384	; 0x180
    1a56:	e7d2      	b.n	19fe <TEE_AllocateOperation+0xbc>
/mnt/disk/raspbian-tee/optee_os/lib/libutee/tee_api_operations.c:99
    1a58:	f240 2209 	movw	r2, #521	; 0x209
    1a5c:	4591      	cmp	r9, r2
    1a5e:	e7ce      	b.n	19fe <TEE_AllocateOperation+0xbc>
/mnt/disk/raspbian-tee/optee_os/lib/libutee/tee_api_operations.c:108
    1a60:	4b83      	ldr	r3, [pc, #524]	; (1c70 <TEE_AllocateOperation+0x32e>)
    1a62:	429c      	cmp	r4, r3
    1a64:	d0ad      	beq.n	19c2 <TEE_AllocateOperation+0x80>
    1a66:	33fd      	adds	r3, #253	; 0xfd
    1a68:	429c      	cmp	r4, r3
    1a6a:	d1c9      	bne.n	1a00 <TEE_AllocateOperation+0xbe>
    1a6c:	f04f 0800 	mov.w	r8, #0
/mnt/disk/raspbian-tee/optee_os/lib/libutee/tee_api_operations.c:41
    1a70:	2301      	movs	r3, #1
/mnt/disk/raspbian-tee/optee_os/lib/libutee/tee_api_operations.c:44
    1a72:	4646      	mov	r6, r8
    1a74:	e132      	b.n	1cdc <TEE_AllocateOperation+0x39a>
/mnt/disk/raspbian-tee/optee_os/lib/libutee/tee_api_operations.c:108
    1a76:	4b7f      	ldr	r3, [pc, #508]	; (1c74 <TEE_AllocateOperation+0x332>)
    1a78:	429c      	cmp	r4, r3
    1a7a:	d80f      	bhi.n	1a9c <TEE_AllocateOperation+0x15a>
    1a7c:	3b01      	subs	r3, #1
    1a7e:	429c      	cmp	r4, r3
    1a80:	d204      	bcs.n	1a8c <TEE_AllocateOperation+0x14a>
    1a82:	f104 4350 	add.w	r3, r4, #3489660928	; 0xd0000000
    1a86:	3b01      	subs	r3, #1
    1a88:	2b05      	cmp	r3, #5
    1a8a:	d8b9      	bhi.n	1a00 <TEE_AllocateOperation+0xbe>
/mnt/disk/raspbian-tee/optee_os/lib/libutee/tee_api_operations.c:244
    1a8c:	2f04      	cmp	r7, #4
    1a8e:	d1b7      	bne.n	1a00 <TEE_AllocateOperation+0xbe>
/mnt/disk/raspbian-tee/optee_os/lib/libutee/tee_api_operations.c:44
    1a90:	2600      	movs	r6, #0
/mnt/disk/raspbian-tee/optee_os/lib/libutee/tee_api_operations.c:246
    1a92:	2208      	movs	r2, #8
/mnt/disk/raspbian-tee/optee_os/lib/libutee/tee_api_operations.c:43
    1a94:	46b2      	mov	sl, r6
/mnt/disk/raspbian-tee/optee_os/lib/libutee/tee_api_operations.c:41
    1a96:	2301      	movs	r3, #1
    1a98:	46b0      	mov	r8, r6
    1a9a:	e13e      	b.n	1d1a <TEE_AllocateOperation+0x3d8>
/mnt/disk/raspbian-tee/optee_os/lib/libutee/tee_api_operations.c:108
    1a9c:	4b76      	ldr	r3, [pc, #472]	; (1c78 <TEE_AllocateOperation+0x336>)
    1a9e:	429c      	cmp	r4, r3
    1aa0:	d0f4      	beq.n	1a8c <TEE_AllocateOperation+0x14a>
    1aa2:	d3ad      	bcc.n	1a00 <TEE_AllocateOperation+0xbe>
    1aa4:	f104 4350 	add.w	r3, r4, #3489660928	; 0xd0000000
    1aa8:	f5a3 63a2 	sub.w	r3, r3, #1296	; 0x510
    1aac:	2b01      	cmp	r3, #1
    1aae:	e7ec      	b.n	1a8a <TEE_AllocateOperation+0x148>
    1ab0:	4b72      	ldr	r3, [pc, #456]	; (1c7c <TEE_AllocateOperation+0x33a>)
    1ab2:	429c      	cmp	r4, r3
    1ab4:	d01b      	beq.n	1aee <TEE_AllocateOperation+0x1ac>
    1ab6:	d823      	bhi.n	1b00 <TEE_AllocateOperation+0x1be>
    1ab8:	4b71      	ldr	r3, [pc, #452]	; (1c80 <TEE_AllocateOperation+0x33e>)
    1aba:	429c      	cmp	r4, r3
    1abc:	d80f      	bhi.n	1ade <TEE_AllocateOperation+0x19c>
    1abe:	f1b4 4fa0 	cmp.w	r4, #1342177280	; 0x50000000
    1ac2:	f200 8121 	bhi.w	1d08 <TEE_AllocateOperation+0x3c6>
    1ac6:	4b6f      	ldr	r3, [pc, #444]	; (1c84 <TEE_AllocateOperation+0x342>)
    1ac8:	429c      	cmp	r4, r3
    1aca:	f43f af7a 	beq.w	19c2 <TEE_AllocateOperation+0x80>
    1ace:	f503 7380 	add.w	r3, r3, #256	; 0x100
    1ad2:	429c      	cmp	r4, r3
    1ad4:	d0ca      	beq.n	1a6c <TEE_AllocateOperation+0x12a>
    1ad6:	4b6c      	ldr	r3, [pc, #432]	; (1c88 <TEE_AllocateOperation+0x346>)
    1ad8:	429c      	cmp	r4, r3
    1ada:	d191      	bne.n	1a00 <TEE_AllocateOperation+0xbe>
    1adc:	e7d6      	b.n	1a8c <TEE_AllocateOperation+0x14a>
    1ade:	4b6b      	ldr	r3, [pc, #428]	; (1c8c <TEE_AllocateOperation+0x34a>)
    1ae0:	429c      	cmp	r4, r3
    1ae2:	f000 8107 	beq.w	1cf4 <TEE_AllocateOperation+0x3b2>
    1ae6:	f503 7380 	add.w	r3, r3, #256	; 0x100
    1aea:	429c      	cmp	r4, r3
    1aec:	d188      	bne.n	1a00 <TEE_AllocateOperation+0xbe>
/mnt/disk/raspbian-tee/optee_os/lib/libutee/tee_api_operations.c:173
    1aee:	2f00      	cmp	r7, #0
    1af0:	f000 815f 	beq.w	1db2 <TEE_AllocateOperation+0x470>
/mnt/disk/raspbian-tee/optee_os/lib/libutee/tee_api_operations.c:175
    1af4:	2f01      	cmp	r7, #1
    1af6:	d183      	bne.n	1a00 <TEE_AllocateOperation+0xbe>
/mnt/disk/raspbian-tee/optee_os/lib/libutee/tee_api_operations.c:44
    1af8:	2600      	movs	r6, #0
/mnt/disk/raspbian-tee/optee_os/lib/libutee/tee_api_operations.c:176
    1afa:	46ba      	mov	sl, r7
/mnt/disk/raspbian-tee/optee_os/lib/libutee/tee_api_operations.c:177
    1afc:	2204      	movs	r2, #4
    1afe:	e7ca      	b.n	1a96 <TEE_AllocateOperation+0x154>
/mnt/disk/raspbian-tee/optee_os/lib/libutee/tee_api_operations.c:108
    1b00:	4b63      	ldr	r3, [pc, #396]	; (1c90 <TEE_AllocateOperation+0x34e>)
    1b02:	429c      	cmp	r4, r3
    1b04:	d0f3      	beq.n	1aee <TEE_AllocateOperation+0x1ac>
    1b06:	d80a      	bhi.n	1b1e <TEE_AllocateOperation+0x1dc>
    1b08:	f5a3 1300 	sub.w	r3, r3, #2097152	; 0x200000
    1b0c:	429c      	cmp	r4, r3
    1b0e:	d0ee      	beq.n	1aee <TEE_AllocateOperation+0x1ac>
    1b10:	f503 1380 	add.w	r3, r3, #1048576	; 0x100000
    1b14:	429c      	cmp	r4, r3
    1b16:	d0ea      	beq.n	1aee <TEE_AllocateOperation+0x1ac>
    1b18:	f5a3 1300 	sub.w	r3, r3, #2097152	; 0x200000
    1b1c:	e7e5      	b.n	1aea <TEE_AllocateOperation+0x1a8>
    1b1e:	4b5d      	ldr	r3, [pc, #372]	; (1c94 <TEE_AllocateOperation+0x352>)
    1b20:	429c      	cmp	r4, r3
    1b22:	d081      	beq.n	1a28 <TEE_AllocateOperation+0xe6>
    1b24:	d802      	bhi.n	1b2c <TEE_AllocateOperation+0x1ea>
    1b26:	f2a3 73ef 	subw	r3, r3, #2031	; 0x7ef
    1b2a:	e004      	b.n	1b36 <TEE_AllocateOperation+0x1f4>
    1b2c:	4b5a      	ldr	r3, [pc, #360]	; (1c98 <TEE_AllocateOperation+0x356>)
    1b2e:	429c      	cmp	r4, r3
    1b30:	f43f af7a 	beq.w	1a28 <TEE_AllocateOperation+0xe6>
    1b34:	33f0      	adds	r3, #240	; 0xf0
    1b36:	429c      	cmp	r4, r3
    1b38:	e781      	b.n	1a3e <TEE_AllocateOperation+0xfc>
    1b3a:	4a4a      	ldr	r2, [pc, #296]	; (1c64 <TEE_AllocateOperation+0x322>)
    1b3c:	4294      	cmp	r4, r2
    1b3e:	d064      	beq.n	1c0a <TEE_AllocateOperation+0x2c8>
    1b40:	d843      	bhi.n	1bca <TEE_AllocateOperation+0x288>
    1b42:	4a56      	ldr	r2, [pc, #344]	; (1c9c <TEE_AllocateOperation+0x35a>)
    1b44:	4294      	cmp	r4, r2
    1b46:	f43f af6f 	beq.w	1a28 <TEE_AllocateOperation+0xe6>
    1b4a:	d818      	bhi.n	1b7e <TEE_AllocateOperation+0x23c>
    1b4c:	f5a2 52bf 	sub.w	r2, r2, #6112	; 0x17e0
    1b50:	3a0f      	subs	r2, #15
    1b52:	4294      	cmp	r4, r2
    1b54:	f43f af68 	beq.w	1a28 <TEE_AllocateOperation+0xe6>
    1b58:	d808      	bhi.n	1b6c <TEE_AllocateOperation+0x22a>
    1b5a:	4b3f      	ldr	r3, [pc, #252]	; (1c58 <TEE_AllocateOperation+0x316>)
    1b5c:	429c      	cmp	r4, r3
    1b5e:	f43f af63 	beq.w	1a28 <TEE_AllocateOperation+0xe6>
    1b62:	f203 63ff 	addw	r3, r3, #1791	; 0x6ff
    1b66:	429c      	cmp	r4, r3
    1b68:	d1dd      	bne.n	1b26 <TEE_AllocateOperation+0x1e4>
    1b6a:	e75d      	b.n	1a28 <TEE_AllocateOperation+0xe6>
    1b6c:	4a4c      	ldr	r2, [pc, #304]	; (1ca0 <TEE_AllocateOperation+0x35e>)
    1b6e:	4294      	cmp	r4, r2
    1b70:	f43f af5a 	beq.w	1a28 <TEE_AllocateOperation+0xe6>
    1b74:	f602 0211 	addw	r2, r2, #2065	; 0x811
    1b78:	4294      	cmp	r4, r2
    1b7a:	d1dc      	bne.n	1b36 <TEE_AllocateOperation+0x1f4>
    1b7c:	e754      	b.n	1a28 <TEE_AllocateOperation+0xe6>
    1b7e:	4b49      	ldr	r3, [pc, #292]	; (1ca4 <TEE_AllocateOperation+0x362>)
    1b80:	429c      	cmp	r4, r3
    1b82:	f43f af51 	beq.w	1a28 <TEE_AllocateOperation+0xe6>
    1b86:	d812      	bhi.n	1bae <TEE_AllocateOperation+0x26c>
    1b88:	f5a3 1300 	sub.w	r3, r3, #2097152	; 0x200000
    1b8c:	f5a3 5300 	sub.w	r3, r3, #8192	; 0x2000
    1b90:	429c      	cmp	r4, r3
    1b92:	f43f af49 	beq.w	1a28 <TEE_AllocateOperation+0xe6>
    1b96:	f503 1380 	add.w	r3, r3, #1048576	; 0x100000
    1b9a:	f503 5380 	add.w	r3, r3, #4096	; 0x1000
    1b9e:	429c      	cmp	r4, r3
    1ba0:	f43f af42 	beq.w	1a28 <TEE_AllocateOperation+0xe6>
    1ba4:	f5a3 1343 	sub.w	r3, r3, #3194880	; 0x30c000
    1ba8:	f5a3 5388 	sub.w	r3, r3, #4352	; 0x1100
    1bac:	e7c3      	b.n	1b36 <TEE_AllocateOperation+0x1f4>
    1bae:	4b3e      	ldr	r3, [pc, #248]	; (1ca8 <TEE_AllocateOperation+0x366>)
    1bb0:	429c      	cmp	r4, r3
    1bb2:	f43f af39 	beq.w	1a28 <TEE_AllocateOperation+0xe6>
    1bb6:	4b3d      	ldr	r3, [pc, #244]	; (1cac <TEE_AllocateOperation+0x36a>)
    1bb8:	429c      	cmp	r4, r3
    1bba:	d026      	beq.n	1c0a <TEE_AllocateOperation+0x2c8>
    1bbc:	f1a3 637a 	sub.w	r3, r3, #262144000	; 0xfa00000
    1bc0:	f5a3 236a 	sub.w	r3, r3, #958464	; 0xea000
    1bc4:	f2a3 7302 	subw	r3, r3, #1794	; 0x702
    1bc8:	e7b5      	b.n	1b36 <TEE_AllocateOperation+0x1f4>
    1bca:	4b28      	ldr	r3, [pc, #160]	; (1c6c <TEE_AllocateOperation+0x32a>)
    1bcc:	429c      	cmp	r4, r3
    1bce:	d01c      	beq.n	1c0a <TEE_AllocateOperation+0x2c8>
    1bd0:	d824      	bhi.n	1c1c <TEE_AllocateOperation+0x2da>
    1bd2:	f5a3 53fc 	sub.w	r3, r3, #8064	; 0x1f80
    1bd6:	429c      	cmp	r4, r3
    1bd8:	d80b      	bhi.n	1bf2 <TEE_AllocateOperation+0x2b0>
    1bda:	3b02      	subs	r3, #2
    1bdc:	429c      	cmp	r4, r3
    1bde:	d214      	bcs.n	1c0a <TEE_AllocateOperation+0x2c8>
    1be0:	f5a3 5380 	sub.w	r3, r3, #4096	; 0x1000
    1be4:	429c      	cmp	r4, r3
    1be6:	d010      	beq.n	1c0a <TEE_AllocateOperation+0x2c8>
    1be8:	f603 7382 	addw	r3, r3, #3970	; 0xf82
    1bec:	429c      	cmp	r4, r3
    1bee:	d00c      	beq.n	1c0a <TEE_AllocateOperation+0x2c8>
    1bf0:	e706      	b.n	1a00 <TEE_AllocateOperation+0xbe>
    1bf2:	4b2f      	ldr	r3, [pc, #188]	; (1cb0 <TEE_AllocateOperation+0x36e>)
    1bf4:	429c      	cmp	r4, r3
    1bf6:	d008      	beq.n	1c0a <TEE_AllocateOperation+0x2c8>
    1bf8:	f4ff af02 	bcc.w	1a00 <TEE_AllocateOperation+0xbe>
    1bfc:	f104 4300 	add.w	r3, r4, #2147483648	; 0x80000000
    1c00:	f5a3 5343 	sub.w	r3, r3, #12480	; 0x30c0
    1c04:	2b01      	cmp	r3, #1
    1c06:	f63f aefb 	bhi.w	1a00 <TEE_AllocateOperation+0xbe>
/mnt/disk/raspbian-tee/optee_os/lib/libutee/tee_api_operations.c:212
    1c0a:	2f06      	cmp	r7, #6
    1c0c:	f47f aef8 	bne.w	1a00 <TEE_AllocateOperation+0xbe>
/mnt/disk/raspbian-tee/optee_os/lib/libutee/tee_api_operations.c:44
    1c10:	2600      	movs	r6, #0
/mnt/disk/raspbian-tee/optee_os/lib/libutee/tee_api_operations.c:214
    1c12:	f04f 0a01 	mov.w	sl, #1
/mnt/disk/raspbian-tee/optee_os/lib/libutee/tee_api_operations.c:215
    1c16:	2240      	movs	r2, #64	; 0x40
/mnt/disk/raspbian-tee/optee_os/lib/libutee/tee_api_operations.c:41
    1c18:	4653      	mov	r3, sl
    1c1a:	e73d      	b.n	1a98 <TEE_AllocateOperation+0x156>
/mnt/disk/raspbian-tee/optee_os/lib/libutee/tee_api_operations.c:108
    1c1c:	4b25      	ldr	r3, [pc, #148]	; (1cb4 <TEE_AllocateOperation+0x372>)
    1c1e:	429c      	cmp	r4, r3
    1c20:	d84a      	bhi.n	1cb8 <TEE_AllocateOperation+0x376>
    1c22:	3b01      	subs	r3, #1
    1c24:	429c      	cmp	r4, r3
    1c26:	d2f0      	bcs.n	1c0a <TEE_AllocateOperation+0x2c8>
    1c28:	f5a3 5380 	sub.w	r3, r3, #4096	; 0x1000
    1c2c:	429c      	cmp	r4, r3
    1c2e:	f4ff aee7 	bcc.w	1a00 <TEE_AllocateOperation+0xbe>
    1c32:	3301      	adds	r3, #1
    1c34:	429c      	cmp	r4, r3
    1c36:	d9e8      	bls.n	1c0a <TEE_AllocateOperation+0x2c8>
    1c38:	f603 7381 	addw	r3, r3, #3969	; 0xf81
    1c3c:	e7d6      	b.n	1bec <TEE_AllocateOperation+0x2aa>
    1c3e:	bf00      	nop
    1c40:	10000410 	.word	0x10000410
    1c44:	70004131 	.word	0x70004131
    1c48:	70002131 	.word	0x70002131
    1c4c:	70002830 	.word	0x70002830
    1c50:	30000513 	.word	0x30000513
    1c54:	10000310 	.word	0x10000310
    1c58:	70003131 	.word	0x70003131
    1c5c:	80002042 	.word	0x80002042
    1c60:	70005041 	.word	0x70005041
    1c64:	80001042 	.word	0x80001042
    1c68:	ffff000a 	.word	0xffff000a
    1c6c:	80004042 	.word	0x80004042
    1c70:	10000113 	.word	0x10000113
    1c74:	30000111 	.word	0x30000111
    1c78:	30000113 	.word	0x30000113
    1c7c:	60210230 	.word	0x60210230
    1c80:	50000006 	.word	0x50000006
    1c84:	40000710 	.word	0x40000710
    1c88:	30000610 	.word	0x30000610
    1c8c:	60000030 	.word	0x60000030
    1c90:	60610230 	.word	0x60610230
    1c94:	70001830 	.word	0x70001830
    1c98:	70002041 	.word	0x70002041
    1c9c:	70005830 	.word	0x70005830
    1ca0:	70004830 	.word	0x70004830
    1ca4:	70414930 	.word	0x70414930
    1ca8:	70616930 	.word	0x70616930
    1cac:	80000032 	.word	0x80000032
    1cb0:	80003042 	.word	0x80003042
    1cb4:	800050c1 	.word	0x800050c1
    1cb8:	4b6f      	ldr	r3, [pc, #444]	; (1e78 <TEE_AllocateOperation+0x536>)
    1cba:	429c      	cmp	r4, r3
    1cbc:	f4ff aea0 	bcc.w	1a00 <TEE_AllocateOperation+0xbe>
    1cc0:	3301      	adds	r3, #1
    1cc2:	429c      	cmp	r4, r3
    1cc4:	d9a1      	bls.n	1c0a <TEE_AllocateOperation+0x2c8>
    1cc6:	4b6d      	ldr	r3, [pc, #436]	; (1e7c <TEE_AllocateOperation+0x53a>)
    1cc8:	e735      	b.n	1b36 <TEE_AllocateOperation+0x1f4>
/mnt/disk/raspbian-tee/optee_os/lib/libutee/tee_api_operations.c:50
    1cca:	f44f 2800 	mov.w	r8, #524288	; 0x80000
/mnt/disk/raspbian-tee/optee_os/lib/libutee/tee_api_operations.c:111
    1cce:	2601      	movs	r6, #1
/mnt/disk/raspbian-tee/optee_os/lib/libutee/tee_api_operations.c:120
    1cd0:	b2e3      	uxtb	r3, r4
/mnt/disk/raspbian-tee/optee_os/lib/libutee/tee_api_operations.c:123
    1cd2:	2b10      	cmp	r3, #16
    1cd4:	f04f 0310 	mov.w	r3, #16
    1cd8:	bf18      	it	ne
    1cda:	2308      	movne	r3, #8
/mnt/disk/raspbian-tee/optee_os/lib/libutee/tee_api_operations.c:127
    1cdc:	2f00      	cmp	r7, #0
    1cde:	d060      	beq.n	1da2 <TEE_AllocateOperation+0x460>
/mnt/disk/raspbian-tee/optee_os/lib/libutee/tee_api_operations.c:129
    1ce0:	2f01      	cmp	r7, #1
    1ce2:	f47f ae8d 	bne.w	1a00 <TEE_AllocateOperation+0xbe>
/mnt/disk/raspbian-tee/optee_os/lib/libutee/tee_api_operations.c:43
    1ce6:	f04f 0a00 	mov.w	sl, #0
/mnt/disk/raspbian-tee/optee_os/lib/libutee/tee_api_operations.c:130
    1cea:	2204      	movs	r2, #4
    1cec:	e015      	b.n	1d1a <TEE_AllocateOperation+0x3d8>
/mnt/disk/raspbian-tee/optee_os/lib/libutee/tee_api_operations.c:108
    1cee:	f04f 0800 	mov.w	r8, #0
    1cf2:	e7ec      	b.n	1cce <TEE_AllocateOperation+0x38c>
/mnt/disk/raspbian-tee/optee_os/lib/libutee/tee_api_operations.c:184
    1cf4:	2f00      	cmp	r7, #0
    1cf6:	d062      	beq.n	1dbe <TEE_AllocateOperation+0x47c>
/mnt/disk/raspbian-tee/optee_os/lib/libutee/tee_api_operations.c:186
    1cf8:	2f01      	cmp	r7, #1
    1cfa:	f47f ae81 	bne.w	1a00 <TEE_AllocateOperation+0xbe>
/mnt/disk/raspbian-tee/optee_os/lib/libutee/tee_api_operations.c:44
    1cfe:	2600      	movs	r6, #0
/mnt/disk/raspbian-tee/optee_os/lib/libutee/tee_api_operations.c:187
    1d00:	f04f 0a01 	mov.w	sl, #1
/mnt/disk/raspbian-tee/optee_os/lib/libutee/tee_api_operations.c:188
    1d04:	2214      	movs	r2, #20
    1d06:	e787      	b.n	1c18 <TEE_AllocateOperation+0x2d6>
/mnt/disk/raspbian-tee/optee_os/lib/libutee/tee_api_operations.c:224
    1d08:	2f05      	cmp	r7, #5
    1d0a:	f47f ae79 	bne.w	1a00 <TEE_AllocateOperation+0xbe>
/mnt/disk/raspbian-tee/optee_os/lib/libutee/tee_api_operations.c:44
    1d0e:	2600      	movs	r6, #0
/mnt/disk/raspbian-tee/optee_os/lib/libutee/tee_api_operations.c:41
    1d10:	2301      	movs	r3, #1
/mnt/disk/raspbian-tee/optee_os/lib/libutee/tee_api_operations.c:43
    1d12:	46b2      	mov	sl, r6
/mnt/disk/raspbian-tee/optee_os/lib/libutee/tee_api_operations.c:228
    1d14:	4632      	mov	r2, r6
/mnt/disk/raspbian-tee/optee_os/lib/libutee/tee_api_operations.c:227
    1d16:	f44f 2880 	mov.w	r8, #262144	; 0x40000
/mnt/disk/raspbian-tee/optee_os/lib/libutee/tee_api_operations.c:253
    1d1a:	2100      	movs	r1, #0
    1d1c:	2044      	movs	r0, #68	; 0x44
    1d1e:	9205      	str	r2, [sp, #20]
    1d20:	9304      	str	r3, [sp, #16]
    1d22:	f7ff f952 	bl	fca <TEE_Malloc>
/mnt/disk/raspbian-tee/optee_os/lib/libutee/tee_api_operations.c:254
    1d26:	4605      	mov	r5, r0
    1d28:	2800      	cmp	r0, #0
    1d2a:	f000 80a0 	beq.w	1e6e <TEE_AllocateOperation+0x52c>
/mnt/disk/raspbian-tee/optee_os/lib/libutee/tee_api_operations.c:260
    1d2e:	4953      	ldr	r1, [pc, #332]	; (1e7c <TEE_AllocateOperation+0x53a>)
/mnt/disk/raspbian-tee/optee_os/lib/libutee/tee_api_operations.c:258
    1d30:	ea4f 7b14 	mov.w	fp, r4, lsr #28
/mnt/disk/raspbian-tee/optee_os/lib/libutee/tee_api_operations.c:257
    1d34:	6004      	str	r4, [r0, #0]
/mnt/disk/raspbian-tee/optee_os/lib/libutee/tee_api_operations.c:260
    1d36:	428c      	cmp	r4, r1
    1d38:	9b04      	ldr	r3, [sp, #16]
    1d3a:	9a05      	ldr	r2, [sp, #20]
    1d3c:	d044      	beq.n	1dc8 <TEE_AllocateOperation+0x486>
/mnt/disk/raspbian-tee/optee_os/lib/libutee/tee_api_operations.c:258
    1d3e:	f8c0 b004 	str.w	fp, [r0, #4]
/mnt/disk/raspbian-tee/optee_os/lib/libutee/tee_api_operations.c:263
    1d42:	60af      	str	r7, [r5, #8]
/mnt/disk/raspbian-tee/optee_os/lib/libutee/tee_api_operations.c:268
    1d44:	2b01      	cmp	r3, #1
/mnt/disk/raspbian-tee/optee_os/lib/libutee/tee_api_operations.c:264
    1d46:	f8c5 9010 	str.w	r9, [r5, #16]
/mnt/disk/raspbian-tee/optee_os/lib/libutee/tee_api_operations.c:265
    1d4a:	61aa      	str	r2, [r5, #24]
/mnt/disk/raspbian-tee/optee_os/lib/libutee/tee_api_operations.c:266
    1d4c:	f8c5 801c 	str.w	r8, [r5, #28]
/mnt/disk/raspbian-tee/optee_os/lib/libutee/tee_api_operations.c:268
    1d50:	d13d      	bne.n	1dce <TEE_AllocateOperation+0x48c>
/mnt/disk/raspbian-tee/optee_os/lib/libutee/tee_api_operations.c:281
    1d52:	636b      	str	r3, [r5, #52]	; 0x34
/mnt/disk/raspbian-tee/optee_os/lib/libutee/tee_api_operations.c:284
    1d54:	f1bb 0f05 	cmp.w	fp, #5
/mnt/disk/raspbian-tee/optee_os/lib/libutee/tee_api_operations.c:282
    1d58:	f885 6030 	strb.w	r6, [r5, #48]	; 0x30
/mnt/disk/raspbian-tee/optee_os/lib/libutee/tee_api_operations.c:284
    1d5c:	d146      	bne.n	1dec <TEE_AllocateOperation+0x4aa>
/mnt/disk/raspbian-tee/optee_os/lib/libutee/tee_api_operations.c:308
    1d5e:	f105 033c 	add.w	r3, r5, #60	; 0x3c
    1d62:	9300      	str	r3, [sp, #0]
    1d64:	4639      	mov	r1, r7
    1d66:	4620      	mov	r0, r4
    1d68:	6a2a      	ldr	r2, [r5, #32]
    1d6a:	6a6b      	ldr	r3, [r5, #36]	; 0x24
    1d6c:	f001 e9ba 	blx	30e4 <utee_cryp_state_alloc>
/mnt/disk/raspbian-tee/optee_os/lib/libutee/tee_api_operations.c:310
    1d70:	4602      	mov	r2, r0
    1d72:	2800      	cmp	r0, #0
    1d74:	d17d      	bne.n	1e72 <TEE_AllocateOperation+0x530>
/mnt/disk/raspbian-tee/optee_os/lib/libutee/tee_api_operations.c:318
    1d76:	f1bb 0f05 	cmp.w	fp, #5
    1d7a:	d10a      	bne.n	1d92 <TEE_AllocateOperation+0x450>
/mnt/disk/raspbian-tee/optee_os/lib/libutee/tee_api_operations.c:319
    1d7c:	4601      	mov	r1, r0
    1d7e:	6be8      	ldr	r0, [r5, #60]	; 0x3c
    1d80:	f001 e9d0 	blx	3124 <utee_hash_init>
/mnt/disk/raspbian-tee/optee_os/lib/libutee/tee_api_operations.c:320
    1d84:	4606      	mov	r6, r0
    1d86:	2800      	cmp	r0, #0
    1d88:	d155      	bne.n	1e36 <TEE_AllocateOperation+0x4f4>
/mnt/disk/raspbian-tee/optee_os/lib/libutee/tee_api_operations.c:323
    1d8a:	69eb      	ldr	r3, [r5, #28]
    1d8c:	f443 3300 	orr.w	r3, r3, #131072	; 0x20000
    1d90:	61eb      	str	r3, [r5, #28]
/mnt/disk/raspbian-tee/optee_os/lib/libutee/tee_api_operations.c:328
    1d92:	9b03      	ldr	r3, [sp, #12]
/mnt/disk/raspbian-tee/optee_os/lib/libutee/tee_api_operations.c:326
    1d94:	2600      	movs	r6, #0
    1d96:	62ae      	str	r6, [r5, #40]	; 0x28
/mnt/disk/raspbian-tee/optee_os/lib/libutee/tee_api_operations.c:328
    1d98:	601d      	str	r5, [r3, #0]
/mnt/disk/raspbian-tee/optee_os/lib/libutee/tee_api_operations.c:348
    1d9a:	4630      	mov	r0, r6
    1d9c:	b007      	add	sp, #28
    1d9e:	e8bd 8ff0 	ldmia.w	sp!, {r4, r5, r6, r7, r8, r9, sl, fp, pc}
/mnt/disk/raspbian-tee/optee_os/lib/libutee/tee_api_operations.c:43
    1da2:	46ba      	mov	sl, r7
/mnt/disk/raspbian-tee/optee_os/lib/libutee/tee_api_operations.c:128
    1da4:	2202      	movs	r2, #2
    1da6:	e7b8      	b.n	1d1a <TEE_AllocateOperation+0x3d8>
/mnt/disk/raspbian-tee/optee_os/lib/libutee/tee_api_operations.c:44
    1da8:	2600      	movs	r6, #0
/mnt/disk/raspbian-tee/optee_os/lib/libutee/tee_api_operations.c:158
    1daa:	f04f 0a01 	mov.w	sl, #1
/mnt/disk/raspbian-tee/optee_os/lib/libutee/tee_api_operations.c:159
    1dae:	2210      	movs	r2, #16
    1db0:	e732      	b.n	1c18 <TEE_AllocateOperation+0x2d6>
    1db2:	46b8      	mov	r8, r7
/mnt/disk/raspbian-tee/optee_os/lib/libutee/tee_api_operations.c:44
    1db4:	463e      	mov	r6, r7
/mnt/disk/raspbian-tee/optee_os/lib/libutee/tee_api_operations.c:43
    1db6:	46ba      	mov	sl, r7
/mnt/disk/raspbian-tee/optee_os/lib/libutee/tee_api_operations.c:174
    1db8:	2202      	movs	r2, #2
/mnt/disk/raspbian-tee/optee_os/lib/libutee/tee_api_operations.c:41
    1dba:	2301      	movs	r3, #1
    1dbc:	e7ad      	b.n	1d1a <TEE_AllocateOperation+0x3d8>
    1dbe:	46b8      	mov	r8, r7
/mnt/disk/raspbian-tee/optee_os/lib/libutee/tee_api_operations.c:44
    1dc0:	463e      	mov	r6, r7
/mnt/disk/raspbian-tee/optee_os/lib/libutee/tee_api_operations.c:43
    1dc2:	46ba      	mov	sl, r7
/mnt/disk/raspbian-tee/optee_os/lib/libutee/tee_api_operations.c:185
    1dc4:	2222      	movs	r2, #34	; 0x22
    1dc6:	e7f8      	b.n	1dba <TEE_AllocateOperation+0x478>
/mnt/disk/raspbian-tee/optee_os/lib/libutee/tee_api_operations.c:261
    1dc8:	2107      	movs	r1, #7
    1dca:	6041      	str	r1, [r0, #4]
    1dcc:	e7b9      	b.n	1d42 <TEE_AllocateOperation+0x400>
/mnt/disk/raspbian-tee/optee_os/lib/libutee/tee_api_operations.c:271
    1dce:	b15e      	cbz	r6, 1de8 <TEE_AllocateOperation+0x4a6>
/mnt/disk/raspbian-tee/optee_os/lib/libutee/tee_api_operations.c:272
    1dd0:	0058      	lsls	r0, r3, #1
/mnt/disk/raspbian-tee/optee_os/lib/libutee/tee_api_operations.c:274
    1dd2:	f04f 4100 	mov.w	r1, #2147483648	; 0x80000000
    1dd6:	9304      	str	r3, [sp, #16]
    1dd8:	f7ff f8f7 	bl	fca <TEE_Malloc>
/mnt/disk/raspbian-tee/optee_os/lib/libutee/tee_api_operations.c:276
    1ddc:	9b04      	ldr	r3, [sp, #16]
/mnt/disk/raspbian-tee/optee_os/lib/libutee/tee_api_operations.c:274
    1dde:	62e8      	str	r0, [r5, #44]	; 0x2c
/mnt/disk/raspbian-tee/optee_os/lib/libutee/tee_api_operations.c:276
    1de0:	2800      	cmp	r0, #0
    1de2:	d1b6      	bne.n	1d52 <TEE_AllocateOperation+0x410>
/mnt/disk/raspbian-tee/optee_os/lib/libutee/tee_api_operations.c:277
    1de4:	4e26      	ldr	r6, [pc, #152]	; (1e80 <TEE_AllocateOperation+0x53e>)
    1de6:	e02f      	b.n	1e48 <TEE_AllocateOperation+0x506>
    1de8:	4618      	mov	r0, r3
    1dea:	e7f2      	b.n	1dd2 <TEE_AllocateOperation+0x490>
/mnt/disk/raspbian-tee/optee_os/lib/libutee/tee_api_operations.c:286
    1dec:	f1ba 0f00 	cmp.w	sl, #0
    1df0:	f04f 4220 	mov.w	r2, #2684354560	; 0xa0000000
    1df4:	f04f 4321 	mov.w	r3, #2701131776	; 0xa1000000
    1df8:	fa5f f884 	uxtb.w	r8, r4
    1dfc:	bf08      	it	eq
    1dfe:	4613      	moveq	r3, r2
    1e00:	ea43 0808 	orr.w	r8, r3, r8
/mnt/disk/raspbian-tee/optee_os/lib/libutee/tee_api_operations.c:293
    1e04:	69eb      	ldr	r3, [r5, #28]
    1e06:	031a      	lsls	r2, r3, #12
    1e08:	d501      	bpl.n	1e0e <TEE_AllocateOperation+0x4cc>
/mnt/disk/raspbian-tee/optee_os/lib/libutee/tee_api_operations.c:294
    1e0a:	ea4f 0959 	mov.w	r9, r9, lsr #1
/mnt/disk/raspbian-tee/optee_os/lib/libutee/tee_api_operations.c:296
    1e0e:	f105 0220 	add.w	r2, r5, #32
    1e12:	4649      	mov	r1, r9
    1e14:	4640      	mov	r0, r8
    1e16:	f7ff f9f7 	bl	1208 <TEE_AllocateTransientObject>
/mnt/disk/raspbian-tee/optee_os/lib/libutee/tee_api_operations.c:297
    1e1a:	4606      	mov	r6, r0
    1e1c:	b958      	cbnz	r0, 1e36 <TEE_AllocateOperation+0x4f4>
/mnt/disk/raspbian-tee/optee_os/lib/libutee/tee_api_operations.c:300
    1e1e:	69eb      	ldr	r3, [r5, #28]
    1e20:	031b      	lsls	r3, r3, #12
    1e22:	d59c      	bpl.n	1d5e <TEE_AllocateOperation+0x41c>
/mnt/disk/raspbian-tee/optee_os/lib/libutee/tee_api_operations.c:301
    1e24:	f105 0224 	add.w	r2, r5, #36	; 0x24
    1e28:	4649      	mov	r1, r9
    1e2a:	4640      	mov	r0, r8
    1e2c:	f7ff f9ec 	bl	1208 <TEE_AllocateTransientObject>
/mnt/disk/raspbian-tee/optee_os/lib/libutee/tee_api_operations.c:303
    1e30:	4606      	mov	r6, r0
    1e32:	2800      	cmp	r0, #0
    1e34:	d093      	beq.n	1d5e <TEE_AllocateOperation+0x41c>
/mnt/disk/raspbian-tee/optee_os/lib/libutee/tee_api_operations.c:332
    1e36:	4b12      	ldr	r3, [pc, #72]	; (1e80 <TEE_AllocateOperation+0x53e>)
    1e38:	429e      	cmp	r6, r3
    1e3a:	d005      	beq.n	1e48 <TEE_AllocateOperation+0x506>
/mnt/disk/raspbian-tee/optee_os/lib/libutee/tee_api_operations.c:332 (discriminator 1)
    1e3c:	4b11      	ldr	r3, [pc, #68]	; (1e84 <TEE_AllocateOperation+0x542>)
    1e3e:	429e      	cmp	r6, r3
    1e40:	d002      	beq.n	1e48 <TEE_AllocateOperation+0x506>
/mnt/disk/raspbian-tee/optee_os/lib/libutee/tee_api_operations.c:334
    1e42:	4630      	mov	r0, r6
    1e44:	f005 fe78 	bl	7b38 <TEE_Panic>
/mnt/disk/raspbian-tee/optee_os/lib/libutee/tee_api_operations.c:336
    1e48:	6beb      	ldr	r3, [r5, #60]	; 0x3c
    1e4a:	b11b      	cbz	r3, 1e54 <TEE_AllocateOperation+0x512>
/mnt/disk/raspbian-tee/optee_os/lib/libutee/tee_api_operations.c:337
    1e4c:	4628      	mov	r0, r5
    1e4e:	f7ff fd65 	bl	191c <TEE_FreeOperation>
    1e52:	e7a2      	b.n	1d9a <TEE_AllocateOperation+0x458>
/mnt/disk/raspbian-tee/optee_os/lib/libutee/tee_api_operations.c:339
    1e54:	6ae8      	ldr	r0, [r5, #44]	; 0x2c
    1e56:	f7ff f8df 	bl	1018 <TEE_Free>
/mnt/disk/raspbian-tee/optee_os/lib/libutee/tee_api_operations.c:340
    1e5a:	6a28      	ldr	r0, [r5, #32]
    1e5c:	f7ff f9ec 	bl	1238 <TEE_FreeTransientObject>
/mnt/disk/raspbian-tee/optee_os/lib/libutee/tee_api_operations.c:341
    1e60:	6a68      	ldr	r0, [r5, #36]	; 0x24
    1e62:	f7ff f9e9 	bl	1238 <TEE_FreeTransientObject>
/mnt/disk/raspbian-tee/optee_os/lib/libutee/tee_api_operations.c:342
    1e66:	4628      	mov	r0, r5
    1e68:	f7ff f8d6 	bl	1018 <TEE_Free>
    1e6c:	e795      	b.n	1d9a <TEE_AllocateOperation+0x458>
/mnt/disk/raspbian-tee/optee_os/lib/libutee/tee_api_operations.c:255
    1e6e:	4e04      	ldr	r6, [pc, #16]	; (1e80 <TEE_AllocateOperation+0x53e>)
    1e70:	e793      	b.n	1d9a <TEE_AllocateOperation+0x458>
    1e72:	4606      	mov	r6, r0
    1e74:	e7df      	b.n	1e36 <TEE_AllocateOperation+0x4f4>
    1e76:	bf00      	nop
    1e78:	800060c0 	.word	0x800060c0
    1e7c:	f0000830 	.word	0xf0000830
    1e80:	ffff000c 	.word	0xffff000c
    1e84:	ffff000a 	.word	0xffff000a

00001e88 <TEE_GetOperationInfo>:
TEE_GetOperationInfo():
/mnt/disk/raspbian-tee/optee_os/lib/libutee/tee_api_operations.c:372
    1e88:	b538      	push	{r3, r4, r5, lr}
    1e8a:	460c      	mov	r4, r1
/mnt/disk/raspbian-tee/optee_os/lib/libutee/tee_api_operations.c:373
    1e8c:	4605      	mov	r5, r0
    1e8e:	b908      	cbnz	r0, 1e94 <TEE_GetOperationInfo+0xc>
/mnt/disk/raspbian-tee/optee_os/lib/libutee/tee_api_operations.c:374
    1e90:	f005 fe52 	bl	7b38 <TEE_Panic>
/mnt/disk/raspbian-tee/optee_os/lib/libutee/tee_api_operations.c:376
    1e94:	b914      	cbnz	r4, 1e9c <TEE_GetOperationInfo+0x14>
/mnt/disk/raspbian-tee/optee_os/lib/libutee/tee_api_operations.c:377
    1e96:	4620      	mov	r0, r4
    1e98:	f005 fe4e 	bl	7b38 <TEE_Panic>
/mnt/disk/raspbian-tee/optee_os/lib/libutee/tee_api_operations.c:379
    1e9c:	cd0f      	ldmia	r5!, {r0, r1, r2, r3}
    1e9e:	c40f      	stmia	r4!, {r0, r1, r2, r3}
    1ea0:	e895 000f 	ldmia.w	r5, {r0, r1, r2, r3}
    1ea4:	e884 000f 	stmia.w	r4, {r0, r1, r2, r3}
    1ea8:	bd38      	pop	{r3, r4, r5, pc}

00001eaa <TEE_GetOperationInfoMultiple>:
TEE_GetOperationInfoMultiple():
/mnt/disk/raspbian-tee/optee_os/lib/libutee/tee_api_operations.c:385
    1eaa:	b5f0      	push	{r4, r5, r6, r7, lr}
    1eac:	460c      	mov	r4, r1
/mnt/disk/raspbian-tee/optee_os/lib/libutee/tee_api_operations.c:392
    1eae:	4605      	mov	r5, r0
/mnt/disk/raspbian-tee/optee_os/lib/libutee/tee_api_operations.c:385
    1eb0:	b08f      	sub	sp, #60	; 0x3c
/mnt/disk/raspbian-tee/optee_os/lib/libutee/tee_api_operations.c:392
    1eb2:	2800      	cmp	r0, #0
    1eb4:	d04a      	beq.n	1f4c <TEE_GetOperationInfoMultiple+0xa2>
/mnt/disk/raspbian-tee/optee_os/lib/libutee/tee_api_operations.c:397
    1eb6:	2900      	cmp	r1, #0
    1eb8:	d048      	beq.n	1f4c <TEE_GetOperationInfoMultiple+0xa2>
/mnt/disk/raspbian-tee/optee_os/lib/libutee/tee_api_operations.c:402
    1eba:	2a00      	cmp	r2, #0
    1ebc:	d046      	beq.n	1f4c <TEE_GetOperationInfoMultiple+0xa2>
/mnt/disk/raspbian-tee/optee_os/lib/libutee/tee_api_operations.c:407
    1ebe:	6817      	ldr	r7, [r2, #0]
    1ec0:	3f20      	subs	r7, #32
    1ec2:	08ff      	lsrs	r7, r7, #3
/mnt/disk/raspbian-tee/optee_os/lib/libutee/tee_api_operations.c:410
    1ec4:	2f02      	cmp	r7, #2
    1ec6:	d841      	bhi.n	1f4c <TEE_GetOperationInfoMultiple+0xa2>
/mnt/disk/raspbian-tee/optee_os/lib/libutee/tee_api_operations.c:416
    1ec8:	69c3      	ldr	r3, [r0, #28]
    1eca:	031b      	lsls	r3, r3, #12
    1ecc:	d420      	bmi.n	1f10 <TEE_GetOperationInfoMultiple+0x66>
/mnt/disk/raspbian-tee/optee_os/lib/libutee/tee_api_operations.c:424 (discriminator 1)
    1ece:	b33f      	cbz	r7, 1f20 <TEE_GetOperationInfoMultiple+0x76>
/mnt/disk/raspbian-tee/optee_os/lib/libutee/tee_api_operations.c:425
    1ed0:	2300      	movs	r3, #0
/mnt/disk/raspbian-tee/optee_os/lib/libutee/tee_api_operations.c:424
    1ed2:	2f02      	cmp	r7, #2
/mnt/disk/raspbian-tee/optee_os/lib/libutee/tee_api_operations.c:425
    1ed4:	6223      	str	r3, [r4, #32]
/mnt/disk/raspbian-tee/optee_os/lib/libutee/tee_api_operations.c:426
    1ed6:	6263      	str	r3, [r4, #36]	; 0x24
/mnt/disk/raspbian-tee/optee_os/lib/libutee/tee_api_operations.c:424
    1ed8:	d120      	bne.n	1f1c <TEE_GetOperationInfoMultiple+0x72>
/mnt/disk/raspbian-tee/optee_os/lib/libutee/tee_api_operations.c:425
    1eda:	62a3      	str	r3, [r4, #40]	; 0x28
/mnt/disk/raspbian-tee/optee_os/lib/libutee/tee_api_operations.c:430
    1edc:	a907      	add	r1, sp, #28
/mnt/disk/raspbian-tee/optee_os/lib/libutee/tee_api_operations.c:426
    1ede:	62e3      	str	r3, [r4, #44]	; 0x2c
/mnt/disk/raspbian-tee/optee_os/lib/libutee/tee_api_operations.c:430
    1ee0:	6a68      	ldr	r0, [r5, #36]	; 0x24
    1ee2:	f7ff f8d7 	bl	1094 <TEE_GetObjectInfo1>
/mnt/disk/raspbian-tee/optee_os/lib/libutee/tee_api_operations.c:432
    1ee6:	4606      	mov	r6, r0
    1ee8:	b970      	cbnz	r0, 1f08 <TEE_GetOperationInfoMultiple+0x5e>
/mnt/disk/raspbian-tee/optee_os/lib/libutee/tee_api_operations.c:435
    1eea:	9b08      	ldr	r3, [sp, #32]
    1eec:	62a3      	str	r3, [r4, #40]	; 0x28
/mnt/disk/raspbian-tee/optee_os/lib/libutee/tee_api_operations.c:437
    1eee:	69ab      	ldr	r3, [r5, #24]
    1ef0:	62e3      	str	r3, [r4, #44]	; 0x2c
/mnt/disk/raspbian-tee/optee_os/lib/libutee/tee_api_operations.c:442
    1ef2:	4669      	mov	r1, sp
    1ef4:	6a28      	ldr	r0, [r5, #32]
    1ef6:	f7ff f8cd 	bl	1094 <TEE_GetObjectInfo1>
/mnt/disk/raspbian-tee/optee_os/lib/libutee/tee_api_operations.c:444
    1efa:	4606      	mov	r6, r0
    1efc:	b308      	cbz	r0, 1f42 <TEE_GetOperationInfoMultiple+0x98>
/mnt/disk/raspbian-tee/optee_os/lib/libutee/tee_api_operations.c:445
    1efe:	2f02      	cmp	r7, #2
    1f00:	d102      	bne.n	1f08 <TEE_GetOperationInfoMultiple+0x5e>
/mnt/disk/raspbian-tee/optee_os/lib/libutee/tee_api_operations.c:447
    1f02:	2300      	movs	r3, #0
    1f04:	62a3      	str	r3, [r4, #40]	; 0x28
/mnt/disk/raspbian-tee/optee_os/lib/libutee/tee_api_operations.c:449
    1f06:	62e3      	str	r3, [r4, #44]	; 0x2c
/mnt/disk/raspbian-tee/optee_os/lib/libutee/tee_api_operations.c:471
    1f08:	4b13      	ldr	r3, [pc, #76]	; (1f58 <TEE_GetOperationInfoMultiple+0xae>)
    1f0a:	429e      	cmp	r6, r3
    1f0c:	d002      	beq.n	1f14 <TEE_GetOperationInfoMultiple+0x6a>
    1f0e:	e01e      	b.n	1f4e <TEE_GetOperationInfoMultiple+0xa4>
/mnt/disk/raspbian-tee/optee_os/lib/libutee/tee_api_operations.c:417
    1f10:	2f02      	cmp	r7, #2
    1f12:	d0dd      	beq.n	1ed0 <TEE_GetOperationInfoMultiple+0x26>
/mnt/disk/raspbian-tee/optee_os/lib/libutee/tee_api_operations.c:468
    1f14:	4e10      	ldr	r6, [pc, #64]	; (1f58 <TEE_GetOperationInfoMultiple+0xae>)
/mnt/disk/raspbian-tee/optee_os/lib/libutee/tee_api_operations.c:476
    1f16:	4630      	mov	r0, r6
    1f18:	b00f      	add	sp, #60	; 0x3c
    1f1a:	bdf0      	pop	{r4, r5, r6, r7, pc}
/mnt/disk/raspbian-tee/optee_os/lib/libutee/tee_api_operations.c:441
    1f1c:	2f00      	cmp	r7, #0
    1f1e:	d1e8      	bne.n	1ef2 <TEE_GetOperationInfoMultiple+0x48>
/mnt/disk/raspbian-tee/optee_os/lib/libutee/tee_api_operations.c:461
    1f20:	682b      	ldr	r3, [r5, #0]
/mnt/disk/raspbian-tee/optee_os/lib/libutee/tee_api_operations.c:468
    1f22:	2600      	movs	r6, #0
/mnt/disk/raspbian-tee/optee_os/lib/libutee/tee_api_operations.c:461
    1f24:	6023      	str	r3, [r4, #0]
/mnt/disk/raspbian-tee/optee_os/lib/libutee/tee_api_operations.c:462
    1f26:	686b      	ldr	r3, [r5, #4]
    1f28:	6063      	str	r3, [r4, #4]
/mnt/disk/raspbian-tee/optee_os/lib/libutee/tee_api_operations.c:463
    1f2a:	68ab      	ldr	r3, [r5, #8]
    1f2c:	60a3      	str	r3, [r4, #8]
/mnt/disk/raspbian-tee/optee_os/lib/libutee/tee_api_operations.c:464
    1f2e:	68eb      	ldr	r3, [r5, #12]
    1f30:	60e3      	str	r3, [r4, #12]
/mnt/disk/raspbian-tee/optee_os/lib/libutee/tee_api_operations.c:465
    1f32:	692b      	ldr	r3, [r5, #16]
    1f34:	6123      	str	r3, [r4, #16]
/mnt/disk/raspbian-tee/optee_os/lib/libutee/tee_api_operations.c:466
    1f36:	69eb      	ldr	r3, [r5, #28]
    1f38:	6163      	str	r3, [r4, #20]
/mnt/disk/raspbian-tee/optee_os/lib/libutee/tee_api_operations.c:467
    1f3a:	6aab      	ldr	r3, [r5, #40]	; 0x28
    1f3c:	61a3      	str	r3, [r4, #24]
/mnt/disk/raspbian-tee/optee_os/lib/libutee/tee_api_operations.c:468
    1f3e:	61e7      	str	r7, [r4, #28]
    1f40:	e7e9      	b.n	1f16 <TEE_GetOperationInfoMultiple+0x6c>
/mnt/disk/raspbian-tee/optee_os/lib/libutee/tee_api_operations.c:454
    1f42:	9b01      	ldr	r3, [sp, #4]
    1f44:	6223      	str	r3, [r4, #32]
/mnt/disk/raspbian-tee/optee_os/lib/libutee/tee_api_operations.c:456
    1f46:	69ab      	ldr	r3, [r5, #24]
    1f48:	6263      	str	r3, [r4, #36]	; 0x24
    1f4a:	e7e9      	b.n	1f20 <TEE_GetOperationInfoMultiple+0x76>
    1f4c:	4e03      	ldr	r6, [pc, #12]	; (1f5c <TEE_GetOperationInfoMultiple+0xb2>)
/mnt/disk/raspbian-tee/optee_os/lib/libutee/tee_api_operations.c:473
    1f4e:	4630      	mov	r0, r6
    1f50:	f005 fdf2 	bl	7b38 <TEE_Panic>
/mnt/disk/raspbian-tee/optee_os/lib/libutee/tee_api_operations.c:475
    1f54:	e7df      	b.n	1f16 <TEE_GetOperationInfoMultiple+0x6c>
    1f56:	bf00      	nop
    1f58:	ffff0010 	.word	0xffff0010
    1f5c:	ffff0006 	.word	0xffff0006

00001f60 <TEE_ResetOperation>:
TEE_ResetOperation():
/mnt/disk/raspbian-tee/optee_os/lib/libutee/tee_api_operations.c:479
    1f60:	b510      	push	{r4, lr}
/mnt/disk/raspbian-tee/optee_os/lib/libutee/tee_api_operations.c:482
    1f62:	4604      	mov	r4, r0
    1f64:	b908      	cbnz	r0, 1f6a <TEE_ResetOperation+0xa>
/mnt/disk/raspbian-tee/optee_os/lib/libutee/tee_api_operations.c:483
    1f66:	f005 fde7 	bl	7b38 <TEE_Panic>
/mnt/disk/raspbian-tee/optee_os/lib/libutee/tee_api_operations.c:485
    1f6a:	69e0      	ldr	r0, [r4, #28]
    1f6c:	f410 2080 	ands.w	r0, r0, #262144	; 0x40000
    1f70:	d101      	bne.n	1f76 <TEE_ResetOperation+0x16>
/mnt/disk/raspbian-tee/optee_os/lib/libutee/tee_api_operations.c:486
    1f72:	f005 fde1 	bl	7b38 <TEE_Panic>
/mnt/disk/raspbian-tee/optee_os/lib/libutee/tee_api_operations.c:490
    1f76:	6863      	ldr	r3, [r4, #4]
/mnt/disk/raspbian-tee/optee_os/lib/libutee/tee_api_operations.c:488
