
ebb6f4b5-7e33-4ad2-9802-e64f2a7cc20c.elf:     file format elf32-littlearm
ebb6f4b5-7e33-4ad2-9802-e64f2a7cc20c.elf
architecture: arm, flags 0x00000150:
HAS_SYMS, DYNAMIC, D_PAGED
start address 0x00000020

Program Header:
0x70000001 off    0x0001ab30 vaddr 0x0000ab30 paddr 0x0000ab30 align 2**2
         filesz 0x000006d0 memsz 0x000006d0 flags r--
    LOAD off    0x00010000 vaddr 0x00000000 paddr 0x00000000 align 2**16
         filesz 0x000090c8 memsz 0x000090c8 flags r-x
    LOAD off    0x000190c8 vaddr 0x000090c8 paddr 0x000090c8 align 2**16
         filesz 0x0000251c memsz 0x0000251c flags r--
    LOAD off    0x0001c000 vaddr 0x0000c000 paddr 0x0000c000 align 2**16
         filesz 0x000005c9 memsz 0x0000a688 flags rw-
 DYNAMIC off    0x0001b354 vaddr 0x0000b354 paddr 0x0000b354 align 2**2
         filesz 0x00000080 memsz 0x00000080 flags rw-

Dynamic Section:
  HASH                 0x0000b594
  STRTAB               0x0000b4c4
  SYMTAB               0x0000b3d4
  STRSZ                0x000000ce
  SYMENT               0x00000010
  DEBUG                0x00000000
  REL                  0x0000b23c
  RELSZ                0x00000118
  RELENT               0x00000008
  FLAGS_1              0x08000000
  RELCOUNT             0x00000017
private flags = 5000400: [Version5 EABI] [hard-float ABI]

Sections:
Idx Name          Size      VMA       LMA       File off  Algn
  0 .ta_head      00000020  00000000  00000000  00010000  2**3
                  CONTENTS, ALLOC, LOAD, DATA
  1 .text         000090a8  00000020  00000020  00010020  2**3
                  CONTENTS, ALLOC, LOAD, READONLY, CODE
  2 .rodata       00001916  000090c8  000090c8  000190c8  2**2
                  CONTENTS, ALLOC, LOAD, READONLY, DATA
  3 .ARM.extab    00000120  0000a9e0  0000a9e0  0001a9e0  2**2
                  CONTENTS, ALLOC, LOAD, READONLY, DATA
  4 .ARM.extab.text.__aeabi_ldivmod 0000000c  0000ab00  0000ab00  0001ab00  2**2
                  CONTENTS, ALLOC, LOAD, READONLY, DATA
  5 .ARM.extab.text.__aeabi_uldivmod 0000000c  0000ab0c  0000ab0c  0001ab0c  2**2
                  CONTENTS, ALLOC, LOAD, READONLY, DATA
  6 .ARM.extab.text.utee_panic 0000000c  0000ab18  0000ab18  0001ab18  2**2
                  CONTENTS, ALLOC, LOAD, READONLY, DATA
  7 .ARM.extab.text.unlikely 0000000c  0000ab24  0000ab24  0001ab24  2**2
                  CONTENTS, ALLOC, LOAD, READONLY, DATA
  8 .ARM.exidx    000006d0  0000ab30  0000ab30  0001ab30  2**2
                  CONTENTS, ALLOC, LOAD, READONLY, DATA
  9 .got          0000003c  0000b200  0000b200  0001b200  2**2
                  CONTENTS, ALLOC, LOAD, DATA
 10 .dynsym       000000f0  0000b3d4  0000b3d4  0001b3d4  2**2
                  CONTENTS, ALLOC, LOAD, READONLY, DATA
 11 .rel.got      00000060  0000b2f4  0000b2f4  0001b2f4  2**2
                  CONTENTS, ALLOC, LOAD, READONLY, DATA
 12 .dynamic      00000080  0000b354  0000b354  0001b354  2**2
                  CONTENTS, ALLOC, LOAD, DATA
 13 .dynstr       000000ce  0000b4c4  0000b4c4  0001b4c4  2**0
                  CONTENTS, ALLOC, LOAD, READONLY, DATA
 14 .hash         00000050  0000b594  0000b594  0001b594  2**2
                  CONTENTS, ALLOC, LOAD, READONLY, DATA
 15 .data         000005c9  0000c000  0000c000  0001c000  2**2
                  CONTENTS, ALLOC, LOAD, DATA
 16 .bss          0000a0bc  0000c5cc  0000c5cc  0001c5c9  2**2
                  ALLOC
 17 .debug_info   00014e18  00000000  00000000  0001c5c9  2**0
                  CONTENTS, READONLY, DEBUGGING
 18 .debug_abbrev 000037a5  00000000  00000000  000313e1  2**0
                  CONTENTS, READONLY, DEBUGGING
 19 .debug_loc    000129d9  00000000  00000000  00034b86  2**0
                  CONTENTS, READONLY, DEBUGGING
 20 .debug_aranges 00000630  00000000  00000000  00047560  2**3
                  CONTENTS, READONLY, DEBUGGING
 21 .debug_macro  000161d4  00000000  00000000  00047b90  2**0
                  CONTENTS, READONLY, DEBUGGING
 22 .debug_line   00006abb  00000000  00000000  0005dd64  2**0
                  CONTENTS, READONLY, DEBUGGING
 23 .debug_str    00012529  00000000  00000000  0006481f  2**0
                  CONTENTS, READONLY, DEBUGGING
 24 .comment      00000024  00000000  00000000  00076d48  2**0
                  CONTENTS, READONLY
 25 .ARM.attributes 00000036  00000000  00000000  00076d6c  2**0
                  CONTENTS, READONLY
 26 .debug_frame  000023b4  00000000  00000000  00076da4  2**2
                  CONTENTS, READONLY, DEBUGGING
 27 .rel.dyn      000000b8  0000b23c  0000b23c  0001b23c  2**2
                  CONTENTS, ALLOC, LOAD, READONLY, DATA
 28 .debug_ranges 00000870  00000000  00000000  00079158  2**3
                  CONTENTS, READONLY, DEBUGGING
SYMBOL TABLE:
00000000 l    d  .ta_head	00000000 .ta_head
00000020 l    d  .text	00000000 .text
000090c8 l    d  .rodata	00000000 .rodata
0000a9e0 l    d  .ARM.extab	00000000 .ARM.extab
0000ab00 l    d  .ARM.extab.text.__aeabi_ldivmod	00000000 .ARM.extab.text.__aeabi_ldivmod
0000ab0c l    d  .ARM.extab.text.__aeabi_uldivmod	00000000 .ARM.extab.text.__aeabi_uldivmod
0000ab18 l    d  .ARM.extab.text.utee_panic	00000000 .ARM.extab.text.utee_panic
0000ab24 l    d  .ARM.extab.text.unlikely	00000000 .ARM.extab.text.unlikely
0000ab30 l    d  .ARM.exidx	00000000 .ARM.exidx
0000b200 l    d  .got	00000000 .got
0000b2f4 l    d  .rel.got	00000000 .rel.got
0000b354 l    d  .dynamic	00000000 .dynamic
0000b3d4 l    d  .dynsym	00000000 .dynsym
0000b4c4 l    d  .dynstr	00000000 .dynstr
0000b594 l    d  .hash	00000000 .hash
0000c000 l    d  .data	00000000 .data
0000c5cc l    d  .bss	00000000 .bss
00000000 l    d  .debug_info	00000000 .debug_info
00000000 l    d  .debug_abbrev	00000000 .debug_abbrev
00000000 l    d  .debug_loc	00000000 .debug_loc
00000000 l    d  .debug_aranges	00000000 .debug_aranges
00000000 l    d  .debug_macro	00000000 .debug_macro
00000000 l    d  .debug_line	00000000 .debug_line
00000000 l    d  .debug_str	00000000 .debug_str
00000000 l    d  .comment	00000000 .comment
00000000 l    d  .ARM.attributes	00000000 .ARM.attributes
00000000 l    d  .debug_frame	00000000 .debug_frame
0000b23c l    d  .rel.dyn	00000000 .rel.dyn
00000000 l    d  .debug_ranges	00000000 .debug_ranges
00000000 l    df *ABS*	00000000 user_ta_header.c
000090cc l     O .rodata	00000004 __compound_literal.5
000090d0 l     O .rodata	00000004 __compound_literal.4
000090d4 l     O .rodata	00000004 __compound_literal.3
000090d8 l     O .rodata	00000001 __compound_literal.2
000090d9 l     O .rodata	00000001 __compound_literal.1
000090da l     O .rodata	00000001 __compound_literal.0
00000000 l    df *ABS*	00000000 CryptoVerifyTaEntry.c
00000000 l    df *ABS*	00000000 CryptoVerifyTaHandle.c
00000000 l    df *ABS*	00000000 CryptoVerifyTaAes.c
00000000 l    df *ABS*	00000000 CryptoVerifyTaHash.c
00000000 l    df *ABS*	00000000 CryptoVerifyTaPbkdf2.c
00000ac8 l     F .text	00000106 l_CryptoTaPbkdf_HMAC
00000000 l    df *ABS*	00000000 CryptoVerifyTaDebug.c
00000000 l    df *ABS*	00000000 CryptoVerifyTaOther.c
00009874 l     O .rodata	00000100 map
00000000 l    df *ABS*	00000000 CryptoVerifyTaRsa.c
00000fd8 l     F .text	00000028 l_CryptoTaRsa_CleanUpPublicHandle
00001000 l     F .text	00000028 l_CryptoTaRsa_CleanUpKeyPairObj
00001028 l     F .text	000000a4 l_CryptoTaRsa_SetRsaPublicKey.isra.0
000010cc l     F .text	000000b8 l_CryptoTaRsa_SetRsaPrivateKey.isra.1
00000000 l    df *ABS*	00000000 trace.c
000016e4 l     F .text	0000004e append
00009d77 l     O .rodata	00000005 lvl_strs.5561
00009d7c l     O .rodata	0000000a __func__.5615
00000000 l    df *ABS*	00000000 snprintk.c
00009dc0 l     O .rodata	00000011 HEXDIGITS
00009dd1 l     O .rodata	00000011 hexdigits
00000000 l    df *ABS*	00000000 arm32_aeabi_ldivmod_a32.o
00000000 l    df *ABS*	00000000 trace_ext.c
00000000 l    df *ABS*	00000000 tee_api.c
00009e1a l     O .rodata	0000000b __func__.6728
0000c618 l     O .bss	00000004 tee_api_instance_data
00000000 l    df *ABS*	00000000 tee_api_objects.c
00000000 l    df *ABS*	00000000 tee_api_operations.c
00002c38 l     F .text	00000160 tee_buffer_update
00000000 l    df *ABS*	00000000 user_ta_entry.c
00004200 l     F .text	0000001c ta_header_get_session
0000421c l     F .text	00000068 ta_header_remove_session
0000c61c l     O .bss	00000001 init_done
0000c558 l     O .data	00000008 ta_sessions
00000000 l    df *ABS*	00000000 utee_syscalls_a32.o
00000000 l    df *ABS*	00000000 gprof_a32.o
00000000 l    df *ABS*	00000000 tee_api_arith_mpi.c
000058e4 l     F .text	00000020 api_panic
000048d0 l     F .text	00000020 mpi_panic
000048f0 l     F .text	00000044 get_const_mpi
00004934 l     F .text	00000010 mpi_is_odd
00004944 l     F .text	00000016 rng_read
0000495a l     F .text	0000001c put_mpi
00004976 l     F .text	0000045a mpi_egcd
00004dd0 l     F .text	00000024 get_mpi
00004df4 l     F .text	00000088 bigint_binary
0000c644 l     O .bss	00002000 data.6728
00005082 l     F .text	000000ea bigint_binary_mod
00009e36 l     O .rodata	0000000e __func__.6757
00009e44 l     O .rodata	00000009 __func__.6996
00009e4d l     O .rodata	0000000e __func__.6856
00009e5b l     O .rodata	00000012 __func__.6729
00009e6d l     O .rodata	0000000f __func__.6767
00009e7c l     O .rodata	0000001f __func__.6785
00009e9b l     O .rodata	00000019 __func__.6792
00009eb4 l     O .rodata	00000012 __func__.6867
00009ec6 l     O .rodata	00000015 __func__.6822
00009edb l     O .rodata	0000000e __func__.6894
00009ee9 l     O .rodata	0000000e __func__.6922
00009ef7 l     O .rodata	0000000e __func__.6928
00009f05 l     O .rodata	00000011 __func__.6957
00009f16 l     O .rodata	00000018 __func__.6973
00009f2e l     O .rodata	0000001d __func__.7053
00009f4b l     O .rodata	00000019 __func__.7103
00009f64 l     O .rodata	00000015 __func__.7117
00000000 l    df *ABS*	00000000 bignum.c
00005904 l     F .text	00000038 mpi_get_digit
0000593c l     F .text	0000005e mpi_sub_hlp
0000599a l     F .text	00000492 mpi_mul_hlp
00005e2c l     F .text	00000048 mbedtls_mpi_mod_int.part.1
00006ece l     F .text	0000006c mpi_write_hlp
00007074 l     F .text	00000050 mpi_check_small_factors
00007760 l     F .text	00000216 mpi_miller_rabin
000090e4 l     O .rodata	000002a0 small_prime
00009384 l     O .rodata	00000024 gcd_pairs
00000000 l    df *ABS*	00000000 bget_malloc.c
00008104 l     F .text	00000030 raw_malloc_return_hook.isra.3
00008134 l     F .text	000000d8 create_free_block.constprop.11
00008340 l     F .text	00000038 raw_malloc.constprop.15
0000a48d l     O .rodata	00000012 __func__.5854
0000a49f l     O .rodata	00000005 __func__.5710
0000a4a4 l     O .rodata	00000006 __func__.5725
0000a4aa l     O .rodata	00000005 __func__.5742
0000a4af l     O .rodata	00000006 __func__.5734
0000a4b5 l     O .rodata	00000006 __func__.5751
0000a4bb l     O .rodata	00000007 __func__.5761
0000a4c2 l     O .rodata	0000000d __func__.5890
0000a4cf l     O .rodata	0000000c __func__.5864
0000a4db l     O .rodata	0000000b __func__.5875
0000a4e6 l     O .rodata	00000010 __func__.5942
0000a4f6 l     O .rodata	0000000e __func__.5896
0000a504 l     O .rodata	00000013 __func__.5802
0000e648 l     O .bss	00000038 mstats
0000e680 l     O .bss	00000004 malloc_pool_len
0000e684 l     O .bss	00000004 malloc_pool
0000c560 l     O .data	0000001c malloc_poolset
00000000 l    df *ABS*	00000000 mempool.c
0000a91f l     O .rodata	00000013 __func__.5618
0000a932 l     O .rodata	0000000e __func__.5627
00000000 l    df *ABS*	00000000 assert.c
00000000 l    df *ABS*	00000000 memset.c
00000000 l    df *ABS*	00000000 aeabi_unwind.c
00000000 l    df *ABS*	00000000 memchr.c
00000000 l    df *ABS*	00000000 strlen.c
00000000 l    df *ABS*	00000000 arm32_aeabi_ldivmod.c
00000000 l    df *ABS*	00000000 tee_api_panic.c
00000000 l    df *ABS*	00000000 snprintf.c
00000000 l    df *ABS*	00000000 memcmp.c
00000000 l    df *ABS*	00000000 memcpy.c
00000000 l    df *ABS*	00000000 memmove.c
00000000 l    df *ABS*	00000000 buf_compare_ct.c
00000000 l    df *ABS*	00000000 
0000b354 l     O *ABS*	00000000 _DYNAMIC
0000b200 l     O *ABS*	00000000 _GLOBAL_OFFSET_TABLE_
00009088 l     F .text	00000010 __utee_log_from_thumb
00009098 l     F .text	00000010 __utee_panic_from_thumb
000090a8 l     F .text	00000010 __utee_cache_operation_from_thumb
000090b8 l     F .text	00000010 __utee_check_access_rights_from_thumb
000021a4 g     F .text	00000022 putchar
00002714 g     F .text	00000070 TEE_PopulateTransientObject
000057f6 g     F .text	00000004 TEE_BigIntConvertToFMM
00005538 g     F .text	00000008 TEE_BigIntSquareMod
0000516c g     F .text	000000f4 TEE_BigIntShiftRight
0000c013 g     O .data	00000017 g_SaltBuf
000047a8 g     F .text	00000018 utee_storage_obj_create
00005f0c g     F .text	000000a8 mbedtls_mpi_grow
00008ed6 g     F .text	000000ec __l_divmod
00004428 g     F .text	00000014 utee_return
00003640 g     F .text	00000030 TEE_DigestUpdate
0000c1d8 g     O .data	00000100 g_Publickey2048_D
00002490 g     F .text	00000004 TEE_Realloc
000034a8 g     F .text	000000f4 TEE_SetOperationKey2
00002146 g     F .text	0000003a printf
000007fc g     F .text	00000118 g_CryptoTaHash_sha
0000443c g     F .text	00000014 utee_log
00002784 g     F .text	00000022 TEE_InitRefAttribute
000022ae g     F .text	00000066 TEE_InvokeTACommand
00005e86 g     F .text	00000026 mbedtls_mpi_init_mempool
00006380 g     F .text	00000046 mbedtls_mpi_write_binary
00003c20 g     F .text	00000118 TEE_AEEncryptFinal
000020d4 g     F .text	0000000e vsnprintk
0000680a g     F .text	00000030 mbedtls_mpi_sub_int
00009026 g     F .text	00000034 memmove
00008fc6 g     F .text	0000001e snprintf
0000505c g     F .text	00000026 TEE_BigIntCmpS32
000027a6 g     F .text	00000022 TEE_InitValueAttribute
00005fb4 g     F .text	000000cc mbedtls_mpi_shrink
00008e30 g     F .text	00000002 __aeabi_unwind_cpp_pr0
000052ac g     F .text	0000001c TEE_BigIntAdd
0000447c g     F .text	00000014 utee_get_property_name_to_index
0000c5d0 g     O .bss	00000004 g_pOperationHandle
000090dc g     O .rodata	00000004 ta_heap_size
000026e4 g     F .text	00000030 TEE_ResetTransientObject
0000c5dc g     O .bss	00000018 g_PublicKeyAttr
00004560 g     F .text	00000018 utee_cryp_state_alloc
00004730 g     F .text	00000018 utee_authenc_enc_final
00006934 g     F .text	0000012c mbedtls_mpi_read_string
000036e0 g     F .text	00000056 TEE_CipherInit
000052e4 g     F .text	00000058 TEE_BigIntNeg
00000020 g       .text	00000000 __text_start
0000c5f4 g     O .bss	00000024 g_PrivateKeyAttr
00002a84 g     F .text	0000002c TEE_StartPersistentObjectEnumerator
0000645e g     F .text	00000078 mbedtls_mpi_shift_r
00008c94 g     F .text	0000004c malloc_buffer_overlaps_heap
00005500 g     F .text	0000001c TEE_BigIntSubMod
00007ca2 g     F .text	00000136 mbedtls_mpi_gen_prime
0000622e g     F .text	00000020 mbedtls_mpi_get_bit
0000631a g     F .text	00000066 mbedtls_mpi_read_binary
00003a9c g     F .text	00000070 TEE_AEInit
0000c57c g     O .data	0000004d g_RsaRaw
00001764 g     F .text	0000013c trace_printf
000070ec g     F .text	000000c4 mbedtls_mpi_montmul
00009010 g     F .text	00000016 memcpy
0000458c g     F .text	00000014 utee_cryp_state_free
000057fa g     F .text	0000004a TEE_BigIntConvertFromFMM
00008fc2 g     F .text	00000004 TEE_Panic
00002114 g     F .text	00000018 __aeabi_uldivmod
0000359c g     F .text	000000a4 TEE_CopyOperation
00002180 g     F .text	00000024 puts
00005844 g     F .text	000000a0 TEE_BigIntComputeFMM
0000875c g     F .text	00000020 malloc_get_stats
0000460c g     F .text	00000018 utee_cipher_final
00002430 g     F .text	00000016 TEE_GetREETime
00002a24 g     F .text	00000038 TEE_AllocatePersistentObjectEnumerator
0000c4e8 g     O .data	0000006c ta_props
000014e0 g     F .text	00000204 g_CryptoTaRsa_rsaVerifyOper
00003e40 g     F .text	000000bc TEE_AsymmetricEncrypt
0000877c g     F .text	00000002 malloc
00004674 g     F .text	00000014 utee_cryp_obj_close
00002860 g     F .text	00000048 TEE_GenerateKey
00008fe4 g     F .text	0000000e vsnprintf
0000c4e4 g     O .data	00000004 trace_level
00005028 g     F .text	00000034 TEE_BigIntCmp
000090c8 g     O .rodata	00000004 ta_num_props
000085cc g     F .text	0000007c bgetr
0000c1cc g     O .data	00000004 g_PublicKey1024Len_D
00004718 g     F .text	00000018 utee_authenc_update_payload
00008db4 g     F .text	0000002e mempool_free
00003736 g     F .text	000000e6 TEE_CipherUpdate
00004f40 g     F .text	00000058 TEE_BigIntConvertToOctetString
00003326 g     F .text	000000b6 TEE_GetOperationInfoMultiple
000048b0 g     F .text	00000014 utee_cache_operation
000062cc g     F .text	00000042 mbedtls_mpi_bitlen
000046ec g     F .text	00000018 utee_authenc_init
00005260 g     F .text	0000002a TEE_BigIntGetBit
000090e0 g     O .rodata	00000003 trace_ext_prefix
0000039c g     F .text	00000218 g_CryptoTaHandle_Rsa
00008378 g     F .text	0000005c bgetz
00002380 g     F .text	0000000c TEE_GetInstanceData
000023ae g     F .text	0000001e TEE_Wait
00004860 g     F .text	00000014 utee_storage_obj_write
0000683a g     F .text	000000dc mbedtls_mpi_mul_mpi
00008e34 g     F .text	00000002 __aeabi_unwind_cpp_pr2
0000249e g     F .text	00000006 TEE_CacheFlush
00000080 g     F .text	00000020 TA_DestroyEntryPoint
00005e74 g     F .text	00000012 mbedtls_mpi_init
0000629e g     F .text	0000002e mbedtls_mpi_lsb
00008de4 g     F .text	00000028 _assert_log
000057f2 g     F .text	00000004 TEE_BigIntFMMContextSizeInU32
0000c4d8 g     O .data	00000004 g_PublicKey2048Len_D
00003a38 g     F .text	00000064 TEE_MACCompareFinal
000029de g     F .text	00000046 TEE_RenamePersistentObject
00003670 g     F .text	00000070 TEE_DigestDoFinal
00004e7c g     F .text	00000044 _TEE_MathAPI_Init
00006746 g     F .text	00000048 mbedtls_mpi_add_mpi
00004838 g     F .text	00000014 utee_storage_next_enum
0000e688 g     O .bss	00008000 ta_heap
00005540 g     F .text	000000a4 TEE_BigIntInvMod
00000060 g     F .text	00000020 TA_CloseSessionEntryPoint
00003efc g     F .text	000000c0 TEE_AsymmetricDecrypt
000028a8 g     F .text	00000064 TEE_OpenPersistentObject
0000678e g     F .text	0000004c mbedtls_mpi_sub_mpi
00004450 g     F .text	00000014 __utee_panic
00004578 g     F .text	00000014 utee_cryp_state_copy
000000a0 g     F .text	00000184 TA_InvokeCommandEntryPoint
00008d24 g     F .text	0000006c mempool_alloc
00004660 g     F .text	00000014 utee_cryp_obj_alloc
0000454c g     F .text	00000014 utee_set_ta_time
0000464c g     F .text	00000014 utee_cryp_obj_get_attr
00008d90 g     F .text	00000024 mempool_calloc
00002830 g     F .text	00000030 TEE_CopyObjectAttributes
00008790 g     F .text	00000048 calloc
00002446 g     F .text	0000004a TEE_Malloc
00004510 g     F .text	00000014 utee_mask_cancellation
00004688 g     F .text	00000014 utee_cryp_obj_reset
00002368 g     F .text	0000000a TEE_CheckMemoryAccessRights
00016688 g       .bss	00000000 __gprof_buf_end
00008e62 g     F .text	00000074 __ul_divmod
000061f6 g     F .text	00000038 mbedtls_mpi_lset
0000c14a g     O .data	00000080 g_Publickey1024_E
0000c5d8 g     O .bss	00000004 g_MaxKeySize
00002b04 g     F .text	00000040 TEE_ReadObjectData
0000257c g     F .text	00000070 TEE_GetObjectBufferAttribute
00000040 g     F .text	00000020 TA_OpenSessionEntryPoint
00004824 g     F .text	00000014 utee_storage_start_enum
00002d98 g     F .text	00000026 TEE_FreeOperation
000047d4 g     F .text	00000014 utee_storage_obj_rename
0000c620 g     O .bss	00000004 ta_param_types
00006e02 g     F .text	0000002e mbedtls_mpi_div_int
000024ac g     F .text	0000003a __utee_from_attr
0000c1d0 g     O .data	00000004 g_PublicKey1024Len_N
000057b4 g     F .text	00000030 TEE_BigIntIsProbablePrime
00006916 g     F .text	0000001e mbedtls_mpi_mul_int
000029a4 g     F .text	00000024 TEE_CloseAndDeletePersistentObject1
000071d4 g     F .text	00000446 mbedtls_mpi_exp_mod
00006104 g     F .text	0000006c mbedtls_mpi_safe_cond_assign
0000c5d4 g     O .bss	00000004 g_KeyPairObjHandle
00004464 g     F .text	00000018 utee_get_property
0000c0ca g     O .data	00000080 g_Publickey1024_N
00003d38 g     F .text	00000108 TEE_AEDecryptFinal
00004ec0 g     F .text	00000040 TEE_BigIntInit
0000238c g     F .text	00000004 TEE_MemMove
00004f00 g     F .text	00000040 TEE_BigIntConvertFromOctetString
0000c554 g     O .data	00000004 _ref__utee_mcount
000064d6 g     F .text	0000006e mbedtls_mpi_cmp_abs
0000392c g     F .text	00000056 TEE_MACInit
00003fbc g     F .text	000000b4 TEE_AsymmetricSignDigest
00008e36 g     F .text	0000001c memchr
00002330 g     F .text	0000001c TEE_UnmaskCancellation
000024e6 g     F .text	0000002a TEE_GetObjectInfo
00007dd8 g     F .text	0000032c mbedtls_mpi_self_test
0000c04a g     O .data	00000080 g_Publickey1024_D
000047c0 g     F .text	00000014 utee_storage_obj_del
00003b52 g     F .text	000000ce TEE_AEUpdate
00004888 g     F .text	00000014 utee_storage_obj_seek
000026b4 g     F .text	00000030 TEE_FreeTransientObject
000065da g     F .text	00000030 mbedtls_mpi_cmp_int
000045b4 g     F .text	00000014 utee_hash_update
000041e8 g     F .text	00000018 rand
0000c03a g     O .data	00000010 g_Aes128Iv
000048c4  w    F .text	0000000c __utee_mcount
00003304 g     F .text	00000022 TEE_GetOperationInfo
00005494 g     F .text	00000050 TEE_BigIntMod
00006e94 g     F .text	0000003a mbedtls_mpi_mod_int
00001390 g     F .text	00000150 g_CryptoTaRsa_rsaSignOper
000044a8 g     F .text	00000014 utee_close_ta_session
000053e6 g     F .text	000000ae TEE_BigIntDiv
00006080 g     F .text	00000056 mbedtls_mpi_copy
00008748 g     F .text	00000014 malloc_reset_stats
00001184 g     F .text	00000104 g_CryptoTaRsa_rsaEncOper
000045f4 g     F .text	00000018 utee_cipher_update
0000c4dc g     O .data	00000004 g_PublicKey2048Len_N
00000bce g     F .text	0000018e g_CryptoTaPbkdf_PBKDF2
00002530 g     F .text	00000020 TEE_RestrictObjectUsage1
000087d8 g     F .text	00000038 realloc
00000370 g     F .text	0000002c g_CryptoTaHandle_Pbkdf
000060d6 g     F .text	0000002e mbedtls_mpi_swap
00008ce0 g     F .text	00000044 mempool_alloc_pool
00004778 g     F .text	00000018 utee_asymm_verify
0000533c g     F .text	000000a4 TEE_BigIntMul
000033dc g     F .text	00000040 TEE_ResetOperation
000063c6 g     F .text	00000098 mbedtls_mpi_shift_l
00000224 g     F .text	00000010 g_CryptoTaHandle_Random
00006544 g     F .text	00000096 mbedtls_mpi_cmp_mpi
00002394 g     F .text	00000004 TEE_MemFill
00008ff2 g     F .text	0000001e memcmp
00008ac0 g     F .text	000000f8 malloc_add_pool
00003982 g     F .text	0000004e TEE_MACUpdate
00001750 g     F .text	00000014 trace_get_level
0000660a g     F .text	000000bc mbedtls_mpi_add_abs
000046d8 g     F .text	00000014 utee_cryp_random_number_generate
00002550 g     F .text	0000002c TEE_RestrictObjectUsage
000057ea g     F .text	00000008 TEE_BigIntFMMSizeInU32
000057e4 g     F .text	00000004 TEE_BigIntInitFMM
00004760 g     F .text	00000018 utee_asymm_operate
00002670 g     F .text	00000014 TEE_CloseObject
00004284 g     F .text	00000190 __utee_entry
00000234 g     F .text	00000022 g_CryptoTaHandle_Sha
000090c8 g       .text	00000000 __text_end
000055e4 g     F .text	0000007c TEE_BigIntRelativePrime
00006e30 g     F .text	00000064 mbedtls_mpi_mod_mpi
00008648 g     F .text	0000009c bpool
00002314 g     F .text	0000001c TEE_GetCancellationFlag
0000761a g     F .text	00000114 mbedtls_mpi_gcd
00002408 g     F .text	00000028 TEE_SetTAPersistentTime
00008e20 g     F .text	00000010 memset
000023cc g     F .text	0000003c TEE_GetTAPersistentTime
000018a0 g     F .text	00000100 dhex_dump
0000290c g     F .text	00000098 TEE_CreatePersistentObject
0000234c g     F .text	0000001c TEE_MaskCancellation
00003b0c g     F .text	00000046 TEE_AEUpdateAAD
0000484c g     F .text	00000014 utee_storage_obj_read
00002b84 g     F .text	00000038 TEE_TruncateObjectData
0000469c g     F .text	00000014 utee_cryp_obj_populate
00000dc8 g     F .text	0000002c g_CryptoTaOther_Random
00002510 g     F .text	00000020 TEE_GetObjectInfo1
00001732 g     F .text	0000001e trace_set_level
00000914 g     F .text	000001b4 g_CryptoTaHash_hmac
00004624 g     F .text	00000014 utee_cryp_obj_get_info
000025ec g     F .text	00000084 TEE_GetObjectValueAttribute
0000341c g     F .text	0000008c TEE_SetOperationKey
000047e8 g     F .text	00000014 utee_storage_alloc_enum
00004810 g     F .text	00000014 utee_storage_reset_enum
00004874 g     F .text	00000014 utee_storage_obj_trunc
00004fd0 g     F .text	00000058 TEE_BigIntConvertToS32
0000c2d8 g     O .data	00000100 g_Publickey2048_N
000052c8 g     F .text	0000001c TEE_BigIntSub
000044d4 g     F .text	00000014 utee_get_cancellation_flag
000045a0 g     F .text	00000014 utee_hash_init
00008e1c g     F .text	00000004 tahead_get_trace_level
000021c8 g     F .text	00000050 __utee_from_param
00002bbc g     F .text	0000007c TEE_SeekObjectData
00002218 g     F .text	0000003e __utee_to_param
000071b0 g     F .text	00000024 mbedtls_mpi_montred
00008810 g     F .text	000002b0 memalign
0000381c g     F .text	00000110 TEE_CipherDoFinal
00004f98 g     F .text	00000038 TEE_BigIntConvertFromS32
000067da g     F .text	00000030 mbedtls_mpi_add_int
00004638 g     F .text	00000014 utee_cryp_obj_restrict_usage
00008bb8 g     F .text	000000dc malloc_buffer_is_within_alloced
000046b0 g     F .text	00000014 utee_cryp_obj_copy
000057e8 g     F .text	00000002 TEE_BigIntInitFMMContext
000046c4 g     F .text	00000014 utee_cryp_derive_key
00000618 g     F .text	000001e4 g_CryptoTaAes_AesOper
00004748 g     F .text	00000018 utee_authenc_dec_final
00002b44 g     F .text	00000040 TEE_WriteObjectData
00002a70 g     F .text	00000014 TEE_ResetPersistentObjectEnumerator
000053e0 g     F .text	00000006 TEE_BigIntSquare
00000020 g     F .text	00000020 TA_CreateEntryPoint
000070c4 g     F .text	00000028 mbedtls_mpi_montg_init
000020e2 g     F .text	0000001a snprintk
0000528a g     F .text	00000022 TEE_BigIntGetBitCount
00000df4 g     F .text	000001e4 g_CryptoTaOther_base64
0000551c g     F .text	0000001c TEE_BigIntMulMod
00000256 g     F .text	0000002a g_CryptoTaHandle_hmac
00007976 g     F .text	000002d0 mbedtls_mpi_inv_mod
0000411c g     F .text	000000ba TEE_DeriveKey
0000c624 g     O .bss	00000020 ta_params
0000c02a g     O .data	00000010 g_Aes128Key
00006a60 g     F .text	000003a2 mbedtls_mpi_div_mpi
0000630e g     F .text	0000000c mbedtls_mpi_size
0000820c g     F .text	00000134 bget
00002684 g     F .text	00000030 TEE_AllocateTransientObject
0000624e g     F .text	00000050 mbedtls_mpi_set_bit
00005eac g     F .text	00000012 mbedtls_mpi_init_static
00002494 g     F .text	00000004 TEE_Free
00007c46 g     F .text	0000005c mbedtls_mpi_is_prime
000024a4 g     F .text	00000006 TEE_CacheInvalidate
000045e0 g     F .text	00000014 utee_cipher_init
00000280 g     F .text	000000f0 g_CryptoTaHandle_Aes
00008e0c g     F .text	00000010 _assert_break
000054e4 g     F .text	0000001c TEE_BigIntAddMod
000047fc g     F .text	00000014 utee_storage_free_enum
00004704 g     F .text	00000014 utee_authenc_update_aad
00002dbe g     F .text	00000546 TEE_AllocateOperation
0000c3d8 g     O .data	00000100 g_Publickey2048_E
00001288 g     F .text	00000108 g_CryptoTaRsa_rsaDecOper
000041d6 g     F .text	00000012 TEE_GenerateRandom
00002390 g     F .text	00000004 TEE_MemCompare
000019a0 g     F .text	00000734 __vsnprintf
00002a5c g     F .text	00000014 TEE_FreePersistentObjectEnumerator
00004414 g     F .text	00000014 utee_panic
00002256 g     F .text	00000044 TEE_OpenTASession
000005b4 g     F .text	00000064 g_CryptoTaHandle_base64
0000212c g     F .text	00000014 trace_ext_puts
00002140 g     F .text	00000006 trace_ext_get_thread_id
000029c8 g     F .text	00000016 TEE_CloseAndDeletePersistentObject
00005ebe g     F .text	0000004e mbedtls_mpi_free
00002498 g     F .text	00000006 TEE_CacheClean
00004490 g     F .text	00000018 utee_open_ta_session
0000905a g     F .text	0000002c buf_compare_ct
00006170 g     F .text	00000086 mbedtls_mpi_safe_cond_swap
000027c8 g     F .text	00000068 TEE_CopyObjectAttributes1
000045c8 g     F .text	00000018 utee_hash_final
00008e52 g     F .text	00000010 strlen
00005660 g     F .text	00000154 TEE_BigIntComputeExtendedGcd
00008e32 g     F .text	00000002 __aeabi_unwind_cpp_pr1
0000c5cc g     O .bss	00000004 g_PublicKeyObjHandle
00004790 g     F .text	00000018 utee_storage_obj_open
000044bc g     F .text	00000018 utee_invoke_ta_command
00004524 g     F .text	00000014 utee_wait
00002398 g     F .text	00000016 TEE_GetSystemTime
0000c1d4 g     O .data	00000004 g_PublicKey1024Len_E
00000000 g     O .ta_head	00000020 ta_head
0000c4e0 g     O .data	00000004 g_PublicKey2048Len_E
000083d4 g     F .text	000001f8 brel
0000c000 g     O .data	00000013 g_pwdBuf
000066c6 g     F .text	00000080 mbedtls_mpi_sub_abs
00004538 g     F .text	00000014 utee_get_time
0000772e g     F .text	00000032 mbedtls_mpi_fill_random
00002372 g     F .text	0000000e TEE_SetInstanceData
000044fc g     F .text	00000014 utee_unmask_cancellation
000020fc g     F .text	00000018 __aeabi_ldivmod
000044e8 g     F .text	00000014 utee_check_access_rights
00006f3a g     F .text	0000013a mbedtls_mpi_write_string
00002ab0 g     F .text	00000054 TEE_GetNextPersistentObject
0000489c g     F .text	00000014 utee_cryp_obj_generate_key
0000229a g     F .text	00000014 TEE_CloseTASession
00004070 g     F .text	000000ac TEE_AsymmetricVerifyDigest
00000d5c g     F .text	0000006c g_TA_Printf
00016688 g       .bss	00000000 __gprof_buf_start
0000877e g     F .text	00000012 free
000086e4 g     F .text	00000064 bstats
000039d0 g     F .text	00000068 TEE_MACComputeFinal
0000e644 g     O .bss	00000004 mbedtls_mpi_mempool



Disassembly of section .text:

00000020 <TA_CreateEntryPoint>:
TA_CreateEntryPoint():
/workspace/benchmark/basicAlg_use/ta/CryptoVerifyTaEntry.c:88
      20:	b507      	push	{r0, r1, r2, lr}
/workspace/benchmark/basicAlg_use/ta/CryptoVerifyTaEntry.c:89
      22:	4b06      	ldr	r3, [pc, #24]	; (3c <TA_CreateEntryPoint+0x1c>)
      24:	447b      	add	r3, pc
      26:	9300      	str	r3, [sp, #0]
      28:	2300      	movs	r3, #0
      2a:	4618      	mov	r0, r3
      2c:	461a      	mov	r2, r3
      2e:	4619      	mov	r1, r3
      30:	f001 fb98 	bl	1764 <trace_printf>
/workspace/benchmark/basicAlg_use/ta/CryptoVerifyTaEntry.c:92
      34:	2000      	movs	r0, #0
      36:	b003      	add	sp, #12
      38:	f85d fb04 	ldr.w	pc, [sp], #4
      3c:	00009380 	.word	0x00009380

00000040 <TA_OpenSessionEntryPoint>:
TA_OpenSessionEntryPoint():
/workspace/benchmark/basicAlg_use/ta/CryptoVerifyTaEntry.c:111
      40:	b507      	push	{r0, r1, r2, lr}
/workspace/benchmark/basicAlg_use/ta/CryptoVerifyTaEntry.c:113
      42:	4b06      	ldr	r3, [pc, #24]	; (5c <TA_OpenSessionEntryPoint+0x1c>)
      44:	447b      	add	r3, pc
      46:	9300      	str	r3, [sp, #0]
      48:	2300      	movs	r3, #0
      4a:	4618      	mov	r0, r3
      4c:	461a      	mov	r2, r3
      4e:	4619      	mov	r1, r3
      50:	f001 fb88 	bl	1764 <trace_printf>
/workspace/benchmark/basicAlg_use/ta/CryptoVerifyTaEntry.c:120
      54:	2000      	movs	r0, #0
      56:	b003      	add	sp, #12
      58:	f85d fb04 	ldr.w	pc, [sp], #4
      5c:	00009389 	.word	0x00009389

00000060 <TA_CloseSessionEntryPoint>:
TA_CloseSessionEntryPoint():
/workspace/benchmark/basicAlg_use/ta/CryptoVerifyTaEntry.c:134
      60:	b507      	push	{r0, r1, r2, lr}
/workspace/benchmark/basicAlg_use/ta/CryptoVerifyTaEntry.c:135
      62:	4b06      	ldr	r3, [pc, #24]	; (7c <TA_CloseSessionEntryPoint+0x1c>)
      64:	447b      	add	r3, pc
      66:	9300      	str	r3, [sp, #0]
      68:	2300      	movs	r3, #0
      6a:	461a      	mov	r2, r3
      6c:	4619      	mov	r1, r3
      6e:	4618      	mov	r0, r3
      70:	f001 fb78 	bl	1764 <trace_printf>
/workspace/benchmark/basicAlg_use/ta/CryptoVerifyTaEntry.c:137
      74:	b003      	add	sp, #12
      76:	f85d fb04 	ldr.w	pc, [sp], #4
      7a:	bf00      	nop
      7c:	00009396 	.word	0x00009396

00000080 <TA_DestroyEntryPoint>:
TA_DestroyEntryPoint():
/workspace/benchmark/basicAlg_use/ta/CryptoVerifyTaEntry.c:152
      80:	b507      	push	{r0, r1, r2, lr}
/workspace/benchmark/basicAlg_use/ta/CryptoVerifyTaEntry.c:153
      82:	4b06      	ldr	r3, [pc, #24]	; (9c <TA_DestroyEntryPoint+0x1c>)
      84:	447b      	add	r3, pc
      86:	9300      	str	r3, [sp, #0]
      88:	2300      	movs	r3, #0
      8a:	461a      	mov	r2, r3
      8c:	4619      	mov	r1, r3
      8e:	4618      	mov	r0, r3
      90:	f001 fb68 	bl	1764 <trace_printf>
/workspace/benchmark/basicAlg_use/ta/CryptoVerifyTaEntry.c:154
      94:	b003      	add	sp, #12
      96:	f85d fb04 	ldr.w	pc, [sp], #4
      9a:	bf00      	nop
      9c:	000093a4 	.word	0x000093a4

000000a0 <TA_InvokeCommandEntryPoint>:
TA_InvokeCommandEntryPoint():
/workspace/benchmark/basicAlg_use/ta/CryptoVerifyTaEntry.c:174
      a0:	b573      	push	{r0, r1, r4, r5, r6, lr}
      a2:	461d      	mov	r5, r3
/workspace/benchmark/basicAlg_use/ta/CryptoVerifyTaEntry.c:178
      a4:	4b54      	ldr	r3, [pc, #336]	; (1f8 <TA_InvokeCommandEntryPoint+0x158>)
/workspace/benchmark/basicAlg_use/ta/CryptoVerifyTaEntry.c:174
      a6:	460e      	mov	r6, r1
/workspace/benchmark/basicAlg_use/ta/CryptoVerifyTaEntry.c:178
      a8:	9101      	str	r1, [sp, #4]
      aa:	447b      	add	r3, pc
      ac:	9300      	str	r3, [sp, #0]
      ae:	2300      	movs	r3, #0
/workspace/benchmark/basicAlg_use/ta/CryptoVerifyTaEntry.c:174
      b0:	4614      	mov	r4, r2
/workspace/benchmark/basicAlg_use/ta/CryptoVerifyTaEntry.c:178
      b2:	4619      	mov	r1, r3
      b4:	461a      	mov	r2, r3
      b6:	4618      	mov	r0, r3
/workspace/benchmark/basicAlg_use/ta/CryptoVerifyTaEntry.c:183
      b8:	3e01      	subs	r6, #1
/workspace/benchmark/basicAlg_use/ta/CryptoVerifyTaEntry.c:178
      ba:	f001 fb53 	bl	1764 <trace_printf>
/workspace/benchmark/basicAlg_use/ta/CryptoVerifyTaEntry.c:183
      be:	2e0a      	cmp	r6, #10
      c0:	f200 8096 	bhi.w	1f0 <TA_InvokeCommandEntryPoint+0x150>
      c4:	e8df f006 	tbb	[pc, r6]
      c8:	36281a06 	.word	0x36281a06
      cc:	60544494 	.word	0x60544494
      d0:	786c      	.short	0x786c
      d2:	86          	.byte	0x86
      d3:	00          	.byte	0x00
/workspace/benchmark/basicAlg_use/ta/CryptoVerifyTaEntry.c:186
      d4:	4b49      	ldr	r3, [pc, #292]	; (1fc <TA_InvokeCommandEntryPoint+0x15c>)
      d6:	447b      	add	r3, pc
      d8:	9300      	str	r3, [sp, #0]
      da:	2300      	movs	r3, #0
      dc:	4619      	mov	r1, r3
      de:	4618      	mov	r0, r3
      e0:	461a      	mov	r2, r3
      e2:	f001 fb3f 	bl	1764 <trace_printf>
/workspace/benchmark/basicAlg_use/ta/CryptoVerifyTaEntry.c:187
      e6:	4629      	mov	r1, r5
      e8:	4620      	mov	r0, r4
      ea:	f000 f89b 	bl	224 <g_CryptoTaHandle_Random>
/workspace/benchmark/basicAlg_use/ta/CryptoVerifyTaEntry.c:232
      ee:	3001      	adds	r0, #1
      f0:	f04f 30ff 	mov.w	r0, #4294967295	; 0xffffffff
      f4:	bf18      	it	ne
      f6:	2000      	movne	r0, #0
/workspace/benchmark/basicAlg_use/ta/CryptoVerifyTaEntry.c:243
      f8:	b002      	add	sp, #8
      fa:	bd70      	pop	{r4, r5, r6, pc}
/workspace/benchmark/basicAlg_use/ta/CryptoVerifyTaEntry.c:190
      fc:	4b40      	ldr	r3, [pc, #256]	; (200 <TA_InvokeCommandEntryPoint+0x160>)
      fe:	447b      	add	r3, pc
     100:	9300      	str	r3, [sp, #0]
     102:	2300      	movs	r3, #0
     104:	4619      	mov	r1, r3
     106:	4618      	mov	r0, r3
     108:	461a      	mov	r2, r3
     10a:	f001 fb2b 	bl	1764 <trace_printf>
/workspace/benchmark/basicAlg_use/ta/CryptoVerifyTaEntry.c:191
     10e:	4629      	mov	r1, r5
     110:	4620      	mov	r0, r4
     112:	f000 f88f 	bl	234 <g_CryptoTaHandle_Sha>
/workspace/benchmark/basicAlg_use/ta/CryptoVerifyTaEntry.c:192
     116:	e7ea      	b.n	ee <TA_InvokeCommandEntryPoint+0x4e>
/workspace/benchmark/basicAlg_use/ta/CryptoVerifyTaEntry.c:194
     118:	4b3a      	ldr	r3, [pc, #232]	; (204 <TA_InvokeCommandEntryPoint+0x164>)
     11a:	447b      	add	r3, pc
     11c:	9300      	str	r3, [sp, #0]
     11e:	2300      	movs	r3, #0
     120:	4619      	mov	r1, r3
     122:	4618      	mov	r0, r3
     124:	461a      	mov	r2, r3
     126:	f001 fb1d 	bl	1764 <trace_printf>
/workspace/benchmark/basicAlg_use/ta/CryptoVerifyTaEntry.c:195
     12a:	4629      	mov	r1, r5
     12c:	4620      	mov	r0, r4
     12e:	f000 f8a7 	bl	280 <g_CryptoTaHandle_Aes>
/workspace/benchmark/basicAlg_use/ta/CryptoVerifyTaEntry.c:196
     132:	e7dc      	b.n	ee <TA_InvokeCommandEntryPoint+0x4e>
/workspace/benchmark/basicAlg_use/ta/CryptoVerifyTaEntry.c:198
     134:	4b34      	ldr	r3, [pc, #208]	; (208 <TA_InvokeCommandEntryPoint+0x168>)
     136:	447b      	add	r3, pc
     138:	9300      	str	r3, [sp, #0]
     13a:	2300      	movs	r3, #0
     13c:	4619      	mov	r1, r3
     13e:	4618      	mov	r0, r3
     140:	461a      	mov	r2, r3
     142:	f001 fb0f 	bl	1764 <trace_printf>
/workspace/benchmark/basicAlg_use/ta/CryptoVerifyTaEntry.c:199
     146:	4629      	mov	r1, r5
     148:	4620      	mov	r0, r4
     14a:	f000 f911 	bl	370 <g_CryptoTaHandle_Pbkdf>
/workspace/benchmark/basicAlg_use/ta/CryptoVerifyTaEntry.c:200
     14e:	e7ce      	b.n	ee <TA_InvokeCommandEntryPoint+0x4e>
/workspace/benchmark/basicAlg_use/ta/CryptoVerifyTaEntry.c:202
     150:	4b2e      	ldr	r3, [pc, #184]	; (20c <TA_InvokeCommandEntryPoint+0x16c>)
     152:	447b      	add	r3, pc
     154:	9300      	str	r3, [sp, #0]
     156:	2300      	movs	r3, #0
     158:	461a      	mov	r2, r3
     15a:	4619      	mov	r1, r3
     15c:	4618      	mov	r0, r3
     15e:	f001 fb01 	bl	1764 <trace_printf>
/workspace/benchmark/basicAlg_use/ta/CryptoVerifyTaEntry.c:203
     162:	2302      	movs	r3, #2
     164:	2201      	movs	r2, #1
/workspace/benchmark/basicAlg_use/ta/CryptoVerifyTaEntry.c:207
     166:	4629      	mov	r1, r5
     168:	4620      	mov	r0, r4
     16a:	f000 f917 	bl	39c <g_CryptoTaHandle_Rsa>
/workspace/benchmark/basicAlg_use/ta/CryptoVerifyTaEntry.c:208
     16e:	e7be      	b.n	ee <TA_InvokeCommandEntryPoint+0x4e>
/workspace/benchmark/basicAlg_use/ta/CryptoVerifyTaEntry.c:206
     170:	4b27      	ldr	r3, [pc, #156]	; (210 <TA_InvokeCommandEntryPoint+0x170>)
     172:	447b      	add	r3, pc
     174:	9300      	str	r3, [sp, #0]
     176:	2300      	movs	r3, #0
     178:	461a      	mov	r2, r3
     17a:	4619      	mov	r1, r3
     17c:	4618      	mov	r0, r3
     17e:	f001 faf1 	bl	1764 <trace_printf>
/workspace/benchmark/basicAlg_use/ta/CryptoVerifyTaEntry.c:207
     182:	2302      	movs	r3, #2
     184:	461a      	mov	r2, r3
     186:	e7ee      	b.n	166 <TA_InvokeCommandEntryPoint+0xc6>
/workspace/benchmark/basicAlg_use/ta/CryptoVerifyTaEntry.c:210
     188:	4b22      	ldr	r3, [pc, #136]	; (214 <TA_InvokeCommandEntryPoint+0x174>)
     18a:	447b      	add	r3, pc
     18c:	9300      	str	r3, [sp, #0]
     18e:	2300      	movs	r3, #0
     190:	461a      	mov	r2, r3
     192:	4619      	mov	r1, r3
     194:	4618      	mov	r0, r3
     196:	f001 fae5 	bl	1764 <trace_printf>
/workspace/benchmark/basicAlg_use/ta/CryptoVerifyTaEntry.c:211
     19a:	2302      	movs	r3, #2
     19c:	2203      	movs	r2, #3
     19e:	e7e2      	b.n	166 <TA_InvokeCommandEntryPoint+0xc6>
/workspace/benchmark/basicAlg_use/ta/CryptoVerifyTaEntry.c:214
     1a0:	4b1d      	ldr	r3, [pc, #116]	; (218 <TA_InvokeCommandEntryPoint+0x178>)
     1a2:	447b      	add	r3, pc
     1a4:	9300      	str	r3, [sp, #0]
     1a6:	2300      	movs	r3, #0
     1a8:	461a      	mov	r2, r3
     1aa:	4619      	mov	r1, r3
     1ac:	4618      	mov	r0, r3
     1ae:	f001 fad9 	bl	1764 <trace_printf>
/workspace/benchmark/basicAlg_use/ta/CryptoVerifyTaEntry.c:215
     1b2:	2302      	movs	r3, #2
     1b4:	2204      	movs	r2, #4
     1b6:	e7d6      	b.n	166 <TA_InvokeCommandEntryPoint+0xc6>
/workspace/benchmark/basicAlg_use/ta/CryptoVerifyTaEntry.c:218
     1b8:	4b18      	ldr	r3, [pc, #96]	; (21c <TA_InvokeCommandEntryPoint+0x17c>)
     1ba:	447b      	add	r3, pc
     1bc:	9300      	str	r3, [sp, #0]
     1be:	2300      	movs	r3, #0
     1c0:	4619      	mov	r1, r3
     1c2:	4618      	mov	r0, r3
     1c4:	461a      	mov	r2, r3
     1c6:	f001 facd 	bl	1764 <trace_printf>
/workspace/benchmark/basicAlg_use/ta/CryptoVerifyTaEntry.c:219
     1ca:	4629      	mov	r1, r5
     1cc:	4620      	mov	r0, r4
     1ce:	f000 f842 	bl	256 <g_CryptoTaHandle_hmac>
/workspace/benchmark/basicAlg_use/ta/CryptoVerifyTaEntry.c:220
     1d2:	e78c      	b.n	ee <TA_InvokeCommandEntryPoint+0x4e>
/workspace/benchmark/basicAlg_use/ta/CryptoVerifyTaEntry.c:222
     1d4:	4b12      	ldr	r3, [pc, #72]	; (220 <TA_InvokeCommandEntryPoint+0x180>)
     1d6:	447b      	add	r3, pc
     1d8:	9300      	str	r3, [sp, #0]
     1da:	2300      	movs	r3, #0
     1dc:	4619      	mov	r1, r3
     1de:	4618      	mov	r0, r3
     1e0:	461a      	mov	r2, r3
     1e2:	f001 fabf 	bl	1764 <trace_printf>
/workspace/benchmark/basicAlg_use/ta/CryptoVerifyTaEntry.c:223
     1e6:	4629      	mov	r1, r5
     1e8:	4620      	mov	r0, r4
     1ea:	f000 f9e3 	bl	5b4 <g_CryptoTaHandle_base64>
/workspace/benchmark/basicAlg_use/ta/CryptoVerifyTaEntry.c:224
     1ee:	e77e      	b.n	ee <TA_InvokeCommandEntryPoint+0x4e>
/workspace/benchmark/basicAlg_use/ta/CryptoVerifyTaEntry.c:234
     1f0:	f04f 30ff 	mov.w	r0, #4294967295	; 0xffffffff
/workspace/benchmark/basicAlg_use/ta/CryptoVerifyTaEntry.c:242
     1f4:	e780      	b.n	f8 <TA_InvokeCommandEntryPoint+0x58>
     1f6:	bf00      	nop
     1f8:	000093a7 	.word	0x000093a7
     1fc:	00009388 	.word	0x00009388
     200:	00009383 	.word	0x00009383
     204:	0000937b 	.word	0x0000937b
     208:	0000937b 	.word	0x0000937b
     20c:	00009378 	.word	0x00009378
     210:	00009372 	.word	0x00009372
     214:	00009374 	.word	0x00009374
     218:	00009377 	.word	0x00009377
     21c:	0000937c 	.word	0x0000937c
     220:	0000936d 	.word	0x0000936d

00000224 <g_CryptoTaHandle_Random>:
g_CryptoTaHandle_Random():
/workspace/benchmark/basicAlg_use/ta/CryptoVerifyTaHandle.c:319
     224:	b508      	push	{r3, lr}
     226:	460b      	mov	r3, r1
/workspace/benchmark/basicAlg_use/ta/CryptoVerifyTaHandle.c:328
     228:	6809      	ldr	r1, [r1, #0]
     22a:	6858      	ldr	r0, [r3, #4]
     22c:	f000 fdcc 	bl	dc8 <g_CryptoTaOther_Random>
/workspace/benchmark/basicAlg_use/ta/CryptoVerifyTaHandle.c:331
     230:	2000      	movs	r0, #0
     232:	bd08      	pop	{r3, pc}

00000234 <g_CryptoTaHandle_Sha>:
g_CryptoTaHandle_Sha():
/workspace/benchmark/basicAlg_use/ta/CryptoVerifyTaHandle.c:336
     234:	b530      	push	{r4, r5, lr}
     236:	b085      	sub	sp, #20
/workspace/benchmark/basicAlg_use/ta/CryptoVerifyTaHandle.c:345
     238:	680d      	ldr	r5, [r1, #0]
/workspace/benchmark/basicAlg_use/ta/CryptoVerifyTaHandle.c:349
     23a:	ac04      	add	r4, sp, #16
/workspace/benchmark/basicAlg_use/ta/CryptoVerifyTaHandle.c:346
     23c:	684a      	ldr	r2, [r1, #4]
/workspace/benchmark/basicAlg_use/ta/CryptoVerifyTaHandle.c:348
     23e:	690b      	ldr	r3, [r1, #16]
/workspace/benchmark/basicAlg_use/ta/CryptoVerifyTaHandle.c:347
     240:	6888      	ldr	r0, [r1, #8]
/workspace/benchmark/basicAlg_use/ta/CryptoVerifyTaHandle.c:349
     242:	6949      	ldr	r1, [r1, #20]
     244:	f844 1d04 	str.w	r1, [r4, #-4]!
/workspace/benchmark/basicAlg_use/ta/CryptoVerifyTaHandle.c:352
     248:	4629      	mov	r1, r5
     24a:	9400      	str	r4, [sp, #0]
     24c:	f000 fad6 	bl	7fc <g_CryptoTaHash_sha>
/workspace/benchmark/basicAlg_use/ta/CryptoVerifyTaHandle.c:355
     250:	2000      	movs	r0, #0
     252:	b005      	add	sp, #20
     254:	bd30      	pop	{r4, r5, pc}

00000256 <g_CryptoTaHandle_hmac>:
g_CryptoTaHandle_hmac():
/workspace/benchmark/basicAlg_use/ta/CryptoVerifyTaHandle.c:359
     256:	b51f      	push	{r0, r1, r2, r3, r4, lr}
/workspace/benchmark/basicAlg_use/ta/CryptoVerifyTaHandle.c:372
     258:	4a08      	ldr	r2, [pc, #32]	; (27c <g_CryptoTaHandle_hmac+0x26>)
     25a:	688b      	ldr	r3, [r1, #8]
     25c:	447a      	add	r2, pc
     25e:	9302      	str	r3, [sp, #8]
     260:	2316      	movs	r3, #22
     262:	9301      	str	r3, [sp, #4]
     264:	f102 0313 	add.w	r3, r2, #19
     268:	9300      	str	r3, [sp, #0]
     26a:	2312      	movs	r3, #18
     26c:	c903      	ldmia	r1, {r0, r1}
     26e:	f000 fb51 	bl	914 <g_CryptoTaHash_hmac>
/workspace/benchmark/basicAlg_use/ta/CryptoVerifyTaHandle.c:376
     272:	2000      	movs	r0, #0
     274:	b005      	add	sp, #20
     276:	f85d fb04 	ldr.w	pc, [sp], #4
     27a:	bf00      	nop
     27c:	0000bda0 	.word	0x0000bda0

00000280 <g_CryptoTaHandle_Aes>:
g_CryptoTaHandle_Aes():
/workspace/benchmark/basicAlg_use/ta/CryptoVerifyTaHandle.c:383
     280:	e92d 41f0 	stmdb	sp!, {r4, r5, r6, r7, r8, lr}
/workspace/benchmark/basicAlg_use/ta/CryptoVerifyTaHandle.c:386
     284:	2301      	movs	r3, #1
/workspace/benchmark/basicAlg_use/ta/CryptoVerifyTaHandle.c:383
     286:	460d      	mov	r5, r1
     288:	b092      	sub	sp, #72	; 0x48
/workspace/benchmark/basicAlg_use/ta/CryptoVerifyTaHandle.c:386
     28a:	f04f 0806 	mov.w	r8, #6
     28e:	f88d 301c 	strb.w	r3, [sp, #28]
     292:	2302      	movs	r3, #2
     294:	f88d 301d 	strb.w	r3, [sp, #29]
     298:	2303      	movs	r3, #3
     29a:	f88d 301e 	strb.w	r3, [sp, #30]
     29e:	2304      	movs	r3, #4
     2a0:	f88d 301f 	strb.w	r3, [sp, #31]
     2a4:	2305      	movs	r3, #5
     2a6:	f88d 3020 	strb.w	r3, [sp, #32]
/workspace/benchmark/basicAlg_use/ta/CryptoVerifyTaHandle.c:389
     2aa:	4b2e      	ldr	r3, [pc, #184]	; (364 <g_CryptoTaHandle_Aes+0xe4>)
/workspace/benchmark/basicAlg_use/ta/CryptoVerifyTaHandle.c:386
     2ac:	f88d 8021 	strb.w	r8, [sp, #33]	; 0x21
/workspace/benchmark/basicAlg_use/ta/CryptoVerifyTaHandle.c:389
     2b0:	447b      	add	r3, pc
     2b2:	9300      	str	r3, [sp, #0]
     2b4:	2300      	movs	r3, #0
     2b6:	461a      	mov	r2, r3
     2b8:	4619      	mov	r1, r3
     2ba:	4618      	mov	r0, r3
     2bc:	f001 fa52 	bl	1764 <trace_printf>
/workspace/benchmark/basicAlg_use/ta/CryptoVerifyTaHandle.c:393
     2c0:	68ab      	ldr	r3, [r5, #8]
     2c2:	9309      	str	r3, [sp, #36]	; 0x24
/workspace/benchmark/basicAlg_use/ta/CryptoVerifyTaHandle.c:396
     2c4:	4642      	mov	r2, r8
/workspace/benchmark/basicAlg_use/ta/CryptoVerifyTaHandle.c:395
     2c6:	69ab      	ldr	r3, [r5, #24]
/workspace/benchmark/basicAlg_use/ta/CryptoVerifyTaHandle.c:396
     2c8:	a907      	add	r1, sp, #28
/workspace/benchmark/basicAlg_use/ta/CryptoVerifyTaHandle.c:394
     2ca:	6928      	ldr	r0, [r5, #16]
/workspace/benchmark/basicAlg_use/ta/CryptoVerifyTaHandle.c:392
     2cc:	e895 00c0 	ldmia.w	r5, {r6, r7}
/workspace/benchmark/basicAlg_use/ta/CryptoVerifyTaHandle.c:395
     2d0:	930d      	str	r3, [sp, #52]	; 0x34
/workspace/benchmark/basicAlg_use/ta/CryptoVerifyTaHandle.c:394
     2d2:	900a      	str	r0, [sp, #40]	; 0x28
/workspace/benchmark/basicAlg_use/ta/CryptoVerifyTaHandle.c:396
     2d4:	f002 f85a 	bl	238c <TEE_MemMove>
l_CryptoTaHandle_SetAes128Key():
/workspace/benchmark/basicAlg_use/ta/CryptoVerifyTaHandle.c:230
     2d8:	4b23      	ldr	r3, [pc, #140]	; (368 <g_CryptoTaHandle_Aes+0xe8>)
l_CryptoTaHandle_SetAesAction():
/workspace/benchmark/basicAlg_use/ta/CryptoVerifyTaHandle.c:238
     2da:	2e01      	cmp	r6, #1
l_CryptoTaHandle_SetAes128Key():
/workspace/benchmark/basicAlg_use/ta/CryptoVerifyTaHandle.c:230
     2dc:	447b      	add	r3, pc
     2de:	f103 022a 	add.w	r2, r3, #42	; 0x2a
/workspace/benchmark/basicAlg_use/ta/CryptoVerifyTaHandle.c:231
     2e2:	f103 033a 	add.w	r3, r3, #58	; 0x3a
/workspace/benchmark/basicAlg_use/ta/CryptoVerifyTaHandle.c:230
     2e6:	920b      	str	r2, [sp, #44]	; 0x2c
/workspace/benchmark/basicAlg_use/ta/CryptoVerifyTaHandle.c:231
     2e8:	930c      	str	r3, [sp, #48]	; 0x30
/workspace/benchmark/basicAlg_use/ta/CryptoVerifyTaHandle.c:232
     2ea:	f04f 0380 	mov.w	r3, #128	; 0x80
     2ee:	930e      	str	r3, [sp, #56]	; 0x38
/workspace/benchmark/basicAlg_use/ta/CryptoVerifyTaHandle.c:233
     2f0:	f04f 0310 	mov.w	r3, #16
     2f4:	930f      	str	r3, [sp, #60]	; 0x3c
l_CryptoTaHandle_SetAesAction():
/workspace/benchmark/basicAlg_use/ta/CryptoVerifyTaHandle.c:238
     2f6:	d00b      	beq.n	310 <g_CryptoTaHandle_Aes+0x90>
/workspace/benchmark/basicAlg_use/ta/CryptoVerifyTaHandle.c:244
     2f8:	2e02      	cmp	r6, #2
     2fa:	f04f 0600 	mov.w	r6, #0
     2fe:	bf08      	it	eq
     300:	2601      	moveq	r6, #1
/workspace/benchmark/basicAlg_use/ta/CryptoVerifyTaHandle.c:250
     302:	1e7b      	subs	r3, r7, #1
     304:	2b03      	cmp	r3, #3
     306:	d806      	bhi.n	316 <g_CryptoTaHandle_Aes+0x96>
     308:	e8df f003 	tbb	[pc, r3]
     30c:	22201e04 	.word	0x22201e04
/workspace/benchmark/basicAlg_use/ta/CryptoVerifyTaHandle.c:241
     310:	2600      	movs	r6, #0
     312:	e7f6      	b.n	302 <g_CryptoTaHandle_Aes+0x82>
/workspace/benchmark/basicAlg_use/ta/CryptoVerifyTaHandle.c:253
     314:	4c0f      	ldr	r4, [pc, #60]	; (354 <g_CryptoTaHandle_Aes+0xd4>)
g_CryptoTaHandle_Aes():
/workspace/benchmark/basicAlg_use/ta/CryptoVerifyTaHandle.c:403
     316:	4b15      	ldr	r3, [pc, #84]	; (36c <g_CryptoTaHandle_Aes+0xec>)
/workspace/benchmark/basicAlg_use/ta/CryptoVerifyTaHandle.c:406
     318:	ad0d      	add	r5, sp, #52	; 0x34
/workspace/benchmark/basicAlg_use/ta/CryptoVerifyTaHandle.c:403
     31a:	9401      	str	r4, [sp, #4]
     31c:	447b      	add	r3, pc
     31e:	9300      	str	r3, [sp, #0]
     320:	2300      	movs	r3, #0
     322:	9602      	str	r6, [sp, #8]
     324:	461a      	mov	r2, r3
     326:	4619      	mov	r1, r3
     328:	4618      	mov	r0, r3
     32a:	f001 fa1b 	bl	1764 <trace_printf>
/workspace/benchmark/basicAlg_use/ta/CryptoVerifyTaHandle.c:406
     32e:	9410      	str	r4, [sp, #64]	; 0x40
     330:	466c      	mov	r4, sp
     332:	cd0f      	ldmia	r5!, {r0, r1, r2, r3}
     334:	c40f      	stmia	r4!, {r0, r1, r2, r3}
     336:	ab09      	add	r3, sp, #36	; 0x24
     338:	6026      	str	r6, [r4, #0]
     33a:	cb0f      	ldmia	r3, {r0, r1, r2, r3}
     33c:	f000 f96c 	bl	618 <g_CryptoTaAes_AesOper>
/workspace/benchmark/basicAlg_use/ta/CryptoVerifyTaHandle.c:409
     340:	2000      	movs	r0, #0
     342:	b012      	add	sp, #72	; 0x48
     344:	e8bd 81f0 	ldmia.w	sp!, {r4, r5, r6, r7, r8, pc}
l_CryptoTaHandle_SetAesAction():
/workspace/benchmark/basicAlg_use/ta/CryptoVerifyTaHandle.c:256
     348:	4c03      	ldr	r4, [pc, #12]	; (358 <g_CryptoTaHandle_Aes+0xd8>)
     34a:	e7e4      	b.n	316 <g_CryptoTaHandle_Aes+0x96>
/workspace/benchmark/basicAlg_use/ta/CryptoVerifyTaHandle.c:259
     34c:	4c03      	ldr	r4, [pc, #12]	; (35c <g_CryptoTaHandle_Aes+0xdc>)
     34e:	e7e2      	b.n	316 <g_CryptoTaHandle_Aes+0x96>
/workspace/benchmark/basicAlg_use/ta/CryptoVerifyTaHandle.c:262
     350:	4c03      	ldr	r4, [pc, #12]	; (360 <g_CryptoTaHandle_Aes+0xe0>)
     352:	e7e0      	b.n	316 <g_CryptoTaHandle_Aes+0x96>
     354:	10000110 	.word	0x10000110
     358:	10000010 	.word	0x10000010
     35c:	10000210 	.word	0x10000210
     360:	10000310 	.word	0x10000310
     364:	000092a2 	.word	0x000092a2
     368:	0000bd20 	.word	0x0000bd20
     36c:	00009255 	.word	0x00009255

00000370 <g_CryptoTaHandle_Pbkdf>:
g_CryptoTaHandle_Pbkdf():
/workspace/benchmark/basicAlg_use/ta/CryptoVerifyTaHandle.c:417
     370:	b51f      	push	{r0, r1, r2, r3, r4, lr}
/workspace/benchmark/basicAlg_use/ta/CryptoVerifyTaHandle.c:427
     372:	4809      	ldr	r0, [pc, #36]	; (398 <g_CryptoTaHandle_Pbkdf+0x28>)
     374:	680b      	ldr	r3, [r1, #0]
     376:	9302      	str	r3, [sp, #8]
     378:	4478      	add	r0, pc
     37a:	f100 0213 	add.w	r2, r0, #19
     37e:	684b      	ldr	r3, [r1, #4]
     380:	2112      	movs	r1, #18
     382:	9301      	str	r3, [sp, #4]
     384:	f44f 6380 	mov.w	r3, #1024	; 0x400
     388:	9300      	str	r3, [sp, #0]
     38a:	2316      	movs	r3, #22
     38c:	f000 fc1f 	bl	bce <g_CryptoTaPbkdf_PBKDF2>
/workspace/benchmark/basicAlg_use/ta/CryptoVerifyTaHandle.c:430
     390:	2000      	movs	r0, #0
     392:	b005      	add	sp, #20
     394:	f85d fb04 	ldr.w	pc, [sp], #4
     398:	0000bc84 	.word	0x0000bc84

0000039c <g_CryptoTaHandle_Rsa>:
g_CryptoTaHandle_Rsa():
/workspace/benchmark/basicAlg_use/ta/CryptoVerifyTaHandle.c:436
     39c:	e92d 43f0 	stmdb	sp!, {r4, r5, r6, r7, r8, r9, lr}
     3a0:	4699      	mov	r9, r3
     3a2:	4615      	mov	r5, r2
     3a4:	b091      	sub	sp, #68	; 0x44
/workspace/benchmark/basicAlg_use/ta/CryptoVerifyTaHandle.c:449
     3a6:	68cb      	ldr	r3, [r1, #12]
/workspace/benchmark/basicAlg_use/ta/CryptoVerifyTaHandle.c:447
     3a8:	e891 0140 	ldmia.w	r1, {r6, r8}
/workspace/benchmark/basicAlg_use/ta/CryptoVerifyTaHandle.c:449
     3ac:	9308      	str	r3, [sp, #32]
/workspace/benchmark/basicAlg_use/ta/CryptoVerifyTaHandle.c:450
     3ae:	690b      	ldr	r3, [r1, #16]
/workspace/benchmark/basicAlg_use/ta/CryptoVerifyTaHandle.c:448
     3b0:	688f      	ldr	r7, [r1, #8]
/workspace/benchmark/basicAlg_use/ta/CryptoVerifyTaHandle.c:452
     3b2:	2b01      	cmp	r3, #1
     3b4:	d13b      	bne.n	42e <g_CryptoTaHandle_Rsa+0x92>
l_CryptoTaHandle_SetRsa1024Key():
/workspace/benchmark/basicAlg_use/ta/CryptoVerifyTaHandle.c:273
     3b6:	4b74      	ldr	r3, [pc, #464]	; (588 <g_CryptoTaHandle_Rsa+0x1ec>)
/workspace/benchmark/basicAlg_use/ta/CryptoVerifyTaHandle.c:279
     3b8:	f1b9 0f01 	cmp.w	r9, #1
/workspace/benchmark/basicAlg_use/ta/CryptoVerifyTaHandle.c:273
     3bc:	447b      	add	r3, pc
     3be:	f103 024a 	add.w	r2, r3, #74	; 0x4a
     3c2:	920a      	str	r2, [sp, #40]	; 0x28
/workspace/benchmark/basicAlg_use/ta/CryptoVerifyTaHandle.c:274
     3c4:	f103 02ca 	add.w	r2, r3, #202	; 0xca
     3c8:	9209      	str	r2, [sp, #36]	; 0x24
/workspace/benchmark/basicAlg_use/ta/CryptoVerifyTaHandle.c:275
     3ca:	f503 72a5 	add.w	r2, r3, #330	; 0x14a
     3ce:	920b      	str	r2, [sp, #44]	; 0x2c
/workspace/benchmark/basicAlg_use/ta/CryptoVerifyTaHandle.c:276
     3d0:	f8d3 21cc 	ldr.w	r2, [r3, #460]	; 0x1cc
     3d4:	920d      	str	r2, [sp, #52]	; 0x34
/workspace/benchmark/basicAlg_use/ta/CryptoVerifyTaHandle.c:277
     3d6:	f8d3 21d0 	ldr.w	r2, [r3, #464]	; 0x1d0
/workspace/benchmark/basicAlg_use/ta/CryptoVerifyTaHandle.c:278
     3da:	f8d3 31d4 	ldr.w	r3, [r3, #468]	; 0x1d4
/workspace/benchmark/basicAlg_use/ta/CryptoVerifyTaHandle.c:277
     3de:	920c      	str	r2, [sp, #48]	; 0x30
/workspace/benchmark/basicAlg_use/ta/CryptoVerifyTaHandle.c:278
     3e0:	930e      	str	r3, [sp, #56]	; 0x38
/workspace/benchmark/basicAlg_use/ta/CryptoVerifyTaHandle.c:279
     3e2:	d022      	beq.n	42a <g_CryptoTaHandle_Rsa+0x8e>
/workspace/benchmark/basicAlg_use/ta/CryptoVerifyTaHandle.c:282
     3e4:	4a65      	ldr	r2, [pc, #404]	; (57c <g_CryptoTaHandle_Rsa+0x1e0>)
/workspace/benchmark/basicAlg_use/ta/CryptoVerifyTaHandle.c:281
     3e6:	1eec      	subs	r4, r5, #3
/workspace/benchmark/basicAlg_use/ta/CryptoVerifyTaHandle.c:282
     3e8:	4965      	ldr	r1, [pc, #404]	; (580 <g_CryptoTaHandle_Rsa+0x1e4>)
     3ea:	2c01      	cmp	r4, #1
     3ec:	460c      	mov	r4, r1
     3ee:	bf98      	it	ls
     3f0:	4614      	movls	r4, r2
/workspace/benchmark/basicAlg_use/ta/CryptoVerifyTaHandle.c:291
     3f2:	4b66      	ldr	r3, [pc, #408]	; (58c <g_CryptoTaHandle_Rsa+0x1f0>)
     3f4:	9401      	str	r4, [sp, #4]
     3f6:	447b      	add	r3, pc
     3f8:	9300      	str	r3, [sp, #0]
     3fa:	2300      	movs	r3, #0
     3fc:	461a      	mov	r2, r3
     3fe:	4619      	mov	r1, r3
     400:	4618      	mov	r0, r3
     402:	f001 f9af 	bl	1764 <trace_printf>
g_CryptoTaHandle_Rsa():
/workspace/benchmark/basicAlg_use/ta/CryptoVerifyTaHandle.c:455
     406:	4b62      	ldr	r3, [pc, #392]	; (590 <g_CryptoTaHandle_Rsa+0x1f4>)
     408:	f8cd 9004 	str.w	r9, [sp, #4]
     40c:	447b      	add	r3, pc
/workspace/benchmark/basicAlg_use/ta/CryptoVerifyTaHandle.c:461
     40e:	9300      	str	r3, [sp, #0]
     410:	2300      	movs	r3, #0
     412:	461a      	mov	r2, r3
     414:	4619      	mov	r1, r3
     416:	4618      	mov	r0, r3
     418:	f001 f9a4 	bl	1764 <trace_printf>
/workspace/benchmark/basicAlg_use/ta/CryptoVerifyTaHandle.c:467
     41c:	3d01      	subs	r5, #1
     41e:	2d03      	cmp	r5, #3
     420:	d859      	bhi.n	4d6 <g_CryptoTaHandle_Rsa+0x13a>
     422:	e8df f005 	tbb	[pc, r5]
     426:	5c3f      	.short	0x5c3f
     428:	9076      	.short	0x9076
l_CryptoTaHandle_SetRsa1024Key():
/workspace/benchmark/basicAlg_use/ta/CryptoVerifyTaHandle.c:288
     42a:	4c56      	ldr	r4, [pc, #344]	; (584 <g_CryptoTaHandle_Rsa+0x1e8>)
     42c:	e7e1      	b.n	3f2 <g_CryptoTaHandle_Rsa+0x56>
g_CryptoTaHandle_Rsa():
/workspace/benchmark/basicAlg_use/ta/CryptoVerifyTaHandle.c:457
     42e:	2b02      	cmp	r3, #2
     430:	d1f4      	bne.n	41c <g_CryptoTaHandle_Rsa+0x80>
l_CryptoTaHandle_SetRsa2048Key():
/workspace/benchmark/basicAlg_use/ta/CryptoVerifyTaHandle.c:296
     432:	4b58      	ldr	r3, [pc, #352]	; (594 <g_CryptoTaHandle_Rsa+0x1f8>)
/workspace/benchmark/basicAlg_use/ta/CryptoVerifyTaHandle.c:302
     434:	f1b9 0f01 	cmp.w	r9, #1
/workspace/benchmark/basicAlg_use/ta/CryptoVerifyTaHandle.c:296
     438:	447b      	add	r3, pc
     43a:	f503 72ec 	add.w	r2, r3, #472	; 0x1d8
     43e:	920a      	str	r2, [sp, #40]	; 0x28
/workspace/benchmark/basicAlg_use/ta/CryptoVerifyTaHandle.c:297
     440:	f503 7236 	add.w	r2, r3, #728	; 0x2d8
     444:	9209      	str	r2, [sp, #36]	; 0x24
/workspace/benchmark/basicAlg_use/ta/CryptoVerifyTaHandle.c:298
     446:	f503 7276 	add.w	r2, r3, #984	; 0x3d8
     44a:	920b      	str	r2, [sp, #44]	; 0x2c
/workspace/benchmark/basicAlg_use/ta/CryptoVerifyTaHandle.c:299
     44c:	f8d3 24d8 	ldr.w	r2, [r3, #1240]	; 0x4d8
     450:	920d      	str	r2, [sp, #52]	; 0x34
/workspace/benchmark/basicAlg_use/ta/CryptoVerifyTaHandle.c:300
     452:	f8d3 24dc 	ldr.w	r2, [r3, #1244]	; 0x4dc
/workspace/benchmark/basicAlg_use/ta/CryptoVerifyTaHandle.c:301
     456:	f8d3 34e0 	ldr.w	r3, [r3, #1248]	; 0x4e0
/workspace/benchmark/basicAlg_use/ta/CryptoVerifyTaHandle.c:300
     45a:	920c      	str	r2, [sp, #48]	; 0x30
/workspace/benchmark/basicAlg_use/ta/CryptoVerifyTaHandle.c:301
     45c:	930e      	str	r3, [sp, #56]	; 0x38
/workspace/benchmark/basicAlg_use/ta/CryptoVerifyTaHandle.c:302
     45e:	d01f      	beq.n	4a0 <g_CryptoTaHandle_Rsa+0x104>
/workspace/benchmark/basicAlg_use/ta/CryptoVerifyTaHandle.c:305
     460:	4a46      	ldr	r2, [pc, #280]	; (57c <g_CryptoTaHandle_Rsa+0x1e0>)
/workspace/benchmark/basicAlg_use/ta/CryptoVerifyTaHandle.c:304
     462:	1eec      	subs	r4, r5, #3
/workspace/benchmark/basicAlg_use/ta/CryptoVerifyTaHandle.c:305
     464:	4946      	ldr	r1, [pc, #280]	; (580 <g_CryptoTaHandle_Rsa+0x1e4>)
     466:	2c01      	cmp	r4, #1
     468:	460c      	mov	r4, r1
     46a:	bf98      	it	ls
     46c:	4614      	movls	r4, r2
/workspace/benchmark/basicAlg_use/ta/CryptoVerifyTaHandle.c:314
     46e:	4b4a      	ldr	r3, [pc, #296]	; (598 <g_CryptoTaHandle_Rsa+0x1fc>)
     470:	9401      	str	r4, [sp, #4]
     472:	447b      	add	r3, pc
     474:	9300      	str	r3, [sp, #0]
     476:	2300      	movs	r3, #0
     478:	461a      	mov	r2, r3
     47a:	4619      	mov	r1, r3
     47c:	4618      	mov	r0, r3
     47e:	f001 f971 	bl	1764 <trace_printf>
g_CryptoTaHandle_Rsa():
/workspace/benchmark/basicAlg_use/ta/CryptoVerifyTaHandle.c:460
     482:	4b46      	ldr	r3, [pc, #280]	; (59c <g_CryptoTaHandle_Rsa+0x200>)
     484:	f8cd 9004 	str.w	r9, [sp, #4]
     488:	447b      	add	r3, pc
     48a:	9300      	str	r3, [sp, #0]
     48c:	2300      	movs	r3, #0
     48e:	461a      	mov	r2, r3
     490:	4619      	mov	r1, r3
     492:	4618      	mov	r0, r3
     494:	f001 f966 	bl	1764 <trace_printf>
/workspace/benchmark/basicAlg_use/ta/CryptoVerifyTaHandle.c:461
     498:	4b41      	ldr	r3, [pc, #260]	; (5a0 <g_CryptoTaHandle_Rsa+0x204>)
     49a:	9401      	str	r4, [sp, #4]
     49c:	447b      	add	r3, pc
     49e:	e7b6      	b.n	40e <g_CryptoTaHandle_Rsa+0x72>
l_CryptoTaHandle_SetRsa2048Key():
/workspace/benchmark/basicAlg_use/ta/CryptoVerifyTaHandle.c:311
     4a0:	4c38      	ldr	r4, [pc, #224]	; (584 <g_CryptoTaHandle_Rsa+0x1e8>)
     4a2:	e7e4      	b.n	46e <g_CryptoTaHandle_Rsa+0xd2>
g_CryptoTaHandle_Rsa():
/workspace/benchmark/basicAlg_use/ta/CryptoVerifyTaHandle.c:470
     4a4:	4b3f      	ldr	r3, [pc, #252]	; (5a4 <g_CryptoTaHandle_Rsa+0x208>)
     4a6:	447b      	add	r3, pc
     4a8:	9300      	str	r3, [sp, #0]
     4aa:	2300      	movs	r3, #0
     4ac:	461a      	mov	r2, r3
     4ae:	4619      	mov	r1, r3
     4b0:	4618      	mov	r0, r3
     4b2:	f001 f957 	bl	1764 <trace_printf>
/workspace/benchmark/basicAlg_use/ta/CryptoVerifyTaHandle.c:471
     4b6:	ab08      	add	r3, sp, #32
     4b8:	9306      	str	r3, [sp, #24]
     4ba:	ab10      	add	r3, sp, #64	; 0x40
     4bc:	940f      	str	r4, [sp, #60]	; 0x3c
     4be:	f8cd 8014 	str.w	r8, [sp, #20]
     4c2:	9704      	str	r7, [sp, #16]
     4c4:	9603      	str	r6, [sp, #12]
     4c6:	e913 0007 	ldmdb	r3, {r0, r1, r2}
     4ca:	ab09      	add	r3, sp, #36	; 0x24
     4cc:	e88d 0007 	stmia.w	sp, {r0, r1, r2}
     4d0:	cb0f      	ldmia	r3, {r0, r1, r2, r3}
     4d2:	f000 fe57 	bl	1184 <g_CryptoTaRsa_rsaEncOper>
/workspace/benchmark/basicAlg_use/ta/CryptoVerifyTaHandle.c:490
     4d6:	2000      	movs	r0, #0
     4d8:	b011      	add	sp, #68	; 0x44
     4da:	e8bd 83f0 	ldmia.w	sp!, {r4, r5, r6, r7, r8, r9, pc}
/workspace/benchmark/basicAlg_use/ta/CryptoVerifyTaHandle.c:474
     4de:	4b32      	ldr	r3, [pc, #200]	; (5a8 <g_CryptoTaHandle_Rsa+0x20c>)
     4e0:	447b      	add	r3, pc
     4e2:	9300      	str	r3, [sp, #0]
     4e4:	2300      	movs	r3, #0
     4e6:	461a      	mov	r2, r3
     4e8:	4619      	mov	r1, r3
     4ea:	4618      	mov	r0, r3
     4ec:	f001 f93a 	bl	1764 <trace_printf>
/workspace/benchmark/basicAlg_use/ta/CryptoVerifyTaHandle.c:475
     4f0:	ab08      	add	r3, sp, #32
     4f2:	9306      	str	r3, [sp, #24]
     4f4:	ab10      	add	r3, sp, #64	; 0x40
     4f6:	940f      	str	r4, [sp, #60]	; 0x3c
     4f8:	f8cd 8014 	str.w	r8, [sp, #20]
     4fc:	9704      	str	r7, [sp, #16]
     4fe:	9603      	str	r6, [sp, #12]
     500:	e913 0007 	ldmdb	r3, {r0, r1, r2}
     504:	ab09      	add	r3, sp, #36	; 0x24
     506:	e88d 0007 	stmia.w	sp, {r0, r1, r2}
     50a:	cb0f      	ldmia	r3, {r0, r1, r2, r3}
     50c:	f000 febc 	bl	1288 <g_CryptoTaRsa_rsaDecOper>
/workspace/benchmark/basicAlg_use/ta/CryptoVerifyTaHandle.c:476
     510:	e7e1      	b.n	4d6 <g_CryptoTaHandle_Rsa+0x13a>
/workspace/benchmark/basicAlg_use/ta/CryptoVerifyTaHandle.c:478
     512:	4b26      	ldr	r3, [pc, #152]	; (5ac <g_CryptoTaHandle_Rsa+0x210>)
     514:	447b      	add	r3, pc
     516:	9300      	str	r3, [sp, #0]
     518:	2300      	movs	r3, #0
     51a:	461a      	mov	r2, r3
     51c:	4619      	mov	r1, r3
     51e:	4618      	mov	r0, r3
     520:	f001 f920 	bl	1764 <trace_printf>
/workspace/benchmark/basicAlg_use/ta/CryptoVerifyTaHandle.c:479
     524:	ab08      	add	r3, sp, #32
     526:	9306      	str	r3, [sp, #24]
     528:	ab10      	add	r3, sp, #64	; 0x40
     52a:	940f      	str	r4, [sp, #60]	; 0x3c
     52c:	f8cd 8014 	str.w	r8, [sp, #20]
     530:	9704      	str	r7, [sp, #16]
     532:	9603      	str	r6, [sp, #12]
     534:	e913 0007 	ldmdb	r3, {r0, r1, r2}
     538:	ab09      	add	r3, sp, #36	; 0x24
     53a:	e88d 0007 	stmia.w	sp, {r0, r1, r2}
     53e:	cb0f      	ldmia	r3, {r0, r1, r2, r3}
     540:	f000 ff26 	bl	1390 <g_CryptoTaRsa_rsaSignOper>
/workspace/benchmark/basicAlg_use/ta/CryptoVerifyTaHandle.c:480
     544:	e7c7      	b.n	4d6 <g_CryptoTaHandle_Rsa+0x13a>
/workspace/benchmark/basicAlg_use/ta/CryptoVerifyTaHandle.c:482
     546:	4b1a      	ldr	r3, [pc, #104]	; (5b0 <g_CryptoTaHandle_Rsa+0x214>)
     548:	447b      	add	r3, pc
     54a:	9300      	str	r3, [sp, #0]
     54c:	2300      	movs	r3, #0
     54e:	461a      	mov	r2, r3
     550:	4619      	mov	r1, r3
     552:	4618      	mov	r0, r3
     554:	f001 f906 	bl	1764 <trace_printf>
/workspace/benchmark/basicAlg_use/ta/CryptoVerifyTaHandle.c:483
     558:	ab08      	add	r3, sp, #32
     55a:	9306      	str	r3, [sp, #24]
     55c:	ab10      	add	r3, sp, #64	; 0x40
     55e:	940f      	str	r4, [sp, #60]	; 0x3c
     560:	f8cd 8014 	str.w	r8, [sp, #20]
     564:	9704      	str	r7, [sp, #16]
     566:	9603      	str	r6, [sp, #12]
     568:	e913 0007 	ldmdb	r3, {r0, r1, r2}
     56c:	ab09      	add	r3, sp, #36	; 0x24
     56e:	e88d 0007 	stmia.w	sp, {r0, r1, r2}
     572:	cb0f      	ldmia	r3, {r0, r1, r2, r3}
     574:	f000 ffb4 	bl	14e0 <g_CryptoTaRsa_rsaVerifyOper>
/workspace/benchmark/basicAlg_use/ta/CryptoVerifyTaHandle.c:484
     578:	e7ad      	b.n	4d6 <g_CryptoTaHandle_Rsa+0x13a>
     57a:	bf00      	nop
     57c:	70002830 	.word	0x70002830
     580:	60000130 	.word	0x60000130
     584:	60000030 	.word	0x60000030
     588:	0000bc40 	.word	0x0000bc40
     58c:	00009191 	.word	0x00009191
     590:	00009193 	.word	0x00009193
     594:	0000bbc4 	.word	0x0000bbc4
     598:	00009115 	.word	0x00009115
     59c:	00009114 	.word	0x00009114
     5a0:	00009118 	.word	0x00009118
     5a4:	00009120 	.word	0x00009120
     5a8:	000090f0 	.word	0x000090f0
     5ac:	000090c6 	.word	0x000090c6
     5b0:	0000909d 	.word	0x0000909d

000005b4 <g_CryptoTaHandle_base64>:
g_CryptoTaHandle_base64():
/workspace/benchmark/basicAlg_use/ta/CryptoVerifyTaHandle.c:496
     5b4:	e92d 41f3 	stmdb	sp!, {r0, r1, r4, r5, r6, r7, r8, lr}
/workspace/benchmark/basicAlg_use/ta/CryptoVerifyTaHandle.c:509
     5b8:	1d0c      	adds	r4, r1, #4
/workspace/benchmark/basicAlg_use/ta/CryptoVerifyTaHandle.c:510
     5ba:	4b15      	ldr	r3, [pc, #84]	; (610 <g_CryptoTaHandle_base64+0x5c>)
/workspace/benchmark/basicAlg_use/ta/CryptoVerifyTaHandle.c:505
     5bc:	680f      	ldr	r7, [r1, #0]
/workspace/benchmark/basicAlg_use/ta/CryptoVerifyTaHandle.c:509
     5be:	e894 0170 	ldmia.w	r4, {r4, r5, r6, r8}
/workspace/benchmark/basicAlg_use/ta/CryptoVerifyTaHandle.c:510
     5c2:	447b      	add	r3, pc
     5c4:	9300      	str	r3, [sp, #0]
     5c6:	2300      	movs	r3, #0
     5c8:	461a      	mov	r2, r3
     5ca:	4619      	mov	r1, r3
     5cc:	4618      	mov	r0, r3
     5ce:	9401      	str	r4, [sp, #4]
     5d0:	f001 f8c8 	bl	1764 <trace_printf>
/workspace/benchmark/basicAlg_use/ta/CryptoVerifyTaHandle.c:511
     5d4:	4638      	mov	r0, r7
     5d6:	4621      	mov	r1, r4
     5d8:	f000 fbc0 	bl	d5c <g_TA_Printf>
/workspace/benchmark/basicAlg_use/ta/CryptoVerifyTaHandle.c:514
     5dc:	4633      	mov	r3, r6
     5de:	462a      	mov	r2, r5
     5e0:	4621      	mov	r1, r4
     5e2:	4638      	mov	r0, r7
     5e4:	f8cd 8000 	str.w	r8, [sp]
     5e8:	f000 fc04 	bl	df4 <g_CryptoTaOther_base64>
/workspace/benchmark/basicAlg_use/ta/CryptoVerifyTaHandle.c:516
     5ec:	4b09      	ldr	r3, [pc, #36]	; (614 <g_CryptoTaHandle_base64+0x60>)
     5ee:	447b      	add	r3, pc
     5f0:	9300      	str	r3, [sp, #0]
     5f2:	2300      	movs	r3, #0
     5f4:	4619      	mov	r1, r3
     5f6:	4618      	mov	r0, r3
     5f8:	461a      	mov	r2, r3
     5fa:	f001 f8b3 	bl	1764 <trace_printf>
/workspace/benchmark/basicAlg_use/ta/CryptoVerifyTaHandle.c:517
     5fe:	4628      	mov	r0, r5
     600:	4631      	mov	r1, r6
     602:	f000 fbab 	bl	d5c <g_TA_Printf>
/workspace/benchmark/basicAlg_use/ta/CryptoVerifyTaHandle.c:521
     606:	2000      	movs	r0, #0
     608:	b002      	add	sp, #8
     60a:	e8bd 81f0 	ldmia.w	sp!, {r4, r5, r6, r7, r8, pc}
     60e:	bf00      	nop
     610:	00009030 	.word	0x00009030
     614:	00009031 	.word	0x00009031

00000618 <g_CryptoTaAes_AesOper>:
g_CryptoTaAes_AesOper():
/workspace/benchmark/basicAlg_use/ta/CryptoVerifyTaAes.c:100
     618:	b084      	sub	sp, #16
     61a:	e92d 4ff0 	stmdb	sp!, {r4, r5, r6, r7, r8, r9, sl, fp, lr}
     61e:	4607      	mov	r7, r0
     620:	b08b      	sub	sp, #44	; 0x2c
     622:	ac14      	add	r4, sp, #80	; 0x50
     624:	ad18      	add	r5, sp, #96	; 0x60
     626:	e884 000f 	stmia.w	r4, {r0, r1, r2, r3}
/workspace/benchmark/basicAlg_use/ta/CryptoVerifyTaAes.c:101
     62a:	2400      	movs	r4, #0
/workspace/benchmark/basicAlg_use/ta/CryptoVerifyTaAes.c:111
     62c:	4622      	mov	r2, r4
     62e:	9b1b      	ldr	r3, [sp, #108]	; 0x6c
     630:	4621      	mov	r1, r4
     632:	9302      	str	r3, [sp, #8]
     634:	4620      	mov	r0, r4
     636:	9b1c      	ldr	r3, [sp, #112]	; 0x70
     638:	e895 0160 	ldmia.w	r5, {r5, r6, r8}
     63c:	9303      	str	r3, [sp, #12]
     63e:	4b63      	ldr	r3, [pc, #396]	; (7cc <g_CryptoTaAes_AesOper+0x1b4>)
     640:	f8dd 9058 	ldr.w	r9, [sp, #88]	; 0x58
     644:	447b      	add	r3, pc
     646:	9300      	str	r3, [sp, #0]
     648:	4623      	mov	r3, r4
     64a:	f8dd b05c 	ldr.w	fp, [sp, #92]	; 0x5c
     64e:	f8dd a054 	ldr.w	sl, [sp, #84]	; 0x54
/workspace/benchmark/basicAlg_use/ta/CryptoVerifyTaAes.c:101
     652:	9404      	str	r4, [sp, #16]
/workspace/benchmark/basicAlg_use/ta/CryptoVerifyTaAes.c:102
     654:	9405      	str	r4, [sp, #20]
/workspace/benchmark/basicAlg_use/ta/CryptoVerifyTaAes.c:106
     656:	9506      	str	r5, [sp, #24]
/workspace/benchmark/basicAlg_use/ta/CryptoVerifyTaAes.c:111
     658:	f001 f884 	bl	1764 <trace_printf>
/workspace/benchmark/basicAlg_use/ta/CryptoVerifyTaAes.c:112
     65c:	4b5c      	ldr	r3, [pc, #368]	; (7d0 <g_CryptoTaAes_AesOper+0x1b8>)
     65e:	4622      	mov	r2, r4
     660:	4621      	mov	r1, r4
     662:	4620      	mov	r0, r4
     664:	447b      	add	r3, pc
     666:	9300      	str	r3, [sp, #0]
     668:	4623      	mov	r3, r4
     66a:	f001 f87b 	bl	1764 <trace_printf>
/workspace/benchmark/basicAlg_use/ta/CryptoVerifyTaAes.c:113
     66e:	4631      	mov	r1, r6
     670:	4648      	mov	r0, r9
     672:	f000 fb73 	bl	d5c <g_TA_Printf>
/workspace/benchmark/basicAlg_use/ta/CryptoVerifyTaAes.c:114
     676:	4b57      	ldr	r3, [pc, #348]	; (7d4 <g_CryptoTaAes_AesOper+0x1bc>)
     678:	4622      	mov	r2, r4
     67a:	4621      	mov	r1, r4
     67c:	447b      	add	r3, pc
     67e:	4620      	mov	r0, r4
     680:	9300      	str	r3, [sp, #0]
     682:	4623      	mov	r3, r4
     684:	f001 f86e 	bl	1764 <trace_printf>
/workspace/benchmark/basicAlg_use/ta/CryptoVerifyTaAes.c:115
     688:	4641      	mov	r1, r8
     68a:	4658      	mov	r0, fp
     68c:	f000 fb66 	bl	d5c <g_TA_Printf>
/workspace/benchmark/basicAlg_use/ta/CryptoVerifyTaAes.c:116
     690:	9b02      	ldr	r3, [sp, #8]
     692:	9301      	str	r3, [sp, #4]
     694:	4622      	mov	r2, r4
     696:	4b50      	ldr	r3, [pc, #320]	; (7d8 <g_CryptoTaAes_AesOper+0x1c0>)
     698:	4621      	mov	r1, r4
     69a:	4620      	mov	r0, r4
     69c:	447b      	add	r3, pc
     69e:	9300      	str	r3, [sp, #0]
     6a0:	4623      	mov	r3, r4
     6a2:	f001 f85f 	bl	1764 <trace_printf>
/workspace/benchmark/basicAlg_use/ta/CryptoVerifyTaAes.c:117
     6a6:	9b03      	ldr	r3, [sp, #12]
     6a8:	9301      	str	r3, [sp, #4]
     6aa:	4622      	mov	r2, r4
     6ac:	4b4b      	ldr	r3, [pc, #300]	; (7dc <g_CryptoTaAes_AesOper+0x1c4>)
     6ae:	4621      	mov	r1, r4
     6b0:	4620      	mov	r0, r4
     6b2:	447b      	add	r3, pc
     6b4:	9300      	str	r3, [sp, #0]
     6b6:	4623      	mov	r3, r4
     6b8:	f001 f854 	bl	1764 <trace_printf>
/workspace/benchmark/basicAlg_use/ta/CryptoVerifyTaAes.c:118
     6bc:	4b48      	ldr	r3, [pc, #288]	; (7e0 <g_CryptoTaAes_AesOper+0x1c8>)
     6be:	4622      	mov	r2, r4
     6c0:	4621      	mov	r1, r4
     6c2:	447b      	add	r3, pc
     6c4:	4620      	mov	r0, r4
     6c6:	9300      	str	r3, [sp, #0]
     6c8:	4623      	mov	r3, r4
     6ca:	f001 f84b 	bl	1764 <trace_printf>
/workspace/benchmark/basicAlg_use/ta/CryptoVerifyTaAes.c:119
     6ce:	4629      	mov	r1, r5
     6d0:	4638      	mov	r0, r7
     6d2:	f000 fb43 	bl	d5c <g_TA_Printf>
/workspace/benchmark/basicAlg_use/ta/CryptoVerifyTaAes.c:122
     6d6:	4633      	mov	r3, r6
     6d8:	9a03      	ldr	r2, [sp, #12]
     6da:	a804      	add	r0, sp, #16
     6dc:	9902      	ldr	r1, [sp, #8]
     6de:	f002 fb6e 	bl	2dbe <TEE_AllocateOperation>
/workspace/benchmark/basicAlg_use/ta/CryptoVerifyTaAes.c:123
     6e2:	4603      	mov	r3, r0
     6e4:	b138      	cbz	r0, 6f6 <g_CryptoTaAes_AesOper+0xde>
/workspace/benchmark/basicAlg_use/ta/CryptoVerifyTaAes.c:125
     6e6:	f04f 36ff 	mov.w	r6, #4294967295	; 0xffffffff
/workspace/benchmark/basicAlg_use/ta/CryptoVerifyTaAes.c:218
     6ea:	4630      	mov	r0, r6
     6ec:	b00b      	add	sp, #44	; 0x2c
     6ee:	e8bd 4ff0 	ldmia.w	sp!, {r4, r5, r6, r7, r8, r9, sl, fp, lr}
     6f2:	b004      	add	sp, #16
     6f4:	4770      	bx	lr
/workspace/benchmark/basicAlg_use/ta/CryptoVerifyTaAes.c:129
     6f6:	4a3b      	ldr	r2, [pc, #236]	; (7e4 <g_CryptoTaAes_AesOper+0x1cc>)
     6f8:	4601      	mov	r1, r0
     6fa:	447a      	add	r2, pc
     6fc:	9200      	str	r2, [sp, #0]
     6fe:	4602      	mov	r2, r0
     700:	f001 f830 	bl	1764 <trace_printf>
/workspace/benchmark/basicAlg_use/ta/CryptoVerifyTaAes.c:131
     704:	aa05      	add	r2, sp, #20
     706:	4631      	mov	r1, r6
     708:	482f      	ldr	r0, [pc, #188]	; (7c8 <g_CryptoTaAes_AesOper+0x1b0>)
     70a:	f001 ffbb 	bl	2684 <TEE_AllocateTransientObject>
/workspace/benchmark/basicAlg_use/ta/CryptoVerifyTaAes.c:132
     70e:	4603      	mov	r3, r0
     710:	2800      	cmp	r0, #0
     712:	d1e8      	bne.n	6e6 <g_CryptoTaAes_AesOper+0xce>
/workspace/benchmark/basicAlg_use/ta/CryptoVerifyTaAes.c:138
     714:	4a34      	ldr	r2, [pc, #208]	; (7e8 <g_CryptoTaAes_AesOper+0x1d0>)
     716:	4601      	mov	r1, r0
/workspace/benchmark/basicAlg_use/ta/CryptoVerifyTaAes.c:140
     718:	ac07      	add	r4, sp, #28
/workspace/benchmark/basicAlg_use/ta/CryptoVerifyTaAes.c:138
     71a:	447a      	add	r2, pc
     71c:	9200      	str	r2, [sp, #0]
     71e:	4602      	mov	r2, r0
     720:	f001 f820 	bl	1764 <trace_printf>
/workspace/benchmark/basicAlg_use/ta/CryptoVerifyTaAes.c:140
     724:	2310      	movs	r3, #16
     726:	464a      	mov	r2, r9
     728:	f04f 4140 	mov.w	r1, #3221225472	; 0xc0000000
     72c:	4620      	mov	r0, r4
     72e:	f002 f829 	bl	2784 <TEE_InitRefAttribute>
/workspace/benchmark/basicAlg_use/ta/CryptoVerifyTaAes.c:141
     732:	2201      	movs	r2, #1
     734:	4621      	mov	r1, r4
     736:	9805      	ldr	r0, [sp, #20]
     738:	f001 ffec 	bl	2714 <TEE_PopulateTransientObject>
/workspace/benchmark/basicAlg_use/ta/CryptoVerifyTaAes.c:142
     73c:	4603      	mov	r3, r0
     73e:	2800      	cmp	r0, #0
     740:	d1d1      	bne.n	6e6 <g_CryptoTaAes_AesOper+0xce>
/workspace/benchmark/basicAlg_use/ta/CryptoVerifyTaAes.c:148
     742:	4a2a      	ldr	r2, [pc, #168]	; (7ec <g_CryptoTaAes_AesOper+0x1d4>)
     744:	4601      	mov	r1, r0
     746:	447a      	add	r2, pc
     748:	9200      	str	r2, [sp, #0]
     74a:	4602      	mov	r2, r0
     74c:	f001 f80a 	bl	1764 <trace_printf>
/workspace/benchmark/basicAlg_use/ta/CryptoVerifyTaAes.c:150
     750:	9905      	ldr	r1, [sp, #20]
     752:	9804      	ldr	r0, [sp, #16]
     754:	f002 fe62 	bl	341c <TEE_SetOperationKey>
/workspace/benchmark/basicAlg_use/ta/CryptoVerifyTaAes.c:151
     758:	4604      	mov	r4, r0
     75a:	bb90      	cbnz	r0, 7c2 <g_CryptoTaAes_AesOper+0x1aa>
/workspace/benchmark/basicAlg_use/ta/CryptoVerifyTaAes.c:157
     75c:	4b24      	ldr	r3, [pc, #144]	; (7f0 <g_CryptoTaAes_AesOper+0x1d8>)
     75e:	4602      	mov	r2, r0
     760:	4601      	mov	r1, r0
     762:	447b      	add	r3, pc
     764:	9300      	str	r3, [sp, #0]
     766:	4603      	mov	r3, r0
     768:	f000 fffc 	bl	1764 <trace_printf>
/workspace/benchmark/basicAlg_use/ta/CryptoVerifyTaAes.c:159
     76c:	4642      	mov	r2, r8
     76e:	4659      	mov	r1, fp
     770:	9804      	ldr	r0, [sp, #16]
     772:	f002 ffb5 	bl	36e0 <TEE_CipherInit>
/workspace/benchmark/basicAlg_use/ta/CryptoVerifyTaAes.c:197
     776:	4b1f      	ldr	r3, [pc, #124]	; (7f4 <g_CryptoTaAes_AesOper+0x1dc>)
     778:	4622      	mov	r2, r4
     77a:	4621      	mov	r1, r4
     77c:	447b      	add	r3, pc
     77e:	4620      	mov	r0, r4
     780:	9300      	str	r3, [sp, #0]
     782:	4623      	mov	r3, r4
     784:	f000 ffee 	bl	1764 <trace_printf>
/workspace/benchmark/basicAlg_use/ta/CryptoVerifyTaAes.c:199
     788:	ab06      	add	r3, sp, #24
     78a:	9a06      	ldr	r2, [sp, #24]
     78c:	4639      	mov	r1, r7
     78e:	9300      	str	r3, [sp, #0]
     790:	4653      	mov	r3, sl
     792:	9804      	ldr	r0, [sp, #16]
     794:	f003 f842 	bl	381c <TEE_CipherDoFinal>
/workspace/benchmark/basicAlg_use/ta/CryptoVerifyTaAes.c:209
     798:	4b17      	ldr	r3, [pc, #92]	; (7f8 <g_CryptoTaAes_AesOper+0x1e0>)
/workspace/benchmark/basicAlg_use/ta/CryptoVerifyTaAes.c:200
     79a:	3000      	adds	r0, #0
/workspace/benchmark/basicAlg_use/ta/CryptoVerifyTaAes.c:209
     79c:	4621      	mov	r1, r4
/workspace/benchmark/basicAlg_use/ta/CryptoVerifyTaAes.c:200
     79e:	bf18      	it	ne
     7a0:	2001      	movne	r0, #1
/workspace/benchmark/basicAlg_use/ta/CryptoVerifyTaAes.c:209
     7a2:	447b      	add	r3, pc
/workspace/benchmark/basicAlg_use/ta/CryptoVerifyTaAes.c:200
     7a4:	4246      	negs	r6, r0
/workspace/benchmark/basicAlg_use/ta/CryptoVerifyTaAes.c:209
     7a6:	9300      	str	r3, [sp, #0]
     7a8:	4620      	mov	r0, r4
     7aa:	4623      	mov	r3, r4
     7ac:	4622      	mov	r2, r4
     7ae:	f000 ffd9 	bl	1764 <trace_printf>
/workspace/benchmark/basicAlg_use/ta/CryptoVerifyTaAes.c:210
     7b2:	4629      	mov	r1, r5
     7b4:	4650      	mov	r0, sl
     7b6:	f000 fad1 	bl	d5c <g_TA_Printf>
/workspace/benchmark/basicAlg_use/ta/CryptoVerifyTaAes.c:215
     7ba:	9804      	ldr	r0, [sp, #16]
     7bc:	f002 faec 	bl	2d98 <TEE_FreeOperation>
/workspace/benchmark/basicAlg_use/ta/CryptoVerifyTaAes.c:217
     7c0:	e793      	b.n	6ea <g_CryptoTaAes_AesOper+0xd2>
/workspace/benchmark/basicAlg_use/ta/CryptoVerifyTaAes.c:153
     7c2:	f04f 36ff 	mov.w	r6, #4294967295	; 0xffffffff
     7c6:	e7f8      	b.n	7ba <g_CryptoTaAes_AesOper+0x1a2>
     7c8:	a0000010 	.word	0xa0000010
     7cc:	00009005 	.word	0x00009005
     7d0:	00009016 	.word	0x00009016
     7d4:	00009008 	.word	0x00009008
     7d8:	00008fed 	.word	0x00008fed
     7dc:	00008fe7 	.word	0x00008fe7
     7e0:	00008fe2 	.word	0x00008fe2
     7e4:	00008fc1 	.word	0x00008fc1
     7e8:	00008fb2 	.word	0x00008fb2
     7ec:	00008f96 	.word	0x00008f96
     7f0:	00008f83 	.word	0x00008f83
     7f4:	00008f76 	.word	0x00008f76
     7f8:	00008f61 	.word	0x00008f61

000007fc <g_CryptoTaHash_sha>:
g_CryptoTaHash_sha():
/workspace/benchmark/basicAlg_use/ta/CryptoVerifyTaHash.c:94
     7fc:	e92d 41f0 	stmdb	sp!, {r4, r5, r6, r7, r8, lr}
     800:	461e      	mov	r6, r3
     802:	4605      	mov	r5, r0
     804:	b086      	sub	sp, #24
     806:	4688      	mov	r8, r1
     808:	4614      	mov	r4, r2
/workspace/benchmark/basicAlg_use/ta/CryptoVerifyTaHash.c:100
     80a:	9302      	str	r3, [sp, #8]
     80c:	4b3a      	ldr	r3, [pc, #232]	; (8f8 <g_CryptoTaHash_sha+0xfc>)
     80e:	9201      	str	r2, [sp, #4]
     810:	447b      	add	r3, pc
     812:	9300      	str	r3, [sp, #0]
     814:	2300      	movs	r3, #0
/workspace/benchmark/basicAlg_use/ta/CryptoVerifyTaHash.c:94
     816:	9f0c      	ldr	r7, [sp, #48]	; 0x30
/workspace/benchmark/basicAlg_use/ta/CryptoVerifyTaHash.c:100
     818:	461a      	mov	r2, r3
     81a:	4619      	mov	r1, r3
     81c:	4618      	mov	r0, r3
     81e:	f000 ffa1 	bl	1764 <trace_printf>
/workspace/benchmark/basicAlg_use/ta/CryptoVerifyTaHash.c:104
     822:	2d01      	cmp	r5, #1
     824:	d004      	beq.n	830 <g_CryptoTaHash_sha+0x34>
     826:	2d03      	cmp	r5, #3
     828:	d01d      	beq.n	866 <g_CryptoTaHash_sha+0x6a>
/workspace/benchmark/basicAlg_use/ta/CryptoVerifyTaHash.c:115
     82a:	f04f 34ff 	mov.w	r4, #4294967295	; 0xffffffff
/workspace/benchmark/basicAlg_use/ta/CryptoVerifyTaHash.c:151
     82e:	e04d      	b.n	8cc <g_CryptoTaHash_sha+0xd0>
/workspace/benchmark/basicAlg_use/ta/CryptoVerifyTaHash.c:107
     830:	4b32      	ldr	r3, [pc, #200]	; (8fc <g_CryptoTaHash_sha+0x100>)
     832:	447b      	add	r3, pc
     834:	9300      	str	r3, [sp, #0]
     836:	2300      	movs	r3, #0
     838:	4619      	mov	r1, r3
     83a:	461a      	mov	r2, r3
     83c:	4618      	mov	r0, r3
     83e:	f000 ff91 	bl	1764 <trace_printf>
/workspace/benchmark/basicAlg_use/ta/CryptoVerifyTaHash.c:108
     842:	492b      	ldr	r1, [pc, #172]	; (8f0 <g_CryptoTaHash_sha+0xf4>)
/workspace/benchmark/basicAlg_use/ta/CryptoVerifyTaHash.c:122
     844:	2300      	movs	r3, #0
     846:	2205      	movs	r2, #5
     848:	a805      	add	r0, sp, #20
     84a:	f002 fab8 	bl	2dbe <TEE_AllocateOperation>
/workspace/benchmark/basicAlg_use/ta/CryptoVerifyTaHash.c:123
     84e:	4605      	mov	r5, r0
     850:	b158      	cbz	r0, 86a <g_CryptoTaHash_sha+0x6e>
/workspace/benchmark/basicAlg_use/ta/CryptoVerifyTaHash.c:125
     852:	4b2b      	ldr	r3, [pc, #172]	; (900 <g_CryptoTaHash_sha+0x104>)
     854:	447b      	add	r3, pc
     856:	9300      	str	r3, [sp, #0]
     858:	2300      	movs	r3, #0
     85a:	461a      	mov	r2, r3
     85c:	4619      	mov	r1, r3
     85e:	4618      	mov	r0, r3
     860:	f000 ff80 	bl	1764 <trace_printf>
     864:	e7e1      	b.n	82a <g_CryptoTaHash_sha+0x2e>
/workspace/benchmark/basicAlg_use/ta/CryptoVerifyTaHash.c:111
     866:	4923      	ldr	r1, [pc, #140]	; (8f4 <g_CryptoTaHash_sha+0xf8>)
     868:	e7ec      	b.n	844 <g_CryptoTaHash_sha+0x48>
/workspace/benchmark/basicAlg_use/ta/CryptoVerifyTaHash.c:130
     86a:	4622      	mov	r2, r4
     86c:	4641      	mov	r1, r8
     86e:	9805      	ldr	r0, [sp, #20]
     870:	f002 fee6 	bl	3640 <TEE_DigestUpdate>
/workspace/benchmark/basicAlg_use/ta/CryptoVerifyTaHash.c:133
     874:	4633      	mov	r3, r6
     876:	462a      	mov	r2, r5
     878:	4629      	mov	r1, r5
     87a:	9700      	str	r7, [sp, #0]
     87c:	9805      	ldr	r0, [sp, #20]
     87e:	f002 fef7 	bl	3670 <TEE_DigestDoFinal>
/workspace/benchmark/basicAlg_use/ta/CryptoVerifyTaHash.c:134
     882:	683b      	ldr	r3, [r7, #0]
     884:	9301      	str	r3, [sp, #4]
/workspace/benchmark/basicAlg_use/ta/CryptoVerifyTaHash.c:133
     886:	4604      	mov	r4, r0
/workspace/benchmark/basicAlg_use/ta/CryptoVerifyTaHash.c:134
     888:	4b1e      	ldr	r3, [pc, #120]	; (904 <g_CryptoTaHash_sha+0x108>)
     88a:	462a      	mov	r2, r5
     88c:	4629      	mov	r1, r5
     88e:	4628      	mov	r0, r5
     890:	447b      	add	r3, pc
     892:	9300      	str	r3, [sp, #0]
     894:	462b      	mov	r3, r5
     896:	f000 ff65 	bl	1764 <trace_printf>
/workspace/benchmark/basicAlg_use/ta/CryptoVerifyTaHash.c:135
     89a:	4b1b      	ldr	r3, [pc, #108]	; (908 <g_CryptoTaHash_sha+0x10c>)
     89c:	9401      	str	r4, [sp, #4]
     89e:	462a      	mov	r2, r5
     8a0:	447b      	add	r3, pc
     8a2:	4629      	mov	r1, r5
     8a4:	9300      	str	r3, [sp, #0]
     8a6:	4628      	mov	r0, r5
     8a8:	462b      	mov	r3, r5
     8aa:	f000 ff5b 	bl	1764 <trace_printf>
/workspace/benchmark/basicAlg_use/ta/CryptoVerifyTaHash.c:137
     8ae:	b18c      	cbz	r4, 8d4 <g_CryptoTaHash_sha+0xd8>
/workspace/benchmark/basicAlg_use/ta/CryptoVerifyTaHash.c:139
     8b0:	4b16      	ldr	r3, [pc, #88]	; (90c <g_CryptoTaHash_sha+0x110>)
/workspace/benchmark/basicAlg_use/ta/CryptoVerifyTaHash.c:140
     8b2:	f04f 34ff 	mov.w	r4, #4294967295	; 0xffffffff
/workspace/benchmark/basicAlg_use/ta/CryptoVerifyTaHash.c:139
     8b6:	462a      	mov	r2, r5
     8b8:	4629      	mov	r1, r5
     8ba:	447b      	add	r3, pc
     8bc:	4628      	mov	r0, r5
     8be:	9300      	str	r3, [sp, #0]
     8c0:	462b      	mov	r3, r5
     8c2:	f000 ff4f 	bl	1764 <trace_printf>
/workspace/benchmark/basicAlg_use/ta/CryptoVerifyTaHash.c:149
     8c6:	9805      	ldr	r0, [sp, #20]
     8c8:	f002 fa66 	bl	2d98 <TEE_FreeOperation>
/workspace/benchmark/basicAlg_use/ta/CryptoVerifyTaHash.c:152
     8cc:	4620      	mov	r0, r4
     8ce:	b006      	add	sp, #24
     8d0:	e8bd 81f0 	ldmia.w	sp!, {r4, r5, r6, r7, r8, pc}
/workspace/benchmark/basicAlg_use/ta/CryptoVerifyTaHash.c:144
     8d4:	4b0e      	ldr	r3, [pc, #56]	; (910 <g_CryptoTaHash_sha+0x114>)
     8d6:	4621      	mov	r1, r4
     8d8:	4620      	mov	r0, r4
     8da:	4622      	mov	r2, r4
     8dc:	447b      	add	r3, pc
     8de:	9300      	str	r3, [sp, #0]
     8e0:	4623      	mov	r3, r4
     8e2:	f000 ff3f 	bl	1764 <trace_printf>
/workspace/benchmark/basicAlg_use/ta/CryptoVerifyTaHash.c:145
     8e6:	6839      	ldr	r1, [r7, #0]
     8e8:	4630      	mov	r0, r6
     8ea:	f000 fa37 	bl	d5c <g_TA_Printf>
     8ee:	e7ea      	b.n	8c6 <g_CryptoTaHash_sha+0xca>
     8f0:	50000002 	.word	0x50000002
     8f4:	50000004 	.word	0x50000004
     8f8:	00008f20 	.word	0x00008f20
     8fc:	00008f28 	.word	0x00008f28
     900:	00008f1b 	.word	0x00008f1b
     904:	00008f03 	.word	0x00008f03
     908:	00008f0e 	.word	0x00008f0e
     90c:	00008f0f 	.word	0x00008f0f
     910:	00008f0e 	.word	0x00008f0e

00000914 <g_CryptoTaHash_hmac>:
g_CryptoTaHash_hmac():
/workspace/benchmark/basicAlg_use/ta/CryptoVerifyTaHash.c:171
     914:	e92d 47f0 	stmdb	sp!, {r4, r5, r6, r7, r8, r9, sl, lr}
     918:	4692      	mov	sl, r2
     91a:	4605      	mov	r5, r0
     91c:	b094      	sub	sp, #80	; 0x50
/workspace/benchmark/basicAlg_use/ta/CryptoVerifyTaHash.c:178
     91e:	2224      	movs	r2, #36	; 0x24
     920:	ac0b      	add	r4, sp, #44	; 0x2c
/workspace/benchmark/basicAlg_use/ta/CryptoVerifyTaHash.c:171
     922:	4699      	mov	r9, r3
/workspace/benchmark/basicAlg_use/ta/CryptoVerifyTaHash.c:178
     924:	4620      	mov	r0, r4
/workspace/benchmark/basicAlg_use/ta/CryptoVerifyTaHash.c:171
     926:	9103      	str	r1, [sp, #12]
/workspace/benchmark/basicAlg_use/ta/CryptoVerifyTaHash.c:178
     928:	2100      	movs	r1, #0
/workspace/benchmark/basicAlg_use/ta/CryptoVerifyTaHash.c:171
     92a:	f8dd 8070 	ldr.w	r8, [sp, #112]	; 0x70
     92e:	9f1d      	ldr	r7, [sp, #116]	; 0x74
     930:	9e1e      	ldr	r6, [sp, #120]	; 0x78
/workspace/benchmark/basicAlg_use/ta/CryptoVerifyTaHash.c:178
     932:	f008 fa75 	bl	8e20 <memset>
/workspace/benchmark/basicAlg_use/ta/CryptoVerifyTaHash.c:181
     936:	4b5c      	ldr	r3, [pc, #368]	; (aa8 <g_CryptoTaHash_hmac+0x194>)
     938:	f8cd a004 	str.w	sl, [sp, #4]
     93c:	447b      	add	r3, pc
     93e:	9300      	str	r3, [sp, #0]
     940:	2300      	movs	r3, #0
     942:	461a      	mov	r2, r3
     944:	4619      	mov	r1, r3
     946:	4618      	mov	r0, r3
     948:	f000 ff0c 	bl	1764 <trace_printf>
/workspace/benchmark/basicAlg_use/ta/CryptoVerifyTaHash.c:182
     94c:	4b57      	ldr	r3, [pc, #348]	; (aac <g_CryptoTaHash_hmac+0x198>)
     94e:	f8cd 9004 	str.w	r9, [sp, #4]
     952:	447b      	add	r3, pc
     954:	9300      	str	r3, [sp, #0]
     956:	2300      	movs	r3, #0
     958:	461a      	mov	r2, r3
     95a:	4619      	mov	r1, r3
     95c:	4618      	mov	r0, r3
     95e:	f000 ff01 	bl	1764 <trace_printf>
/workspace/benchmark/basicAlg_use/ta/CryptoVerifyTaHash.c:183
     962:	4b53      	ldr	r3, [pc, #332]	; (ab0 <g_CryptoTaHash_hmac+0x19c>)
     964:	f8cd 8004 	str.w	r8, [sp, #4]
     968:	447b      	add	r3, pc
     96a:	9300      	str	r3, [sp, #0]
     96c:	2300      	movs	r3, #0
     96e:	461a      	mov	r2, r3
     970:	4619      	mov	r1, r3
     972:	4618      	mov	r0, r3
     974:	f000 fef6 	bl	1764 <trace_printf>
/workspace/benchmark/basicAlg_use/ta/CryptoVerifyTaHash.c:184
     978:	4b4e      	ldr	r3, [pc, #312]	; (ab4 <g_CryptoTaHash_hmac+0x1a0>)
     97a:	9701      	str	r7, [sp, #4]
     97c:	447b      	add	r3, pc
     97e:	9300      	str	r3, [sp, #0]
     980:	2300      	movs	r3, #0
     982:	461a      	mov	r2, r3
     984:	4619      	mov	r1, r3
     986:	4618      	mov	r0, r3
     988:	f000 feec 	bl	1764 <trace_printf>
/workspace/benchmark/basicAlg_use/ta/CryptoVerifyTaHash.c:185
     98c:	9b03      	ldr	r3, [sp, #12]
     98e:	9301      	str	r3, [sp, #4]
     990:	4b49      	ldr	r3, [pc, #292]	; (ab8 <g_CryptoTaHash_hmac+0x1a4>)
     992:	447b      	add	r3, pc
     994:	9300      	str	r3, [sp, #0]
     996:	2300      	movs	r3, #0
     998:	461a      	mov	r2, r3
     99a:	4619      	mov	r1, r3
     99c:	4618      	mov	r0, r3
     99e:	f000 fee1 	bl	1764 <trace_printf>
/workspace/benchmark/basicAlg_use/ta/CryptoVerifyTaHash.c:186
     9a2:	4b46      	ldr	r3, [pc, #280]	; (abc <g_CryptoTaHash_hmac+0x1a8>)
     9a4:	9601      	str	r6, [sp, #4]
     9a6:	447b      	add	r3, pc
     9a8:	9300      	str	r3, [sp, #0]
     9aa:	2300      	movs	r3, #0
     9ac:	461a      	mov	r2, r3
     9ae:	4619      	mov	r1, r3
     9b0:	4618      	mov	r0, r3
     9b2:	f000 fed7 	bl	1764 <trace_printf>
/workspace/benchmark/basicAlg_use/ta/CryptoVerifyTaHash.c:189
     9b6:	f44f 6300 	mov.w	r3, #2048	; 0x800
     9ba:	2206      	movs	r2, #6
     9bc:	4934      	ldr	r1, [pc, #208]	; (a90 <g_CryptoTaHash_hmac+0x17c>)
     9be:	a805      	add	r0, sp, #20
     9c0:	f002 f9fd 	bl	2dbe <TEE_AllocateOperation>
/workspace/benchmark/basicAlg_use/ta/CryptoVerifyTaHash.c:190
     9c4:	b170      	cbz	r0, 9e4 <g_CryptoTaHash_hmac+0xd0>
/workspace/benchmark/basicAlg_use/ta/CryptoVerifyTaHash.c:192
     9c6:	4b3e      	ldr	r3, [pc, #248]	; (ac0 <g_CryptoTaHash_hmac+0x1ac>)
/workspace/benchmark/basicAlg_use/ta/CryptoVerifyTaHash.c:193
     9c8:	f04f 34ff 	mov.w	r4, #4294967295	; 0xffffffff
/workspace/benchmark/basicAlg_use/ta/CryptoVerifyTaHash.c:192
     9cc:	447b      	add	r3, pc
     9ce:	9300      	str	r3, [sp, #0]
     9d0:	2300      	movs	r3, #0
     9d2:	461a      	mov	r2, r3
     9d4:	4619      	mov	r1, r3
     9d6:	4618      	mov	r0, r3
     9d8:	f000 fec4 	bl	1764 <trace_printf>
/workspace/benchmark/basicAlg_use/ta/CryptoVerifyTaHash.c:270
     9dc:	4620      	mov	r0, r4
     9de:	b014      	add	sp, #80	; 0x50
     9e0:	e8bd 87f0 	ldmia.w	sp!, {r4, r5, r6, r7, r8, r9, sl, pc}
/workspace/benchmark/basicAlg_use/ta/CryptoVerifyTaHash.c:198
     9e4:	aa07      	add	r2, sp, #28
     9e6:	f44f 6100 	mov.w	r1, #2048	; 0x800
     9ea:	482a      	ldr	r0, [pc, #168]	; (a94 <g_CryptoTaHash_hmac+0x180>)
     9ec:	f001 fe4a 	bl	2684 <TEE_AllocateTransientObject>
/workspace/benchmark/basicAlg_use/ta/CryptoVerifyTaHash.c:200
     9f0:	b170      	cbz	r0, a10 <g_CryptoTaHash_hmac+0xfc>
/workspace/benchmark/basicAlg_use/ta/CryptoVerifyTaHash.c:202
     9f2:	4b34      	ldr	r3, [pc, #208]	; (ac4 <g_CryptoTaHash_hmac+0x1b0>)
/workspace/benchmark/basicAlg_use/ta/CryptoVerifyTaHash.c:203
     9f4:	f04f 34ff 	mov.w	r4, #4294967295	; 0xffffffff
/workspace/benchmark/basicAlg_use/ta/CryptoVerifyTaHash.c:202
     9f8:	447b      	add	r3, pc
     9fa:	9300      	str	r3, [sp, #0]
     9fc:	2300      	movs	r3, #0
     9fe:	461a      	mov	r2, r3
     a00:	4619      	mov	r1, r3
     a02:	4618      	mov	r0, r3
     a04:	f000 feae 	bl	1764 <trace_printf>
/workspace/benchmark/basicAlg_use/ta/CryptoVerifyTaHash.c:267
     a08:	9805      	ldr	r0, [sp, #20]
     a0a:	f002 f9c5 	bl	2d98 <TEE_FreeOperation>
/workspace/benchmark/basicAlg_use/ta/CryptoVerifyTaHash.c:269
     a0e:	e7e5      	b.n	9dc <g_CryptoTaHash_hmac+0xc8>
/workspace/benchmark/basicAlg_use/ta/CryptoVerifyTaHash.c:207
     a10:	4b21      	ldr	r3, [pc, #132]	; (a98 <g_CryptoTaHash_hmac+0x184>)
/workspace/benchmark/basicAlg_use/ta/CryptoVerifyTaHash.c:212
     a12:	2201      	movs	r2, #1
     a14:	a908      	add	r1, sp, #32
     a16:	9807      	ldr	r0, [sp, #28]
/workspace/benchmark/basicAlg_use/ta/CryptoVerifyTaHash.c:207
     a18:	9308      	str	r3, [sp, #32]
/workspace/benchmark/basicAlg_use/ta/CryptoVerifyTaHash.c:208
     a1a:	f8cd a024 	str.w	sl, [sp, #36]	; 0x24
/workspace/benchmark/basicAlg_use/ta/CryptoVerifyTaHash.c:209
     a1e:	f8cd 9028 	str.w	r9, [sp, #40]	; 0x28
/workspace/benchmark/basicAlg_use/ta/CryptoVerifyTaHash.c:212
     a22:	f001 fe77 	bl	2714 <TEE_PopulateTransientObject>
/workspace/benchmark/basicAlg_use/ta/CryptoVerifyTaHash.c:214
     a26:	2800      	cmp	r0, #0
     a28:	d1e3      	bne.n	9f2 <g_CryptoTaHash_hmac+0xde>
/workspace/benchmark/basicAlg_use/ta/CryptoVerifyTaHash.c:221
     a2a:	9907      	ldr	r1, [sp, #28]
     a2c:	9805      	ldr	r0, [sp, #20]
     a2e:	f002 fcf5 	bl	341c <TEE_SetOperationKey>
/workspace/benchmark/basicAlg_use/ta/CryptoVerifyTaHash.c:222
     a32:	2800      	cmp	r0, #0
     a34:	d1dd      	bne.n	9f2 <g_CryptoTaHash_hmac+0xde>
/workspace/benchmark/basicAlg_use/ta/CryptoVerifyTaHash.c:230
     a36:	9903      	ldr	r1, [sp, #12]
     a38:	aa06      	add	r2, sp, #24
     a3a:	f04f 4020 	mov.w	r0, #2684354560	; 0xa0000000
     a3e:	00c9      	lsls	r1, r1, #3
     a40:	f001 fe20 	bl	2684 <TEE_AllocateTransientObject>
/workspace/benchmark/basicAlg_use/ta/CryptoVerifyTaHash.c:232
     a44:	2800      	cmp	r0, #0
     a46:	d1d4      	bne.n	9f2 <g_CryptoTaHash_hmac+0xde>
/workspace/benchmark/basicAlg_use/ta/CryptoVerifyTaHash.c:239
     a48:	4b14      	ldr	r3, [pc, #80]	; (a9c <g_CryptoTaHash_hmac+0x188>)
/workspace/benchmark/basicAlg_use/ta/CryptoVerifyTaHash.c:251
     a4a:	4621      	mov	r1, r4
/workspace/benchmark/basicAlg_use/ta/CryptoVerifyTaHash.c:239
     a4c:	930b      	str	r3, [sp, #44]	; 0x2c
/workspace/benchmark/basicAlg_use/ta/CryptoVerifyTaHash.c:251
     a4e:	2203      	movs	r2, #3
/workspace/benchmark/basicAlg_use/ta/CryptoVerifyTaHash.c:243
     a50:	4b13      	ldr	r3, [pc, #76]	; (aa0 <g_CryptoTaHash_hmac+0x18c>)
     a52:	930e      	str	r3, [sp, #56]	; 0x38
/workspace/benchmark/basicAlg_use/ta/CryptoVerifyTaHash.c:244
     a54:	9b03      	ldr	r3, [sp, #12]
     a56:	930f      	str	r3, [sp, #60]	; 0x3c
/workspace/benchmark/basicAlg_use/ta/CryptoVerifyTaHash.c:247
     a58:	4b12      	ldr	r3, [pc, #72]	; (aa4 <g_CryptoTaHash_hmac+0x190>)
/workspace/benchmark/basicAlg_use/ta/CryptoVerifyTaHash.c:245
     a5a:	9010      	str	r0, [sp, #64]	; 0x40
/workspace/benchmark/basicAlg_use/ta/CryptoVerifyTaHash.c:247
     a5c:	9311      	str	r3, [sp, #68]	; 0x44
/workspace/benchmark/basicAlg_use/ta/CryptoVerifyTaHash.c:249
     a5e:	9013      	str	r0, [sp, #76]	; 0x4c
/workspace/benchmark/basicAlg_use/ta/CryptoVerifyTaHash.c:251
     a60:	9b06      	ldr	r3, [sp, #24]
     a62:	9805      	ldr	r0, [sp, #20]
/workspace/benchmark/basicAlg_use/ta/CryptoVerifyTaHash.c:240
     a64:	f8cd 8030 	str.w	r8, [sp, #48]	; 0x30
/workspace/benchmark/basicAlg_use/ta/CryptoVerifyTaHash.c:241
     a68:	970d      	str	r7, [sp, #52]	; 0x34
/workspace/benchmark/basicAlg_use/ta/CryptoVerifyTaHash.c:248
     a6a:	9612      	str	r6, [sp, #72]	; 0x48
/workspace/benchmark/basicAlg_use/ta/CryptoVerifyTaHash.c:251
     a6c:	f003 fb56 	bl	411c <TEE_DeriveKey>
/workspace/benchmark/basicAlg_use/ta/CryptoVerifyTaHash.c:253
     a70:	ab03      	add	r3, sp, #12
     a72:	462a      	mov	r2, r5
     a74:	f04f 4140 	mov.w	r1, #3221225472	; 0xc0000000
     a78:	9806      	ldr	r0, [sp, #24]
     a7a:	f001 fd7f 	bl	257c <TEE_GetObjectBufferAttribute>
/workspace/benchmark/basicAlg_use/ta/CryptoVerifyTaHash.c:255
     a7e:	4604      	mov	r4, r0
     a80:	2800      	cmp	r0, #0
     a82:	d1b6      	bne.n	9f2 <g_CryptoTaHash_hmac+0xde>
/workspace/benchmark/basicAlg_use/ta/CryptoVerifyTaHash.c:263
     a84:	9903      	ldr	r1, [sp, #12]
     a86:	4628      	mov	r0, r5
     a88:	f000 f968 	bl	d5c <g_TA_Printf>
     a8c:	e7bc      	b.n	a08 <g_CryptoTaHash_hmac+0xf4>
     a8e:	bf00      	nop
     a90:	800020c2 	.word	0x800020c2
     a94:	a10000c2 	.word	0xa10000c2
     a98:	c00001c2 	.word	0xc00001c2
     a9c:	d00002c2 	.word	0xd00002c2
     aa0:	f00004c2 	.word	0xf00004c2
     aa4:	f00003c2 	.word	0xf00003c2
     aa8:	00008ecc 	.word	0x00008ecc
     aac:	00008ebe 	.word	0x00008ebe
     ab0:	00008eb4 	.word	0x00008eb4
     ab4:	00008ea9 	.word	0x00008ea9
     ab8:	00008ea0 	.word	0x00008ea0
     abc:	00008e96 	.word	0x00008e96
     ac0:	00008da3 	.word	0x00008da3
     ac4:	00008e4a 	.word	0x00008e4a

00000ac8 <l_CryptoTaPbkdf_HMAC>:
l_CryptoTaPbkdf_HMAC():
/workspace/benchmark/basicAlg_use/ta/CryptoVerifyTaPbkdf2.c:92
     ac8:	e92d 4ff0 	stmdb	sp!, {r4, r5, r6, r7, r8, r9, sl, fp, lr}
/workspace/benchmark/basicAlg_use/ta/CryptoVerifyTaPbkdf2.c:95
     acc:	f04f 0b14 	mov.w	fp, #20
/workspace/benchmark/basicAlg_use/ta/CryptoVerifyTaPbkdf2.c:92
     ad0:	f5ad 7d03 	sub.w	sp, sp, #524	; 0x20c
/workspace/benchmark/basicAlg_use/ta/CryptoVerifyTaPbkdf2.c:93
     ad4:	ad12      	add	r5, sp, #72	; 0x48
/workspace/benchmark/basicAlg_use/ta/CryptoVerifyTaPbkdf2.c:94
     ad6:	ac42      	add	r4, sp, #264	; 0x108
/workspace/benchmark/basicAlg_use/ta/CryptoVerifyTaPbkdf2.c:95
     ad8:	f10d 0820 	add.w	r8, sp, #32
/workspace/benchmark/basicAlg_use/ta/CryptoVerifyTaPbkdf2.c:98
     adc:	ae0d      	add	r6, sp, #52	; 0x34
/workspace/benchmark/basicAlg_use/ta/CryptoVerifyTaPbkdf2.c:92
     ade:	9003      	str	r0, [sp, #12]
/workspace/benchmark/basicAlg_use/ta/CryptoVerifyTaPbkdf2.c:93
     ae0:	4628      	mov	r0, r5
/workspace/benchmark/basicAlg_use/ta/CryptoVerifyTaPbkdf2.c:92
     ae2:	9104      	str	r1, [sp, #16]
/workspace/benchmark/basicAlg_use/ta/CryptoVerifyTaPbkdf2.c:93
     ae4:	2100      	movs	r1, #0
/workspace/benchmark/basicAlg_use/ta/CryptoVerifyTaPbkdf2.c:92
     ae6:	9202      	str	r2, [sp, #8]
/workspace/benchmark/basicAlg_use/ta/CryptoVerifyTaPbkdf2.c:93
     ae8:	2240      	movs	r2, #64	; 0x40
/workspace/benchmark/basicAlg_use/ta/CryptoVerifyTaPbkdf2.c:92
     aea:	9305      	str	r3, [sp, #20]
/workspace/benchmark/basicAlg_use/ta/CryptoVerifyTaPbkdf2.c:93
     aec:	f008 f998 	bl	8e20 <memset>
/workspace/benchmark/basicAlg_use/ta/CryptoVerifyTaPbkdf2.c:94
     af0:	f44f 7280 	mov.w	r2, #256	; 0x100
     af4:	2100      	movs	r1, #0
     af6:	4620      	mov	r0, r4
/workspace/benchmark/basicAlg_use/ta/CryptoVerifyTaPbkdf2.c:102
     af8:	f10d 0a88 	add.w	sl, sp, #136	; 0x88
/workspace/benchmark/basicAlg_use/ta/CryptoVerifyTaPbkdf2.c:94
     afc:	f008 f990 	bl	8e20 <memset>
/workspace/benchmark/basicAlg_use/ta/CryptoVerifyTaPbkdf2.c:95
     b00:	465a      	mov	r2, fp
     b02:	2100      	movs	r1, #0
     b04:	4640      	mov	r0, r8
     b06:	f008 f98b 	bl	8e20 <memset>
/workspace/benchmark/basicAlg_use/ta/CryptoVerifyTaPbkdf2.c:98
     b0a:	465a      	mov	r2, fp
     b0c:	2100      	movs	r1, #0
     b0e:	4630      	mov	r0, r6
     b10:	f008 f986 	bl	8e20 <memset>
/workspace/benchmark/basicAlg_use/ta/CryptoVerifyTaPbkdf2.c:103
     b14:	f10d 09c8 	add.w	r9, sp, #200	; 0xc8
/workspace/benchmark/basicAlg_use/ta/CryptoVerifyTaPbkdf2.c:102
     b18:	2240      	movs	r2, #64	; 0x40
     b1a:	2100      	movs	r1, #0
     b1c:	4650      	mov	r0, sl
/workspace/benchmark/basicAlg_use/ta/CryptoVerifyTaPbkdf2.c:104
     b1e:	af07      	add	r7, sp, #28
/workspace/benchmark/basicAlg_use/ta/CryptoVerifyTaPbkdf2.c:102
     b20:	f008 f97e 	bl	8e20 <memset>
/workspace/benchmark/basicAlg_use/ta/CryptoVerifyTaPbkdf2.c:103
     b24:	2240      	movs	r2, #64	; 0x40
     b26:	2100      	movs	r1, #0
     b28:	4648      	mov	r0, r9
     b2a:	f008 f979 	bl	8e20 <memset>
/workspace/benchmark/basicAlg_use/ta/CryptoVerifyTaPbkdf2.c:108
     b2e:	9b05      	ldr	r3, [sp, #20]
/workspace/benchmark/basicAlg_use/ta/CryptoVerifyTaPbkdf2.c:114
     b30:	9902      	ldr	r1, [sp, #8]
     b32:	4628      	mov	r0, r5
/workspace/benchmark/basicAlg_use/ta/CryptoVerifyTaPbkdf2.c:108
     b34:	2b40      	cmp	r3, #64	; 0x40
/workspace/benchmark/basicAlg_use/ta/CryptoVerifyTaPbkdf2.c:104
     b36:	f8c7 b000 	str.w	fp, [r7]
/workspace/benchmark/basicAlg_use/ta/CryptoVerifyTaPbkdf2.c:114
     b3a:	bf98      	it	ls
     b3c:	461a      	movls	r2, r3
/workspace/benchmark/basicAlg_use/ta/CryptoVerifyTaPbkdf2.c:110
     b3e:	bf88      	it	hi
     b40:	2240      	movhi	r2, #64	; 0x40
/workspace/benchmark/basicAlg_use/ta/CryptoVerifyTaPbkdf2.c:114
     b42:	f001 fc23 	bl	238c <TEE_MemMove>
/workspace/benchmark/basicAlg_use/ta/CryptoVerifyTaPbkdf2.c:92
     b46:	2300      	movs	r3, #0
/workspace/benchmark/basicAlg_use/ta/CryptoVerifyTaPbkdf2.c:121 (discriminator 3)
     b48:	5cea      	ldrb	r2, [r5, r3]
     b4a:	f082 0136 	eor.w	r1, r2, #54	; 0x36
/workspace/benchmark/basicAlg_use/ta/CryptoVerifyTaPbkdf2.c:122 (discriminator 3)
     b4e:	f082 025c 	eor.w	r2, r2, #92	; 0x5c
/workspace/benchmark/basicAlg_use/ta/CryptoVerifyTaPbkdf2.c:121 (discriminator 3)
     b52:	f80a 1003 	strb.w	r1, [sl, r3]
/workspace/benchmark/basicAlg_use/ta/CryptoVerifyTaPbkdf2.c:122 (discriminator 3)
     b56:	f809 2003 	strb.w	r2, [r9, r3]
/workspace/benchmark/basicAlg_use/ta/CryptoVerifyTaPbkdf2.c:119 (discriminator 3)
     b5a:	3301      	adds	r3, #1
     b5c:	2b40      	cmp	r3, #64	; 0x40
     b5e:	d1f3      	bne.n	b48 <l_CryptoTaPbkdf_HMAC+0x80>
     b60:	2300      	movs	r3, #0
/workspace/benchmark/basicAlg_use/ta/CryptoVerifyTaPbkdf2.c:128 (discriminator 3)
     b62:	f81a 2003 	ldrb.w	r2, [sl, r3]
     b66:	54e2      	strb	r2, [r4, r3]
/workspace/benchmark/basicAlg_use/ta/CryptoVerifyTaPbkdf2.c:126 (discriminator 3)
     b68:	3301      	adds	r3, #1
     b6a:	2b40      	cmp	r3, #64	; 0x40
     b6c:	d1f9      	bne.n	b62 <l_CryptoTaPbkdf_HMAC+0x9a>
     b6e:	2200      	movs	r2, #0
/workspace/benchmark/basicAlg_use/ta/CryptoVerifyTaPbkdf2.c:131 (discriminator 1)
     b70:	9b04      	ldr	r3, [sp, #16]
     b72:	429a      	cmp	r2, r3
     b74:	d124      	bne.n	bc0 <l_CryptoTaPbkdf_HMAC+0xf8>
/workspace/benchmark/basicAlg_use/ta/CryptoVerifyTaPbkdf2.c:138
     b76:	3240      	adds	r2, #64	; 0x40
     b78:	9700      	str	r7, [sp, #0]
     b7a:	4643      	mov	r3, r8
     b7c:	4621      	mov	r1, r4
     b7e:	2001      	movs	r0, #1
     b80:	f7ff fe3c 	bl	7fc <g_CryptoTaHash_sha>
/workspace/benchmark/basicAlg_use/ta/CryptoVerifyTaPbkdf2.c:141
     b84:	2200      	movs	r2, #0
/workspace/benchmark/basicAlg_use/ta/CryptoVerifyTaPbkdf2.c:143 (discriminator 3)
     b86:	f819 3002 	ldrb.w	r3, [r9, r2]
     b8a:	54a3      	strb	r3, [r4, r2]
/workspace/benchmark/basicAlg_use/ta/CryptoVerifyTaPbkdf2.c:141 (discriminator 3)
     b8c:	3201      	adds	r2, #1
     b8e:	2a40      	cmp	r2, #64	; 0x40
     b90:	d1f9      	bne.n	b86 <l_CryptoTaPbkdf_HMAC+0xbe>
/workspace/benchmark/basicAlg_use/ta/CryptoVerifyTaPbkdf2.c:148 (discriminator 3)
     b92:	eb08 0302 	add.w	r3, r8, r2
     b96:	f813 3c40 	ldrb.w	r3, [r3, #-64]
     b9a:	54a3      	strb	r3, [r4, r2]
/workspace/benchmark/basicAlg_use/ta/CryptoVerifyTaPbkdf2.c:149 (discriminator 3)
     b9c:	3201      	adds	r2, #1
/workspace/benchmark/basicAlg_use/ta/CryptoVerifyTaPbkdf2.c:146 (discriminator 3)
     b9e:	2a54      	cmp	r2, #84	; 0x54
     ba0:	d1f7      	bne.n	b92 <l_CryptoTaPbkdf_HMAC+0xca>
/workspace/benchmark/basicAlg_use/ta/CryptoVerifyTaPbkdf2.c:153
     ba2:	4633      	mov	r3, r6
     ba4:	4621      	mov	r1, r4
     ba6:	9700      	str	r7, [sp, #0]
     ba8:	2001      	movs	r0, #1
     baa:	f7ff fe27 	bl	7fc <g_CryptoTaHash_sha>
/workspace/benchmark/basicAlg_use/ta/CryptoVerifyTaPbkdf2.c:156
     bae:	2214      	movs	r2, #20
     bb0:	4631      	mov	r1, r6
     bb2:	988c      	ldr	r0, [sp, #560]	; 0x230
     bb4:	f001 fbea 	bl	238c <TEE_MemMove>
/workspace/benchmark/basicAlg_use/ta/CryptoVerifyTaPbkdf2.c:157
     bb8:	f50d 7d03 	add.w	sp, sp, #524	; 0x20c
     bbc:	e8bd 8ff0 	ldmia.w	sp!, {r4, r5, r6, r7, r8, r9, sl, fp, pc}
/workspace/benchmark/basicAlg_use/ta/CryptoVerifyTaPbkdf2.c:133 (discriminator 3)
     bc0:	9903      	ldr	r1, [sp, #12]
     bc2:	18a3      	adds	r3, r4, r2
     bc4:	5c89      	ldrb	r1, [r1, r2]
/workspace/benchmark/basicAlg_use/ta/CryptoVerifyTaPbkdf2.c:131 (discriminator 3)
     bc6:	3201      	adds	r2, #1
/workspace/benchmark/basicAlg_use/ta/CryptoVerifyTaPbkdf2.c:133 (discriminator 3)
     bc8:	f883 1040 	strb.w	r1, [r3, #64]	; 0x40
     bcc:	e7d0      	b.n	b70 <l_CryptoTaPbkdf_HMAC+0xa8>

00000bce <g_CryptoTaPbkdf_PBKDF2>:
g_CryptoTaPbkdf_PBKDF2():
/workspace/benchmark/basicAlg_use/ta/CryptoVerifyTaPbkdf2.c:195
     bce:	e92d 4ff0 	stmdb	sp!, {r4, r5, r6, r7, r8, r9, sl, fp, lr}
/workspace/benchmark/basicAlg_use/ta/CryptoVerifyTaPbkdf2.c:196
     bd2:	2414      	movs	r4, #20
/workspace/benchmark/basicAlg_use/ta/CryptoVerifyTaPbkdf2.c:195
     bd4:	4681      	mov	r9, r0
     bd6:	f5ad 7d2d 	sub.w	sp, sp, #692	; 0x2b4
     bda:	468a      	mov	sl, r1
/workspace/benchmark/basicAlg_use/ta/CryptoVerifyTaPbkdf2.c:196
     bdc:	a807      	add	r0, sp, #28
     bde:	2100      	movs	r1, #0
/workspace/benchmark/basicAlg_use/ta/CryptoVerifyTaPbkdf2.c:195
     be0:	4698      	mov	r8, r3
     be2:	9204      	str	r2, [sp, #16]
/workspace/benchmark/basicAlg_use/ta/CryptoVerifyTaPbkdf2.c:196
     be4:	4622      	mov	r2, r4
/workspace/benchmark/basicAlg_use/ta/CryptoVerifyTaPbkdf2.c:195
     be6:	9db7      	ldr	r5, [sp, #732]	; 0x2dc
/workspace/benchmark/basicAlg_use/ta/CryptoVerifyTaPbkdf2.c:196
     be8:	f008 f91a 	bl	8e20 <memset>
/workspace/benchmark/basicAlg_use/ta/CryptoVerifyTaPbkdf2.c:197
     bec:	f44f 7200 	mov.w	r2, #512	; 0x200
     bf0:	2100      	movs	r1, #0
     bf2:	a82c      	add	r0, sp, #176	; 0xb0
     bf4:	f008 f914 	bl	8e20 <memset>
/workspace/benchmark/basicAlg_use/ta/CryptoVerifyTaPbkdf2.c:198
     bf8:	2280      	movs	r2, #128	; 0x80
     bfa:	2100      	movs	r1, #0
     bfc:	a80c      	add	r0, sp, #48	; 0x30
     bfe:	f008 f90f 	bl	8e20 <memset>
/workspace/benchmark/basicAlg_use/ta/CryptoVerifyTaPbkdf2.c:205
     c02:	4b50      	ldr	r3, [pc, #320]	; (d44 <g_CryptoTaPbkdf_PBKDF2+0x176>)
     c04:	f8cd 9004 	str.w	r9, [sp, #4]
     c08:	447b      	add	r3, pc
     c0a:	9300      	str	r3, [sp, #0]
     c0c:	2300      	movs	r3, #0
     c0e:	461a      	mov	r2, r3
     c10:	4619      	mov	r1, r3
     c12:	4618      	mov	r0, r3
     c14:	f000 fda6 	bl	1764 <trace_printf>
/workspace/benchmark/basicAlg_use/ta/CryptoVerifyTaPbkdf2.c:206
     c18:	4b4b      	ldr	r3, [pc, #300]	; (d48 <g_CryptoTaPbkdf_PBKDF2+0x17a>)
     c1a:	f8cd a004 	str.w	sl, [sp, #4]
     c1e:	447b      	add	r3, pc
     c20:	9300      	str	r3, [sp, #0]
     c22:	2300      	movs	r3, #0
     c24:	461a      	mov	r2, r3
     c26:	4619      	mov	r1, r3
     c28:	4618      	mov	r0, r3
     c2a:	f000 fd9b 	bl	1764 <trace_printf>
/workspace/benchmark/basicAlg_use/ta/CryptoVerifyTaPbkdf2.c:207
     c2e:	9b04      	ldr	r3, [sp, #16]
     c30:	9301      	str	r3, [sp, #4]
     c32:	4b46      	ldr	r3, [pc, #280]	; (d4c <g_CryptoTaPbkdf_PBKDF2+0x17e>)
     c34:	447b      	add	r3, pc
     c36:	9300      	str	r3, [sp, #0]
     c38:	2300      	movs	r3, #0
     c3a:	461a      	mov	r2, r3
     c3c:	4619      	mov	r1, r3
     c3e:	4618      	mov	r0, r3
     c40:	f000 fd90 	bl	1764 <trace_printf>
/workspace/benchmark/basicAlg_use/ta/CryptoVerifyTaPbkdf2.c:208
     c44:	4b42      	ldr	r3, [pc, #264]	; (d50 <g_CryptoTaPbkdf_PBKDF2+0x182>)
     c46:	f8cd 8004 	str.w	r8, [sp, #4]
     c4a:	447b      	add	r3, pc
     c4c:	9300      	str	r3, [sp, #0]
     c4e:	2300      	movs	r3, #0
     c50:	461a      	mov	r2, r3
     c52:	4619      	mov	r1, r3
     c54:	4618      	mov	r0, r3
     c56:	f000 fd85 	bl	1764 <trace_printf>
/workspace/benchmark/basicAlg_use/ta/CryptoVerifyTaPbkdf2.c:209
     c5a:	4b3e      	ldr	r3, [pc, #248]	; (d54 <g_CryptoTaPbkdf_PBKDF2+0x186>)
     c5c:	9501      	str	r5, [sp, #4]
     c5e:	447b      	add	r3, pc
     c60:	9300      	str	r3, [sp, #0]
     c62:	2300      	movs	r3, #0
     c64:	461a      	mov	r2, r3
     c66:	4619      	mov	r1, r3
     c68:	4618      	mov	r0, r3
     c6a:	f000 fd7b 	bl	1764 <trace_printf>
/workspace/benchmark/basicAlg_use/ta/CryptoVerifyTaPbkdf2.c:210
     c6e:	9bb6      	ldr	r3, [sp, #728]	; 0x2d8
     c70:	9301      	str	r3, [sp, #4]
     c72:	4b39      	ldr	r3, [pc, #228]	; (d58 <g_CryptoTaPbkdf_PBKDF2+0x18a>)
     c74:	447b      	add	r3, pc
     c76:	9300      	str	r3, [sp, #0]
     c78:	2300      	movs	r3, #0
     c7a:	461a      	mov	r2, r3
     c7c:	4619      	mov	r1, r3
     c7e:	4618      	mov	r0, r3
     c80:	f000 fd70 	bl	1764 <trace_printf>
/workspace/benchmark/basicAlg_use/ta/CryptoVerifyTaPbkdf2.c:214
     c84:	fb95 f3f4 	sdiv	r3, r5, r4
     c88:	fb04 5213 	mls	r2, r4, r3, r5
     c8c:	2a00      	cmp	r2, #0
     c8e:	d143      	bne.n	d18 <g_CryptoTaPbkdf_PBKDF2+0x14a>
/workspace/benchmark/basicAlg_use/ta/CryptoVerifyTaPbkdf2.c:214 (discriminator 1)
     c90:	42a5      	cmp	r5, r4
     c92:	dd41      	ble.n	d18 <g_CryptoTaPbkdf_PBKDF2+0x14a>
/workspace/benchmark/basicAlg_use/ta/CryptoVerifyTaPbkdf2.c:229
     c94:	ac0c      	add	r4, sp, #48	; 0x30
/workspace/benchmark/basicAlg_use/ta/CryptoVerifyTaPbkdf2.c:226
     c96:	2601      	movs	r6, #1
/workspace/benchmark/basicAlg_use/ta/CryptoVerifyTaPbkdf2.c:220
     c98:	9303      	str	r3, [sp, #12]
/workspace/benchmark/basicAlg_use/ta/CryptoVerifyTaPbkdf2.c:231
     c9a:	eb04 0308 	add.w	r3, r4, r8
     c9e:	9305      	str	r3, [sp, #20]
/workspace/benchmark/basicAlg_use/ta/CryptoVerifyTaPbkdf2.c:229
     ca0:	2280      	movs	r2, #128	; 0x80
     ca2:	2100      	movs	r1, #0
     ca4:	4620      	mov	r0, r4
/workspace/benchmark/basicAlg_use/ta/CryptoVerifyTaPbkdf2.c:236
     ca6:	af07      	add	r7, sp, #28
/workspace/benchmark/basicAlg_use/ta/CryptoVerifyTaPbkdf2.c:229
     ca8:	f001 fb74 	bl	2394 <TEE_MemFill>
/workspace/benchmark/basicAlg_use/ta/CryptoVerifyTaPbkdf2.c:230
     cac:	4642      	mov	r2, r8
     cae:	9904      	ldr	r1, [sp, #16]
     cb0:	4620      	mov	r0, r4
     cb2:	f001 fb6b 	bl	238c <TEE_MemMove>
/workspace/benchmark/basicAlg_use/ta/CryptoVerifyTaPbkdf2.c:231
     cb6:	9b05      	ldr	r3, [sp, #20]
/workspace/benchmark/basicAlg_use/ta/CryptoVerifyTaPbkdf2.c:236
     cb8:	464a      	mov	r2, r9
     cba:	f108 0104 	add.w	r1, r8, #4
     cbe:	4620      	mov	r0, r4
/workspace/benchmark/basicAlg_use/ta/CryptoVerifyTaPbkdf2.c:244
     cc0:	f04f 0b01 	mov.w	fp, #1
/workspace/benchmark/basicAlg_use/ta/CryptoVerifyTaPbkdf2.c:231
     cc4:	70de      	strb	r6, [r3, #3]
/workspace/benchmark/basicAlg_use/ta/CryptoVerifyTaPbkdf2.c:236
     cc6:	4653      	mov	r3, sl
     cc8:	9700      	str	r7, [sp, #0]
     cca:	f7ff fefd 	bl	ac8 <l_CryptoTaPbkdf_HMAC>
/workspace/benchmark/basicAlg_use/ta/CryptoVerifyTaPbkdf2.c:240
     cce:	2280      	movs	r2, #128	; 0x80
     cd0:	2100      	movs	r1, #0
     cd2:	4620      	mov	r0, r4
     cd4:	f001 fb5e 	bl	2394 <TEE_MemFill>
/workspace/benchmark/basicAlg_use/ta/CryptoVerifyTaPbkdf2.c:241
     cd8:	2214      	movs	r2, #20
     cda:	4639      	mov	r1, r7
     cdc:	4620      	mov	r0, r4
     cde:	f001 fb55 	bl	238c <TEE_MemMove>
/workspace/benchmark/basicAlg_use/ta/CryptoVerifyTaPbkdf2.c:244 (discriminator 1)
     ce2:	9bb6      	ldr	r3, [sp, #728]	; 0x2d8
     ce4:	459b      	cmp	fp, r3
     ce6:	d31b      	bcc.n	d20 <g_CryptoTaPbkdf_PBKDF2+0x152>
     ce8:	2014      	movs	r0, #20
/workspace/benchmark/basicAlg_use/ta/CryptoVerifyTaPbkdf2.c:244
     cea:	2300      	movs	r3, #0
/workspace/benchmark/basicAlg_use/ta/CryptoVerifyTaPbkdf2.c:259
     cec:	a92c      	add	r1, sp, #176	; 0xb0
     cee:	4370      	muls	r0, r6
/workspace/benchmark/basicAlg_use/ta/CryptoVerifyTaPbkdf2.c:259 (discriminator 3)
     cf0:	18c2      	adds	r2, r0, r3
     cf2:	5d1f      	ldrb	r7, [r3, r4]
     cf4:	440a      	add	r2, r1
/workspace/benchmark/basicAlg_use/ta/CryptoVerifyTaPbkdf2.c:257 (discriminator 3)
     cf6:	3301      	adds	r3, #1
     cf8:	2b14      	cmp	r3, #20
/workspace/benchmark/basicAlg_use/ta/CryptoVerifyTaPbkdf2.c:259 (discriminator 3)
     cfa:	f802 7c14 	strb.w	r7, [r2, #-20]
/workspace/benchmark/basicAlg_use/ta/CryptoVerifyTaPbkdf2.c:257 (discriminator 3)
     cfe:	d1f7      	bne.n	cf0 <g_CryptoTaPbkdf_PBKDF2+0x122>
/workspace/benchmark/basicAlg_use/ta/CryptoVerifyTaPbkdf2.c:226 (discriminator 2)
     d00:	9b03      	ldr	r3, [sp, #12]
     d02:	3601      	adds	r6, #1
     d04:	42b3      	cmp	r3, r6
     d06:	d2cb      	bcs.n	ca0 <g_CryptoTaPbkdf_PBKDF2+0xd2>
/workspace/benchmark/basicAlg_use/ta/CryptoVerifyTaPbkdf2.c:264
     d08:	462a      	mov	r2, r5
     d0a:	98b8      	ldr	r0, [sp, #736]	; 0x2e0
     d0c:	f001 fb3e 	bl	238c <TEE_MemMove>
/workspace/benchmark/basicAlg_use/ta/CryptoVerifyTaPbkdf2.c:265
     d10:	f50d 7d2d 	add.w	sp, sp, #692	; 0x2b4
     d14:	e8bd 8ff0 	ldmia.w	sp!, {r4, r5, r6, r7, r8, r9, sl, fp, pc}
/workspace/benchmark/basicAlg_use/ta/CryptoVerifyTaPbkdf2.c:220
     d18:	fbb5 f4f4 	udiv	r4, r5, r4
     d1c:	1c63      	adds	r3, r4, #1
     d1e:	e7b9      	b.n	c94 <g_CryptoTaPbkdf_PBKDF2+0xc6>
/workspace/benchmark/basicAlg_use/ta/CryptoVerifyTaPbkdf2.c:247
     d20:	4653      	mov	r3, sl
     d22:	9700      	str	r7, [sp, #0]
     d24:	464a      	mov	r2, r9
     d26:	2114      	movs	r1, #20
     d28:	4638      	mov	r0, r7
     d2a:	f7ff fecd 	bl	ac8 <l_CryptoTaPbkdf_HMAC>
/workspace/benchmark/basicAlg_use/ta/CryptoVerifyTaPbkdf2.c:251
     d2e:	2300      	movs	r3, #0
/workspace/benchmark/basicAlg_use/ta/CryptoVerifyTaPbkdf2.c:253 (discriminator 3)
     d30:	5d1a      	ldrb	r2, [r3, r4]
     d32:	5cf9      	ldrb	r1, [r7, r3]
     d34:	404a      	eors	r2, r1
     d36:	551a      	strb	r2, [r3, r4]
/workspace/benchmark/basicAlg_use/ta/CryptoVerifyTaPbkdf2.c:251 (discriminator 3)
     d38:	3301      	adds	r3, #1
     d3a:	2b14      	cmp	r3, #20
     d3c:	d1f8      	bne.n	d30 <g_CryptoTaPbkdf_PBKDF2+0x162>
/workspace/benchmark/basicAlg_use/ta/CryptoVerifyTaPbkdf2.c:244 (discriminator 2)
     d3e:	f10b 0b01 	add.w	fp, fp, #1
     d42:	e7ce      	b.n	ce2 <g_CryptoTaPbkdf_PBKDF2+0x114>
     d44:	00008c00 	.word	0x00008c00
     d48:	00008bf2 	.word	0x00008bf2
     d4c:	00008be8 	.word	0x00008be8
     d50:	00008bdb 	.word	0x00008bdb
     d54:	00008bd4 	.word	0x00008bd4
     d58:	00008bc8 	.word	0x00008bc8

00000d5c <g_TA_Printf>:
g_TA_Printf():
/workspace/benchmark/basicAlg_use/ta/CryptoVerifyTaDebug.c:92
     d5c:	e92d 41f3 	stmdb	sp!, {r0, r1, r4, r5, r6, r7, r8, lr}
     d60:	4606      	mov	r6, r0
/workspace/benchmark/basicAlg_use/ta/CryptoVerifyTaDebug.c:101
     d62:	4f16      	ldr	r7, [pc, #88]	; (dbc <g_TA_Printf+0x60>)
/workspace/benchmark/basicAlg_use/ta/CryptoVerifyTaDebug.c:107
     d64:	f8df 8058 	ldr.w	r8, [pc, #88]	; dc0 <g_TA_Printf+0x64>
/workspace/benchmark/basicAlg_use/ta/CryptoVerifyTaDebug.c:92
     d68:	460d      	mov	r5, r1
/workspace/benchmark/basicAlg_use/ta/CryptoVerifyTaDebug.c:94
     d6a:	2400      	movs	r4, #0
/workspace/benchmark/basicAlg_use/ta/CryptoVerifyTaDebug.c:101
     d6c:	447f      	add	r7, pc
/workspace/benchmark/basicAlg_use/ta/CryptoVerifyTaDebug.c:107
     d6e:	44f8      	add	r8, pc
/workspace/benchmark/basicAlg_use/ta/CryptoVerifyTaDebug.c:94 (discriminator 1)
     d70:	42ac      	cmp	r4, r5
     d72:	d10b      	bne.n	d8c <g_TA_Printf+0x30>
/workspace/benchmark/basicAlg_use/ta/CryptoVerifyTaDebug.c:110
     d74:	4b13      	ldr	r3, [pc, #76]	; (dc4 <g_TA_Printf+0x68>)
     d76:	447b      	add	r3, pc
     d78:	9300      	str	r3, [sp, #0]
     d7a:	2300      	movs	r3, #0
     d7c:	461a      	mov	r2, r3
     d7e:	4619      	mov	r1, r3
     d80:	4618      	mov	r0, r3
     d82:	f000 fcef 	bl	1764 <trace_printf>
/workspace/benchmark/basicAlg_use/ta/CryptoVerifyTaDebug.c:111
     d86:	b002      	add	sp, #8
     d88:	e8bd 81f0 	ldmia.w	sp!, {r4, r5, r6, r7, r8, pc}
/workspace/benchmark/basicAlg_use/ta/CryptoVerifyTaDebug.c:96
     d8c:	2c0e      	cmp	r4, #14
     d8e:	d908      	bls.n	da2 <g_TA_Printf+0x46>
/workspace/benchmark/basicAlg_use/ta/CryptoVerifyTaDebug.c:99
     d90:	f014 030f 	ands.w	r3, r4, #15
     d94:	d105      	bne.n	da2 <g_TA_Printf+0x46>
/workspace/benchmark/basicAlg_use/ta/CryptoVerifyTaDebug.c:101
     d96:	9700      	str	r7, [sp, #0]
     d98:	461a      	mov	r2, r3
     d9a:	4619      	mov	r1, r3
     d9c:	4618      	mov	r0, r3
     d9e:	f000 fce1 	bl	1764 <trace_printf>
/workspace/benchmark/basicAlg_use/ta/CryptoVerifyTaDebug.c:107 (discriminator 2)
     da2:	5d33      	ldrb	r3, [r6, r4]
/workspace/benchmark/basicAlg_use/ta/CryptoVerifyTaDebug.c:94 (discriminator 2)
     da4:	3401      	adds	r4, #1
/workspace/benchmark/basicAlg_use/ta/CryptoVerifyTaDebug.c:107 (discriminator 2)
     da6:	9301      	str	r3, [sp, #4]
     da8:	2300      	movs	r3, #0
     daa:	f8cd 8000 	str.w	r8, [sp]
     dae:	461a      	mov	r2, r3
     db0:	4619      	mov	r1, r3
     db2:	4618      	mov	r0, r3
     db4:	f000 fcd6 	bl	1764 <trace_printf>
     db8:	e7da      	b.n	d70 <g_TA_Printf+0x14>
     dba:	bf00      	nop
     dbc:	00008b02 	.word	0x00008b02
     dc0:	00008af6 	.word	0x00008af6
     dc4:	00008af7 	.word	0x00008af7

00000dc8 <g_CryptoTaOther_Random>:
g_CryptoTaOther_Random():
/workspace/benchmark/basicAlg_use/ta/CryptoVerifyTaOther.c:118
     dc8:	b537      	push	{r0, r1, r2, r4, r5, lr}
     dca:	4605      	mov	r5, r0
/workspace/benchmark/basicAlg_use/ta/CryptoVerifyTaOther.c:119
     dcc:	4b08      	ldr	r3, [pc, #32]	; (df0 <g_CryptoTaOther_Random+0x28>)
/workspace/benchmark/basicAlg_use/ta/CryptoVerifyTaOther.c:118
     dce:	460c      	mov	r4, r1
/workspace/benchmark/basicAlg_use/ta/CryptoVerifyTaOther.c:119
     dd0:	447b      	add	r3, pc
     dd2:	9300      	str	r3, [sp, #0]
     dd4:	2300      	movs	r3, #0
     dd6:	4619      	mov	r1, r3
     dd8:	4618      	mov	r0, r3
     dda:	461a      	mov	r2, r3
     ddc:	f000 fcc2 	bl	1764 <trace_printf>
/workspace/benchmark/basicAlg_use/ta/CryptoVerifyTaOther.c:120
     de0:	4629      	mov	r1, r5
     de2:	4620      	mov	r0, r4
/workspace/benchmark/basicAlg_use/ta/CryptoVerifyTaOther.c:121
     de4:	b003      	add	sp, #12
     de6:	e8bd 4030 	ldmia.w	sp!, {r4, r5, lr}
/workspace/benchmark/basicAlg_use/ta/CryptoVerifyTaOther.c:120
     dea:	f003 b9f4 	b.w	41d6 <TEE_GenerateRandom>
     dee:	bf00      	nop
     df0:	00008ba0 	.word	0x00008ba0

00000df4 <g_CryptoTaOther_base64>:
g_CryptoTaOther_base64():
/workspace/benchmark/basicAlg_use/ta/CryptoVerifyTaOther.c:237
     df4:	e92d 41f3 	stmdb	sp!, {r0, r1, r4, r5, r6, r7, r8, lr}
     df8:	461f      	mov	r7, r3
     dfa:	9b08      	ldr	r3, [sp, #32]
     dfc:	4606      	mov	r6, r0
     dfe:	460c      	mov	r4, r1
     e00:	4615      	mov	r5, r2
/workspace/benchmark/basicAlg_use/ta/CryptoVerifyTaOther.c:240
     e02:	2b01      	cmp	r3, #1
     e04:	f040 8087 	bne.w	f16 <g_CryptoTaOther_base64+0x122>
/workspace/benchmark/basicAlg_use/ta/CryptoVerifyTaOther.c:242
     e08:	4b6b      	ldr	r3, [pc, #428]	; (fb8 <g_CryptoTaOther_base64+0x1c4>)
     e0a:	447b      	add	r3, pc
     e0c:	9300      	str	r3, [sp, #0]
     e0e:	2300      	movs	r3, #0
     e10:	4619      	mov	r1, r3
     e12:	461a      	mov	r2, r3
     e14:	4618      	mov	r0, r3
     e16:	f000 fca5 	bl	1764 <trace_printf>
l_DeviceIdTaBase64_encode():
/workspace/benchmark/basicAlg_use/ta/CryptoVerifyTaOther.c:141
     e1a:	1ca3      	adds	r3, r4, #2
     e1c:	2103      	movs	r1, #3
     e1e:	fbb3 f3f1 	udiv	r3, r3, r1
     e22:	009b      	lsls	r3, r3, #2
/workspace/benchmark/basicAlg_use/ta/CryptoVerifyTaOther.c:142
     e24:	3301      	adds	r3, #1
     e26:	42bb      	cmp	r3, r7
     e28:	d917      	bls.n	e5a <g_CryptoTaOther_base64+0x66>
/workspace/benchmark/basicAlg_use/ta/CryptoVerifyTaOther.c:145
     e2a:	4b64      	ldr	r3, [pc, #400]	; (fbc <g_CryptoTaOther_base64+0x1c8>)
     e2c:	447b      	add	r3, pc
     e2e:	9300      	str	r3, [sp, #0]
     e30:	2300      	movs	r3, #0
     e32:	461a      	mov	r2, r3
     e34:	4619      	mov	r1, r3
     e36:	4618      	mov	r0, r3
     e38:	f000 fc94 	bl	1764 <trace_printf>
/workspace/benchmark/basicAlg_use/ta/CryptoVerifyTaOther.c:146
     e3c:	f04f 32ff 	mov.w	r2, #4294967295	; 0xffffffff
g_CryptoTaOther_base64():
/workspace/benchmark/basicAlg_use/ta/CryptoVerifyTaOther.c:244
     e40:	4b5f      	ldr	r3, [pc, #380]	; (fc0 <g_CryptoTaOther_base64+0x1cc>)
     e42:	9201      	str	r2, [sp, #4]
     e44:	447b      	add	r3, pc
/workspace/benchmark/basicAlg_use/ta/CryptoVerifyTaOther.c:250
     e46:	9300      	str	r3, [sp, #0]
     e48:	2300      	movs	r3, #0
     e4a:	461a      	mov	r2, r3
     e4c:	4619      	mov	r1, r3
     e4e:	4618      	mov	r0, r3
     e50:	f000 fc88 	bl	1764 <trace_printf>
/workspace/benchmark/basicAlg_use/ta/CryptoVerifyTaOther.c:256
     e54:	b002      	add	sp, #8
     e56:	e8bd 81f0 	ldmia.w	sp!, {r4, r5, r6, r7, r8, pc}
l_DeviceIdTaBase64_encode():
/workspace/benchmark/basicAlg_use/ta/CryptoVerifyTaOther.c:149
     e5a:	fbb4 f1f1 	udiv	r1, r4, r1
/workspace/benchmark/basicAlg_use/ta/CryptoVerifyTaOther.c:152
     e5e:	4f59      	ldr	r7, [pc, #356]	; (fc4 <g_CryptoTaOther_base64+0x1d0>)
     e60:	4630      	mov	r0, r6
/workspace/benchmark/basicAlg_use/ta/CryptoVerifyTaOther.c:150
     e62:	2300      	movs	r3, #0
     e64:	462e      	mov	r6, r5
/workspace/benchmark/basicAlg_use/ta/CryptoVerifyTaOther.c:152
     e66:	447f      	add	r7, pc
/workspace/benchmark/basicAlg_use/ta/CryptoVerifyTaOther.c:149
     e68:	eb01 0141 	add.w	r1, r1, r1, lsl #1
     e6c:	4632      	mov	r2, r6
     e6e:	4684      	mov	ip, r0
     e70:	3604      	adds	r6, #4
     e72:	3003      	adds	r0, #3
/workspace/benchmark/basicAlg_use/ta/CryptoVerifyTaOther.c:150
     e74:	4299      	cmp	r1, r3
     e76:	d823      	bhi.n	ec0 <g_CryptoTaOther_base64+0xcc>
/workspace/benchmark/basicAlg_use/ta/CryptoVerifyTaOther.c:159
     e78:	429c      	cmp	r4, r3
     e7a:	d91d      	bls.n	eb8 <g_CryptoTaOther_base64+0xc4>
/workspace/benchmark/basicAlg_use/ta/CryptoVerifyTaOther.c:162
     e7c:	3301      	adds	r3, #1
/workspace/benchmark/basicAlg_use/ta/CryptoVerifyTaOther.c:161
     e7e:	f89c 1000 	ldrb.w	r1, [ip]
/workspace/benchmark/basicAlg_use/ta/CryptoVerifyTaOther.c:162
     e82:	429c      	cmp	r4, r3
     e84:	d943      	bls.n	f0e <g_CryptoTaOther_base64+0x11a>
     e86:	f89c 0001 	ldrb.w	r0, [ip, #1]
/workspace/benchmark/basicAlg_use/ta/CryptoVerifyTaOther.c:164
     e8a:	088f      	lsrs	r7, r1, #2
     e8c:	4e4e      	ldr	r6, [pc, #312]	; (fc8 <g_CryptoTaOther_base64+0x1d4>)
/workspace/benchmark/basicAlg_use/ta/CryptoVerifyTaOther.c:165
     e8e:	0109      	lsls	r1, r1, #4
/workspace/benchmark/basicAlg_use/ta/CryptoVerifyTaOther.c:166
     e90:	429c      	cmp	r4, r3
/workspace/benchmark/basicAlg_use/ta/CryptoVerifyTaOther.c:165
     e92:	f001 0130 	and.w	r1, r1, #48	; 0x30
/workspace/benchmark/basicAlg_use/ta/CryptoVerifyTaOther.c:164
     e96:	447e      	add	r6, pc
/workspace/benchmark/basicAlg_use/ta/CryptoVerifyTaOther.c:165
     e98:	eb01 1110 	add.w	r1, r1, r0, lsr #4
/workspace/benchmark/basicAlg_use/ta/CryptoVerifyTaOther.c:164
     e9c:	5dbf      	ldrb	r7, [r7, r6]
/workspace/benchmark/basicAlg_use/ta/CryptoVerifyTaOther.c:165
     e9e:	5d89      	ldrb	r1, [r1, r6]
/workspace/benchmark/basicAlg_use/ta/CryptoVerifyTaOther.c:164
     ea0:	7017      	strb	r7, [r2, #0]
/workspace/benchmark/basicAlg_use/ta/CryptoVerifyTaOther.c:165
     ea2:	7051      	strb	r1, [r2, #1]
/workspace/benchmark/basicAlg_use/ta/CryptoVerifyTaOther.c:166
     ea4:	d935      	bls.n	f12 <g_CryptoTaOther_base64+0x11e>
     ea6:	0080      	lsls	r0, r0, #2
     ea8:	f000 003c 	and.w	r0, r0, #60	; 0x3c
     eac:	5d83      	ldrb	r3, [r0, r6]
     eae:	7093      	strb	r3, [r2, #2]
/workspace/benchmark/basicAlg_use/ta/CryptoVerifyTaOther.c:167
     eb0:	233d      	movs	r3, #61	; 0x3d
     eb2:	3204      	adds	r2, #4
     eb4:	f802 3c01 	strb.w	r3, [r2, #-1]
/workspace/benchmark/basicAlg_use/ta/CryptoVerifyTaOther.c:171
     eb8:	2300      	movs	r3, #0
     eba:	7013      	strb	r3, [r2, #0]
/workspace/benchmark/basicAlg_use/ta/CryptoVerifyTaOther.c:174
     ebc:	1b52      	subs	r2, r2, r5
     ebe:	e7bf      	b.n	e40 <g_CryptoTaOther_base64+0x4c>
/workspace/benchmark/basicAlg_use/ta/CryptoVerifyTaOther.c:152
     ec0:	f810 2c03 	ldrb.w	r2, [r0, #-3]
/workspace/benchmark/basicAlg_use/ta/CryptoVerifyTaOther.c:150
     ec4:	3303      	adds	r3, #3
/workspace/benchmark/basicAlg_use/ta/CryptoVerifyTaOther.c:152
     ec6:	0892      	lsrs	r2, r2, #2
     ec8:	5dd2      	ldrb	r2, [r2, r7]
     eca:	f806 2c04 	strb.w	r2, [r6, #-4]
/workspace/benchmark/basicAlg_use/ta/CryptoVerifyTaOther.c:153
     ece:	f810 2c03 	ldrb.w	r2, [r0, #-3]
     ed2:	f810 cc02 	ldrb.w	ip, [r0, #-2]
     ed6:	0112      	lsls	r2, r2, #4
     ed8:	f002 0230 	and.w	r2, r2, #48	; 0x30
     edc:	eb02 121c 	add.w	r2, r2, ip, lsr #4
     ee0:	5dd2      	ldrb	r2, [r2, r7]
     ee2:	f806 2c03 	strb.w	r2, [r6, #-3]
/workspace/benchmark/basicAlg_use/ta/CryptoVerifyTaOther.c:154
     ee6:	f810 2c02 	ldrb.w	r2, [r0, #-2]
     eea:	f810 cc01 	ldrb.w	ip, [r0, #-1]
     eee:	0092      	lsls	r2, r2, #2
     ef0:	f002 023c 	and.w	r2, r2, #60	; 0x3c
     ef4:	eb02 129c 	add.w	r2, r2, ip, lsr #6
     ef8:	5dd2      	ldrb	r2, [r2, r7]
     efa:	f806 2c02 	strb.w	r2, [r6, #-2]
/workspace/benchmark/basicAlg_use/ta/CryptoVerifyTaOther.c:155
     efe:	f810 2c01 	ldrb.w	r2, [r0, #-1]
     f02:	f002 023f 	and.w	r2, r2, #63	; 0x3f
     f06:	5dd2      	ldrb	r2, [r2, r7]
     f08:	f806 2c01 	strb.w	r2, [r6, #-1]
     f0c:	e7ae      	b.n	e6c <g_CryptoTaOther_base64+0x78>
/workspace/benchmark/basicAlg_use/ta/CryptoVerifyTaOther.c:162
     f0e:	2000      	movs	r0, #0
     f10:	e7bb      	b.n	e8a <g_CryptoTaOther_base64+0x96>
/workspace/benchmark/basicAlg_use/ta/CryptoVerifyTaOther.c:166
     f12:	233d      	movs	r3, #61	; 0x3d
     f14:	e7cb      	b.n	eae <g_CryptoTaOther_base64+0xba>
g_CryptoTaOther_base64():
/workspace/benchmark/basicAlg_use/ta/CryptoVerifyTaOther.c:246
     f16:	2b02      	cmp	r3, #2
     f18:	d19c      	bne.n	e54 <g_CryptoTaOther_base64+0x60>
/workspace/benchmark/basicAlg_use/ta/CryptoVerifyTaOther.c:248
     f1a:	4b2c      	ldr	r3, [pc, #176]	; (fcc <g_CryptoTaOther_base64+0x1d8>)
     f1c:	447b      	add	r3, pc
     f1e:	9300      	str	r3, [sp, #0]
     f20:	2300      	movs	r3, #0
     f22:	461a      	mov	r2, r3
     f24:	4619      	mov	r1, r3
     f26:	4618      	mov	r0, r3
     f28:	f000 fc1c 	bl	1764 <trace_printf>
l_DeviceIdTaBase64_decode():
/workspace/benchmark/basicAlg_use/ta/CryptoVerifyTaOther.c:191
     f2c:	f8df e0a0 	ldr.w	lr, [pc, #160]	; fd0 <g_CryptoTaOther_base64+0x1dc>
/workspace/benchmark/basicAlg_use/ta/CryptoVerifyTaOther.c:189
     f30:	2300      	movs	r3, #0
     f32:	eb06 0c04 	add.w	ip, r6, r4
     f36:	4630      	mov	r0, r6
/workspace/benchmark/basicAlg_use/ta/CryptoVerifyTaOther.c:188
     f38:	2103      	movs	r1, #3
/workspace/benchmark/basicAlg_use/ta/CryptoVerifyTaOther.c:189
     f3a:	461a      	mov	r2, r3
     f3c:	461c      	mov	r4, r3
/workspace/benchmark/basicAlg_use/ta/CryptoVerifyTaOther.c:191
     f3e:	44fe      	add	lr, pc
/workspace/benchmark/basicAlg_use/ta/CryptoVerifyTaOther.c:189
     f40:	4584      	cmp	ip, r0
     f42:	d108      	bne.n	f56 <g_CryptoTaOther_base64+0x162>
/workspace/benchmark/basicAlg_use/ta/CryptoVerifyTaOther.c:228
     f44:	2a00      	cmp	r2, #0
     f46:	f04f 32ff 	mov.w	r2, #4294967295	; 0xffffffff
     f4a:	bf18      	it	ne
     f4c:	4613      	movne	r3, r2
g_CryptoTaOther_base64():
/workspace/benchmark/basicAlg_use/ta/CryptoVerifyTaOther.c:250
     f4e:	9301      	str	r3, [sp, #4]
     f50:	4b20      	ldr	r3, [pc, #128]	; (fd4 <g_CryptoTaOther_base64+0x1e0>)
     f52:	447b      	add	r3, pc
     f54:	e777      	b.n	e46 <g_CryptoTaOther_base64+0x52>
l_DeviceIdTaBase64_decode():
/workspace/benchmark/basicAlg_use/ta/CryptoVerifyTaOther.c:191
     f56:	f810 6b01 	ldrb.w	r6, [r0], #1
     f5a:	f81e 6006 	ldrb.w	r6, [lr, r6]
/workspace/benchmark/basicAlg_use/ta/CryptoVerifyTaOther.c:192
     f5e:	2eff      	cmp	r6, #255	; 0xff
     f60:	d0ee      	beq.n	f40 <g_CryptoTaOther_base64+0x14c>
/workspace/benchmark/basicAlg_use/ta/CryptoVerifyTaOther.c:194
     f62:	2efe      	cmp	r6, #254	; 0xfe
     f64:	d11b      	bne.n	f9e <g_CryptoTaOther_base64+0x1aa>
/workspace/benchmark/basicAlg_use/ta/CryptoVerifyTaOther.c:198
     f66:	3901      	subs	r1, #1
     f68:	d41b      	bmi.n	fa2 <g_CryptoTaOther_base64+0x1ae>
/workspace/benchmark/basicAlg_use/ta/CryptoVerifyTaOther.c:196
     f6a:	2600      	movs	r6, #0
/workspace/benchmark/basicAlg_use/ta/CryptoVerifyTaOther.c:211
     f6c:	3201      	adds	r2, #1
/workspace/benchmark/basicAlg_use/ta/CryptoVerifyTaOther.c:209
     f6e:	ea46 1484 	orr.w	r4, r6, r4, lsl #6
/workspace/benchmark/basicAlg_use/ta/CryptoVerifyTaOther.c:211
     f72:	2a04      	cmp	r2, #4
     f74:	d1e4      	bne.n	f40 <g_CryptoTaOther_base64+0x14c>
/workspace/benchmark/basicAlg_use/ta/CryptoVerifyTaOther.c:213
     f76:	18ca      	adds	r2, r1, r3
     f78:	42ba      	cmp	r2, r7
     f7a:	d812      	bhi.n	fa2 <g_CryptoTaOther_base64+0x1ae>
/workspace/benchmark/basicAlg_use/ta/CryptoVerifyTaOther.c:217
     f7c:	0c22      	lsrs	r2, r4, #16
     f7e:	1c5e      	adds	r6, r3, #1
     f80:	54ea      	strb	r2, [r5, r3]
/workspace/benchmark/basicAlg_use/ta/CryptoVerifyTaOther.c:218
     f82:	2901      	cmp	r1, #1
     f84:	dd10      	ble.n	fa8 <g_CryptoTaOther_base64+0x1b4>
     f86:	ea4f 2814 	mov.w	r8, r4, lsr #8
     f8a:	1c9a      	adds	r2, r3, #2
     f8c:	f805 8006 	strb.w	r8, [r5, r6]
/workspace/benchmark/basicAlg_use/ta/CryptoVerifyTaOther.c:219
     f90:	2903      	cmp	r1, #3
     f92:	d10d      	bne.n	fb0 <g_CryptoTaOther_base64+0x1bc>
     f94:	54ac      	strb	r4, [r5, r2]
/workspace/benchmark/basicAlg_use/ta/CryptoVerifyTaOther.c:220
     f96:	2400      	movs	r4, #0
/workspace/benchmark/basicAlg_use/ta/CryptoVerifyTaOther.c:219
     f98:	3303      	adds	r3, #3
/workspace/benchmark/basicAlg_use/ta/CryptoVerifyTaOther.c:220
     f9a:	4622      	mov	r2, r4
     f9c:	e7d0      	b.n	f40 <g_CryptoTaOther_base64+0x14c>
/workspace/benchmark/basicAlg_use/ta/CryptoVerifyTaOther.c:203
     f9e:	2903      	cmp	r1, #3
     fa0:	d0e4      	beq.n	f6c <g_CryptoTaOther_base64+0x178>
/workspace/benchmark/basicAlg_use/ta/CryptoVerifyTaOther.c:200
     fa2:	f04f 33ff 	mov.w	r3, #4294967295	; 0xffffffff
     fa6:	e7d2      	b.n	f4e <g_CryptoTaOther_base64+0x15a>
/workspace/benchmark/basicAlg_use/ta/CryptoVerifyTaOther.c:217
     fa8:	4633      	mov	r3, r6
/workspace/benchmark/basicAlg_use/ta/CryptoVerifyTaOther.c:220
     faa:	2200      	movs	r2, #0
     fac:	4614      	mov	r4, r2
     fae:	e7c7      	b.n	f40 <g_CryptoTaOther_base64+0x14c>
/workspace/benchmark/basicAlg_use/ta/CryptoVerifyTaOther.c:218
     fb0:	4613      	mov	r3, r2
/workspace/benchmark/basicAlg_use/ta/CryptoVerifyTaOther.c:219
     fb2:	2102      	movs	r1, #2
     fb4:	e7f9      	b.n	faa <g_CryptoTaOther_base64+0x1b6>
     fb6:	bf00      	nop
     fb8:	00008b74 	.word	0x00008b74
     fbc:	00008b68 	.word	0x00008b68
     fc0:	00008baa 	.word	0x00008baa
     fc4:	00008b47 	.word	0x00008b47
     fc8:	00008b17 	.word	0x00008b17
     fcc:	00008aeb 	.word	0x00008aeb
     fd0:	00008932 	.word	0x00008932
     fd4:	00008a9c 	.word	0x00008a9c

00000fd8 <l_CryptoTaRsa_CleanUpPublicHandle>:
l_CryptoTaRsa_CleanUpPublicHandle():
/workspace/benchmark/basicAlg_use/ta/CryptoVerifyTaRsa.c:128
     fd8:	b508      	push	{r3, lr}
/workspace/benchmark/basicAlg_use/ta/CryptoVerifyTaRsa.c:129
     fda:	4b07      	ldr	r3, [pc, #28]	; (ff8 <l_CryptoTaRsa_CleanUpPublicHandle+0x20>)
     fdc:	447b      	add	r3, pc
     fde:	6818      	ldr	r0, [r3, #0]
     fe0:	b108      	cbz	r0, fe6 <l_CryptoTaRsa_CleanUpPublicHandle+0xe>
/workspace/benchmark/basicAlg_use/ta/CryptoVerifyTaRsa.c:131
     fe2:	f001 fb67 	bl	26b4 <TEE_FreeTransientObject>
/workspace/benchmark/basicAlg_use/ta/CryptoVerifyTaRsa.c:134
     fe6:	4b05      	ldr	r3, [pc, #20]	; (ffc <l_CryptoTaRsa_CleanUpPublicHandle+0x24>)
     fe8:	447b      	add	r3, pc
     fea:	6858      	ldr	r0, [r3, #4]
     fec:	b118      	cbz	r0, ff6 <l_CryptoTaRsa_CleanUpPublicHandle+0x1e>
/workspace/benchmark/basicAlg_use/ta/CryptoVerifyTaRsa.c:138
     fee:	e8bd 4008 	ldmia.w	sp!, {r3, lr}
/workspace/benchmark/basicAlg_use/ta/CryptoVerifyTaRsa.c:136
     ff2:	f001 bed1 	b.w	2d98 <TEE_FreeOperation>
     ff6:	bd08      	pop	{r3, pc}
     ff8:	0000b5ec 	.word	0x0000b5ec
     ffc:	0000b5e0 	.word	0x0000b5e0

00001000 <l_CryptoTaRsa_CleanUpKeyPairObj>:
l_CryptoTaRsa_CleanUpKeyPairObj():
/workspace/benchmark/basicAlg_use/ta/CryptoVerifyTaRsa.c:114
    1000:	b508      	push	{r3, lr}
/workspace/benchmark/basicAlg_use/ta/CryptoVerifyTaRsa.c:115
    1002:	4b07      	ldr	r3, [pc, #28]	; (1020 <l_CryptoTaRsa_CleanUpKeyPairObj+0x20>)
    1004:	447b      	add	r3, pc
    1006:	6898      	ldr	r0, [r3, #8]
    1008:	b108      	cbz	r0, 100e <l_CryptoTaRsa_CleanUpKeyPairObj+0xe>
/workspace/benchmark/basicAlg_use/ta/CryptoVerifyTaRsa.c:117
    100a:	f001 fb53 	bl	26b4 <TEE_FreeTransientObject>
/workspace/benchmark/basicAlg_use/ta/CryptoVerifyTaRsa.c:120
    100e:	4b05      	ldr	r3, [pc, #20]	; (1024 <l_CryptoTaRsa_CleanUpKeyPairObj+0x24>)
    1010:	447b      	add	r3, pc
    1012:	6858      	ldr	r0, [r3, #4]
    1014:	b118      	cbz	r0, 101e <l_CryptoTaRsa_CleanUpKeyPairObj+0x1e>
/workspace/benchmark/basicAlg_use/ta/CryptoVerifyTaRsa.c:124
    1016:	e8bd 4008 	ldmia.w	sp!, {r3, lr}
/workspace/benchmark/basicAlg_use/ta/CryptoVerifyTaRsa.c:122
    101a:	f001 bebd 	b.w	2d98 <TEE_FreeOperation>
    101e:	bd08      	pop	{r3, pc}
    1020:	0000b5c4 	.word	0x0000b5c4
    1024:	0000b5b8 	.word	0x0000b5b8

00001028 <l_CryptoTaRsa_SetRsaPublicKey.isra.0>:
l_CryptoTaRsa_SetRsaPublicKey():
/workspace/benchmark/basicAlg_use/ta/CryptoVerifyTaRsa.c:201
    1028:	e92d 43f7 	stmdb	sp!, {r0, r1, r2, r4, r5, r6, r7, r8, r9, lr}
    102c:	4615      	mov	r5, r2
/workspace/benchmark/basicAlg_use/ta/CryptoVerifyTaRsa.c:207
    102e:	4c24      	ldr	r4, [pc, #144]	; (10c0 <l_CryptoTaRsa_SetRsaPublicKey.isra.0+0x98>)
/workspace/benchmark/basicAlg_use/ta/CryptoVerifyTaRsa.c:201
    1030:	4681      	mov	r9, r0
    1032:	4688      	mov	r8, r1
/workspace/benchmark/basicAlg_use/ta/CryptoVerifyTaRsa.c:207
    1034:	447c      	add	r4, pc
/workspace/benchmark/basicAlg_use/ta/CryptoVerifyTaRsa.c:201
    1036:	461f      	mov	r7, r3
/workspace/benchmark/basicAlg_use/ta/CryptoVerifyTaRsa.c:210
    1038:	f104 0610 	add.w	r6, r4, #16
/workspace/benchmark/basicAlg_use/ta/CryptoVerifyTaRsa.c:207
    103c:	00d3      	lsls	r3, r2, #3
/workspace/benchmark/basicAlg_use/ta/CryptoVerifyTaRsa.c:210
    103e:	2100      	movs	r1, #0
    1040:	2218      	movs	r2, #24
    1042:	4630      	mov	r0, r6
/workspace/benchmark/basicAlg_use/ta/CryptoVerifyTaRsa.c:207
    1044:	60e3      	str	r3, [r4, #12]
/workspace/benchmark/basicAlg_use/ta/CryptoVerifyTaRsa.c:210
    1046:	f001 f9a5 	bl	2394 <TEE_MemFill>
/workspace/benchmark/basicAlg_use/ta/CryptoVerifyTaRsa.c:213
    104a:	4b1b      	ldr	r3, [pc, #108]	; (10b8 <l_CryptoTaRsa_SetRsaPublicKey.isra.0+0x90>)
    104c:	6123      	str	r3, [r4, #16]
/workspace/benchmark/basicAlg_use/ta/CryptoVerifyTaRsa.c:223
    104e:	4622      	mov	r2, r4
/workspace/benchmark/basicAlg_use/ta/CryptoVerifyTaRsa.c:215
    1050:	61a5      	str	r5, [r4, #24]
/workspace/benchmark/basicAlg_use/ta/CryptoVerifyTaRsa.c:218
    1052:	f503 7380 	add.w	r3, r3, #256	; 0x100
/workspace/benchmark/basicAlg_use/ta/CryptoVerifyTaRsa.c:214
    1056:	f8c4 9014 	str.w	r9, [r4, #20]
/workspace/benchmark/basicAlg_use/ta/CryptoVerifyTaRsa.c:218
    105a:	61e3      	str	r3, [r4, #28]
/workspace/benchmark/basicAlg_use/ta/CryptoVerifyTaRsa.c:219
    105c:	f8c4 8020 	str.w	r8, [r4, #32]
/workspace/benchmark/basicAlg_use/ta/CryptoVerifyTaRsa.c:220
    1060:	6267      	str	r7, [r4, #36]	; 0x24
/workspace/benchmark/basicAlg_use/ta/CryptoVerifyTaRsa.c:223
    1062:	68e1      	ldr	r1, [r4, #12]
    1064:	4815      	ldr	r0, [pc, #84]	; (10bc <l_CryptoTaRsa_SetRsaPublicKey.isra.0+0x94>)
    1066:	f001 fb0d 	bl	2684 <TEE_AllocateTransientObject>
/workspace/benchmark/basicAlg_use/ta/CryptoVerifyTaRsa.c:224
    106a:	4605      	mov	r5, r0
    106c:	b170      	cbz	r0, 108c <l_CryptoTaRsa_SetRsaPublicKey.isra.0+0x64>
/workspace/benchmark/basicAlg_use/ta/CryptoVerifyTaRsa.c:226
    106e:	4b15      	ldr	r3, [pc, #84]	; (10c4 <l_CryptoTaRsa_SetRsaPublicKey.isra.0+0x9c>)
    1070:	9001      	str	r0, [sp, #4]
    1072:	447b      	add	r3, pc
    1074:	9300      	str	r3, [sp, #0]
    1076:	2300      	movs	r3, #0
    1078:	461a      	mov	r2, r3
    107a:	4619      	mov	r1, r3
    107c:	4618      	mov	r0, r3
    107e:	f000 fb71 	bl	1764 <trace_printf>
/workspace/benchmark/basicAlg_use/ta/CryptoVerifyTaRsa.c:248
    1082:	f04f 30ff 	mov.w	r0, #4294967295	; 0xffffffff
/workspace/benchmark/basicAlg_use/ta/CryptoVerifyTaRsa.c:249
    1086:	b003      	add	sp, #12
    1088:	e8bd 83f0 	ldmia.w	sp!, {r4, r5, r6, r7, r8, r9, pc}
/workspace/benchmark/basicAlg_use/ta/CryptoVerifyTaRsa.c:232
    108c:	2202      	movs	r2, #2
    108e:	4631      	mov	r1, r6
    1090:	6820      	ldr	r0, [r4, #0]
    1092:	f001 fb3f 	bl	2714 <TEE_PopulateTransientObject>
/workspace/benchmark/basicAlg_use/ta/CryptoVerifyTaRsa.c:233
    1096:	2800      	cmp	r0, #0
    1098:	d0f5      	beq.n	1086 <l_CryptoTaRsa_SetRsaPublicKey.isra.0+0x5e>
/workspace/benchmark/basicAlg_use/ta/CryptoVerifyTaRsa.c:235
    109a:	4b0b      	ldr	r3, [pc, #44]	; (10c8 <l_CryptoTaRsa_SetRsaPublicKey.isra.0+0xa0>)
    109c:	462a      	mov	r2, r5
    109e:	9001      	str	r0, [sp, #4]
    10a0:	4629      	mov	r1, r5
    10a2:	447b      	add	r3, pc
    10a4:	4628      	mov	r0, r5
    10a6:	9300      	str	r3, [sp, #0]
    10a8:	462b      	mov	r3, r5
    10aa:	f000 fb5b 	bl	1764 <trace_printf>
/workspace/benchmark/basicAlg_use/ta/CryptoVerifyTaRsa.c:245
    10ae:	6820      	ldr	r0, [r4, #0]
    10b0:	f001 fb00 	bl	26b4 <TEE_FreeTransientObject>
/workspace/benchmark/basicAlg_use/ta/CryptoVerifyTaRsa.c:246
    10b4:	6025      	str	r5, [r4, #0]
    10b6:	e7e4      	b.n	1082 <l_CryptoTaRsa_SetRsaPublicKey.isra.0+0x5a>
    10b8:	d0000130 	.word	0xd0000130
    10bc:	a0000030 	.word	0xa0000030
    10c0:	0000b594 	.word	0x0000b594
    10c4:	000089ab 	.word	0x000089ab
    10c8:	000089ab 	.word	0x000089ab

000010cc <l_CryptoTaRsa_SetRsaPrivateKey.isra.1>:
l_CryptoTaRsa_SetRsaPrivateKey():
/workspace/benchmark/basicAlg_use/ta/CryptoVerifyTaRsa.c:143
    10cc:	e92d 43f7 	stmdb	sp!, {r0, r1, r2, r4, r5, r6, r7, r8, r9, lr}
    10d0:	4681      	mov	r9, r0
/workspace/benchmark/basicAlg_use/ta/CryptoVerifyTaRsa.c:149
    10d2:	4c29      	ldr	r4, [pc, #164]	; (1178 <l_CryptoTaRsa_SetRsaPrivateKey.isra.1+0xac>)
/workspace/benchmark/basicAlg_use/ta/CryptoVerifyTaRsa.c:143
    10d4:	460f      	mov	r7, r1
    10d6:	4690      	mov	r8, r2
/workspace/benchmark/basicAlg_use/ta/CryptoVerifyTaRsa.c:149
    10d8:	447c      	add	r4, pc
/workspace/benchmark/basicAlg_use/ta/CryptoVerifyTaRsa.c:152
    10da:	2224      	movs	r2, #36	; 0x24
    10dc:	f104 0628 	add.w	r6, r4, #40	; 0x28
    10e0:	2100      	movs	r1, #0
    10e2:	4630      	mov	r0, r6
/workspace/benchmark/basicAlg_use/ta/CryptoVerifyTaRsa.c:143
    10e4:	461d      	mov	r5, r3
/workspace/benchmark/basicAlg_use/ta/CryptoVerifyTaRsa.c:149
    10e6:	00db      	lsls	r3, r3, #3
    10e8:	60e3      	str	r3, [r4, #12]
/workspace/benchmark/basicAlg_use/ta/CryptoVerifyTaRsa.c:152
    10ea:	f001 f953 	bl	2394 <TEE_MemFill>
/workspace/benchmark/basicAlg_use/ta/CryptoVerifyTaRsa.c:155
    10ee:	4b1f      	ldr	r3, [pc, #124]	; (116c <l_CryptoTaRsa_SetRsaPrivateKey.isra.1+0xa0>)
    10f0:	62a3      	str	r3, [r4, #40]	; 0x28
/workspace/benchmark/basicAlg_use/ta/CryptoVerifyTaRsa.c:171
    10f2:	f104 0208 	add.w	r2, r4, #8
/workspace/benchmark/basicAlg_use/ta/CryptoVerifyTaRsa.c:160
    10f6:	f503 7380 	add.w	r3, r3, #256	; 0x100
    10fa:	6363      	str	r3, [r4, #52]	; 0x34
/workspace/benchmark/basicAlg_use/ta/CryptoVerifyTaRsa.c:162
    10fc:	9b0b      	ldr	r3, [sp, #44]	; 0x2c
    10fe:	63e3      	str	r3, [r4, #60]	; 0x3c
/workspace/benchmark/basicAlg_use/ta/CryptoVerifyTaRsa.c:165
    1100:	4b1b      	ldr	r3, [pc, #108]	; (1170 <l_CryptoTaRsa_SetRsaPrivateKey.isra.1+0xa4>)
    1102:	6423      	str	r3, [r4, #64]	; 0x40
/workspace/benchmark/basicAlg_use/ta/CryptoVerifyTaRsa.c:167
    1104:	9b0a      	ldr	r3, [sp, #40]	; 0x28
/workspace/benchmark/basicAlg_use/ta/CryptoVerifyTaRsa.c:157
    1106:	6325      	str	r5, [r4, #48]	; 0x30
/workspace/benchmark/basicAlg_use/ta/CryptoVerifyTaRsa.c:156
    1108:	f8c4 902c 	str.w	r9, [r4, #44]	; 0x2c
/workspace/benchmark/basicAlg_use/ta/CryptoVerifyTaRsa.c:161
    110c:	f8c4 8038 	str.w	r8, [r4, #56]	; 0x38
/workspace/benchmark/basicAlg_use/ta/CryptoVerifyTaRsa.c:166
    1110:	6467      	str	r7, [r4, #68]	; 0x44
/workspace/benchmark/basicAlg_use/ta/CryptoVerifyTaRsa.c:167
    1112:	64a3      	str	r3, [r4, #72]	; 0x48
/workspace/benchmark/basicAlg_use/ta/CryptoVerifyTaRsa.c:171
    1114:	68e1      	ldr	r1, [r4, #12]
    1116:	4817      	ldr	r0, [pc, #92]	; (1174 <l_CryptoTaRsa_SetRsaPrivateKey.isra.1+0xa8>)
    1118:	f001 fab4 	bl	2684 <TEE_AllocateTransientObject>
/workspace/benchmark/basicAlg_use/ta/CryptoVerifyTaRsa.c:172
    111c:	4605      	mov	r5, r0
    111e:	b170      	cbz	r0, 113e <l_CryptoTaRsa_SetRsaPrivateKey.isra.1+0x72>
/workspace/benchmark/basicAlg_use/ta/CryptoVerifyTaRsa.c:174
    1120:	4b16      	ldr	r3, [pc, #88]	; (117c <l_CryptoTaRsa_SetRsaPrivateKey.isra.1+0xb0>)
    1122:	9001      	str	r0, [sp, #4]
    1124:	447b      	add	r3, pc
    1126:	9300      	str	r3, [sp, #0]
    1128:	2300      	movs	r3, #0
    112a:	461a      	mov	r2, r3
    112c:	4619      	mov	r1, r3
    112e:	4618      	mov	r0, r3
    1130:	f000 fb18 	bl	1764 <trace_printf>
/workspace/benchmark/basicAlg_use/ta/CryptoVerifyTaRsa.c:198
    1134:	f04f 30ff 	mov.w	r0, #4294967295	; 0xffffffff
/workspace/benchmark/basicAlg_use/ta/CryptoVerifyTaRsa.c:199
    1138:	b003      	add	sp, #12
    113a:	e8bd 83f0 	ldmia.w	sp!, {r4, r5, r6, r7, r8, r9, pc}
/workspace/benchmark/basicAlg_use/ta/CryptoVerifyTaRsa.c:181
    113e:	2203      	movs	r2, #3
    1140:	4631      	mov	r1, r6
    1142:	68a0      	ldr	r0, [r4, #8]
    1144:	f001 fae6 	bl	2714 <TEE_PopulateTransientObject>
/workspace/benchmark/basicAlg_use/ta/CryptoVerifyTaRsa.c:182
    1148:	2800      	cmp	r0, #0
    114a:	d0f5      	beq.n	1138 <l_CryptoTaRsa_SetRsaPrivateKey.isra.1+0x6c>
/workspace/benchmark/basicAlg_use/ta/CryptoVerifyTaRsa.c:184
    114c:	4b0c      	ldr	r3, [pc, #48]	; (1180 <l_CryptoTaRsa_SetRsaPrivateKey.isra.1+0xb4>)
    114e:	462a      	mov	r2, r5
    1150:	9001      	str	r0, [sp, #4]
    1152:	4629      	mov	r1, r5
    1154:	447b      	add	r3, pc
    1156:	4628      	mov	r0, r5
    1158:	9300      	str	r3, [sp, #0]
    115a:	462b      	mov	r3, r5
    115c:	f000 fb02 	bl	1764 <trace_printf>
/workspace/benchmark/basicAlg_use/ta/CryptoVerifyTaRsa.c:195
    1160:	68a0      	ldr	r0, [r4, #8]
    1162:	f001 faa7 	bl	26b4 <TEE_FreeTransientObject>
/workspace/benchmark/basicAlg_use/ta/CryptoVerifyTaRsa.c:196
    1166:	60a5      	str	r5, [r4, #8]
    1168:	e7e4      	b.n	1134 <l_CryptoTaRsa_SetRsaPrivateKey.isra.1+0x68>
    116a:	bf00      	nop
    116c:	d0000130 	.word	0xd0000130
    1170:	c0000330 	.word	0xc0000330
    1174:	a1000030 	.word	0xa1000030
    1178:	0000b4f0 	.word	0x0000b4f0
    117c:	000088f9 	.word	0x000088f9
    1180:	000088f9 	.word	0x000088f9

00001184 <g_CryptoTaRsa_rsaEncOper>:
g_CryptoTaRsa_rsaEncOper():
/workspace/benchmark/basicAlg_use/ta/CryptoVerifyTaRsa.c:254
    1184:	b084      	sub	sp, #16
    1186:	e92d 41ff 	stmdb	sp!, {r0, r1, r2, r3, r4, r5, r6, r7, r8, lr}
    118a:	f8dd 8048 	ldr.w	r8, [sp, #72]	; 0x48
    118e:	ac0a      	add	r4, sp, #40	; 0x28
    1190:	9e14      	ldr	r6, [sp, #80]	; 0x50
    1192:	e884 000f 	stmia.w	r4, {r0, r1, r2, r3}
/workspace/benchmark/basicAlg_use/ta/CryptoVerifyTaRsa.c:259
    1196:	9b0f      	ldr	r3, [sp, #60]	; 0x3c
    1198:	9a0d      	ldr	r2, [sp, #52]	; 0x34
    119a:	990c      	ldr	r1, [sp, #48]	; 0x30
    119c:	f7ff ff44 	bl	1028 <l_CryptoTaRsa_SetRsaPublicKey.isra.0>
    11a0:	4604      	mov	r4, r0
/workspace/benchmark/basicAlg_use/ta/CryptoVerifyTaRsa.c:260
    11a2:	1c43      	adds	r3, r0, #1
    11a4:	d110      	bne.n	11c8 <g_CryptoTaRsa_rsaEncOper+0x44>
/workspace/benchmark/basicAlg_use/ta/CryptoVerifyTaRsa.c:262
    11a6:	4b31      	ldr	r3, [pc, #196]	; (126c <g_CryptoTaRsa_rsaEncOper+0xe8>)
    11a8:	447b      	add	r3, pc
    11aa:	9300      	str	r3, [sp, #0]
    11ac:	2300      	movs	r3, #0
    11ae:	461a      	mov	r2, r3
    11b0:	4619      	mov	r1, r3
    11b2:	4618      	mov	r0, r3
    11b4:	f000 fad6 	bl	1764 <trace_printf>
/workspace/benchmark/basicAlg_use/ta/CryptoVerifyTaRsa.c:304
    11b8:	f7ff ff0e 	bl	fd8 <l_CryptoTaRsa_CleanUpPublicHandle>
/workspace/benchmark/basicAlg_use/ta/CryptoVerifyTaRsa.c:307
    11bc:	4620      	mov	r0, r4
    11be:	b004      	add	sp, #16
    11c0:	e8bd 41f0 	ldmia.w	sp!, {r4, r5, r6, r7, r8, lr}
    11c4:	b004      	add	sp, #16
    11c6:	4770      	bx	lr
/workspace/benchmark/basicAlg_use/ta/CryptoVerifyTaRsa.c:267
    11c8:	4c29      	ldr	r4, [pc, #164]	; (1270 <g_CryptoTaRsa_rsaEncOper+0xec>)
    11ca:	2200      	movs	r2, #0
    11cc:	9910      	ldr	r1, [sp, #64]	; 0x40
    11ce:	447c      	add	r4, pc
    11d0:	1d20      	adds	r0, r4, #4
    11d2:	68e3      	ldr	r3, [r4, #12]
    11d4:	f001 fdf3 	bl	2dbe <TEE_AllocateOperation>
/workspace/benchmark/basicAlg_use/ta/CryptoVerifyTaRsa.c:268
    11d8:	4607      	mov	r7, r0
    11da:	b160      	cbz	r0, 11f6 <g_CryptoTaRsa_rsaEncOper+0x72>
/workspace/benchmark/basicAlg_use/ta/CryptoVerifyTaRsa.c:270
    11dc:	4b25      	ldr	r3, [pc, #148]	; (1274 <g_CryptoTaRsa_rsaEncOper+0xf0>)
    11de:	9001      	str	r0, [sp, #4]
    11e0:	447b      	add	r3, pc
    11e2:	9300      	str	r3, [sp, #0]
    11e4:	2300      	movs	r3, #0
    11e6:	461a      	mov	r2, r3
    11e8:	4619      	mov	r1, r3
    11ea:	4618      	mov	r0, r3
    11ec:	f000 faba 	bl	1764 <trace_printf>
/workspace/benchmark/basicAlg_use/ta/CryptoVerifyTaRsa.c:302
    11f0:	f04f 34ff 	mov.w	r4, #4294967295	; 0xffffffff
    11f4:	e7e0      	b.n	11b8 <g_CryptoTaRsa_rsaEncOper+0x34>
/workspace/benchmark/basicAlg_use/ta/CryptoVerifyTaRsa.c:276
    11f6:	6821      	ldr	r1, [r4, #0]
    11f8:	6860      	ldr	r0, [r4, #4]
    11fa:	f002 f90f 	bl	341c <TEE_SetOperationKey>
/workspace/benchmark/basicAlg_use/ta/CryptoVerifyTaRsa.c:277
    11fe:	4605      	mov	r5, r0
    1200:	b188      	cbz	r0, 1226 <g_CryptoTaRsa_rsaEncOper+0xa2>
/workspace/benchmark/basicAlg_use/ta/CryptoVerifyTaRsa.c:279
    1202:	4b1d      	ldr	r3, [pc, #116]	; (1278 <g_CryptoTaRsa_rsaEncOper+0xf4>)
    1204:	9001      	str	r0, [sp, #4]
    1206:	447b      	add	r3, pc
    1208:	9300      	str	r3, [sp, #0]
    120a:	463b      	mov	r3, r7
/workspace/benchmark/basicAlg_use/ta/CryptoVerifyTaRsa.c:301
    120c:	4c1b      	ldr	r4, [pc, #108]	; (127c <g_CryptoTaRsa_rsaEncOper+0xf8>)
/workspace/benchmark/basicAlg_use/ta/CryptoVerifyTaRsa.c:288
    120e:	4618      	mov	r0, r3
    1210:	461a      	mov	r2, r3
    1212:	4619      	mov	r1, r3
/workspace/benchmark/basicAlg_use/ta/CryptoVerifyTaRsa.c:301
    1214:	447c      	add	r4, pc
/workspace/benchmark/basicAlg_use/ta/CryptoVerifyTaRsa.c:288
    1216:	f000 faa5 	bl	1764 <trace_printf>
/workspace/benchmark/basicAlg_use/ta/CryptoVerifyTaRsa.c:301
    121a:	6860      	ldr	r0, [r4, #4]
    121c:	f001 fdbc 	bl	2d98 <TEE_FreeOperation>
/workspace/benchmark/basicAlg_use/ta/CryptoVerifyTaRsa.c:302
    1220:	2300      	movs	r3, #0
    1222:	6063      	str	r3, [r4, #4]
    1224:	e7e4      	b.n	11f0 <g_CryptoTaRsa_rsaEncOper+0x6c>
/workspace/benchmark/basicAlg_use/ta/CryptoVerifyTaRsa.c:285
    1226:	9b13      	ldr	r3, [sp, #76]	; 0x4c
    1228:	4602      	mov	r2, r0
    122a:	9300      	str	r3, [sp, #0]
    122c:	4601      	mov	r1, r0
    122e:	9602      	str	r6, [sp, #8]
    1230:	f8cd 8004 	str.w	r8, [sp, #4]
    1234:	9b11      	ldr	r3, [sp, #68]	; 0x44
    1236:	6860      	ldr	r0, [r4, #4]
    1238:	f002 fe02 	bl	3e40 <TEE_AsymmetricEncrypt>
/workspace/benchmark/basicAlg_use/ta/CryptoVerifyTaRsa.c:286
    123c:	4604      	mov	r4, r0
    123e:	b128      	cbz	r0, 124c <g_CryptoTaRsa_rsaEncOper+0xc8>
/workspace/benchmark/basicAlg_use/ta/CryptoVerifyTaRsa.c:288
    1240:	4b0f      	ldr	r3, [pc, #60]	; (1280 <g_CryptoTaRsa_rsaEncOper+0xfc>)
    1242:	9001      	str	r0, [sp, #4]
    1244:	447b      	add	r3, pc
    1246:	9300      	str	r3, [sp, #0]
    1248:	462b      	mov	r3, r5
    124a:	e7df      	b.n	120c <g_CryptoTaRsa_rsaEncOper+0x88>
/workspace/benchmark/basicAlg_use/ta/CryptoVerifyTaRsa.c:294
    124c:	6833      	ldr	r3, [r6, #0]
    124e:	4602      	mov	r2, r0
    1250:	9301      	str	r3, [sp, #4]
    1252:	4601      	mov	r1, r0
    1254:	4b0b      	ldr	r3, [pc, #44]	; (1284 <g_CryptoTaRsa_rsaEncOper+0x100>)
    1256:	447b      	add	r3, pc
    1258:	9300      	str	r3, [sp, #0]
    125a:	4603      	mov	r3, r0
    125c:	f000 fa82 	bl	1764 <trace_printf>
/workspace/benchmark/basicAlg_use/ta/CryptoVerifyTaRsa.c:295
    1260:	6831      	ldr	r1, [r6, #0]
    1262:	4640      	mov	r0, r8
    1264:	f7ff fd7a 	bl	d5c <g_TA_Printf>
/workspace/benchmark/basicAlg_use/ta/CryptoVerifyTaRsa.c:297
    1268:	e7a6      	b.n	11b8 <g_CryptoTaRsa_rsaEncOper+0x34>
    126a:	bf00      	nop
    126c:	000089e8 	.word	0x000089e8
    1270:	0000b3fa 	.word	0x0000b3fa
    1274:	000089dd 	.word	0x000089dd
    1278:	000089fc 	.word	0x000089fc
    127c:	0000b3b4 	.word	0x0000b3b4
    1280:	00008839 	.word	0x00008839
    1284:	00008864 	.word	0x00008864

00001288 <g_CryptoTaRsa_rsaDecOper>:
g_CryptoTaRsa_rsaDecOper():
/workspace/benchmark/basicAlg_use/ta/CryptoVerifyTaRsa.c:314
    1288:	b084      	sub	sp, #16
    128a:	e92d 41ff 	stmdb	sp!, {r0, r1, r2, r3, r4, r5, r6, r7, r8, lr}
    128e:	f8dd 8048 	ldr.w	r8, [sp, #72]	; 0x48
    1292:	ac0a      	add	r4, sp, #40	; 0x28
    1294:	9e14      	ldr	r6, [sp, #80]	; 0x50
    1296:	e884 000f 	stmia.w	r4, {r0, r1, r2, r3}
/workspace/benchmark/basicAlg_use/ta/CryptoVerifyTaRsa.c:319
    129a:	a90b      	add	r1, sp, #44	; 0x2c
    129c:	9b0f      	ldr	r3, [sp, #60]	; 0x3c
    129e:	9301      	str	r3, [sp, #4]
    12a0:	9b0e      	ldr	r3, [sp, #56]	; 0x38
    12a2:	9300      	str	r3, [sp, #0]
    12a4:	c90e      	ldmia	r1, {r1, r2, r3}
    12a6:	f7ff ff11 	bl	10cc <l_CryptoTaRsa_SetRsaPrivateKey.isra.1>
    12aa:	4604      	mov	r4, r0
/workspace/benchmark/basicAlg_use/ta/CryptoVerifyTaRsa.c:320
    12ac:	1c43      	adds	r3, r0, #1
    12ae:	d110      	bne.n	12d2 <g_CryptoTaRsa_rsaDecOper+0x4a>
/workspace/benchmark/basicAlg_use/ta/CryptoVerifyTaRsa.c:322
    12b0:	4b30      	ldr	r3, [pc, #192]	; (1374 <g_CryptoTaRsa_rsaDecOper+0xec>)
    12b2:	447b      	add	r3, pc
    12b4:	9300      	str	r3, [sp, #0]
    12b6:	2300      	movs	r3, #0
    12b8:	461a      	mov	r2, r3
    12ba:	4619      	mov	r1, r3
    12bc:	4618      	mov	r0, r3
    12be:	f000 fa51 	bl	1764 <trace_printf>
/workspace/benchmark/basicAlg_use/ta/CryptoVerifyTaRsa.c:364
    12c2:	f7ff fe9d 	bl	1000 <l_CryptoTaRsa_CleanUpKeyPairObj>
/workspace/benchmark/basicAlg_use/ta/CryptoVerifyTaRsa.c:366
    12c6:	4620      	mov	r0, r4
    12c8:	b004      	add	sp, #16
    12ca:	e8bd 41f0 	ldmia.w	sp!, {r4, r5, r6, r7, r8, lr}
    12ce:	b004      	add	sp, #16
    12d0:	4770      	bx	lr
/workspace/benchmark/basicAlg_use/ta/CryptoVerifyTaRsa.c:327
    12d2:	4c29      	ldr	r4, [pc, #164]	; (1378 <g_CryptoTaRsa_rsaDecOper+0xf0>)
    12d4:	2201      	movs	r2, #1
    12d6:	9910      	ldr	r1, [sp, #64]	; 0x40
    12d8:	447c      	add	r4, pc
    12da:	1d20      	adds	r0, r4, #4
    12dc:	68e3      	ldr	r3, [r4, #12]
    12de:	f001 fd6e 	bl	2dbe <TEE_AllocateOperation>
/workspace/benchmark/basicAlg_use/ta/CryptoVerifyTaRsa.c:328
    12e2:	4607      	mov	r7, r0
    12e4:	b160      	cbz	r0, 1300 <g_CryptoTaRsa_rsaDecOper+0x78>
/workspace/benchmark/basicAlg_use/ta/CryptoVerifyTaRsa.c:330
    12e6:	4b25      	ldr	r3, [pc, #148]	; (137c <g_CryptoTaRsa_rsaDecOper+0xf4>)
    12e8:	9001      	str	r0, [sp, #4]
    12ea:	447b      	add	r3, pc
    12ec:	9300      	str	r3, [sp, #0]
    12ee:	2300      	movs	r3, #0
    12f0:	461a      	mov	r2, r3
    12f2:	4619      	mov	r1, r3
    12f4:	4618      	mov	r0, r3
    12f6:	f000 fa35 	bl	1764 <trace_printf>
/workspace/benchmark/basicAlg_use/ta/CryptoVerifyTaRsa.c:362
    12fa:	f04f 34ff 	mov.w	r4, #4294967295	; 0xffffffff
    12fe:	e7e0      	b.n	12c2 <g_CryptoTaRsa_rsaDecOper+0x3a>
/workspace/benchmark/basicAlg_use/ta/CryptoVerifyTaRsa.c:336
    1300:	68a1      	ldr	r1, [r4, #8]
    1302:	6860      	ldr	r0, [r4, #4]
    1304:	f002 f88a 	bl	341c <TEE_SetOperationKey>
/workspace/benchmark/basicAlg_use/ta/CryptoVerifyTaRsa.c:337
    1308:	4605      	mov	r5, r0
    130a:	b188      	cbz	r0, 1330 <g_CryptoTaRsa_rsaDecOper+0xa8>
/workspace/benchmark/basicAlg_use/ta/CryptoVerifyTaRsa.c:339
    130c:	4b1c      	ldr	r3, [pc, #112]	; (1380 <g_CryptoTaRsa_rsaDecOper+0xf8>)
    130e:	9001      	str	r0, [sp, #4]
    1310:	447b      	add	r3, pc
    1312:	9300      	str	r3, [sp, #0]
    1314:	463b      	mov	r3, r7
/workspace/benchmark/basicAlg_use/ta/CryptoVerifyTaRsa.c:361
    1316:	4c1b      	ldr	r4, [pc, #108]	; (1384 <g_CryptoTaRsa_rsaDecOper+0xfc>)
/workspace/benchmark/basicAlg_use/ta/CryptoVerifyTaRsa.c:348
    1318:	4618      	mov	r0, r3
    131a:	461a      	mov	r2, r3
    131c:	4619      	mov	r1, r3
/workspace/benchmark/basicAlg_use/ta/CryptoVerifyTaRsa.c:361
    131e:	447c      	add	r4, pc
/workspace/benchmark/basicAlg_use/ta/CryptoVerifyTaRsa.c:348
    1320:	f000 fa20 	bl	1764 <trace_printf>
/workspace/benchmark/basicAlg_use/ta/CryptoVerifyTaRsa.c:361
    1324:	6860      	ldr	r0, [r4, #4]
    1326:	f001 fd37 	bl	2d98 <TEE_FreeOperation>
/workspace/benchmark/basicAlg_use/ta/CryptoVerifyTaRsa.c:362
    132a:	2300      	movs	r3, #0
    132c:	6063      	str	r3, [r4, #4]
    132e:	e7e4      	b.n	12fa <g_CryptoTaRsa_rsaDecOper+0x72>
/workspace/benchmark/basicAlg_use/ta/CryptoVerifyTaRsa.c:345
    1330:	9b13      	ldr	r3, [sp, #76]	; 0x4c
    1332:	4602      	mov	r2, r0
    1334:	9300      	str	r3, [sp, #0]
    1336:	4601      	mov	r1, r0
    1338:	9602      	str	r6, [sp, #8]
    133a:	f8cd 8004 	str.w	r8, [sp, #4]
    133e:	9b11      	ldr	r3, [sp, #68]	; 0x44
    1340:	6860      	ldr	r0, [r4, #4]
    1342:	f002 fddb 	bl	3efc <TEE_AsymmetricDecrypt>
/workspace/benchmark/basicAlg_use/ta/CryptoVerifyTaRsa.c:346
    1346:	4604      	mov	r4, r0
    1348:	b128      	cbz	r0, 1356 <g_CryptoTaRsa_rsaDecOper+0xce>
/workspace/benchmark/basicAlg_use/ta/CryptoVerifyTaRsa.c:348
    134a:	4b0f      	ldr	r3, [pc, #60]	; (1388 <g_CryptoTaRsa_rsaDecOper+0x100>)
    134c:	9001      	str	r0, [sp, #4]
    134e:	447b      	add	r3, pc
    1350:	9300      	str	r3, [sp, #0]
    1352:	462b      	mov	r3, r5
    1354:	e7df      	b.n	1316 <g_CryptoTaRsa_rsaDecOper+0x8e>
/workspace/benchmark/basicAlg_use/ta/CryptoVerifyTaRsa.c:354
    1356:	6833      	ldr	r3, [r6, #0]
    1358:	4602      	mov	r2, r0
    135a:	9301      	str	r3, [sp, #4]
    135c:	4601      	mov	r1, r0
    135e:	4b0b      	ldr	r3, [pc, #44]	; (138c <g_CryptoTaRsa_rsaDecOper+0x104>)
    1360:	447b      	add	r3, pc
    1362:	9300      	str	r3, [sp, #0]
    1364:	4603      	mov	r3, r0
    1366:	f000 f9fd 	bl	1764 <trace_printf>
/workspace/benchmark/basicAlg_use/ta/CryptoVerifyTaRsa.c:355
    136a:	6831      	ldr	r1, [r6, #0]
    136c:	4640      	mov	r0, r8
    136e:	f7ff fcf5 	bl	d5c <g_TA_Printf>
/workspace/benchmark/basicAlg_use/ta/CryptoVerifyTaRsa.c:357
    1372:	e7a6      	b.n	12c2 <g_CryptoTaRsa_rsaDecOper+0x3a>
    1374:	000088de 	.word	0x000088de
    1378:	0000b2f0 	.word	0x0000b2f0
    137c:	000088d3 	.word	0x000088d3
    1380:	000088f2 	.word	0x000088f2
    1384:	0000b2aa 	.word	0x0000b2aa
    1388:	00008786 	.word	0x00008786
    138c:	0000875a 	.word	0x0000875a

00001390 <g_CryptoTaRsa_rsaSignOper>:
g_CryptoTaRsa_rsaSignOper():
/workspace/benchmark/basicAlg_use/ta/CryptoVerifyTaRsa.c:375
    1390:	b084      	sub	sp, #16
    1392:	e92d 4ff0 	stmdb	sp!, {r4, r5, r6, r7, r8, r9, sl, fp, lr}
/workspace/benchmark/basicAlg_use/ta/CryptoVerifyTaRsa.c:378
    1396:	f04f 0a14 	mov.w	sl, #20
/workspace/benchmark/basicAlg_use/ta/CryptoVerifyTaRsa.c:385
    139a:	2600      	movs	r6, #0
/workspace/benchmark/basicAlg_use/ta/CryptoVerifyTaRsa.c:375
    139c:	b08b      	sub	sp, #44	; 0x2c
    139e:	ac14      	add	r4, sp, #80	; 0x50
/workspace/benchmark/basicAlg_use/ta/CryptoVerifyTaRsa.c:378
    13a0:	f10d 0814 	add.w	r8, sp, #20
/workspace/benchmark/basicAlg_use/ta/CryptoVerifyTaRsa.c:375
    13a4:	e884 000f 	stmia.w	r4, {r0, r1, r2, r3}
/workspace/benchmark/basicAlg_use/ta/CryptoVerifyTaRsa.c:378
    13a8:	4652      	mov	r2, sl
/workspace/benchmark/basicAlg_use/ta/CryptoVerifyTaRsa.c:375
    13aa:	9c1e      	ldr	r4, [sp, #120]	; 0x78
/workspace/benchmark/basicAlg_use/ta/CryptoVerifyTaRsa.c:378
    13ac:	2100      	movs	r1, #0
    13ae:	4640      	mov	r0, r8
    13b0:	f8dd b05c 	ldr.w	fp, [sp, #92]	; 0x5c
    13b4:	f007 fd34 	bl	8e20 <memset>
/workspace/benchmark/basicAlg_use/ta/CryptoVerifyTaRsa.c:382
    13b8:	4643      	mov	r3, r8
    13ba:	9a1d      	ldr	r2, [sp, #116]	; 0x74
    13bc:	991b      	ldr	r1, [sp, #108]	; 0x6c
    13be:	2001      	movs	r0, #1
    13c0:	9400      	str	r4, [sp, #0]
    13c2:	f7ff fa1b 	bl	7fc <g_CryptoTaHash_sha>
/workspace/benchmark/basicAlg_use/ta/CryptoVerifyTaRsa.c:383
    13c6:	4b3f      	ldr	r3, [pc, #252]	; (14c4 <g_CryptoTaRsa_rsaSignOper+0x134>)
    13c8:	447b      	add	r3, pc
    13ca:	9300      	str	r3, [sp, #0]
    13cc:	2300      	movs	r3, #0
    13ce:	461a      	mov	r2, r3
    13d0:	4619      	mov	r1, r3
    13d2:	4618      	mov	r0, r3
    13d4:	f000 f9c6 	bl	1764 <trace_printf>
/workspace/benchmark/basicAlg_use/ta/CryptoVerifyTaRsa.c:384
    13d8:	6821      	ldr	r1, [r4, #0]
    13da:	4640      	mov	r0, r8
    13dc:	f7ff fcbe 	bl	d5c <g_TA_Printf>
/workspace/benchmark/basicAlg_use/ta/CryptoVerifyTaRsa.c:388
    13e0:	9b19      	ldr	r3, [sp, #100]	; 0x64
/workspace/benchmark/basicAlg_use/ta/CryptoVerifyTaRsa.c:385
    13e2:	6026      	str	r6, [r4, #0]
/workspace/benchmark/basicAlg_use/ta/CryptoVerifyTaRsa.c:388
    13e4:	a814      	add	r0, sp, #80	; 0x50
    13e6:	9301      	str	r3, [sp, #4]
    13e8:	9b18      	ldr	r3, [sp, #96]	; 0x60
    13ea:	9300      	str	r3, [sp, #0]
    13ec:	465b      	mov	r3, fp
    13ee:	c807      	ldmia	r0, {r0, r1, r2}
    13f0:	f7ff fe6c 	bl	10cc <l_CryptoTaRsa_SetRsaPrivateKey.isra.1>
    13f4:	4605      	mov	r5, r0
/workspace/benchmark/basicAlg_use/ta/CryptoVerifyTaRsa.c:389
    13f6:	1c43      	adds	r3, r0, #1
    13f8:	d110      	bne.n	141c <g_CryptoTaRsa_rsaSignOper+0x8c>
/workspace/benchmark/basicAlg_use/ta/CryptoVerifyTaRsa.c:391
    13fa:	4b33      	ldr	r3, [pc, #204]	; (14c8 <g_CryptoTaRsa_rsaSignOper+0x138>)
    13fc:	4632      	mov	r2, r6
    13fe:	4631      	mov	r1, r6
    1400:	4630      	mov	r0, r6
    1402:	447b      	add	r3, pc
    1404:	9300      	str	r3, [sp, #0]
    1406:	4633      	mov	r3, r6
    1408:	f000 f9ac 	bl	1764 <trace_printf>
/workspace/benchmark/basicAlg_use/ta/CryptoVerifyTaRsa.c:427
    140c:	f7ff fdf8 	bl	1000 <l_CryptoTaRsa_CleanUpKeyPairObj>
/workspace/benchmark/basicAlg_use/ta/CryptoVerifyTaRsa.c:429
    1410:	4628      	mov	r0, r5
    1412:	b00b      	add	sp, #44	; 0x2c
    1414:	e8bd 4ff0 	ldmia.w	sp!, {r4, r5, r6, r7, r8, r9, sl, fp, lr}
    1418:	b004      	add	sp, #16
    141a:	4770      	bx	lr
/workspace/benchmark/basicAlg_use/ta/CryptoVerifyTaRsa.c:396
    141c:	4f2b      	ldr	r7, [pc, #172]	; (14cc <g_CryptoTaRsa_rsaSignOper+0x13c>)
    141e:	2202      	movs	r2, #2
    1420:	991a      	ldr	r1, [sp, #104]	; 0x68
    1422:	447f      	add	r7, pc
    1424:	1d38      	adds	r0, r7, #4
    1426:	68fb      	ldr	r3, [r7, #12]
    1428:	f001 fcc9 	bl	2dbe <TEE_AllocateOperation>
/workspace/benchmark/basicAlg_use/ta/CryptoVerifyTaRsa.c:397
    142c:	4681      	mov	r9, r0
    142e:	b160      	cbz	r0, 144a <g_CryptoTaRsa_rsaSignOper+0xba>
/workspace/benchmark/basicAlg_use/ta/CryptoVerifyTaRsa.c:399
    1430:	4b27      	ldr	r3, [pc, #156]	; (14d0 <g_CryptoTaRsa_rsaSignOper+0x140>)
    1432:	4632      	mov	r2, r6
    1434:	9001      	str	r0, [sp, #4]
    1436:	4631      	mov	r1, r6
    1438:	447b      	add	r3, pc
    143a:	4630      	mov	r0, r6
    143c:	9300      	str	r3, [sp, #0]
    143e:	4633      	mov	r3, r6
    1440:	f000 f990 	bl	1764 <trace_printf>
/workspace/benchmark/basicAlg_use/ta/CryptoVerifyTaRsa.c:400
    1444:	f04f 35ff 	mov.w	r5, #4294967295	; 0xffffffff
/workspace/benchmark/basicAlg_use/ta/CryptoVerifyTaRsa.c:401
    1448:	e7e0      	b.n	140c <g_CryptoTaRsa_rsaSignOper+0x7c>
/workspace/benchmark/basicAlg_use/ta/CryptoVerifyTaRsa.c:405
    144a:	68b9      	ldr	r1, [r7, #8]
    144c:	6878      	ldr	r0, [r7, #4]
    144e:	f001 ffe5 	bl	341c <TEE_SetOperationKey>
/workspace/benchmark/basicAlg_use/ta/CryptoVerifyTaRsa.c:406
    1452:	4606      	mov	r6, r0
    1454:	b198      	cbz	r0, 147e <g_CryptoTaRsa_rsaSignOper+0xee>
/workspace/benchmark/basicAlg_use/ta/CryptoVerifyTaRsa.c:408
    1456:	4a1f      	ldr	r2, [pc, #124]	; (14d4 <g_CryptoTaRsa_rsaSignOper+0x144>)
/workspace/benchmark/basicAlg_use/ta/CryptoVerifyTaRsa.c:409
    1458:	f04f 35ff 	mov.w	r5, #4294967295	; 0xffffffff
/workspace/benchmark/basicAlg_use/ta/CryptoVerifyTaRsa.c:408
    145c:	9001      	str	r0, [sp, #4]
    145e:	464b      	mov	r3, r9
    1460:	447a      	add	r2, pc
    1462:	4649      	mov	r1, r9
    1464:	9200      	str	r2, [sp, #0]
    1466:	4648      	mov	r0, r9
    1468:	464a      	mov	r2, r9
    146a:	f000 f97b 	bl	1764 <trace_printf>
/workspace/benchmark/basicAlg_use/ta/CryptoVerifyTaRsa.c:424
    146e:	4c1a      	ldr	r4, [pc, #104]	; (14d8 <g_CryptoTaRsa_rsaSignOper+0x148>)
    1470:	447c      	add	r4, pc
    1472:	6860      	ldr	r0, [r4, #4]
    1474:	f001 fc90 	bl	2d98 <TEE_FreeOperation>
/workspace/benchmark/basicAlg_use/ta/CryptoVerifyTaRsa.c:425
    1478:	2300      	movs	r3, #0
    147a:	6063      	str	r3, [r4, #4]
    147c:	e7c6      	b.n	140c <g_CryptoTaRsa_rsaSignOper+0x7c>
/workspace/benchmark/basicAlg_use/ta/CryptoVerifyTaRsa.c:415
    147e:	9b1c      	ldr	r3, [sp, #112]	; 0x70
    1480:	4602      	mov	r2, r0
/workspace/benchmark/basicAlg_use/ta/CryptoVerifyTaRsa.c:413
    1482:	f8c4 b000 	str.w	fp, [r4]
/workspace/benchmark/basicAlg_use/ta/CryptoVerifyTaRsa.c:415
    1486:	4601      	mov	r1, r0
    1488:	9301      	str	r3, [sp, #4]
    148a:	4643      	mov	r3, r8
    148c:	9402      	str	r4, [sp, #8]
    148e:	f8cd a000 	str.w	sl, [sp]
    1492:	6878      	ldr	r0, [r7, #4]
    1494:	f002 fd92 	bl	3fbc <TEE_AsymmetricSignDigest>
/workspace/benchmark/basicAlg_use/ta/CryptoVerifyTaRsa.c:418
    1498:	f04f 33ff 	mov.w	r3, #4294967295	; 0xffffffff
    149c:	2800      	cmp	r0, #0
/workspace/benchmark/basicAlg_use/ta/CryptoVerifyTaRsa.c:420
    149e:	4631      	mov	r1, r6
/workspace/benchmark/basicAlg_use/ta/CryptoVerifyTaRsa.c:418
    14a0:	bf18      	it	ne
    14a2:	461d      	movne	r5, r3
/workspace/benchmark/basicAlg_use/ta/CryptoVerifyTaRsa.c:420
    14a4:	6823      	ldr	r3, [r4, #0]
    14a6:	9301      	str	r3, [sp, #4]
    14a8:	4630      	mov	r0, r6
    14aa:	4b0c      	ldr	r3, [pc, #48]	; (14dc <g_CryptoTaRsa_rsaSignOper+0x14c>)
    14ac:	4632      	mov	r2, r6
    14ae:	447b      	add	r3, pc
    14b0:	9300      	str	r3, [sp, #0]
    14b2:	4633      	mov	r3, r6
    14b4:	f000 f956 	bl	1764 <trace_printf>
/workspace/benchmark/basicAlg_use/ta/CryptoVerifyTaRsa.c:421
    14b8:	6821      	ldr	r1, [r4, #0]
    14ba:	981c      	ldr	r0, [sp, #112]	; 0x70
    14bc:	f7ff fc4e 	bl	d5c <g_TA_Printf>
    14c0:	e7d5      	b.n	146e <g_CryptoTaRsa_rsaSignOper+0xde>
    14c2:	bf00      	nop
    14c4:	0000874f 	.word	0x0000874f
    14c8:	0000878e 	.word	0x0000878e
    14cc:	0000b1a6 	.word	0x0000b1a6
    14d0:	00008785 	.word	0x00008785
    14d4:	000087a2 	.word	0x000087a2
    14d8:	0000b158 	.word	0x0000b158
    14dc:	00008683 	.word	0x00008683

000014e0 <g_CryptoTaRsa_rsaVerifyOper>:
g_CryptoTaRsa_rsaVerifyOper():
/workspace/benchmark/basicAlg_use/ta/CryptoVerifyTaRsa.c:441
    14e0:	b084      	sub	sp, #16
    14e2:	e92d 4ff0 	stmdb	sp!, {r4, r5, r6, r7, r8, r9, sl, fp, lr}
/workspace/benchmark/basicAlg_use/ta/CryptoVerifyTaRsa.c:444
    14e6:	f04f 0914 	mov.w	r9, #20
/workspace/benchmark/basicAlg_use/ta/CryptoVerifyTaRsa.c:453
    14ea:	2500      	movs	r5, #0
/workspace/benchmark/basicAlg_use/ta/CryptoVerifyTaRsa.c:441
    14ec:	b08b      	sub	sp, #44	; 0x2c
    14ee:	ac14      	add	r4, sp, #80	; 0x50
/workspace/benchmark/basicAlg_use/ta/CryptoVerifyTaRsa.c:444
    14f0:	af05      	add	r7, sp, #20
/workspace/benchmark/basicAlg_use/ta/CryptoVerifyTaRsa.c:441
    14f2:	9e1e      	ldr	r6, [sp, #120]	; 0x78
    14f4:	e884 000f 	stmia.w	r4, {r0, r1, r2, r3}
/workspace/benchmark/basicAlg_use/ta/CryptoVerifyTaRsa.c:444
    14f8:	464a      	mov	r2, r9
    14fa:	2100      	movs	r1, #0
    14fc:	4638      	mov	r0, r7
/workspace/benchmark/basicAlg_use/ta/CryptoVerifyTaRsa.c:441
    14fe:	f8dd 8074 	ldr.w	r8, [sp, #116]	; 0x74
    1502:	f8dd b05c 	ldr.w	fp, [sp, #92]	; 0x5c
/workspace/benchmark/basicAlg_use/ta/CryptoVerifyTaRsa.c:444
    1506:	f007 fc8b 	bl	8e20 <memset>
/workspace/benchmark/basicAlg_use/ta/CryptoVerifyTaRsa.c:446
    150a:	4b66      	ldr	r3, [pc, #408]	; (16a4 <g_CryptoTaRsa_rsaVerifyOper+0x1c4>)
    150c:	f8cd 8004 	str.w	r8, [sp, #4]
    1510:	447b      	add	r3, pc
    1512:	9300      	str	r3, [sp, #0]
    1514:	2300      	movs	r3, #0
    1516:	461a      	mov	r2, r3
    1518:	4619      	mov	r1, r3
    151a:	4618      	mov	r0, r3
    151c:	f000 f922 	bl	1764 <trace_printf>
/workspace/benchmark/basicAlg_use/ta/CryptoVerifyTaRsa.c:447
    1520:	4b61      	ldr	r3, [pc, #388]	; (16a8 <g_CryptoTaRsa_rsaVerifyOper+0x1c8>)
    1522:	447b      	add	r3, pc
    1524:	9300      	str	r3, [sp, #0]
    1526:	2300      	movs	r3, #0
    1528:	461a      	mov	r2, r3
    152a:	4619      	mov	r1, r3
    152c:	4618      	mov	r0, r3
    152e:	f000 f919 	bl	1764 <trace_printf>
/workspace/benchmark/basicAlg_use/ta/CryptoVerifyTaRsa.c:448
    1532:	4641      	mov	r1, r8
    1534:	981b      	ldr	r0, [sp, #108]	; 0x6c
    1536:	f7ff fc11 	bl	d5c <g_TA_Printf>
/workspace/benchmark/basicAlg_use/ta/CryptoVerifyTaRsa.c:450
    153a:	495c      	ldr	r1, [pc, #368]	; (16ac <g_CryptoTaRsa_rsaVerifyOper+0x1cc>)
    153c:	463b      	mov	r3, r7
    153e:	224d      	movs	r2, #77	; 0x4d
    1540:	4479      	add	r1, pc
    1542:	9600      	str	r6, [sp, #0]
    1544:	2001      	movs	r0, #1
    1546:	f7ff f959 	bl	7fc <g_CryptoTaHash_sha>
/workspace/benchmark/basicAlg_use/ta/CryptoVerifyTaRsa.c:451
    154a:	4b59      	ldr	r3, [pc, #356]	; (16b0 <g_CryptoTaRsa_rsaVerifyOper+0x1d0>)
    154c:	447b      	add	r3, pc
    154e:	9300      	str	r3, [sp, #0]
    1550:	2300      	movs	r3, #0
    1552:	461a      	mov	r2, r3
    1554:	4619      	mov	r1, r3
    1556:	4618      	mov	r0, r3
    1558:	f000 f904 	bl	1764 <trace_printf>
/workspace/benchmark/basicAlg_use/ta/CryptoVerifyTaRsa.c:452
    155c:	6831      	ldr	r1, [r6, #0]
    155e:	4638      	mov	r0, r7
    1560:	f7ff fbfc 	bl	d5c <g_TA_Printf>
/workspace/benchmark/basicAlg_use/ta/CryptoVerifyTaRsa.c:456
    1564:	9b19      	ldr	r3, [sp, #100]	; 0x64
/workspace/benchmark/basicAlg_use/ta/CryptoVerifyTaRsa.c:453
    1566:	6035      	str	r5, [r6, #0]
/workspace/benchmark/basicAlg_use/ta/CryptoVerifyTaRsa.c:456
    1568:	465a      	mov	r2, fp
    156a:	9916      	ldr	r1, [sp, #88]	; 0x58
    156c:	9814      	ldr	r0, [sp, #80]	; 0x50
    156e:	f7ff fd5b 	bl	1028 <l_CryptoTaRsa_SetRsaPublicKey.isra.0>
    1572:	4604      	mov	r4, r0
/workspace/benchmark/basicAlg_use/ta/CryptoVerifyTaRsa.c:457
    1574:	1c43      	adds	r3, r0, #1
    1576:	d110      	bne.n	159a <g_CryptoTaRsa_rsaVerifyOper+0xba>
/workspace/benchmark/basicAlg_use/ta/CryptoVerifyTaRsa.c:459
    1578:	4b4e      	ldr	r3, [pc, #312]	; (16b4 <g_CryptoTaRsa_rsaVerifyOper+0x1d4>)
    157a:	462a      	mov	r2, r5
    157c:	4629      	mov	r1, r5
    157e:	4628      	mov	r0, r5
    1580:	447b      	add	r3, pc
    1582:	9300      	str	r3, [sp, #0]
    1584:	462b      	mov	r3, r5
    1586:	f000 f8ed 	bl	1764 <trace_printf>
/workspace/benchmark/basicAlg_use/ta/CryptoVerifyTaRsa.c:507
    158a:	f7ff fd25 	bl	fd8 <l_CryptoTaRsa_CleanUpPublicHandle>
/workspace/benchmark/basicAlg_use/ta/CryptoVerifyTaRsa.c:509
    158e:	4620      	mov	r0, r4
    1590:	b00b      	add	sp, #44	; 0x2c
    1592:	e8bd 4ff0 	ldmia.w	sp!, {r4, r5, r6, r7, r8, r9, sl, fp, lr}
    1596:	b004      	add	sp, #16
    1598:	4770      	bx	lr
/workspace/benchmark/basicAlg_use/ta/CryptoVerifyTaRsa.c:464
    159a:	4c47      	ldr	r4, [pc, #284]	; (16b8 <g_CryptoTaRsa_rsaVerifyOper+0x1d8>)
    159c:	2203      	movs	r2, #3
    159e:	991a      	ldr	r1, [sp, #104]	; 0x68
    15a0:	447c      	add	r4, pc
    15a2:	1d20      	adds	r0, r4, #4
    15a4:	68e3      	ldr	r3, [r4, #12]
    15a6:	f001 fc0a 	bl	2dbe <TEE_AllocateOperation>
/workspace/benchmark/basicAlg_use/ta/CryptoVerifyTaRsa.c:465
    15aa:	4682      	mov	sl, r0
    15ac:	b160      	cbz	r0, 15c8 <g_CryptoTaRsa_rsaVerifyOper+0xe8>
/workspace/benchmark/basicAlg_use/ta/CryptoVerifyTaRsa.c:467
    15ae:	4b43      	ldr	r3, [pc, #268]	; (16bc <g_CryptoTaRsa_rsaVerifyOper+0x1dc>)
    15b0:	462a      	mov	r2, r5
    15b2:	9001      	str	r0, [sp, #4]
    15b4:	4629      	mov	r1, r5
    15b6:	447b      	add	r3, pc
    15b8:	4628      	mov	r0, r5
    15ba:	9300      	str	r3, [sp, #0]
    15bc:	462b      	mov	r3, r5
    15be:	f000 f8d1 	bl	1764 <trace_printf>
/workspace/benchmark/basicAlg_use/ta/CryptoVerifyTaRsa.c:468
    15c2:	f04f 34ff 	mov.w	r4, #4294967295	; 0xffffffff
/workspace/benchmark/basicAlg_use/ta/CryptoVerifyTaRsa.c:469
    15c6:	e7e0      	b.n	158a <g_CryptoTaRsa_rsaVerifyOper+0xaa>
/workspace/benchmark/basicAlg_use/ta/CryptoVerifyTaRsa.c:473
    15c8:	6821      	ldr	r1, [r4, #0]
    15ca:	6860      	ldr	r0, [r4, #4]
    15cc:	f001 ff26 	bl	341c <TEE_SetOperationKey>
/workspace/benchmark/basicAlg_use/ta/CryptoVerifyTaRsa.c:474
    15d0:	4605      	mov	r5, r0
    15d2:	b198      	cbz	r0, 15fc <g_CryptoTaRsa_rsaVerifyOper+0x11c>
/workspace/benchmark/basicAlg_use/ta/CryptoVerifyTaRsa.c:476
    15d4:	4a3a      	ldr	r2, [pc, #232]	; (16c0 <g_CryptoTaRsa_rsaVerifyOper+0x1e0>)
    15d6:	4653      	mov	r3, sl
    15d8:	9001      	str	r0, [sp, #4]
    15da:	4651      	mov	r1, sl
    15dc:	447a      	add	r2, pc
    15de:	4650      	mov	r0, sl
    15e0:	9200      	str	r2, [sp, #0]
    15e2:	4652      	mov	r2, sl
    15e4:	f000 f8be 	bl	1764 <trace_printf>
/workspace/benchmark/basicAlg_use/ta/CryptoVerifyTaRsa.c:491
    15e8:	f04f 34ff 	mov.w	r4, #4294967295	; 0xffffffff
/workspace/benchmark/basicAlg_use/ta/CryptoVerifyTaRsa.c:504
    15ec:	4d35      	ldr	r5, [pc, #212]	; (16c4 <g_CryptoTaRsa_rsaVerifyOper+0x1e4>)
    15ee:	447d      	add	r5, pc
    15f0:	6868      	ldr	r0, [r5, #4]
    15f2:	f001 fbd1 	bl	2d98 <TEE_FreeOperation>
/workspace/benchmark/basicAlg_use/ta/CryptoVerifyTaRsa.c:505
    15f6:	2300      	movs	r3, #0
    15f8:	606b      	str	r3, [r5, #4]
    15fa:	e7c6      	b.n	158a <g_CryptoTaRsa_rsaVerifyOper+0xaa>
/workspace/benchmark/basicAlg_use/ta/CryptoVerifyTaRsa.c:483
    15fc:	9b1b      	ldr	r3, [sp, #108]	; 0x6c
    15fe:	4602      	mov	r2, r0
/workspace/benchmark/basicAlg_use/ta/CryptoVerifyTaRsa.c:481
    1600:	f8c6 b000 	str.w	fp, [r6]
/workspace/benchmark/basicAlg_use/ta/CryptoVerifyTaRsa.c:483
    1604:	4601      	mov	r1, r0
    1606:	9301      	str	r3, [sp, #4]
    1608:	463b      	mov	r3, r7
    160a:	f8cd 8008 	str.w	r8, [sp, #8]
    160e:	f8cd 9000 	str.w	r9, [sp]
    1612:	6860      	ldr	r0, [r4, #4]
    1614:	f002 fd2c 	bl	4070 <TEE_AsymmetricVerifyDigest>
/workspace/benchmark/basicAlg_use/ta/CryptoVerifyTaRsa.c:484
    1618:	4b2b      	ldr	r3, [pc, #172]	; (16c8 <g_CryptoTaRsa_rsaVerifyOper+0x1e8>)
/workspace/benchmark/basicAlg_use/ta/CryptoVerifyTaRsa.c:483
    161a:	4604      	mov	r4, r0
/workspace/benchmark/basicAlg_use/ta/CryptoVerifyTaRsa.c:484
    161c:	9001      	str	r0, [sp, #4]
    161e:	447b      	add	r3, pc
    1620:	462a      	mov	r2, r5
    1622:	9300      	str	r3, [sp, #0]
    1624:	4629      	mov	r1, r5
    1626:	462b      	mov	r3, r5
    1628:	4628      	mov	r0, r5
    162a:	f000 f89b 	bl	1764 <trace_printf>
/workspace/benchmark/basicAlg_use/ta/CryptoVerifyTaRsa.c:485
    162e:	b1dc      	cbz	r4, 1668 <g_CryptoTaRsa_rsaVerifyOper+0x188>
/workspace/benchmark/basicAlg_use/ta/CryptoVerifyTaRsa.c:487
    1630:	4b26      	ldr	r3, [pc, #152]	; (16cc <g_CryptoTaRsa_rsaVerifyOper+0x1ec>)
    1632:	462a      	mov	r2, r5
    1634:	4629      	mov	r1, r5
    1636:	4628      	mov	r0, r5
    1638:	447b      	add	r3, pc
    163a:	9300      	str	r3, [sp, #0]
    163c:	462b      	mov	r3, r5
/workspace/benchmark/basicAlg_use/ta/CryptoVerifyTaRsa.c:488
    163e:	240d      	movs	r4, #13
/workspace/benchmark/basicAlg_use/ta/CryptoVerifyTaRsa.c:487
    1640:	f000 f890 	bl	1764 <trace_printf>
/workspace/benchmark/basicAlg_use/ta/CryptoVerifyTaRsa.c:488
    1644:	4b22      	ldr	r3, [pc, #136]	; (16d0 <g_CryptoTaRsa_rsaVerifyOper+0x1f0>)
    1646:	462a      	mov	r2, r5
    1648:	4629      	mov	r1, r5
    164a:	4628      	mov	r0, r5
    164c:	9401      	str	r4, [sp, #4]
    164e:	447b      	add	r3, pc
    1650:	9300      	str	r3, [sp, #0]
    1652:	462b      	mov	r3, r5
    1654:	f000 f886 	bl	1764 <trace_printf>
/workspace/benchmark/basicAlg_use/ta/CryptoVerifyTaRsa.c:490
    1658:	491e      	ldr	r1, [pc, #120]	; (16d4 <g_CryptoTaRsa_rsaVerifyOper+0x1f4>)
/workspace/benchmark/basicAlg_use/ta/CryptoVerifyTaRsa.c:489
    165a:	6034      	str	r4, [r6, #0]
/workspace/benchmark/basicAlg_use/ta/CryptoVerifyTaRsa.c:490
    165c:	4622      	mov	r2, r4
    165e:	4479      	add	r1, pc
    1660:	981c      	ldr	r0, [sp, #112]	; 0x70
    1662:	f000 fe93 	bl	238c <TEE_MemMove>
    1666:	e7bf      	b.n	15e8 <g_CryptoTaRsa_rsaVerifyOper+0x108>
/workspace/benchmark/basicAlg_use/ta/CryptoVerifyTaRsa.c:495
    1668:	4b1b      	ldr	r3, [pc, #108]	; (16d8 <g_CryptoTaRsa_rsaVerifyOper+0x1f8>)
    166a:	4622      	mov	r2, r4
    166c:	4621      	mov	r1, r4
    166e:	4620      	mov	r0, r4
    1670:	447b      	add	r3, pc
    1672:	9300      	str	r3, [sp, #0]
    1674:	4623      	mov	r3, r4
/workspace/benchmark/basicAlg_use/ta/CryptoVerifyTaRsa.c:496
    1676:	250b      	movs	r5, #11
/workspace/benchmark/basicAlg_use/ta/CryptoVerifyTaRsa.c:495
    1678:	f000 f874 	bl	1764 <trace_printf>
/workspace/benchmark/basicAlg_use/ta/CryptoVerifyTaRsa.c:496
    167c:	4b17      	ldr	r3, [pc, #92]	; (16dc <g_CryptoTaRsa_rsaVerifyOper+0x1fc>)
    167e:	4622      	mov	r2, r4
    1680:	4621      	mov	r1, r4
    1682:	4620      	mov	r0, r4
    1684:	9501      	str	r5, [sp, #4]
    1686:	447b      	add	r3, pc
    1688:	9300      	str	r3, [sp, #0]
    168a:	4623      	mov	r3, r4
    168c:	f000 f86a 	bl	1764 <trace_printf>
/workspace/benchmark/basicAlg_use/ta/CryptoVerifyTaRsa.c:498
    1690:	4913      	ldr	r1, [pc, #76]	; (16e0 <g_CryptoTaRsa_rsaVerifyOper+0x200>)
/workspace/benchmark/basicAlg_use/ta/CryptoVerifyTaRsa.c:497
    1692:	230d      	movs	r3, #13
/workspace/benchmark/basicAlg_use/ta/CryptoVerifyTaRsa.c:498
    1694:	462a      	mov	r2, r5
/workspace/benchmark/basicAlg_use/ta/CryptoVerifyTaRsa.c:497
    1696:	6033      	str	r3, [r6, #0]
/workspace/benchmark/basicAlg_use/ta/CryptoVerifyTaRsa.c:498
    1698:	4479      	add	r1, pc
    169a:	981c      	ldr	r0, [sp, #112]	; 0x70
    169c:	f000 fe76 	bl	238c <TEE_MemMove>
    16a0:	e7a4      	b.n	15ec <g_CryptoTaRsa_rsaVerifyOper+0x10c>
    16a2:	bf00      	nop
    16a4:	00008639 	.word	0x00008639
    16a8:	00008640 	.word	0x00008640
    16ac:	0000b038 	.word	0x0000b038
    16b0:	000085cb 	.word	0x000085cb
    16b4:	00008608 	.word	0x00008608
    16b8:	0000b028 	.word	0x0000b028
    16bc:	000085ff 	.word	0x000085ff
    16c0:	0000861e 	.word	0x0000861e
    16c4:	0000afda 	.word	0x0000afda
    16c8:	00008613 	.word	0x00008613
    16cc:	00008620 	.word	0x00008620
    16d0:	000084e3 	.word	0x000084e3
    16d4:	00008608 	.word	0x00008608
    16d8:	00008603 	.word	0x00008603
    16dc:	000084ab 	.word	0x000084ab
    16e0:	000085ee 	.word	0x000085ee

000016e4 <append>:
append():
/mnt/disk/raspbian-tee/optee_os/lib/libutils/ext/trace.c:198
    16e4:	b40e      	push	{r1, r2, r3}
/mnt/disk/raspbian-tee/optee_os/lib/libutils/ext/trace.c:203
    16e6:	f8d0 3100 	ldr.w	r3, [r0, #256]	; 0x100
/mnt/disk/raspbian-tee/optee_os/lib/libutils/ext/trace.c:198
    16ea:	b533      	push	{r0, r1, r4, r5, lr}
    16ec:	4604      	mov	r4, r0
/mnt/disk/raspbian-tee/optee_os/lib/libutils/ext/trace.c:203
    16ee:	b90b      	cbnz	r3, 16f4 <append+0x10>
/mnt/disk/raspbian-tee/optee_os/lib/libutils/ext/trace.c:204
    16f0:	f8c4 0100 	str.w	r0, [r4, #256]	; 0x100
/mnt/disk/raspbian-tee/optee_os/lib/libutils/ext/trace.c:205
    16f4:	f8d4 0100 	ldr.w	r0, [r4, #256]	; 0x100
/mnt/disk/raspbian-tee/optee_os/lib/libutils/ext/trace.c:206
    16f8:	ab06      	add	r3, sp, #24
/mnt/disk/raspbian-tee/optee_os/lib/libutils/ext/trace.c:207
    16fa:	9a05      	ldr	r2, [sp, #20]
/mnt/disk/raspbian-tee/optee_os/lib/libutils/ext/trace.c:205
    16fc:	1b05      	subs	r5, r0, r4
/mnt/disk/raspbian-tee/optee_os/lib/libutils/ext/trace.c:206
    16fe:	9301      	str	r3, [sp, #4]
/mnt/disk/raspbian-tee/optee_os/lib/libutils/ext/trace.c:205
    1700:	f5c5 7580 	rsb	r5, r5, #256	; 0x100
/mnt/disk/raspbian-tee/optee_os/lib/libutils/ext/trace.c:207
    1704:	4629      	mov	r1, r5
    1706:	f000 fce5 	bl	20d4 <vsnprintk>
/mnt/disk/raspbian-tee/optee_os/lib/libutils/ext/trace.c:209
    170a:	2800      	cmp	r0, #0
    170c:	db0f      	blt.n	172e <append+0x4a>
/mnt/disk/raspbian-tee/optee_os/lib/libutils/ext/trace.c:213
    170e:	4285      	cmp	r5, r0
    1710:	dd0d      	ble.n	172e <append+0x4a>
/mnt/disk/raspbian-tee/optee_os/lib/libutils/ext/trace.c:217
    1712:	4285      	cmp	r5, r0
    1714:	bfa8      	it	ge
    1716:	4605      	movge	r5, r0
    1718:	f8d4 0100 	ldr.w	r0, [r4, #256]	; 0x100
    171c:	4405      	add	r5, r0
/mnt/disk/raspbian-tee/optee_os/lib/libutils/ext/trace.c:218
    171e:	2001      	movs	r0, #1
/mnt/disk/raspbian-tee/optee_os/lib/libutils/ext/trace.c:217
    1720:	f8c4 5100 	str.w	r5, [r4, #256]	; 0x100
/mnt/disk/raspbian-tee/optee_os/lib/libutils/ext/trace.c:219
    1724:	b002      	add	sp, #8
    1726:	e8bd 4030 	ldmia.w	sp!, {r4, r5, lr}
    172a:	b003      	add	sp, #12
    172c:	4770      	bx	lr
/mnt/disk/raspbian-tee/optee_os/lib/libutils/ext/trace.c:211
    172e:	2000      	movs	r0, #0
    1730:	e7f8      	b.n	1724 <append+0x40>

00001732 <trace_set_level>:
trace_set_level():
/mnt/disk/raspbian-tee/optee_os/lib/libutils/ext/trace.c:25
    1732:	4b05      	ldr	r3, [pc, #20]	; (1748 <trace_set_level+0x16>)
/mnt/disk/raspbian-tee/optee_os/lib/libutils/ext/trace.c:26
    1734:	2804      	cmp	r0, #4
    1736:	4a05      	ldr	r2, [pc, #20]	; (174c <trace_set_level+0x1a>)
/mnt/disk/raspbian-tee/optee_os/lib/libutils/ext/trace.c:25
    1738:	447b      	add	r3, pc
    173a:	589b      	ldr	r3, [r3, r2]
/mnt/disk/raspbian-tee/optee_os/lib/libutils/ext/trace.c:26
    173c:	d801      	bhi.n	1742 <trace_set_level+0x10>
/mnt/disk/raspbian-tee/optee_os/lib/libutils/ext/trace.c:27
    173e:	6018      	str	r0, [r3, #0]
    1740:	4770      	bx	lr
/mnt/disk/raspbian-tee/optee_os/lib/libutils/ext/trace.c:29
    1742:	2204      	movs	r2, #4
    1744:	601a      	str	r2, [r3, #0]
    1746:	4770      	bx	lr
    1748:	00009ac4 	.word	0x00009ac4
    174c:	00000010 	.word	0x00000010

00001750 <trace_get_level>:
trace_get_level():
/mnt/disk/raspbian-tee/optee_os/lib/libutils/ext/trace.c:33
    1750:	4b02      	ldr	r3, [pc, #8]	; (175c <trace_get_level+0xc>)
/mnt/disk/raspbian-tee/optee_os/lib/libutils/ext/trace.c:34
    1752:	4a03      	ldr	r2, [pc, #12]	; (1760 <trace_get_level+0x10>)
/mnt/disk/raspbian-tee/optee_os/lib/libutils/ext/trace.c:33
    1754:	447b      	add	r3, pc
/mnt/disk/raspbian-tee/optee_os/lib/libutils/ext/trace.c:34
    1756:	589b      	ldr	r3, [r3, r2]
/mnt/disk/raspbian-tee/optee_os/lib/libutils/ext/trace.c:35
    1758:	6818      	ldr	r0, [r3, #0]
    175a:	4770      	bx	lr
    175c:	00009aa8 	.word	0x00009aa8
    1760:	00000010 	.word	0x00000010

00001764 <trace_printf>:
trace_printf():
/mnt/disk/raspbian-tee/optee_os/lib/libutils/ext/trace.c:97
    1764:	e92d 47f0 	stmdb	sp!, {r4, r5, r6, r7, r8, r9, sl, lr}
    1768:	4607      	mov	r7, r0
    176a:	f8df 910c 	ldr.w	r9, [pc, #268]	; 1878 <trace_printf+0x114>
    176e:	b0c6      	sub	sp, #280	; 0x118
    1770:	4688      	mov	r8, r1
    1772:	44f9      	add	r9, pc
    1774:	4614      	mov	r4, r2
/mnt/disk/raspbian-tee/optee_os/lib/libutils/ext/trace.c:103
    1776:	469a      	mov	sl, r3
    1778:	2b00      	cmp	r3, #0
    177a:	d06a      	beq.n	1852 <trace_printf+0xee>
/mnt/disk/raspbian-tee/optee_os/lib/libutils/ext/trace.c:103 (discriminator 1)
    177c:	4b3f      	ldr	r3, [pc, #252]	; (187c <trace_printf+0x118>)
    177e:	f859 3003 	ldr.w	r3, [r9, r3]
    1782:	681b      	ldr	r3, [r3, #0]
    1784:	4293      	cmp	r3, r2
    1786:	db61      	blt.n	184c <trace_printf+0xe8>
trace_level_to_string():
/mnt/disk/raspbian-tee/optee_os/lib/libutils/ext/trace.c:52
    1788:	4613      	mov	r3, r2
    178a:	2a04      	cmp	r2, #4
/mnt/disk/raspbian-tee/optee_os/lib/libutils/ext/trace.c:55
    178c:	4a3c      	ldr	r2, [pc, #240]	; (1880 <trace_printf+0x11c>)
/mnt/disk/raspbian-tee/optee_os/lib/libutils/ext/trace.c:52
    178e:	bf88      	it	hi
    1790:	2300      	movhi	r3, #0
/mnt/disk/raspbian-tee/optee_os/lib/libutils/ext/trace.c:55
    1792:	447a      	add	r2, pc
    1794:	5cd3      	ldrb	r3, [r2, r3]
trace_printf():
/mnt/disk/raspbian-tee/optee_os/lib/libutils/ext/trace.c:107
    1796:	4a3b      	ldr	r2, [pc, #236]	; (1884 <trace_printf+0x120>)
    1798:	ad06      	add	r5, sp, #24
    179a:	f44f 7180 	mov.w	r1, #256	; 0x100
    179e:	4628      	mov	r0, r5
    17a0:	447a      	add	r2, pc
    17a2:	f000 fc9e 	bl	20e2 <snprintk>
/mnt/disk/raspbian-tee/optee_os/lib/libutils/ext/trace.c:109
    17a6:	1e06      	subs	r6, r0, #0
    17a8:	db50      	blt.n	184c <trace_printf+0xe8>
/mnt/disk/raspbian-tee/optee_os/lib/libutils/ext/trace.c:114
    17aa:	4b37      	ldr	r3, [pc, #220]	; (1888 <trace_printf+0x124>)
    17ac:	f5c6 7180 	rsb	r1, r6, #256	; 0x100
    17b0:	4a36      	ldr	r2, [pc, #216]	; (188c <trace_printf+0x128>)
    17b2:	19a8      	adds	r0, r5, r6
    17b4:	447a      	add	r2, pc
    17b6:	f859 3003 	ldr.w	r3, [r9, r3]
    17ba:	9303      	str	r3, [sp, #12]
    17bc:	f000 fc91 	bl	20e2 <snprintk>
/mnt/disk/raspbian-tee/optee_os/lib/libutils/ext/trace.c:116
    17c0:	2800      	cmp	r0, #0
    17c2:	db43      	blt.n	184c <trace_printf+0xe8>
/mnt/disk/raspbian-tee/optee_os/lib/libutils/ext/trace.c:118
    17c4:	4406      	add	r6, r0
/mnt/disk/raspbian-tee/optee_os/lib/libutils/ext/trace.c:120
    17c6:	f1ba 0f00 	cmp.w	sl, #0
    17ca:	d04b      	beq.n	1864 <trace_printf+0x100>
/mnt/disk/raspbian-tee/optee_os/lib/libutils/ext/trace.c:120 (discriminator 1)
    17cc:	231a      	movs	r3, #26
    17ce:	fa23 f404 	lsr.w	r4, r3, r4
    17d2:	07e3      	lsls	r3, r4, #31
    17d4:	d546      	bpl.n	1864 <trace_printf+0x100>
print_thread_id():
/mnt/disk/raspbian-tee/optee_os/lib/libutils/ext/trace.c:65
    17d6:	f000 fcb3 	bl	2140 <trace_ext_get_thread_id>
trace_printf():
/mnt/disk/raspbian-tee/optee_os/lib/libutils/ext/trace.c:122
    17da:	19ac      	adds	r4, r5, r6
    17dc:	f5c6 7980 	rsb	r9, r6, #256	; 0x100
print_thread_id():
/mnt/disk/raspbian-tee/optee_os/lib/libutils/ext/trace.c:67
    17e0:	2800      	cmp	r0, #0
    17e2:	db38      	blt.n	1856 <trace_printf+0xf2>
/mnt/disk/raspbian-tee/optee_os/lib/libutils/ext/trace.c:68
    17e4:	4a2a      	ldr	r2, [pc, #168]	; (1890 <trace_printf+0x12c>)
    17e6:	2301      	movs	r3, #1
    17e8:	9000      	str	r0, [sp, #0]
    17ea:	447a      	add	r2, pc
/mnt/disk/raspbian-tee/optee_os/lib/libutils/ext/trace.c:70
    17ec:	4649      	mov	r1, r9
    17ee:	4620      	mov	r0, r4
    17f0:	f000 fc77 	bl	20e2 <snprintk>
trace_printf():
/mnt/disk/raspbian-tee/optee_os/lib/libutils/ext/trace.c:129
    17f4:	2800      	cmp	r0, #0
    17f6:	db29      	blt.n	184c <trace_printf+0xe8>
/mnt/disk/raspbian-tee/optee_os/lib/libutils/ext/trace.c:131
    17f8:	1984      	adds	r4, r0, r6
/mnt/disk/raspbian-tee/optee_os/lib/libutils/ext/trace.c:133
    17fa:	b167      	cbz	r7, 1816 <trace_printf+0xb2>
/mnt/disk/raspbian-tee/optee_os/lib/libutils/ext/trace.c:134
    17fc:	4a25      	ldr	r2, [pc, #148]	; (1894 <trace_printf+0x130>)
    17fe:	463b      	mov	r3, r7
    1800:	f8cd 8000 	str.w	r8, [sp]
    1804:	f5c4 7180 	rsb	r1, r4, #256	; 0x100
    1808:	447a      	add	r2, pc
    180a:	1928      	adds	r0, r5, r4
    180c:	f000 fc69 	bl	20e2 <snprintk>
/mnt/disk/raspbian-tee/optee_os/lib/libutils/ext/trace.c:136
    1810:	2800      	cmp	r0, #0
    1812:	db1b      	blt.n	184c <trace_printf+0xe8>
/mnt/disk/raspbian-tee/optee_os/lib/libutils/ext/trace.c:138
    1814:	4404      	add	r4, r0
/mnt/disk/raspbian-tee/optee_os/lib/libutils/ext/trace.c:148
    1816:	ab4f      	add	r3, sp, #316	; 0x13c
/mnt/disk/raspbian-tee/optee_os/lib/libutils/ext/trace.c:149
    1818:	f5c4 7180 	rsb	r1, r4, #256	; 0x100
    181c:	1928      	adds	r0, r5, r4
    181e:	9a4e      	ldr	r2, [sp, #312]	; 0x138
/mnt/disk/raspbian-tee/optee_os/lib/libutils/ext/trace.c:148
    1820:	9305      	str	r3, [sp, #20]
/mnt/disk/raspbian-tee/optee_os/lib/libutils/ext/trace.c:149
    1822:	f000 fc57 	bl	20d4 <vsnprintk>
/mnt/disk/raspbian-tee/optee_os/lib/libutils/ext/trace.c:151
    1826:	2800      	cmp	r0, #0
/mnt/disk/raspbian-tee/optee_os/lib/libutils/ext/trace.c:157
    1828:	f04f 030a 	mov.w	r3, #10
/mnt/disk/raspbian-tee/optee_os/lib/libutils/ext/trace.c:152
    182c:	bfc8      	it	gt
    182e:	1824      	addgt	r4, r4, r0
    1830:	2cfe      	cmp	r4, #254	; 0xfe
    1832:	bf28      	it	cs
    1834:	24fe      	movcs	r4, #254	; 0xfe
/mnt/disk/raspbian-tee/optee_os/lib/libutils/ext/trace.c:157
    1836:	552b      	strb	r3, [r5, r4]
/mnt/disk/raspbian-tee/optee_os/lib/libutils/ext/trace.c:158
    1838:	b114      	cbz	r4, 1840 <trace_printf+0xdc>
/mnt/disk/raspbian-tee/optee_os/lib/libutils/ext/trace.c:158 (discriminator 1)
    183a:	5d2b      	ldrb	r3, [r5, r4]
    183c:	2b0a      	cmp	r3, #10
    183e:	d019      	beq.n	1874 <trace_printf+0x110>
/mnt/disk/raspbian-tee/optee_os/lib/libutils/ext/trace.c:161
    1840:	442c      	add	r4, r5
/mnt/disk/raspbian-tee/optee_os/lib/libutils/ext/trace.c:163
    1842:	4628      	mov	r0, r5
/mnt/disk/raspbian-tee/optee_os/lib/libutils/ext/trace.c:161
    1844:	2300      	movs	r3, #0
    1846:	70a3      	strb	r3, [r4, #2]
/mnt/disk/raspbian-tee/optee_os/lib/libutils/ext/trace.c:163
    1848:	f000 fc70 	bl	212c <trace_ext_puts>
/mnt/disk/raspbian-tee/optee_os/lib/libutils/ext/trace.c:164
    184c:	b046      	add	sp, #280	; 0x118
    184e:	e8bd 87f0 	ldmia.w	sp!, {r4, r5, r6, r7, r8, r9, sl, pc}
trace_level_to_string():
/mnt/disk/raspbian-tee/optee_os/lib/libutils/ext/trace.c:50
    1852:	234d      	movs	r3, #77	; 0x4d
    1854:	e79f      	b.n	1796 <trace_printf+0x32>
print_thread_id():
/mnt/disk/raspbian-tee/optee_os/lib/libutils/ext/trace.c:70
    1856:	4b10      	ldr	r3, [pc, #64]	; (1898 <trace_printf+0x134>)
    1858:	4a10      	ldr	r2, [pc, #64]	; (189c <trace_printf+0x138>)
    185a:	447b      	add	r3, pc
    185c:	9300      	str	r3, [sp, #0]
    185e:	447a      	add	r2, pc
    1860:	2301      	movs	r3, #1
    1862:	e7c3      	b.n	17ec <trace_printf+0x88>
trace_printf():
/mnt/disk/raspbian-tee/optee_os/lib/libutils/ext/trace.c:142
    1864:	2efe      	cmp	r6, #254	; 0xfe
    1866:	d8f1      	bhi.n	184c <trace_printf+0xe8>
/mnt/disk/raspbian-tee/optee_os/lib/libutils/ext/trace.c:144
    1868:	1c74      	adds	r4, r6, #1
    186a:	2320      	movs	r3, #32
    186c:	55ab      	strb	r3, [r5, r6]
/mnt/disk/raspbian-tee/optee_os/lib/libutils/ext/trace.c:145
    186e:	2300      	movs	r3, #0
    1870:	552b      	strb	r3, [r5, r4]
    1872:	e7d0      	b.n	1816 <trace_printf+0xb2>
/mnt/disk/raspbian-tee/optee_os/lib/libutils/ext/trace.c:159
    1874:	3c01      	subs	r4, #1
    1876:	e7df      	b.n	1838 <trace_printf+0xd4>
    1878:	00009a8a 	.word	0x00009a8a
    187c:	00000010 	.word	0x00000010
    1880:	000085e1 	.word	0x000085e1
    1884:	000085e2 	.word	0x000085e2
    1888:	00000018 	.word	0x00000018
    188c:	000085d2 	.word	0x000085d2
    1890:	000085a0 	.word	0x000085a0
    1894:	0000858d 	.word	0x0000858d
    1898:	00008015 	.word	0x00008015
    189c:	00008532 	.word	0x00008532

000018a0 <dhex_dump>:
dhex_dump():
/mnt/disk/raspbian-tee/optee_os/lib/libutils/ext/trace.c:225
    18a0:	e92d 4ff0 	stmdb	sp!, {r4, r5, r6, r7, r8, r9, sl, fp, lr}
    18a4:	4690      	mov	r8, r2
    18a6:	4a35      	ldr	r2, [pc, #212]	; (197c <dhex_dump+0xdc>)
    18a8:	468a      	mov	sl, r1
/mnt/disk/raspbian-tee/optee_os/lib/libutils/ext/trace.c:231
    18aa:	4935      	ldr	r1, [pc, #212]	; (1980 <dhex_dump+0xe0>)
/mnt/disk/raspbian-tee/optee_os/lib/libutils/ext/trace.c:225
    18ac:	447a      	add	r2, pc
    18ae:	b0c7      	sub	sp, #284	; 0x11c
    18b0:	4681      	mov	r9, r0
/mnt/disk/raspbian-tee/optee_os/lib/libutils/ext/trace.c:231
    18b2:	5852      	ldr	r2, [r2, r1]
    18b4:	6812      	ldr	r2, [r2, #0]
    18b6:	4542      	cmp	r2, r8
    18b8:	db1d      	blt.n	18f6 <dhex_dump+0x56>
    18ba:	461e      	mov	r6, r3
/mnt/disk/raspbian-tee/optee_os/lib/libutils/ext/trace.c:240
    18bc:	4b31      	ldr	r3, [pc, #196]	; (1984 <dhex_dump+0xe4>)
/mnt/disk/raspbian-tee/optee_os/lib/libutils/ext/trace.c:232
    18be:	ad05      	add	r5, sp, #20
/mnt/disk/raspbian-tee/optee_os/lib/libutils/ext/trace.c:235
    18c0:	f8df b0c4 	ldr.w	fp, [pc, #196]	; 1988 <dhex_dump+0xe8>
/mnt/disk/raspbian-tee/optee_os/lib/libutils/ext/trace.c:240
    18c4:	447b      	add	r3, pc
    18c6:	9302      	str	r3, [sp, #8]
/mnt/disk/raspbian-tee/optee_os/lib/libutils/ext/trace.c:248
    18c8:	4b30      	ldr	r3, [pc, #192]	; (198c <dhex_dump+0xec>)
/mnt/disk/raspbian-tee/optee_os/lib/libutils/ext/trace.c:235
    18ca:	44fb      	add	fp, pc
/mnt/disk/raspbian-tee/optee_os/lib/libutils/ext/trace.c:232
    18cc:	2400      	movs	r4, #0
    18ce:	f8c5 4100 	str.w	r4, [r5, #256]	; 0x100
/mnt/disk/raspbian-tee/optee_os/lib/libutils/ext/trace.c:248
    18d2:	447b      	add	r3, pc
    18d4:	9303      	str	r3, [sp, #12]
/mnt/disk/raspbian-tee/optee_os/lib/libutils/ext/trace.c:233 (discriminator 1)
    18d6:	9b50      	ldr	r3, [sp, #320]	; 0x140
    18d8:	429c      	cmp	r4, r3
    18da:	db0f      	blt.n	18fc <dhex_dump+0x5c>
/mnt/disk/raspbian-tee/optee_os/lib/libutils/ext/trace.c:253
    18dc:	f8d5 3100 	ldr.w	r3, [r5, #256]	; 0x100
    18e0:	b14b      	cbz	r3, 18f6 <dhex_dump+0x56>
/mnt/disk/raspbian-tee/optee_os/lib/libutils/ext/trace.c:255
    18e2:	4b2b      	ldr	r3, [pc, #172]	; (1990 <dhex_dump+0xf0>)
    18e4:	4642      	mov	r2, r8
    18e6:	9501      	str	r5, [sp, #4]
    18e8:	4651      	mov	r1, sl
    18ea:	447b      	add	r3, pc
    18ec:	4648      	mov	r0, r9
    18ee:	9300      	str	r3, [sp, #0]
    18f0:	2301      	movs	r3, #1
    18f2:	f7ff ff37 	bl	1764 <trace_printf>
/mnt/disk/raspbian-tee/optee_os/lib/libutils/ext/trace.c:263
    18f6:	b047      	add	sp, #284	; 0x11c
    18f8:	e8bd 8ff0 	ldmia.w	sp!, {r4, r5, r6, r7, r8, r9, sl, fp, pc}
/mnt/disk/raspbian-tee/optee_os/lib/libutils/ext/trace.c:234
    18fc:	f014 070f 	ands.w	r7, r4, #15
    1900:	d013      	beq.n	192a <dhex_dump+0x8a>
/mnt/disk/raspbian-tee/optee_os/lib/libutils/ext/trace.c:240
    1902:	f816 2b01 	ldrb.w	r2, [r6], #1
    1906:	4628      	mov	r0, r5
    1908:	9902      	ldr	r1, [sp, #8]
    190a:	f7ff feeb 	bl	16e4 <append>
/mnt/disk/raspbian-tee/optee_os/lib/libutils/ext/trace.c:241
    190e:	b9a8      	cbnz	r0, 193c <dhex_dump+0x9c>
/mnt/disk/raspbian-tee/optee_os/lib/libutils/ext/trace.c:262
    1910:	4820      	ldr	r0, [pc, #128]	; (1994 <dhex_dump+0xf4>)
    1912:	2203      	movs	r2, #3
    1914:	4b20      	ldr	r3, [pc, #128]	; (1998 <dhex_dump+0xf8>)
    1916:	f44f 7183 	mov.w	r1, #262	; 0x106
    191a:	4478      	add	r0, pc
    191c:	447b      	add	r3, pc
    191e:	3005      	adds	r0, #5
    1920:	9300      	str	r3, [sp, #0]
    1922:	2301      	movs	r3, #1
    1924:	f7ff ff1e 	bl	1764 <trace_printf>
    1928:	e7e5      	b.n	18f6 <dhex_dump+0x56>
/mnt/disk/raspbian-tee/optee_os/lib/libutils/ext/trace.c:235
    192a:	4633      	mov	r3, r6
    192c:	2208      	movs	r2, #8
    192e:	4659      	mov	r1, fp
    1930:	4628      	mov	r0, r5
    1932:	f7ff fed7 	bl	16e4 <append>
/mnt/disk/raspbian-tee/optee_os/lib/libutils/ext/trace.c:237
    1936:	2800      	cmp	r0, #0
    1938:	d1e3      	bne.n	1902 <dhex_dump+0x62>
    193a:	e7e9      	b.n	1910 <dhex_dump+0x70>
/mnt/disk/raspbian-tee/optee_os/lib/libutils/ext/trace.c:243
    193c:	4263      	negs	r3, r4
    193e:	f003 030f 	and.w	r3, r3, #15
    1942:	bf58      	it	pl
    1944:	425f      	negpl	r7, r3
    1946:	2f07      	cmp	r7, #7
    1948:	d108      	bne.n	195c <dhex_dump+0xbc>
/mnt/disk/raspbian-tee/optee_os/lib/libutils/ext/trace.c:244
    194a:	4914      	ldr	r1, [pc, #80]	; (199c <dhex_dump+0xfc>)
    194c:	4628      	mov	r0, r5
    194e:	4479      	add	r1, pc
    1950:	f7ff fec8 	bl	16e4 <append>
/mnt/disk/raspbian-tee/optee_os/lib/libutils/ext/trace.c:245
    1954:	2800      	cmp	r0, #0
    1956:	d0db      	beq.n	1910 <dhex_dump+0x70>
/mnt/disk/raspbian-tee/optee_os/lib/libutils/ext/trace.c:233 (discriminator 2)
    1958:	3401      	adds	r4, #1
    195a:	e7bc      	b.n	18d6 <dhex_dump+0x36>
/mnt/disk/raspbian-tee/optee_os/lib/libutils/ext/trace.c:247
    195c:	2f0f      	cmp	r7, #15
    195e:	d1fb      	bne.n	1958 <dhex_dump+0xb8>
/mnt/disk/raspbian-tee/optee_os/lib/libutils/ext/trace.c:248
    1960:	9b03      	ldr	r3, [sp, #12]
    1962:	4642      	mov	r2, r8
    1964:	9300      	str	r3, [sp, #0]
    1966:	4651      	mov	r1, sl
    1968:	2301      	movs	r3, #1
    196a:	9501      	str	r5, [sp, #4]
    196c:	4648      	mov	r0, r9
    196e:	f7ff fef9 	bl	1764 <trace_printf>
/mnt/disk/raspbian-tee/optee_os/lib/libutils/ext/trace.c:250
    1972:	2300      	movs	r3, #0
    1974:	f8c5 3100 	str.w	r3, [r5, #256]	; 0x100
    1978:	e7ee      	b.n	1958 <dhex_dump+0xb8>
    197a:	bf00      	nop
    197c:	00009950 	.word	0x00009950
    1980:	00000010 	.word	0x00000010
    1984:	000084d8 	.word	0x000084d8
    1988:	000084d8 	.word	0x000084d8
    198c:	000084d8 	.word	0x000084d8
    1990:	000084c0 	.word	0x000084c0
    1994:	00008459 	.word	0x00008459
    1998:	00008491 	.word	0x00008491
    199c:	0000845a 	.word	0x0000845a

000019a0 <__vsnprintf>:
__vsnprintf():
/mnt/disk/raspbian-tee/optee_os/lib/libutils/ext/snprintk.c:137
    19a0:	e92d 4ff0 	stmdb	sp!, {r4, r5, r6, r7, r8, r9, sl, fp, lr}
/mnt/disk/raspbian-tee/optee_os/lib/libutils/ext/snprintk.c:141
    19a4:	4680      	mov	r8, r0
    19a6:	461f      	mov	r7, r3
/mnt/disk/raspbian-tee/optee_os/lib/libutils/ext/snprintk.c:137
    19a8:	b09f      	sub	sp, #124	; 0x7c
kprintf():
/mnt/disk/raspbian-tee/optee_os/lib/libutils/ext/snprintk.c:269
    19aa:	2300      	movs	r3, #0
__vsnprintf():
/mnt/disk/raspbian-tee/optee_os/lib/libutils/ext/snprintk.c:137
    19ac:	920b      	str	r2, [sp, #44]	; 0x2c
    19ae:	f89d 20a0 	ldrb.w	r2, [sp, #160]	; 0xa0
    19b2:	9213      	str	r2, [sp, #76]	; 0x4c
/mnt/disk/raspbian-tee/optee_os/lib/libutils/ext/snprintk.c:141
    19b4:	4602      	mov	r2, r0
    19b6:	440a      	add	r2, r1
/mnt/disk/raspbian-tee/optee_os/lib/libutils/ext/snprintk.c:137
    19b8:	9010      	str	r0, [sp, #64]	; 0x40
    19ba:	9112      	str	r1, [sp, #72]	; 0x48
/mnt/disk/raspbian-tee/optee_os/lib/libutils/ext/snprintk.c:141
    19bc:	920e      	str	r2, [sp, #56]	; 0x38
kprintf():
/mnt/disk/raspbian-tee/optee_os/lib/libutils/ext/snprintk.c:269
    19be:	930f      	str	r3, [sp, #60]	; 0x3c
/mnt/disk/raspbian-tee/optee_os/lib/libutils/ext/snprintk.c:267
    19c0:	930c      	str	r3, [sp, #48]	; 0x30
/mnt/disk/raspbian-tee/optee_os/lib/libutils/ext/snprintk.c:275
    19c2:	9b0b      	ldr	r3, [sp, #44]	; 0x2c
    19c4:	781b      	ldrb	r3, [r3, #0]
    19c6:	2b25      	cmp	r3, #37	; 0x25
    19c8:	d024      	beq.n	1a14 <__vsnprintf+0x74>
    19ca:	b993      	cbnz	r3, 19f2 <__vsnprintf+0x52>
__vsnprintf():
/mnt/disk/raspbian-tee/optee_os/lib/libutils/ext/snprintk.c:143
    19cc:	9b10      	ldr	r3, [sp, #64]	; 0x40
    19ce:	b163      	cbz	r3, 19ea <__vsnprintf+0x4a>
/mnt/disk/raspbian-tee/optee_os/lib/libutils/ext/snprintk.c:143 (discriminator 1)
    19d0:	9b12      	ldr	r3, [sp, #72]	; 0x48
    19d2:	b153      	cbz	r3, 19ea <__vsnprintf+0x4a>
/mnt/disk/raspbian-tee/optee_os/lib/libutils/ext/snprintk.c:145
    19d4:	9a0c      	ldr	r2, [sp, #48]	; 0x30
    19d6:	4293      	cmp	r3, r2
    19d8:	f04f 0300 	mov.w	r3, #0
/mnt/disk/raspbian-tee/optee_os/lib/libutils/ext/snprintk.c:146
    19dc:	9a10      	ldr	r2, [sp, #64]	; 0x40
/mnt/disk/raspbian-tee/optee_os/lib/libutils/ext/snprintk.c:145
    19de:	f200 835f 	bhi.w	20a0 <__vsnprintf+0x700>
/mnt/disk/raspbian-tee/optee_os/lib/libutils/ext/snprintk.c:146
    19e2:	9912      	ldr	r1, [sp, #72]	; 0x48
    19e4:	440a      	add	r2, r1
    19e6:	f802 3c01 	strb.w	r3, [r2, #-1]
/mnt/disk/raspbian-tee/optee_os/lib/libutils/ext/snprintk.c:151
    19ea:	980c      	ldr	r0, [sp, #48]	; 0x30
    19ec:	b01f      	add	sp, #124	; 0x7c
    19ee:	e8bd 8ff0 	ldmia.w	sp!, {r4, r5, r6, r7, r8, r9, sl, fp, pc}
kprintf():
/mnt/disk/raspbian-tee/optee_os/lib/libutils/ext/snprintk.c:276
    19f2:	9a0c      	ldr	r2, [sp, #48]	; 0x30
    19f4:	3201      	adds	r2, #1
    19f6:	920c      	str	r2, [sp, #48]	; 0x30
/mnt/disk/raspbian-tee/optee_os/lib/libutils/ext/snprintk.c:277
    19f8:	f1b8 0f00 	cmp.w	r8, #0
    19fc:	d006      	beq.n	1a0c <__vsnprintf+0x6c>
    19fe:	9a0e      	ldr	r2, [sp, #56]	; 0x38
    1a00:	4542      	cmp	r2, r8
    1a02:	d903      	bls.n	1a0c <__vsnprintf+0x6c>
    1a04:	f888 3000 	strb.w	r3, [r8]
    1a08:	f108 0801 	add.w	r8, r8, #1
/mnt/disk/raspbian-tee/optee_os/lib/libutils/ext/snprintk.c:275
    1a0c:	9b0b      	ldr	r3, [sp, #44]	; 0x2c
    1a0e:	3301      	adds	r3, #1
    1a10:	930b      	str	r3, [sp, #44]	; 0x2c
    1a12:	e7d6      	b.n	19c2 <__vsnprintf+0x22>
/mnt/disk/raspbian-tee/optee_os/lib/libutils/ext/snprintk.c:282
    1a14:	9b0b      	ldr	r3, [sp, #44]	; 0x2c
/mnt/disk/raspbian-tee/optee_os/lib/libutils/ext/snprintk.c:288
    1a16:	f04f 0a00 	mov.w	sl, #0
/mnt/disk/raspbian-tee/optee_os/lib/libutils/ext/snprintk.c:282
    1a1a:	463a      	mov	r2, r7
/mnt/disk/raspbian-tee/optee_os/lib/libutils/ext/snprintk.c:287
    1a1c:	f04f 3bff 	mov.w	fp, #4294967295	; 0xffffffff
/mnt/disk/raspbian-tee/optee_os/lib/libutils/ext/snprintk.c:282
    1a20:	3301      	adds	r3, #1
/mnt/disk/raspbian-tee/optee_os/lib/libutils/ext/snprintk.c:284
    1a22:	4656      	mov	r6, sl
/mnt/disk/raspbian-tee/optee_os/lib/libutils/ext/snprintk.c:286
    1a24:	f8cd a034 	str.w	sl, [sp, #52]	; 0x34
/mnt/disk/raspbian-tee/optee_os/lib/libutils/ext/snprintk.c:290
    1a28:	f893 9000 	ldrb.w	r9, [r3]
    1a2c:	1c59      	adds	r1, r3, #1
    1a2e:	910b      	str	r1, [sp, #44]	; 0x2c
/mnt/disk/raspbian-tee/optee_os/lib/libutils/ext/snprintk.c:291
    1a30:	f1b9 0f63 	cmp.w	r9, #99	; 0x63
    1a34:	f000 8163 	beq.w	1cfe <__vsnprintf+0x35e>
    1a38:	f300 8095 	bgt.w	1b66 <__vsnprintf+0x1c6>
    1a3c:	f1b9 0f30 	cmp.w	r9, #48	; 0x30
    1a40:	f000 8147 	beq.w	1cd2 <__vsnprintf+0x332>
    1a44:	dc26      	bgt.n	1a94 <__vsnprintf+0xf4>
    1a46:	f1b9 0f2a 	cmp.w	r9, #42	; 0x2a
    1a4a:	f000 8119 	beq.w	1c80 <__vsnprintf+0x2e0>
    1a4e:	dc13      	bgt.n	1a78 <__vsnprintf+0xd8>
    1a50:	f1b9 0f20 	cmp.w	r9, #32
    1a54:	f000 810a 	beq.w	1c6c <__vsnprintf+0x2cc>
    1a58:	f1b9 0f23 	cmp.w	r9, #35	; 0x23
    1a5c:	f000 810d 	beq.w	1c7a <__vsnprintf+0x2da>
/mnt/disk/raspbian-tee/optee_os/lib/libutils/ext/snprintk.c:541
    1a60:	f1b9 0f00 	cmp.w	r9, #0
    1a64:	d0b2      	beq.n	19cc <__vsnprintf+0x2c>
/mnt/disk/raspbian-tee/optee_os/lib/libutils/ext/snprintk.c:545
    1a66:	ab1e      	add	r3, sp, #120	; 0x78
    1a68:	4617      	mov	r7, r2
/mnt/disk/raspbian-tee/optee_os/lib/libutils/ext/snprintk.c:546
    1a6a:	f04f 0b01 	mov.w	fp, #1
/mnt/disk/raspbian-tee/optee_os/lib/libutils/ext/snprintk.c:545
    1a6e:	f803 9d28 	strb.w	r9, [r3, #-40]!
    1a72:	e0c0      	b.n	1bf6 <__vsnprintf+0x256>
/mnt/disk/raspbian-tee/optee_os/lib/libutils/ext/snprintk.c:311
    1a74:	461a      	mov	r2, r3
    1a76:	e00b      	b.n	1a90 <__vsnprintf+0xf0>
/mnt/disk/raspbian-tee/optee_os/lib/libutils/ext/snprintk.c:291
    1a78:	f1b9 0f2d 	cmp.w	r9, #45	; 0x2d
    1a7c:	f000 8109 	beq.w	1c92 <__vsnprintf+0x2f2>
    1a80:	f1b9 0f2e 	cmp.w	r9, #46	; 0x2e
    1a84:	f000 8108 	beq.w	1c98 <__vsnprintf+0x2f8>
    1a88:	f1b9 0f2b 	cmp.w	r9, #43	; 0x2b
    1a8c:	d1e8      	bne.n	1a60 <__vsnprintf+0xc0>
/mnt/disk/raspbian-tee/optee_os/lib/libutils/ext/snprintk.c:319
    1a8e:	46ca      	mov	sl, r9
/mnt/disk/raspbian-tee/optee_os/lib/libutils/ext/snprintk.c:322
    1a90:	9b0b      	ldr	r3, [sp, #44]	; 0x2c
    1a92:	e7c9      	b.n	1a28 <__vsnprintf+0x88>
/mnt/disk/raspbian-tee/optee_os/lib/libutils/ext/snprintk.c:291
    1a94:	f1b9 0f44 	cmp.w	r9, #68	; 0x44
    1a98:	f000 818a 	beq.w	1db0 <__vsnprintf+0x410>
    1a9c:	dc14      	bgt.n	1ac8 <__vsnprintf+0x128>
    1a9e:	f1b9 0f39 	cmp.w	r9, #57	; 0x39
    1aa2:	dcdd      	bgt.n	1a60 <__vsnprintf+0xc0>
    1aa4:	2300      	movs	r3, #0
    1aa6:	930d      	str	r3, [sp, #52]	; 0x34
/mnt/disk/raspbian-tee/optee_os/lib/libutils/ext/snprintk.c:346
    1aa8:	9b0d      	ldr	r3, [sp, #52]	; 0x34
    1aaa:	f1a9 0930 	sub.w	r9, r9, #48	; 0x30
    1aae:	210a      	movs	r1, #10
    1ab0:	fb01 9303 	mla	r3, r1, r3, r9
    1ab4:	930d      	str	r3, [sp, #52]	; 0x34
/mnt/disk/raspbian-tee/optee_os/lib/libutils/ext/snprintk.c:347
    1ab6:	9b0b      	ldr	r3, [sp, #44]	; 0x2c
    1ab8:	f813 9b01 	ldrb.w	r9, [r3], #1
    1abc:	930b      	str	r3, [sp, #44]	; 0x2c
/mnt/disk/raspbian-tee/optee_os/lib/libutils/ext/snprintk.c:348
    1abe:	f1a9 0330 	sub.w	r3, r9, #48	; 0x30
    1ac2:	2b09      	cmp	r3, #9
    1ac4:	d9f0      	bls.n	1aa8 <__vsnprintf+0x108>
    1ac6:	e7b3      	b.n	1a30 <__vsnprintf+0x90>
/mnt/disk/raspbian-tee/optee_os/lib/libutils/ext/snprintk.c:291
    1ac8:	f1b9 0f55 	cmp.w	r9, #85	; 0x55
    1acc:	f000 823d 	beq.w	1f4a <__vsnprintf+0x5aa>
    1ad0:	f1b9 0f58 	cmp.w	r9, #88	; 0x58
    1ad4:	f000 80ab 	beq.w	1c2e <__vsnprintf+0x28e>
    1ad8:	f1b9 0f4f 	cmp.w	r9, #79	; 0x4f
    1adc:	d1c0      	bne.n	1a60 <__vsnprintf+0xc0>
/mnt/disk/raspbian-tee/optee_os/lib/libutils/ext/snprintk.c:408
    1ade:	f046 0610 	orr.w	r6, r6, #16
/mnt/disk/raspbian-tee/optee_os/lib/libutils/ext/snprintk.c:411
    1ae2:	0635      	lsls	r5, r6, #24
    1ae4:	f140 81c0 	bpl.w	1e68 <__vsnprintf+0x4c8>
    1ae8:	3207      	adds	r2, #7
    1aea:	f022 0207 	bic.w	r2, r2, #7
    1aee:	f102 0708 	add.w	r7, r2, #8
    1af2:	e9d2 4500 	ldrd	r4, r5, [r2]
/mnt/disk/raspbian-tee/optee_os/lib/libutils/ext/snprintk.c:488
    1af6:	f04f 0a00 	mov.w	sl, #0
    1afa:	f1bb 3fff 	cmp.w	fp, #4294967295	; 0xffffffff
    1afe:	d011      	beq.n	1b24 <__vsnprintf+0x184>
    1b00:	4653      	mov	r3, sl
/mnt/disk/raspbian-tee/optee_os/lib/libutils/ext/snprintk.c:489
    1b02:	f426 6680 	bic.w	r6, r6, #1024	; 0x400
/mnt/disk/raspbian-tee/optee_os/lib/libutils/ext/snprintk.c:497
    1b06:	ea54 0205 	orrs.w	r2, r4, r5
    1b0a:	d105      	bne.n	1b18 <__vsnprintf+0x178>
    1b0c:	f1bb 0f00 	cmp.w	fp, #0
    1b10:	f000 8269 	beq.w	1fe6 <__vsnprintf+0x646>
    1b14:	2400      	movs	r4, #0
    1b16:	2500      	movs	r5, #0
/mnt/disk/raspbian-tee/optee_os/lib/libutils/ext/snprintk.c:503
    1b18:	2b01      	cmp	r3, #1
    1b1a:	f000 8161 	beq.w	1de0 <__vsnprintf+0x440>
    1b1e:	2b02      	cmp	r3, #2
    1b20:	f000 81f8 	beq.w	1f14 <__vsnprintf+0x574>
/mnt/disk/raspbian-tee/optee_os/lib/libutils/ext/snprintk.c:488
    1b24:	f10d 0275 	add.w	r2, sp, #117	; 0x75
/mnt/disk/raspbian-tee/optee_os/lib/libutils/ext/snprintk.c:507
    1b28:	08e0      	lsrs	r0, r4, #3
    1b2a:	ea4f 0cd5 	mov.w	ip, r5, lsr #3
    1b2e:	ea40 7045 	orr.w	r0, r0, r5, lsl #29
/mnt/disk/raspbian-tee/optee_os/lib/libutils/ext/snprintk.c:506
    1b32:	f004 0107 	and.w	r1, r4, #7
/mnt/disk/raspbian-tee/optee_os/lib/libutils/ext/snprintk.c:507
    1b36:	4665      	mov	r5, ip
    1b38:	4604      	mov	r4, r0
/mnt/disk/raspbian-tee/optee_os/lib/libutils/ext/snprintk.c:506
    1b3a:	3130      	adds	r1, #48	; 0x30
    1b3c:	1e53      	subs	r3, r2, #1
    1b3e:	f802 1c01 	strb.w	r1, [r2, #-1]
/mnt/disk/raspbian-tee/optee_os/lib/libutils/ext/snprintk.c:508
    1b42:	ea54 0005 	orrs.w	r0, r4, r5
    1b46:	f040 8239 	bne.w	1fbc <__vsnprintf+0x61c>
/mnt/disk/raspbian-tee/optee_os/lib/libutils/ext/snprintk.c:510
    1b4a:	07f5      	lsls	r5, r6, #31
    1b4c:	d505      	bpl.n	1b5a <__vsnprintf+0x1ba>
    1b4e:	2930      	cmp	r1, #48	; 0x30
    1b50:	d003      	beq.n	1b5a <__vsnprintf+0x1ba>
/mnt/disk/raspbian-tee/optee_os/lib/libutils/ext/snprintk.c:511
    1b52:	2130      	movs	r1, #48	; 0x30
    1b54:	f803 1c01 	strb.w	r1, [r3, #-1]
    1b58:	1e93      	subs	r3, r2, #2
/mnt/disk/raspbian-tee/optee_os/lib/libutils/ext/snprintk.c:537
    1b5a:	f10d 0275 	add.w	r2, sp, #117	; 0x75
    1b5e:	4658      	mov	r0, fp
    1b60:	eba2 0b03 	sub.w	fp, r2, r3
    1b64:	e0d5      	b.n	1d12 <__vsnprintf+0x372>
/mnt/disk/raspbian-tee/optee_os/lib/libutils/ext/snprintk.c:291
    1b66:	f1b9 0f6f 	cmp.w	r9, #111	; 0x6f
    1b6a:	d0ba      	beq.n	1ae2 <__vsnprintf+0x142>
    1b6c:	dc1e      	bgt.n	1bac <__vsnprintf+0x20c>
    1b6e:	f1b9 0f69 	cmp.w	r9, #105	; 0x69
    1b72:	f000 811f 	beq.w	1db4 <__vsnprintf+0x414>
    1b76:	dc0a      	bgt.n	1b8e <__vsnprintf+0x1ee>
    1b78:	f1b9 0f64 	cmp.w	r9, #100	; 0x64
    1b7c:	f000 811a 	beq.w	1db4 <__vsnprintf+0x414>
    1b80:	f1b9 0f68 	cmp.w	r9, #104	; 0x68
    1b84:	f47f af6c 	bne.w	1a60 <__vsnprintf+0xc0>
/mnt/disk/raspbian-tee/optee_os/lib/libutils/ext/snprintk.c:352
    1b88:	f046 0640 	orr.w	r6, r6, #64	; 0x40
    1b8c:	e780      	b.n	1a90 <__vsnprintf+0xf0>
/mnt/disk/raspbian-tee/optee_os/lib/libutils/ext/snprintk.c:291
    1b8e:	f1b9 0f6c 	cmp.w	r9, #108	; 0x6c
    1b92:	f000 80a1 	beq.w	1cd8 <__vsnprintf+0x338>
    1b96:	f1b9 0f6e 	cmp.w	r9, #110	; 0x6e
    1b9a:	f000 8146 	beq.w	1e2a <__vsnprintf+0x48a>
    1b9e:	f1b9 0f6a 	cmp.w	r9, #106	; 0x6a
    1ba2:	f47f af5d 	bne.w	1a60 <__vsnprintf+0xc0>
/mnt/disk/raspbian-tee/optee_os/lib/libutils/ext/snprintk.c:355
    1ba6:	f046 0680 	orr.w	r6, r6, #128	; 0x80
    1baa:	e771      	b.n	1a90 <__vsnprintf+0xf0>
/mnt/disk/raspbian-tee/optee_os/lib/libutils/ext/snprintk.c:291
    1bac:	f1b9 0f74 	cmp.w	r9, #116	; 0x74
    1bb0:	f000 809f 	beq.w	1cf2 <__vsnprintf+0x352>
    1bb4:	dc22      	bgt.n	1bfc <__vsnprintf+0x25c>
    1bb6:	f1b9 0f71 	cmp.w	r9, #113	; 0x71
    1bba:	f000 8094 	beq.w	1ce6 <__vsnprintf+0x346>
    1bbe:	f2c0 8167 	blt.w	1e90 <__vsnprintf+0x4f0>
    1bc2:	f1b9 0f73 	cmp.w	r9, #115	; 0x73
    1bc6:	f47f af4b 	bne.w	1a60 <__vsnprintf+0xc0>
/mnt/disk/raspbian-tee/optee_os/lib/libutils/ext/snprintk.c:442
    1bca:	6813      	ldr	r3, [r2, #0]
    1bcc:	1d17      	adds	r7, r2, #4
    1bce:	b913      	cbnz	r3, 1bd6 <__vsnprintf+0x236>
/mnt/disk/raspbian-tee/optee_os/lib/libutils/ext/snprintk.c:444
    1bd0:	f8df 34ec 	ldr.w	r3, [pc, #1260]	; 20c0 <__vsnprintf+0x720>
    1bd4:	447b      	add	r3, pc
/mnt/disk/raspbian-tee/optee_os/lib/libutils/ext/snprintk.c:445
    1bd6:	f1bb 3fff 	cmp.w	fp, #4294967295	; 0xffffffff
    1bda:	f000 81ad 	beq.w	1f38 <__vsnprintf+0x598>
/mnt/disk/raspbian-tee/optee_os/lib/libutils/ext/snprintk.c:451
    1bde:	4618      	mov	r0, r3
    1be0:	465a      	mov	r2, fp
    1be2:	2100      	movs	r1, #0
    1be4:	9311      	str	r3, [sp, #68]	; 0x44
    1be6:	f007 f926 	bl	8e36 <memchr>
/mnt/disk/raspbian-tee/optee_os/lib/libutils/ext/snprintk.c:453
    1bea:	9b11      	ldr	r3, [sp, #68]	; 0x44
    1bec:	b120      	cbz	r0, 1bf8 <__vsnprintf+0x258>
/mnt/disk/raspbian-tee/optee_os/lib/libutils/ext/snprintk.c:454
    1bee:	1ac0      	subs	r0, r0, r3
    1bf0:	4583      	cmp	fp, r0
    1bf2:	bfa8      	it	ge
    1bf4:	4683      	movge	fp, r0
/mnt/disk/raspbian-tee/optee_os/lib/libutils/ext/snprintk.c:285
    1bf6:	2000      	movs	r0, #0
/mnt/disk/raspbian-tee/optee_os/lib/libutils/ext/snprintk.c:461
    1bf8:	4682      	mov	sl, r0
    1bfa:	e08a      	b.n	1d12 <__vsnprintf+0x372>
/mnt/disk/raspbian-tee/optee_os/lib/libutils/ext/snprintk.c:291
    1bfc:	f1b9 0f78 	cmp.w	r9, #120	; 0x78
    1c00:	f000 81c2 	beq.w	1f88 <__vsnprintf+0x5e8>
    1c04:	f1b9 0f7a 	cmp.w	r9, #122	; 0x7a
    1c08:	d076      	beq.n	1cf8 <__vsnprintf+0x358>
    1c0a:	f1b9 0f75 	cmp.w	r9, #117	; 0x75
    1c0e:	f47f af27 	bne.w	1a60 <__vsnprintf+0xc0>
/mnt/disk/raspbian-tee/optee_os/lib/libutils/ext/snprintk.c:467
    1c12:	f016 0380 	ands.w	r3, r6, #128	; 0x80
    1c16:	f000 819b 	beq.w	1f50 <__vsnprintf+0x5b0>
    1c1a:	3207      	adds	r2, #7
    1c1c:	f022 0207 	bic.w	r2, r2, #7
    1c20:	f102 0708 	add.w	r7, r2, #8
    1c24:	e9d2 4500 	ldrd	r4, r5, [r2]
/mnt/disk/raspbian-tee/optee_os/lib/libutils/ext/snprintk.c:482
    1c28:	f04f 0a00 	mov.w	sl, #0
    1c2c:	e0d4      	b.n	1dd8 <__vsnprintf+0x438>
/mnt/disk/raspbian-tee/optee_os/lib/libutils/ext/snprintk.c:471
    1c2e:	f8df 3494 	ldr.w	r3, [pc, #1172]	; 20c4 <__vsnprintf+0x724>
    1c32:	447b      	add	r3, pc
/mnt/disk/raspbian-tee/optee_os/lib/libutils/ext/snprintk.c:474
    1c34:	930f      	str	r3, [sp, #60]	; 0x3c
/mnt/disk/raspbian-tee/optee_os/lib/libutils/ext/snprintk.c:475
    1c36:	0637      	lsls	r7, r6, #24
    1c38:	f140 81aa 	bpl.w	1f90 <__vsnprintf+0x5f0>
    1c3c:	3207      	adds	r2, #7
    1c3e:	f022 0207 	bic.w	r2, r2, #7
    1c42:	f102 0708 	add.w	r7, r2, #8
    1c46:	e9d2 4500 	ldrd	r4, r5, [r2]
/mnt/disk/raspbian-tee/optee_os/lib/libutils/ext/snprintk.c:478
    1c4a:	07f3      	lsls	r3, r6, #31
    1c4c:	f140 815c 	bpl.w	1f08 <__vsnprintf+0x568>
    1c50:	ea54 0305 	orrs.w	r3, r4, r5
    1c54:	f000 822d 	beq.w	20b2 <__vsnprintf+0x712>
/mnt/disk/raspbian-tee/optee_os/lib/libutils/ext/snprintk.c:479
    1c58:	f046 0602 	orr.w	r6, r6, #2
/mnt/disk/raspbian-tee/optee_os/lib/libutils/ext/snprintk.c:488
    1c5c:	f1bb 3fff 	cmp.w	fp, #4294967295	; 0xffffffff
    1c60:	f000 822a 	beq.w	20b8 <__vsnprintf+0x718>
    1c64:	f04f 0a00 	mov.w	sl, #0
    1c68:	2302      	movs	r3, #2
    1c6a:	e74a      	b.n	1b02 <__vsnprintf+0x162>
/mnt/disk/raspbian-tee/optee_os/lib/libutils/ext/snprintk.c:299
    1c6c:	f1ba 0f00 	cmp.w	sl, #0
    1c70:	f04f 0320 	mov.w	r3, #32
    1c74:	bf08      	it	eq
    1c76:	469a      	moveq	sl, r3
    1c78:	e70a      	b.n	1a90 <__vsnprintf+0xf0>
/mnt/disk/raspbian-tee/optee_os/lib/libutils/ext/snprintk.c:302
    1c7a:	f046 0601 	orr.w	r6, r6, #1
    1c7e:	e707      	b.n	1a90 <__vsnprintf+0xf0>
/mnt/disk/raspbian-tee/optee_os/lib/libutils/ext/snprintk.c:311
    1c80:	1d13      	adds	r3, r2, #4
    1c82:	6812      	ldr	r2, [r2, #0]
    1c84:	920d      	str	r2, [sp, #52]	; 0x34
    1c86:	2a00      	cmp	r2, #0
    1c88:	f6bf aef4 	bge.w	1a74 <__vsnprintf+0xd4>
/mnt/disk/raspbian-tee/optee_os/lib/libutils/ext/snprintk.c:313
    1c8c:	4252      	negs	r2, r2
    1c8e:	920d      	str	r2, [sp, #52]	; 0x34
/mnt/disk/raspbian-tee/optee_os/lib/libutils/ext/snprintk.c:311
    1c90:	461a      	mov	r2, r3
/mnt/disk/raspbian-tee/optee_os/lib/libutils/ext/snprintk.c:316
    1c92:	f046 0604 	orr.w	r6, r6, #4
    1c96:	e6fb      	b.n	1a90 <__vsnprintf+0xf0>
/mnt/disk/raspbian-tee/optee_os/lib/libutils/ext/snprintk.c:322
    1c98:	990b      	ldr	r1, [sp, #44]	; 0x2c
    1c9a:	9b0b      	ldr	r3, [sp, #44]	; 0x2c
    1c9c:	f891 9000 	ldrb.w	r9, [r1]
    1ca0:	3301      	adds	r3, #1
    1ca2:	f1b9 0f2a 	cmp.w	r9, #42	; 0x2a
    1ca6:	d00e      	beq.n	1cc6 <__vsnprintf+0x326>
    1ca8:	f04f 0b00 	mov.w	fp, #0
/mnt/disk/raspbian-tee/optee_os/lib/libutils/ext/snprintk.c:330
    1cac:	930b      	str	r3, [sp, #44]	; 0x2c
/mnt/disk/raspbian-tee/optee_os/lib/libutils/ext/snprintk.c:328
    1cae:	f1a9 0330 	sub.w	r3, r9, #48	; 0x30
    1cb2:	2b09      	cmp	r3, #9
    1cb4:	f63f aebc 	bhi.w	1a30 <__vsnprintf+0x90>
/mnt/disk/raspbian-tee/optee_os/lib/libutils/ext/snprintk.c:329
    1cb8:	210a      	movs	r1, #10
    1cba:	fb01 3b0b 	mla	fp, r1, fp, r3
/mnt/disk/raspbian-tee/optee_os/lib/libutils/ext/snprintk.c:330
    1cbe:	9b0b      	ldr	r3, [sp, #44]	; 0x2c
    1cc0:	f813 9b01 	ldrb.w	r9, [r3], #1
    1cc4:	e7f2      	b.n	1cac <__vsnprintf+0x30c>
/mnt/disk/raspbian-tee/optee_os/lib/libutils/ext/snprintk.c:324
    1cc6:	6811      	ldr	r1, [r2, #0]
/mnt/disk/raspbian-tee/optee_os/lib/libutils/ext/snprintk.c:323
    1cc8:	3204      	adds	r2, #4
/mnt/disk/raspbian-tee/optee_os/lib/libutils/ext/snprintk.c:322
    1cca:	930b      	str	r3, [sp, #44]	; 0x2c
/mnt/disk/raspbian-tee/optee_os/lib/libutils/ext/snprintk.c:324
    1ccc:	ea41 7be1 	orr.w	fp, r1, r1, asr #31
    1cd0:	e6de      	b.n	1a90 <__vsnprintf+0xf0>
/mnt/disk/raspbian-tee/optee_os/lib/libutils/ext/snprintk.c:340
    1cd2:	f446 6680 	orr.w	r6, r6, #1024	; 0x400
    1cd6:	e6db      	b.n	1a90 <__vsnprintf+0xf0>
/mnt/disk/raspbian-tee/optee_os/lib/libutils/ext/snprintk.c:358
    1cd8:	9b0b      	ldr	r3, [sp, #44]	; 0x2c
    1cda:	781b      	ldrb	r3, [r3, #0]
    1cdc:	2b6c      	cmp	r3, #108	; 0x6c
    1cde:	d105      	bne.n	1cec <__vsnprintf+0x34c>
/mnt/disk/raspbian-tee/optee_os/lib/libutils/ext/snprintk.c:359
    1ce0:	9b0b      	ldr	r3, [sp, #44]	; 0x2c
    1ce2:	3301      	adds	r3, #1
    1ce4:	930b      	str	r3, [sp, #44]	; 0x2c
/mnt/disk/raspbian-tee/optee_os/lib/libutils/ext/snprintk.c:366
    1ce6:	f046 0620 	orr.w	r6, r6, #32
    1cea:	e6d1      	b.n	1a90 <__vsnprintf+0xf0>
/mnt/disk/raspbian-tee/optee_os/lib/libutils/ext/snprintk.c:362
    1cec:	f046 0610 	orr.w	r6, r6, #16
    1cf0:	e6ce      	b.n	1a90 <__vsnprintf+0xf0>
/mnt/disk/raspbian-tee/optee_os/lib/libutils/ext/snprintk.c:369
    1cf2:	f446 7680 	orr.w	r6, r6, #256	; 0x100
    1cf6:	e6cb      	b.n	1a90 <__vsnprintf+0xf0>
/mnt/disk/raspbian-tee/optee_os/lib/libutils/ext/snprintk.c:372
    1cf8:	f446 7600 	orr.w	r6, r6, #512	; 0x200
    1cfc:	e6c8      	b.n	1a90 <__vsnprintf+0xf0>
/mnt/disk/raspbian-tee/optee_os/lib/libutils/ext/snprintk.c:375
    1cfe:	ab1e      	add	r3, sp, #120	; 0x78
/mnt/disk/raspbian-tee/optee_os/lib/libutils/ext/snprintk.c:285
    1d00:	f04f 0a00 	mov.w	sl, #0
/mnt/disk/raspbian-tee/optee_os/lib/libutils/ext/snprintk.c:375
    1d04:	1d17      	adds	r7, r2, #4
/mnt/disk/raspbian-tee/optee_os/lib/libutils/ext/snprintk.c:376
    1d06:	f04f 0b01 	mov.w	fp, #1
/mnt/disk/raspbian-tee/optee_os/lib/libutils/ext/snprintk.c:375
    1d0a:	6812      	ldr	r2, [r2, #0]
/mnt/disk/raspbian-tee/optee_os/lib/libutils/ext/snprintk.c:377
    1d0c:	4650      	mov	r0, sl
/mnt/disk/raspbian-tee/optee_os/lib/libutils/ext/snprintk.c:375
    1d0e:	f803 2d28 	strb.w	r2, [r3, #-40]!
/mnt/disk/raspbian-tee/optee_os/lib/libutils/ext/snprintk.c:565
    1d12:	4558      	cmp	r0, fp
    1d14:	4602      	mov	r2, r0
    1d16:	bfb8      	it	lt
    1d18:	465a      	movlt	r2, fp
/mnt/disk/raspbian-tee/optee_os/lib/libutils/ext/snprintk.c:566
    1d1a:	f1ba 0f00 	cmp.w	sl, #0
    1d1e:	f000 8165 	beq.w	1fec <__vsnprintf+0x64c>
/mnt/disk/raspbian-tee/optee_os/lib/libutils/ext/snprintk.c:567
    1d22:	3201      	adds	r2, #1
/mnt/disk/raspbian-tee/optee_os/lib/libutils/ext/snprintk.c:572
    1d24:	990d      	ldr	r1, [sp, #52]	; 0x34
    1d26:	9c0c      	ldr	r4, [sp, #48]	; 0x30
    1d28:	4291      	cmp	r1, r2
    1d2a:	bfb8      	it	lt
    1d2c:	4611      	movlt	r1, r2
    1d2e:	440c      	add	r4, r1
/mnt/disk/raspbian-tee/optee_os/lib/libutils/ext/snprintk.c:575
    1d30:	f240 4104 	movw	r1, #1028	; 0x404
/mnt/disk/raspbian-tee/optee_os/lib/libutils/ext/snprintk.c:572
    1d34:	940c      	str	r4, [sp, #48]	; 0x30
/mnt/disk/raspbian-tee/optee_os/lib/libutils/ext/snprintk.c:575
    1d36:	ea16 0401 	ands.w	r4, r6, r1
    1d3a:	d106      	bne.n	1d4a <__vsnprintf+0x3aa>
/mnt/disk/raspbian-tee/optee_os/lib/libutils/ext/snprintk.c:576
    1d3c:	990d      	ldr	r1, [sp, #52]	; 0x34
/mnt/disk/raspbian-tee/optee_os/lib/libutils/ext/snprintk.c:578
    1d3e:	f04f 0c20 	mov.w	ip, #32
/mnt/disk/raspbian-tee/optee_os/lib/libutils/ext/snprintk.c:576
    1d42:	1a89      	subs	r1, r1, r2
/mnt/disk/raspbian-tee/optee_os/lib/libutils/ext/snprintk.c:577
    1d44:	2900      	cmp	r1, #0
    1d46:	f300 8155 	bgt.w	1ff4 <__vsnprintf+0x654>
/mnt/disk/raspbian-tee/optee_os/lib/libutils/ext/snprintk.c:582
    1d4a:	f1ba 0f00 	cmp.w	sl, #0
    1d4e:	f000 8166 	beq.w	201e <__vsnprintf+0x67e>
/mnt/disk/raspbian-tee/optee_os/lib/libutils/ext/snprintk.c:583
    1d52:	f1b8 0f00 	cmp.w	r8, #0
    1d56:	f040 8159 	bne.w	200c <__vsnprintf+0x66c>
/mnt/disk/raspbian-tee/optee_os/lib/libutils/ext/snprintk.c:586
    1d5a:	f04f 0800 	mov.w	r8, #0
/mnt/disk/raspbian-tee/optee_os/lib/libutils/ext/snprintk.c:590
    1d5e:	f5b4 6f80 	cmp.w	r4, #1024	; 0x400
    1d62:	d105      	bne.n	1d70 <__vsnprintf+0x3d0>
/mnt/disk/raspbian-tee/optee_os/lib/libutils/ext/snprintk.c:591
    1d64:	990d      	ldr	r1, [sp, #52]	; 0x34
/mnt/disk/raspbian-tee/optee_os/lib/libutils/ext/snprintk.c:593
    1d66:	2430      	movs	r4, #48	; 0x30
/mnt/disk/raspbian-tee/optee_os/lib/libutils/ext/snprintk.c:591
    1d68:	1a89      	subs	r1, r1, r2
/mnt/disk/raspbian-tee/optee_os/lib/libutils/ext/snprintk.c:592
    1d6a:	2900      	cmp	r1, #0
    1d6c:	f300 8173 	bgt.w	2056 <__vsnprintf+0x6b6>
/mnt/disk/raspbian-tee/optee_os/lib/libutils/ext/snprintk.c:597
    1d70:	eba0 000b 	sub.w	r0, r0, fp
/mnt/disk/raspbian-tee/optee_os/lib/libutils/ext/snprintk.c:599
    1d74:	2130      	movs	r1, #48	; 0x30
/mnt/disk/raspbian-tee/optee_os/lib/libutils/ext/snprintk.c:598
    1d76:	2800      	cmp	r0, #0
    1d78:	f300 8179 	bgt.w	206e <__vsnprintf+0x6ce>
    1d7c:	eb03 010b 	add.w	r1, r3, fp
/mnt/disk/raspbian-tee/optee_os/lib/libutils/ext/snprintk.c:602
    1d80:	428b      	cmp	r3, r1
    1d82:	f040 8180 	bne.w	2086 <__vsnprintf+0x6e6>
/mnt/disk/raspbian-tee/optee_os/lib/libutils/ext/snprintk.c:605
    1d86:	0773      	lsls	r3, r6, #29
    1d88:	f57f ae1b 	bpl.w	19c2 <__vsnprintf+0x22>
/mnt/disk/raspbian-tee/optee_os/lib/libutils/ext/snprintk.c:606
    1d8c:	9b0d      	ldr	r3, [sp, #52]	; 0x34
    1d8e:	1a9b      	subs	r3, r3, r2
/mnt/disk/raspbian-tee/optee_os/lib/libutils/ext/snprintk.c:608
    1d90:	2220      	movs	r2, #32
/mnt/disk/raspbian-tee/optee_os/lib/libutils/ext/snprintk.c:607
    1d92:	2b00      	cmp	r3, #0
    1d94:	f77f ae15 	ble.w	19c2 <__vsnprintf+0x22>
/mnt/disk/raspbian-tee/optee_os/lib/libutils/ext/snprintk.c:608
    1d98:	f1b8 0f00 	cmp.w	r8, #0
    1d9c:	d006      	beq.n	1dac <__vsnprintf+0x40c>
    1d9e:	990e      	ldr	r1, [sp, #56]	; 0x38
    1da0:	4541      	cmp	r1, r8
    1da2:	d903      	bls.n	1dac <__vsnprintf+0x40c>
    1da4:	f888 2000 	strb.w	r2, [r8]
    1da8:	f108 0801 	add.w	r8, r8, #1
    1dac:	3b01      	subs	r3, #1
    1dae:	e7f0      	b.n	1d92 <__vsnprintf+0x3f2>
/mnt/disk/raspbian-tee/optee_os/lib/libutils/ext/snprintk.c:380
    1db0:	f046 0610 	orr.w	r6, r6, #16
/mnt/disk/raspbian-tee/optee_os/lib/libutils/ext/snprintk.c:384
    1db4:	0631      	lsls	r1, r6, #24
    1db6:	d523      	bpl.n	1e00 <__vsnprintf+0x460>
    1db8:	3207      	adds	r2, #7
    1dba:	f022 0207 	bic.w	r2, r2, #7
    1dbe:	f102 0708 	add.w	r7, r2, #8
    1dc2:	e9d2 4500 	ldrd	r4, r5, [r2]
/mnt/disk/raspbian-tee/optee_os/lib/libutils/ext/snprintk.c:385
    1dc6:	2c00      	cmp	r4, #0
    1dc8:	f175 0300 	sbcs.w	r3, r5, #0
    1dcc:	da04      	bge.n	1dd8 <__vsnprintf+0x438>
/mnt/disk/raspbian-tee/optee_os/lib/libutils/ext/snprintk.c:386
    1dce:	4264      	negs	r4, r4
/mnt/disk/raspbian-tee/optee_os/lib/libutils/ext/snprintk.c:387
    1dd0:	f04f 0a2d 	mov.w	sl, #45	; 0x2d
/mnt/disk/raspbian-tee/optee_os/lib/libutils/ext/snprintk.c:386
    1dd4:	eb65 0545 	sbc.w	r5, r5, r5, lsl #1
/mnt/disk/raspbian-tee/optee_os/lib/libutils/ext/snprintk.c:488
    1dd8:	f1bb 3fff 	cmp.w	fp, #4294967295	; 0xffffffff
    1ddc:	f040 80ec 	bne.w	1fb8 <__vsnprintf+0x618>
/mnt/disk/raspbian-tee/optee_os/lib/libutils/ext/snprintk.c:508
    1de0:	f10d 0375 	add.w	r3, sp, #117	; 0x75
    1de4:	9311      	str	r3, [sp, #68]	; 0x44
    1de6:	9b11      	ldr	r3, [sp, #68]	; 0x44
/mnt/disk/raspbian-tee/optee_os/lib/libutils/ext/snprintk.c:516
    1de8:	2d00      	cmp	r5, #0
    1dea:	bf08      	it	eq
    1dec:	2c0a      	cmpeq	r4, #10
    1dee:	f103 33ff 	add.w	r3, r3, #4294967295	; 0xffffffff
    1df2:	f080 80e5 	bcs.w	1fc0 <__vsnprintf+0x620>
/mnt/disk/raspbian-tee/optee_os/lib/libutils/ext/snprintk.c:520
    1df6:	9a11      	ldr	r2, [sp, #68]	; 0x44
    1df8:	3430      	adds	r4, #48	; 0x30
    1dfa:	f802 4c01 	strb.w	r4, [r2, #-1]
    1dfe:	e6ac      	b.n	1b5a <__vsnprintf+0x1ba>
/mnt/disk/raspbian-tee/optee_os/lib/libutils/ext/snprintk.c:384
    1e00:	05f3      	lsls	r3, r6, #23
    1e02:	d503      	bpl.n	1e0c <__vsnprintf+0x46c>
    1e04:	1d17      	adds	r7, r2, #4
    1e06:	6814      	ldr	r4, [r2, #0]
    1e08:	17e5      	asrs	r5, r4, #31
    1e0a:	e7dc      	b.n	1dc6 <__vsnprintf+0x426>
    1e0c:	05b7      	lsls	r7, r6, #22
    1e0e:	d4f9      	bmi.n	1e04 <__vsnprintf+0x464>
    1e10:	06b5      	lsls	r5, r6, #26
    1e12:	d4d1      	bmi.n	1db8 <__vsnprintf+0x418>
    1e14:	f016 0f10 	tst.w	r6, #16
    1e18:	f102 0704 	add.w	r7, r2, #4
    1e1c:	d1f3      	bne.n	1e06 <__vsnprintf+0x466>
    1e1e:	f016 0f40 	tst.w	r6, #64	; 0x40
    1e22:	6814      	ldr	r4, [r2, #0]
    1e24:	d0f0      	beq.n	1e08 <__vsnprintf+0x468>
    1e26:	b224      	sxth	r4, r4
    1e28:	e7ee      	b.n	1e08 <__vsnprintf+0x468>
/mnt/disk/raspbian-tee/optee_os/lib/libutils/ext/snprintk.c:392
    1e2a:	f016 0f80 	tst.w	r6, #128	; 0x80
    1e2e:	f102 0704 	add.w	r7, r2, #4
    1e32:	d006      	beq.n	1e42 <__vsnprintf+0x4a2>
/mnt/disk/raspbian-tee/optee_os/lib/libutils/ext/snprintk.c:399
    1e34:	6813      	ldr	r3, [r2, #0]
    1e36:	9a0c      	ldr	r2, [sp, #48]	; 0x30
    1e38:	4610      	mov	r0, r2
    1e3a:	17d1      	asrs	r1, r2, #31
    1e3c:	e9c3 0100 	strd	r0, r1, [r3]
    1e40:	e5bf      	b.n	19c2 <__vsnprintf+0x22>
/mnt/disk/raspbian-tee/optee_os/lib/libutils/ext/snprintk.c:394
    1e42:	05f4      	lsls	r4, r6, #23
    1e44:	d503      	bpl.n	1e4e <__vsnprintf+0x4ae>
/mnt/disk/raspbian-tee/optee_os/lib/libutils/ext/snprintk.c:405
    1e46:	6813      	ldr	r3, [r2, #0]
    1e48:	9a0c      	ldr	r2, [sp, #48]	; 0x30
    1e4a:	601a      	str	r2, [r3, #0]
    1e4c:	e5b9      	b.n	19c2 <__vsnprintf+0x22>
/mnt/disk/raspbian-tee/optee_os/lib/libutils/ext/snprintk.c:396
    1e4e:	05b0      	lsls	r0, r6, #22
    1e50:	d4f9      	bmi.n	1e46 <__vsnprintf+0x4a6>
/mnt/disk/raspbian-tee/optee_os/lib/libutils/ext/snprintk.c:398
    1e52:	06b1      	lsls	r1, r6, #26
    1e54:	d4ee      	bmi.n	1e34 <__vsnprintf+0x494>
/mnt/disk/raspbian-tee/optee_os/lib/libutils/ext/snprintk.c:400
    1e56:	06f3      	lsls	r3, r6, #27
    1e58:	d4f5      	bmi.n	1e46 <__vsnprintf+0x4a6>
/mnt/disk/raspbian-tee/optee_os/lib/libutils/ext/snprintk.c:402
    1e5a:	0676      	lsls	r6, r6, #25
    1e5c:	d5f3      	bpl.n	1e46 <__vsnprintf+0x4a6>
/mnt/disk/raspbian-tee/optee_os/lib/libutils/ext/snprintk.c:403
    1e5e:	6813      	ldr	r3, [r2, #0]
    1e60:	f8bd 2030 	ldrh.w	r2, [sp, #48]	; 0x30
    1e64:	801a      	strh	r2, [r3, #0]
    1e66:	e5ac      	b.n	19c2 <__vsnprintf+0x22>
/mnt/disk/raspbian-tee/optee_os/lib/libutils/ext/snprintk.c:411
    1e68:	05f4      	lsls	r4, r6, #23
    1e6a:	d502      	bpl.n	1e72 <__vsnprintf+0x4d2>
    1e6c:	1d17      	adds	r7, r2, #4
    1e6e:	6814      	ldr	r4, [r2, #0]
    1e70:	e00c      	b.n	1e8c <__vsnprintf+0x4ec>
    1e72:	05b0      	lsls	r0, r6, #22
    1e74:	d4fa      	bmi.n	1e6c <__vsnprintf+0x4cc>
    1e76:	06b1      	lsls	r1, r6, #26
    1e78:	f53f ae36 	bmi.w	1ae8 <__vsnprintf+0x148>
    1e7c:	f016 0f10 	tst.w	r6, #16
    1e80:	f102 0704 	add.w	r7, r2, #4
    1e84:	d1f3      	bne.n	1e6e <__vsnprintf+0x4ce>
    1e86:	0673      	lsls	r3, r6, #25
    1e88:	d5f1      	bpl.n	1e6e <__vsnprintf+0x4ce>
    1e8a:	8814      	ldrh	r4, [r2, #0]
    1e8c:	2500      	movs	r5, #0
    1e8e:	e632      	b.n	1af6 <__vsnprintf+0x156>
/mnt/disk/raspbian-tee/optee_os/lib/libutils/ext/snprintk.c:415
    1e90:	9b13      	ldr	r3, [sp, #76]	; 0x4c
    1e92:	2b00      	cmp	r3, #0
    1e94:	d02d      	beq.n	1ef2 <__vsnprintf+0x552>
    1e96:	9b0b      	ldr	r3, [sp, #44]	; 0x2c
    1e98:	781b      	ldrb	r3, [r3, #0]
    1e9a:	2b55      	cmp	r3, #85	; 0x55
    1e9c:	d129      	bne.n	1ef2 <__vsnprintf+0x552>
    1e9e:	9b0b      	ldr	r3, [sp, #44]	; 0x2c
    1ea0:	785b      	ldrb	r3, [r3, #1]
    1ea2:	2b6c      	cmp	r3, #108	; 0x6c
    1ea4:	d125      	bne.n	1ef2 <__vsnprintf+0x552>
/mnt/disk/raspbian-tee/optee_os/lib/libutils/ext/snprintk.c:420
    1ea6:	9b0b      	ldr	r3, [sp, #44]	; 0x2c
/mnt/disk/raspbian-tee/optee_os/lib/libutils/ext/snprintk.c:421
    1ea8:	1d17      	adds	r7, r2, #4
uuid2str():
/mnt/disk/raspbian-tee/optee_os/lib/libutils/ext/snprintk.c:223
    1eaa:	ac14      	add	r4, sp, #80	; 0x50
    1eac:	2125      	movs	r1, #37	; 0x25
kprintf():
/mnt/disk/raspbian-tee/optee_os/lib/libutils/ext/snprintk.c:420
    1eae:	3302      	adds	r3, #2
    1eb0:	930b      	str	r3, [sp, #44]	; 0x2c
/mnt/disk/raspbian-tee/optee_os/lib/libutils/ext/snprintk.c:421
    1eb2:	6813      	ldr	r3, [r2, #0]
uuid2str():
/mnt/disk/raspbian-tee/optee_os/lib/libutils/ext/snprintk.c:223
    1eb4:	4620      	mov	r0, r4
    1eb6:	7bda      	ldrb	r2, [r3, #15]
    1eb8:	9209      	str	r2, [sp, #36]	; 0x24
    1eba:	7b9a      	ldrb	r2, [r3, #14]
    1ebc:	9208      	str	r2, [sp, #32]
    1ebe:	7b5a      	ldrb	r2, [r3, #13]
    1ec0:	9207      	str	r2, [sp, #28]
    1ec2:	7b1a      	ldrb	r2, [r3, #12]
    1ec4:	9206      	str	r2, [sp, #24]
    1ec6:	7ada      	ldrb	r2, [r3, #11]
    1ec8:	9205      	str	r2, [sp, #20]
    1eca:	7a9a      	ldrb	r2, [r3, #10]
    1ecc:	9204      	str	r2, [sp, #16]
    1ece:	7a5a      	ldrb	r2, [r3, #9]
    1ed0:	9203      	str	r2, [sp, #12]
    1ed2:	7a1a      	ldrb	r2, [r3, #8]
    1ed4:	9202      	str	r2, [sp, #8]
    1ed6:	88da      	ldrh	r2, [r3, #6]
    1ed8:	9201      	str	r2, [sp, #4]
    1eda:	889a      	ldrh	r2, [r3, #4]
    1edc:	9200      	str	r2, [sp, #0]
    1ede:	4a7a      	ldr	r2, [pc, #488]	; (20c8 <__vsnprintf+0x728>)
    1ee0:	681b      	ldr	r3, [r3, #0]
    1ee2:	447a      	add	r2, pc
    1ee4:	f000 f8fd 	bl	20e2 <snprintk>
    1ee8:	4683      	mov	fp, r0
kprintf():
/mnt/disk/raspbian-tee/optee_os/lib/libutils/ext/snprintk.c:285
    1eea:	2000      	movs	r0, #0
/mnt/disk/raspbian-tee/optee_os/lib/libutils/ext/snprintk.c:423
    1eec:	4623      	mov	r3, r4
/mnt/disk/raspbian-tee/optee_os/lib/libutils/ext/snprintk.c:424
    1eee:	4682      	mov	sl, r0
    1ef0:	e70f      	b.n	1d12 <__vsnprintf+0x372>
/mnt/disk/raspbian-tee/optee_os/lib/libutils/ext/snprintk.c:437
    1ef2:	4b76      	ldr	r3, [pc, #472]	; (20cc <__vsnprintf+0x72c>)
/mnt/disk/raspbian-tee/optee_os/lib/libutils/ext/snprintk.c:435
    1ef4:	1d17      	adds	r7, r2, #4
    1ef6:	6814      	ldr	r4, [r2, #0]
    1ef8:	2500      	movs	r5, #0
/mnt/disk/raspbian-tee/optee_os/lib/libutils/ext/snprintk.c:437
    1efa:	447b      	add	r3, pc
/mnt/disk/raspbian-tee/optee_os/lib/libutils/ext/snprintk.c:438
    1efc:	f046 0602 	orr.w	r6, r6, #2
/mnt/disk/raspbian-tee/optee_os/lib/libutils/ext/snprintk.c:439
    1f00:	f04f 0978 	mov.w	r9, #120	; 0x78
/mnt/disk/raspbian-tee/optee_os/lib/libutils/ext/snprintk.c:437
    1f04:	3311      	adds	r3, #17
    1f06:	930f      	str	r3, [sp, #60]	; 0x3c
/mnt/disk/raspbian-tee/optee_os/lib/libutils/ext/snprintk.c:488
    1f08:	f1bb 3fff 	cmp.w	fp, #4294967295	; 0xffffffff
    1f0c:	f47f aeaa 	bne.w	1c64 <__vsnprintf+0x2c4>
    1f10:	f04f 0a00 	mov.w	sl, #0
    1f14:	f10d 0375 	add.w	r3, sp, #117	; 0x75
/mnt/disk/raspbian-tee/optee_os/lib/libutils/ext/snprintk.c:525
    1f18:	f004 020f 	and.w	r2, r4, #15
    1f1c:	990f      	ldr	r1, [sp, #60]	; 0x3c
    1f1e:	5c8a      	ldrb	r2, [r1, r2]
/mnt/disk/raspbian-tee/optee_os/lib/libutils/ext/snprintk.c:526
    1f20:	0929      	lsrs	r1, r5, #4
/mnt/disk/raspbian-tee/optee_os/lib/libutils/ext/snprintk.c:525
    1f22:	f803 2d01 	strb.w	r2, [r3, #-1]!
/mnt/disk/raspbian-tee/optee_os/lib/libutils/ext/snprintk.c:526
    1f26:	0922      	lsrs	r2, r4, #4
    1f28:	ea42 7205 	orr.w	r2, r2, r5, lsl #28
    1f2c:	460d      	mov	r5, r1
    1f2e:	4614      	mov	r4, r2
/mnt/disk/raspbian-tee/optee_os/lib/libutils/ext/snprintk.c:527
    1f30:	ea54 0205 	orrs.w	r2, r4, r5
    1f34:	d1f0      	bne.n	1f18 <__vsnprintf+0x578>
    1f36:	e610      	b.n	1b5a <__vsnprintf+0x1ba>
/mnt/disk/raspbian-tee/optee_os/lib/libutils/ext/snprintk.c:460
    1f38:	4618      	mov	r0, r3
    1f3a:	9311      	str	r3, [sp, #68]	; 0x44
    1f3c:	f006 ff89 	bl	8e52 <strlen>
    1f40:	4683      	mov	fp, r0
/mnt/disk/raspbian-tee/optee_os/lib/libutils/ext/snprintk.c:285
    1f42:	2000      	movs	r0, #0
    1f44:	9b11      	ldr	r3, [sp, #68]	; 0x44
/mnt/disk/raspbian-tee/optee_os/lib/libutils/ext/snprintk.c:461
    1f46:	4682      	mov	sl, r0
    1f48:	e6e3      	b.n	1d12 <__vsnprintf+0x372>
/mnt/disk/raspbian-tee/optee_os/lib/libutils/ext/snprintk.c:464
    1f4a:	f046 0610 	orr.w	r6, r6, #16
    1f4e:	e660      	b.n	1c12 <__vsnprintf+0x272>
/mnt/disk/raspbian-tee/optee_os/lib/libutils/ext/snprintk.c:467
    1f50:	f416 7a80 	ands.w	sl, r6, #256	; 0x100
    1f54:	d003      	beq.n	1f5e <__vsnprintf+0x5be>
    1f56:	6814      	ldr	r4, [r2, #0]
    1f58:	1d17      	adds	r7, r2, #4
    1f5a:	2500      	movs	r5, #0
    1f5c:	e664      	b.n	1c28 <__vsnprintf+0x288>
    1f5e:	f416 7300 	ands.w	r3, r6, #512	; 0x200
    1f62:	d003      	beq.n	1f6c <__vsnprintf+0x5cc>
    1f64:	1d17      	adds	r7, r2, #4
    1f66:	6814      	ldr	r4, [r2, #0]
    1f68:	2500      	movs	r5, #0
    1f6a:	e735      	b.n	1dd8 <__vsnprintf+0x438>
    1f6c:	f016 0a20 	ands.w	sl, r6, #32
    1f70:	f47f ae53 	bne.w	1c1a <__vsnprintf+0x27a>
    1f74:	f016 0310 	ands.w	r3, r6, #16
    1f78:	f102 0704 	add.w	r7, r2, #4
    1f7c:	d1f3      	bne.n	1f66 <__vsnprintf+0x5c6>
    1f7e:	f016 0a40 	ands.w	sl, r6, #64	; 0x40
    1f82:	d0f0      	beq.n	1f66 <__vsnprintf+0x5c6>
    1f84:	8814      	ldrh	r4, [r2, #0]
    1f86:	e7e8      	b.n	1f5a <__vsnprintf+0x5ba>
/mnt/disk/raspbian-tee/optee_os/lib/libutils/ext/snprintk.c:474
    1f88:	4b51      	ldr	r3, [pc, #324]	; (20d0 <__vsnprintf+0x730>)
    1f8a:	447b      	add	r3, pc
    1f8c:	3311      	adds	r3, #17
    1f8e:	e651      	b.n	1c34 <__vsnprintf+0x294>
/mnt/disk/raspbian-tee/optee_os/lib/libutils/ext/snprintk.c:475
    1f90:	05f5      	lsls	r5, r6, #23
    1f92:	d502      	bpl.n	1f9a <__vsnprintf+0x5fa>
    1f94:	1d17      	adds	r7, r2, #4
    1f96:	6814      	ldr	r4, [r2, #0]
    1f98:	e00c      	b.n	1fb4 <__vsnprintf+0x614>
    1f9a:	05b4      	lsls	r4, r6, #22
    1f9c:	d4fa      	bmi.n	1f94 <__vsnprintf+0x5f4>
    1f9e:	06b0      	lsls	r0, r6, #26
    1fa0:	f53f ae4c 	bmi.w	1c3c <__vsnprintf+0x29c>
    1fa4:	f016 0f10 	tst.w	r6, #16
    1fa8:	f102 0704 	add.w	r7, r2, #4
    1fac:	d1f3      	bne.n	1f96 <__vsnprintf+0x5f6>
    1fae:	0671      	lsls	r1, r6, #25
    1fb0:	d5f1      	bpl.n	1f96 <__vsnprintf+0x5f6>
    1fb2:	8814      	ldrh	r4, [r2, #0]
    1fb4:	2500      	movs	r5, #0
    1fb6:	e648      	b.n	1c4a <__vsnprintf+0x2aa>
/mnt/disk/raspbian-tee/optee_os/lib/libutils/ext/snprintk.c:488
    1fb8:	2301      	movs	r3, #1
    1fba:	e5a2      	b.n	1b02 <__vsnprintf+0x162>
/mnt/disk/raspbian-tee/optee_os/lib/libutils/ext/snprintk.c:508
    1fbc:	461a      	mov	r2, r3
    1fbe:	e5b3      	b.n	1b28 <__vsnprintf+0x188>
/mnt/disk/raspbian-tee/optee_os/lib/libutils/ext/snprintk.c:517
    1fc0:	9311      	str	r3, [sp, #68]	; 0x44
    1fc2:	4620      	mov	r0, r4
    1fc4:	4629      	mov	r1, r5
    1fc6:	220a      	movs	r2, #10
    1fc8:	2300      	movs	r3, #0
    1fca:	f000 e8a4 	blx	2114 <__aeabi_uldivmod>
    1fce:	9b11      	ldr	r3, [sp, #68]	; 0x44
    1fd0:	3230      	adds	r2, #48	; 0x30
/mnt/disk/raspbian-tee/optee_os/lib/libutils/ext/snprintk.c:518
    1fd2:	4620      	mov	r0, r4
    1fd4:	4629      	mov	r1, r5
/mnt/disk/raspbian-tee/optee_os/lib/libutils/ext/snprintk.c:517
    1fd6:	701a      	strb	r2, [r3, #0]
/mnt/disk/raspbian-tee/optee_os/lib/libutils/ext/snprintk.c:518
    1fd8:	220a      	movs	r2, #10
    1fda:	2300      	movs	r3, #0
    1fdc:	f000 e89a 	blx	2114 <__aeabi_uldivmod>
    1fe0:	4604      	mov	r4, r0
    1fe2:	460d      	mov	r5, r1
    1fe4:	e6ff      	b.n	1de6 <__vsnprintf+0x446>
/mnt/disk/raspbian-tee/optee_os/lib/libutils/ext/snprintk.c:496
    1fe6:	f10d 0375 	add.w	r3, sp, #117	; 0x75
    1fea:	e5b6      	b.n	1b5a <__vsnprintf+0x1ba>
/mnt/disk/raspbian-tee/optee_os/lib/libutils/ext/snprintk.c:568
    1fec:	07b4      	lsls	r4, r6, #30
/mnt/disk/raspbian-tee/optee_os/lib/libutils/ext/snprintk.c:569
    1fee:	bf48      	it	mi
    1ff0:	3202      	addmi	r2, #2
    1ff2:	e697      	b.n	1d24 <__vsnprintf+0x384>
/mnt/disk/raspbian-tee/optee_os/lib/libutils/ext/snprintk.c:578
    1ff4:	f1b8 0f00 	cmp.w	r8, #0
    1ff8:	d006      	beq.n	2008 <__vsnprintf+0x668>
    1ffa:	9d0e      	ldr	r5, [sp, #56]	; 0x38
    1ffc:	4545      	cmp	r5, r8
    1ffe:	d903      	bls.n	2008 <__vsnprintf+0x668>
    2000:	f888 c000 	strb.w	ip, [r8]
    2004:	f108 0801 	add.w	r8, r8, #1
    2008:	3901      	subs	r1, #1
    200a:	e69b      	b.n	1d44 <__vsnprintf+0x3a4>
/mnt/disk/raspbian-tee/optee_os/lib/libutils/ext/snprintk.c:583
    200c:	990e      	ldr	r1, [sp, #56]	; 0x38
    200e:	4541      	cmp	r1, r8
    2010:	f67f aea5 	bls.w	1d5e <__vsnprintf+0x3be>
    2014:	f888 a000 	strb.w	sl, [r8]
    2018:	f108 0801 	add.w	r8, r8, #1
    201c:	e69f      	b.n	1d5e <__vsnprintf+0x3be>
/mnt/disk/raspbian-tee/optee_os/lib/libutils/ext/snprintk.c:584
    201e:	07b1      	lsls	r1, r6, #30
    2020:	f57f ae9d 	bpl.w	1d5e <__vsnprintf+0x3be>
/mnt/disk/raspbian-tee/optee_os/lib/libutils/ext/snprintk.c:585
    2024:	f1b8 0f00 	cmp.w	r8, #0
    2028:	f43f ae97 	beq.w	1d5a <__vsnprintf+0x3ba>
    202c:	990e      	ldr	r1, [sp, #56]	; 0x38
    202e:	4541      	cmp	r1, r8
    2030:	f67f ae95 	bls.w	1d5e <__vsnprintf+0x3be>
    2034:	2130      	movs	r1, #48	; 0x30
    2036:	f888 1000 	strb.w	r1, [r8]
/mnt/disk/raspbian-tee/optee_os/lib/libutils/ext/snprintk.c:586
    203a:	f118 0101 	adds.w	r1, r8, #1
    203e:	f43f ae8c 	beq.w	1d5a <__vsnprintf+0x3ba>
    2042:	9d0e      	ldr	r5, [sp, #56]	; 0x38
    2044:	428d      	cmp	r5, r1
    2046:	d904      	bls.n	2052 <__vsnprintf+0x6b2>
    2048:	f888 9001 	strb.w	r9, [r8, #1]
    204c:	f108 0802 	add.w	r8, r8, #2
    2050:	e685      	b.n	1d5e <__vsnprintf+0x3be>
    2052:	4688      	mov	r8, r1
    2054:	e683      	b.n	1d5e <__vsnprintf+0x3be>
/mnt/disk/raspbian-tee/optee_os/lib/libutils/ext/snprintk.c:593
    2056:	f1b8 0f00 	cmp.w	r8, #0
    205a:	d006      	beq.n	206a <__vsnprintf+0x6ca>
    205c:	9d0e      	ldr	r5, [sp, #56]	; 0x38
    205e:	4545      	cmp	r5, r8
    2060:	d903      	bls.n	206a <__vsnprintf+0x6ca>
    2062:	f888 4000 	strb.w	r4, [r8]
    2066:	f108 0801 	add.w	r8, r8, #1
    206a:	3901      	subs	r1, #1
    206c:	e67d      	b.n	1d6a <__vsnprintf+0x3ca>
/mnt/disk/raspbian-tee/optee_os/lib/libutils/ext/snprintk.c:599
    206e:	f1b8 0f00 	cmp.w	r8, #0
    2072:	d006      	beq.n	2082 <__vsnprintf+0x6e2>
    2074:	9c0e      	ldr	r4, [sp, #56]	; 0x38
    2076:	4544      	cmp	r4, r8
    2078:	d903      	bls.n	2082 <__vsnprintf+0x6e2>
    207a:	f888 1000 	strb.w	r1, [r8]
    207e:	f108 0801 	add.w	r8, r8, #1
    2082:	3801      	subs	r0, #1
    2084:	e677      	b.n	1d76 <__vsnprintf+0x3d6>
/mnt/disk/raspbian-tee/optee_os/lib/libutils/ext/snprintk.c:603
    2086:	f1b8 0f00 	cmp.w	r8, #0
    208a:	d007      	beq.n	209c <__vsnprintf+0x6fc>
    208c:	980e      	ldr	r0, [sp, #56]	; 0x38
    208e:	4540      	cmp	r0, r8
    2090:	d904      	bls.n	209c <__vsnprintf+0x6fc>
    2092:	7818      	ldrb	r0, [r3, #0]
    2094:	f108 0801 	add.w	r8, r8, #1
    2098:	f808 0c01 	strb.w	r0, [r8, #-1]
/mnt/disk/raspbian-tee/optee_os/lib/libutils/ext/snprintk.c:602
    209c:	3301      	adds	r3, #1
    209e:	e66f      	b.n	1d80 <__vsnprintf+0x3e0>
__vsnprintf():
/mnt/disk/raspbian-tee/optee_os/lib/libutils/ext/snprintk.c:148
    20a0:	990c      	ldr	r1, [sp, #48]	; 0x30
    20a2:	5453      	strb	r3, [r2, r1]
/mnt/disk/raspbian-tee/optee_os/lib/libutils/ext/snprintk.c:150
    20a4:	e4a1      	b.n	19ea <__vsnprintf+0x4a>
kprintf():
/mnt/disk/raspbian-tee/optee_os/lib/libutils/ext/snprintk.c:489
    20a6:	f426 6680 	bic.w	r6, r6, #1024	; 0x400
/mnt/disk/raspbian-tee/optee_os/lib/libutils/ext/snprintk.c:482
    20aa:	f04f 0a00 	mov.w	sl, #0
/mnt/disk/raspbian-tee/optee_os/lib/libutils/ext/snprintk.c:476
    20ae:	2302      	movs	r3, #2
    20b0:	e52c      	b.n	1b0c <__vsnprintf+0x16c>
/mnt/disk/raspbian-tee/optee_os/lib/libutils/ext/snprintk.c:488
    20b2:	f1bb 3fff 	cmp.w	fp, #4294967295	; 0xffffffff
    20b6:	d1f6      	bne.n	20a6 <__vsnprintf+0x706>
    20b8:	f04f 3bff 	mov.w	fp, #4294967295	; 0xffffffff
    20bc:	e728      	b.n	1f10 <__vsnprintf+0x570>
    20be:	bf00      	nop
    20c0:	0000820a 	.word	0x0000820a
    20c4:	0000818a 	.word	0x0000818a
    20c8:	00007f03 	.word	0x00007f03
    20cc:	00007ec2 	.word	0x00007ec2
    20d0:	00007e32 	.word	0x00007e32

000020d4 <vsnprintk>:
vsnprintk():
/mnt/disk/raspbian-tee/optee_os/lib/libutils/ext/snprintk.c:129
    20d4:	b513      	push	{r0, r1, r4, lr}
/mnt/disk/raspbian-tee/optee_os/lib/libutils/ext/snprintk.c:130
    20d6:	2401      	movs	r4, #1
    20d8:	9400      	str	r4, [sp, #0]
    20da:	f7ff fc61 	bl	19a0 <__vsnprintf>
/mnt/disk/raspbian-tee/optee_os/lib/libutils/ext/snprintk.c:131
    20de:	b002      	add	sp, #8
    20e0:	bd10      	pop	{r4, pc}

000020e2 <snprintk>:
snprintk():
/mnt/disk/raspbian-tee/optee_os/lib/libutils/ext/snprintk.c:112
    20e2:	b40c      	push	{r2, r3}
    20e4:	b507      	push	{r0, r1, r2, lr}
    20e6:	ab04      	add	r3, sp, #16
    20e8:	f853 2b04 	ldr.w	r2, [r3], #4
/mnt/disk/raspbian-tee/optee_os/lib/libutils/ext/snprintk.c:116
    20ec:	9301      	str	r3, [sp, #4]
/mnt/disk/raspbian-tee/optee_os/lib/libutils/ext/snprintk.c:117
    20ee:	f7ff fff1 	bl	20d4 <vsnprintk>
/mnt/disk/raspbian-tee/optee_os/lib/libutils/ext/snprintk.c:121
    20f2:	b003      	add	sp, #12
    20f4:	f85d eb04 	ldr.w	lr, [sp], #4
    20f8:	b002      	add	sp, #8
    20fa:	4770      	bx	lr

000020fc <__aeabi_ldivmod>:
__aeabi_ldivmod():
/mnt/disk/raspbian-tee/optee_os/lib/libutils/isoc/arch/arm/arm32_aeabi_ldivmod_a32.S:24
    20fc:	e92d5000 	push	{ip, lr}
/mnt/disk/raspbian-tee/optee_os/lib/libutils/isoc/arch/arm/arm32_aeabi_ldivmod_a32.S:26
    2100:	e92d000f 	push	{r0, r1, r2, r3}
/mnt/disk/raspbian-tee/optee_os/lib/libutils/isoc/arch/arm/arm32_aeabi_ldivmod_a32.S:28
    2104:	e1a0000d 	mov	r0, sp
/mnt/disk/raspbian-tee/optee_os/lib/libutils/isoc/arch/arm/arm32_aeabi_ldivmod_a32.S:29
    2108:	fb001b71 	blx	8ed6 <__l_divmod>
/mnt/disk/raspbian-tee/optee_os/lib/libutils/isoc/arch/arm/arm32_aeabi_ldivmod_a32.S:30
    210c:	e8bd000f 	pop	{r0, r1, r2, r3}
/mnt/disk/raspbian-tee/optee_os/lib/libutils/isoc/arch/arm/arm32_aeabi_ldivmod_a32.S:31
    2110:	e8bd9000 	pop	{ip, pc}

00002114 <__aeabi_uldivmod>:
__aeabi_uldivmod():
/mnt/disk/raspbian-tee/optee_os/lib/libutils/isoc/arch/arm/arm32_aeabi_ldivmod_a32.S:42
    2114:	e92d5000 	push	{ip, lr}
/mnt/disk/raspbian-tee/optee_os/lib/libutils/isoc/arch/arm/arm32_aeabi_ldivmod_a32.S:44
    2118:	e92d000f 	push	{r0, r1, r2, r3}
/mnt/disk/raspbian-tee/optee_os/lib/libutils/isoc/arch/arm/arm32_aeabi_ldivmod_a32.S:46
    211c:	e1a0000d 	mov	r0, sp
/mnt/disk/raspbian-tee/optee_os/lib/libutils/isoc/arch/arm/arm32_aeabi_ldivmod_a32.S:47
    2120:	fb001b4e 	blx	8e62 <__ul_divmod>
/mnt/disk/raspbian-tee/optee_os/lib/libutils/isoc/arch/arm/arm32_aeabi_ldivmod_a32.S:48
    2124:	e8bd000f 	pop	{r0, r1, r2, r3}
/mnt/disk/raspbian-tee/optee_os/lib/libutils/isoc/arch/arm/arm32_aeabi_ldivmod_a32.S:49
    2128:	e8bd9000 	pop	{ip, pc}

0000212c <trace_ext_puts>:
trace_ext_puts():
/mnt/disk/raspbian-tee/optee_os/lib/libutee/trace_ext.c:17
    212c:	b510      	push	{r4, lr}
    212e:	4604      	mov	r4, r0
/mnt/disk/raspbian-tee/optee_os/lib/libutee/trace_ext.c:18
    2130:	f006 fe8f 	bl	8e52 <strlen>
    2134:	4601      	mov	r1, r0
    2136:	4620      	mov	r0, r4
/mnt/disk/raspbian-tee/optee_os/lib/libutee/trace_ext.c:19
    2138:	e8bd 4010 	ldmia.w	sp!, {r4, lr}
/mnt/disk/raspbian-tee/optee_os/lib/libutee/trace_ext.c:18
    213c:	f006 bfa4 	b.w	9088 <__utee_log_from_thumb>

00002140 <trace_ext_get_thread_id>:
trace_ext_get_thread_id():
/mnt/disk/raspbian-tee/optee_os/lib/libutee/trace_ext.c:24
    2140:	f04f 30ff 	mov.w	r0, #4294967295	; 0xffffffff
    2144:	4770      	bx	lr

00002146 <printf>:
printf():
/mnt/disk/raspbian-tee/optee_os/lib/libutee/trace_ext.c:32
    2146:	b40f      	push	{r0, r1, r2, r3}
    2148:	b530      	push	{r4, r5, lr}
    214a:	b0c3      	sub	sp, #268	; 0x10c
/mnt/disk/raspbian-tee/optee_os/lib/libutee/trace_ext.c:37
    214c:	f7ff fb00 	bl	1750 <trace_get_level>
    2150:	2800      	cmp	r0, #0
    2152:	dd13      	ble.n	217c <printf+0x36>
/mnt/disk/raspbian-tee/optee_os/lib/libutee/trace_ext.c:41
    2154:	ad02      	add	r5, sp, #8
/mnt/disk/raspbian-tee/optee_os/lib/libutee/trace_ext.c:40
    2156:	ab47      	add	r3, sp, #284	; 0x11c
/mnt/disk/raspbian-tee/optee_os/lib/libutee/trace_ext.c:41
    2158:	9a46      	ldr	r2, [sp, #280]	; 0x118
    215a:	f44f 7180 	mov.w	r1, #256	; 0x100
    215e:	4628      	mov	r0, r5
/mnt/disk/raspbian-tee/optee_os/lib/libutee/trace_ext.c:40
    2160:	9301      	str	r3, [sp, #4]
/mnt/disk/raspbian-tee/optee_os/lib/libutee/trace_ext.c:41
    2162:	f006 ff3f 	bl	8fe4 <vsnprintf>
/mnt/disk/raspbian-tee/optee_os/lib/libutee/trace_ext.c:44
    2166:	1e04      	subs	r4, r0, #0
    2168:	db02      	blt.n	2170 <printf+0x2a>
/mnt/disk/raspbian-tee/optee_os/lib/libutee/trace_ext.c:47
    216a:	4628      	mov	r0, r5
    216c:	f7ff ffde 	bl	212c <trace_ext_puts>
/mnt/disk/raspbian-tee/optee_os/lib/libutee/trace_ext.c:50
    2170:	4620      	mov	r0, r4
    2172:	b043      	add	sp, #268	; 0x10c
    2174:	e8bd 4030 	ldmia.w	sp!, {r4, r5, lr}
    2178:	b004      	add	sp, #16
    217a:	4770      	bx	lr
/mnt/disk/raspbian-tee/optee_os/lib/libutee/trace_ext.c:38
    217c:	2400      	movs	r4, #0
    217e:	e7f7      	b.n	2170 <printf+0x2a>

00002180 <puts>:
puts():
/mnt/disk/raspbian-tee/optee_os/lib/libutee/trace_ext.c:53
    2180:	b510      	push	{r4, lr}
    2182:	4604      	mov	r4, r0
/mnt/disk/raspbian-tee/optee_os/lib/libutee/trace_ext.c:54
    2184:	f7ff fae4 	bl	1750 <trace_get_level>
    2188:	2800      	cmp	r0, #0
    218a:	dd06      	ble.n	219a <puts+0x1a>
/mnt/disk/raspbian-tee/optee_os/lib/libutee/trace_ext.c:55
    218c:	4620      	mov	r0, r4
    218e:	f7ff ffcd 	bl	212c <trace_ext_puts>
/mnt/disk/raspbian-tee/optee_os/lib/libutee/trace_ext.c:56
    2192:	4803      	ldr	r0, [pc, #12]	; (21a0 <puts+0x20>)
    2194:	4478      	add	r0, pc
    2196:	f7ff ffc9 	bl	212c <trace_ext_puts>
/mnt/disk/raspbian-tee/optee_os/lib/libutee/trace_ext.c:59
    219a:	2001      	movs	r0, #1
    219c:	bd10      	pop	{r4, pc}
    219e:	bf00      	nop
    21a0:	000076da 	.word	0x000076da

000021a4 <putchar>:
putchar():
/mnt/disk/raspbian-tee/optee_os/lib/libutee/trace_ext.c:62
    21a4:	b513      	push	{r0, r1, r4, lr}
/mnt/disk/raspbian-tee/optee_os/lib/libutee/trace_ext.c:63
    21a6:	2300      	movs	r3, #0
/mnt/disk/raspbian-tee/optee_os/lib/libutee/trace_ext.c:62
    21a8:	4604      	mov	r4, r0
/mnt/disk/raspbian-tee/optee_os/lib/libutee/trace_ext.c:63
    21aa:	f88d 0004 	strb.w	r0, [sp, #4]
    21ae:	f88d 3005 	strb.w	r3, [sp, #5]
/mnt/disk/raspbian-tee/optee_os/lib/libutee/trace_ext.c:65
    21b2:	f7ff facd 	bl	1750 <trace_get_level>
    21b6:	2800      	cmp	r0, #0
    21b8:	dd02      	ble.n	21c0 <putchar+0x1c>
/mnt/disk/raspbian-tee/optee_os/lib/libutee/trace_ext.c:66
    21ba:	a801      	add	r0, sp, #4
    21bc:	f7ff ffb6 	bl	212c <trace_ext_puts>
/mnt/disk/raspbian-tee/optee_os/lib/libutee/trace_ext.c:73
    21c0:	b2e0      	uxtb	r0, r4
    21c2:	b002      	add	sp, #8
    21c4:	bd10      	pop	{r4, pc}
    21c6:	bf00      	nop

000021c8 <__utee_from_param>:
__utee_from_param():
/mnt/disk/raspbian-tee/optee_os/lib/libutee/tee_api.c:23
    21c8:	2300      	movs	r3, #0
/mnt/disk/raspbian-tee/optee_os/lib/libutee/tee_api.c:20
    21ca:	b5f0      	push	{r4, r5, r6, r7, lr}
    21cc:	4694      	mov	ip, r2
    21ce:	4615      	mov	r5, r2
/mnt/disk/raspbian-tee/optee_os/lib/libutee/tee_api.c:39
    21d0:	2600      	movs	r6, #0
    21d2:	2700      	movs	r7, #0
/mnt/disk/raspbian-tee/optee_os/lib/libutee/tee_api.c:35
    21d4:	461a      	mov	r2, r3
/mnt/disk/raspbian-tee/optee_os/lib/libutee/tee_api.c:23
    21d6:	e880 000a 	stmia.w	r0, {r1, r3}
/mnt/disk/raspbian-tee/optee_os/lib/libutee/tee_api.c:25
    21da:	fa21 f403 	lsr.w	r4, r1, r3
    21de:	f004 040f 	and.w	r4, r4, #15
    21e2:	3c01      	subs	r4, #1
    21e4:	2c06      	cmp	r4, #6
    21e6:	d812      	bhi.n	220e <__utee_from_param+0x46>
    21e8:	e8df f004 	tbb	[pc, r4]
    21ec:	11040404 	.word	0x11040404
    21f0:	0404      	.short	0x0404
    21f2:	04          	.byte	0x04
    21f3:	00          	.byte	0x00
/mnt/disk/raspbian-tee/optee_os/lib/libutee/tee_api.c:35
    21f4:	f85c 4013 	ldr.w	r4, [ip, r3, lsl #1]
    21f8:	6084      	str	r4, [r0, #8]
    21fa:	60c2      	str	r2, [r0, #12]
/mnt/disk/raspbian-tee/optee_os/lib/libutee/tee_api.c:36
    21fc:	686c      	ldr	r4, [r5, #4]
    21fe:	6104      	str	r4, [r0, #16]
    2200:	6142      	str	r2, [r0, #20]
    2202:	3304      	adds	r3, #4
    2204:	3508      	adds	r5, #8
    2206:	3010      	adds	r0, #16
/mnt/disk/raspbian-tee/optee_os/lib/libutee/tee_api.c:24 (discriminator 2)
    2208:	2b10      	cmp	r3, #16
    220a:	d1e6      	bne.n	21da <__utee_from_param+0x12>
/mnt/disk/raspbian-tee/optee_os/lib/libutee/tee_api.c:44
    220c:	bdf0      	pop	{r4, r5, r6, r7, pc}
/mnt/disk/raspbian-tee/optee_os/lib/libutee/tee_api.c:39
    220e:	e9c0 6702 	strd	r6, r7, [r0, #8]
/mnt/disk/raspbian-tee/optee_os/lib/libutee/tee_api.c:40
    2212:	e9c0 6704 	strd	r6, r7, [r0, #16]
/mnt/disk/raspbian-tee/optee_os/lib/libutee/tee_api.c:41
    2216:	e7f4      	b.n	2202 <__utee_from_param+0x3a>

00002218 <__utee_to_param>:
__utee_to_param():
/mnt/disk/raspbian-tee/optee_os/lib/libutee/tee_api.c:48
    2218:	b5f0      	push	{r4, r5, r6, r7, lr}
/mnt/disk/raspbian-tee/optee_os/lib/libutee/tee_api.c:50
    221a:	2300      	movs	r3, #0
    221c:	6816      	ldr	r6, [r2, #0]
    221e:	4605      	mov	r5, r0
/mnt/disk/raspbian-tee/optee_os/lib/libutee/tee_api.c:56
    2220:	fa26 f403 	lsr.w	r4, r6, r3
/mnt/disk/raspbian-tee/optee_os/lib/libutee/tee_api.c:53
    2224:	f8d2 c008 	ldr.w	ip, [r2, #8]
/mnt/disk/raspbian-tee/optee_os/lib/libutee/tee_api.c:56
    2228:	f004 040f 	and.w	r4, r4, #15
/mnt/disk/raspbian-tee/optee_os/lib/libutee/tee_api.c:54
    222c:	6917      	ldr	r7, [r2, #16]
/mnt/disk/raspbian-tee/optee_os/lib/libutee/tee_api.c:56
    222e:	3c01      	subs	r4, #1
    2230:	2c06      	cmp	r4, #6
    2232:	d808      	bhi.n	2246 <__utee_to_param+0x2e>
    2234:	e8df f004 	tbb	[pc, r4]
    2238:	07040404 	.word	0x07040404
    223c:	0404      	.short	0x0404
    223e:	04          	.byte	0x04
    223f:	00          	.byte	0x00
/mnt/disk/raspbian-tee/optee_os/lib/libutee/tee_api.c:66
    2240:	f840 c013 	str.w	ip, [r0, r3, lsl #1]
/mnt/disk/raspbian-tee/optee_os/lib/libutee/tee_api.c:67
    2244:	606f      	str	r7, [r5, #4]
    2246:	3304      	adds	r3, #4
    2248:	3210      	adds	r2, #16
    224a:	3508      	adds	r5, #8
/mnt/disk/raspbian-tee/optee_os/lib/libutee/tee_api.c:52 (discriminator 2)
    224c:	2b10      	cmp	r3, #16
    224e:	d1e7      	bne.n	2220 <__utee_to_param+0x8>
/mnt/disk/raspbian-tee/optee_os/lib/libutee/tee_api.c:74
    2250:	b101      	cbz	r1, 2254 <__utee_to_param+0x3c>
/mnt/disk/raspbian-tee/optee_os/lib/libutee/tee_api.c:75
    2252:	600e      	str	r6, [r1, #0]
    2254:	bdf0      	pop	{r4, r5, r6, r7, pc}

00002256 <TEE_OpenTASession>:
TEE_OpenTASession():
/mnt/disk/raspbian-tee/optee_os/lib/libutee/tee_api.c:84
    2256:	b5f0      	push	{r4, r5, r6, r7, lr}
    2258:	4605      	mov	r5, r0
    225a:	460f      	mov	r7, r1
    225c:	b097      	sub	sp, #92	; 0x5c
    225e:	4611      	mov	r1, r2
/mnt/disk/raspbian-tee/optee_os/lib/libutee/tee_api.c:89
    2260:	ac04      	add	r4, sp, #16
    2262:	461a      	mov	r2, r3
    2264:	4620      	mov	r0, r4
/mnt/disk/raspbian-tee/optee_os/lib/libutee/tee_api.c:84
    2266:	461e      	mov	r6, r3
/mnt/disk/raspbian-tee/optee_os/lib/libutee/tee_api.c:89
    2268:	f7ff ffae 	bl	21c8 <__utee_from_param>
/mnt/disk/raspbian-tee/optee_os/lib/libutee/tee_api.c:90
    226c:	9b1d      	ldr	r3, [sp, #116]	; 0x74
    226e:	9300      	str	r3, [sp, #0]
    2270:	4622      	mov	r2, r4
    2272:	4639      	mov	r1, r7
    2274:	4628      	mov	r0, r5
    2276:	ab03      	add	r3, sp, #12
    2278:	f002 e90a 	blx	4490 <utee_open_ta_session>
/mnt/disk/raspbian-tee/optee_os/lib/libutee/tee_api.c:92
    227c:	4622      	mov	r2, r4
/mnt/disk/raspbian-tee/optee_os/lib/libutee/tee_api.c:90
    227e:	4605      	mov	r5, r0
/mnt/disk/raspbian-tee/optee_os/lib/libutee/tee_api.c:92
    2280:	2100      	movs	r1, #0
    2282:	4630      	mov	r0, r6
    2284:	f7ff ffc8 	bl	2218 <__utee_to_param>
/mnt/disk/raspbian-tee/optee_os/lib/libutee/tee_api.c:98
    2288:	b10d      	cbz	r5, 228e <TEE_OpenTASession+0x38>
/mnt/disk/raspbian-tee/optee_os/lib/libutee/tee_api.c:99
    228a:	2300      	movs	r3, #0
    228c:	9303      	str	r3, [sp, #12]
/mnt/disk/raspbian-tee/optee_os/lib/libutee/tee_api.c:101
    228e:	9b1c      	ldr	r3, [sp, #112]	; 0x70
/mnt/disk/raspbian-tee/optee_os/lib/libutee/tee_api.c:103
    2290:	4628      	mov	r0, r5
/mnt/disk/raspbian-tee/optee_os/lib/libutee/tee_api.c:101
    2292:	9a03      	ldr	r2, [sp, #12]
    2294:	601a      	str	r2, [r3, #0]
/mnt/disk/raspbian-tee/optee_os/lib/libutee/tee_api.c:103
    2296:	b017      	add	sp, #92	; 0x5c
    2298:	bdf0      	pop	{r4, r5, r6, r7, pc}

0000229a <TEE_CloseTASession>:
TEE_CloseTASession():
/mnt/disk/raspbian-tee/optee_os/lib/libutee/tee_api.c:106
    229a:	b508      	push	{r3, lr}
/mnt/disk/raspbian-tee/optee_os/lib/libutee/tee_api.c:107
    229c:	b130      	cbz	r0, 22ac <TEE_CloseTASession+0x12>
/mnt/disk/raspbian-tee/optee_os/lib/libutee/tee_api.c:108
    229e:	f002 e904 	blx	44a8 <utee_close_ta_session>
/mnt/disk/raspbian-tee/optee_os/lib/libutee/tee_api.c:110
    22a2:	b118      	cbz	r0, 22ac <TEE_CloseTASession+0x12>
/mnt/disk/raspbian-tee/optee_os/lib/libutee/tee_api.c:113
    22a4:	e8bd 4008 	ldmia.w	sp!, {r3, lr}
/mnt/disk/raspbian-tee/optee_os/lib/libutee/tee_api.c:111
    22a8:	f006 be8b 	b.w	8fc2 <TEE_Panic>
    22ac:	bd08      	pop	{r3, pc}

000022ae <TEE_InvokeTACommand>:
TEE_InvokeTACommand():
/mnt/disk/raspbian-tee/optee_os/lib/libutee/tee_api.c:120
    22ae:	e92d 41f0 	stmdb	sp!, {r4, r5, r6, r7, r8, lr}
    22b2:	4604      	mov	r4, r0
    22b4:	460f      	mov	r7, r1
    22b6:	b096      	sub	sp, #88	; 0x58
/mnt/disk/raspbian-tee/optee_os/lib/libutee/tee_api.c:125
    22b8:	4619      	mov	r1, r3
    22ba:	ad04      	add	r5, sp, #16
/mnt/disk/raspbian-tee/optee_os/lib/libutee/tee_api.c:120
    22bc:	4690      	mov	r8, r2
/mnt/disk/raspbian-tee/optee_os/lib/libutee/tee_api.c:125
    22be:	4628      	mov	r0, r5
/mnt/disk/raspbian-tee/optee_os/lib/libutee/tee_api.c:120
